   1              		.file	"main.c"
   2              		.section	.rodata.str1.1,"aMS",@progbits,1
   3              	.LC0:
   4 0000 53696768 		.string	"Sighup"
   4      757000
   5              		.section	.text.unlikely,"ax",@progbits
   6              	.LCOLDB1:
   7              		.text
   8              	.LHOTB1:
   9              		.p2align 4,,15
  10              		.globl	sigHup
  12              	sigHup:
  13              	.LFB494:
  14              		.cfi_startproc
  15 0000 BF000000 		movl	$.LC0, %edi
  15      00
  16 0005 E9000000 		jmp	puts
  16      00
  17              		.cfi_endproc
  18              	.LFE494:
  20              		.section	.text.unlikely
  21              	.LCOLDE1:
  22              		.text
  23              	.LHOTE1:
  24              		.section	.rodata.str1.1
  25              	.LC2:
  26 0007 0A457869 		.string	"\nExiting program"
  26      74696E67 
  26      2070726F 
  26      6772616D 
  26      00
  27              		.section	.text.unlikely
  28              	.LCOLDB3:
  29              		.text
  30              	.LHOTB3:
  31 000a 660F1F44 		.p2align 4,,15
  31      0000
  32              		.globl	sigInt
  34              	sigInt:
  35              	.LFB493:
  36              		.cfi_startproc
  37 0010 BF000000 		movl	$.LC2, %edi
  37      00
  38 0015 4883EC08 		subq	$8, %rsp
  39              		.cfi_def_cfa_offset 16
  40 0019 E8000000 		call	puts
  40      00
  41 001e 31FF     		xorl	%edi, %edi
  42 0020 E8000000 		call	exit
  42      00
  43              		.cfi_endproc
  44              	.LFE493:
  46              		.section	.text.unlikely
  47              	.LCOLDE3:
  48              		.text
  49              	.LHOTE3:
  50              		.section	.rodata.str1.1
  51              	.LC4:
  52 0018 48656C6C 		.string	"Hello World\n"
  52      6F20576F 
  52      726C640A 
  52      00
  53              		.section	.text.unlikely
  54              	.LCOLDB5:
  55              		.text
  56              	.LHOTB5:
  57 0025 90662E0F 		.p2align 4,,15
  57      1F840000 
  57      000000
  58              		.globl	print_hello
  60              	print_hello:
  61              	.LFB495:
  62              		.cfi_startproc
  63 0030 31C0     		xorl	%eax, %eax
  64 0032 4883EC08 		subq	$8, %rsp
  65              		.cfi_def_cfa_offset 16
  66 0036 BF000000 		movl	$.LC4, %edi
  66      00
  67 003b E8000000 		call	g_print
  67      00
  68 0040 4883C408 		addq	$8, %rsp
  69              		.cfi_def_cfa_offset 8
  70 0044 C3       		ret
  71              		.cfi_endproc
  72              	.LFE495:
  74              		.section	.text.unlikely
  75              	.LCOLDE5:
  76              		.text
  77              	.LHOTE5:
  78              		.section	.rodata.str1.1
  79              	.LC6:
  80 0025 0A47544B 		.string	"\nGTK+ example program\n\n"
  80      2B206578 
  80      616D706C 
  80      65207072 
  80      6F677261 
  81              	.LC7:
  82 003d 67746B74 		.string	"gtktest"
  82      65737400 
  83              	.LC8:
  84 0045 48656C6C 		.string	"Hello World"
  84      6F20576F 
  84      726C6400 
  85              	.LC9:
  86 0051 48656C6C 		.string	"Hello World 2"
  86      6F20576F 
  86      726C6420 
  86      3200
  87              	.LC10:
  88 005f 636C6963 		.string	"clicked"
  88      6B656400 
  89              	.LC11:
  90 0067 46696C65 		.string	"File"
  90      00
  91              	.LC12:
  92 006c 51756974 		.string	"Quit"
  92      00
  93              	.LC13:
  94 0071 64657374 		.string	"destroy"
  94      726F7900 
  95              	.LC14:
  96 0079 61637469 		.string	"activate"
  96      76617465 
  96      00
  97              		.section	.text.unlikely
  98              	.LCOLDB15:
  99              		.section	.text.startup,"ax",@progbits
 100              	.LHOTB15:
 101              		.p2align 4,,15
 102              		.globl	main
 104              	main:
 105              	.LFB496:
 106              		.cfi_startproc
 107 0000 4154     		pushq	%r12
 108              		.cfi_def_cfa_offset 16
 109              		.cfi_offset 12, -16
 110 0002 55       		pushq	%rbp
 111              		.cfi_def_cfa_offset 24
 112              		.cfi_offset 6, -24
 113 0003 53       		pushq	%rbx
 114              		.cfi_def_cfa_offset 32
 115              		.cfi_offset 3, -32
 116 0004 4883EC10 		subq	$16, %rsp
 117              		.cfi_def_cfa_offset 48
 118 0008 897C240C 		movl	%edi, 12(%rsp)
 119 000c 48893424 		movq	%rsi, (%rsp)
 120 0010 BF020000 		movl	$2, %edi
 120      00
 121 0015 BE000000 		movl	$sigInt, %esi
 121      00
 122 001a E8000000 		call	signal
 122      00
 123 001f BE000000 		movl	$sigHup, %esi
 123      00
 124 0024 BF010000 		movl	$1, %edi
 124      00
 125 0029 E8000000 		call	signal
 125      00
 126 002e BF000000 		movl	$.LC6, %edi
 126      00
 127 0033 E8000000 		call	puts
 127      00
 128 0038 488D7C24 		leaq	12(%rsp), %rdi
 128      0C
 129 003d 4889E6   		movq	%rsp, %rsi
 130 0040 E8000000 		call	gtk_init
 130      00
 131 0045 31FF     		xorl	%edi, %edi
 132 0047 E8000000 		call	gtk_window_new
 132      00
 133 004c 4889C5   		movq	%rax, %rbp
 134 004f 48890500 		movq	%rax, window(%rip)
 134      000000
 135 0056 E8000000 		call	gtk_window_get_type
 135      00
 136 005b 4889EF   		movq	%rbp, %rdi
 137 005e 4889C6   		movq	%rax, %rsi
 138 0061 4889C3   		movq	%rax, %rbx
 139 0064 E8000000 		call	g_type_check_instance_cast
 139      00
 140 0069 BE000000 		movl	$.LC7, %esi
 140      00
 141 006e 4889C7   		movq	%rax, %rdi
 142 0071 E8000000 		call	gtk_window_set_title
 142      00
 143 0076 488B3D00 		movq	window(%rip), %rdi
 143      000000
 144 007d 4889DE   		movq	%rbx, %rsi
 145 0080 E8000000 		call	g_type_check_instance_cast
 145      00
 146 0085 BE010000 		movl	$1, %esi
 146      00
 147 008a 4889C7   		movq	%rax, %rdi
 148 008d E8000000 		call	gtk_window_set_position
 148      00
 149 0092 488B3D00 		movq	window(%rip), %rdi
 149      000000
 150 0099 4889DE   		movq	%rbx, %rsi
 151 009c E8000000 		call	g_type_check_instance_cast
 151      00
 152 00a1 BAC80000 		movl	$200, %edx
 152      00
 153 00a6 4889C7   		movq	%rax, %rdi
 154 00a9 BEC80000 		movl	$200, %esi
 154      00
 155 00ae E8000000 		call	gtk_window_set_default_size
 155      00
 156 00b3 BE030000 		movl	$3, %esi
 156      00
 157 00b8 BF010000 		movl	$1, %edi
 157      00
 158 00bd E8000000 		call	gtk_box_new
 158      00
 159 00c2 4889C5   		movq	%rax, %rbp
 160 00c5 48890500 		movq	%rax, vbox(%rip)
 160      000000
 161 00cc E8000000 		call	gtk_container_get_type
 161      00
 162 00d1 488B3D00 		movq	window(%rip), %rdi
 162      000000
 163 00d8 4889C6   		movq	%rax, %rsi
 164 00db 4889C3   		movq	%rax, %rbx
 165 00de E8000000 		call	g_type_check_instance_cast
 165      00
 166 00e3 4889EE   		movq	%rbp, %rsi
 167 00e6 4889C7   		movq	%rax, %rdi
 168 00e9 E8000000 		call	gtk_container_add
 168      00
 169 00ee BF000000 		movl	$.LC8, %edi
 169      00
 170 00f3 E8000000 		call	gtk_button_new_with_label
 170      00
 171 00f8 BF000000 		movl	$.LC9, %edi
 171      00
 172 00fd 48890500 		movq	%rax, button(%rip)
 172      000000
 173 0104 E8000000 		call	gtk_button_new_with_label
 173      00
 174 0109 488B3D00 		movq	button(%rip), %rdi
 174      000000
 175 0110 4531C9   		xorl	%r9d, %r9d
 176 0113 4531C0   		xorl	%r8d, %r8d
 177 0116 31C9     		xorl	%ecx, %ecx
 178 0118 BA000000 		movl	$print_hello, %edx
 178      00
 179 011d BE000000 		movl	$.LC10, %esi
 179      00
 180 0122 48890500 		movq	%rax, button2(%rip)
 180      000000
 181 0129 E8000000 		call	g_signal_connect_data
 181      00
 182 012e E8000000 		call	gtk_menu_bar_new
 182      00
 183 0133 48890500 		movq	%rax, menubar(%rip)
 183      000000
 184 013a E8000000 		call	gtk_menu_new
 184      00
 185 013f BF000000 		movl	$.LC11, %edi
 185      00
 186 0144 48890500 		movq	%rax, fileMenu(%rip)
 186      000000
 187 014b E8000000 		call	gtk_menu_item_new_with_label
 187      00
 188 0150 BF000000 		movl	$.LC12, %edi
 188      00
 189 0155 48890500 		movq	%rax, fileMi(%rip)
 189      000000
 190 015c E8000000 		call	gtk_menu_item_new_with_label
 190      00
 191 0161 488B2D00 		movq	fileMenu(%rip), %rbp
 191      000000
 192 0168 48890500 		movq	%rax, quitMi(%rip)
 192      000000
 193 016f E8000000 		call	gtk_menu_item_get_type
 193      00
 194 0174 488B3D00 		movq	fileMi(%rip), %rdi
 194      000000
 195 017b 4889C6   		movq	%rax, %rsi
 196 017e E8000000 		call	g_type_check_instance_cast
 196      00
 197 0183 4889EE   		movq	%rbp, %rsi
 198 0186 4889C7   		movq	%rax, %rdi
 199 0189 E8000000 		call	gtk_menu_item_set_submenu
 199      00
 200 018e E8000000 		call	gtk_menu_shell_get_type
 200      00
 201 0193 4C8B2500 		movq	quitMi(%rip), %r12
 201      000000
 202 019a 488B3D00 		movq	fileMenu(%rip), %rdi
 202      000000
 203 01a1 4889C6   		movq	%rax, %rsi
 204 01a4 4889C5   		movq	%rax, %rbp
 205 01a7 E8000000 		call	g_type_check_instance_cast
 205      00
 206 01ac 4C89E6   		movq	%r12, %rsi
 207 01af 4889C7   		movq	%rax, %rdi
 208 01b2 E8000000 		call	gtk_menu_shell_append
 208      00
 209 01b7 4C8B2500 		movq	fileMi(%rip), %r12
 209      000000
 210 01be 488B3D00 		movq	menubar(%rip), %rdi
 210      000000
 211 01c5 4889EE   		movq	%rbp, %rsi
 212 01c8 E8000000 		call	g_type_check_instance_cast
 212      00
 213 01cd 4C89E6   		movq	%r12, %rsi
 214 01d0 4889C7   		movq	%rax, %rdi
 215 01d3 E8000000 		call	gtk_menu_shell_append
 215      00
 216 01d8 E8000000 		call	gtk_box_get_type
 216      00
 217 01dd 488B2D00 		movq	menubar(%rip), %rbp
 217      000000
 218 01e4 488B3D00 		movq	vbox(%rip), %rdi
 218      000000
 219 01eb 4889C6   		movq	%rax, %rsi
 220 01ee E8000000 		call	g_type_check_instance_cast
 220      00
 221 01f3 4889EE   		movq	%rbp, %rsi
 222 01f6 4889C7   		movq	%rax, %rdi
 223 01f9 4531C0   		xorl	%r8d, %r8d
 224 01fc 31C9     		xorl	%ecx, %ecx
 225 01fe 31D2     		xorl	%edx, %edx
 226 0200 E8000000 		call	gtk_box_pack_start
 226      00
 227 0205 488B3D00 		movq	window(%rip), %rdi
 227      000000
 228 020c 4531C9   		xorl	%r9d, %r9d
 229 020f 4531C0   		xorl	%r8d, %r8d
 230 0212 31C9     		xorl	%ecx, %ecx
 231 0214 BA000000 		movl	$gtk_main_quit, %edx
 231      00
 232 0219 BE000000 		movl	$.LC13, %esi
 232      00
 233 021e E8000000 		call	g_signal_connect_data
 233      00
 234 0223 488B3D00 		movq	quitMi(%rip), %rdi
 234      000000
 235 022a BE500000 		movl	$80, %esi
 235      00
 236 022f E8000000 		call	g_type_check_instance_cast
 236      00
 237 0234 4531C9   		xorl	%r9d, %r9d
 238 0237 4531C0   		xorl	%r8d, %r8d
 239 023a 31C9     		xorl	%ecx, %ecx
 240 023c BA000000 		movl	$gtk_main_quit, %edx
 240      00
 241 0241 BE000000 		movl	$.LC14, %esi
 241      00
 242 0246 4889C7   		movq	%rax, %rdi
 243 0249 E8000000 		call	g_signal_connect_data
 243      00
 244 024e 488B2D00 		movq	button(%rip), %rbp
 244      000000
 245 0255 488B3D00 		movq	vbox(%rip), %rdi
 245      000000
 246 025c 4889DE   		movq	%rbx, %rsi
 247 025f E8000000 		call	g_type_check_instance_cast
 247      00
 248 0264 4889EE   		movq	%rbp, %rsi
 249 0267 4889C7   		movq	%rax, %rdi
 250 026a E8000000 		call	gtk_container_add
 250      00
 251 026f 488B2D00 		movq	button2(%rip), %rbp
 251      000000
 252 0276 488B3D00 		movq	vbox(%rip), %rdi
 252      000000
 253 027d 4889DE   		movq	%rbx, %rsi
 254 0280 E8000000 		call	g_type_check_instance_cast
 254      00
 255 0285 4889EE   		movq	%rbp, %rsi
 256 0288 4889C7   		movq	%rax, %rdi
 257 028b E8000000 		call	gtk_container_add
 257      00
 258 0290 488B3D00 		movq	window(%rip), %rdi
 258      000000
 259 0297 E8000000 		call	gtk_widget_show_all
 259      00
 260 029c E8000000 		call	gtk_main
 260      00
 261 02a1 4883C410 		addq	$16, %rsp
 262              		.cfi_def_cfa_offset 32
 263 02a5 31C0     		xorl	%eax, %eax
 264 02a7 5B       		popq	%rbx
 265              		.cfi_def_cfa_offset 24
 266 02a8 5D       		popq	%rbp
 267              		.cfi_def_cfa_offset 16
 268 02a9 415C     		popq	%r12
 269              		.cfi_def_cfa_offset 8
 270 02ab C3       		ret
 271              		.cfi_endproc
 272              	.LFE496:
 274              		.section	.text.unlikely
 275              	.LCOLDE15:
 276              		.section	.text.startup
 277              	.LHOTE15:
 278              		.comm	quitMi,8,8
 279              		.comm	fileMi,8,8
 280              		.comm	fileMenu,8,8
 281              		.comm	menubar,8,8
 282              		.comm	button2,8,8
 283              		.comm	button,8,8
 284              		.comm	vbox,8,8
 285              		.comm	window,8,8
 286              		.ident	"GCC: (Ubuntu 5.4.0-6ubuntu1~16.04.4) 5.4.0 20160609"
 287              		.section	.note.GNU-stack,"",@progbits