   1              		.file	"pngget.c"
   2              		.text
   3              	.Ltext0:
   4              		.section	.text.unlikely.ppi_from_ppm,"ax",@progbits
   5              	.LCOLDB0:
   6              		.section	.text.ppi_from_ppm,"ax",@progbits
   7              	.LHOTB0:
   8              		.p2align 4,,15
   9              		.section	.text.unlikely.ppi_from_ppm
  10              	.Ltext_cold0:
  11              		.section	.text.ppi_from_ppm
  13              	ppi_from_ppm:
  14              	.LFB75:
  15              		.file 1 "fltk-1.3.4-1/png/pngget.c"
   1:fltk-1.3.4-1/png/pngget.c **** 
   2:fltk-1.3.4-1/png/pngget.c **** /* pngget.c - retrieval of values from info struct
   3:fltk-1.3.4-1/png/pngget.c ****  *
   4:fltk-1.3.4-1/png/pngget.c ****  * Last changed in libpng 1.6.15 [November 20, 2014]
   5:fltk-1.3.4-1/png/pngget.c ****  * Copyright (c) 1998-2014 Glenn Randers-Pehrson
   6:fltk-1.3.4-1/png/pngget.c ****  * (Version 0.96 Copyright (c) 1996, 1997 Andreas Dilger)
   7:fltk-1.3.4-1/png/pngget.c ****  * (Version 0.88 Copyright (c) 1995, 1996 Guy Eric Schalnat, Group 42, Inc.)
   8:fltk-1.3.4-1/png/pngget.c ****  *
   9:fltk-1.3.4-1/png/pngget.c ****  * This code is released under the libpng license.
  10:fltk-1.3.4-1/png/pngget.c ****  * For conditions of distribution and use, see the disclaimer
  11:fltk-1.3.4-1/png/pngget.c ****  * and license in png.h
  12:fltk-1.3.4-1/png/pngget.c ****  *
  13:fltk-1.3.4-1/png/pngget.c ****  */
  14:fltk-1.3.4-1/png/pngget.c **** 
  15:fltk-1.3.4-1/png/pngget.c **** #include "pngpriv.h"
  16:fltk-1.3.4-1/png/pngget.c **** 
  17:fltk-1.3.4-1/png/pngget.c **** #if defined(PNG_READ_SUPPORTED) || defined(PNG_WRITE_SUPPORTED)
  18:fltk-1.3.4-1/png/pngget.c **** 
  19:fltk-1.3.4-1/png/pngget.c **** png_uint_32 PNGAPI
  20:fltk-1.3.4-1/png/pngget.c **** png_get_valid(png_const_structrp png_ptr, png_const_inforp info_ptr,
  21:fltk-1.3.4-1/png/pngget.c ****     png_uint_32 flag)
  22:fltk-1.3.4-1/png/pngget.c **** {
  23:fltk-1.3.4-1/png/pngget.c ****    if (png_ptr != NULL && info_ptr != NULL)
  24:fltk-1.3.4-1/png/pngget.c ****       return(info_ptr->valid & flag);
  25:fltk-1.3.4-1/png/pngget.c **** 
  26:fltk-1.3.4-1/png/pngget.c ****    return(0);
  27:fltk-1.3.4-1/png/pngget.c **** }
  28:fltk-1.3.4-1/png/pngget.c **** 
  29:fltk-1.3.4-1/png/pngget.c **** png_size_t PNGAPI
  30:fltk-1.3.4-1/png/pngget.c **** png_get_rowbytes(png_const_structrp png_ptr, png_const_inforp info_ptr)
  31:fltk-1.3.4-1/png/pngget.c **** {
  32:fltk-1.3.4-1/png/pngget.c ****    if (png_ptr != NULL && info_ptr != NULL)
  33:fltk-1.3.4-1/png/pngget.c ****       return(info_ptr->rowbytes);
  34:fltk-1.3.4-1/png/pngget.c **** 
  35:fltk-1.3.4-1/png/pngget.c ****    return(0);
  36:fltk-1.3.4-1/png/pngget.c **** }
  37:fltk-1.3.4-1/png/pngget.c **** 
  38:fltk-1.3.4-1/png/pngget.c **** #ifdef PNG_INFO_IMAGE_SUPPORTED
  39:fltk-1.3.4-1/png/pngget.c **** png_bytepp PNGAPI
  40:fltk-1.3.4-1/png/pngget.c **** png_get_rows(png_const_structrp png_ptr, png_const_inforp info_ptr)
  41:fltk-1.3.4-1/png/pngget.c **** {
  42:fltk-1.3.4-1/png/pngget.c ****    if (png_ptr != NULL && info_ptr != NULL)
  43:fltk-1.3.4-1/png/pngget.c ****       return(info_ptr->row_pointers);
  44:fltk-1.3.4-1/png/pngget.c **** 
  45:fltk-1.3.4-1/png/pngget.c ****    return(0);
  46:fltk-1.3.4-1/png/pngget.c **** }
  47:fltk-1.3.4-1/png/pngget.c **** #endif
  48:fltk-1.3.4-1/png/pngget.c **** 
  49:fltk-1.3.4-1/png/pngget.c **** #ifdef PNG_EASY_ACCESS_SUPPORTED
  50:fltk-1.3.4-1/png/pngget.c **** /* Easy access to info, added in libpng-0.99 */
  51:fltk-1.3.4-1/png/pngget.c **** png_uint_32 PNGAPI
  52:fltk-1.3.4-1/png/pngget.c **** png_get_image_width(png_const_structrp png_ptr, png_const_inforp info_ptr)
  53:fltk-1.3.4-1/png/pngget.c **** {
  54:fltk-1.3.4-1/png/pngget.c ****    if (png_ptr != NULL && info_ptr != NULL)
  55:fltk-1.3.4-1/png/pngget.c ****       return info_ptr->width;
  56:fltk-1.3.4-1/png/pngget.c **** 
  57:fltk-1.3.4-1/png/pngget.c ****    return (0);
  58:fltk-1.3.4-1/png/pngget.c **** }
  59:fltk-1.3.4-1/png/pngget.c **** 
  60:fltk-1.3.4-1/png/pngget.c **** png_uint_32 PNGAPI
  61:fltk-1.3.4-1/png/pngget.c **** png_get_image_height(png_const_structrp png_ptr, png_const_inforp info_ptr)
  62:fltk-1.3.4-1/png/pngget.c **** {
  63:fltk-1.3.4-1/png/pngget.c ****    if (png_ptr != NULL && info_ptr != NULL)
  64:fltk-1.3.4-1/png/pngget.c ****       return info_ptr->height;
  65:fltk-1.3.4-1/png/pngget.c **** 
  66:fltk-1.3.4-1/png/pngget.c ****    return (0);
  67:fltk-1.3.4-1/png/pngget.c **** }
  68:fltk-1.3.4-1/png/pngget.c **** 
  69:fltk-1.3.4-1/png/pngget.c **** png_byte PNGAPI
  70:fltk-1.3.4-1/png/pngget.c **** png_get_bit_depth(png_const_structrp png_ptr, png_const_inforp info_ptr)
  71:fltk-1.3.4-1/png/pngget.c **** {
  72:fltk-1.3.4-1/png/pngget.c ****    if (png_ptr != NULL && info_ptr != NULL)
  73:fltk-1.3.4-1/png/pngget.c ****       return info_ptr->bit_depth;
  74:fltk-1.3.4-1/png/pngget.c **** 
  75:fltk-1.3.4-1/png/pngget.c ****    return (0);
  76:fltk-1.3.4-1/png/pngget.c **** }
  77:fltk-1.3.4-1/png/pngget.c **** 
  78:fltk-1.3.4-1/png/pngget.c **** png_byte PNGAPI
  79:fltk-1.3.4-1/png/pngget.c **** png_get_color_type(png_const_structrp png_ptr, png_const_inforp info_ptr)
  80:fltk-1.3.4-1/png/pngget.c **** {
  81:fltk-1.3.4-1/png/pngget.c ****    if (png_ptr != NULL && info_ptr != NULL)
  82:fltk-1.3.4-1/png/pngget.c ****       return info_ptr->color_type;
  83:fltk-1.3.4-1/png/pngget.c **** 
  84:fltk-1.3.4-1/png/pngget.c ****    return (0);
  85:fltk-1.3.4-1/png/pngget.c **** }
  86:fltk-1.3.4-1/png/pngget.c **** 
  87:fltk-1.3.4-1/png/pngget.c **** png_byte PNGAPI
  88:fltk-1.3.4-1/png/pngget.c **** png_get_filter_type(png_const_structrp png_ptr, png_const_inforp info_ptr)
  89:fltk-1.3.4-1/png/pngget.c **** {
  90:fltk-1.3.4-1/png/pngget.c ****    if (png_ptr != NULL && info_ptr != NULL)
  91:fltk-1.3.4-1/png/pngget.c ****       return info_ptr->filter_type;
  92:fltk-1.3.4-1/png/pngget.c **** 
  93:fltk-1.3.4-1/png/pngget.c ****    return (0);
  94:fltk-1.3.4-1/png/pngget.c **** }
  95:fltk-1.3.4-1/png/pngget.c **** 
  96:fltk-1.3.4-1/png/pngget.c **** png_byte PNGAPI
  97:fltk-1.3.4-1/png/pngget.c **** png_get_interlace_type(png_const_structrp png_ptr, png_const_inforp info_ptr)
  98:fltk-1.3.4-1/png/pngget.c **** {
  99:fltk-1.3.4-1/png/pngget.c ****    if (png_ptr != NULL && info_ptr != NULL)
 100:fltk-1.3.4-1/png/pngget.c ****       return info_ptr->interlace_type;
 101:fltk-1.3.4-1/png/pngget.c **** 
 102:fltk-1.3.4-1/png/pngget.c ****    return (0);
 103:fltk-1.3.4-1/png/pngget.c **** }
 104:fltk-1.3.4-1/png/pngget.c **** 
 105:fltk-1.3.4-1/png/pngget.c **** png_byte PNGAPI
 106:fltk-1.3.4-1/png/pngget.c **** png_get_compression_type(png_const_structrp png_ptr, png_const_inforp info_ptr)
 107:fltk-1.3.4-1/png/pngget.c **** {
 108:fltk-1.3.4-1/png/pngget.c ****    if (png_ptr != NULL && info_ptr != NULL)
 109:fltk-1.3.4-1/png/pngget.c ****       return info_ptr->compression_type;
 110:fltk-1.3.4-1/png/pngget.c **** 
 111:fltk-1.3.4-1/png/pngget.c ****    return (0);
 112:fltk-1.3.4-1/png/pngget.c **** }
 113:fltk-1.3.4-1/png/pngget.c **** 
 114:fltk-1.3.4-1/png/pngget.c **** png_uint_32 PNGAPI
 115:fltk-1.3.4-1/png/pngget.c **** png_get_x_pixels_per_meter(png_const_structrp png_ptr, png_const_inforp
 116:fltk-1.3.4-1/png/pngget.c ****    info_ptr)
 117:fltk-1.3.4-1/png/pngget.c **** {
 118:fltk-1.3.4-1/png/pngget.c **** #ifdef PNG_pHYs_SUPPORTED
 119:fltk-1.3.4-1/png/pngget.c ****    if (png_ptr != NULL && info_ptr != NULL &&
 120:fltk-1.3.4-1/png/pngget.c ****        (info_ptr->valid & PNG_INFO_pHYs) != 0)
 121:fltk-1.3.4-1/png/pngget.c ****       {
 122:fltk-1.3.4-1/png/pngget.c ****          png_debug1(1, "in %s retrieval function",
 123:fltk-1.3.4-1/png/pngget.c ****              "png_get_x_pixels_per_meter");
 124:fltk-1.3.4-1/png/pngget.c **** 
 125:fltk-1.3.4-1/png/pngget.c ****          if (info_ptr->phys_unit_type == PNG_RESOLUTION_METER)
 126:fltk-1.3.4-1/png/pngget.c ****             return (info_ptr->x_pixels_per_unit);
 127:fltk-1.3.4-1/png/pngget.c ****       }
 128:fltk-1.3.4-1/png/pngget.c **** #else
 129:fltk-1.3.4-1/png/pngget.c ****    PNG_UNUSED(png_ptr)
 130:fltk-1.3.4-1/png/pngget.c ****    PNG_UNUSED(info_ptr)
 131:fltk-1.3.4-1/png/pngget.c **** #endif
 132:fltk-1.3.4-1/png/pngget.c **** 
 133:fltk-1.3.4-1/png/pngget.c ****    return (0);
 134:fltk-1.3.4-1/png/pngget.c **** }
 135:fltk-1.3.4-1/png/pngget.c **** 
 136:fltk-1.3.4-1/png/pngget.c **** png_uint_32 PNGAPI
 137:fltk-1.3.4-1/png/pngget.c **** png_get_y_pixels_per_meter(png_const_structrp png_ptr, png_const_inforp
 138:fltk-1.3.4-1/png/pngget.c ****     info_ptr)
 139:fltk-1.3.4-1/png/pngget.c **** {
 140:fltk-1.3.4-1/png/pngget.c **** #ifdef PNG_pHYs_SUPPORTED
 141:fltk-1.3.4-1/png/pngget.c ****    if (png_ptr != NULL && info_ptr != NULL &&
 142:fltk-1.3.4-1/png/pngget.c ****        (info_ptr->valid & PNG_INFO_pHYs) != 0)
 143:fltk-1.3.4-1/png/pngget.c ****    {
 144:fltk-1.3.4-1/png/pngget.c ****       png_debug1(1, "in %s retrieval function",
 145:fltk-1.3.4-1/png/pngget.c ****           "png_get_y_pixels_per_meter");
 146:fltk-1.3.4-1/png/pngget.c **** 
 147:fltk-1.3.4-1/png/pngget.c ****       if (info_ptr->phys_unit_type == PNG_RESOLUTION_METER)
 148:fltk-1.3.4-1/png/pngget.c ****          return (info_ptr->y_pixels_per_unit);
 149:fltk-1.3.4-1/png/pngget.c ****    }
 150:fltk-1.3.4-1/png/pngget.c **** #else
 151:fltk-1.3.4-1/png/pngget.c ****    PNG_UNUSED(png_ptr)
 152:fltk-1.3.4-1/png/pngget.c ****    PNG_UNUSED(info_ptr)
 153:fltk-1.3.4-1/png/pngget.c **** #endif
 154:fltk-1.3.4-1/png/pngget.c **** 
 155:fltk-1.3.4-1/png/pngget.c ****    return (0);
 156:fltk-1.3.4-1/png/pngget.c **** }
 157:fltk-1.3.4-1/png/pngget.c **** 
 158:fltk-1.3.4-1/png/pngget.c **** png_uint_32 PNGAPI
 159:fltk-1.3.4-1/png/pngget.c **** png_get_pixels_per_meter(png_const_structrp png_ptr, png_const_inforp info_ptr)
 160:fltk-1.3.4-1/png/pngget.c **** {
 161:fltk-1.3.4-1/png/pngget.c **** #ifdef PNG_pHYs_SUPPORTED
 162:fltk-1.3.4-1/png/pngget.c ****    if (png_ptr != NULL && info_ptr != NULL &&
 163:fltk-1.3.4-1/png/pngget.c ****        (info_ptr->valid & PNG_INFO_pHYs) != 0)
 164:fltk-1.3.4-1/png/pngget.c ****    {
 165:fltk-1.3.4-1/png/pngget.c ****       png_debug1(1, "in %s retrieval function", "png_get_pixels_per_meter");
 166:fltk-1.3.4-1/png/pngget.c **** 
 167:fltk-1.3.4-1/png/pngget.c ****       if (info_ptr->phys_unit_type == PNG_RESOLUTION_METER &&
 168:fltk-1.3.4-1/png/pngget.c ****           info_ptr->x_pixels_per_unit == info_ptr->y_pixels_per_unit)
 169:fltk-1.3.4-1/png/pngget.c ****          return (info_ptr->x_pixels_per_unit);
 170:fltk-1.3.4-1/png/pngget.c ****    }
 171:fltk-1.3.4-1/png/pngget.c **** #else
 172:fltk-1.3.4-1/png/pngget.c ****    PNG_UNUSED(png_ptr)
 173:fltk-1.3.4-1/png/pngget.c ****    PNG_UNUSED(info_ptr)
 174:fltk-1.3.4-1/png/pngget.c **** #endif
 175:fltk-1.3.4-1/png/pngget.c **** 
 176:fltk-1.3.4-1/png/pngget.c ****    return (0);
 177:fltk-1.3.4-1/png/pngget.c **** }
 178:fltk-1.3.4-1/png/pngget.c **** 
 179:fltk-1.3.4-1/png/pngget.c **** #ifdef PNG_FLOATING_POINT_SUPPORTED
 180:fltk-1.3.4-1/png/pngget.c **** float PNGAPI
 181:fltk-1.3.4-1/png/pngget.c **** png_get_pixel_aspect_ratio(png_const_structrp png_ptr, png_const_inforp
 182:fltk-1.3.4-1/png/pngget.c ****    info_ptr)
 183:fltk-1.3.4-1/png/pngget.c **** {
 184:fltk-1.3.4-1/png/pngget.c **** #ifdef PNG_READ_pHYs_SUPPORTED
 185:fltk-1.3.4-1/png/pngget.c ****    if (png_ptr != NULL && info_ptr != NULL &&
 186:fltk-1.3.4-1/png/pngget.c ****        (info_ptr->valid & PNG_INFO_pHYs) != 0)
 187:fltk-1.3.4-1/png/pngget.c ****    {
 188:fltk-1.3.4-1/png/pngget.c ****       png_debug1(1, "in %s retrieval function", "png_get_aspect_ratio");
 189:fltk-1.3.4-1/png/pngget.c **** 
 190:fltk-1.3.4-1/png/pngget.c ****       if (info_ptr->x_pixels_per_unit != 0)
 191:fltk-1.3.4-1/png/pngget.c ****          return ((float)((float)info_ptr->y_pixels_per_unit
 192:fltk-1.3.4-1/png/pngget.c ****              /(float)info_ptr->x_pixels_per_unit));
 193:fltk-1.3.4-1/png/pngget.c ****    }
 194:fltk-1.3.4-1/png/pngget.c **** #else
 195:fltk-1.3.4-1/png/pngget.c ****    PNG_UNUSED(png_ptr)
 196:fltk-1.3.4-1/png/pngget.c ****    PNG_UNUSED(info_ptr)
 197:fltk-1.3.4-1/png/pngget.c **** #endif
 198:fltk-1.3.4-1/png/pngget.c **** 
 199:fltk-1.3.4-1/png/pngget.c ****    return ((float)0.0);
 200:fltk-1.3.4-1/png/pngget.c **** }
 201:fltk-1.3.4-1/png/pngget.c **** #endif
 202:fltk-1.3.4-1/png/pngget.c **** 
 203:fltk-1.3.4-1/png/pngget.c **** #ifdef PNG_FIXED_POINT_SUPPORTED
 204:fltk-1.3.4-1/png/pngget.c **** png_fixed_point PNGAPI
 205:fltk-1.3.4-1/png/pngget.c **** png_get_pixel_aspect_ratio_fixed(png_const_structrp png_ptr,
 206:fltk-1.3.4-1/png/pngget.c ****     png_const_inforp info_ptr)
 207:fltk-1.3.4-1/png/pngget.c **** {
 208:fltk-1.3.4-1/png/pngget.c **** #ifdef PNG_READ_pHYs_SUPPORTED
 209:fltk-1.3.4-1/png/pngget.c ****    if (png_ptr != NULL && info_ptr != NULL &&
 210:fltk-1.3.4-1/png/pngget.c ****        (info_ptr->valid & PNG_INFO_pHYs) != 0 &&
 211:fltk-1.3.4-1/png/pngget.c ****        info_ptr->x_pixels_per_unit > 0 && info_ptr->y_pixels_per_unit > 0 &&
 212:fltk-1.3.4-1/png/pngget.c ****        info_ptr->x_pixels_per_unit <= PNG_UINT_31_MAX &&
 213:fltk-1.3.4-1/png/pngget.c ****        info_ptr->y_pixels_per_unit <= PNG_UINT_31_MAX)
 214:fltk-1.3.4-1/png/pngget.c ****    {
 215:fltk-1.3.4-1/png/pngget.c ****       png_fixed_point res;
 216:fltk-1.3.4-1/png/pngget.c **** 
 217:fltk-1.3.4-1/png/pngget.c ****       png_debug1(1, "in %s retrieval function", "png_get_aspect_ratio_fixed");
 218:fltk-1.3.4-1/png/pngget.c **** 
 219:fltk-1.3.4-1/png/pngget.c ****       /* The following casts work because a PNG 4 byte integer only has a valid
 220:fltk-1.3.4-1/png/pngget.c ****        * range of 0..2^31-1; otherwise the cast might overflow.
 221:fltk-1.3.4-1/png/pngget.c ****        */
 222:fltk-1.3.4-1/png/pngget.c ****       if (png_muldiv(&res, (png_int_32)info_ptr->y_pixels_per_unit, PNG_FP_1,
 223:fltk-1.3.4-1/png/pngget.c ****           (png_int_32)info_ptr->x_pixels_per_unit) != 0)
 224:fltk-1.3.4-1/png/pngget.c ****          return res;
 225:fltk-1.3.4-1/png/pngget.c ****    }
 226:fltk-1.3.4-1/png/pngget.c **** #else
 227:fltk-1.3.4-1/png/pngget.c ****    PNG_UNUSED(png_ptr)
 228:fltk-1.3.4-1/png/pngget.c ****    PNG_UNUSED(info_ptr)
 229:fltk-1.3.4-1/png/pngget.c **** #endif
 230:fltk-1.3.4-1/png/pngget.c **** 
 231:fltk-1.3.4-1/png/pngget.c ****    return 0;
 232:fltk-1.3.4-1/png/pngget.c **** }
 233:fltk-1.3.4-1/png/pngget.c **** #endif
 234:fltk-1.3.4-1/png/pngget.c **** 
 235:fltk-1.3.4-1/png/pngget.c **** png_int_32 PNGAPI
 236:fltk-1.3.4-1/png/pngget.c **** png_get_x_offset_microns(png_const_structrp png_ptr, png_const_inforp info_ptr)
 237:fltk-1.3.4-1/png/pngget.c **** {
 238:fltk-1.3.4-1/png/pngget.c **** #ifdef PNG_oFFs_SUPPORTED
 239:fltk-1.3.4-1/png/pngget.c ****    if (png_ptr != NULL && info_ptr != NULL &&
 240:fltk-1.3.4-1/png/pngget.c ****        (info_ptr->valid & PNG_INFO_oFFs) != 0)
 241:fltk-1.3.4-1/png/pngget.c ****    {
 242:fltk-1.3.4-1/png/pngget.c ****       png_debug1(1, "in %s retrieval function", "png_get_x_offset_microns");
 243:fltk-1.3.4-1/png/pngget.c **** 
 244:fltk-1.3.4-1/png/pngget.c ****       if (info_ptr->offset_unit_type == PNG_OFFSET_MICROMETER)
 245:fltk-1.3.4-1/png/pngget.c ****          return (info_ptr->x_offset);
 246:fltk-1.3.4-1/png/pngget.c ****    }
 247:fltk-1.3.4-1/png/pngget.c **** #else
 248:fltk-1.3.4-1/png/pngget.c ****    PNG_UNUSED(png_ptr)
 249:fltk-1.3.4-1/png/pngget.c ****    PNG_UNUSED(info_ptr)
 250:fltk-1.3.4-1/png/pngget.c **** #endif
 251:fltk-1.3.4-1/png/pngget.c **** 
 252:fltk-1.3.4-1/png/pngget.c ****    return (0);
 253:fltk-1.3.4-1/png/pngget.c **** }
 254:fltk-1.3.4-1/png/pngget.c **** 
 255:fltk-1.3.4-1/png/pngget.c **** png_int_32 PNGAPI
 256:fltk-1.3.4-1/png/pngget.c **** png_get_y_offset_microns(png_const_structrp png_ptr, png_const_inforp info_ptr)
 257:fltk-1.3.4-1/png/pngget.c **** {
 258:fltk-1.3.4-1/png/pngget.c **** #ifdef PNG_oFFs_SUPPORTED
 259:fltk-1.3.4-1/png/pngget.c ****    if (png_ptr != NULL && info_ptr != NULL &&
 260:fltk-1.3.4-1/png/pngget.c ****        (info_ptr->valid & PNG_INFO_oFFs) != 0)
 261:fltk-1.3.4-1/png/pngget.c ****    {
 262:fltk-1.3.4-1/png/pngget.c ****       png_debug1(1, "in %s retrieval function", "png_get_y_offset_microns");
 263:fltk-1.3.4-1/png/pngget.c **** 
 264:fltk-1.3.4-1/png/pngget.c ****       if (info_ptr->offset_unit_type == PNG_OFFSET_MICROMETER)
 265:fltk-1.3.4-1/png/pngget.c ****          return (info_ptr->y_offset);
 266:fltk-1.3.4-1/png/pngget.c ****    }
 267:fltk-1.3.4-1/png/pngget.c **** #else
 268:fltk-1.3.4-1/png/pngget.c ****    PNG_UNUSED(png_ptr)
 269:fltk-1.3.4-1/png/pngget.c ****    PNG_UNUSED(info_ptr)
 270:fltk-1.3.4-1/png/pngget.c **** #endif
 271:fltk-1.3.4-1/png/pngget.c **** 
 272:fltk-1.3.4-1/png/pngget.c ****    return (0);
 273:fltk-1.3.4-1/png/pngget.c **** }
 274:fltk-1.3.4-1/png/pngget.c **** 
 275:fltk-1.3.4-1/png/pngget.c **** png_int_32 PNGAPI
 276:fltk-1.3.4-1/png/pngget.c **** png_get_x_offset_pixels(png_const_structrp png_ptr, png_const_inforp info_ptr)
 277:fltk-1.3.4-1/png/pngget.c **** {
 278:fltk-1.3.4-1/png/pngget.c **** #ifdef PNG_oFFs_SUPPORTED
 279:fltk-1.3.4-1/png/pngget.c ****    if (png_ptr != NULL && info_ptr != NULL &&
 280:fltk-1.3.4-1/png/pngget.c ****        (info_ptr->valid & PNG_INFO_oFFs) != 0)
 281:fltk-1.3.4-1/png/pngget.c ****    {
 282:fltk-1.3.4-1/png/pngget.c ****       png_debug1(1, "in %s retrieval function", "png_get_x_offset_pixels");
 283:fltk-1.3.4-1/png/pngget.c **** 
 284:fltk-1.3.4-1/png/pngget.c ****       if (info_ptr->offset_unit_type == PNG_OFFSET_PIXEL)
 285:fltk-1.3.4-1/png/pngget.c ****          return (info_ptr->x_offset);
 286:fltk-1.3.4-1/png/pngget.c ****    }
 287:fltk-1.3.4-1/png/pngget.c **** #else
 288:fltk-1.3.4-1/png/pngget.c ****    PNG_UNUSED(png_ptr)
 289:fltk-1.3.4-1/png/pngget.c ****    PNG_UNUSED(info_ptr)
 290:fltk-1.3.4-1/png/pngget.c **** #endif
 291:fltk-1.3.4-1/png/pngget.c **** 
 292:fltk-1.3.4-1/png/pngget.c ****    return (0);
 293:fltk-1.3.4-1/png/pngget.c **** }
 294:fltk-1.3.4-1/png/pngget.c **** 
 295:fltk-1.3.4-1/png/pngget.c **** png_int_32 PNGAPI
 296:fltk-1.3.4-1/png/pngget.c **** png_get_y_offset_pixels(png_const_structrp png_ptr, png_const_inforp info_ptr)
 297:fltk-1.3.4-1/png/pngget.c **** {
 298:fltk-1.3.4-1/png/pngget.c **** #ifdef PNG_oFFs_SUPPORTED
 299:fltk-1.3.4-1/png/pngget.c ****    if (png_ptr != NULL && info_ptr != NULL &&
 300:fltk-1.3.4-1/png/pngget.c ****        (info_ptr->valid & PNG_INFO_oFFs) != 0)
 301:fltk-1.3.4-1/png/pngget.c ****    {
 302:fltk-1.3.4-1/png/pngget.c ****       png_debug1(1, "in %s retrieval function", "png_get_y_offset_pixels");
 303:fltk-1.3.4-1/png/pngget.c **** 
 304:fltk-1.3.4-1/png/pngget.c ****       if (info_ptr->offset_unit_type == PNG_OFFSET_PIXEL)
 305:fltk-1.3.4-1/png/pngget.c ****          return (info_ptr->y_offset);
 306:fltk-1.3.4-1/png/pngget.c ****    }
 307:fltk-1.3.4-1/png/pngget.c **** #else
 308:fltk-1.3.4-1/png/pngget.c ****    PNG_UNUSED(png_ptr)
 309:fltk-1.3.4-1/png/pngget.c ****    PNG_UNUSED(info_ptr)
 310:fltk-1.3.4-1/png/pngget.c **** #endif
 311:fltk-1.3.4-1/png/pngget.c **** 
 312:fltk-1.3.4-1/png/pngget.c ****    return (0);
 313:fltk-1.3.4-1/png/pngget.c **** }
 314:fltk-1.3.4-1/png/pngget.c **** 
 315:fltk-1.3.4-1/png/pngget.c **** #ifdef PNG_INCH_CONVERSIONS_SUPPORTED
 316:fltk-1.3.4-1/png/pngget.c **** static png_uint_32
 317:fltk-1.3.4-1/png/pngget.c **** ppi_from_ppm(png_uint_32 ppm)
 318:fltk-1.3.4-1/png/pngget.c **** {
  16              		.loc 1 318 0
  17              		.cfi_startproc
  18              	.LVL0:
  19 0000 4883EC18 		subq	$24, %rsp
  20              		.cfi_def_cfa_offset 32
  21              		.loc 1 318 0
  22 0004 64488B04 		movq	%fs:40, %rax
  22      25280000 
  22      00
  23 000d 48894424 		movq	%rax, 8(%rsp)
  23      08
  24 0012 31C0     		xorl	%eax, %eax
 319:fltk-1.3.4-1/png/pngget.c **** #if 0
 320:fltk-1.3.4-1/png/pngget.c ****    /* The conversion is *(2.54/100), in binary (32 digits):
 321:fltk-1.3.4-1/png/pngget.c ****     * .00000110100000001001110101001001
 322:fltk-1.3.4-1/png/pngget.c ****     */
 323:fltk-1.3.4-1/png/pngget.c ****    png_uint_32 t1001, t1101;
 324:fltk-1.3.4-1/png/pngget.c ****    ppm >>= 1;                  /* .1 */
 325:fltk-1.3.4-1/png/pngget.c ****    t1001 = ppm + (ppm >> 3);   /* .1001 */
 326:fltk-1.3.4-1/png/pngget.c ****    t1101 = t1001 + (ppm >> 1); /* .1101 */
 327:fltk-1.3.4-1/png/pngget.c ****    ppm >>= 20;                 /* .000000000000000000001 */
 328:fltk-1.3.4-1/png/pngget.c ****    t1101 += t1101 >> 15;       /* .1101000000000001101 */
 329:fltk-1.3.4-1/png/pngget.c ****    t1001 >>= 11;               /* .000000000001001 */
 330:fltk-1.3.4-1/png/pngget.c ****    t1001 += t1001 >> 12;       /* .000000000001001000000001001 */
 331:fltk-1.3.4-1/png/pngget.c ****    ppm += t1001;               /* .000000000001001000001001001 */
 332:fltk-1.3.4-1/png/pngget.c ****    ppm += t1101;               /* .110100000001001110101001001 */
 333:fltk-1.3.4-1/png/pngget.c ****    return (ppm + 16) >> 5;/* .00000110100000001001110101001001 */
 334:fltk-1.3.4-1/png/pngget.c **** #else
 335:fltk-1.3.4-1/png/pngget.c ****    /* The argument is a PNG unsigned integer, so it is not permitted
 336:fltk-1.3.4-1/png/pngget.c ****     * to be bigger than 2^31.
 337:fltk-1.3.4-1/png/pngget.c ****     */
 338:fltk-1.3.4-1/png/pngget.c ****    png_fixed_point result;
 339:fltk-1.3.4-1/png/pngget.c ****    if (ppm <= PNG_UINT_31_MAX && png_muldiv(&result, (png_int_32)ppm, 127,
  25              		.loc 1 339 0
  26 0014 85FF     		testl	%edi, %edi
  27 0016 7828     		js	.L4
  28              		.loc 1 339 0 is_stmt 0 discriminator 1
  29 0018 89FE     		movl	%edi, %esi
  30 001a 488D7C24 		leaq	4(%rsp), %rdi
  30      04
  31              	.LVL1:
  32 001f B9881300 		movl	$5000, %ecx
  32      00
  33 0024 BA7F0000 		movl	$127, %edx
  33      00
  34 0029 E8000000 		call	png_muldiv
  34      00
  35              	.LVL2:
  36 002e 85C0     		testl	%eax, %eax
  37 0030 740E     		je	.L4
 340:fltk-1.3.4-1/png/pngget.c ****        5000) != 0)
 341:fltk-1.3.4-1/png/pngget.c ****       return result;
  38              		.loc 1 341 0 is_stmt 1
  39 0032 8B442404 		movl	4(%rsp), %eax
  40 0036 EB0A     		jmp	.L3
  41 0038 0F1F8400 		.p2align 4,,10
  41      00000000 
  42              		.p2align 3
  43              	.L4:
 342:fltk-1.3.4-1/png/pngget.c **** 
 343:fltk-1.3.4-1/png/pngget.c ****    /* Overflow. */
 344:fltk-1.3.4-1/png/pngget.c ****    return 0;
  44              		.loc 1 344 0
  45 0040 31C0     		xorl	%eax, %eax
  46              	.L3:
 345:fltk-1.3.4-1/png/pngget.c **** #endif
 346:fltk-1.3.4-1/png/pngget.c **** }
  47              		.loc 1 346 0
  48 0042 488B5424 		movq	8(%rsp), %rdx
  48      08
  49 0047 64483314 		xorq	%fs:40, %rdx
  49      25280000 
  49      00
  50 0050 7505     		jne	.L11
  51 0052 4883C418 		addq	$24, %rsp
  52              		.cfi_remember_state
  53              		.cfi_def_cfa_offset 8
  54 0056 C3       		ret
  55              	.L11:
  56              		.cfi_restore_state
  57 0057 E8000000 		call	__stack_chk_fail
  57      00
  58              	.LVL3:
  59              		.cfi_endproc
  60              	.LFE75:
  62              		.section	.text.unlikely.ppi_from_ppm
  63              	.LCOLDE0:
  64              		.section	.text.ppi_from_ppm
  65              	.LHOTE0:
  66              		.section	.text.unlikely.png_get_valid,"ax",@progbits
  67              	.LCOLDB1:
  68              		.section	.text.png_get_valid,"ax",@progbits
  69              	.LHOTB1:
  70              		.p2align 4,,15
  71              		.globl	png_get_valid
  73              	png_get_valid:
  74              	.LFB56:
  22:fltk-1.3.4-1/png/pngget.c ****    if (png_ptr != NULL && info_ptr != NULL)
  75              		.loc 1 22 0
  76              		.cfi_startproc
  77              	.LVL4:
  23:fltk-1.3.4-1/png/pngget.c ****       return(info_ptr->valid & flag);
  78              		.loc 1 23 0
  79 0000 4885FF   		testq	%rdi, %rdi
  80 0003 740B     		je	.L14
  81 0005 4885F6   		testq	%rsi, %rsi
  82 0008 7406     		je	.L14
  24:fltk-1.3.4-1/png/pngget.c **** 
  83              		.loc 1 24 0
  84 000a 8B4608   		movl	8(%rsi), %eax
  85 000d 21D0     		andl	%edx, %eax
  86 000f C3       		ret
  87              		.p2align 4,,10
  88              		.p2align 3
  89              	.L14:
  26:fltk-1.3.4-1/png/pngget.c **** }
  90              		.loc 1 26 0
  91 0010 31C0     		xorl	%eax, %eax
  27:fltk-1.3.4-1/png/pngget.c **** 
  92              		.loc 1 27 0
  93 0012 C3       		ret
  94              		.cfi_endproc
  95              	.LFE56:
  97              		.section	.text.unlikely.png_get_valid
  98              	.LCOLDE1:
  99              		.section	.text.png_get_valid
 100              	.LHOTE1:
 101              		.section	.text.unlikely.png_get_rowbytes,"ax",@progbits
 102              	.LCOLDB2:
 103              		.section	.text.png_get_rowbytes,"ax",@progbits
 104              	.LHOTB2:
 105              		.p2align 4,,15
 106              		.globl	png_get_rowbytes
 108              	png_get_rowbytes:
 109              	.LFB57:
  31:fltk-1.3.4-1/png/pngget.c ****    if (png_ptr != NULL && info_ptr != NULL)
 110              		.loc 1 31 0
 111              		.cfi_startproc
 112              	.LVL5:
  32:fltk-1.3.4-1/png/pngget.c ****       return(info_ptr->rowbytes);
 113              		.loc 1 32 0
 114 0000 4885FF   		testq	%rdi, %rdi
 115 0003 740B     		je	.L23
 116 0005 4885F6   		testq	%rsi, %rsi
 117 0008 7406     		je	.L23
  33:fltk-1.3.4-1/png/pngget.c **** 
 118              		.loc 1 33 0
 119 000a 488B4610 		movq	16(%rsi), %rax
 120 000e C3       		ret
 121 000f 90       		.p2align 4,,10
 122              		.p2align 3
 123              	.L23:
  35:fltk-1.3.4-1/png/pngget.c **** }
 124              		.loc 1 35 0
 125 0010 31C0     		xorl	%eax, %eax
  36:fltk-1.3.4-1/png/pngget.c **** 
 126              		.loc 1 36 0
 127 0012 C3       		ret
 128              		.cfi_endproc
 129              	.LFE57:
 131              		.section	.text.unlikely.png_get_rowbytes
 132              	.LCOLDE2:
 133              		.section	.text.png_get_rowbytes
 134              	.LHOTE2:
 135              		.section	.text.unlikely.png_get_rows,"ax",@progbits
 136              	.LCOLDB3:
 137              		.section	.text.png_get_rows,"ax",@progbits
 138              	.LHOTB3:
 139              		.p2align 4,,15
 140              		.globl	png_get_rows
 142              	png_get_rows:
 143              	.LFB58:
  41:fltk-1.3.4-1/png/pngget.c ****    if (png_ptr != NULL && info_ptr != NULL)
 144              		.loc 1 41 0
 145              		.cfi_startproc
 146              	.LVL6:
  42:fltk-1.3.4-1/png/pngget.c ****       return(info_ptr->row_pointers);
 147              		.loc 1 42 0
 148 0000 4885FF   		testq	%rdi, %rdi
 149 0003 7413     		je	.L32
 150 0005 4885F6   		testq	%rsi, %rsi
 151 0008 740E     		je	.L32
  43:fltk-1.3.4-1/png/pngget.c **** 
 152              		.loc 1 43 0
 153 000a 488B8650 		movq	336(%rsi), %rax
 153      010000
 154 0011 C3       		ret
 155              		.p2align 4,,10
 156 0012 660F1F44 		.p2align 3
 156      0000
 157              	.L32:
  45:fltk-1.3.4-1/png/pngget.c **** }
 158              		.loc 1 45 0
 159 0018 31C0     		xorl	%eax, %eax
  46:fltk-1.3.4-1/png/pngget.c **** #endif
 160              		.loc 1 46 0
 161 001a C3       		ret
 162              		.cfi_endproc
 163              	.LFE58:
 165              		.section	.text.unlikely.png_get_rows
 166              	.LCOLDE3:
 167              		.section	.text.png_get_rows
 168              	.LHOTE3:
 169              		.section	.text.unlikely.png_get_image_width,"ax",@progbits
 170              	.LCOLDB4:
 171              		.section	.text.png_get_image_width,"ax",@progbits
 172              	.LHOTB4:
 173              		.p2align 4,,15
 174              		.globl	png_get_image_width
 176              	png_get_image_width:
 177              	.LFB59:
  53:fltk-1.3.4-1/png/pngget.c ****    if (png_ptr != NULL && info_ptr != NULL)
 178              		.loc 1 53 0
 179              		.cfi_startproc
 180              	.LVL7:
  54:fltk-1.3.4-1/png/pngget.c ****       return info_ptr->width;
 181              		.loc 1 54 0
 182 0000 4885FF   		testq	%rdi, %rdi
 183 0003 740B     		je	.L41
 184 0005 4885F6   		testq	%rsi, %rsi
 185 0008 7406     		je	.L41
  55:fltk-1.3.4-1/png/pngget.c **** 
 186              		.loc 1 55 0
 187 000a 8B06     		movl	(%rsi), %eax
 188 000c C3       		ret
 189 000d 0F1F00   		.p2align 4,,10
 190              		.p2align 3
 191              	.L41:
  57:fltk-1.3.4-1/png/pngget.c **** }
 192              		.loc 1 57 0
 193 0010 31C0     		xorl	%eax, %eax
  58:fltk-1.3.4-1/png/pngget.c **** 
 194              		.loc 1 58 0
 195 0012 C3       		ret
 196              		.cfi_endproc
 197              	.LFE59:
 199              		.section	.text.unlikely.png_get_image_width
 200              	.LCOLDE4:
 201              		.section	.text.png_get_image_width
 202              	.LHOTE4:
 203              		.section	.text.unlikely.png_get_image_height,"ax",@progbits
 204              	.LCOLDB5:
 205              		.section	.text.png_get_image_height,"ax",@progbits
 206              	.LHOTB5:
 207              		.p2align 4,,15
 208              		.globl	png_get_image_height
 210              	png_get_image_height:
 211              	.LFB60:
  62:fltk-1.3.4-1/png/pngget.c ****    if (png_ptr != NULL && info_ptr != NULL)
 212              		.loc 1 62 0
 213              		.cfi_startproc
 214              	.LVL8:
  63:fltk-1.3.4-1/png/pngget.c ****       return info_ptr->height;
 215              		.loc 1 63 0
 216 0000 4885FF   		testq	%rdi, %rdi
 217 0003 740B     		je	.L50
 218 0005 4885F6   		testq	%rsi, %rsi
 219 0008 7406     		je	.L50
  64:fltk-1.3.4-1/png/pngget.c **** 
 220              		.loc 1 64 0
 221 000a 8B4604   		movl	4(%rsi), %eax
 222 000d C3       		ret
 223 000e 6690     		.p2align 4,,10
 224              		.p2align 3
 225              	.L50:
  66:fltk-1.3.4-1/png/pngget.c **** }
 226              		.loc 1 66 0
 227 0010 31C0     		xorl	%eax, %eax
  67:fltk-1.3.4-1/png/pngget.c **** 
 228              		.loc 1 67 0
 229 0012 C3       		ret
 230              		.cfi_endproc
 231              	.LFE60:
 233              		.section	.text.unlikely.png_get_image_height
 234              	.LCOLDE5:
 235              		.section	.text.png_get_image_height
 236              	.LHOTE5:
 237              		.section	.text.unlikely.png_get_bit_depth,"ax",@progbits
 238              	.LCOLDB6:
 239              		.section	.text.png_get_bit_depth,"ax",@progbits
 240              	.LHOTB6:
 241              		.p2align 4,,15
 242              		.globl	png_get_bit_depth
 244              	png_get_bit_depth:
 245              	.LFB61:
  71:fltk-1.3.4-1/png/pngget.c ****    if (png_ptr != NULL && info_ptr != NULL)
 246              		.loc 1 71 0
 247              		.cfi_startproc
 248              	.LVL9:
  72:fltk-1.3.4-1/png/pngget.c ****       return info_ptr->bit_depth;
 249              		.loc 1 72 0
 250 0000 4885FF   		testq	%rdi, %rdi
 251 0003 740B     		je	.L59
 252 0005 4885F6   		testq	%rsi, %rsi
 253 0008 7406     		je	.L59
  73:fltk-1.3.4-1/png/pngget.c **** 
 254              		.loc 1 73 0
 255 000a 0FB64624 		movzbl	36(%rsi), %eax
 256 000e C3       		ret
 257 000f 90       		.p2align 4,,10
 258              		.p2align 3
 259              	.L59:
  75:fltk-1.3.4-1/png/pngget.c **** }
 260              		.loc 1 75 0
 261 0010 31C0     		xorl	%eax, %eax
  76:fltk-1.3.4-1/png/pngget.c **** 
 262              		.loc 1 76 0
 263 0012 C3       		ret
 264              		.cfi_endproc
 265              	.LFE61:
 267              		.section	.text.unlikely.png_get_bit_depth
 268              	.LCOLDE6:
 269              		.section	.text.png_get_bit_depth
 270              	.LHOTE6:
 271              		.section	.text.unlikely.png_get_color_type,"ax",@progbits
 272              	.LCOLDB7:
 273              		.section	.text.png_get_color_type,"ax",@progbits
 274              	.LHOTB7:
 275              		.p2align 4,,15
 276              		.globl	png_get_color_type
 278              	png_get_color_type:
 279              	.LFB62:
  80:fltk-1.3.4-1/png/pngget.c ****    if (png_ptr != NULL && info_ptr != NULL)
 280              		.loc 1 80 0
 281              		.cfi_startproc
 282              	.LVL10:
  81:fltk-1.3.4-1/png/pngget.c ****       return info_ptr->color_type;
 283              		.loc 1 81 0
 284 0000 4885FF   		testq	%rdi, %rdi
 285 0003 740B     		je	.L68
 286 0005 4885F6   		testq	%rsi, %rsi
 287 0008 7406     		je	.L68
  82:fltk-1.3.4-1/png/pngget.c **** 
 288              		.loc 1 82 0
 289 000a 0FB64625 		movzbl	37(%rsi), %eax
 290 000e C3       		ret
 291 000f 90       		.p2align 4,,10
 292              		.p2align 3
 293              	.L68:
  84:fltk-1.3.4-1/png/pngget.c **** }
 294              		.loc 1 84 0
 295 0010 31C0     		xorl	%eax, %eax
  85:fltk-1.3.4-1/png/pngget.c **** 
 296              		.loc 1 85 0
 297 0012 C3       		ret
 298              		.cfi_endproc
 299              	.LFE62:
 301              		.section	.text.unlikely.png_get_color_type
 302              	.LCOLDE7:
 303              		.section	.text.png_get_color_type
 304              	.LHOTE7:
 305              		.section	.text.unlikely.png_get_filter_type,"ax",@progbits
 306              	.LCOLDB8:
 307              		.section	.text.png_get_filter_type,"ax",@progbits
 308              	.LHOTB8:
 309              		.p2align 4,,15
 310              		.globl	png_get_filter_type
 312              	png_get_filter_type:
 313              	.LFB63:
  89:fltk-1.3.4-1/png/pngget.c ****    if (png_ptr != NULL && info_ptr != NULL)
 314              		.loc 1 89 0
 315              		.cfi_startproc
 316              	.LVL11:
  90:fltk-1.3.4-1/png/pngget.c ****       return info_ptr->filter_type;
 317              		.loc 1 90 0
 318 0000 4885FF   		testq	%rdi, %rdi
 319 0003 740B     		je	.L77
 320 0005 4885F6   		testq	%rsi, %rsi
 321 0008 7406     		je	.L77
  91:fltk-1.3.4-1/png/pngget.c **** 
 322              		.loc 1 91 0
 323 000a 0FB64627 		movzbl	39(%rsi), %eax
 324 000e C3       		ret
 325 000f 90       		.p2align 4,,10
 326              		.p2align 3
 327              	.L77:
  93:fltk-1.3.4-1/png/pngget.c **** }
 328              		.loc 1 93 0
 329 0010 31C0     		xorl	%eax, %eax
  94:fltk-1.3.4-1/png/pngget.c **** 
 330              		.loc 1 94 0
 331 0012 C3       		ret
 332              		.cfi_endproc
 333              	.LFE63:
 335              		.section	.text.unlikely.png_get_filter_type
 336              	.LCOLDE8:
 337              		.section	.text.png_get_filter_type
 338              	.LHOTE8:
 339              		.section	.text.unlikely.png_get_interlace_type,"ax",@progbits
 340              	.LCOLDB9:
 341              		.section	.text.png_get_interlace_type,"ax",@progbits
 342              	.LHOTB9:
 343              		.p2align 4,,15
 344              		.globl	png_get_interlace_type
 346              	png_get_interlace_type:
 347              	.LFB64:
  98:fltk-1.3.4-1/png/pngget.c ****    if (png_ptr != NULL && info_ptr != NULL)
 348              		.loc 1 98 0
 349              		.cfi_startproc
 350              	.LVL12:
  99:fltk-1.3.4-1/png/pngget.c ****       return info_ptr->interlace_type;
 351              		.loc 1 99 0
 352 0000 4885FF   		testq	%rdi, %rdi
 353 0003 740B     		je	.L86
 354 0005 4885F6   		testq	%rsi, %rsi
 355 0008 7406     		je	.L86
 100:fltk-1.3.4-1/png/pngget.c **** 
 356              		.loc 1 100 0
 357 000a 0FB64628 		movzbl	40(%rsi), %eax
 358 000e C3       		ret
 359 000f 90       		.p2align 4,,10
 360              		.p2align 3
 361              	.L86:
 102:fltk-1.3.4-1/png/pngget.c **** }
 362              		.loc 1 102 0
 363 0010 31C0     		xorl	%eax, %eax
 103:fltk-1.3.4-1/png/pngget.c **** 
 364              		.loc 1 103 0
 365 0012 C3       		ret
 366              		.cfi_endproc
 367              	.LFE64:
 369              		.section	.text.unlikely.png_get_interlace_type
 370              	.LCOLDE9:
 371              		.section	.text.png_get_interlace_type
 372              	.LHOTE9:
 373              		.section	.text.unlikely.png_get_compression_type,"ax",@progbits
 374              	.LCOLDB10:
 375              		.section	.text.png_get_compression_type,"ax",@progbits
 376              	.LHOTB10:
 377              		.p2align 4,,15
 378              		.globl	png_get_compression_type
 380              	png_get_compression_type:
 381              	.LFB65:
 107:fltk-1.3.4-1/png/pngget.c ****    if (png_ptr != NULL && info_ptr != NULL)
 382              		.loc 1 107 0
 383              		.cfi_startproc
 384              	.LVL13:
 108:fltk-1.3.4-1/png/pngget.c ****       return info_ptr->compression_type;
 385              		.loc 1 108 0
 386 0000 4885FF   		testq	%rdi, %rdi
 387 0003 740B     		je	.L95
 388 0005 4885F6   		testq	%rsi, %rsi
 389 0008 7406     		je	.L95
 109:fltk-1.3.4-1/png/pngget.c **** 
 390              		.loc 1 109 0
 391 000a 0FB64626 		movzbl	38(%rsi), %eax
 392 000e C3       		ret
 393 000f 90       		.p2align 4,,10
 394              		.p2align 3
 395              	.L95:
 111:fltk-1.3.4-1/png/pngget.c **** }
 396              		.loc 1 111 0
 397 0010 31C0     		xorl	%eax, %eax
 112:fltk-1.3.4-1/png/pngget.c **** 
 398              		.loc 1 112 0
 399 0012 C3       		ret
 400              		.cfi_endproc
 401              	.LFE65:
 403              		.section	.text.unlikely.png_get_compression_type
 404              	.LCOLDE10:
 405              		.section	.text.png_get_compression_type
 406              	.LHOTE10:
 407              		.section	.text.unlikely.png_get_x_pixels_per_meter,"ax",@progbits
 408              	.LCOLDB11:
 409              		.section	.text.png_get_x_pixels_per_meter,"ax",@progbits
 410              	.LHOTB11:
 411              		.p2align 4,,15
 412              		.globl	png_get_x_pixels_per_meter
 414              	png_get_x_pixels_per_meter:
 415              	.LFB66:
 117:fltk-1.3.4-1/png/pngget.c **** #ifdef PNG_pHYs_SUPPORTED
 416              		.loc 1 117 0
 417              		.cfi_startproc
 418              	.LVL14:
 119:fltk-1.3.4-1/png/pngget.c ****        (info_ptr->valid & PNG_INFO_pHYs) != 0)
 419              		.loc 1 119 0
 420 0000 4885FF   		testq	%rdi, %rdi
 421 0003 7423     		je	.L104
 422 0005 4885F6   		testq	%rsi, %rsi
 423 0008 741E     		je	.L104
 119:fltk-1.3.4-1/png/pngget.c ****        (info_ptr->valid & PNG_INFO_pHYs) != 0)
 424              		.loc 1 119 0 is_stmt 0 discriminator 1
 425 000a 8B4608   		movl	8(%rsi), %eax
 426 000d 25800000 		andl	$128, %eax
 426      00
 427 0012 740B     		je	.L103
 428              	.LVL15:
 133:fltk-1.3.4-1/png/pngget.c **** }
 429              		.loc 1 133 0 is_stmt 1
 430 0014 31C0     		xorl	%eax, %eax
 431              	.LBB16:
 432              	.LBB17:
 125:fltk-1.3.4-1/png/pngget.c ****             return (info_ptr->x_pixels_per_unit);
 433              		.loc 1 125 0
 434 0016 80BEE800 		cmpb	$1, 232(%rsi)
 434      000001
 435 001d 7411     		je	.L115
 436              	.LVL16:
 437              	.L103:
 438              	.LBE17:
 439              	.LBE16:
 134:fltk-1.3.4-1/png/pngget.c **** 
 440              		.loc 1 134 0
 441 001f F3C3     		rep ret
 442              		.p2align 4,,10
 443 0021 0F1F8000 		.p2align 3
 443      000000
 444              	.L104:
 133:fltk-1.3.4-1/png/pngget.c **** }
 445              		.loc 1 133 0
 446 0028 31C0     		xorl	%eax, %eax
 134:fltk-1.3.4-1/png/pngget.c **** 
 447              		.loc 1 134 0
 448 002a C3       		ret
 449              	.LVL17:
 450 002b 0F1F4400 		.p2align 4,,10
 450      00
 451              		.p2align 3
 452              	.L115:
 453              	.LBB19:
 454              	.LBB18:
 126:fltk-1.3.4-1/png/pngget.c ****       }
 455              		.loc 1 126 0
 456 0030 8B86E000 		movl	224(%rsi), %eax
 456      0000
 457 0036 C3       		ret
 458              	.LBE18:
 459              	.LBE19:
 460              		.cfi_endproc
 461              	.LFE66:
 463              		.section	.text.unlikely.png_get_x_pixels_per_meter
 464              	.LCOLDE11:
 465              		.section	.text.png_get_x_pixels_per_meter
 466              	.LHOTE11:
 467              		.section	.text.unlikely.png_get_y_pixels_per_meter,"ax",@progbits
 468              	.LCOLDB12:
 469              		.section	.text.png_get_y_pixels_per_meter,"ax",@progbits
 470              	.LHOTB12:
 471              		.p2align 4,,15
 472              		.globl	png_get_y_pixels_per_meter
 474              	png_get_y_pixels_per_meter:
 475              	.LFB67:
 139:fltk-1.3.4-1/png/pngget.c **** #ifdef PNG_pHYs_SUPPORTED
 476              		.loc 1 139 0
 477              		.cfi_startproc
 478              	.LVL18:
 141:fltk-1.3.4-1/png/pngget.c ****        (info_ptr->valid & PNG_INFO_pHYs) != 0)
 479              		.loc 1 141 0
 480 0000 4885FF   		testq	%rdi, %rdi
 481 0003 7423     		je	.L118
 482 0005 4885F6   		testq	%rsi, %rsi
 483 0008 741E     		je	.L118
 141:fltk-1.3.4-1/png/pngget.c ****        (info_ptr->valid & PNG_INFO_pHYs) != 0)
 484              		.loc 1 141 0 is_stmt 0 discriminator 1
 485 000a 8B4608   		movl	8(%rsi), %eax
 486 000d 25800000 		andl	$128, %eax
 486      00
 487 0012 740B     		je	.L117
 488              	.LVL19:
 155:fltk-1.3.4-1/png/pngget.c **** }
 489              		.loc 1 155 0 is_stmt 1
 490 0014 31C0     		xorl	%eax, %eax
 491              	.LBB22:
 492              	.LBB23:
 147:fltk-1.3.4-1/png/pngget.c ****          return (info_ptr->y_pixels_per_unit);
 493              		.loc 1 147 0
 494 0016 80BEE800 		cmpb	$1, 232(%rsi)
 494      000001
 495 001d 7411     		je	.L129
 496              	.LVL20:
 497              	.L117:
 498              	.LBE23:
 499              	.LBE22:
 156:fltk-1.3.4-1/png/pngget.c **** 
 500              		.loc 1 156 0
 501 001f F3C3     		rep ret
 502              		.p2align 4,,10
 503 0021 0F1F8000 		.p2align 3
 503      000000
 504              	.L118:
 155:fltk-1.3.4-1/png/pngget.c **** }
 505              		.loc 1 155 0
 506 0028 31C0     		xorl	%eax, %eax
 156:fltk-1.3.4-1/png/pngget.c **** 
 507              		.loc 1 156 0
 508 002a C3       		ret
 509              	.LVL21:
 510 002b 0F1F4400 		.p2align 4,,10
 510      00
 511              		.p2align 3
 512              	.L129:
 513              	.LBB25:
 514              	.LBB24:
 148:fltk-1.3.4-1/png/pngget.c ****    }
 515              		.loc 1 148 0
 516 0030 8B86E400 		movl	228(%rsi), %eax
 516      0000
 517 0036 C3       		ret
 518              	.LBE24:
 519              	.LBE25:
 520              		.cfi_endproc
 521              	.LFE67:
 523              		.section	.text.unlikely.png_get_y_pixels_per_meter
 524              	.LCOLDE12:
 525              		.section	.text.png_get_y_pixels_per_meter
 526              	.LHOTE12:
 527              		.section	.text.unlikely.png_get_pixels_per_meter,"ax",@progbits
 528              	.LCOLDB13:
 529              		.section	.text.png_get_pixels_per_meter,"ax",@progbits
 530              	.LHOTB13:
 531              		.p2align 4,,15
 532              		.globl	png_get_pixels_per_meter
 534              	png_get_pixels_per_meter:
 535              	.LFB68:
 160:fltk-1.3.4-1/png/pngget.c **** #ifdef PNG_pHYs_SUPPORTED
 536              		.loc 1 160 0
 537              		.cfi_startproc
 538              	.LVL22:
 162:fltk-1.3.4-1/png/pngget.c ****        (info_ptr->valid & PNG_INFO_pHYs) != 0)
 539              		.loc 1 162 0
 540 0000 4885FF   		testq	%rdi, %rdi
 541 0003 7423     		je	.L132
 542 0005 4885F6   		testq	%rsi, %rsi
 543 0008 741E     		je	.L132
 162:fltk-1.3.4-1/png/pngget.c ****        (info_ptr->valid & PNG_INFO_pHYs) != 0)
 544              		.loc 1 162 0 is_stmt 0 discriminator 1
 545 000a 8B4608   		movl	8(%rsi), %eax
 546 000d 25800000 		andl	$128, %eax
 546      00
 547 0012 740B     		je	.L131
 548              	.LBB28:
 549              	.LBB29:
 176:fltk-1.3.4-1/png/pngget.c **** }
 550              		.loc 1 176 0 is_stmt 1
 551 0014 31C0     		xorl	%eax, %eax
 552              	.LBE29:
 553              	.LBE28:
 167:fltk-1.3.4-1/png/pngget.c ****           info_ptr->x_pixels_per_unit == info_ptr->y_pixels_per_unit)
 554              		.loc 1 167 0
 555 0016 80BEE800 		cmpb	$1, 232(%rsi)
 555      000001
 556 001d 7411     		je	.L143
 557              	.L131:
 177:fltk-1.3.4-1/png/pngget.c **** 
 558              		.loc 1 177 0
 559 001f F3C3     		rep ret
 560              		.p2align 4,,10
 561 0021 0F1F8000 		.p2align 3
 561      000000
 562              	.L132:
 563              	.LBB32:
 564              	.LBB30:
 176:fltk-1.3.4-1/png/pngget.c **** }
 565              		.loc 1 176 0
 566 0028 31C0     		xorl	%eax, %eax
 567              	.LBE30:
 568              	.LBE32:
 177:fltk-1.3.4-1/png/pngget.c **** 
 569              		.loc 1 177 0
 570 002a C3       		ret
 571 002b 0F1F4400 		.p2align 4,,10
 571      00
 572              		.p2align 3
 573              	.L143:
 574              	.LVL23:
 575              	.LBB33:
 576              	.LBB31:
 168:fltk-1.3.4-1/png/pngget.c ****          return (info_ptr->x_pixels_per_unit);
 577              		.loc 1 168 0
 578 0030 8B86E400 		movl	228(%rsi), %eax
 578      0000
 176:fltk-1.3.4-1/png/pngget.c **** }
 579              		.loc 1 176 0
 580 0036 3986E000 		cmpl	%eax, 224(%rsi)
 580      0000
 581 003c BA000000 		movl	$0, %edx
 581      00
 582 0041 0F45C2   		cmovne	%edx, %eax
 583 0044 C3       		ret
 584              	.LBE31:
 585              	.LBE33:
 586              		.cfi_endproc
 587              	.LFE68:
 589              		.section	.text.unlikely.png_get_pixels_per_meter
 590              	.LCOLDE13:
 591              		.section	.text.png_get_pixels_per_meter
 592              	.LHOTE13:
 593              		.section	.text.unlikely.png_get_pixel_aspect_ratio,"ax",@progbits
 594              	.LCOLDB15:
 595              		.section	.text.png_get_pixel_aspect_ratio,"ax",@progbits
 596              	.LHOTB15:
 597              		.p2align 4,,15
 598              		.globl	png_get_pixel_aspect_ratio
 600              	png_get_pixel_aspect_ratio:
 601              	.LFB69:
 183:fltk-1.3.4-1/png/pngget.c **** #ifdef PNG_READ_pHYs_SUPPORTED
 602              		.loc 1 183 0
 603              		.cfi_startproc
 604              	.LVL24:
 185:fltk-1.3.4-1/png/pngget.c ****        (info_ptr->valid & PNG_INFO_pHYs) != 0)
 605              		.loc 1 185 0
 606 0000 4885FF   		testq	%rdi, %rdi
 199:fltk-1.3.4-1/png/pngget.c **** }
 607              		.loc 1 199 0
 608 0003 660FEFC0 		pxor	%xmm0, %xmm0
 185:fltk-1.3.4-1/png/pngget.c ****        (info_ptr->valid & PNG_INFO_pHYs) != 0)
 609              		.loc 1 185 0
 610 0007 7437     		je	.L145
 611 0009 4885F6   		testq	%rsi, %rsi
 612 000c 7432     		je	.L145
 185:fltk-1.3.4-1/png/pngget.c ****        (info_ptr->valid & PNG_INFO_pHYs) != 0)
 613              		.loc 1 185 0 is_stmt 0 discriminator 1
 614 000e F6460880 		testb	$-128, 8(%rsi)
 615 0012 742C     		je	.L145
 190:fltk-1.3.4-1/png/pngget.c ****          return ((float)((float)info_ptr->y_pixels_per_unit
 616              		.loc 1 190 0 is_stmt 1
 617 0014 8B96E000 		movl	224(%rsi), %edx
 617      0000
 618 001a 85D2     		testl	%edx, %edx
 619 001c 7422     		je	.L145
 191:fltk-1.3.4-1/png/pngget.c ****              /(float)info_ptr->x_pixels_per_unit));
 620              		.loc 1 191 0
 621 001e 8B86E400 		movl	228(%rsi), %eax
 621      0000
 622 0024 660FEFC0 		pxor	%xmm0, %xmm0
 623 0028 660FEFC9 		pxor	%xmm1, %xmm1
 624 002c F3480F2A 		cvtsi2ssq	%rax, %xmm0
 624      C0
 625 0031 F3480F2A 		cvtsi2ssq	%rdx, %xmm1
 625      CA
 626 0036 F30F5EC1 		divss	%xmm1, %xmm0
 627 003a C3       		ret
 628 003b 0F1F4400 		.p2align 4,,10
 628      00
 629              		.p2align 3
 630              	.L145:
 200:fltk-1.3.4-1/png/pngget.c **** #endif
 631              		.loc 1 200 0
 632 0040 F3C3     		rep ret
 633              		.cfi_endproc
 634              	.LFE69:
 636              		.section	.text.unlikely.png_get_pixel_aspect_ratio
 637              	.LCOLDE15:
 638              		.section	.text.png_get_pixel_aspect_ratio
 639              	.LHOTE15:
 640              		.section	.text.unlikely.png_get_pixel_aspect_ratio_fixed,"ax",@progbits
 641              	.LCOLDB16:
 642              		.section	.text.png_get_pixel_aspect_ratio_fixed,"ax",@progbits
 643              	.LHOTB16:
 644              		.p2align 4,,15
 645              		.globl	png_get_pixel_aspect_ratio_fixed
 647              	png_get_pixel_aspect_ratio_fixed:
 648              	.LFB70:
 207:fltk-1.3.4-1/png/pngget.c **** #ifdef PNG_READ_pHYs_SUPPORTED
 649              		.loc 1 207 0
 650              		.cfi_startproc
 651              	.LVL25:
 652 0000 4883EC18 		subq	$24, %rsp
 653              		.cfi_def_cfa_offset 32
 207:fltk-1.3.4-1/png/pngget.c **** #ifdef PNG_READ_pHYs_SUPPORTED
 654              		.loc 1 207 0
 655 0004 64488B04 		movq	%fs:40, %rax
 655      25280000 
 655      00
 656 000d 48894424 		movq	%rax, 8(%rsp)
 656      08
 657 0012 31C0     		xorl	%eax, %eax
 209:fltk-1.3.4-1/png/pngget.c ****        (info_ptr->valid & PNG_INFO_pHYs) != 0 &&
 658              		.loc 1 209 0
 659 0014 4885FF   		testq	%rdi, %rdi
 660 0017 745F     		je	.L165
 661 0019 4885F6   		testq	%rsi, %rsi
 662 001c 745A     		je	.L165
 209:fltk-1.3.4-1/png/pngget.c ****        (info_ptr->valid & PNG_INFO_pHYs) != 0 &&
 663              		.loc 1 209 0 is_stmt 0 discriminator 1
 664 001e F6460880 		testb	$-128, 8(%rsi)
 665 0022 743C     		je	.L162
 211:fltk-1.3.4-1/png/pngget.c ****        info_ptr->x_pixels_per_unit <= PNG_UINT_31_MAX &&
 666              		.loc 1 211 0 is_stmt 1
 667 0024 8B8EE000 		movl	224(%rsi), %ecx
 667      0000
 210:fltk-1.3.4-1/png/pngget.c ****        info_ptr->x_pixels_per_unit > 0 && info_ptr->y_pixels_per_unit > 0 &&
 668              		.loc 1 210 0
 669 002a 85C9     		testl	%ecx, %ecx
 670 002c 7432     		je	.L162
 211:fltk-1.3.4-1/png/pngget.c ****        info_ptr->x_pixels_per_unit <= PNG_UINT_31_MAX &&
 671              		.loc 1 211 0
 672 002e 8BB6E400 		movl	228(%rsi), %esi
 672      0000
 673              	.LVL26:
 674 0034 85F6     		testl	%esi, %esi
 675 0036 7428     		je	.L162
 211:fltk-1.3.4-1/png/pngget.c ****        info_ptr->x_pixels_per_unit <= PNG_UINT_31_MAX &&
 676              		.loc 1 211 0 is_stmt 0 discriminator 1
 677 0038 85C9     		testl	%ecx, %ecx
 678 003a 7824     		js	.L162
 212:fltk-1.3.4-1/png/pngget.c ****        info_ptr->y_pixels_per_unit <= PNG_UINT_31_MAX)
 679              		.loc 1 212 0 is_stmt 1
 680 003c 85F6     		testl	%esi, %esi
 681 003e 7820     		js	.L162
 682              	.LBB34:
 222:fltk-1.3.4-1/png/pngget.c ****           (png_int_32)info_ptr->x_pixels_per_unit) != 0)
 683              		.loc 1 222 0
 684 0040 488D7C24 		leaq	4(%rsp), %rdi
 684      04
 685              	.LVL27:
 686 0045 BAA08601 		movl	$100000, %edx
 686      00
 687 004a E8000000 		call	png_muldiv
 687      00
 688              	.LVL28:
 224:fltk-1.3.4-1/png/pngget.c ****    }
 689              		.loc 1 224 0
 690 004f 85C0     		testl	%eax, %eax
 691 0051 0F454424 		cmovne	4(%rsp), %eax
 691      04
 692 0056 662E0F1F 		.p2align 4,,10
 692      84000000 
 692      0000
 693              		.p2align 3
 694              	.L162:
 695              	.LBE34:
 232:fltk-1.3.4-1/png/pngget.c **** #endif
 696              		.loc 1 232 0
 697 0060 488B5424 		movq	8(%rsp), %rdx
 697      08
 698 0065 64483314 		xorq	%fs:40, %rdx
 698      25280000 
 698      00
 699 006e 750C     		jne	.L183
 700 0070 4883C418 		addq	$24, %rsp
 701              		.cfi_remember_state
 702              		.cfi_def_cfa_offset 8
 703 0074 C3       		ret
 704              	.LVL29:
 705              		.p2align 4,,10
 706 0075 0F1F00   		.p2align 3
 707              	.L165:
 708              		.cfi_restore_state
 231:fltk-1.3.4-1/png/pngget.c **** }
 709              		.loc 1 231 0
 710 0078 31C0     		xorl	%eax, %eax
 711 007a EBE4     		jmp	.L162
 712              	.LVL30:
 713              	.L183:
 232:fltk-1.3.4-1/png/pngget.c **** #endif
 714              		.loc 1 232 0
 715 007c E8000000 		call	__stack_chk_fail
 715      00
 716              	.LVL31:
 717              		.cfi_endproc
 718              	.LFE70:
 720              		.section	.text.unlikely.png_get_pixel_aspect_ratio_fixed
 721              	.LCOLDE16:
 722              		.section	.text.png_get_pixel_aspect_ratio_fixed
 723              	.LHOTE16:
 724              		.section	.text.unlikely.png_get_x_offset_microns,"ax",@progbits
 725              	.LCOLDB17:
 726              		.section	.text.png_get_x_offset_microns,"ax",@progbits
 727              	.LHOTB17:
 728              		.p2align 4,,15
 729              		.globl	png_get_x_offset_microns
 731              	png_get_x_offset_microns:
 732              	.LFB71:
 237:fltk-1.3.4-1/png/pngget.c **** #ifdef PNG_oFFs_SUPPORTED
 733              		.loc 1 237 0
 734              		.cfi_startproc
 735              	.LVL32:
 252:fltk-1.3.4-1/png/pngget.c **** }
 736              		.loc 1 252 0
 737 0000 31C0     		xorl	%eax, %eax
 239:fltk-1.3.4-1/png/pngget.c ****        (info_ptr->valid & PNG_INFO_oFFs) != 0)
 738              		.loc 1 239 0
 739 0002 4885FF   		testq	%rdi, %rdi
 740 0005 7414     		je	.L185
 741 0007 4885F6   		testq	%rsi, %rsi
 742 000a 740F     		je	.L185
 239:fltk-1.3.4-1/png/pngget.c ****        (info_ptr->valid & PNG_INFO_oFFs) != 0)
 743              		.loc 1 239 0 is_stmt 0 discriminator 1
 744 000c F6460901 		testb	$1, 9(%rsi)
 745 0010 7409     		je	.L185
 746              	.LVL33:
 747              	.LBB37:
 748              	.LBB38:
 244:fltk-1.3.4-1/png/pngget.c ****          return (info_ptr->x_offset);
 749              		.loc 1 244 0 is_stmt 1
 750 0012 80BEDC00 		cmpb	$1, 220(%rsi)
 750      000001
 751 0019 7405     		je	.L196
 752              	.LVL34:
 753              	.L185:
 754              	.LBE38:
 755              	.LBE37:
 253:fltk-1.3.4-1/png/pngget.c **** 
 756              		.loc 1 253 0
 757 001b F3C3     		rep ret
 758              	.LVL35:
 759 001d 0F1F00   		.p2align 4,,10
 760              		.p2align 3
 761              	.L196:
 762              	.LBB40:
 763              	.LBB39:
 245:fltk-1.3.4-1/png/pngget.c ****    }
 764              		.loc 1 245 0
 765 0020 8B86D400 		movl	212(%rsi), %eax
 765      0000
 766 0026 C3       		ret
 767              	.LBE39:
 768              	.LBE40:
 769              		.cfi_endproc
 770              	.LFE71:
 772              		.section	.text.unlikely.png_get_x_offset_microns
 773              	.LCOLDE17:
 774              		.section	.text.png_get_x_offset_microns
 775              	.LHOTE17:
 776              		.section	.text.unlikely.png_get_y_offset_microns,"ax",@progbits
 777              	.LCOLDB18:
 778              		.section	.text.png_get_y_offset_microns,"ax",@progbits
 779              	.LHOTB18:
 780              		.p2align 4,,15
 781              		.globl	png_get_y_offset_microns
 783              	png_get_y_offset_microns:
 784              	.LFB72:
 257:fltk-1.3.4-1/png/pngget.c **** #ifdef PNG_oFFs_SUPPORTED
 785              		.loc 1 257 0
 786              		.cfi_startproc
 787              	.LVL36:
 272:fltk-1.3.4-1/png/pngget.c **** }
 788              		.loc 1 272 0
 789 0000 31C0     		xorl	%eax, %eax
 259:fltk-1.3.4-1/png/pngget.c ****        (info_ptr->valid & PNG_INFO_oFFs) != 0)
 790              		.loc 1 259 0
 791 0002 4885FF   		testq	%rdi, %rdi
 792 0005 7414     		je	.L198
 793 0007 4885F6   		testq	%rsi, %rsi
 794 000a 740F     		je	.L198
 259:fltk-1.3.4-1/png/pngget.c ****        (info_ptr->valid & PNG_INFO_oFFs) != 0)
 795              		.loc 1 259 0 is_stmt 0 discriminator 1
 796 000c F6460901 		testb	$1, 9(%rsi)
 797 0010 7409     		je	.L198
 798              	.LVL37:
 799              	.LBB43:
 800              	.LBB44:
 264:fltk-1.3.4-1/png/pngget.c ****          return (info_ptr->y_offset);
 801              		.loc 1 264 0 is_stmt 1
 802 0012 80BEDC00 		cmpb	$1, 220(%rsi)
 802      000001
 803 0019 7405     		je	.L209
 804              	.LVL38:
 805              	.L198:
 806              	.LBE44:
 807              	.LBE43:
 273:fltk-1.3.4-1/png/pngget.c **** 
 808              		.loc 1 273 0
 809 001b F3C3     		rep ret
 810              	.LVL39:
 811 001d 0F1F00   		.p2align 4,,10
 812              		.p2align 3
 813              	.L209:
 814              	.LBB46:
 815              	.LBB45:
 265:fltk-1.3.4-1/png/pngget.c ****    }
 816              		.loc 1 265 0
 817 0020 8B86D800 		movl	216(%rsi), %eax
 817      0000
 818 0026 C3       		ret
 819              	.LBE45:
 820              	.LBE46:
 821              		.cfi_endproc
 822              	.LFE72:
 824              		.section	.text.unlikely.png_get_y_offset_microns
 825              	.LCOLDE18:
 826              		.section	.text.png_get_y_offset_microns
 827              	.LHOTE18:
 828              		.section	.text.unlikely.png_get_x_offset_pixels,"ax",@progbits
 829              	.LCOLDB19:
 830              		.section	.text.png_get_x_offset_pixels,"ax",@progbits
 831              	.LHOTB19:
 832              		.p2align 4,,15
 833              		.globl	png_get_x_offset_pixels
 835              	png_get_x_offset_pixels:
 836              	.LFB73:
 277:fltk-1.3.4-1/png/pngget.c **** #ifdef PNG_oFFs_SUPPORTED
 837              		.loc 1 277 0
 838              		.cfi_startproc
 839              	.LVL40:
 292:fltk-1.3.4-1/png/pngget.c **** }
 840              		.loc 1 292 0
 841 0000 31C0     		xorl	%eax, %eax
 279:fltk-1.3.4-1/png/pngget.c ****        (info_ptr->valid & PNG_INFO_oFFs) != 0)
 842              		.loc 1 279 0
 843 0002 4885FF   		testq	%rdi, %rdi
 844 0005 7421     		je	.L211
 845 0007 4885F6   		testq	%rsi, %rsi
 846 000a 741C     		je	.L211
 279:fltk-1.3.4-1/png/pngget.c ****        (info_ptr->valid & PNG_INFO_oFFs) != 0)
 847              		.loc 1 279 0 is_stmt 0 discriminator 1
 848 000c F6460901 		testb	$1, 9(%rsi)
 849 0010 7416     		je	.L211
 284:fltk-1.3.4-1/png/pngget.c ****          return (info_ptr->x_offset);
 850              		.loc 1 284 0 is_stmt 1
 851 0012 80BEDC00 		cmpb	$0, 220(%rsi)
 851      000000
 852 0019 750D     		jne	.L211
 285:fltk-1.3.4-1/png/pngget.c ****    }
 853              		.loc 1 285 0
 854 001b 8B86D400 		movl	212(%rsi), %eax
 854      0000
 855 0021 C3       		ret
 856              		.p2align 4,,10
 857 0022 660F1F44 		.p2align 3
 857      0000
 858              	.L211:
 293:fltk-1.3.4-1/png/pngget.c **** 
 859              		.loc 1 293 0
 860 0028 F3C3     		rep ret
 861              		.cfi_endproc
 862              	.LFE73:
 864              		.section	.text.unlikely.png_get_x_offset_pixels
 865              	.LCOLDE19:
 866              		.section	.text.png_get_x_offset_pixels
 867              	.LHOTE19:
 868              		.section	.text.unlikely.png_get_y_offset_pixels,"ax",@progbits
 869              	.LCOLDB20:
 870              		.section	.text.png_get_y_offset_pixels,"ax",@progbits
 871              	.LHOTB20:
 872              		.p2align 4,,15
 873              		.globl	png_get_y_offset_pixels
 875              	png_get_y_offset_pixels:
 876              	.LFB74:
 297:fltk-1.3.4-1/png/pngget.c **** #ifdef PNG_oFFs_SUPPORTED
 877              		.loc 1 297 0
 878              		.cfi_startproc
 879              	.LVL41:
 312:fltk-1.3.4-1/png/pngget.c **** }
 880              		.loc 1 312 0
 881 0000 31C0     		xorl	%eax, %eax
 299:fltk-1.3.4-1/png/pngget.c ****        (info_ptr->valid & PNG_INFO_oFFs) != 0)
 882              		.loc 1 299 0
 883 0002 4885FF   		testq	%rdi, %rdi
 884 0005 7421     		je	.L223
 885 0007 4885F6   		testq	%rsi, %rsi
 886 000a 741C     		je	.L223
 299:fltk-1.3.4-1/png/pngget.c ****        (info_ptr->valid & PNG_INFO_oFFs) != 0)
 887              		.loc 1 299 0 is_stmt 0 discriminator 1
 888 000c F6460901 		testb	$1, 9(%rsi)
 889 0010 7416     		je	.L223
 304:fltk-1.3.4-1/png/pngget.c ****          return (info_ptr->y_offset);
 890              		.loc 1 304 0 is_stmt 1
 891 0012 80BEDC00 		cmpb	$0, 220(%rsi)
 891      000000
 892 0019 750D     		jne	.L223
 305:fltk-1.3.4-1/png/pngget.c ****    }
 893              		.loc 1 305 0
 894 001b 8B86D800 		movl	216(%rsi), %eax
 894      0000
 895 0021 C3       		ret
 896              		.p2align 4,,10
 897 0022 660F1F44 		.p2align 3
 897      0000
 898              	.L223:
 313:fltk-1.3.4-1/png/pngget.c **** 
 899              		.loc 1 313 0
 900 0028 F3C3     		rep ret
 901              		.cfi_endproc
 902              	.LFE74:
 904              		.section	.text.unlikely.png_get_y_offset_pixels
 905              	.LCOLDE20:
 906              		.section	.text.png_get_y_offset_pixels
 907              	.LHOTE20:
 908              		.section	.text.unlikely.png_get_pixels_per_inch,"ax",@progbits
 909              	.LCOLDB21:
 910              		.section	.text.png_get_pixels_per_inch,"ax",@progbits
 911              	.LHOTB21:
 912              		.p2align 4,,15
 913              		.globl	png_get_pixels_per_inch
 915              	png_get_pixels_per_inch:
 916              	.LFB76:
 347:fltk-1.3.4-1/png/pngget.c **** 
 348:fltk-1.3.4-1/png/pngget.c **** png_uint_32 PNGAPI
 349:fltk-1.3.4-1/png/pngget.c **** png_get_pixels_per_inch(png_const_structrp png_ptr, png_const_inforp info_ptr)
 350:fltk-1.3.4-1/png/pngget.c **** {
 917              		.loc 1 350 0
 918              		.cfi_startproc
 919              	.LVL42:
 920 0000 4883EC08 		subq	$8, %rsp
 921              		.cfi_def_cfa_offset 16
 351:fltk-1.3.4-1/png/pngget.c ****    return ppi_from_ppm(png_get_pixels_per_meter(png_ptr, info_ptr));
 922              		.loc 1 351 0
 923 0004 E8000000 		call	png_get_pixels_per_meter
 923      00
 924              	.LVL43:
 352:fltk-1.3.4-1/png/pngget.c **** }
 925              		.loc 1 352 0
 926 0009 4883C408 		addq	$8, %rsp
 927              		.cfi_def_cfa_offset 8
 351:fltk-1.3.4-1/png/pngget.c ****    return ppi_from_ppm(png_get_pixels_per_meter(png_ptr, info_ptr));
 928              		.loc 1 351 0
 929 000d 89C7     		movl	%eax, %edi
 930 000f E9000000 		jmp	ppi_from_ppm
 930      00
 931              	.LVL44:
 932              		.cfi_endproc
 933              	.LFE76:
 935              		.section	.text.unlikely.png_get_pixels_per_inch
 936              	.LCOLDE21:
 937              		.section	.text.png_get_pixels_per_inch
 938              	.LHOTE21:
 939              		.section	.text.unlikely.png_get_x_pixels_per_inch,"ax",@progbits
 940              	.LCOLDB22:
 941              		.section	.text.png_get_x_pixels_per_inch,"ax",@progbits
 942              	.LHOTB22:
 943              		.p2align 4,,15
 944              		.globl	png_get_x_pixels_per_inch
 946              	png_get_x_pixels_per_inch:
 947              	.LFB77:
 353:fltk-1.3.4-1/png/pngget.c **** 
 354:fltk-1.3.4-1/png/pngget.c **** png_uint_32 PNGAPI
 355:fltk-1.3.4-1/png/pngget.c **** png_get_x_pixels_per_inch(png_const_structrp png_ptr, png_const_inforp info_ptr)
 356:fltk-1.3.4-1/png/pngget.c **** {
 948              		.loc 1 356 0
 949              		.cfi_startproc
 950              	.LVL45:
 951 0000 4883EC08 		subq	$8, %rsp
 952              		.cfi_def_cfa_offset 16
 357:fltk-1.3.4-1/png/pngget.c ****    return ppi_from_ppm(png_get_x_pixels_per_meter(png_ptr, info_ptr));
 953              		.loc 1 357 0
 954 0004 E8000000 		call	png_get_x_pixels_per_meter
 954      00
 955              	.LVL46:
 358:fltk-1.3.4-1/png/pngget.c **** }
 956              		.loc 1 358 0
 957 0009 4883C408 		addq	$8, %rsp
 958              		.cfi_def_cfa_offset 8
 357:fltk-1.3.4-1/png/pngget.c ****    return ppi_from_ppm(png_get_x_pixels_per_meter(png_ptr, info_ptr));
 959              		.loc 1 357 0
 960 000d 89C7     		movl	%eax, %edi
 961 000f E9000000 		jmp	ppi_from_ppm
 961      00
 962              	.LVL47:
 963              		.cfi_endproc
 964              	.LFE77:
 966              		.section	.text.unlikely.png_get_x_pixels_per_inch
 967              	.LCOLDE22:
 968              		.section	.text.png_get_x_pixels_per_inch
 969              	.LHOTE22:
 970              		.section	.text.unlikely.png_get_y_pixels_per_inch,"ax",@progbits
 971              	.LCOLDB23:
 972              		.section	.text.png_get_y_pixels_per_inch,"ax",@progbits
 973              	.LHOTB23:
 974              		.p2align 4,,15
 975              		.globl	png_get_y_pixels_per_inch
 977              	png_get_y_pixels_per_inch:
 978              	.LFB78:
 359:fltk-1.3.4-1/png/pngget.c **** 
 360:fltk-1.3.4-1/png/pngget.c **** png_uint_32 PNGAPI
 361:fltk-1.3.4-1/png/pngget.c **** png_get_y_pixels_per_inch(png_const_structrp png_ptr, png_const_inforp info_ptr)
 362:fltk-1.3.4-1/png/pngget.c **** {
 979              		.loc 1 362 0
 980              		.cfi_startproc
 981              	.LVL48:
 982 0000 4883EC08 		subq	$8, %rsp
 983              		.cfi_def_cfa_offset 16
 363:fltk-1.3.4-1/png/pngget.c ****    return ppi_from_ppm(png_get_y_pixels_per_meter(png_ptr, info_ptr));
 984              		.loc 1 363 0
 985 0004 E8000000 		call	png_get_y_pixels_per_meter
 985      00
 986              	.LVL49:
 364:fltk-1.3.4-1/png/pngget.c **** }
 987              		.loc 1 364 0
 988 0009 4883C408 		addq	$8, %rsp
 989              		.cfi_def_cfa_offset 8
 363:fltk-1.3.4-1/png/pngget.c ****    return ppi_from_ppm(png_get_y_pixels_per_meter(png_ptr, info_ptr));
 990              		.loc 1 363 0
 991 000d 89C7     		movl	%eax, %edi
 992 000f E9000000 		jmp	ppi_from_ppm
 992      00
 993              	.LVL50:
 994              		.cfi_endproc
 995              	.LFE78:
 997              		.section	.text.unlikely.png_get_y_pixels_per_inch
 998              	.LCOLDE23:
 999              		.section	.text.png_get_y_pixels_per_inch
 1000              	.LHOTE23:
 1001              		.section	.text.unlikely.png_get_x_offset_inches_fixed,"ax",@progbits
 1002              	.LCOLDB24:
 1003              		.section	.text.png_get_x_offset_inches_fixed,"ax",@progbits
 1004              	.LHOTB24:
 1005              		.p2align 4,,15
 1006              		.globl	png_get_x_offset_inches_fixed
 1008              	png_get_x_offset_inches_fixed:
 1009              	.LFB80:
 365:fltk-1.3.4-1/png/pngget.c **** 
 366:fltk-1.3.4-1/png/pngget.c **** #ifdef PNG_FIXED_POINT_SUPPORTED
 367:fltk-1.3.4-1/png/pngget.c **** static png_fixed_point
 368:fltk-1.3.4-1/png/pngget.c **** png_fixed_inches_from_microns(png_const_structrp png_ptr, png_int_32 microns)
 369:fltk-1.3.4-1/png/pngget.c **** {
 370:fltk-1.3.4-1/png/pngget.c ****    /* Convert from metres * 1,000,000 to inches * 100,000, meters to
 371:fltk-1.3.4-1/png/pngget.c ****     * inches is simply *(100/2.54), so we want *(10/2.54) == 500/127.
 372:fltk-1.3.4-1/png/pngget.c ****     * Notice that this can overflow - a warning is output and 0 is
 373:fltk-1.3.4-1/png/pngget.c ****     * returned.
 374:fltk-1.3.4-1/png/pngget.c ****     */
 375:fltk-1.3.4-1/png/pngget.c ****    return png_muldiv_warn(png_ptr, microns, 500, 127);
 376:fltk-1.3.4-1/png/pngget.c **** }
 377:fltk-1.3.4-1/png/pngget.c **** 
 378:fltk-1.3.4-1/png/pngget.c **** png_fixed_point PNGAPI
 379:fltk-1.3.4-1/png/pngget.c **** png_get_x_offset_inches_fixed(png_const_structrp png_ptr,
 380:fltk-1.3.4-1/png/pngget.c ****     png_const_inforp info_ptr)
 381:fltk-1.3.4-1/png/pngget.c **** {
 1010              		.loc 1 381 0
 1011              		.cfi_startproc
 1012              	.LVL51:
 1013 0000 4883EC08 		subq	$8, %rsp
 1014              		.cfi_def_cfa_offset 16
 382:fltk-1.3.4-1/png/pngget.c ****    return png_fixed_inches_from_microns(png_ptr,
 1015              		.loc 1 382 0
 1016 0004 E8000000 		call	png_get_x_offset_microns
 1016      00
 1017              	.LVL52:
 1018              	.LBB47:
 1019              	.LBB48:
 375:fltk-1.3.4-1/png/pngget.c **** }
 1020              		.loc 1 375 0
 1021 0009 B97F0000 		movl	$127, %ecx
 1021      00
 1022 000e BAF40100 		movl	$500, %edx
 1022      00
 1023 0013 89C6     		movl	%eax, %esi
 1024              	.LBE48:
 1025              	.LBE47:
 383:fltk-1.3.4-1/png/pngget.c ****        png_get_x_offset_microns(png_ptr, info_ptr));
 384:fltk-1.3.4-1/png/pngget.c **** }
 1026              		.loc 1 384 0
 1027 0015 4883C408 		addq	$8, %rsp
 1028              		.cfi_def_cfa_offset 8
 1029              	.LBB50:
 1030              	.LBB49:
 375:fltk-1.3.4-1/png/pngget.c **** }
 1031              		.loc 1 375 0
 1032 0019 E9000000 		jmp	png_muldiv_warn
 1032      00
 1033              	.LVL53:
 1034              	.LBE49:
 1035              	.LBE50:
 1036              		.cfi_endproc
 1037              	.LFE80:
 1039              		.section	.text.unlikely.png_get_x_offset_inches_fixed
 1040              	.LCOLDE24:
 1041              		.section	.text.png_get_x_offset_inches_fixed
 1042              	.LHOTE24:
 1043              		.section	.text.unlikely.png_get_y_offset_inches_fixed,"ax",@progbits
 1044              	.LCOLDB25:
 1045              		.section	.text.png_get_y_offset_inches_fixed,"ax",@progbits
 1046              	.LHOTB25:
 1047              		.p2align 4,,15
 1048              		.globl	png_get_y_offset_inches_fixed
 1050              	png_get_y_offset_inches_fixed:
 1051              	.LFB81:
 385:fltk-1.3.4-1/png/pngget.c **** #endif
 386:fltk-1.3.4-1/png/pngget.c **** 
 387:fltk-1.3.4-1/png/pngget.c **** #ifdef PNG_FIXED_POINT_SUPPORTED
 388:fltk-1.3.4-1/png/pngget.c **** png_fixed_point PNGAPI
 389:fltk-1.3.4-1/png/pngget.c **** png_get_y_offset_inches_fixed(png_const_structrp png_ptr,
 390:fltk-1.3.4-1/png/pngget.c ****     png_const_inforp info_ptr)
 391:fltk-1.3.4-1/png/pngget.c **** {
 1052              		.loc 1 391 0
 1053              		.cfi_startproc
 1054              	.LVL54:
 1055 0000 4883EC08 		subq	$8, %rsp
 1056              		.cfi_def_cfa_offset 16
 392:fltk-1.3.4-1/png/pngget.c ****    return png_fixed_inches_from_microns(png_ptr,
 1057              		.loc 1 392 0
 1058 0004 E8000000 		call	png_get_y_offset_microns
 1058      00
 1059              	.LVL55:
 1060              	.LBB51:
 1061              	.LBB52:
 375:fltk-1.3.4-1/png/pngget.c **** }
 1062              		.loc 1 375 0
 1063 0009 B97F0000 		movl	$127, %ecx
 1063      00
 1064 000e BAF40100 		movl	$500, %edx
 1064      00
 1065 0013 89C6     		movl	%eax, %esi
 1066              	.LBE52:
 1067              	.LBE51:
 393:fltk-1.3.4-1/png/pngget.c ****        png_get_y_offset_microns(png_ptr, info_ptr));
 394:fltk-1.3.4-1/png/pngget.c **** }
 1068              		.loc 1 394 0
 1069 0015 4883C408 		addq	$8, %rsp
 1070              		.cfi_def_cfa_offset 8
 1071              	.LBB54:
 1072              	.LBB53:
 375:fltk-1.3.4-1/png/pngget.c **** }
 1073              		.loc 1 375 0
 1074 0019 E9000000 		jmp	png_muldiv_warn
 1074      00
 1075              	.LVL56:
 1076              	.LBE53:
 1077              	.LBE54:
 1078              		.cfi_endproc
 1079              	.LFE81:
 1081              		.section	.text.unlikely.png_get_y_offset_inches_fixed
 1082              	.LCOLDE25:
 1083              		.section	.text.png_get_y_offset_inches_fixed
 1084              	.LHOTE25:
 1085              		.section	.text.unlikely.png_get_x_offset_inches,"ax",@progbits
 1086              	.LCOLDB27:
 1087              		.section	.text.png_get_x_offset_inches,"ax",@progbits
 1088              	.LHOTB27:
 1089              		.p2align 4,,15
 1090              		.globl	png_get_x_offset_inches
 1092              	png_get_x_offset_inches:
 1093              	.LFB82:
 395:fltk-1.3.4-1/png/pngget.c **** #endif
 396:fltk-1.3.4-1/png/pngget.c **** 
 397:fltk-1.3.4-1/png/pngget.c **** #ifdef PNG_FLOATING_POINT_SUPPORTED
 398:fltk-1.3.4-1/png/pngget.c **** float PNGAPI
 399:fltk-1.3.4-1/png/pngget.c **** png_get_x_offset_inches(png_const_structrp png_ptr, png_const_inforp info_ptr)
 400:fltk-1.3.4-1/png/pngget.c **** {
 1094              		.loc 1 400 0
 1095              		.cfi_startproc
 1096              	.LVL57:
 401:fltk-1.3.4-1/png/pngget.c ****    /* To avoid the overflow do the conversion directly in floating
 402:fltk-1.3.4-1/png/pngget.c ****     * point.
 403:fltk-1.3.4-1/png/pngget.c ****     */
 404:fltk-1.3.4-1/png/pngget.c ****    return (float)(png_get_x_offset_microns(png_ptr, info_ptr) * .00003937);
 1097              		.loc 1 404 0
 1098 0000 E8000000 		call	png_get_x_offset_microns
 1098      00
 1099              	.LVL58:
 1100 0005 660FEFC0 		pxor	%xmm0, %xmm0
 1101 0009 F20F2AC0 		cvtsi2sd	%eax, %xmm0
 1102 000d F20F5905 		mulsd	.LC26(%rip), %xmm0
 1102      00000000 
 1103 0015 F20F5AC0 		cvtsd2ss	%xmm0, %xmm0
 405:fltk-1.3.4-1/png/pngget.c **** }
 1104              		.loc 1 405 0
 1105 0019 C3       		ret
 1106              		.cfi_endproc
 1107              	.LFE82:
 1109              		.section	.text.unlikely.png_get_x_offset_inches
 1110              	.LCOLDE27:
 1111              		.section	.text.png_get_x_offset_inches
 1112              	.LHOTE27:
 1113              		.section	.text.unlikely.png_get_y_offset_inches,"ax",@progbits
 1114              	.LCOLDB28:
 1115              		.section	.text.png_get_y_offset_inches,"ax",@progbits
 1116              	.LHOTB28:
 1117              		.p2align 4,,15
 1118              		.globl	png_get_y_offset_inches
 1120              	png_get_y_offset_inches:
 1121              	.LFB83:
 406:fltk-1.3.4-1/png/pngget.c **** #endif
 407:fltk-1.3.4-1/png/pngget.c **** 
 408:fltk-1.3.4-1/png/pngget.c **** #ifdef PNG_FLOATING_POINT_SUPPORTED
 409:fltk-1.3.4-1/png/pngget.c **** float PNGAPI
 410:fltk-1.3.4-1/png/pngget.c **** png_get_y_offset_inches(png_const_structrp png_ptr, png_const_inforp info_ptr)
 411:fltk-1.3.4-1/png/pngget.c **** {
 1122              		.loc 1 411 0
 1123              		.cfi_startproc
 1124              	.LVL59:
 412:fltk-1.3.4-1/png/pngget.c ****    /* To avoid the overflow do the conversion directly in floating
 413:fltk-1.3.4-1/png/pngget.c ****     * point.
 414:fltk-1.3.4-1/png/pngget.c ****     */
 415:fltk-1.3.4-1/png/pngget.c ****    return (float)(png_get_y_offset_microns(png_ptr, info_ptr) * .00003937);
 1125              		.loc 1 415 0
 1126 0000 E8000000 		call	png_get_y_offset_microns
 1126      00
 1127              	.LVL60:
 1128 0005 660FEFC0 		pxor	%xmm0, %xmm0
 1129 0009 F20F2AC0 		cvtsi2sd	%eax, %xmm0
 1130 000d F20F5905 		mulsd	.LC26(%rip), %xmm0
 1130      00000000 
 1131 0015 F20F5AC0 		cvtsd2ss	%xmm0, %xmm0
 416:fltk-1.3.4-1/png/pngget.c **** }
 1132              		.loc 1 416 0
 1133 0019 C3       		ret
 1134              		.cfi_endproc
 1135              	.LFE83:
 1137              		.section	.text.unlikely.png_get_y_offset_inches
 1138              	.LCOLDE28:
 1139              		.section	.text.png_get_y_offset_inches
 1140              	.LHOTE28:
 1141              		.section	.text.unlikely.png_get_pHYs_dpi,"ax",@progbits
 1142              	.LCOLDB31:
 1143              		.section	.text.png_get_pHYs_dpi,"ax",@progbits
 1144              	.LHOTB31:
 1145              		.p2align 4,,15
 1146              		.globl	png_get_pHYs_dpi
 1148              	png_get_pHYs_dpi:
 1149              	.LFB84:
 417:fltk-1.3.4-1/png/pngget.c **** #endif
 418:fltk-1.3.4-1/png/pngget.c **** 
 419:fltk-1.3.4-1/png/pngget.c **** #ifdef PNG_pHYs_SUPPORTED
 420:fltk-1.3.4-1/png/pngget.c **** png_uint_32 PNGAPI
 421:fltk-1.3.4-1/png/pngget.c **** png_get_pHYs_dpi(png_const_structrp png_ptr, png_const_inforp info_ptr,
 422:fltk-1.3.4-1/png/pngget.c ****     png_uint_32 *res_x, png_uint_32 *res_y, int *unit_type)
 423:fltk-1.3.4-1/png/pngget.c **** {
 1150              		.loc 1 423 0
 1151              		.cfi_startproc
 1152              	.LVL61:
 424:fltk-1.3.4-1/png/pngget.c ****    png_uint_32 retval = 0;
 1153              		.loc 1 424 0
 1154 0000 31C0     		xorl	%eax, %eax
 425:fltk-1.3.4-1/png/pngget.c **** 
 426:fltk-1.3.4-1/png/pngget.c ****    if (png_ptr != NULL && info_ptr != NULL &&
 1155              		.loc 1 426 0
 1156 0002 4885FF   		testq	%rdi, %rdi
 1157 0005 7449     		je	.L247
 1158 0007 4885F6   		testq	%rsi, %rsi
 1159 000a 7444     		je	.L247
 1160              		.loc 1 426 0 is_stmt 0 discriminator 1
 1161 000c F6460880 		testb	$-128, 8(%rsi)
 1162 0010 743E     		je	.L247
 427:fltk-1.3.4-1/png/pngget.c ****        (info_ptr->valid & PNG_INFO_pHYs) != 0)
 428:fltk-1.3.4-1/png/pngget.c ****    {
 429:fltk-1.3.4-1/png/pngget.c ****       png_debug1(1, "in %s retrieval function", "pHYs");
 430:fltk-1.3.4-1/png/pngget.c **** 
 431:fltk-1.3.4-1/png/pngget.c ****       if (res_x != NULL)
 1163              		.loc 1 431 0 is_stmt 1
 1164 0012 4885D2   		testq	%rdx, %rdx
 1165 0015 740D     		je	.L248
 432:fltk-1.3.4-1/png/pngget.c ****       {
 433:fltk-1.3.4-1/png/pngget.c ****          *res_x = info_ptr->x_pixels_per_unit;
 1166              		.loc 1 433 0
 1167 0017 8B86E000 		movl	224(%rsi), %eax
 1167      0000
 1168 001d 8902     		movl	%eax, (%rdx)
 1169              	.LVL62:
 434:fltk-1.3.4-1/png/pngget.c ****          retval |= PNG_INFO_pHYs;
 1170              		.loc 1 434 0
 1171 001f B8800000 		movl	$128, %eax
 1171      00
 1172              	.LVL63:
 1173              	.L248:
 435:fltk-1.3.4-1/png/pngget.c ****       }
 436:fltk-1.3.4-1/png/pngget.c **** 
 437:fltk-1.3.4-1/png/pngget.c ****       if (res_y != NULL)
 1174              		.loc 1 437 0
 1175 0024 4885C9   		testq	%rcx, %rcx
 1176 0027 740D     		je	.L249
 438:fltk-1.3.4-1/png/pngget.c ****       {
 439:fltk-1.3.4-1/png/pngget.c ****          *res_y = info_ptr->y_pixels_per_unit;
 1177              		.loc 1 439 0
 1178 0029 8B86E400 		movl	228(%rsi), %eax
 1178      0000
 1179              	.LVL64:
 1180 002f 8901     		movl	%eax, (%rcx)
 1181              	.LVL65:
 440:fltk-1.3.4-1/png/pngget.c ****          retval |= PNG_INFO_pHYs;
 1182              		.loc 1 440 0
 1183 0031 B8800000 		movl	$128, %eax
 1183      00
 1184              	.LVL66:
 1185              	.L249:
 441:fltk-1.3.4-1/png/pngget.c ****       }
 442:fltk-1.3.4-1/png/pngget.c **** 
 443:fltk-1.3.4-1/png/pngget.c ****       if (unit_type != NULL)
 1186              		.loc 1 443 0
 1187 0036 4D85C0   		testq	%r8, %r8
 1188 0039 7415     		je	.L247
 444:fltk-1.3.4-1/png/pngget.c ****       {
 445:fltk-1.3.4-1/png/pngget.c ****          *unit_type = (int)info_ptr->phys_unit_type;
 1189              		.loc 1 445 0
 1190 003b 0FB686E8 		movzbl	232(%rsi), %eax
 1190      000000
 1191              	.LVL67:
 446:fltk-1.3.4-1/png/pngget.c ****          retval |= PNG_INFO_pHYs;
 447:fltk-1.3.4-1/png/pngget.c **** 
 448:fltk-1.3.4-1/png/pngget.c ****          if (*unit_type == 1)
 1192              		.loc 1 448 0
 1193 0042 83F801   		cmpl	$1, %eax
 445:fltk-1.3.4-1/png/pngget.c ****          retval |= PNG_INFO_pHYs;
 1194              		.loc 1 445 0
 1195 0045 418900   		movl	%eax, (%r8)
 1196              	.LVL68:
 1197              		.loc 1 448 0
 1198 0048 740E     		je	.L280
 1199              	.L279:
 446:fltk-1.3.4-1/png/pngget.c ****          retval |= PNG_INFO_pHYs;
 1200              		.loc 1 446 0 discriminator 1
 1201 004a B8800000 		movl	$128, %eax
 1201      00
 1202 004f C3       		ret
 1203              	.LVL69:
 1204              		.p2align 4,,10
 1205              		.p2align 3
 1206              	.L247:
 449:fltk-1.3.4-1/png/pngget.c ****          {
 450:fltk-1.3.4-1/png/pngget.c ****             if (res_x != NULL) *res_x = (png_uint_32)(*res_x * .0254 + .50);
 451:fltk-1.3.4-1/png/pngget.c ****             if (res_y != NULL) *res_y = (png_uint_32)(*res_y * .0254 + .50);
 452:fltk-1.3.4-1/png/pngget.c ****          }
 453:fltk-1.3.4-1/png/pngget.c ****       }
 454:fltk-1.3.4-1/png/pngget.c ****    }
 455:fltk-1.3.4-1/png/pngget.c **** 
 456:fltk-1.3.4-1/png/pngget.c ****    return (retval);
 457:fltk-1.3.4-1/png/pngget.c **** }
 1207              		.loc 1 457 0
 1208 0050 F3C3     		rep ret
 1209              	.LVL70:
 1210              		.p2align 4,,10
 1211 0052 660F1F44 		.p2align 3
 1211      0000
 1212              	.L280:
 450:fltk-1.3.4-1/png/pngget.c ****             if (res_y != NULL) *res_y = (png_uint_32)(*res_y * .0254 + .50);
 1213              		.loc 1 450 0
 1214 0058 4885D2   		testq	%rdx, %rdx
 1215 005b 7422     		je	.L251
 450:fltk-1.3.4-1/png/pngget.c ****             if (res_y != NULL) *res_y = (png_uint_32)(*res_y * .0254 + .50);
 1216              		.loc 1 450 0 is_stmt 0 discriminator 1
 1217 005d 8B02     		movl	(%rdx), %eax
 1218 005f 660FEFC0 		pxor	%xmm0, %xmm0
 1219 0063 F2480F2A 		cvtsi2sdq	%rax, %xmm0
 1219      C0
 1220 0068 F20F5905 		mulsd	.LC29(%rip), %xmm0
 1220      00000000 
 1221 0070 F20F5805 		addsd	.LC30(%rip), %xmm0
 1221      00000000 
 1222 0078 F2480F2C 		cvttsd2siq	%xmm0, %rax
 1222      C0
 1223 007d 8902     		movl	%eax, (%rdx)
 1224              	.L251:
 451:fltk-1.3.4-1/png/pngget.c ****          }
 1225              		.loc 1 451 0 is_stmt 1
 1226 007f 4885C9   		testq	%rcx, %rcx
 1227 0082 74C6     		je	.L279
 451:fltk-1.3.4-1/png/pngget.c ****          }
 1228              		.loc 1 451 0 is_stmt 0 discriminator 1
 1229 0084 8B01     		movl	(%rcx), %eax
 1230 0086 660FEFC0 		pxor	%xmm0, %xmm0
 1231 008a F2480F2A 		cvtsi2sdq	%rax, %xmm0
 1231      C0
 1232 008f F20F5905 		mulsd	.LC29(%rip), %xmm0
 1232      00000000 
 1233 0097 F20F5805 		addsd	.LC30(%rip), %xmm0
 1233      00000000 
 1234 009f F2480F2C 		cvttsd2siq	%xmm0, %rax
 1234      C0
 1235 00a4 8901     		movl	%eax, (%rcx)
 1236 00a6 EBA2     		jmp	.L279
 1237              		.cfi_endproc
 1238              	.LFE84:
 1240              		.section	.text.unlikely.png_get_pHYs_dpi
 1241              	.LCOLDE31:
 1242              		.section	.text.png_get_pHYs_dpi
 1243              	.LHOTE31:
 1244              		.section	.text.unlikely.png_get_channels,"ax",@progbits
 1245              	.LCOLDB32:
 1246              		.section	.text.png_get_channels,"ax",@progbits
 1247              	.LHOTB32:
 1248              		.p2align 4,,15
 1249              		.globl	png_get_channels
 1251              	png_get_channels:
 1252              	.LFB85:
 458:fltk-1.3.4-1/png/pngget.c **** #endif /* pHYs */
 459:fltk-1.3.4-1/png/pngget.c **** #endif  /* INCH_CONVERSIONS */
 460:fltk-1.3.4-1/png/pngget.c **** 
 461:fltk-1.3.4-1/png/pngget.c **** /* png_get_channels really belongs in here, too, but it's been around longer */
 462:fltk-1.3.4-1/png/pngget.c **** 
 463:fltk-1.3.4-1/png/pngget.c **** #endif  /* EASY_ACCESS */
 464:fltk-1.3.4-1/png/pngget.c **** 
 465:fltk-1.3.4-1/png/pngget.c **** 
 466:fltk-1.3.4-1/png/pngget.c **** png_byte PNGAPI
 467:fltk-1.3.4-1/png/pngget.c **** png_get_channels(png_const_structrp png_ptr, png_const_inforp info_ptr)
 468:fltk-1.3.4-1/png/pngget.c **** {
 1253              		.loc 1 468 0 is_stmt 1
 1254              		.cfi_startproc
 1255              	.LVL71:
 469:fltk-1.3.4-1/png/pngget.c ****    if (png_ptr != NULL && info_ptr != NULL)
 1256              		.loc 1 469 0
 1257 0000 4885FF   		testq	%rdi, %rdi
 1258 0003 740B     		je	.L283
 1259 0005 4885F6   		testq	%rsi, %rsi
 1260 0008 7406     		je	.L283
 470:fltk-1.3.4-1/png/pngget.c ****       return(info_ptr->channels);
 1261              		.loc 1 470 0
 1262 000a 0FB64629 		movzbl	41(%rsi), %eax
 1263 000e C3       		ret
 1264 000f 90       		.p2align 4,,10
 1265              		.p2align 3
 1266              	.L283:
 471:fltk-1.3.4-1/png/pngget.c **** 
 472:fltk-1.3.4-1/png/pngget.c ****    return (0);
 1267              		.loc 1 472 0
 1268 0010 31C0     		xorl	%eax, %eax
 473:fltk-1.3.4-1/png/pngget.c **** }
 1269              		.loc 1 473 0
 1270 0012 C3       		ret
 1271              		.cfi_endproc
 1272              	.LFE85:
 1274              		.section	.text.unlikely.png_get_channels
 1275              	.LCOLDE32:
 1276              		.section	.text.png_get_channels
 1277              	.LHOTE32:
 1278              		.section	.text.unlikely.png_get_signature,"ax",@progbits
 1279              	.LCOLDB33:
 1280              		.section	.text.png_get_signature,"ax",@progbits
 1281              	.LHOTB33:
 1282              		.p2align 4,,15
 1283              		.globl	png_get_signature
 1285              	png_get_signature:
 1286              	.LFB86:
 474:fltk-1.3.4-1/png/pngget.c **** 
 475:fltk-1.3.4-1/png/pngget.c **** #ifdef PNG_READ_SUPPORTED
 476:fltk-1.3.4-1/png/pngget.c **** png_const_bytep PNGAPI
 477:fltk-1.3.4-1/png/pngget.c **** png_get_signature(png_const_structrp png_ptr, png_const_inforp info_ptr)
 478:fltk-1.3.4-1/png/pngget.c **** {
 1287              		.loc 1 478 0
 1288              		.cfi_startproc
 1289              	.LVL72:
 479:fltk-1.3.4-1/png/pngget.c ****    if (png_ptr != NULL && info_ptr != NULL)
 1290              		.loc 1 479 0
 1291 0000 4885FF   		testq	%rdi, %rdi
 1292 0003 740B     		je	.L292
 1293 0005 4885F6   		testq	%rsi, %rsi
 1294 0008 7406     		je	.L292
 480:fltk-1.3.4-1/png/pngget.c ****       return(info_ptr->signature);
 1295              		.loc 1 480 0
 1296 000a 488D462C 		leaq	44(%rsi), %rax
 1297 000e C3       		ret
 1298 000f 90       		.p2align 4,,10
 1299              		.p2align 3
 1300              	.L292:
 481:fltk-1.3.4-1/png/pngget.c **** 
 482:fltk-1.3.4-1/png/pngget.c ****    return (NULL);
 1301              		.loc 1 482 0
 1302 0010 31C0     		xorl	%eax, %eax
 483:fltk-1.3.4-1/png/pngget.c **** }
 1303              		.loc 1 483 0
 1304 0012 C3       		ret
 1305              		.cfi_endproc
 1306              	.LFE86:
 1308              		.section	.text.unlikely.png_get_signature
 1309              	.LCOLDE33:
 1310              		.section	.text.png_get_signature
 1311              	.LHOTE33:
 1312              		.section	.text.unlikely.png_get_bKGD,"ax",@progbits
 1313              	.LCOLDB34:
 1314              		.section	.text.png_get_bKGD,"ax",@progbits
 1315              	.LHOTB34:
 1316              		.p2align 4,,15
 1317              		.globl	png_get_bKGD
 1319              	png_get_bKGD:
 1320              	.LFB87:
 484:fltk-1.3.4-1/png/pngget.c **** #endif
 485:fltk-1.3.4-1/png/pngget.c **** 
 486:fltk-1.3.4-1/png/pngget.c **** #ifdef PNG_bKGD_SUPPORTED
 487:fltk-1.3.4-1/png/pngget.c **** png_uint_32 PNGAPI
 488:fltk-1.3.4-1/png/pngget.c **** png_get_bKGD(png_const_structrp png_ptr, png_inforp info_ptr,
 489:fltk-1.3.4-1/png/pngget.c ****    png_color_16p *background)
 490:fltk-1.3.4-1/png/pngget.c **** {
 1321              		.loc 1 490 0
 1322              		.cfi_startproc
 1323              	.LVL73:
 491:fltk-1.3.4-1/png/pngget.c ****    if (png_ptr != NULL && info_ptr != NULL &&
 1324              		.loc 1 491 0
 1325 0000 4885FF   		testq	%rdi, %rdi
 1326 0003 7423     		je	.L302
 1327 0005 4885F6   		testq	%rsi, %rsi
 1328 0008 741E     		je	.L302
 492:fltk-1.3.4-1/png/pngget.c ****        (info_ptr->valid & PNG_INFO_bKGD) != 0 &&
 1329              		.loc 1 492 0 discriminator 1
 1330 000a F6460820 		testb	$32, 8(%rsi)
 1331 000e 7418     		je	.L302
 1332 0010 4885D2   		testq	%rdx, %rdx
 1333 0013 7413     		je	.L302
 493:fltk-1.3.4-1/png/pngget.c ****        background != NULL)
 494:fltk-1.3.4-1/png/pngget.c ****    {
 495:fltk-1.3.4-1/png/pngget.c ****       png_debug1(1, "in %s retrieval function", "bKGD");
 496:fltk-1.3.4-1/png/pngget.c **** 
 497:fltk-1.3.4-1/png/pngget.c ****       *background = &(info_ptr->background);
 1334              		.loc 1 497 0
 1335 0015 4881C6CA 		addq	$202, %rsi
 1335      000000
 1336              	.LVL74:
 498:fltk-1.3.4-1/png/pngget.c ****       return (PNG_INFO_bKGD);
 1337              		.loc 1 498 0
 1338 001c B8200000 		movl	$32, %eax
 1338      00
 497:fltk-1.3.4-1/png/pngget.c ****       return (PNG_INFO_bKGD);
 1339              		.loc 1 497 0
 1340 0021 488932   		movq	%rsi, (%rdx)
 1341              		.loc 1 498 0
 1342 0024 C3       		ret
 1343              	.LVL75:
 1344              		.p2align 4,,10
 1345 0025 0F1F00   		.p2align 3
 1346              	.L302:
 499:fltk-1.3.4-1/png/pngget.c ****    }
 500:fltk-1.3.4-1/png/pngget.c **** 
 501:fltk-1.3.4-1/png/pngget.c ****    return (0);
 1347              		.loc 1 501 0
 1348 0028 31C0     		xorl	%eax, %eax
 502:fltk-1.3.4-1/png/pngget.c **** }
 1349              		.loc 1 502 0
 1350 002a C3       		ret
 1351              		.cfi_endproc
 1352              	.LFE87:
 1354              		.section	.text.unlikely.png_get_bKGD
 1355              	.LCOLDE34:
 1356              		.section	.text.png_get_bKGD
 1357              	.LHOTE34:
 1358              		.section	.text.unlikely.png_get_cHRM,"ax",@progbits
 1359              	.LCOLDB36:
 1360              		.section	.text.png_get_cHRM,"ax",@progbits
 1361              	.LHOTB36:
 1362              		.p2align 4,,15
 1363              		.globl	png_get_cHRM
 1365              	png_get_cHRM:
 1366              	.LFB88:
 503:fltk-1.3.4-1/png/pngget.c **** #endif
 504:fltk-1.3.4-1/png/pngget.c **** 
 505:fltk-1.3.4-1/png/pngget.c **** #ifdef PNG_cHRM_SUPPORTED
 506:fltk-1.3.4-1/png/pngget.c **** /* The XYZ APIs were added in 1.5.5 to take advantage of the code added at the
 507:fltk-1.3.4-1/png/pngget.c ****  * same time to correct the rgb grayscale coefficient defaults obtained from the
 508:fltk-1.3.4-1/png/pngget.c ****  * cHRM chunk in 1.5.4
 509:fltk-1.3.4-1/png/pngget.c ****  */
 510:fltk-1.3.4-1/png/pngget.c **** #  ifdef PNG_FLOATING_POINT_SUPPORTED
 511:fltk-1.3.4-1/png/pngget.c **** png_uint_32 PNGAPI
 512:fltk-1.3.4-1/png/pngget.c **** png_get_cHRM(png_const_structrp png_ptr, png_const_inforp info_ptr,
 513:fltk-1.3.4-1/png/pngget.c ****     double *white_x, double *white_y, double *red_x, double *red_y,
 514:fltk-1.3.4-1/png/pngget.c ****     double *green_x, double *green_y, double *blue_x, double *blue_y)
 515:fltk-1.3.4-1/png/pngget.c **** {
 1367              		.loc 1 515 0
 1368              		.cfi_startproc
 1369              	.LVL76:
 516:fltk-1.3.4-1/png/pngget.c ****    /* Quiet API change: this code used to only return the end points if a cHRM
 517:fltk-1.3.4-1/png/pngget.c ****     * chunk was present, but the end points can also come from iCCP or sRGB
 518:fltk-1.3.4-1/png/pngget.c ****     * chunks, so in 1.6.0 the png_get_ APIs return the end points regardless and
 519:fltk-1.3.4-1/png/pngget.c ****     * the png_set_ APIs merely check that set end points are mutually
 520:fltk-1.3.4-1/png/pngget.c ****     * consistent.
 521:fltk-1.3.4-1/png/pngget.c ****     */
 522:fltk-1.3.4-1/png/pngget.c ****    if (png_ptr != NULL && info_ptr != NULL &&
 523:fltk-1.3.4-1/png/pngget.c ****       (info_ptr->colorspace.flags & PNG_COLORSPACE_HAVE_ENDPOINTS) != 0)
 524:fltk-1.3.4-1/png/pngget.c ****    {
 525:fltk-1.3.4-1/png/pngget.c ****       png_debug1(1, "in %s retrieval function", "cHRM");
 526:fltk-1.3.4-1/png/pngget.c **** 
 527:fltk-1.3.4-1/png/pngget.c ****       if (white_x != NULL)
 528:fltk-1.3.4-1/png/pngget.c ****          *white_x = png_float(png_ptr,
 529:fltk-1.3.4-1/png/pngget.c ****             info_ptr->colorspace.end_points_xy.whitex, "cHRM white X");
 530:fltk-1.3.4-1/png/pngget.c ****       if (white_y != NULL)
 531:fltk-1.3.4-1/png/pngget.c ****          *white_y = png_float(png_ptr,
 532:fltk-1.3.4-1/png/pngget.c ****             info_ptr->colorspace.end_points_xy.whitey, "cHRM white Y");
 533:fltk-1.3.4-1/png/pngget.c ****       if (red_x != NULL)
 534:fltk-1.3.4-1/png/pngget.c ****          *red_x = png_float(png_ptr, info_ptr->colorspace.end_points_xy.redx,
 535:fltk-1.3.4-1/png/pngget.c ****             "cHRM red X");
 536:fltk-1.3.4-1/png/pngget.c ****       if (red_y != NULL)
 537:fltk-1.3.4-1/png/pngget.c ****          *red_y = png_float(png_ptr, info_ptr->colorspace.end_points_xy.redy,
 538:fltk-1.3.4-1/png/pngget.c ****             "cHRM red Y");
 539:fltk-1.3.4-1/png/pngget.c ****       if (green_x != NULL)
 540:fltk-1.3.4-1/png/pngget.c ****          *green_x = png_float(png_ptr,
 541:fltk-1.3.4-1/png/pngget.c ****             info_ptr->colorspace.end_points_xy.greenx, "cHRM green X");
 542:fltk-1.3.4-1/png/pngget.c ****       if (green_y != NULL)
 543:fltk-1.3.4-1/png/pngget.c ****          *green_y = png_float(png_ptr,
 544:fltk-1.3.4-1/png/pngget.c ****             info_ptr->colorspace.end_points_xy.greeny, "cHRM green Y");
 545:fltk-1.3.4-1/png/pngget.c ****       if (blue_x != NULL)
 546:fltk-1.3.4-1/png/pngget.c ****          *blue_x = png_float(png_ptr, info_ptr->colorspace.end_points_xy.bluex,
 547:fltk-1.3.4-1/png/pngget.c ****             "cHRM blue X");
 548:fltk-1.3.4-1/png/pngget.c ****       if (blue_y != NULL)
 549:fltk-1.3.4-1/png/pngget.c ****          *blue_y = png_float(png_ptr, info_ptr->colorspace.end_points_xy.bluey,
 550:fltk-1.3.4-1/png/pngget.c ****             "cHRM blue Y");
 551:fltk-1.3.4-1/png/pngget.c ****       return (PNG_INFO_cHRM);
 552:fltk-1.3.4-1/png/pngget.c ****    }
 553:fltk-1.3.4-1/png/pngget.c **** 
 554:fltk-1.3.4-1/png/pngget.c ****    return (0);
 1370              		.loc 1 554 0
 1371 0000 31C0     		xorl	%eax, %eax
 522:fltk-1.3.4-1/png/pngget.c ****       (info_ptr->colorspace.flags & PNG_COLORSPACE_HAVE_ENDPOINTS) != 0)
 1372              		.loc 1 522 0
 1373 0002 4885FF   		testq	%rdi, %rdi
 1374 0005 0F842501 		je	.L324
 1374      0000
 1375 000b 4885F6   		testq	%rsi, %rsi
 1376 000e 0F841C01 		je	.L324
 1376      0000
 522:fltk-1.3.4-1/png/pngget.c ****       (info_ptr->colorspace.flags & PNG_COLORSPACE_HAVE_ENDPOINTS) != 0)
 1377              		.loc 1 522 0 is_stmt 0 discriminator 1
 1378 0014 F6467E02 		testb	$2, 126(%rsi)
 1379 0018 0F840701 		je	.L316
 1379      0000
 527:fltk-1.3.4-1/png/pngget.c ****          *white_x = png_float(png_ptr,
 1380              		.loc 1 527 0 is_stmt 1
 1381 001e 4885D2   		testq	%rdx, %rdx
 1382 0021 7415     		je	.L317
 528:fltk-1.3.4-1/png/pngget.c ****             info_ptr->colorspace.end_points_xy.whitex, "cHRM white X");
 1383              		.loc 1 528 0
 1384 0023 660FEFC0 		pxor	%xmm0, %xmm0
 1385 0027 F20F2A46 		cvtsi2sd	80(%rsi), %xmm0
 1385      50
 1386 002c F20F5905 		mulsd	.LC35(%rip), %xmm0
 1386      00000000 
 1387 0034 F20F1102 		movsd	%xmm0, (%rdx)
 1388              	.L317:
 530:fltk-1.3.4-1/png/pngget.c ****          *white_y = png_float(png_ptr,
 1389              		.loc 1 530 0
 1390 0038 4885C9   		testq	%rcx, %rcx
 1391 003b 7415     		je	.L318
 531:fltk-1.3.4-1/png/pngget.c ****             info_ptr->colorspace.end_points_xy.whitey, "cHRM white Y");
 1392              		.loc 1 531 0
 1393 003d 660FEFC0 		pxor	%xmm0, %xmm0
 1394 0041 F20F2A46 		cvtsi2sd	84(%rsi), %xmm0
 1394      54
 1395 0046 F20F5905 		mulsd	.LC35(%rip), %xmm0
 1395      00000000 
 1396 004e F20F1101 		movsd	%xmm0, (%rcx)
 1397              	.L318:
 533:fltk-1.3.4-1/png/pngget.c ****          *red_x = png_float(png_ptr, info_ptr->colorspace.end_points_xy.redx,
 1398              		.loc 1 533 0
 1399 0052 4D85C0   		testq	%r8, %r8
 1400 0055 7416     		je	.L319
 534:fltk-1.3.4-1/png/pngget.c ****             "cHRM red X");
 1401              		.loc 1 534 0
 1402 0057 660FEFC0 		pxor	%xmm0, %xmm0
 1403 005b F20F2A46 		cvtsi2sd	56(%rsi), %xmm0
 1403      38
 1404 0060 F20F5905 		mulsd	.LC35(%rip), %xmm0
 1404      00000000 
 1405 0068 F2410F11 		movsd	%xmm0, (%r8)
 1405      00
 1406              	.L319:
 536:fltk-1.3.4-1/png/pngget.c ****          *red_y = png_float(png_ptr, info_ptr->colorspace.end_points_xy.redy,
 1407              		.loc 1 536 0
 1408 006d 4D85C9   		testq	%r9, %r9
 1409 0070 7416     		je	.L320
 537:fltk-1.3.4-1/png/pngget.c ****             "cHRM red Y");
 1410              		.loc 1 537 0
 1411 0072 660FEFC0 		pxor	%xmm0, %xmm0
 1412 0076 F20F2A46 		cvtsi2sd	60(%rsi), %xmm0
 1412      3C
 1413 007b F20F5905 		mulsd	.LC35(%rip), %xmm0
 1413      00000000 
 1414 0083 F2410F11 		movsd	%xmm0, (%r9)
 1414      01
 1415              	.L320:
 539:fltk-1.3.4-1/png/pngget.c ****          *green_x = png_float(png_ptr,
 1416              		.loc 1 539 0
 1417 0088 48837C24 		cmpq	$0, 8(%rsp)
 1417      0800
 1418 008e 741A     		je	.L321
 540:fltk-1.3.4-1/png/pngget.c ****             info_ptr->colorspace.end_points_xy.greenx, "cHRM green X");
 1419              		.loc 1 540 0
 1420 0090 660FEFC0 		pxor	%xmm0, %xmm0
 1421 0094 488B4424 		movq	8(%rsp), %rax
 1421      08
 1422 0099 F20F2A46 		cvtsi2sd	64(%rsi), %xmm0
 1422      40
 1423 009e F20F5905 		mulsd	.LC35(%rip), %xmm0
 1423      00000000 
 1424 00a6 F20F1100 		movsd	%xmm0, (%rax)
 1425              	.L321:
 542:fltk-1.3.4-1/png/pngget.c ****          *green_y = png_float(png_ptr,
 1426              		.loc 1 542 0
 1427 00aa 48837C24 		cmpq	$0, 16(%rsp)
 1427      1000
 1428 00b0 741A     		je	.L322
 543:fltk-1.3.4-1/png/pngget.c ****             info_ptr->colorspace.end_points_xy.greeny, "cHRM green Y");
 1429              		.loc 1 543 0
 1430 00b2 660FEFC0 		pxor	%xmm0, %xmm0
 1431 00b6 488B4424 		movq	16(%rsp), %rax
 1431      10
 1432 00bb F20F2A46 		cvtsi2sd	68(%rsi), %xmm0
 1432      44
 1433 00c0 F20F5905 		mulsd	.LC35(%rip), %xmm0
 1433      00000000 
 1434 00c8 F20F1100 		movsd	%xmm0, (%rax)
 1435              	.L322:
 545:fltk-1.3.4-1/png/pngget.c ****          *blue_x = png_float(png_ptr, info_ptr->colorspace.end_points_xy.bluex,
 1436              		.loc 1 545 0
 1437 00cc 48837C24 		cmpq	$0, 24(%rsp)
 1437      1800
 1438 00d2 741A     		je	.L323
 546:fltk-1.3.4-1/png/pngget.c ****             "cHRM blue X");
 1439              		.loc 1 546 0
 1440 00d4 660FEFC0 		pxor	%xmm0, %xmm0
 1441 00d8 488B4424 		movq	24(%rsp), %rax
 1441      18
 1442 00dd F20F2A46 		cvtsi2sd	72(%rsi), %xmm0
 1442      48
 1443 00e2 F20F5905 		mulsd	.LC35(%rip), %xmm0
 1443      00000000 
 1444 00ea F20F1100 		movsd	%xmm0, (%rax)
 1445              	.L323:
 548:fltk-1.3.4-1/png/pngget.c ****          *blue_y = png_float(png_ptr, info_ptr->colorspace.end_points_xy.bluey,
 1446              		.loc 1 548 0
 1447 00ee 48837C24 		cmpq	$0, 32(%rsp)
 1447      2000
 1448 00f4 742A     		je	.L326
 549:fltk-1.3.4-1/png/pngget.c ****             "cHRM blue Y");
 1449              		.loc 1 549 0
 1450 00f6 660FEFC0 		pxor	%xmm0, %xmm0
 1451 00fa 488B4424 		movq	32(%rsp), %rax
 1451      20
 1452 00ff F20F2A46 		cvtsi2sd	76(%rsi), %xmm0
 1452      4C
 1453 0104 F20F5905 		mulsd	.LC35(%rip), %xmm0
 1453      00000000 
 1454 010c F20F1100 		movsd	%xmm0, (%rax)
 551:fltk-1.3.4-1/png/pngget.c ****    }
 1455              		.loc 1 551 0
 1456 0110 B8040000 		movl	$4, %eax
 1456      00
 1457 0115 C3       		ret
 1458 0116 662E0F1F 		.p2align 4,,10
 1458      84000000 
 1458      0000
 1459              		.p2align 3
 1460              	.L326:
 1461 0120 B8040000 		movl	$4, %eax
 1461      00
 1462              	.L316:
 555:fltk-1.3.4-1/png/pngget.c **** }
 1463              		.loc 1 555 0
 1464 0125 F3C3     		rep ret
 1465 0127 660F1F84 		.p2align 4,,10
 1465      00000000 
 1465      00
 1466              		.p2align 3
 1467              	.L324:
 1468 0130 F3C3     		rep ret
 1469              		.cfi_endproc
 1470              	.LFE88:
 1472              		.section	.text.unlikely.png_get_cHRM
 1473              	.LCOLDE36:
 1474              		.section	.text.png_get_cHRM
 1475              	.LHOTE36:
 1476              		.section	.text.unlikely.png_get_cHRM_XYZ,"ax",@progbits
 1477              	.LCOLDB37:
 1478              		.section	.text.png_get_cHRM_XYZ,"ax",@progbits
 1479              	.LHOTB37:
 1480              		.p2align 4,,15
 1481              		.globl	png_get_cHRM_XYZ
 1483              	png_get_cHRM_XYZ:
 1484              	.LFB89:
 556:fltk-1.3.4-1/png/pngget.c **** 
 557:fltk-1.3.4-1/png/pngget.c **** png_uint_32 PNGAPI
 558:fltk-1.3.4-1/png/pngget.c **** png_get_cHRM_XYZ(png_const_structrp png_ptr, png_const_inforp info_ptr,
 559:fltk-1.3.4-1/png/pngget.c ****    double *red_X, double *red_Y, double *red_Z, double *green_X,
 560:fltk-1.3.4-1/png/pngget.c ****    double *green_Y, double *green_Z, double *blue_X, double *blue_Y,
 561:fltk-1.3.4-1/png/pngget.c ****    double *blue_Z)
 562:fltk-1.3.4-1/png/pngget.c **** {
 1485              		.loc 1 562 0
 1486              		.cfi_startproc
 1487              	.LVL77:
 563:fltk-1.3.4-1/png/pngget.c ****    if (png_ptr != NULL && info_ptr != NULL &&
 564:fltk-1.3.4-1/png/pngget.c ****       (info_ptr->colorspace.flags & PNG_COLORSPACE_HAVE_ENDPOINTS) != 0)
 565:fltk-1.3.4-1/png/pngget.c ****    {
 566:fltk-1.3.4-1/png/pngget.c ****       png_debug1(1, "in %s retrieval function", "cHRM_XYZ(float)");
 567:fltk-1.3.4-1/png/pngget.c **** 
 568:fltk-1.3.4-1/png/pngget.c ****       if (red_X != NULL)
 569:fltk-1.3.4-1/png/pngget.c ****          *red_X = png_float(png_ptr, info_ptr->colorspace.end_points_XYZ.red_X,
 570:fltk-1.3.4-1/png/pngget.c ****             "cHRM red X");
 571:fltk-1.3.4-1/png/pngget.c ****       if (red_Y != NULL)
 572:fltk-1.3.4-1/png/pngget.c ****          *red_Y = png_float(png_ptr, info_ptr->colorspace.end_points_XYZ.red_Y,
 573:fltk-1.3.4-1/png/pngget.c ****             "cHRM red Y");
 574:fltk-1.3.4-1/png/pngget.c ****       if (red_Z != NULL)
 575:fltk-1.3.4-1/png/pngget.c ****          *red_Z = png_float(png_ptr, info_ptr->colorspace.end_points_XYZ.red_Z,
 576:fltk-1.3.4-1/png/pngget.c ****             "cHRM red Z");
 577:fltk-1.3.4-1/png/pngget.c ****       if (green_X != NULL)
 578:fltk-1.3.4-1/png/pngget.c ****          *green_X = png_float(png_ptr,
 579:fltk-1.3.4-1/png/pngget.c ****             info_ptr->colorspace.end_points_XYZ.green_X, "cHRM green X");
 580:fltk-1.3.4-1/png/pngget.c ****       if (green_Y != NULL)
 581:fltk-1.3.4-1/png/pngget.c ****          *green_Y = png_float(png_ptr,
 582:fltk-1.3.4-1/png/pngget.c ****             info_ptr->colorspace.end_points_XYZ.green_Y, "cHRM green Y");
 583:fltk-1.3.4-1/png/pngget.c ****       if (green_Z != NULL)
 584:fltk-1.3.4-1/png/pngget.c ****          *green_Z = png_float(png_ptr,
 585:fltk-1.3.4-1/png/pngget.c ****             info_ptr->colorspace.end_points_XYZ.green_Z, "cHRM green Z");
 586:fltk-1.3.4-1/png/pngget.c ****       if (blue_X != NULL)
 587:fltk-1.3.4-1/png/pngget.c ****          *blue_X = png_float(png_ptr,
 588:fltk-1.3.4-1/png/pngget.c ****             info_ptr->colorspace.end_points_XYZ.blue_X, "cHRM blue X");
 589:fltk-1.3.4-1/png/pngget.c ****       if (blue_Y != NULL)
 590:fltk-1.3.4-1/png/pngget.c ****          *blue_Y = png_float(png_ptr,
 591:fltk-1.3.4-1/png/pngget.c ****             info_ptr->colorspace.end_points_XYZ.blue_Y, "cHRM blue Y");
 592:fltk-1.3.4-1/png/pngget.c ****       if (blue_Z != NULL)
 593:fltk-1.3.4-1/png/pngget.c ****          *blue_Z = png_float(png_ptr,
 594:fltk-1.3.4-1/png/pngget.c ****             info_ptr->colorspace.end_points_XYZ.blue_Z, "cHRM blue Z");
 595:fltk-1.3.4-1/png/pngget.c ****       return (PNG_INFO_cHRM);
 596:fltk-1.3.4-1/png/pngget.c ****    }
 597:fltk-1.3.4-1/png/pngget.c **** 
 598:fltk-1.3.4-1/png/pngget.c ****    return (0);
 1488              		.loc 1 598 0
 1489 0000 31C0     		xorl	%eax, %eax
 563:fltk-1.3.4-1/png/pngget.c ****    if (png_ptr != NULL && info_ptr != NULL &&
 1490              		.loc 1 563 0
 1491 0002 4885FF   		testq	%rdi, %rdi
 1492 0005 0F844501 		je	.L365
 1492      0000
 1493 000b 4885F6   		testq	%rsi, %rsi
 1494 000e 0F843C01 		je	.L365
 1494      0000
 563:fltk-1.3.4-1/png/pngget.c ****    if (png_ptr != NULL && info_ptr != NULL &&
 1495              		.loc 1 563 0 is_stmt 0 discriminator 1
 1496 0014 F6467E02 		testb	$2, 126(%rsi)
 1497 0018 0F842701 		je	.L356
 1497      0000
 568:fltk-1.3.4-1/png/pngget.c ****          *red_X = png_float(png_ptr, info_ptr->colorspace.end_points_XYZ.red_X,
 1498              		.loc 1 568 0 is_stmt 1
 1499 001e 4885D2   		testq	%rdx, %rdx
 1500 0021 7415     		je	.L357
 569:fltk-1.3.4-1/png/pngget.c ****             "cHRM red X");
 1501              		.loc 1 569 0
 1502 0023 660FEFC0 		pxor	%xmm0, %xmm0
 1503 0027 F20F2A46 		cvtsi2sd	88(%rsi), %xmm0
 1503      58
 1504 002c F20F5905 		mulsd	.LC35(%rip), %xmm0
 1504      00000000 
 1505 0034 F20F1102 		movsd	%xmm0, (%rdx)
 1506              	.L357:
 571:fltk-1.3.4-1/png/pngget.c ****          *red_Y = png_float(png_ptr, info_ptr->colorspace.end_points_XYZ.red_Y,
 1507              		.loc 1 571 0
 1508 0038 4885C9   		testq	%rcx, %rcx
 1509 003b 7415     		je	.L358
 572:fltk-1.3.4-1/png/pngget.c ****             "cHRM red Y");
 1510              		.loc 1 572 0
 1511 003d 660FEFC0 		pxor	%xmm0, %xmm0
 1512 0041 F20F2A46 		cvtsi2sd	92(%rsi), %xmm0
 1512      5C
 1513 0046 F20F5905 		mulsd	.LC35(%rip), %xmm0
 1513      00000000 
 1514 004e F20F1101 		movsd	%xmm0, (%rcx)
 1515              	.L358:
 574:fltk-1.3.4-1/png/pngget.c ****          *red_Z = png_float(png_ptr, info_ptr->colorspace.end_points_XYZ.red_Z,
 1516              		.loc 1 574 0
 1517 0052 4D85C0   		testq	%r8, %r8
 1518 0055 7416     		je	.L359
 575:fltk-1.3.4-1/png/pngget.c ****             "cHRM red Z");
 1519              		.loc 1 575 0
 1520 0057 660FEFC0 		pxor	%xmm0, %xmm0
 1521 005b F20F2A46 		cvtsi2sd	96(%rsi), %xmm0
 1521      60
 1522 0060 F20F5905 		mulsd	.LC35(%rip), %xmm0
 1522      00000000 
 1523 0068 F2410F11 		movsd	%xmm0, (%r8)
 1523      00
 1524              	.L359:
 577:fltk-1.3.4-1/png/pngget.c ****          *green_X = png_float(png_ptr,
 1525              		.loc 1 577 0
 1526 006d 4D85C9   		testq	%r9, %r9
 1527 0070 7416     		je	.L360
 578:fltk-1.3.4-1/png/pngget.c ****             info_ptr->colorspace.end_points_XYZ.green_X, "cHRM green X");
 1528              		.loc 1 578 0
 1529 0072 660FEFC0 		pxor	%xmm0, %xmm0
 1530 0076 F20F2A46 		cvtsi2sd	100(%rsi), %xmm0
 1530      64
 1531 007b F20F5905 		mulsd	.LC35(%rip), %xmm0
 1531      00000000 
 1532 0083 F2410F11 		movsd	%xmm0, (%r9)
 1532      01
 1533              	.L360:
 580:fltk-1.3.4-1/png/pngget.c ****          *green_Y = png_float(png_ptr,
 1534              		.loc 1 580 0
 1535 0088 48837C24 		cmpq	$0, 8(%rsp)
 1535      0800
 1536 008e 741A     		je	.L361
 581:fltk-1.3.4-1/png/pngget.c ****             info_ptr->colorspace.end_points_XYZ.green_Y, "cHRM green Y");
 1537              		.loc 1 581 0
 1538 0090 660FEFC0 		pxor	%xmm0, %xmm0
 1539 0094 488B4424 		movq	8(%rsp), %rax
 1539      08
 1540 0099 F20F2A46 		cvtsi2sd	104(%rsi), %xmm0
 1540      68
 1541 009e F20F5905 		mulsd	.LC35(%rip), %xmm0
 1541      00000000 
 1542 00a6 F20F1100 		movsd	%xmm0, (%rax)
 1543              	.L361:
 583:fltk-1.3.4-1/png/pngget.c ****          *green_Z = png_float(png_ptr,
 1544              		.loc 1 583 0
 1545 00aa 48837C24 		cmpq	$0, 16(%rsp)
 1545      1000
 1546 00b0 741A     		je	.L362
 584:fltk-1.3.4-1/png/pngget.c ****             info_ptr->colorspace.end_points_XYZ.green_Z, "cHRM green Z");
 1547              		.loc 1 584 0
 1548 00b2 660FEFC0 		pxor	%xmm0, %xmm0
 1549 00b6 488B4424 		movq	16(%rsp), %rax
 1549      10
 1550 00bb F20F2A46 		cvtsi2sd	108(%rsi), %xmm0
 1550      6C
 1551 00c0 F20F5905 		mulsd	.LC35(%rip), %xmm0
 1551      00000000 
 1552 00c8 F20F1100 		movsd	%xmm0, (%rax)
 1553              	.L362:
 586:fltk-1.3.4-1/png/pngget.c ****          *blue_X = png_float(png_ptr,
 1554              		.loc 1 586 0
 1555 00cc 48837C24 		cmpq	$0, 24(%rsp)
 1555      1800
 1556 00d2 741A     		je	.L363
 587:fltk-1.3.4-1/png/pngget.c ****             info_ptr->colorspace.end_points_XYZ.blue_X, "cHRM blue X");
 1557              		.loc 1 587 0
 1558 00d4 660FEFC0 		pxor	%xmm0, %xmm0
 1559 00d8 488B4424 		movq	24(%rsp), %rax
 1559      18
 1560 00dd F20F2A46 		cvtsi2sd	112(%rsi), %xmm0
 1560      70
 1561 00e2 F20F5905 		mulsd	.LC35(%rip), %xmm0
 1561      00000000 
 1562 00ea F20F1100 		movsd	%xmm0, (%rax)
 1563              	.L363:
 589:fltk-1.3.4-1/png/pngget.c ****          *blue_Y = png_float(png_ptr,
 1564              		.loc 1 589 0
 1565 00ee 48837C24 		cmpq	$0, 32(%rsp)
 1565      2000
 1566 00f4 741A     		je	.L364
 590:fltk-1.3.4-1/png/pngget.c ****             info_ptr->colorspace.end_points_XYZ.blue_Y, "cHRM blue Y");
 1567              		.loc 1 590 0
 1568 00f6 660FEFC0 		pxor	%xmm0, %xmm0
 1569 00fa 488B4424 		movq	32(%rsp), %rax
 1569      20
 1570 00ff F20F2A46 		cvtsi2sd	116(%rsi), %xmm0
 1570      74
 1571 0104 F20F5905 		mulsd	.LC35(%rip), %xmm0
 1571      00000000 
 1572 010c F20F1100 		movsd	%xmm0, (%rax)
 1573              	.L364:
 592:fltk-1.3.4-1/png/pngget.c ****          *blue_Z = png_float(png_ptr,
 1574              		.loc 1 592 0
 1575 0110 48837C24 		cmpq	$0, 40(%rsp)
 1575      2800
 1576 0116 7428     		je	.L367
 593:fltk-1.3.4-1/png/pngget.c ****             info_ptr->colorspace.end_points_XYZ.blue_Z, "cHRM blue Z");
 1577              		.loc 1 593 0
 1578 0118 660FEFC0 		pxor	%xmm0, %xmm0
 1579 011c 488B4424 		movq	40(%rsp), %rax
 1579      28
 1580 0121 F20F2A46 		cvtsi2sd	120(%rsi), %xmm0
 1580      78
 1581 0126 F20F5905 		mulsd	.LC35(%rip), %xmm0
 1581      00000000 
 1582 012e F20F1100 		movsd	%xmm0, (%rax)
 595:fltk-1.3.4-1/png/pngget.c ****    }
 1583              		.loc 1 595 0
 1584 0132 B8040000 		movl	$4, %eax
 1584      00
 1585 0137 C3       		ret
 1586 0138 0F1F8400 		.p2align 4,,10
 1586      00000000 
 1587              		.p2align 3
 1588              	.L367:
 1589 0140 B8040000 		movl	$4, %eax
 1589      00
 1590              	.L356:
 599:fltk-1.3.4-1/png/pngget.c **** }
 1591              		.loc 1 599 0
 1592 0145 F3C3     		rep ret
 1593 0147 660F1F84 		.p2align 4,,10
 1593      00000000 
 1593      00
 1594              		.p2align 3
 1595              	.L365:
 1596 0150 F3C3     		rep ret
 1597              		.cfi_endproc
 1598              	.LFE89:
 1600              		.section	.text.unlikely.png_get_cHRM_XYZ
 1601              	.LCOLDE37:
 1602              		.section	.text.png_get_cHRM_XYZ
 1603              	.LHOTE37:
 1604              		.section	.text.unlikely.png_get_cHRM_XYZ_fixed,"ax",@progbits
 1605              	.LCOLDB38:
 1606              		.section	.text.png_get_cHRM_XYZ_fixed,"ax",@progbits
 1607              	.LHOTB38:
 1608              		.p2align 4,,15
 1609              		.globl	png_get_cHRM_XYZ_fixed
 1611              	png_get_cHRM_XYZ_fixed:
 1612              	.LFB90:
 600:fltk-1.3.4-1/png/pngget.c **** #  endif
 601:fltk-1.3.4-1/png/pngget.c **** 
 602:fltk-1.3.4-1/png/pngget.c **** #  ifdef PNG_FIXED_POINT_SUPPORTED
 603:fltk-1.3.4-1/png/pngget.c **** png_uint_32 PNGAPI
 604:fltk-1.3.4-1/png/pngget.c **** png_get_cHRM_XYZ_fixed(png_const_structrp png_ptr, png_const_inforp info_ptr,
 605:fltk-1.3.4-1/png/pngget.c ****     png_fixed_point *int_red_X, png_fixed_point *int_red_Y,
 606:fltk-1.3.4-1/png/pngget.c ****     png_fixed_point *int_red_Z, png_fixed_point *int_green_X,
 607:fltk-1.3.4-1/png/pngget.c ****     png_fixed_point *int_green_Y, png_fixed_point *int_green_Z,
 608:fltk-1.3.4-1/png/pngget.c ****     png_fixed_point *int_blue_X, png_fixed_point *int_blue_Y,
 609:fltk-1.3.4-1/png/pngget.c ****     png_fixed_point *int_blue_Z)
 610:fltk-1.3.4-1/png/pngget.c **** {
 1613              		.loc 1 610 0
 1614              		.cfi_startproc
 1615              	.LVL78:
 611:fltk-1.3.4-1/png/pngget.c ****    if (png_ptr != NULL && info_ptr != NULL &&
 612:fltk-1.3.4-1/png/pngget.c ****       (info_ptr->colorspace.flags & PNG_COLORSPACE_HAVE_ENDPOINTS) != 0)
 613:fltk-1.3.4-1/png/pngget.c ****    {
 614:fltk-1.3.4-1/png/pngget.c ****       png_debug1(1, "in %s retrieval function", "cHRM_XYZ");
 615:fltk-1.3.4-1/png/pngget.c **** 
 616:fltk-1.3.4-1/png/pngget.c ****       if (int_red_X != NULL)
 617:fltk-1.3.4-1/png/pngget.c ****          *int_red_X = info_ptr->colorspace.end_points_XYZ.red_X;
 618:fltk-1.3.4-1/png/pngget.c ****       if (int_red_Y != NULL)
 619:fltk-1.3.4-1/png/pngget.c ****          *int_red_Y = info_ptr->colorspace.end_points_XYZ.red_Y;
 620:fltk-1.3.4-1/png/pngget.c ****       if (int_red_Z != NULL)
 621:fltk-1.3.4-1/png/pngget.c ****          *int_red_Z = info_ptr->colorspace.end_points_XYZ.red_Z;
 622:fltk-1.3.4-1/png/pngget.c ****       if (int_green_X != NULL)
 623:fltk-1.3.4-1/png/pngget.c ****          *int_green_X = info_ptr->colorspace.end_points_XYZ.green_X;
 624:fltk-1.3.4-1/png/pngget.c ****       if (int_green_Y != NULL)
 625:fltk-1.3.4-1/png/pngget.c ****          *int_green_Y = info_ptr->colorspace.end_points_XYZ.green_Y;
 626:fltk-1.3.4-1/png/pngget.c ****       if (int_green_Z != NULL)
 627:fltk-1.3.4-1/png/pngget.c ****          *int_green_Z = info_ptr->colorspace.end_points_XYZ.green_Z;
 628:fltk-1.3.4-1/png/pngget.c ****       if (int_blue_X != NULL)
 629:fltk-1.3.4-1/png/pngget.c ****          *int_blue_X = info_ptr->colorspace.end_points_XYZ.blue_X;
 630:fltk-1.3.4-1/png/pngget.c ****       if (int_blue_Y != NULL)
 631:fltk-1.3.4-1/png/pngget.c ****          *int_blue_Y = info_ptr->colorspace.end_points_XYZ.blue_Y;
 632:fltk-1.3.4-1/png/pngget.c ****       if (int_blue_Z != NULL)
 633:fltk-1.3.4-1/png/pngget.c ****          *int_blue_Z = info_ptr->colorspace.end_points_XYZ.blue_Z;
 634:fltk-1.3.4-1/png/pngget.c ****       return (PNG_INFO_cHRM);
 635:fltk-1.3.4-1/png/pngget.c ****    }
 636:fltk-1.3.4-1/png/pngget.c **** 
 637:fltk-1.3.4-1/png/pngget.c ****    return (0);
 1616              		.loc 1 637 0
 1617 0000 31C0     		xorl	%eax, %eax
 611:fltk-1.3.4-1/png/pngget.c ****    if (png_ptr != NULL && info_ptr != NULL &&
 1618              		.loc 1 611 0
 1619 0002 4885FF   		testq	%rdi, %rdi
 1620 0005 0F84B500 		je	.L409
 1620      0000
 1621 000b 4885F6   		testq	%rsi, %rsi
 1622 000e 0F84AC00 		je	.L409
 1622      0000
 611:fltk-1.3.4-1/png/pngget.c ****    if (png_ptr != NULL && info_ptr != NULL &&
 1623              		.loc 1 611 0 is_stmt 0 discriminator 1
 1624 0014 F6467E02 		testb	$2, 126(%rsi)
 1625 0018 0F849700 		je	.L400
 1625      0000
 616:fltk-1.3.4-1/png/pngget.c ****          *int_red_X = info_ptr->colorspace.end_points_XYZ.red_X;
 1626              		.loc 1 616 0 is_stmt 1
 1627 001e 4885D2   		testq	%rdx, %rdx
 1628 0021 7405     		je	.L401
 617:fltk-1.3.4-1/png/pngget.c ****       if (int_red_Y != NULL)
 1629              		.loc 1 617 0
 1630 0023 8B4658   		movl	88(%rsi), %eax
 1631 0026 8902     		movl	%eax, (%rdx)
 1632              	.L401:
 618:fltk-1.3.4-1/png/pngget.c ****          *int_red_Y = info_ptr->colorspace.end_points_XYZ.red_Y;
 1633              		.loc 1 618 0
 1634 0028 4885C9   		testq	%rcx, %rcx
 1635 002b 7405     		je	.L402
 619:fltk-1.3.4-1/png/pngget.c ****       if (int_red_Z != NULL)
 1636              		.loc 1 619 0
 1637 002d 8B465C   		movl	92(%rsi), %eax
 1638 0030 8901     		movl	%eax, (%rcx)
 1639              	.L402:
 620:fltk-1.3.4-1/png/pngget.c ****          *int_red_Z = info_ptr->colorspace.end_points_XYZ.red_Z;
 1640              		.loc 1 620 0
 1641 0032 4D85C0   		testq	%r8, %r8
 1642 0035 7406     		je	.L403
 621:fltk-1.3.4-1/png/pngget.c ****       if (int_green_X != NULL)
 1643              		.loc 1 621 0
 1644 0037 8B4660   		movl	96(%rsi), %eax
 1645 003a 418900   		movl	%eax, (%r8)
 1646              	.L403:
 622:fltk-1.3.4-1/png/pngget.c ****          *int_green_X = info_ptr->colorspace.end_points_XYZ.green_X;
 1647              		.loc 1 622 0
 1648 003d 4D85C9   		testq	%r9, %r9
 1649 0040 7406     		je	.L404
 623:fltk-1.3.4-1/png/pngget.c ****       if (int_green_Y != NULL)
 1650              		.loc 1 623 0
 1651 0042 8B4664   		movl	100(%rsi), %eax
 1652 0045 418901   		movl	%eax, (%r9)
 1653              	.L404:
 624:fltk-1.3.4-1/png/pngget.c ****          *int_green_Y = info_ptr->colorspace.end_points_XYZ.green_Y;
 1654              		.loc 1 624 0
 1655 0048 48837C24 		cmpq	$0, 8(%rsp)
 1655      0800
 1656 004e 740A     		je	.L405
 625:fltk-1.3.4-1/png/pngget.c ****       if (int_green_Z != NULL)
 1657              		.loc 1 625 0
 1658 0050 8B4668   		movl	104(%rsi), %eax
 1659 0053 488B5424 		movq	8(%rsp), %rdx
 1659      08
 1660              	.LVL79:
 1661 0058 8902     		movl	%eax, (%rdx)
 1662              	.L405:
 626:fltk-1.3.4-1/png/pngget.c ****          *int_green_Z = info_ptr->colorspace.end_points_XYZ.green_Z;
 1663              		.loc 1 626 0
 1664 005a 48837C24 		cmpq	$0, 16(%rsp)
 1664      1000
 1665 0060 740A     		je	.L406
 627:fltk-1.3.4-1/png/pngget.c ****       if (int_blue_X != NULL)
 1666              		.loc 1 627 0
 1667 0062 8B466C   		movl	108(%rsi), %eax
 1668 0065 488B4C24 		movq	16(%rsp), %rcx
 1668      10
 1669              	.LVL80:
 1670 006a 8901     		movl	%eax, (%rcx)
 1671              	.L406:
 628:fltk-1.3.4-1/png/pngget.c ****          *int_blue_X = info_ptr->colorspace.end_points_XYZ.blue_X;
 1672              		.loc 1 628 0
 1673 006c 48837C24 		cmpq	$0, 24(%rsp)
 1673      1800
 1674 0072 740A     		je	.L407
 629:fltk-1.3.4-1/png/pngget.c ****       if (int_blue_Y != NULL)
 1675              		.loc 1 629 0
 1676 0074 8B4670   		movl	112(%rsi), %eax
 1677 0077 488B7C24 		movq	24(%rsp), %rdi
 1677      18
 1678              	.LVL81:
 1679 007c 8907     		movl	%eax, (%rdi)
 1680              	.L407:
 630:fltk-1.3.4-1/png/pngget.c ****          *int_blue_Y = info_ptr->colorspace.end_points_XYZ.blue_Y;
 1681              		.loc 1 630 0
 1682 007e 48837C24 		cmpq	$0, 32(%rsp)
 1682      2000
 1683 0084 740A     		je	.L408
 631:fltk-1.3.4-1/png/pngget.c ****       if (int_blue_Z != NULL)
 1684              		.loc 1 631 0
 1685 0086 8B4674   		movl	116(%rsi), %eax
 1686 0089 488B5424 		movq	32(%rsp), %rdx
 1686      20
 1687 008e 8902     		movl	%eax, (%rdx)
 1688              	.L408:
 632:fltk-1.3.4-1/png/pngget.c ****          *int_blue_Z = info_ptr->colorspace.end_points_XYZ.blue_Z;
 1689              		.loc 1 632 0
 1690 0090 48837C24 		cmpq	$0, 40(%rsp)
 1690      2800
 1691 0096 7418     		je	.L411
 633:fltk-1.3.4-1/png/pngget.c ****       return (PNG_INFO_cHRM);
 1692              		.loc 1 633 0
 1693 0098 8B4678   		movl	120(%rsi), %eax
 1694 009b 488B4C24 		movq	40(%rsp), %rcx
 1694      28
 1695 00a0 8901     		movl	%eax, (%rcx)
 634:fltk-1.3.4-1/png/pngget.c ****    }
 1696              		.loc 1 634 0
 1697 00a2 B8040000 		movl	$4, %eax
 1697      00
 1698 00a7 C3       		ret
 1699 00a8 0F1F8400 		.p2align 4,,10
 1699      00000000 
 1700              		.p2align 3
 1701              	.L411:
 1702 00b0 B8040000 		movl	$4, %eax
 1702      00
 1703              	.L400:
 638:fltk-1.3.4-1/png/pngget.c **** }
 1704              		.loc 1 638 0
 1705 00b5 F3C3     		rep ret
 1706              	.LVL82:
 1707 00b7 660F1F84 		.p2align 4,,10
 1707      00000000 
 1707      00
 1708              		.p2align 3
 1709              	.L409:
 1710 00c0 F3C3     		rep ret
 1711              		.cfi_endproc
 1712              	.LFE90:
 1714              		.section	.text.unlikely.png_get_cHRM_XYZ_fixed
 1715              	.LCOLDE38:
 1716              		.section	.text.png_get_cHRM_XYZ_fixed
 1717              	.LHOTE38:
 1718              		.section	.text.unlikely.png_get_cHRM_fixed,"ax",@progbits
 1719              	.LCOLDB39:
 1720              		.section	.text.png_get_cHRM_fixed,"ax",@progbits
 1721              	.LHOTB39:
 1722              		.p2align 4,,15
 1723              		.globl	png_get_cHRM_fixed
 1725              	png_get_cHRM_fixed:
 1726              	.LFB91:
 639:fltk-1.3.4-1/png/pngget.c **** 
 640:fltk-1.3.4-1/png/pngget.c **** png_uint_32 PNGAPI
 641:fltk-1.3.4-1/png/pngget.c **** png_get_cHRM_fixed(png_const_structrp png_ptr, png_const_inforp info_ptr,
 642:fltk-1.3.4-1/png/pngget.c ****     png_fixed_point *white_x, png_fixed_point *white_y, png_fixed_point *red_x,
 643:fltk-1.3.4-1/png/pngget.c ****     png_fixed_point *red_y, png_fixed_point *green_x, png_fixed_point *green_y,
 644:fltk-1.3.4-1/png/pngget.c ****     png_fixed_point *blue_x, png_fixed_point *blue_y)
 645:fltk-1.3.4-1/png/pngget.c **** {
 1727              		.loc 1 645 0
 1728              		.cfi_startproc
 1729              	.LVL83:
 646:fltk-1.3.4-1/png/pngget.c ****    png_debug1(1, "in %s retrieval function", "cHRM");
 647:fltk-1.3.4-1/png/pngget.c **** 
 648:fltk-1.3.4-1/png/pngget.c ****    if (png_ptr != NULL && info_ptr != NULL &&
 649:fltk-1.3.4-1/png/pngget.c ****       (info_ptr->colorspace.flags & PNG_COLORSPACE_HAVE_ENDPOINTS) != 0)
 650:fltk-1.3.4-1/png/pngget.c ****    {
 651:fltk-1.3.4-1/png/pngget.c ****       if (white_x != NULL)
 652:fltk-1.3.4-1/png/pngget.c ****          *white_x = info_ptr->colorspace.end_points_xy.whitex;
 653:fltk-1.3.4-1/png/pngget.c ****       if (white_y != NULL)
 654:fltk-1.3.4-1/png/pngget.c ****          *white_y = info_ptr->colorspace.end_points_xy.whitey;
 655:fltk-1.3.4-1/png/pngget.c ****       if (red_x != NULL)
 656:fltk-1.3.4-1/png/pngget.c ****          *red_x = info_ptr->colorspace.end_points_xy.redx;
 657:fltk-1.3.4-1/png/pngget.c ****       if (red_y != NULL)
 658:fltk-1.3.4-1/png/pngget.c ****          *red_y = info_ptr->colorspace.end_points_xy.redy;
 659:fltk-1.3.4-1/png/pngget.c ****       if (green_x != NULL)
 660:fltk-1.3.4-1/png/pngget.c ****          *green_x = info_ptr->colorspace.end_points_xy.greenx;
 661:fltk-1.3.4-1/png/pngget.c ****       if (green_y != NULL)
 662:fltk-1.3.4-1/png/pngget.c ****          *green_y = info_ptr->colorspace.end_points_xy.greeny;
 663:fltk-1.3.4-1/png/pngget.c ****       if (blue_x != NULL)
 664:fltk-1.3.4-1/png/pngget.c ****          *blue_x = info_ptr->colorspace.end_points_xy.bluex;
 665:fltk-1.3.4-1/png/pngget.c ****       if (blue_y != NULL)
 666:fltk-1.3.4-1/png/pngget.c ****          *blue_y = info_ptr->colorspace.end_points_xy.bluey;
 667:fltk-1.3.4-1/png/pngget.c ****       return (PNG_INFO_cHRM);
 668:fltk-1.3.4-1/png/pngget.c ****    }
 669:fltk-1.3.4-1/png/pngget.c **** 
 670:fltk-1.3.4-1/png/pngget.c ****    return (0);
 1730              		.loc 1 670 0
 1731 0000 31C0     		xorl	%eax, %eax
 648:fltk-1.3.4-1/png/pngget.c ****       (info_ptr->colorspace.flags & PNG_COLORSPACE_HAVE_ENDPOINTS) != 0)
 1732              		.loc 1 648 0
 1733 0002 4885FF   		testq	%rdi, %rdi
 1734 0005 0F84A500 		je	.L452
 1734      0000
 1735 000b 4885F6   		testq	%rsi, %rsi
 1736 000e 0F849C00 		je	.L452
 1736      0000
 648:fltk-1.3.4-1/png/pngget.c ****       (info_ptr->colorspace.flags & PNG_COLORSPACE_HAVE_ENDPOINTS) != 0)
 1737              		.loc 1 648 0 is_stmt 0 discriminator 1
 1738 0014 F6467E02 		testb	$2, 126(%rsi)
 1739 0018 0F848700 		je	.L444
 1739      0000
 651:fltk-1.3.4-1/png/pngget.c ****          *white_x = info_ptr->colorspace.end_points_xy.whitex;
 1740              		.loc 1 651 0 is_stmt 1
 1741 001e 4885D2   		testq	%rdx, %rdx
 1742 0021 7405     		je	.L445
 652:fltk-1.3.4-1/png/pngget.c ****       if (white_y != NULL)
 1743              		.loc 1 652 0
 1744 0023 8B4650   		movl	80(%rsi), %eax
 1745 0026 8902     		movl	%eax, (%rdx)
 1746              	.L445:
 653:fltk-1.3.4-1/png/pngget.c ****          *white_y = info_ptr->colorspace.end_points_xy.whitey;
 1747              		.loc 1 653 0
 1748 0028 4885C9   		testq	%rcx, %rcx
 1749 002b 7405     		je	.L446
 654:fltk-1.3.4-1/png/pngget.c ****       if (red_x != NULL)
 1750              		.loc 1 654 0
 1751 002d 8B4654   		movl	84(%rsi), %eax
 1752 0030 8901     		movl	%eax, (%rcx)
 1753              	.L446:
 655:fltk-1.3.4-1/png/pngget.c ****          *red_x = info_ptr->colorspace.end_points_xy.redx;
 1754              		.loc 1 655 0
 1755 0032 4D85C0   		testq	%r8, %r8
 1756 0035 7406     		je	.L447
 656:fltk-1.3.4-1/png/pngget.c ****       if (red_y != NULL)
 1757              		.loc 1 656 0
 1758 0037 8B4638   		movl	56(%rsi), %eax
 1759 003a 418900   		movl	%eax, (%r8)
 1760              	.L447:
 657:fltk-1.3.4-1/png/pngget.c ****          *red_y = info_ptr->colorspace.end_points_xy.redy;
 1761              		.loc 1 657 0
 1762 003d 4D85C9   		testq	%r9, %r9
 1763 0040 7406     		je	.L448
 658:fltk-1.3.4-1/png/pngget.c ****       if (green_x != NULL)
 1764              		.loc 1 658 0
 1765 0042 8B463C   		movl	60(%rsi), %eax
 1766 0045 418901   		movl	%eax, (%r9)
 1767              	.L448:
 659:fltk-1.3.4-1/png/pngget.c ****          *green_x = info_ptr->colorspace.end_points_xy.greenx;
 1768              		.loc 1 659 0
 1769 0048 48837C24 		cmpq	$0, 8(%rsp)
 1769      0800
 1770 004e 740A     		je	.L449
 660:fltk-1.3.4-1/png/pngget.c ****       if (green_y != NULL)
 1771              		.loc 1 660 0
 1772 0050 8B4640   		movl	64(%rsi), %eax
 1773 0053 488B5424 		movq	8(%rsp), %rdx
 1773      08
 1774              	.LVL84:
 1775 0058 8902     		movl	%eax, (%rdx)
 1776              	.L449:
 661:fltk-1.3.4-1/png/pngget.c ****          *green_y = info_ptr->colorspace.end_points_xy.greeny;
 1777              		.loc 1 661 0
 1778 005a 48837C24 		cmpq	$0, 16(%rsp)
 1778      1000
 1779 0060 740A     		je	.L450
 662:fltk-1.3.4-1/png/pngget.c ****       if (blue_x != NULL)
 1780              		.loc 1 662 0
 1781 0062 8B4644   		movl	68(%rsi), %eax
 1782 0065 488B4C24 		movq	16(%rsp), %rcx
 1782      10
 1783              	.LVL85:
 1784 006a 8901     		movl	%eax, (%rcx)
 1785              	.L450:
 663:fltk-1.3.4-1/png/pngget.c ****          *blue_x = info_ptr->colorspace.end_points_xy.bluex;
 1786              		.loc 1 663 0
 1787 006c 48837C24 		cmpq	$0, 24(%rsp)
 1787      1800
 1788 0072 740A     		je	.L451
 664:fltk-1.3.4-1/png/pngget.c ****       if (blue_y != NULL)
 1789              		.loc 1 664 0
 1790 0074 8B4648   		movl	72(%rsi), %eax
 1791 0077 488B7C24 		movq	24(%rsp), %rdi
 1791      18
 1792              	.LVL86:
 1793 007c 8907     		movl	%eax, (%rdi)
 1794              	.L451:
 665:fltk-1.3.4-1/png/pngget.c ****          *blue_y = info_ptr->colorspace.end_points_xy.bluey;
 1795              		.loc 1 665 0
 1796 007e 48837C24 		cmpq	$0, 32(%rsp)
 1796      2000
 1797 0084 741A     		je	.L454
 666:fltk-1.3.4-1/png/pngget.c ****       return (PNG_INFO_cHRM);
 1798              		.loc 1 666 0
 1799 0086 8B464C   		movl	76(%rsi), %eax
 1800 0089 488B5424 		movq	32(%rsp), %rdx
 1800      20
 1801 008e 8902     		movl	%eax, (%rdx)
 667:fltk-1.3.4-1/png/pngget.c ****    }
 1802              		.loc 1 667 0
 1803 0090 B8040000 		movl	$4, %eax
 1803      00
 1804 0095 C3       		ret
 1805 0096 662E0F1F 		.p2align 4,,10
 1805      84000000 
 1805      0000
 1806              		.p2align 3
 1807              	.L454:
 1808 00a0 B8040000 		movl	$4, %eax
 1808      00
 1809              	.L444:
 671:fltk-1.3.4-1/png/pngget.c **** }
 1810              		.loc 1 671 0
 1811 00a5 F3C3     		rep ret
 1812              	.LVL87:
 1813 00a7 660F1F84 		.p2align 4,,10
 1813      00000000 
 1813      00
 1814              		.p2align 3
 1815              	.L452:
 1816 00b0 F3C3     		rep ret
 1817              		.cfi_endproc
 1818              	.LFE91:
 1820              		.section	.text.unlikely.png_get_cHRM_fixed
 1821              	.LCOLDE39:
 1822              		.section	.text.png_get_cHRM_fixed
 1823              	.LHOTE39:
 1824              		.section	.text.unlikely.png_get_gAMA_fixed,"ax",@progbits
 1825              	.LCOLDB40:
 1826              		.section	.text.png_get_gAMA_fixed,"ax",@progbits
 1827              	.LHOTB40:
 1828              		.p2align 4,,15
 1829              		.globl	png_get_gAMA_fixed
 1831              	png_get_gAMA_fixed:
 1832              	.LFB92:
 672:fltk-1.3.4-1/png/pngget.c **** #  endif
 673:fltk-1.3.4-1/png/pngget.c **** #endif
 674:fltk-1.3.4-1/png/pngget.c **** 
 675:fltk-1.3.4-1/png/pngget.c **** #ifdef PNG_gAMA_SUPPORTED
 676:fltk-1.3.4-1/png/pngget.c **** #  ifdef PNG_FIXED_POINT_SUPPORTED
 677:fltk-1.3.4-1/png/pngget.c **** png_uint_32 PNGAPI
 678:fltk-1.3.4-1/png/pngget.c **** png_get_gAMA_fixed(png_const_structrp png_ptr, png_const_inforp info_ptr,
 679:fltk-1.3.4-1/png/pngget.c ****     png_fixed_point *file_gamma)
 680:fltk-1.3.4-1/png/pngget.c **** {
 1833              		.loc 1 680 0
 1834              		.cfi_startproc
 1835              	.LVL88:
 681:fltk-1.3.4-1/png/pngget.c ****    png_debug1(1, "in %s retrieval function", "gAMA");
 682:fltk-1.3.4-1/png/pngget.c **** 
 683:fltk-1.3.4-1/png/pngget.c ****    if (png_ptr != NULL && info_ptr != NULL &&
 1836              		.loc 1 683 0
 1837 0000 4885FF   		testq	%rdi, %rdi
 1838 0003 741B     		je	.L486
 1839 0005 4885F6   		testq	%rsi, %rsi
 1840 0008 7416     		je	.L486
 684:fltk-1.3.4-1/png/pngget.c ****       (info_ptr->colorspace.flags & PNG_COLORSPACE_HAVE_GAMMA) != 0 &&
 1841              		.loc 1 684 0 discriminator 1
 1842 000a F6467E01 		testb	$1, 126(%rsi)
 1843 000e 7410     		je	.L486
 1844 0010 4885D2   		testq	%rdx, %rdx
 1845 0013 740B     		je	.L486
 685:fltk-1.3.4-1/png/pngget.c ****       file_gamma != NULL)
 686:fltk-1.3.4-1/png/pngget.c ****    {
 687:fltk-1.3.4-1/png/pngget.c ****       *file_gamma = info_ptr->colorspace.gamma;
 1846              		.loc 1 687 0
 1847 0015 8B4634   		movl	52(%rsi), %eax
 1848 0018 8902     		movl	%eax, (%rdx)
 688:fltk-1.3.4-1/png/pngget.c ****       return (PNG_INFO_gAMA);
 1849              		.loc 1 688 0
 1850 001a B8010000 		movl	$1, %eax
 1850      00
 1851 001f C3       		ret
 1852              		.p2align 4,,10
 1853              		.p2align 3
 1854              	.L486:
 689:fltk-1.3.4-1/png/pngget.c ****    }
 690:fltk-1.3.4-1/png/pngget.c **** 
 691:fltk-1.3.4-1/png/pngget.c ****    return (0);
 1855              		.loc 1 691 0
 1856 0020 31C0     		xorl	%eax, %eax
 692:fltk-1.3.4-1/png/pngget.c **** }
 1857              		.loc 1 692 0
 1858 0022 C3       		ret
 1859              		.cfi_endproc
 1860              	.LFE92:
 1862              		.section	.text.unlikely.png_get_gAMA_fixed
 1863              	.LCOLDE40:
 1864              		.section	.text.png_get_gAMA_fixed
 1865              	.LHOTE40:
 1866              		.section	.text.unlikely.png_get_gAMA,"ax",@progbits
 1867              	.LCOLDB41:
 1868              		.section	.text.png_get_gAMA,"ax",@progbits
 1869              	.LHOTB41:
 1870              		.p2align 4,,15
 1871              		.globl	png_get_gAMA
 1873              	png_get_gAMA:
 1874              	.LFB93:
 693:fltk-1.3.4-1/png/pngget.c **** #  endif
 694:fltk-1.3.4-1/png/pngget.c **** 
 695:fltk-1.3.4-1/png/pngget.c **** #  ifdef PNG_FLOATING_POINT_SUPPORTED
 696:fltk-1.3.4-1/png/pngget.c **** png_uint_32 PNGAPI
 697:fltk-1.3.4-1/png/pngget.c **** png_get_gAMA(png_const_structrp png_ptr, png_const_inforp info_ptr,
 698:fltk-1.3.4-1/png/pngget.c ****     double *file_gamma)
 699:fltk-1.3.4-1/png/pngget.c **** {
 1875              		.loc 1 699 0
 1876              		.cfi_startproc
 1877              	.LVL89:
 700:fltk-1.3.4-1/png/pngget.c ****    png_debug1(1, "in %s retrieval function", "gAMA(float)");
 701:fltk-1.3.4-1/png/pngget.c **** 
 702:fltk-1.3.4-1/png/pngget.c ****    if (png_ptr != NULL && info_ptr != NULL &&
 1878              		.loc 1 702 0
 1879 0000 4885FF   		testq	%rdi, %rdi
 1880 0003 742B     		je	.L502
 1881 0005 4885F6   		testq	%rsi, %rsi
 1882 0008 7426     		je	.L502
 703:fltk-1.3.4-1/png/pngget.c ****       (info_ptr->colorspace.flags & PNG_COLORSPACE_HAVE_GAMMA) != 0 &&
 1883              		.loc 1 703 0 discriminator 1
 1884 000a F6467E01 		testb	$1, 126(%rsi)
 1885 000e 7420     		je	.L502
 1886 0010 4885D2   		testq	%rdx, %rdx
 1887 0013 741B     		je	.L502
 704:fltk-1.3.4-1/png/pngget.c ****       file_gamma != NULL)
 705:fltk-1.3.4-1/png/pngget.c ****    {
 706:fltk-1.3.4-1/png/pngget.c ****       *file_gamma = png_float(png_ptr, info_ptr->colorspace.gamma,
 1888              		.loc 1 706 0
 1889 0015 660FEFC0 		pxor	%xmm0, %xmm0
 707:fltk-1.3.4-1/png/pngget.c ****          "png_get_gAMA");
 708:fltk-1.3.4-1/png/pngget.c ****       return (PNG_INFO_gAMA);
 1890              		.loc 1 708 0
 1891 0019 B8010000 		movl	$1, %eax
 1891      00
 706:fltk-1.3.4-1/png/pngget.c ****          "png_get_gAMA");
 1892              		.loc 1 706 0
 1893 001e F20F2A46 		cvtsi2sd	52(%rsi), %xmm0
 1893      34
 1894 0023 F20F5905 		mulsd	.LC35(%rip), %xmm0
 1894      00000000 
 1895 002b F20F1102 		movsd	%xmm0, (%rdx)
 1896              		.loc 1 708 0
 1897 002f C3       		ret
 1898              		.p2align 4,,10
 1899              		.p2align 3
 1900              	.L502:
 709:fltk-1.3.4-1/png/pngget.c ****    }
 710:fltk-1.3.4-1/png/pngget.c **** 
 711:fltk-1.3.4-1/png/pngget.c ****    return (0);
 1901              		.loc 1 711 0
 1902 0030 31C0     		xorl	%eax, %eax
 712:fltk-1.3.4-1/png/pngget.c **** }
 1903              		.loc 1 712 0
 1904 0032 C3       		ret
 1905              		.cfi_endproc
 1906              	.LFE93:
 1908              		.section	.text.unlikely.png_get_gAMA
 1909              	.LCOLDE41:
 1910              		.section	.text.png_get_gAMA
 1911              	.LHOTE41:
 1912              		.section	.text.unlikely.png_get_sRGB,"ax",@progbits
 1913              	.LCOLDB42:
 1914              		.section	.text.png_get_sRGB,"ax",@progbits
 1915              	.LHOTB42:
 1916              		.p2align 4,,15
 1917              		.globl	png_get_sRGB
 1919              	png_get_sRGB:
 1920              	.LFB94:
 713:fltk-1.3.4-1/png/pngget.c **** #  endif
 714:fltk-1.3.4-1/png/pngget.c **** #endif
 715:fltk-1.3.4-1/png/pngget.c **** 
 716:fltk-1.3.4-1/png/pngget.c **** #ifdef PNG_sRGB_SUPPORTED
 717:fltk-1.3.4-1/png/pngget.c **** png_uint_32 PNGAPI
 718:fltk-1.3.4-1/png/pngget.c **** png_get_sRGB(png_const_structrp png_ptr, png_const_inforp info_ptr,
 719:fltk-1.3.4-1/png/pngget.c ****     int *file_srgb_intent)
 720:fltk-1.3.4-1/png/pngget.c **** {
 1921              		.loc 1 720 0
 1922              		.cfi_startproc
 1923              	.LVL90:
 721:fltk-1.3.4-1/png/pngget.c ****    png_debug1(1, "in %s retrieval function", "sRGB");
 722:fltk-1.3.4-1/png/pngget.c **** 
 723:fltk-1.3.4-1/png/pngget.c ****    if (png_ptr != NULL && info_ptr != NULL &&
 1924              		.loc 1 723 0
 1925 0000 4885FF   		testq	%rdi, %rdi
 1926 0003 7423     		je	.L518
 1927 0005 4885F6   		testq	%rsi, %rsi
 1928 0008 741E     		je	.L518
 724:fltk-1.3.4-1/png/pngget.c ****       (info_ptr->valid & PNG_INFO_sRGB) != 0 && file_srgb_intent != NULL)
 1929              		.loc 1 724 0 discriminator 1
 1930 000a F6460908 		testb	$8, 9(%rsi)
 1931 000e 7418     		je	.L518
 1932 0010 4885D2   		testq	%rdx, %rdx
 1933 0013 7413     		je	.L518
 725:fltk-1.3.4-1/png/pngget.c ****    {
 726:fltk-1.3.4-1/png/pngget.c ****       *file_srgb_intent = info_ptr->colorspace.rendering_intent;
 1934              		.loc 1 726 0
 1935 0015 0FB7467C 		movzwl	124(%rsi), %eax
 1936 0019 8902     		movl	%eax, (%rdx)
 727:fltk-1.3.4-1/png/pngget.c ****       return (PNG_INFO_sRGB);
 1937              		.loc 1 727 0
 1938 001b B8000800 		movl	$2048, %eax
 1938      00
 1939 0020 C3       		ret
 1940              		.p2align 4,,10
 1941 0021 0F1F8000 		.p2align 3
 1941      000000
 1942              	.L518:
 728:fltk-1.3.4-1/png/pngget.c ****    }
 729:fltk-1.3.4-1/png/pngget.c **** 
 730:fltk-1.3.4-1/png/pngget.c ****    return (0);
 1943              		.loc 1 730 0
 1944 0028 31C0     		xorl	%eax, %eax
 731:fltk-1.3.4-1/png/pngget.c **** }
 1945              		.loc 1 731 0
 1946 002a C3       		ret
 1947              		.cfi_endproc
 1948              	.LFE94:
 1950              		.section	.text.unlikely.png_get_sRGB
 1951              	.LCOLDE42:
 1952              		.section	.text.png_get_sRGB
 1953              	.LHOTE42:
 1954              		.section	.text.unlikely.png_get_iCCP,"ax",@progbits
 1955              	.LCOLDB43:
 1956              		.section	.text.png_get_iCCP,"ax",@progbits
 1957              	.LHOTB43:
 1958              		.p2align 4,,15
 1959              		.globl	png_get_iCCP
 1961              	png_get_iCCP:
 1962              	.LFB95:
 732:fltk-1.3.4-1/png/pngget.c **** #endif
 733:fltk-1.3.4-1/png/pngget.c **** 
 734:fltk-1.3.4-1/png/pngget.c **** #ifdef PNG_iCCP_SUPPORTED
 735:fltk-1.3.4-1/png/pngget.c **** png_uint_32 PNGAPI
 736:fltk-1.3.4-1/png/pngget.c **** png_get_iCCP(png_const_structrp png_ptr, png_inforp info_ptr,
 737:fltk-1.3.4-1/png/pngget.c ****     png_charpp name, int *compression_type,
 738:fltk-1.3.4-1/png/pngget.c ****     png_bytepp profile, png_uint_32 *proflen)
 739:fltk-1.3.4-1/png/pngget.c **** {
 1963              		.loc 1 739 0
 1964              		.cfi_startproc
 1965              	.LVL91:
 740:fltk-1.3.4-1/png/pngget.c ****    png_debug1(1, "in %s retrieval function", "iCCP");
 741:fltk-1.3.4-1/png/pngget.c **** 
 742:fltk-1.3.4-1/png/pngget.c ****    if (png_ptr != NULL && info_ptr != NULL &&
 1966              		.loc 1 742 0
 1967 0000 4885FF   		testq	%rdi, %rdi
 1968 0003 7473     		je	.L535
 1969 0005 4885F6   		testq	%rsi, %rsi
 1970 0008 746E     		je	.L535
 1971              		.loc 1 742 0 is_stmt 0 discriminator 1
 1972 000a 8B4608   		movl	8(%rsi), %eax
 1973 000d 25001000 		andl	$4096, %eax
 1973      00
 1974 0012 7466     		je	.L532
 743:fltk-1.3.4-1/png/pngget.c ****        (info_ptr->valid & PNG_INFO_iCCP) != 0 &&
 744:fltk-1.3.4-1/png/pngget.c ****        name != NULL && compression_type != NULL && profile != NULL &&
 1975              		.loc 1 744 0 is_stmt 1
 1976 0014 4885D2   		testq	%rdx, %rdx
 1977 0017 745F     		je	.L535
 1978 0019 4885C9   		testq	%rcx, %rcx
 1979 001c 745A     		je	.L535
 1980              		.loc 1 744 0 is_stmt 0 discriminator 1
 1981 001e 4D85C0   		testq	%r8, %r8
 1982 0021 7455     		je	.L535
 1983 0023 4D85C9   		testq	%r9, %r9
 1984 0026 7450     		je	.L535
 745:fltk-1.3.4-1/png/pngget.c ****            proflen != NULL)
 746:fltk-1.3.4-1/png/pngget.c ****    {
 747:fltk-1.3.4-1/png/pngget.c ****       *name = info_ptr->iccp_name;
 1985              		.loc 1 747 0 is_stmt 1
 1986 0028 488B8680 		movq	128(%rsi), %rax
 1986      000000
 1987 002f 488902   		movq	%rax, (%rdx)
 748:fltk-1.3.4-1/png/pngget.c ****       *profile = info_ptr->iccp_profile;
 1988              		.loc 1 748 0
 1989 0032 488B8688 		movq	136(%rsi), %rax
 1989      000000
 1990 0039 498900   		movq	%rax, (%r8)
 749:fltk-1.3.4-1/png/pngget.c ****       *proflen = png_get_uint_32(info_ptr->iccp_profile);
 1991              		.loc 1 749 0
 1992 003c 488B9688 		movq	136(%rsi), %rdx
 1992      000000
 1993              	.LVL92:
 1994 0043 0FB602   		movzbl	(%rdx), %eax
 1995 0046 C1E018   		sall	$24, %eax
 1996 0049 89C6     		movl	%eax, %esi
 1997              	.LVL93:
 1998 004b 0FB64201 		movzbl	1(%rdx), %eax
 1999 004f C1E010   		sall	$16, %eax
 2000 0052 01F0     		addl	%esi, %eax
 2001 0054 0FB67203 		movzbl	3(%rdx), %esi
 2002 0058 01C6     		addl	%eax, %esi
 2003 005a 0FB64202 		movzbl	2(%rdx), %eax
 2004 005e C1E008   		sall	$8, %eax
 2005 0061 01F0     		addl	%esi, %eax
 2006 0063 418901   		movl	%eax, (%r9)
 750:fltk-1.3.4-1/png/pngget.c ****       /* This is somewhat irrelevant since the profile data returned has
 751:fltk-1.3.4-1/png/pngget.c ****        * actually been uncompressed.
 752:fltk-1.3.4-1/png/pngget.c ****        */
 753:fltk-1.3.4-1/png/pngget.c ****       *compression_type = PNG_COMPRESSION_TYPE_BASE;
 2007              		.loc 1 753 0
 2008 0066 C7010000 		movl	$0, (%rcx)
 2008      0000
 754:fltk-1.3.4-1/png/pngget.c ****       return (PNG_INFO_iCCP);
 2009              		.loc 1 754 0
 2010 006c B8001000 		movl	$4096, %eax
 2010      00
 2011 0071 C3       		ret
 2012              	.LVL94:
 2013              		.p2align 4,,10
 2014 0072 660F1F44 		.p2align 3
 2014      0000
 2015              	.L535:
 755:fltk-1.3.4-1/png/pngget.c ****    }
 756:fltk-1.3.4-1/png/pngget.c **** 
 757:fltk-1.3.4-1/png/pngget.c ****    return (0);
 2016              		.loc 1 757 0
 2017 0078 31C0     		xorl	%eax, %eax
 2018              	.L532:
 758:fltk-1.3.4-1/png/pngget.c **** }
 2019              		.loc 1 758 0
 2020 007a F3C3     		rep ret
 2021              		.cfi_endproc
 2022              	.LFE95:
 2024              		.section	.text.unlikely.png_get_iCCP
 2025              	.LCOLDE43:
 2026              		.section	.text.png_get_iCCP
 2027              	.LHOTE43:
 2028              		.section	.text.unlikely.png_get_sPLT,"ax",@progbits
 2029              	.LCOLDB44:
 2030              		.section	.text.png_get_sPLT,"ax",@progbits
 2031              	.LHOTB44:
 2032              		.p2align 4,,15
 2033              		.globl	png_get_sPLT
 2035              	png_get_sPLT:
 2036              	.LFB96:
 759:fltk-1.3.4-1/png/pngget.c **** #endif
 760:fltk-1.3.4-1/png/pngget.c **** 
 761:fltk-1.3.4-1/png/pngget.c **** #ifdef PNG_sPLT_SUPPORTED
 762:fltk-1.3.4-1/png/pngget.c **** int PNGAPI
 763:fltk-1.3.4-1/png/pngget.c **** png_get_sPLT(png_const_structrp png_ptr, png_inforp info_ptr,
 764:fltk-1.3.4-1/png/pngget.c ****     png_sPLT_tpp spalettes)
 765:fltk-1.3.4-1/png/pngget.c **** {
 2037              		.loc 1 765 0
 2038              		.cfi_startproc
 2039              	.LVL95:
 766:fltk-1.3.4-1/png/pngget.c ****    if (png_ptr != NULL && info_ptr != NULL && spalettes != NULL)
 2040              		.loc 1 766 0
 2041 0000 4885F6   		testq	%rsi, %rsi
 2042 0003 0F95C1   		setne	%cl
 2043 0006 4885D2   		testq	%rdx, %rdx
 2044 0009 0F95C0   		setne	%al
 2045 000c 84C1     		testb	%al, %cl
 2046 000e 7420     		je	.L559
 2047 0010 4885FF   		testq	%rdi, %rdi
 2048 0013 741B     		je	.L559
 767:fltk-1.3.4-1/png/pngget.c ****    {
 768:fltk-1.3.4-1/png/pngget.c ****       *spalettes = info_ptr->splt_palettes;
 2049              		.loc 1 768 0
 2050 0015 488B8630 		movq	304(%rsi), %rax
 2050      010000
 2051 001c 488902   		movq	%rax, (%rdx)
 769:fltk-1.3.4-1/png/pngget.c ****       return info_ptr->splt_palettes_num;
 2052              		.loc 1 769 0
 2053 001f 8B863801 		movl	312(%rsi), %eax
 2053      0000
 2054 0025 C3       		ret
 2055 0026 662E0F1F 		.p2align 4,,10
 2055      84000000 
 2055      0000
 2056              		.p2align 3
 2057              	.L559:
 770:fltk-1.3.4-1/png/pngget.c ****    }
 771:fltk-1.3.4-1/png/pngget.c **** 
 772:fltk-1.3.4-1/png/pngget.c ****    return (0);
 2058              		.loc 1 772 0
 2059 0030 31C0     		xorl	%eax, %eax
 773:fltk-1.3.4-1/png/pngget.c **** }
 2060              		.loc 1 773 0
 2061 0032 C3       		ret
 2062              		.cfi_endproc
 2063              	.LFE96:
 2065              		.section	.text.unlikely.png_get_sPLT
 2066              	.LCOLDE44:
 2067              		.section	.text.png_get_sPLT
 2068              	.LHOTE44:
 2069              		.section	.text.unlikely.png_get_hIST,"ax",@progbits
 2070              	.LCOLDB45:
 2071              		.section	.text.png_get_hIST,"ax",@progbits
 2072              	.LHOTB45:
 2073              		.p2align 4,,15
 2074              		.globl	png_get_hIST
 2076              	png_get_hIST:
 2077              	.LFB97:
 774:fltk-1.3.4-1/png/pngget.c **** #endif
 775:fltk-1.3.4-1/png/pngget.c **** 
 776:fltk-1.3.4-1/png/pngget.c **** #ifdef PNG_hIST_SUPPORTED
 777:fltk-1.3.4-1/png/pngget.c **** png_uint_32 PNGAPI
 778:fltk-1.3.4-1/png/pngget.c **** png_get_hIST(png_const_structrp png_ptr, png_inforp info_ptr,
 779:fltk-1.3.4-1/png/pngget.c ****     png_uint_16p *hist)
 780:fltk-1.3.4-1/png/pngget.c **** {
 2078              		.loc 1 780 0
 2079              		.cfi_startproc
 2080              	.LVL96:
 781:fltk-1.3.4-1/png/pngget.c ****    png_debug1(1, "in %s retrieval function", "hIST");
 782:fltk-1.3.4-1/png/pngget.c **** 
 783:fltk-1.3.4-1/png/pngget.c ****    if (png_ptr != NULL && info_ptr != NULL &&
 2081              		.loc 1 783 0
 2082 0000 4885FF   		testq	%rdi, %rdi
 2083 0003 7423     		je	.L569
 2084 0005 4885F6   		testq	%rsi, %rsi
 2085 0008 741E     		je	.L569
 784:fltk-1.3.4-1/png/pngget.c ****        (info_ptr->valid & PNG_INFO_hIST) != 0 && hist != NULL)
 2086              		.loc 1 784 0 discriminator 1
 2087 000a F6460840 		testb	$64, 8(%rsi)
 2088 000e 7418     		je	.L569
 2089 0010 4885D2   		testq	%rdx, %rdx
 2090 0013 7413     		je	.L569
 785:fltk-1.3.4-1/png/pngget.c ****    {
 786:fltk-1.3.4-1/png/pngget.c ****       *hist = info_ptr->hist;
 2091              		.loc 1 786 0
 2092 0015 488B86F0 		movq	240(%rsi), %rax
 2092      000000
 2093 001c 488902   		movq	%rax, (%rdx)
 787:fltk-1.3.4-1/png/pngget.c ****       return (PNG_INFO_hIST);
 2094              		.loc 1 787 0
 2095 001f B8400000 		movl	$64, %eax
 2095      00
 2096 0024 C3       		ret
 2097              		.p2align 4,,10
 2098 0025 0F1F00   		.p2align 3
 2099              	.L569:
 788:fltk-1.3.4-1/png/pngget.c ****    }
 789:fltk-1.3.4-1/png/pngget.c **** 
 790:fltk-1.3.4-1/png/pngget.c ****    return (0);
 2100              		.loc 1 790 0
 2101 0028 31C0     		xorl	%eax, %eax
 791:fltk-1.3.4-1/png/pngget.c **** }
 2102              		.loc 1 791 0
 2103 002a C3       		ret
 2104              		.cfi_endproc
 2105              	.LFE97:
 2107              		.section	.text.unlikely.png_get_hIST
 2108              	.LCOLDE45:
 2109              		.section	.text.png_get_hIST
 2110              	.LHOTE45:
 2111              		.section	.text.unlikely.png_get_IHDR,"ax",@progbits
 2112              	.LCOLDB46:
 2113              		.section	.text.png_get_IHDR,"ax",@progbits
 2114              	.LHOTB46:
 2115              		.p2align 4,,15
 2116              		.globl	png_get_IHDR
 2118              	png_get_IHDR:
 2119              	.LFB98:
 792:fltk-1.3.4-1/png/pngget.c **** #endif
 793:fltk-1.3.4-1/png/pngget.c **** 
 794:fltk-1.3.4-1/png/pngget.c **** png_uint_32 PNGAPI
 795:fltk-1.3.4-1/png/pngget.c **** png_get_IHDR(png_const_structrp png_ptr, png_const_inforp info_ptr,
 796:fltk-1.3.4-1/png/pngget.c ****     png_uint_32 *width, png_uint_32 *height, int *bit_depth,
 797:fltk-1.3.4-1/png/pngget.c ****     int *color_type, int *interlace_type, int *compression_type,
 798:fltk-1.3.4-1/png/pngget.c ****     int *filter_type)
 799:fltk-1.3.4-1/png/pngget.c **** {
 2120              		.loc 1 799 0
 2121              		.cfi_startproc
 2122              	.LVL97:
 800:fltk-1.3.4-1/png/pngget.c ****    png_debug1(1, "in %s retrieval function", "IHDR");
 801:fltk-1.3.4-1/png/pngget.c **** 
 802:fltk-1.3.4-1/png/pngget.c ****    if (png_ptr == NULL || info_ptr == NULL || width == NULL ||
 2123              		.loc 1 802 0
 2124 0000 4885FF   		testq	%rdi, %rdi
 2125 0003 0F84B700 		je	.L589
 2125      0000
 2126 0009 4885F6   		testq	%rsi, %rsi
 2127 000c 0F84AE00 		je	.L589
 2127      0000
 2128              		.loc 1 802 0 is_stmt 0 discriminator 1
 2129 0012 4885D2   		testq	%rdx, %rdx
 2130 0015 0F84A500 		je	.L589
 2130      0000
 2131 001b 4885C9   		testq	%rcx, %rcx
 2132 001e 0F849C00 		je	.L589
 2132      0000
 803:fltk-1.3.4-1/png/pngget.c ****        height == NULL || bit_depth == NULL || color_type == NULL)
 2133              		.loc 1 803 0 is_stmt 1
 2134 0024 4D85C0   		testq	%r8, %r8
 2135 0027 0F849300 		je	.L589
 2135      0000
 2136 002d 4D85C9   		testq	%r9, %r9
 2137 0030 0F848A00 		je	.L589
 2137      0000
 799:fltk-1.3.4-1/png/pngget.c ****    png_debug1(1, "in %s retrieval function", "IHDR");
 2138              		.loc 1 799 0
 2139 0036 4883EC08 		subq	$8, %rsp
 2140              		.cfi_def_cfa_offset 16
 804:fltk-1.3.4-1/png/pngget.c ****       return (0);
 805:fltk-1.3.4-1/png/pngget.c **** 
 806:fltk-1.3.4-1/png/pngget.c ****    *width = info_ptr->width;
 2141              		.loc 1 806 0
 2142 003a 8B06     		movl	(%rsi), %eax
 807:fltk-1.3.4-1/png/pngget.c ****    *height = info_ptr->height;
 808:fltk-1.3.4-1/png/pngget.c ****    *bit_depth = info_ptr->bit_depth;
 809:fltk-1.3.4-1/png/pngget.c ****    *color_type = info_ptr->color_type;
 810:fltk-1.3.4-1/png/pngget.c **** 
 811:fltk-1.3.4-1/png/pngget.c ****    if (compression_type != NULL)
 2143              		.loc 1 811 0
 2144 003c 48837C24 		cmpq	$0, 24(%rsp)
 2144      1800
 806:fltk-1.3.4-1/png/pngget.c ****    *height = info_ptr->height;
 2145              		.loc 1 806 0
 2146 0042 8902     		movl	%eax, (%rdx)
 807:fltk-1.3.4-1/png/pngget.c ****    *height = info_ptr->height;
 2147              		.loc 1 807 0
 2148 0044 8B4604   		movl	4(%rsi), %eax
 2149 0047 8901     		movl	%eax, (%rcx)
 808:fltk-1.3.4-1/png/pngget.c ****    *color_type = info_ptr->color_type;
 2150              		.loc 1 808 0
 2151 0049 0FB64624 		movzbl	36(%rsi), %eax
 2152 004d 418900   		movl	%eax, (%r8)
 809:fltk-1.3.4-1/png/pngget.c **** 
 2153              		.loc 1 809 0
 2154 0050 0FB64625 		movzbl	37(%rsi), %eax
 2155 0054 418901   		movl	%eax, (%r9)
 2156              		.loc 1 811 0
 2157 0057 740B     		je	.L584
 812:fltk-1.3.4-1/png/pngget.c ****       *compression_type = info_ptr->compression_type;
 2158              		.loc 1 812 0
 2159 0059 0FB64626 		movzbl	38(%rsi), %eax
 2160 005d 488B4C24 		movq	24(%rsp), %rcx
 2160      18
 2161              	.LVL98:
 2162 0062 8901     		movl	%eax, (%rcx)
 2163              	.L584:
 813:fltk-1.3.4-1/png/pngget.c **** 
 814:fltk-1.3.4-1/png/pngget.c ****    if (filter_type != NULL)
 2164              		.loc 1 814 0
 2165 0064 48837C24 		cmpq	$0, 32(%rsp)
 2165      2000
 2166 006a 740B     		je	.L585
 815:fltk-1.3.4-1/png/pngget.c ****       *filter_type = info_ptr->filter_type;
 2167              		.loc 1 815 0
 2168 006c 0FB64627 		movzbl	39(%rsi), %eax
 2169 0070 488B5424 		movq	32(%rsp), %rdx
 2169      20
 2170              	.LVL99:
 2171 0075 8902     		movl	%eax, (%rdx)
 2172              	.L585:
 816:fltk-1.3.4-1/png/pngget.c **** 
 817:fltk-1.3.4-1/png/pngget.c ****    if (interlace_type != NULL)
 2173              		.loc 1 817 0
 2174 0077 48837C24 		cmpq	$0, 16(%rsp)
 2174      1000
 2175 007d 740B     		je	.L586
 818:fltk-1.3.4-1/png/pngget.c ****       *interlace_type = info_ptr->interlace_type;
 2176              		.loc 1 818 0
 2177 007f 0FB64628 		movzbl	40(%rsi), %eax
 2178 0083 488B4C24 		movq	16(%rsp), %rcx
 2178      10
 2179 0088 8901     		movl	%eax, (%rcx)
 2180              	.L586:
 819:fltk-1.3.4-1/png/pngget.c **** 
 820:fltk-1.3.4-1/png/pngget.c ****    /* This is redundant if we can be sure that the info_ptr values were all
 821:fltk-1.3.4-1/png/pngget.c ****     * assigned in png_set_IHDR().  We do the check anyhow in case an
 822:fltk-1.3.4-1/png/pngget.c ****     * application has ignored our advice not to mess with the members
 823:fltk-1.3.4-1/png/pngget.c ****     * of info_ptr directly.
 824:fltk-1.3.4-1/png/pngget.c ****     */
 825:fltk-1.3.4-1/png/pngget.c ****    png_check_IHDR(png_ptr, info_ptr->width, info_ptr->height,
 2181              		.loc 1 825 0
 2182 008a 0FB64627 		movzbl	39(%rsi), %eax
 2183 008e 8B5604   		movl	4(%rsi), %edx
 2184 0091 0FB64E24 		movzbl	36(%rsi), %ecx
 2185 0095 50       		pushq	%rax
 2186              		.cfi_def_cfa_offset 24
 2187 0096 0FB64626 		movzbl	38(%rsi), %eax
 2188 009a 50       		pushq	%rax
 2189              		.cfi_def_cfa_offset 32
 2190 009b 440FB64E 		movzbl	40(%rsi), %r9d
 2190      28
 2191              	.LVL100:
 2192 00a0 440FB646 		movzbl	37(%rsi), %r8d
 2192      25
 2193              	.LVL101:
 2194 00a5 8B36     		movl	(%rsi), %esi
 2195              	.LVL102:
 2196 00a7 E8000000 		call	png_check_IHDR
 2196      00
 2197              	.LVL103:
 826:fltk-1.3.4-1/png/pngget.c ****        info_ptr->bit_depth, info_ptr->color_type, info_ptr->interlace_type,
 827:fltk-1.3.4-1/png/pngget.c ****        info_ptr->compression_type, info_ptr->filter_type);
 828:fltk-1.3.4-1/png/pngget.c **** 
 829:fltk-1.3.4-1/png/pngget.c ****    return (1);
 2198              		.loc 1 829 0
 2199 00ac 58       		popq	%rax
 2200              		.cfi_def_cfa_offset 24
 2201 00ad 5A       		popq	%rdx
 2202              		.cfi_def_cfa_offset 16
 2203 00ae B8010000 		movl	$1, %eax
 2203      00
 830:fltk-1.3.4-1/png/pngget.c **** }
 2204              		.loc 1 830 0
 2205 00b3 4883C408 		addq	$8, %rsp
 2206              		.cfi_def_cfa_offset 8
 2207 00b7 C3       		ret
 2208              	.LVL104:
 2209 00b8 0F1F8400 		.p2align 4,,10
 2209      00000000 
 2210              		.p2align 3
 2211              	.L589:
 804:fltk-1.3.4-1/png/pngget.c **** 
 2212              		.loc 1 804 0
 2213 00c0 31C0     		xorl	%eax, %eax
 2214 00c2 C3       		ret
 2215              		.cfi_endproc
 2216              	.LFE98:
 2218              		.section	.text.unlikely.png_get_IHDR
 2219              	.LCOLDE46:
 2220              		.section	.text.png_get_IHDR
 2221              	.LHOTE46:
 2222              		.section	.text.unlikely.png_get_oFFs,"ax",@progbits
 2223              	.LCOLDB47:
 2224              		.section	.text.png_get_oFFs,"ax",@progbits
 2225              	.LHOTB47:
 2226              		.p2align 4,,15
 2227              		.globl	png_get_oFFs
 2229              	png_get_oFFs:
 2230              	.LFB99:
 831:fltk-1.3.4-1/png/pngget.c **** 
 832:fltk-1.3.4-1/png/pngget.c **** #ifdef PNG_oFFs_SUPPORTED
 833:fltk-1.3.4-1/png/pngget.c **** png_uint_32 PNGAPI
 834:fltk-1.3.4-1/png/pngget.c **** png_get_oFFs(png_const_structrp png_ptr, png_const_inforp info_ptr,
 835:fltk-1.3.4-1/png/pngget.c ****     png_int_32 *offset_x, png_int_32 *offset_y, int *unit_type)
 836:fltk-1.3.4-1/png/pngget.c **** {
 2231              		.loc 1 836 0
 2232              		.cfi_startproc
 2233              	.LVL105:
 837:fltk-1.3.4-1/png/pngget.c ****    png_debug1(1, "in %s retrieval function", "oFFs");
 838:fltk-1.3.4-1/png/pngget.c **** 
 839:fltk-1.3.4-1/png/pngget.c ****    if (png_ptr != NULL && info_ptr != NULL &&
 2234              		.loc 1 839 0
 2235 0000 4885FF   		testq	%rdi, %rdi
 2236 0003 744B     		je	.L604
 2237 0005 4885F6   		testq	%rsi, %rsi
 2238 0008 7446     		je	.L604
 2239              		.loc 1 839 0 is_stmt 0 discriminator 1
 2240 000a 8B4608   		movl	8(%rsi), %eax
 2241 000d 25000100 		andl	$256, %eax
 2241      00
 2242 0012 743E     		je	.L602
 840:fltk-1.3.4-1/png/pngget.c ****        (info_ptr->valid & PNG_INFO_oFFs) != 0 &&
 841:fltk-1.3.4-1/png/pngget.c ****        offset_x != NULL && offset_y != NULL && unit_type != NULL)
 2243              		.loc 1 841 0 is_stmt 1
 2244 0014 4885D2   		testq	%rdx, %rdx
 2245 0017 400F95C7 		setne	%dil
 2246              	.LVL106:
 2247 001b 4885C9   		testq	%rcx, %rcx
 2248 001e 0F95C0   		setne	%al
 2249 0021 4084C7   		testb	%al, %dil
 2250 0024 742A     		je	.L604
 2251 0026 4D85C0   		testq	%r8, %r8
 2252 0029 7425     		je	.L604
 842:fltk-1.3.4-1/png/pngget.c ****    {
 843:fltk-1.3.4-1/png/pngget.c ****       *offset_x = info_ptr->x_offset;
 2253              		.loc 1 843 0
 2254 002b 8B86D400 		movl	212(%rsi), %eax
 2254      0000
 2255 0031 8902     		movl	%eax, (%rdx)
 844:fltk-1.3.4-1/png/pngget.c ****       *offset_y = info_ptr->y_offset;
 2256              		.loc 1 844 0
 2257 0033 8B86D800 		movl	216(%rsi), %eax
 2257      0000
 2258 0039 8901     		movl	%eax, (%rcx)
 845:fltk-1.3.4-1/png/pngget.c ****       *unit_type = (int)info_ptr->offset_unit_type;
 2259              		.loc 1 845 0
 2260 003b 0FB686DC 		movzbl	220(%rsi), %eax
 2260      000000
 2261 0042 418900   		movl	%eax, (%r8)
 846:fltk-1.3.4-1/png/pngget.c ****       return (PNG_INFO_oFFs);
 2262              		.loc 1 846 0
 2263 0045 B8000100 		movl	$256, %eax
 2263      00
 2264 004a C3       		ret
 2265 004b 0F1F4400 		.p2align 4,,10
 2265      00
 2266              		.p2align 3
 2267              	.L604:
 847:fltk-1.3.4-1/png/pngget.c ****    }
 848:fltk-1.3.4-1/png/pngget.c **** 
 849:fltk-1.3.4-1/png/pngget.c ****    return (0);
 2268              		.loc 1 849 0
 2269 0050 31C0     		xorl	%eax, %eax
 2270              	.L602:
 850:fltk-1.3.4-1/png/pngget.c **** }
 2271              		.loc 1 850 0
 2272 0052 F3C3     		rep ret
 2273              		.cfi_endproc
 2274              	.LFE99:
 2276              		.section	.text.unlikely.png_get_oFFs
 2277              	.LCOLDE47:
 2278              		.section	.text.png_get_oFFs
 2279              	.LHOTE47:
 2280              		.section	.text.unlikely.png_get_pCAL,"ax",@progbits
 2281              	.LCOLDB48:
 2282              		.section	.text.png_get_pCAL,"ax",@progbits
 2283              	.LHOTB48:
 2284              		.p2align 4,,15
 2285              		.globl	png_get_pCAL
 2287              	png_get_pCAL:
 2288              	.LFB100:
 851:fltk-1.3.4-1/png/pngget.c **** #endif
 852:fltk-1.3.4-1/png/pngget.c **** 
 853:fltk-1.3.4-1/png/pngget.c **** #ifdef PNG_pCAL_SUPPORTED
 854:fltk-1.3.4-1/png/pngget.c **** png_uint_32 PNGAPI
 855:fltk-1.3.4-1/png/pngget.c **** png_get_pCAL(png_const_structrp png_ptr, png_inforp info_ptr,
 856:fltk-1.3.4-1/png/pngget.c ****     png_charp *purpose, png_int_32 *X0, png_int_32 *X1, int *type, int *nparams,
 857:fltk-1.3.4-1/png/pngget.c ****     png_charp *units, png_charpp *params)
 858:fltk-1.3.4-1/png/pngget.c **** {
 2289              		.loc 1 858 0
 2290              		.cfi_startproc
 2291              	.LVL107:
 859:fltk-1.3.4-1/png/pngget.c ****    png_debug1(1, "in %s retrieval function", "pCAL");
 860:fltk-1.3.4-1/png/pngget.c **** 
 861:fltk-1.3.4-1/png/pngget.c ****    if (png_ptr != NULL && info_ptr != NULL &&
 2292              		.loc 1 861 0
 2293 0000 4885FF   		testq	%rdi, %rdi
 2294 0003 0F84B700 		je	.L625
 2294      0000
 2295 0009 4885F6   		testq	%rsi, %rsi
 2296 000c 0F84AE00 		je	.L625
 2296      0000
 2297              		.loc 1 861 0 is_stmt 0 discriminator 1
 2298 0012 8B4608   		movl	8(%rsi), %eax
 2299 0015 25000400 		andl	$1024, %eax
 2299      00
 2300 001a 0F84A200 		je	.L621
 2300      0000
 862:fltk-1.3.4-1/png/pngget.c ****        (info_ptr->valid & PNG_INFO_pCAL) != 0 &&
 863:fltk-1.3.4-1/png/pngget.c ****        purpose != NULL && X0 != NULL && X1 != NULL && type != NULL &&
 2301              		.loc 1 863 0 is_stmt 1
 2302 0020 4885D2   		testq	%rdx, %rdx
 2303 0023 0F849700 		je	.L625
 2303      0000
 2304 0029 4885C9   		testq	%rcx, %rcx
 2305 002c 0F848E00 		je	.L625
 2305      0000
 2306              		.loc 1 863 0 is_stmt 0 discriminator 1
 2307 0032 4D85C0   		testq	%r8, %r8
 2308 0035 0F848500 		je	.L625
 2308      0000
 2309 003b 4D85C9   		testq	%r9, %r9
 2310 003e 0F847C00 		je	.L625
 2310      0000
 864:fltk-1.3.4-1/png/pngget.c ****        nparams != NULL && units != NULL && params != NULL)
 2311              		.loc 1 864 0 is_stmt 1
 2312 0044 48837C24 		cmpq	$0, 8(%rsp)
 2312      0800
 2313 004a 400F95C7 		setne	%dil
 2314              	.LVL108:
 2315 004e 48837C24 		cmpq	$0, 16(%rsp)
 2315      1000
 2316 0054 0F95C0   		setne	%al
 2317 0057 4084C7   		testb	%al, %dil
 2318 005a 7464     		je	.L625
 2319 005c 48837C24 		cmpq	$0, 24(%rsp)
 2319      1800
 2320 0062 745C     		je	.L625
 865:fltk-1.3.4-1/png/pngget.c ****    {
 866:fltk-1.3.4-1/png/pngget.c ****       *purpose = info_ptr->pcal_purpose;
 2321              		.loc 1 866 0
 2322 0064 488B86F8 		movq	248(%rsi), %rax
 2322      000000
 2323 006b 488902   		movq	%rax, (%rdx)
 867:fltk-1.3.4-1/png/pngget.c ****       *X0 = info_ptr->pcal_X0;
 2324              		.loc 1 867 0
 2325 006e 8B860001 		movl	256(%rsi), %eax
 2325      0000
 868:fltk-1.3.4-1/png/pngget.c ****       *X1 = info_ptr->pcal_X1;
 869:fltk-1.3.4-1/png/pngget.c ****       *type = (int)info_ptr->pcal_type;
 870:fltk-1.3.4-1/png/pngget.c ****       *nparams = (int)info_ptr->pcal_nparams;
 871:fltk-1.3.4-1/png/pngget.c ****       *units = info_ptr->pcal_units;
 2326              		.loc 1 871 0
 2327 0074 488B5424 		movq	16(%rsp), %rdx
 2327      10
 2328              	.LVL109:
 867:fltk-1.3.4-1/png/pngget.c ****       *X0 = info_ptr->pcal_X0;
 2329              		.loc 1 867 0
 2330 0079 8901     		movl	%eax, (%rcx)
 868:fltk-1.3.4-1/png/pngget.c ****       *X1 = info_ptr->pcal_X1;
 2331              		.loc 1 868 0
 2332 007b 8B860401 		movl	260(%rsi), %eax
 2332      0000
 870:fltk-1.3.4-1/png/pngget.c ****       *units = info_ptr->pcal_units;
 2333              		.loc 1 870 0
 2334 0081 488B4C24 		movq	8(%rsp), %rcx
 2334      08
 2335              	.LVL110:
 868:fltk-1.3.4-1/png/pngget.c ****       *X1 = info_ptr->pcal_X1;
 2336              		.loc 1 868 0
 2337 0086 418900   		movl	%eax, (%r8)
 869:fltk-1.3.4-1/png/pngget.c ****       *nparams = (int)info_ptr->pcal_nparams;
 2338              		.loc 1 869 0
 2339 0089 0FB68618 		movzbl	280(%rsi), %eax
 2339      010000
 2340 0090 418901   		movl	%eax, (%r9)
 870:fltk-1.3.4-1/png/pngget.c ****       *units = info_ptr->pcal_units;
 2341              		.loc 1 870 0
 2342 0093 0FB68619 		movzbl	281(%rsi), %eax
 2342      010000
 2343 009a 8901     		movl	%eax, (%rcx)
 2344              		.loc 1 871 0
 2345 009c 488B8608 		movq	264(%rsi), %rax
 2345      010000
 872:fltk-1.3.4-1/png/pngget.c ****       *params = info_ptr->pcal_params;
 2346              		.loc 1 872 0
 2347 00a3 488B4C24 		movq	24(%rsp), %rcx
 2347      18
 871:fltk-1.3.4-1/png/pngget.c ****       *params = info_ptr->pcal_params;
 2348              		.loc 1 871 0
 2349 00a8 488902   		movq	%rax, (%rdx)
 2350              		.loc 1 872 0
 2351 00ab 488B8610 		movq	272(%rsi), %rax
 2351      010000
 2352 00b2 488901   		movq	%rax, (%rcx)
 873:fltk-1.3.4-1/png/pngget.c ****       return (PNG_INFO_pCAL);
 2353              		.loc 1 873 0
 2354 00b5 B8000400 		movl	$1024, %eax
 2354      00
 2355 00ba C3       		ret
 2356              	.LVL111:
 2357 00bb 0F1F4400 		.p2align 4,,10
 2357      00
 2358              		.p2align 3
 2359              	.L625:
 874:fltk-1.3.4-1/png/pngget.c ****    }
 875:fltk-1.3.4-1/png/pngget.c **** 
 876:fltk-1.3.4-1/png/pngget.c ****    return (0);
 2360              		.loc 1 876 0
 2361 00c0 31C0     		xorl	%eax, %eax
 2362              	.L621:
 877:fltk-1.3.4-1/png/pngget.c **** }
 2363              		.loc 1 877 0
 2364 00c2 F3C3     		rep ret
 2365              		.cfi_endproc
 2366              	.LFE100:
 2368              		.section	.text.unlikely.png_get_pCAL
 2369              	.LCOLDE48:
 2370              		.section	.text.png_get_pCAL
 2371              	.LHOTE48:
 2372              		.section	.rodata.str1.1,"aMS",@progbits,1
 2373              	.LC49:
 2374 0000 7343414C 		.string	"sCAL width"
 2374      20776964 
 2374      746800
 2375              	.LC50:
 2376 000b 7343414C 		.string	"sCAL height"
 2376      20686569 
 2376      67687400 
 2377              		.section	.text.unlikely.png_get_sCAL_fixed,"ax",@progbits
 2378              	.LCOLDB51:
 2379              		.section	.text.png_get_sCAL_fixed,"ax",@progbits
 2380              	.LHOTB51:
 2381              		.p2align 4,,15
 2382              		.globl	png_get_sCAL_fixed
 2384              	png_get_sCAL_fixed:
 2385              	.LFB101:
 878:fltk-1.3.4-1/png/pngget.c **** #endif
 879:fltk-1.3.4-1/png/pngget.c **** 
 880:fltk-1.3.4-1/png/pngget.c **** #ifdef PNG_sCAL_SUPPORTED
 881:fltk-1.3.4-1/png/pngget.c **** #  ifdef PNG_FIXED_POINT_SUPPORTED
 882:fltk-1.3.4-1/png/pngget.c **** #    if defined(PNG_FLOATING_ARITHMETIC_SUPPORTED) || \
 883:fltk-1.3.4-1/png/pngget.c ****          defined(PNG_FLOATING_POINT_SUPPORTED)
 884:fltk-1.3.4-1/png/pngget.c **** png_uint_32 PNGAPI
 885:fltk-1.3.4-1/png/pngget.c **** png_get_sCAL_fixed(png_const_structrp png_ptr, png_const_inforp info_ptr,
 886:fltk-1.3.4-1/png/pngget.c ****     int *unit, png_fixed_point *width, png_fixed_point *height)
 887:fltk-1.3.4-1/png/pngget.c **** {
 2386              		.loc 1 887 0
 2387              		.cfi_startproc
 2388              	.LVL112:
 888:fltk-1.3.4-1/png/pngget.c ****    if (png_ptr != NULL && info_ptr != NULL &&
 2389              		.loc 1 888 0
 2390 0000 4885FF   		testq	%rdi, %rdi
 2391 0003 0F848700 		je	.L655
 2391      0000
 2392 0009 4885F6   		testq	%rsi, %rsi
 2393 000c 0F847E00 		je	.L655
 2393      0000
 2394              		.loc 1 888 0 is_stmt 0 discriminator 1
 2395 0012 8B4608   		movl	8(%rsi), %eax
 2396 0015 25004000 		andl	$16384, %eax
 2396      00
 2397 001a 7504     		jne	.L668
 889:fltk-1.3.4-1/png/pngget.c ****        (info_ptr->valid & PNG_INFO_sCAL) != 0)
 890:fltk-1.3.4-1/png/pngget.c ****    {
 891:fltk-1.3.4-1/png/pngget.c ****       *unit = info_ptr->scal_unit;
 892:fltk-1.3.4-1/png/pngget.c ****       /*TODO: make this work without FP support; the API is currently eliminated
 893:fltk-1.3.4-1/png/pngget.c ****        * if neither floating point APIs nor internal floating point arithmetic
 894:fltk-1.3.4-1/png/pngget.c ****        * are enabled.
 895:fltk-1.3.4-1/png/pngget.c ****        */
 896:fltk-1.3.4-1/png/pngget.c ****       *width = png_fixed(png_ptr, atof(info_ptr->scal_s_width), "sCAL width");
 897:fltk-1.3.4-1/png/pngget.c ****       *height = png_fixed(png_ptr, atof(info_ptr->scal_s_height),
 898:fltk-1.3.4-1/png/pngget.c ****          "sCAL height");
 899:fltk-1.3.4-1/png/pngget.c ****       return (PNG_INFO_sCAL);
 900:fltk-1.3.4-1/png/pngget.c ****    }
 901:fltk-1.3.4-1/png/pngget.c **** 
 902:fltk-1.3.4-1/png/pngget.c ****    return(0);
 903:fltk-1.3.4-1/png/pngget.c **** }
 2398              		.loc 1 903 0 is_stmt 1
 2399 001c C3       		ret
 2400 001d 0F1F00   		.p2align 4,,10
 2401              		.p2align 3
 2402              	.L668:
 887:fltk-1.3.4-1/png/pngget.c ****    if (png_ptr != NULL && info_ptr != NULL &&
 2403              		.loc 1 887 0
 2404 0020 4155     		pushq	%r13
 2405              		.cfi_def_cfa_offset 16
 2406              		.cfi_offset 13, -16
 2407 0022 4154     		pushq	%r12
 2408              		.cfi_def_cfa_offset 24
 2409              		.cfi_offset 12, -24
 2410 0024 4D89C5   		movq	%r8, %r13
 2411 0027 55       		pushq	%rbp
 2412              		.cfi_def_cfa_offset 32
 2413              		.cfi_offset 6, -32
 2414 0028 53       		pushq	%rbx
 2415              		.cfi_def_cfa_offset 40
 2416              		.cfi_offset 3, -40
 2417 0029 4889FD   		movq	%rdi, %rbp
 2418 002c 4889F3   		movq	%rsi, %rbx
 2419 002f 4989CC   		movq	%rcx, %r12
 2420 0032 4883EC08 		subq	$8, %rsp
 2421              		.cfi_def_cfa_offset 48
 891:fltk-1.3.4-1/png/pngget.c ****       /*TODO: make this work without FP support; the API is currently eliminated
 2422              		.loc 1 891 0
 2423 0036 0FB6863C 		movzbl	316(%rsi), %eax
 2423      010000
 2424 003d 8902     		movl	%eax, (%rdx)
 2425              	.LVL113:
 2426              	.LBB55:
 2427              	.LBB56:
 2428              		.file 2 "/usr/include/x86_64-linux-gnu/bits/stdlib-float.h"
   1:/usr/include/x86_64-linux-gnu/bits/stdlib-float.h **** /* Floating-point inline functions for stdlib.h.
   2:/usr/include/x86_64-linux-gnu/bits/stdlib-float.h ****    Copyright (C) 2012-2016 Free Software Foundation, Inc.
   3:/usr/include/x86_64-linux-gnu/bits/stdlib-float.h ****    This file is part of the GNU C Library.
   4:/usr/include/x86_64-linux-gnu/bits/stdlib-float.h **** 
   5:/usr/include/x86_64-linux-gnu/bits/stdlib-float.h ****    The GNU C Library is free software; you can redistribute it and/or
   6:/usr/include/x86_64-linux-gnu/bits/stdlib-float.h ****    modify it under the terms of the GNU Lesser General Public
   7:/usr/include/x86_64-linux-gnu/bits/stdlib-float.h ****    License as published by the Free Software Foundation; either
   8:/usr/include/x86_64-linux-gnu/bits/stdlib-float.h ****    version 2.1 of the License, or (at your option) any later version.
   9:/usr/include/x86_64-linux-gnu/bits/stdlib-float.h **** 
  10:/usr/include/x86_64-linux-gnu/bits/stdlib-float.h ****    The GNU C Library is distributed in the hope that it will be useful,
  11:/usr/include/x86_64-linux-gnu/bits/stdlib-float.h ****    but WITHOUT ANY WARRANTY; without even the implied warranty of
  12:/usr/include/x86_64-linux-gnu/bits/stdlib-float.h ****    MERCHANTABILITY or FITNESS FOR A PARTICULAR PURPOSE.  See the GNU
  13:/usr/include/x86_64-linux-gnu/bits/stdlib-float.h ****    Lesser General Public License for more details.
  14:/usr/include/x86_64-linux-gnu/bits/stdlib-float.h **** 
  15:/usr/include/x86_64-linux-gnu/bits/stdlib-float.h ****    You should have received a copy of the GNU Lesser General Public
  16:/usr/include/x86_64-linux-gnu/bits/stdlib-float.h ****    License along with the GNU C Library; if not, see
  17:/usr/include/x86_64-linux-gnu/bits/stdlib-float.h ****    <http://www.gnu.org/licenses/>.  */
  18:/usr/include/x86_64-linux-gnu/bits/stdlib-float.h **** 
  19:/usr/include/x86_64-linux-gnu/bits/stdlib-float.h **** #ifndef _STDLIB_H
  20:/usr/include/x86_64-linux-gnu/bits/stdlib-float.h **** # error "Never use <bits/stdlib-float.h> directly; include <stdlib.h> instead."
  21:/usr/include/x86_64-linux-gnu/bits/stdlib-float.h **** #endif
  22:/usr/include/x86_64-linux-gnu/bits/stdlib-float.h **** 
  23:/usr/include/x86_64-linux-gnu/bits/stdlib-float.h **** #ifdef __USE_EXTERN_INLINES
  24:/usr/include/x86_64-linux-gnu/bits/stdlib-float.h **** __BEGIN_NAMESPACE_STD
  25:/usr/include/x86_64-linux-gnu/bits/stdlib-float.h **** __extern_inline double
  26:/usr/include/x86_64-linux-gnu/bits/stdlib-float.h **** __NTH (atof (const char *__nptr))
  27:/usr/include/x86_64-linux-gnu/bits/stdlib-float.h **** {
  28:/usr/include/x86_64-linux-gnu/bits/stdlib-float.h ****   return strtod (__nptr, (char **) NULL);
 2429              		.loc 2 28 0
 2430 003f 488BBE40 		movq	320(%rsi), %rdi
 2430      010000
 2431              	.LVL114:
 2432 0046 31F6     		xorl	%esi, %esi
 2433              	.LVL115:
 2434 0048 E8000000 		call	strtod
 2434      00
 2435              	.LVL116:
 2436              	.LBE56:
 2437              	.LBE55:
 896:fltk-1.3.4-1/png/pngget.c ****       *height = png_fixed(png_ptr, atof(info_ptr->scal_s_height),
 2438              		.loc 1 896 0
 2439 004d 4889EF   		movq	%rbp, %rdi
 2440 0050 BE000000 		movl	$.LC49, %esi
 2440      00
 2441 0055 E8000000 		call	png_fixed
 2441      00
 2442              	.LVL117:
 2443 005a 41890424 		movl	%eax, (%r12)
 2444              	.LVL118:
 2445              	.LBB57:
 2446              	.LBB58:
 2447              		.loc 2 28 0
 2448 005e 488BBB48 		movq	328(%rbx), %rdi
 2448      010000
 2449 0065 31F6     		xorl	%esi, %esi
 2450 0067 E8000000 		call	strtod
 2450      00
 2451              	.LVL119:
 2452              	.LBE58:
 2453              	.LBE57:
 897:fltk-1.3.4-1/png/pngget.c ****          "sCAL height");
 2454              		.loc 1 897 0
 2455 006c 4889EF   		movq	%rbp, %rdi
 2456 006f BE000000 		movl	$.LC50, %esi
 2456      00
 2457 0074 E8000000 		call	png_fixed
 2457      00
 2458              	.LVL120:
 2459 0079 41894500 		movl	%eax, 0(%r13)
 2460              		.loc 1 903 0
 2461 007d 4883C408 		addq	$8, %rsp
 2462              		.cfi_def_cfa_offset 40
 899:fltk-1.3.4-1/png/pngget.c ****    }
 2463              		.loc 1 899 0
 2464 0081 B8004000 		movl	$16384, %eax
 2464      00
 2465              		.loc 1 903 0
 2466 0086 5B       		popq	%rbx
 2467              		.cfi_restore 3
 2468              		.cfi_def_cfa_offset 32
 2469              	.LVL121:
 2470 0087 5D       		popq	%rbp
 2471              		.cfi_restore 6
 2472              		.cfi_def_cfa_offset 24
 2473              	.LVL122:
 2474 0088 415C     		popq	%r12
 2475              		.cfi_restore 12
 2476              		.cfi_def_cfa_offset 16
 2477              	.LVL123:
 2478 008a 415D     		popq	%r13
 2479              		.cfi_restore 13
 2480              		.cfi_def_cfa_offset 8
 2481              	.LVL124:
 2482 008c C3       		ret
 2483              	.LVL125:
 2484 008d 0F1F00   		.p2align 4,,10
 2485              		.p2align 3
 2486              	.L655:
 902:fltk-1.3.4-1/png/pngget.c **** }
 2487              		.loc 1 902 0
 2488 0090 31C0     		xorl	%eax, %eax
 2489 0092 C3       		ret
 2490              		.cfi_endproc
 2491              	.LFE101:
 2493              		.section	.text.unlikely.png_get_sCAL_fixed
 2494              	.LCOLDE51:
 2495              		.section	.text.png_get_sCAL_fixed
 2496              	.LHOTE51:
 2497              		.section	.text.unlikely.png_get_sCAL,"ax",@progbits
 2498              	.LCOLDB52:
 2499              		.section	.text.png_get_sCAL,"ax",@progbits
 2500              	.LHOTB52:
 2501              		.p2align 4,,15
 2502              		.globl	png_get_sCAL
 2504              	png_get_sCAL:
 2505              	.LFB102:
 904:fltk-1.3.4-1/png/pngget.c **** #    endif /* FLOATING_ARITHMETIC */
 905:fltk-1.3.4-1/png/pngget.c **** #  endif /* FIXED_POINT */
 906:fltk-1.3.4-1/png/pngget.c **** #  ifdef PNG_FLOATING_POINT_SUPPORTED
 907:fltk-1.3.4-1/png/pngget.c **** png_uint_32 PNGAPI
 908:fltk-1.3.4-1/png/pngget.c **** png_get_sCAL(png_const_structrp png_ptr, png_const_inforp info_ptr,
 909:fltk-1.3.4-1/png/pngget.c ****     int *unit, double *width, double *height)
 910:fltk-1.3.4-1/png/pngget.c **** {
 2506              		.loc 1 910 0
 2507              		.cfi_startproc
 2508              	.LVL126:
 911:fltk-1.3.4-1/png/pngget.c ****    if (png_ptr != NULL && info_ptr != NULL &&
 2509              		.loc 1 911 0
 2510 0000 4885FF   		testq	%rdi, %rdi
 2511 0003 745B     		je	.L671
 2512 0005 4885F6   		testq	%rsi, %rsi
 2513 0008 7456     		je	.L671
 2514              		.loc 1 911 0 is_stmt 0 discriminator 1
 2515 000a 8B4608   		movl	8(%rsi), %eax
 2516 000d 25004000 		andl	$16384, %eax
 2516      00
 2517 0012 7504     		jne	.L684
 912:fltk-1.3.4-1/png/pngget.c ****        (info_ptr->valid & PNG_INFO_sCAL) != 0)
 913:fltk-1.3.4-1/png/pngget.c ****    {
 914:fltk-1.3.4-1/png/pngget.c ****       *unit = info_ptr->scal_unit;
 915:fltk-1.3.4-1/png/pngget.c ****       *width = atof(info_ptr->scal_s_width);
 916:fltk-1.3.4-1/png/pngget.c ****       *height = atof(info_ptr->scal_s_height);
 917:fltk-1.3.4-1/png/pngget.c ****       return (PNG_INFO_sCAL);
 918:fltk-1.3.4-1/png/pngget.c ****    }
 919:fltk-1.3.4-1/png/pngget.c **** 
 920:fltk-1.3.4-1/png/pngget.c ****    return(0);
 921:fltk-1.3.4-1/png/pngget.c **** }
 2518              		.loc 1 921 0 is_stmt 1
 2519 0014 C3       		ret
 2520              		.p2align 4,,10
 2521 0015 0F1F00   		.p2align 3
 2522              	.L684:
 910:fltk-1.3.4-1/png/pngget.c ****    if (png_ptr != NULL && info_ptr != NULL &&
 2523              		.loc 1 910 0
 2524 0018 4154     		pushq	%r12
 2525              		.cfi_def_cfa_offset 16
 2526              		.cfi_offset 12, -16
 2527 001a 55       		pushq	%rbp
 2528              		.cfi_def_cfa_offset 24
 2529              		.cfi_offset 6, -24
 2530 001b 4989CC   		movq	%rcx, %r12
 2531 001e 53       		pushq	%rbx
 2532              		.cfi_def_cfa_offset 32
 2533              		.cfi_offset 3, -32
 914:fltk-1.3.4-1/png/pngget.c ****       *width = atof(info_ptr->scal_s_width);
 2534              		.loc 1 914 0
 2535 001f 0FB6863C 		movzbl	316(%rsi), %eax
 2535      010000
 2536 0026 4889F3   		movq	%rsi, %rbx
 2537 0029 4C89C5   		movq	%r8, %rbp
 2538 002c 8902     		movl	%eax, (%rdx)
 2539              	.LVL127:
 2540              	.LBB59:
 2541              	.LBB60:
 2542              		.loc 2 28 0
 2543 002e 488BBE40 		movq	320(%rsi), %rdi
 2543      010000
 2544              	.LVL128:
 2545 0035 31F6     		xorl	%esi, %esi
 2546              	.LVL129:
 2547 0037 E8000000 		call	strtod
 2547      00
 2548              	.LVL130:
 2549              	.LBE60:
 2550              	.LBE59:
 915:fltk-1.3.4-1/png/pngget.c ****       *height = atof(info_ptr->scal_s_height);
 2551              		.loc 1 915 0
 2552 003c F2410F11 		movsd	%xmm0, (%r12)
 2552      0424
 2553              	.LVL131:
 2554              	.LBB61:
 2555              	.LBB62:
 2556              		.loc 2 28 0
 2557 0042 488BBB48 		movq	328(%rbx), %rdi
 2557      010000
 2558 0049 31F6     		xorl	%esi, %esi
 2559 004b E8000000 		call	strtod
 2559      00
 2560              	.LVL132:
 2561              	.LBE62:
 2562              	.LBE61:
 917:fltk-1.3.4-1/png/pngget.c ****    }
 2563              		.loc 1 917 0
 2564 0050 B8004000 		movl	$16384, %eax
 2564      00
 916:fltk-1.3.4-1/png/pngget.c ****       return (PNG_INFO_sCAL);
 2565              		.loc 1 916 0
 2566 0055 F20F1145 		movsd	%xmm0, 0(%rbp)
 2566      00
 2567              		.loc 1 921 0
 2568 005a 5B       		popq	%rbx
 2569              		.cfi_restore 3
 2570              		.cfi_def_cfa_offset 24
 2571              	.LVL133:
 2572 005b 5D       		popq	%rbp
 2573              		.cfi_restore 6
 2574              		.cfi_def_cfa_offset 16
 2575              	.LVL134:
 2576 005c 415C     		popq	%r12
 2577              		.cfi_restore 12
 2578              		.cfi_def_cfa_offset 8
 2579              	.LVL135:
 2580 005e C3       		ret
 2581              	.LVL136:
 2582 005f 90       		.p2align 4,,10
 2583              		.p2align 3
 2584              	.L671:
 920:fltk-1.3.4-1/png/pngget.c **** }
 2585              		.loc 1 920 0
 2586 0060 31C0     		xorl	%eax, %eax
 2587 0062 C3       		ret
 2588              		.cfi_endproc
 2589              	.LFE102:
 2591              		.section	.text.unlikely.png_get_sCAL
 2592              	.LCOLDE52:
 2593              		.section	.text.png_get_sCAL
 2594              	.LHOTE52:
 2595              		.section	.text.unlikely.png_get_sCAL_s,"ax",@progbits
 2596              	.LCOLDB53:
 2597              		.section	.text.png_get_sCAL_s,"ax",@progbits
 2598              	.LHOTB53:
 2599              		.p2align 4,,15
 2600              		.globl	png_get_sCAL_s
 2602              	png_get_sCAL_s:
 2603              	.LFB103:
 922:fltk-1.3.4-1/png/pngget.c **** #  endif /* FLOATING POINT */
 923:fltk-1.3.4-1/png/pngget.c **** png_uint_32 PNGAPI
 924:fltk-1.3.4-1/png/pngget.c **** png_get_sCAL_s(png_const_structrp png_ptr, png_const_inforp info_ptr,
 925:fltk-1.3.4-1/png/pngget.c ****     int *unit, png_charpp width, png_charpp height)
 926:fltk-1.3.4-1/png/pngget.c **** {
 2604              		.loc 1 926 0
 2605              		.cfi_startproc
 2606              	.LVL137:
 927:fltk-1.3.4-1/png/pngget.c ****    if (png_ptr != NULL && info_ptr != NULL &&
 2607              		.loc 1 927 0
 2608 0000 4885FF   		testq	%rdi, %rdi
 2609 0003 743B     		je	.L687
 2610 0005 4885F6   		testq	%rsi, %rsi
 2611 0008 7436     		je	.L687
 2612              		.loc 1 927 0 is_stmt 0 discriminator 1
 2613 000a 8B4608   		movl	8(%rsi), %eax
 2614 000d 25004000 		andl	$16384, %eax
 2614      00
 2615 0012 742E     		je	.L686
 928:fltk-1.3.4-1/png/pngget.c ****        (info_ptr->valid & PNG_INFO_sCAL) != 0)
 929:fltk-1.3.4-1/png/pngget.c ****    {
 930:fltk-1.3.4-1/png/pngget.c ****       *unit = info_ptr->scal_unit;
 2616              		.loc 1 930 0 is_stmt 1
 2617 0014 0FB6863C 		movzbl	316(%rsi), %eax
 2617      010000
 2618 001b 8902     		movl	%eax, (%rdx)
 931:fltk-1.3.4-1/png/pngget.c ****       *width = info_ptr->scal_s_width;
 2619              		.loc 1 931 0
 2620 001d 488B8640 		movq	320(%rsi), %rax
 2620      010000
 2621 0024 488901   		movq	%rax, (%rcx)
 932:fltk-1.3.4-1/png/pngget.c ****       *height = info_ptr->scal_s_height;
 2622              		.loc 1 932 0
 2623 0027 488B8648 		movq	328(%rsi), %rax
 2623      010000
 2624 002e 498900   		movq	%rax, (%r8)
 933:fltk-1.3.4-1/png/pngget.c ****       return (PNG_INFO_sCAL);
 2625              		.loc 1 933 0
 2626 0031 B8004000 		movl	$16384, %eax
 2626      00
 2627 0036 C3       		ret
 2628 0037 660F1F84 		.p2align 4,,10
 2628      00000000 
 2628      00
 2629              		.p2align 3
 2630              	.L687:
 934:fltk-1.3.4-1/png/pngget.c ****    }
 935:fltk-1.3.4-1/png/pngget.c **** 
 936:fltk-1.3.4-1/png/pngget.c ****    return(0);
 2631              		.loc 1 936 0
 2632 0040 31C0     		xorl	%eax, %eax
 2633              	.L686:
 937:fltk-1.3.4-1/png/pngget.c **** }
 2634              		.loc 1 937 0
 2635 0042 F3C3     		rep ret
 2636              		.cfi_endproc
 2637              	.LFE103:
 2639              		.section	.text.unlikely.png_get_sCAL_s
 2640              	.LCOLDE53:
 2641              		.section	.text.png_get_sCAL_s
 2642              	.LHOTE53:
 2643              		.section	.text.unlikely.png_get_pHYs,"ax",@progbits
 2644              	.LCOLDB54:
 2645              		.section	.text.png_get_pHYs,"ax",@progbits
 2646              	.LHOTB54:
 2647              		.p2align 4,,15
 2648              		.globl	png_get_pHYs
 2650              	png_get_pHYs:
 2651              	.LFB104:
 938:fltk-1.3.4-1/png/pngget.c **** #endif /* sCAL */
 939:fltk-1.3.4-1/png/pngget.c **** 
 940:fltk-1.3.4-1/png/pngget.c **** #ifdef PNG_pHYs_SUPPORTED
 941:fltk-1.3.4-1/png/pngget.c **** png_uint_32 PNGAPI
 942:fltk-1.3.4-1/png/pngget.c **** png_get_pHYs(png_const_structrp png_ptr, png_const_inforp info_ptr,
 943:fltk-1.3.4-1/png/pngget.c ****     png_uint_32 *res_x, png_uint_32 *res_y, int *unit_type)
 944:fltk-1.3.4-1/png/pngget.c **** {
 2652              		.loc 1 944 0
 2653              		.cfi_startproc
 2654              	.LVL138:
 945:fltk-1.3.4-1/png/pngget.c ****    png_uint_32 retval = 0;
 2655              		.loc 1 945 0
 2656 0000 31C0     		xorl	%eax, %eax
 946:fltk-1.3.4-1/png/pngget.c **** 
 947:fltk-1.3.4-1/png/pngget.c ****    png_debug1(1, "in %s retrieval function", "pHYs");
 948:fltk-1.3.4-1/png/pngget.c **** 
 949:fltk-1.3.4-1/png/pngget.c ****    if (png_ptr != NULL && info_ptr != NULL &&
 2657              		.loc 1 949 0
 2658 0002 4885FF   		testq	%rdi, %rdi
 2659 0005 7449     		je	.L698
 2660 0007 4885F6   		testq	%rsi, %rsi
 2661 000a 7444     		je	.L698
 2662              		.loc 1 949 0 is_stmt 0 discriminator 1
 2663 000c F6460880 		testb	$-128, 8(%rsi)
 2664 0010 743E     		je	.L698
 950:fltk-1.3.4-1/png/pngget.c ****        (info_ptr->valid & PNG_INFO_pHYs) != 0)
 951:fltk-1.3.4-1/png/pngget.c ****    {
 952:fltk-1.3.4-1/png/pngget.c ****       if (res_x != NULL)
 2665              		.loc 1 952 0 is_stmt 1
 2666 0012 4885D2   		testq	%rdx, %rdx
 2667 0015 740D     		je	.L699
 953:fltk-1.3.4-1/png/pngget.c ****       {
 954:fltk-1.3.4-1/png/pngget.c ****          *res_x = info_ptr->x_pixels_per_unit;
 2668              		.loc 1 954 0
 2669 0017 8B86E000 		movl	224(%rsi), %eax
 2669      0000
 2670 001d 8902     		movl	%eax, (%rdx)
 2671              	.LVL139:
 955:fltk-1.3.4-1/png/pngget.c ****          retval |= PNG_INFO_pHYs;
 2672              		.loc 1 955 0
 2673 001f B8800000 		movl	$128, %eax
 2673      00
 2674              	.LVL140:
 2675              	.L699:
 956:fltk-1.3.4-1/png/pngget.c ****       }
 957:fltk-1.3.4-1/png/pngget.c **** 
 958:fltk-1.3.4-1/png/pngget.c ****       if (res_y != NULL)
 2676              		.loc 1 958 0
 2677 0024 4885C9   		testq	%rcx, %rcx
 2678 0027 740D     		je	.L700
 959:fltk-1.3.4-1/png/pngget.c ****       {
 960:fltk-1.3.4-1/png/pngget.c ****          *res_y = info_ptr->y_pixels_per_unit;
 2679              		.loc 1 960 0
 2680 0029 8B86E400 		movl	228(%rsi), %eax
 2680      0000
 2681              	.LVL141:
 2682 002f 8901     		movl	%eax, (%rcx)
 2683              	.LVL142:
 961:fltk-1.3.4-1/png/pngget.c ****          retval |= PNG_INFO_pHYs;
 2684              		.loc 1 961 0
 2685 0031 B8800000 		movl	$128, %eax
 2685      00
 2686              	.LVL143:
 2687              	.L700:
 962:fltk-1.3.4-1/png/pngget.c ****       }
 963:fltk-1.3.4-1/png/pngget.c **** 
 964:fltk-1.3.4-1/png/pngget.c ****       if (unit_type != NULL)
 2688              		.loc 1 964 0
 2689 0036 4D85C0   		testq	%r8, %r8
 2690 0039 7415     		je	.L698
 965:fltk-1.3.4-1/png/pngget.c ****       {
 966:fltk-1.3.4-1/png/pngget.c ****          *unit_type = (int)info_ptr->phys_unit_type;
 2691              		.loc 1 966 0
 2692 003b 0FB686E8 		movzbl	232(%rsi), %eax
 2692      000000
 2693              	.LVL144:
 2694 0042 418900   		movl	%eax, (%r8)
 2695              	.LVL145:
 967:fltk-1.3.4-1/png/pngget.c ****          retval |= PNG_INFO_pHYs;
 2696              		.loc 1 967 0
 2697 0045 B8800000 		movl	$128, %eax
 2697      00
 2698 004a C3       		ret
 2699              	.LVL146:
 2700 004b 0F1F4400 		.p2align 4,,10
 2700      00
 2701              		.p2align 3
 2702              	.L698:
 968:fltk-1.3.4-1/png/pngget.c ****       }
 969:fltk-1.3.4-1/png/pngget.c ****    }
 970:fltk-1.3.4-1/png/pngget.c **** 
 971:fltk-1.3.4-1/png/pngget.c ****    return (retval);
 972:fltk-1.3.4-1/png/pngget.c **** }
 2703              		.loc 1 972 0
 2704 0050 F3C3     		rep ret
 2705              		.cfi_endproc
 2706              	.LFE104:
 2708              		.section	.text.unlikely.png_get_pHYs
 2709              	.LCOLDE54:
 2710              		.section	.text.png_get_pHYs
 2711              	.LHOTE54:
 2712              		.section	.text.unlikely.png_get_PLTE,"ax",@progbits
 2713              	.LCOLDB55:
 2714              		.section	.text.png_get_PLTE,"ax",@progbits
 2715              	.LHOTB55:
 2716              		.p2align 4,,15
 2717              		.globl	png_get_PLTE
 2719              	png_get_PLTE:
 2720              	.LFB105:
 973:fltk-1.3.4-1/png/pngget.c **** #endif /* pHYs */
 974:fltk-1.3.4-1/png/pngget.c **** 
 975:fltk-1.3.4-1/png/pngget.c **** png_uint_32 PNGAPI
 976:fltk-1.3.4-1/png/pngget.c **** png_get_PLTE(png_const_structrp png_ptr, png_inforp info_ptr,
 977:fltk-1.3.4-1/png/pngget.c ****     png_colorp *palette, int *num_palette)
 978:fltk-1.3.4-1/png/pngget.c **** {
 2721              		.loc 1 978 0
 2722              		.cfi_startproc
 2723              	.LVL147:
 979:fltk-1.3.4-1/png/pngget.c ****    png_debug1(1, "in %s retrieval function", "PLTE");
 980:fltk-1.3.4-1/png/pngget.c **** 
 981:fltk-1.3.4-1/png/pngget.c ****    if (png_ptr != NULL && info_ptr != NULL &&
 2724              		.loc 1 981 0
 2725 0000 4885FF   		testq	%rdi, %rdi
 2726 0003 742B     		je	.L720
 2727 0005 4885F6   		testq	%rsi, %rsi
 2728 0008 7426     		je	.L720
 982:fltk-1.3.4-1/png/pngget.c ****        (info_ptr->valid & PNG_INFO_PLTE) != 0 && palette != NULL)
 2729              		.loc 1 982 0 discriminator 1
 2730 000a F6460808 		testb	$8, 8(%rsi)
 2731 000e 7420     		je	.L720
 2732 0010 4885D2   		testq	%rdx, %rdx
 2733 0013 741B     		je	.L720
 983:fltk-1.3.4-1/png/pngget.c ****    {
 984:fltk-1.3.4-1/png/pngget.c ****       *palette = info_ptr->palette;
 2734              		.loc 1 984 0
 2735 0015 488B4618 		movq	24(%rsi), %rax
 2736 0019 488902   		movq	%rax, (%rdx)
 985:fltk-1.3.4-1/png/pngget.c ****       *num_palette = info_ptr->num_palette;
 2737              		.loc 1 985 0
 2738 001c 0FB74620 		movzwl	32(%rsi), %eax
 2739 0020 8901     		movl	%eax, (%rcx)
 986:fltk-1.3.4-1/png/pngget.c ****       png_debug1(3, "num_palette = %d", *num_palette);
 987:fltk-1.3.4-1/png/pngget.c ****       return (PNG_INFO_PLTE);
 2740              		.loc 1 987 0
 2741 0022 B8080000 		movl	$8, %eax
 2741      00
 2742 0027 C3       		ret
 2743 0028 0F1F8400 		.p2align 4,,10
 2743      00000000 
 2744              		.p2align 3
 2745              	.L720:
 988:fltk-1.3.4-1/png/pngget.c ****    }
 989:fltk-1.3.4-1/png/pngget.c **** 
 990:fltk-1.3.4-1/png/pngget.c ****    return (0);
 2746              		.loc 1 990 0
 2747 0030 31C0     		xorl	%eax, %eax
 991:fltk-1.3.4-1/png/pngget.c **** }
 2748              		.loc 1 991 0
 2749 0032 C3       		ret
 2750              		.cfi_endproc
 2751              	.LFE105:
 2753              		.section	.text.unlikely.png_get_PLTE
 2754              	.LCOLDE55:
 2755              		.section	.text.png_get_PLTE
 2756              	.LHOTE55:
 2757              		.section	.text.unlikely.png_get_sBIT,"ax",@progbits
 2758              	.LCOLDB56:
 2759              		.section	.text.png_get_sBIT,"ax",@progbits
 2760              	.LHOTB56:
 2761              		.p2align 4,,15
 2762              		.globl	png_get_sBIT
 2764              	png_get_sBIT:
 2765              	.LFB106:
 992:fltk-1.3.4-1/png/pngget.c **** 
 993:fltk-1.3.4-1/png/pngget.c **** #ifdef PNG_sBIT_SUPPORTED
 994:fltk-1.3.4-1/png/pngget.c **** png_uint_32 PNGAPI
 995:fltk-1.3.4-1/png/pngget.c **** png_get_sBIT(png_const_structrp png_ptr, png_inforp info_ptr,
 996:fltk-1.3.4-1/png/pngget.c ****     png_color_8p *sig_bit)
 997:fltk-1.3.4-1/png/pngget.c **** {
 2766              		.loc 1 997 0
 2767              		.cfi_startproc
 2768              	.LVL148:
 998:fltk-1.3.4-1/png/pngget.c ****    png_debug1(1, "in %s retrieval function", "sBIT");
 999:fltk-1.3.4-1/png/pngget.c **** 
1000:fltk-1.3.4-1/png/pngget.c ****    if (png_ptr != NULL && info_ptr != NULL &&
 2769              		.loc 1 1000 0
 2770 0000 4885FF   		testq	%rdi, %rdi
 2771 0003 7423     		je	.L736
 2772 0005 4885F6   		testq	%rsi, %rsi
 2773 0008 741E     		je	.L736
1001:fltk-1.3.4-1/png/pngget.c ****        (info_ptr->valid & PNG_INFO_sBIT) != 0 && sig_bit != NULL)
 2774              		.loc 1 1001 0 discriminator 1
 2775 000a F6460802 		testb	$2, 8(%rsi)
 2776 000e 7418     		je	.L736
 2777 0010 4885D2   		testq	%rdx, %rdx
 2778 0013 7413     		je	.L736
1002:fltk-1.3.4-1/png/pngget.c ****    {
1003:fltk-1.3.4-1/png/pngget.c ****       *sig_bit = &(info_ptr->sig_bit);
 2779              		.loc 1 1003 0
 2780 0015 4881C6B0 		addq	$176, %rsi
 2780      000000
 2781              	.LVL149:
1004:fltk-1.3.4-1/png/pngget.c ****       return (PNG_INFO_sBIT);
 2782              		.loc 1 1004 0
 2783 001c B8020000 		movl	$2, %eax
 2783      00
1003:fltk-1.3.4-1/png/pngget.c ****       return (PNG_INFO_sBIT);
 2784              		.loc 1 1003 0
 2785 0021 488932   		movq	%rsi, (%rdx)
 2786              		.loc 1 1004 0
 2787 0024 C3       		ret
 2788              	.LVL150:
 2789              		.p2align 4,,10
 2790 0025 0F1F00   		.p2align 3
 2791              	.L736:
1005:fltk-1.3.4-1/png/pngget.c ****    }
1006:fltk-1.3.4-1/png/pngget.c **** 
1007:fltk-1.3.4-1/png/pngget.c ****    return (0);
 2792              		.loc 1 1007 0
 2793 0028 31C0     		xorl	%eax, %eax
1008:fltk-1.3.4-1/png/pngget.c **** }
 2794              		.loc 1 1008 0
 2795 002a C3       		ret
 2796              		.cfi_endproc
 2797              	.LFE106:
 2799              		.section	.text.unlikely.png_get_sBIT
 2800              	.LCOLDE56:
 2801              		.section	.text.png_get_sBIT
 2802              	.LHOTE56:
 2803              		.section	.text.unlikely.png_get_text,"ax",@progbits
 2804              	.LCOLDB57:
 2805              		.section	.text.png_get_text,"ax",@progbits
 2806              	.LHOTB57:
 2807              		.p2align 4,,15
 2808              		.globl	png_get_text
 2810              	png_get_text:
 2811              	.LFB107:
1009:fltk-1.3.4-1/png/pngget.c **** #endif
1010:fltk-1.3.4-1/png/pngget.c **** 
1011:fltk-1.3.4-1/png/pngget.c **** #ifdef PNG_TEXT_SUPPORTED
1012:fltk-1.3.4-1/png/pngget.c **** int PNGAPI
1013:fltk-1.3.4-1/png/pngget.c **** png_get_text(png_const_structrp png_ptr, png_inforp info_ptr,
1014:fltk-1.3.4-1/png/pngget.c ****     png_textp *text_ptr, int *num_text)
1015:fltk-1.3.4-1/png/pngget.c **** {
 2812              		.loc 1 1015 0
 2813              		.cfi_startproc
 2814              	.LVL151:
1016:fltk-1.3.4-1/png/pngget.c ****    if (png_ptr != NULL && info_ptr != NULL && info_ptr->num_text > 0)
 2815              		.loc 1 1016 0
 2816 0000 4885FF   		testq	%rdi, %rdi
 2817 0003 743B     		je	.L750
 2818 0005 4885F6   		testq	%rsi, %rsi
 2819 0008 7436     		je	.L750
 2820              		.loc 1 1016 0 is_stmt 0 discriminator 1
 2821 000a 8B869400 		movl	148(%rsi), %eax
 2821      0000
 2822 0010 85C0     		testl	%eax, %eax
 2823 0012 7E2C     		jle	.L750
1017:fltk-1.3.4-1/png/pngget.c ****    {
1018:fltk-1.3.4-1/png/pngget.c ****       png_debug1(1, "in 0x%lx retrieval function",
1019:fltk-1.3.4-1/png/pngget.c ****          (unsigned long)png_ptr->chunk_name);
1020:fltk-1.3.4-1/png/pngget.c **** 
1021:fltk-1.3.4-1/png/pngget.c ****       if (text_ptr != NULL)
 2824              		.loc 1 1021 0 is_stmt 1
 2825 0014 4885D2   		testq	%rdx, %rdx
 2826 0017 7410     		je	.L751
1022:fltk-1.3.4-1/png/pngget.c ****          *text_ptr = info_ptr->text;
 2827              		.loc 1 1022 0
 2828 0019 488B86A0 		movq	160(%rsi), %rax
 2828      000000
 2829 0020 488902   		movq	%rax, (%rdx)
 2830 0023 8B869400 		movl	148(%rsi), %eax
 2830      0000
 2831              	.L751:
1023:fltk-1.3.4-1/png/pngget.c **** 
1024:fltk-1.3.4-1/png/pngget.c ****       if (num_text != NULL)
 2832              		.loc 1 1024 0
 2833 0029 4885C9   		testq	%rcx, %rcx
 2834 002c 7424     		je	.L753
1025:fltk-1.3.4-1/png/pngget.c ****          *num_text = info_ptr->num_text;
 2835              		.loc 1 1025 0
 2836 002e 8901     		movl	%eax, (%rcx)
 2837 0030 8B869400 		movl	148(%rsi), %eax
 2837      0000
1026:fltk-1.3.4-1/png/pngget.c **** 
1027:fltk-1.3.4-1/png/pngget.c ****       return info_ptr->num_text;
 2838              		.loc 1 1027 0
 2839 0036 C3       		ret
 2840 0037 660F1F84 		.p2align 4,,10
 2840      00000000 
 2840      00
 2841              		.p2align 3
 2842              	.L750:
1028:fltk-1.3.4-1/png/pngget.c ****    }
1029:fltk-1.3.4-1/png/pngget.c **** 
1030:fltk-1.3.4-1/png/pngget.c ****    if (num_text != NULL)
 2843              		.loc 1 1030 0
 2844 0040 4885C9   		testq	%rcx, %rcx
 2845 0043 740B     		je	.L754
1031:fltk-1.3.4-1/png/pngget.c ****       *num_text = 0;
 2846              		.loc 1 1031 0
 2847 0045 C7010000 		movl	$0, (%rcx)
 2847      0000
1032:fltk-1.3.4-1/png/pngget.c **** 
1033:fltk-1.3.4-1/png/pngget.c ****    return(0);
 2848              		.loc 1 1033 0
 2849 004b 31C0     		xorl	%eax, %eax
 2850 004d C3       		ret
 2851 004e 6690     		.p2align 4,,10
 2852              		.p2align 3
 2853              	.L754:
 2854 0050 31C0     		xorl	%eax, %eax
 2855              	.L753:
1034:fltk-1.3.4-1/png/pngget.c **** }
 2856              		.loc 1 1034 0
 2857 0052 F3C3     		rep ret
 2858              		.cfi_endproc
 2859              	.LFE107:
 2861              		.section	.text.unlikely.png_get_text
 2862              	.LCOLDE57:
 2863              		.section	.text.png_get_text
 2864              	.LHOTE57:
 2865              		.section	.text.unlikely.png_get_tIME,"ax",@progbits
 2866              	.LCOLDB58:
 2867              		.section	.text.png_get_tIME,"ax",@progbits
 2868              	.LHOTB58:
 2869              		.p2align 4,,15
 2870              		.globl	png_get_tIME
 2872              	png_get_tIME:
 2873              	.LFB108:
1035:fltk-1.3.4-1/png/pngget.c **** #endif
1036:fltk-1.3.4-1/png/pngget.c **** 
1037:fltk-1.3.4-1/png/pngget.c **** #ifdef PNG_tIME_SUPPORTED
1038:fltk-1.3.4-1/png/pngget.c **** png_uint_32 PNGAPI
1039:fltk-1.3.4-1/png/pngget.c **** png_get_tIME(png_const_structrp png_ptr, png_inforp info_ptr,
1040:fltk-1.3.4-1/png/pngget.c ****     png_timep *mod_time)
1041:fltk-1.3.4-1/png/pngget.c **** {
 2874              		.loc 1 1041 0
 2875              		.cfi_startproc
 2876              	.LVL152:
1042:fltk-1.3.4-1/png/pngget.c ****    png_debug1(1, "in %s retrieval function", "tIME");
1043:fltk-1.3.4-1/png/pngget.c **** 
1044:fltk-1.3.4-1/png/pngget.c ****    if (png_ptr != NULL && info_ptr != NULL &&
 2877              		.loc 1 1044 0
 2878 0000 4885FF   		testq	%rdi, %rdi
 2879 0003 7423     		je	.L770
 2880 0005 4885F6   		testq	%rsi, %rsi
 2881 0008 741E     		je	.L770
1045:fltk-1.3.4-1/png/pngget.c ****        (info_ptr->valid & PNG_INFO_tIME) != 0 && mod_time != NULL)
 2882              		.loc 1 1045 0 discriminator 1
 2883 000a F6460902 		testb	$2, 9(%rsi)
 2884 000e 7418     		je	.L770
 2885 0010 4885D2   		testq	%rdx, %rdx
 2886 0013 7413     		je	.L770
1046:fltk-1.3.4-1/png/pngget.c ****    {
1047:fltk-1.3.4-1/png/pngget.c ****       *mod_time = &(info_ptr->mod_time);
 2887              		.loc 1 1047 0
 2888 0015 4881C6A8 		addq	$168, %rsi
 2888      000000
 2889              	.LVL153:
1048:fltk-1.3.4-1/png/pngget.c ****       return (PNG_INFO_tIME);
 2890              		.loc 1 1048 0
 2891 001c B8000200 		movl	$512, %eax
 2891      00
1047:fltk-1.3.4-1/png/pngget.c ****       return (PNG_INFO_tIME);
 2892              		.loc 1 1047 0
 2893 0021 488932   		movq	%rsi, (%rdx)
 2894              		.loc 1 1048 0
 2895 0024 C3       		ret
 2896              	.LVL154:
 2897              		.p2align 4,,10
 2898 0025 0F1F00   		.p2align 3
 2899              	.L770:
1049:fltk-1.3.4-1/png/pngget.c ****    }
1050:fltk-1.3.4-1/png/pngget.c **** 
1051:fltk-1.3.4-1/png/pngget.c ****    return (0);
 2900              		.loc 1 1051 0
 2901 0028 31C0     		xorl	%eax, %eax
1052:fltk-1.3.4-1/png/pngget.c **** }
 2902              		.loc 1 1052 0
 2903 002a C3       		ret
 2904              		.cfi_endproc
 2905              	.LFE108:
 2907              		.section	.text.unlikely.png_get_tIME
 2908              	.LCOLDE58:
 2909              		.section	.text.png_get_tIME
 2910              	.LHOTE58:
 2911              		.section	.text.unlikely.png_get_tRNS,"ax",@progbits
 2912              	.LCOLDB59:
 2913              		.section	.text.png_get_tRNS,"ax",@progbits
 2914              	.LHOTB59:
 2915              		.p2align 4,,15
 2916              		.globl	png_get_tRNS
 2918              	png_get_tRNS:
 2919              	.LFB109:
1053:fltk-1.3.4-1/png/pngget.c **** #endif
1054:fltk-1.3.4-1/png/pngget.c **** 
1055:fltk-1.3.4-1/png/pngget.c **** #ifdef PNG_tRNS_SUPPORTED
1056:fltk-1.3.4-1/png/pngget.c **** png_uint_32 PNGAPI
1057:fltk-1.3.4-1/png/pngget.c **** png_get_tRNS(png_const_structrp png_ptr, png_inforp info_ptr,
1058:fltk-1.3.4-1/png/pngget.c ****     png_bytep *trans_alpha, int *num_trans, png_color_16p *trans_color)
1059:fltk-1.3.4-1/png/pngget.c **** {
 2920              		.loc 1 1059 0
 2921              		.cfi_startproc
 2922              	.LVL155:
1060:fltk-1.3.4-1/png/pngget.c ****    png_uint_32 retval = 0;
 2923              		.loc 1 1060 0
 2924 0000 31C0     		xorl	%eax, %eax
1061:fltk-1.3.4-1/png/pngget.c ****    if (png_ptr != NULL && info_ptr != NULL &&
 2925              		.loc 1 1061 0
 2926 0002 4885FF   		testq	%rdi, %rdi
 2927 0005 7449     		je	.L784
 2928 0007 4885F6   		testq	%rsi, %rsi
 2929 000a 7444     		je	.L784
 2930              		.loc 1 1061 0 is_stmt 0 discriminator 1
 2931 000c F6460810 		testb	$16, 8(%rsi)
 2932 0010 743E     		je	.L784
1062:fltk-1.3.4-1/png/pngget.c ****        (info_ptr->valid & PNG_INFO_tRNS) != 0)
1063:fltk-1.3.4-1/png/pngget.c ****    {
1064:fltk-1.3.4-1/png/pngget.c ****       png_debug1(1, "in %s retrieval function", "tRNS");
1065:fltk-1.3.4-1/png/pngget.c **** 
1066:fltk-1.3.4-1/png/pngget.c ****       if (info_ptr->color_type == PNG_COLOR_TYPE_PALETTE)
 2933              		.loc 1 1066 0 is_stmt 1
 2934 0012 807E2503 		cmpb	$3, 37(%rsi)
 2935 0016 7440     		je	.L809
1067:fltk-1.3.4-1/png/pngget.c ****       {
1068:fltk-1.3.4-1/png/pngget.c ****          if (trans_alpha != NULL)
1069:fltk-1.3.4-1/png/pngget.c ****          {
1070:fltk-1.3.4-1/png/pngget.c ****             *trans_alpha = info_ptr->trans_alpha;
1071:fltk-1.3.4-1/png/pngget.c ****             retval |= PNG_INFO_tRNS;
1072:fltk-1.3.4-1/png/pngget.c ****          }
1073:fltk-1.3.4-1/png/pngget.c **** 
1074:fltk-1.3.4-1/png/pngget.c ****          if (trans_color != NULL)
1075:fltk-1.3.4-1/png/pngget.c ****             *trans_color = &(info_ptr->trans_color);
1076:fltk-1.3.4-1/png/pngget.c ****       }
1077:fltk-1.3.4-1/png/pngget.c **** 
1078:fltk-1.3.4-1/png/pngget.c ****       else /* if (info_ptr->color_type != PNG_COLOR_TYPE_PALETTE) */
1079:fltk-1.3.4-1/png/pngget.c ****       {
1080:fltk-1.3.4-1/png/pngget.c ****          if (trans_color != NULL)
 2936              		.loc 1 1080 0
 2937 0018 4D85C0   		testq	%r8, %r8
 2938 001b 740F     		je	.L788
1081:fltk-1.3.4-1/png/pngget.c ****          {
1082:fltk-1.3.4-1/png/pngget.c ****             *trans_color = &(info_ptr->trans_color);
 2939              		.loc 1 1082 0
 2940 001d 488D86C0 		leaq	192(%rsi), %rax
 2940      000000
 2941 0024 498900   		movq	%rax, (%r8)
 2942              	.LVL156:
1083:fltk-1.3.4-1/png/pngget.c ****             retval |= PNG_INFO_tRNS;
 2943              		.loc 1 1083 0
 2944 0027 B8100000 		movl	$16, %eax
 2944      00
 2945              	.LVL157:
 2946              	.L788:
1084:fltk-1.3.4-1/png/pngget.c ****          }
1085:fltk-1.3.4-1/png/pngget.c **** 
1086:fltk-1.3.4-1/png/pngget.c ****          if (trans_alpha != NULL)
 2947              		.loc 1 1086 0
 2948 002c 4885D2   		testq	%rdx, %rdx
 2949 002f 7407     		je	.L787
1087:fltk-1.3.4-1/png/pngget.c ****             *trans_alpha = NULL;
 2950              		.loc 1 1087 0
 2951 0031 48C70200 		movq	$0, (%rdx)
 2951      000000
 2952              	.LVL158:
 2953              	.L787:
1088:fltk-1.3.4-1/png/pngget.c ****       }
1089:fltk-1.3.4-1/png/pngget.c **** 
1090:fltk-1.3.4-1/png/pngget.c ****       if (num_trans != NULL)
 2954              		.loc 1 1090 0
 2955 0038 4885C9   		testq	%rcx, %rcx
 2956 003b 7413     		je	.L784
1091:fltk-1.3.4-1/png/pngget.c ****       {
1092:fltk-1.3.4-1/png/pngget.c ****          *num_trans = info_ptr->num_trans;
 2957              		.loc 1 1092 0
 2958 003d 0FB74622 		movzwl	34(%rsi), %eax
 2959              	.LVL159:
 2960 0041 8901     		movl	%eax, (%rcx)
 2961              	.LVL160:
1093:fltk-1.3.4-1/png/pngget.c ****          retval |= PNG_INFO_tRNS;
 2962              		.loc 1 1093 0
 2963 0043 B8100000 		movl	$16, %eax
 2963      00
 2964 0048 C3       		ret
 2965              	.LVL161:
 2966 0049 0F1F8000 		.p2align 4,,10
 2966      000000
 2967              		.p2align 3
 2968              	.L784:
1094:fltk-1.3.4-1/png/pngget.c ****       }
1095:fltk-1.3.4-1/png/pngget.c ****    }
1096:fltk-1.3.4-1/png/pngget.c **** 
1097:fltk-1.3.4-1/png/pngget.c ****    return (retval);
1098:fltk-1.3.4-1/png/pngget.c **** }
 2969              		.loc 1 1098 0
 2970 0050 F3C3     		rep ret
 2971              	.LVL162:
 2972              		.p2align 4,,10
 2973 0052 660F1F44 		.p2align 3
 2973      0000
 2974              	.L809:
1068:fltk-1.3.4-1/png/pngget.c ****          {
 2975              		.loc 1 1068 0
 2976 0058 4885D2   		testq	%rdx, %rdx
 2977 005b 740F     		je	.L786
1070:fltk-1.3.4-1/png/pngget.c ****             retval |= PNG_INFO_tRNS;
 2978              		.loc 1 1070 0
 2979 005d 488B86B8 		movq	184(%rsi), %rax
 2979      000000
 2980 0064 488902   		movq	%rax, (%rdx)
 2981              	.LVL163:
1071:fltk-1.3.4-1/png/pngget.c ****          }
 2982              		.loc 1 1071 0
 2983 0067 B8100000 		movl	$16, %eax
 2983      00
 2984              	.LVL164:
 2985              	.L786:
1074:fltk-1.3.4-1/png/pngget.c ****             *trans_color = &(info_ptr->trans_color);
 2986              		.loc 1 1074 0
 2987 006c 4D85C0   		testq	%r8, %r8
 2988 006f 74C7     		je	.L787
1075:fltk-1.3.4-1/png/pngget.c ****       }
 2989              		.loc 1 1075 0
 2990 0071 488D96C0 		leaq	192(%rsi), %rdx
 2990      000000
 2991              	.LVL165:
 2992 0078 498910   		movq	%rdx, (%r8)
 2993 007b EBBB     		jmp	.L787
 2994              		.cfi_endproc
 2995              	.LFE109:
 2997              		.section	.text.unlikely.png_get_tRNS
 2998              	.LCOLDE59:
 2999              		.section	.text.png_get_tRNS
 3000              	.LHOTE59:
 3001              		.section	.text.unlikely.png_get_unknown_chunks,"ax",@progbits
 3002              	.LCOLDB60:
 3003              		.section	.text.png_get_unknown_chunks,"ax",@progbits
 3004              	.LHOTB60:
 3005              		.p2align 4,,15
 3006              		.globl	png_get_unknown_chunks
 3008              	png_get_unknown_chunks:
 3009              	.LFB110:
1099:fltk-1.3.4-1/png/pngget.c **** #endif
1100:fltk-1.3.4-1/png/pngget.c **** 
1101:fltk-1.3.4-1/png/pngget.c **** #ifdef PNG_STORE_UNKNOWN_CHUNKS_SUPPORTED
1102:fltk-1.3.4-1/png/pngget.c **** int PNGAPI
1103:fltk-1.3.4-1/png/pngget.c **** png_get_unknown_chunks(png_const_structrp png_ptr, png_inforp info_ptr,
1104:fltk-1.3.4-1/png/pngget.c ****     png_unknown_chunkpp unknowns)
1105:fltk-1.3.4-1/png/pngget.c **** {
 3010              		.loc 1 1105 0
 3011              		.cfi_startproc
 3012              	.LVL166:
1106:fltk-1.3.4-1/png/pngget.c ****    if (png_ptr != NULL && info_ptr != NULL && unknowns != NULL)
 3013              		.loc 1 1106 0
 3014 0000 4885F6   		testq	%rsi, %rsi
 3015 0003 0F95C1   		setne	%cl
 3016 0006 4885D2   		testq	%rdx, %rdx
 3017 0009 0F95C0   		setne	%al
 3018 000c 84C1     		testb	%al, %cl
 3019 000e 7420     		je	.L812
 3020 0010 4885FF   		testq	%rdi, %rdi
 3021 0013 741B     		je	.L812
1107:fltk-1.3.4-1/png/pngget.c ****    {
1108:fltk-1.3.4-1/png/pngget.c ****       *unknowns = info_ptr->unknown_chunks;
 3022              		.loc 1 1108 0
 3023 0015 488B8620 		movq	288(%rsi), %rax
 3023      010000
 3024 001c 488902   		movq	%rax, (%rdx)
1109:fltk-1.3.4-1/png/pngget.c ****       return info_ptr->unknown_chunks_num;
 3025              		.loc 1 1109 0
 3026 001f 8B862801 		movl	296(%rsi), %eax
 3026      0000
 3027 0025 C3       		ret
 3028 0026 662E0F1F 		.p2align 4,,10
 3028      84000000 
 3028      0000
 3029              		.p2align 3
 3030              	.L812:
1110:fltk-1.3.4-1/png/pngget.c ****    }
1111:fltk-1.3.4-1/png/pngget.c **** 
1112:fltk-1.3.4-1/png/pngget.c ****    return (0);
 3031              		.loc 1 1112 0
 3032 0030 31C0     		xorl	%eax, %eax
1113:fltk-1.3.4-1/png/pngget.c **** }
 3033              		.loc 1 1113 0
 3034 0032 C3       		ret
 3035              		.cfi_endproc
 3036              	.LFE110:
 3038              		.section	.text.unlikely.png_get_unknown_chunks
 3039              	.LCOLDE60:
 3040              		.section	.text.png_get_unknown_chunks
 3041              	.LHOTE60:
 3042              		.section	.text.unlikely.png_get_rgb_to_gray_status,"ax",@progbits
 3043              	.LCOLDB61:
 3044              		.section	.text.png_get_rgb_to_gray_status,"ax",@progbits
 3045              	.LHOTB61:
 3046              		.p2align 4,,15
 3047              		.globl	png_get_rgb_to_gray_status
 3049              	png_get_rgb_to_gray_status:
 3050              	.LFB111:
1114:fltk-1.3.4-1/png/pngget.c **** #endif
1115:fltk-1.3.4-1/png/pngget.c **** 
1116:fltk-1.3.4-1/png/pngget.c **** #ifdef PNG_READ_RGB_TO_GRAY_SUPPORTED
1117:fltk-1.3.4-1/png/pngget.c **** png_byte PNGAPI
1118:fltk-1.3.4-1/png/pngget.c **** png_get_rgb_to_gray_status (png_const_structrp png_ptr)
1119:fltk-1.3.4-1/png/pngget.c **** {
 3051              		.loc 1 1119 0
 3052              		.cfi_startproc
 3053              	.LVL167:
1120:fltk-1.3.4-1/png/pngget.c ****    return (png_byte)(png_ptr ? png_ptr->rgb_to_gray_status : 0);
 3054              		.loc 1 1120 0
 3055 0000 4885FF   		testq	%rdi, %rdi
 3056 0003 740B     		je	.L821
 3057              		.loc 1 1120 0 is_stmt 0 discriminator 1
 3058 0005 0FB68710 		movzbl	1040(%rdi), %eax
 3058      040000
 3059 000c C3       		ret
 3060 000d 0F1F00   		.p2align 4,,10
 3061              		.p2align 3
 3062              	.L821:
 3063              		.loc 1 1120 0
 3064 0010 31C0     		xorl	%eax, %eax
1121:fltk-1.3.4-1/png/pngget.c **** }
 3065              		.loc 1 1121 0 is_stmt 1
 3066 0012 C3       		ret
 3067              		.cfi_endproc
 3068              	.LFE111:
 3070              		.section	.text.unlikely.png_get_rgb_to_gray_status
 3071              	.LCOLDE61:
 3072              		.section	.text.png_get_rgb_to_gray_status
 3073              	.LHOTE61:
 3074              		.section	.text.unlikely.png_get_user_chunk_ptr,"ax",@progbits
 3075              	.LCOLDB62:
 3076              		.section	.text.png_get_user_chunk_ptr,"ax",@progbits
 3077              	.LHOTB62:
 3078              		.p2align 4,,15
 3079              		.globl	png_get_user_chunk_ptr
 3081              	png_get_user_chunk_ptr:
 3082              	.LFB112:
1122:fltk-1.3.4-1/png/pngget.c **** #endif
1123:fltk-1.3.4-1/png/pngget.c **** 
1124:fltk-1.3.4-1/png/pngget.c **** #ifdef PNG_USER_CHUNKS_SUPPORTED
1125:fltk-1.3.4-1/png/pngget.c **** png_voidp PNGAPI
1126:fltk-1.3.4-1/png/pngget.c **** png_get_user_chunk_ptr(png_const_structrp png_ptr)
1127:fltk-1.3.4-1/png/pngget.c **** {
 3083              		.loc 1 1127 0
 3084              		.cfi_startproc
 3085              	.LVL168:
1128:fltk-1.3.4-1/png/pngget.c ****    return (png_ptr ? png_ptr->user_chunk_ptr : NULL);
 3086              		.loc 1 1128 0
 3087 0000 4885FF   		testq	%rdi, %rdi
 3088 0003 740B     		je	.L824
 3089              		.loc 1 1128 0 is_stmt 0 discriminator 1
 3090 0005 488B87F0 		movq	1008(%rdi), %rax
 3090      030000
 3091 000c C3       		ret
 3092 000d 0F1F00   		.p2align 4,,10
 3093              		.p2align 3
 3094              	.L824:
 3095              		.loc 1 1128 0
 3096 0010 31C0     		xorl	%eax, %eax
1129:fltk-1.3.4-1/png/pngget.c **** }
 3097              		.loc 1 1129 0 is_stmt 1
 3098 0012 C3       		ret
 3099              		.cfi_endproc
 3100              	.LFE112:
 3102              		.section	.text.unlikely.png_get_user_chunk_ptr
 3103              	.LCOLDE62:
 3104              		.section	.text.png_get_user_chunk_ptr
 3105              	.LHOTE62:
 3106              		.section	.text.unlikely.png_get_compression_buffer_size,"ax",@progbits
 3107              	.LCOLDB63:
 3108              		.section	.text.png_get_compression_buffer_size,"ax",@progbits
 3109              	.LHOTB63:
 3110              		.p2align 4,,15
 3111              		.globl	png_get_compression_buffer_size
 3113              	png_get_compression_buffer_size:
 3114              	.LFB113:
1130:fltk-1.3.4-1/png/pngget.c **** #endif
1131:fltk-1.3.4-1/png/pngget.c **** 
1132:fltk-1.3.4-1/png/pngget.c **** png_size_t PNGAPI
1133:fltk-1.3.4-1/png/pngget.c **** png_get_compression_buffer_size(png_const_structrp png_ptr)
1134:fltk-1.3.4-1/png/pngget.c **** {
 3115              		.loc 1 1134 0
 3116              		.cfi_startproc
 3117              	.LVL169:
1135:fltk-1.3.4-1/png/pngget.c ****    if (png_ptr == NULL)
 3118              		.loc 1 1135 0
 3119 0000 4885FF   		testq	%rdi, %rdi
 3120 0003 741B     		je	.L828
1136:fltk-1.3.4-1/png/pngget.c ****       return 0;
1137:fltk-1.3.4-1/png/pngget.c **** 
1138:fltk-1.3.4-1/png/pngget.c **** #  ifdef PNG_WRITE_SUPPORTED
1139:fltk-1.3.4-1/png/pngget.c ****       if ((png_ptr->mode & PNG_IS_READ_STRUCT) != 0)
 3121              		.loc 1 1139 0
 3122 0005 F6872D01 		testb	$-128, 301(%rdi)
 3122      000080
 3123 000c 750A     		jne	.L829
1140:fltk-1.3.4-1/png/pngget.c **** #  endif
1141:fltk-1.3.4-1/png/pngget.c ****    {
1142:fltk-1.3.4-1/png/pngget.c **** #     ifdef PNG_SEQUENTIAL_READ_SUPPORTED
1143:fltk-1.3.4-1/png/pngget.c ****          return png_ptr->IDAT_read_size;
1144:fltk-1.3.4-1/png/pngget.c **** #     else
1145:fltk-1.3.4-1/png/pngget.c ****          return PNG_IDAT_READ_SIZE;
1146:fltk-1.3.4-1/png/pngget.c **** #     endif
1147:fltk-1.3.4-1/png/pngget.c ****    }
1148:fltk-1.3.4-1/png/pngget.c **** 
1149:fltk-1.3.4-1/png/pngget.c **** #  ifdef PNG_WRITE_SUPPORTED
1150:fltk-1.3.4-1/png/pngget.c ****       else
1151:fltk-1.3.4-1/png/pngget.c ****          return png_ptr->zbuffer_size;
 3124              		.loc 1 1151 0
 3125 000e 8B87B801 		movl	440(%rdi), %eax
 3125      0000
 3126 0014 C3       		ret
 3127              		.p2align 4,,10
 3128 0015 0F1F00   		.p2align 3
 3129              	.L829:
1143:fltk-1.3.4-1/png/pngget.c **** #     else
 3130              		.loc 1 1143 0
 3131 0018 8B87A804 		movl	1192(%rdi), %eax
 3131      0000
 3132 001e C3       		ret
 3133 001f 90       		.p2align 4,,10
 3134              		.p2align 3
 3135              	.L828:
1136:fltk-1.3.4-1/png/pngget.c ****       return 0;
 3136              		.loc 1 1136 0
 3137 0020 31C0     		xorl	%eax, %eax
1152:fltk-1.3.4-1/png/pngget.c **** #  endif
1153:fltk-1.3.4-1/png/pngget.c **** }
 3138              		.loc 1 1153 0
 3139 0022 C3       		ret
 3140              		.cfi_endproc
 3141              	.LFE113:
 3143              		.section	.text.unlikely.png_get_compression_buffer_size
 3144              	.LCOLDE63:
 3145              		.section	.text.png_get_compression_buffer_size
 3146              	.LHOTE63:
 3147              		.section	.text.unlikely.png_get_user_width_max,"ax",@progbits
 3148              	.LCOLDB64:
 3149              		.section	.text.png_get_user_width_max,"ax",@progbits
 3150              	.LHOTB64:
 3151              		.p2align 4,,15
 3152              		.globl	png_get_user_width_max
 3154              	png_get_user_width_max:
 3155              	.LFB114:
1154:fltk-1.3.4-1/png/pngget.c **** 
1155:fltk-1.3.4-1/png/pngget.c **** #ifdef PNG_SET_USER_LIMITS_SUPPORTED
1156:fltk-1.3.4-1/png/pngget.c **** /* These functions were added to libpng 1.2.6 and were enabled
1157:fltk-1.3.4-1/png/pngget.c ****  * by default in libpng-1.4.0 */
1158:fltk-1.3.4-1/png/pngget.c **** png_uint_32 PNGAPI
1159:fltk-1.3.4-1/png/pngget.c **** png_get_user_width_max (png_const_structrp png_ptr)
1160:fltk-1.3.4-1/png/pngget.c **** {
 3156              		.loc 1 1160 0
 3157              		.cfi_startproc
 3158              	.LVL170:
1161:fltk-1.3.4-1/png/pngget.c ****    return (png_ptr ? png_ptr->user_width_max : 0);
 3159              		.loc 1 1161 0
 3160 0000 4885FF   		testq	%rdi, %rdi
 3161 0003 740B     		je	.L832
 3162              		.loc 1 1161 0 is_stmt 0 discriminator 1
 3163 0005 8B875C04 		movl	1116(%rdi), %eax
 3163      0000
 3164 000b C3       		ret
 3165 000c 0F1F4000 		.p2align 4,,10
 3166              		.p2align 3
 3167              	.L832:
 3168              		.loc 1 1161 0
 3169 0010 31C0     		xorl	%eax, %eax
1162:fltk-1.3.4-1/png/pngget.c **** }
 3170              		.loc 1 1162 0 is_stmt 1
 3171 0012 C3       		ret
 3172              		.cfi_endproc
 3173              	.LFE114:
 3175              		.section	.text.unlikely.png_get_user_width_max
 3176              	.LCOLDE64:
 3177              		.section	.text.png_get_user_width_max
 3178              	.LHOTE64:
 3179              		.section	.text.unlikely.png_get_user_height_max,"ax",@progbits
 3180              	.LCOLDB65:
 3181              		.section	.text.png_get_user_height_max,"ax",@progbits
 3182              	.LHOTB65:
 3183              		.p2align 4,,15
 3184              		.globl	png_get_user_height_max
 3186              	png_get_user_height_max:
 3187              	.LFB115:
1163:fltk-1.3.4-1/png/pngget.c **** 
1164:fltk-1.3.4-1/png/pngget.c **** png_uint_32 PNGAPI
1165:fltk-1.3.4-1/png/pngget.c **** png_get_user_height_max (png_const_structrp png_ptr)
1166:fltk-1.3.4-1/png/pngget.c **** {
 3188              		.loc 1 1166 0
 3189              		.cfi_startproc
 3190              	.LVL171:
1167:fltk-1.3.4-1/png/pngget.c ****    return (png_ptr ? png_ptr->user_height_max : 0);
 3191              		.loc 1 1167 0
 3192 0000 4885FF   		testq	%rdi, %rdi
 3193 0003 740B     		je	.L835
 3194              		.loc 1 1167 0 is_stmt 0 discriminator 1
 3195 0005 8B876004 		movl	1120(%rdi), %eax
 3195      0000
 3196 000b C3       		ret
 3197 000c 0F1F4000 		.p2align 4,,10
 3198              		.p2align 3
 3199              	.L835:
 3200              		.loc 1 1167 0
 3201 0010 31C0     		xorl	%eax, %eax
1168:fltk-1.3.4-1/png/pngget.c **** }
 3202              		.loc 1 1168 0 is_stmt 1
 3203 0012 C3       		ret
 3204              		.cfi_endproc
 3205              	.LFE115:
 3207              		.section	.text.unlikely.png_get_user_height_max
 3208              	.LCOLDE65:
 3209              		.section	.text.png_get_user_height_max
 3210              	.LHOTE65:
 3211              		.section	.text.unlikely.png_get_chunk_cache_max,"ax",@progbits
 3212              	.LCOLDB66:
 3213              		.section	.text.png_get_chunk_cache_max,"ax",@progbits
 3214              	.LHOTB66:
 3215              		.p2align 4,,15
 3216              		.globl	png_get_chunk_cache_max
 3218              	png_get_chunk_cache_max:
 3219              	.LFB116:
1169:fltk-1.3.4-1/png/pngget.c **** 
1170:fltk-1.3.4-1/png/pngget.c **** /* This function was added to libpng 1.4.0 */
1171:fltk-1.3.4-1/png/pngget.c **** png_uint_32 PNGAPI
1172:fltk-1.3.4-1/png/pngget.c **** png_get_chunk_cache_max (png_const_structrp png_ptr)
1173:fltk-1.3.4-1/png/pngget.c **** {
 3220              		.loc 1 1173 0
 3221              		.cfi_startproc
 3222              	.LVL172:
1174:fltk-1.3.4-1/png/pngget.c ****    return (png_ptr ? png_ptr->user_chunk_cache_max : 0);
 3223              		.loc 1 1174 0
 3224 0000 4885FF   		testq	%rdi, %rdi
 3225 0003 740B     		je	.L838
 3226              		.loc 1 1174 0 is_stmt 0 discriminator 1
 3227 0005 8B876404 		movl	1124(%rdi), %eax
 3227      0000
 3228 000b C3       		ret
 3229 000c 0F1F4000 		.p2align 4,,10
 3230              		.p2align 3
 3231              	.L838:
 3232              		.loc 1 1174 0
 3233 0010 31C0     		xorl	%eax, %eax
1175:fltk-1.3.4-1/png/pngget.c **** }
 3234              		.loc 1 1175 0 is_stmt 1
 3235 0012 C3       		ret
 3236              		.cfi_endproc
 3237              	.LFE116:
 3239              		.section	.text.unlikely.png_get_chunk_cache_max
 3240              	.LCOLDE66:
 3241              		.section	.text.png_get_chunk_cache_max
 3242              	.LHOTE66:
 3243              		.section	.text.unlikely.png_get_chunk_malloc_max,"ax",@progbits
 3244              	.LCOLDB67:
 3245              		.section	.text.png_get_chunk_malloc_max,"ax",@progbits
 3246              	.LHOTB67:
 3247              		.p2align 4,,15
 3248              		.globl	png_get_chunk_malloc_max
 3250              	png_get_chunk_malloc_max:
 3251              	.LFB117:
1176:fltk-1.3.4-1/png/pngget.c **** 
1177:fltk-1.3.4-1/png/pngget.c **** /* This function was added to libpng 1.4.1 */
1178:fltk-1.3.4-1/png/pngget.c **** png_alloc_size_t PNGAPI
1179:fltk-1.3.4-1/png/pngget.c **** png_get_chunk_malloc_max (png_const_structrp png_ptr)
1180:fltk-1.3.4-1/png/pngget.c **** {
 3252              		.loc 1 1180 0
 3253              		.cfi_startproc
 3254              	.LVL173:
1181:fltk-1.3.4-1/png/pngget.c ****    return (png_ptr ? png_ptr->user_chunk_malloc_max : 0);
 3255              		.loc 1 1181 0
 3256 0000 4885FF   		testq	%rdi, %rdi
 3257 0003 740B     		je	.L841
 3258              		.loc 1 1181 0 is_stmt 0 discriminator 1
 3259 0005 488B8768 		movq	1128(%rdi), %rax
 3259      040000
 3260 000c C3       		ret
 3261 000d 0F1F00   		.p2align 4,,10
 3262              		.p2align 3
 3263              	.L841:
 3264              		.loc 1 1181 0
 3265 0010 31C0     		xorl	%eax, %eax
1182:fltk-1.3.4-1/png/pngget.c **** }
 3266              		.loc 1 1182 0 is_stmt 1
 3267 0012 C3       		ret
 3268              		.cfi_endproc
 3269              	.LFE117:
 3271              		.section	.text.unlikely.png_get_chunk_malloc_max
 3272              	.LCOLDE67:
 3273              		.section	.text.png_get_chunk_malloc_max
 3274              	.LHOTE67:
 3275              		.section	.text.unlikely.png_get_io_state,"ax",@progbits
 3276              	.LCOLDB68:
 3277              		.section	.text.png_get_io_state,"ax",@progbits
 3278              	.LHOTB68:
 3279              		.p2align 4,,15
 3280              		.globl	png_get_io_state
 3282              	png_get_io_state:
 3283              	.LFB118:
1183:fltk-1.3.4-1/png/pngget.c **** #endif /* SET_USER_LIMITS */
1184:fltk-1.3.4-1/png/pngget.c **** 
1185:fltk-1.3.4-1/png/pngget.c **** /* These functions were added to libpng 1.4.0 */
1186:fltk-1.3.4-1/png/pngget.c **** #ifdef PNG_IO_STATE_SUPPORTED
1187:fltk-1.3.4-1/png/pngget.c **** png_uint_32 PNGAPI
1188:fltk-1.3.4-1/png/pngget.c **** png_get_io_state (png_const_structrp png_ptr)
1189:fltk-1.3.4-1/png/pngget.c **** {
 3284              		.loc 1 1189 0
 3285              		.cfi_startproc
 3286              	.LVL174:
1190:fltk-1.3.4-1/png/pngget.c ****    return png_ptr->io_state;
 3287              		.loc 1 1190 0
 3288 0000 8B87AC04 		movl	1196(%rdi), %eax
 3288      0000
1191:fltk-1.3.4-1/png/pngget.c **** }
 3289              		.loc 1 1191 0
 3290 0006 C3       		ret
 3291              		.cfi_endproc
 3292              	.LFE118:
 3294              		.section	.text.unlikely.png_get_io_state
 3295              	.LCOLDE68:
 3296              		.section	.text.png_get_io_state
 3297              	.LHOTE68:
 3298              		.section	.text.unlikely.png_get_io_chunk_type,"ax",@progbits
 3299              	.LCOLDB69:
 3300              		.section	.text.png_get_io_chunk_type,"ax",@progbits
 3301              	.LHOTB69:
 3302              		.p2align 4,,15
 3303              		.globl	png_get_io_chunk_type
 3305              	png_get_io_chunk_type:
 3306              	.LFB119:
1192:fltk-1.3.4-1/png/pngget.c **** 
1193:fltk-1.3.4-1/png/pngget.c **** png_uint_32 PNGAPI
1194:fltk-1.3.4-1/png/pngget.c **** png_get_io_chunk_type (png_const_structrp png_ptr)
1195:fltk-1.3.4-1/png/pngget.c **** {
 3307              		.loc 1 1195 0
 3308              		.cfi_startproc
 3309              	.LVL175:
1196:fltk-1.3.4-1/png/pngget.c ****    return png_ptr->chunk_name;
 3310              		.loc 1 1196 0
 3311 0000 8B871802 		movl	536(%rdi), %eax
 3311      0000
1197:fltk-1.3.4-1/png/pngget.c **** }
 3312              		.loc 1 1197 0
 3313 0006 C3       		ret
 3314              		.cfi_endproc
 3315              	.LFE119:
 3317              		.section	.text.unlikely.png_get_io_chunk_type
 3318              	.LCOLDE69:
 3319              		.section	.text.png_get_io_chunk_type
 3320              	.LHOTE69:
 3321              		.section	.text.unlikely.png_get_palette_max,"ax",@progbits
 3322              	.LCOLDB70:
 3323              		.section	.text.png_get_palette_max,"ax",@progbits
 3324              	.LHOTB70:
 3325              		.p2align 4,,15
 3326              		.globl	png_get_palette_max
 3328              	png_get_palette_max:
 3329              	.LFB120:
1198:fltk-1.3.4-1/png/pngget.c **** #endif /* IO_STATE */
1199:fltk-1.3.4-1/png/pngget.c **** 
1200:fltk-1.3.4-1/png/pngget.c **** #ifdef PNG_CHECK_FOR_INVALID_INDEX_SUPPORTED
1201:fltk-1.3.4-1/png/pngget.c **** #  ifdef PNG_GET_PALETTE_MAX_SUPPORTED
1202:fltk-1.3.4-1/png/pngget.c **** int PNGAPI
1203:fltk-1.3.4-1/png/pngget.c **** png_get_palette_max(png_const_structp png_ptr, png_const_infop info_ptr)
1204:fltk-1.3.4-1/png/pngget.c **** {
 3330              		.loc 1 1204 0
 3331              		.cfi_startproc
 3332              	.LVL176:
1205:fltk-1.3.4-1/png/pngget.c ****    if (png_ptr != NULL && info_ptr != NULL)
 3333              		.loc 1 1205 0
 3334 0000 4885FF   		testq	%rdi, %rdi
 3335 0003 7413     		je	.L846
 3336 0005 4885F6   		testq	%rsi, %rsi
 3337 0008 740E     		je	.L846
1206:fltk-1.3.4-1/png/pngget.c ****       return png_ptr->num_palette_max;
 3338              		.loc 1 1206 0
 3339 000a 8B876C02 		movl	620(%rdi), %eax
 3339      0000
 3340 0010 C3       		ret
 3341              		.p2align 4,,10
 3342 0011 0F1F8000 		.p2align 3
 3342      000000
 3343              	.L846:
1207:fltk-1.3.4-1/png/pngget.c **** 
1208:fltk-1.3.4-1/png/pngget.c ****    return (-1);
 3344              		.loc 1 1208 0
 3345 0018 B8FFFFFF 		movl	$-1, %eax
 3345      FF
1209:fltk-1.3.4-1/png/pngget.c **** }
 3346              		.loc 1 1209 0
 3347 001d C3       		ret
 3348              		.cfi_endproc
 3349              	.LFE120:
 3351              		.section	.text.unlikely.png_get_palette_max
 3352              	.LCOLDE70:
 3353              		.section	.text.png_get_palette_max
 3354              	.LHOTE70:
 3355              		.section	.rodata.cst8,"aM",@progbits,8
 3356              		.align 8
 3357              	.LC26:
 3358 0000 C8C948E6 		.long	3863529928
 3359 0004 26A4043F 		.long	1057268774
 3360              		.align 8
 3361              	.LC29:
 3362 0008 A60A4625 		.long	625347238
 3363 000c 75029A3F 		.long	1067057781
 3364              		.align 8
 3365              	.LC30:
 3366 0010 00000000 		.long	0
 3367 0014 0000E03F 		.long	1071644672
 3368              		.align 8
 3369              	.LC35:
 3370 0018 F168E388 		.long	2296604913
 3371 001c B5F8E43E 		.long	1055193269
 3372              		.text
 3373              	.Letext0:
 3374              		.section	.text.unlikely.ppi_from_ppm
 3375              	.Letext_cold0:
 3376              		.file 3 "/usr/lib/gcc/x86_64-linux-gnu/5/include/stddef.h"
 3377              		.file 4 "/usr/include/x86_64-linux-gnu/bits/types.h"
 3378              		.file 5 "/usr/include/libio.h"
 3379              		.file 6 "/usr/include/x86_64-linux-gnu/bits/setjmp.h"
 3380              		.file 7 "/usr/include/x86_64-linux-gnu/bits/sigset.h"
 3381              		.file 8 "/usr/include/setjmp.h"
 3382              		.file 9 "fltk-1.3.4-1/png/pngconf.h"
 3383              		.file 10 "fltk-1.3.4-1/png/png.h"
 3384              		.file 11 "fltk-1.3.4-1/png/pngstruct.h"
 3385              		.file 12 "fltk-1.3.4-1/png/pnginfo.h"
 3386              		.file 13 "/usr/include/x86_64-linux-gnu/zconf.h"
 3387              		.file 14 "/usr/include/zlib.h"
 3388              		.file 15 "/usr/include/stdio.h"
 3389              		.file 16 "fltk-1.3.4-1/png/pngpriv.h"
 3390              		.file 17 "/usr/include/stdlib.h"
DEFINED SYMBOLS
                            *ABS*:0000000000000000 pngget.c
     /tmp/cc2KTghR.s:13     .text.ppi_from_ppm:0000000000000000 ppi_from_ppm
     /tmp/cc2KTghR.s:73     .text.png_get_valid:0000000000000000 png_get_valid
     /tmp/cc2KTghR.s:108    .text.png_get_rowbytes:0000000000000000 png_get_rowbytes
     /tmp/cc2KTghR.s:142    .text.png_get_rows:0000000000000000 png_get_rows
     /tmp/cc2KTghR.s:176    .text.png_get_image_width:0000000000000000 png_get_image_width
     /tmp/cc2KTghR.s:210    .text.png_get_image_height:0000000000000000 png_get_image_height
     /tmp/cc2KTghR.s:244    .text.png_get_bit_depth:0000000000000000 png_get_bit_depth
     /tmp/cc2KTghR.s:278    .text.png_get_color_type:0000000000000000 png_get_color_type
     /tmp/cc2KTghR.s:312    .text.png_get_filter_type:0000000000000000 png_get_filter_type
     /tmp/cc2KTghR.s:346    .text.png_get_interlace_type:0000000000000000 png_get_interlace_type
     /tmp/cc2KTghR.s:380    .text.png_get_compression_type:0000000000000000 png_get_compression_type
     /tmp/cc2KTghR.s:414    .text.png_get_x_pixels_per_meter:0000000000000000 png_get_x_pixels_per_meter
     /tmp/cc2KTghR.s:474    .text.png_get_y_pixels_per_meter:0000000000000000 png_get_y_pixels_per_meter
     /tmp/cc2KTghR.s:534    .text.png_get_pixels_per_meter:0000000000000000 png_get_pixels_per_meter
     /tmp/cc2KTghR.s:600    .text.png_get_pixel_aspect_ratio:0000000000000000 png_get_pixel_aspect_ratio
     /tmp/cc2KTghR.s:647    .text.png_get_pixel_aspect_ratio_fixed:0000000000000000 png_get_pixel_aspect_ratio_fixed
     /tmp/cc2KTghR.s:731    .text.png_get_x_offset_microns:0000000000000000 png_get_x_offset_microns
     /tmp/cc2KTghR.s:783    .text.png_get_y_offset_microns:0000000000000000 png_get_y_offset_microns
     /tmp/cc2KTghR.s:835    .text.png_get_x_offset_pixels:0000000000000000 png_get_x_offset_pixels
     /tmp/cc2KTghR.s:875    .text.png_get_y_offset_pixels:0000000000000000 png_get_y_offset_pixels
     /tmp/cc2KTghR.s:915    .text.png_get_pixels_per_inch:0000000000000000 png_get_pixels_per_inch
     /tmp/cc2KTghR.s:946    .text.png_get_x_pixels_per_inch:0000000000000000 png_get_x_pixels_per_inch
     /tmp/cc2KTghR.s:977    .text.png_get_y_pixels_per_inch:0000000000000000 png_get_y_pixels_per_inch
     /tmp/cc2KTghR.s:1008   .text.png_get_x_offset_inches_fixed:0000000000000000 png_get_x_offset_inches_fixed
     /tmp/cc2KTghR.s:1050   .text.png_get_y_offset_inches_fixed:0000000000000000 png_get_y_offset_inches_fixed
     /tmp/cc2KTghR.s:1092   .text.png_get_x_offset_inches:0000000000000000 png_get_x_offset_inches
     /tmp/cc2KTghR.s:1120   .text.png_get_y_offset_inches:0000000000000000 png_get_y_offset_inches
     /tmp/cc2KTghR.s:1148   .text.png_get_pHYs_dpi:0000000000000000 png_get_pHYs_dpi
     /tmp/cc2KTghR.s:1251   .text.png_get_channels:0000000000000000 png_get_channels
     /tmp/cc2KTghR.s:1285   .text.png_get_signature:0000000000000000 png_get_signature
     /tmp/cc2KTghR.s:1319   .text.png_get_bKGD:0000000000000000 png_get_bKGD
     /tmp/cc2KTghR.s:1365   .text.png_get_cHRM:0000000000000000 png_get_cHRM
     /tmp/cc2KTghR.s:1483   .text.png_get_cHRM_XYZ:0000000000000000 png_get_cHRM_XYZ
     /tmp/cc2KTghR.s:1611   .text.png_get_cHRM_XYZ_fixed:0000000000000000 png_get_cHRM_XYZ_fixed
     /tmp/cc2KTghR.s:1725   .text.png_get_cHRM_fixed:0000000000000000 png_get_cHRM_fixed
     /tmp/cc2KTghR.s:1831   .text.png_get_gAMA_fixed:0000000000000000 png_get_gAMA_fixed
     /tmp/cc2KTghR.s:1873   .text.png_get_gAMA:0000000000000000 png_get_gAMA
     /tmp/cc2KTghR.s:1919   .text.png_get_sRGB:0000000000000000 png_get_sRGB
     /tmp/cc2KTghR.s:1961   .text.png_get_iCCP:0000000000000000 png_get_iCCP
     /tmp/cc2KTghR.s:2035   .text.png_get_sPLT:0000000000000000 png_get_sPLT
     /tmp/cc2KTghR.s:2076   .text.png_get_hIST:0000000000000000 png_get_hIST
     /tmp/cc2KTghR.s:2118   .text.png_get_IHDR:0000000000000000 png_get_IHDR
     /tmp/cc2KTghR.s:2229   .text.png_get_oFFs:0000000000000000 png_get_oFFs
     /tmp/cc2KTghR.s:2287   .text.png_get_pCAL:0000000000000000 png_get_pCAL
     /tmp/cc2KTghR.s:2384   .text.png_get_sCAL_fixed:0000000000000000 png_get_sCAL_fixed
     /tmp/cc2KTghR.s:2504   .text.png_get_sCAL:0000000000000000 png_get_sCAL
     /tmp/cc2KTghR.s:2602   .text.png_get_sCAL_s:0000000000000000 png_get_sCAL_s
     /tmp/cc2KTghR.s:2650   .text.png_get_pHYs:0000000000000000 png_get_pHYs
     /tmp/cc2KTghR.s:2719   .text.png_get_PLTE:0000000000000000 png_get_PLTE
     /tmp/cc2KTghR.s:2764   .text.png_get_sBIT:0000000000000000 png_get_sBIT
     /tmp/cc2KTghR.s:2810   .text.png_get_text:0000000000000000 png_get_text
     /tmp/cc2KTghR.s:2872   .text.png_get_tIME:0000000000000000 png_get_tIME
     /tmp/cc2KTghR.s:2918   .text.png_get_tRNS:0000000000000000 png_get_tRNS
     /tmp/cc2KTghR.s:3008   .text.png_get_unknown_chunks:0000000000000000 png_get_unknown_chunks
     /tmp/cc2KTghR.s:3049   .text.png_get_rgb_to_gray_status:0000000000000000 png_get_rgb_to_gray_status
     /tmp/cc2KTghR.s:3081   .text.png_get_user_chunk_ptr:0000000000000000 png_get_user_chunk_ptr
     /tmp/cc2KTghR.s:3113   .text.png_get_compression_buffer_size:0000000000000000 png_get_compression_buffer_size
     /tmp/cc2KTghR.s:3154   .text.png_get_user_width_max:0000000000000000 png_get_user_width_max
     /tmp/cc2KTghR.s:3186   .text.png_get_user_height_max:0000000000000000 png_get_user_height_max
     /tmp/cc2KTghR.s:3218   .text.png_get_chunk_cache_max:0000000000000000 png_get_chunk_cache_max
     /tmp/cc2KTghR.s:3250   .text.png_get_chunk_malloc_max:0000000000000000 png_get_chunk_malloc_max
     /tmp/cc2KTghR.s:3282   .text.png_get_io_state:0000000000000000 png_get_io_state
     /tmp/cc2KTghR.s:3305   .text.png_get_io_chunk_type:0000000000000000 png_get_io_chunk_type
     /tmp/cc2KTghR.s:3328   .text.png_get_palette_max:0000000000000000 png_get_palette_max
     /tmp/cc2KTghR.s:3357   .rodata.cst8:0000000000000000 .LC26
     /tmp/cc2KTghR.s:3361   .rodata.cst8:0000000000000008 .LC29
     /tmp/cc2KTghR.s:3365   .rodata.cst8:0000000000000010 .LC30
     /tmp/cc2KTghR.s:3369   .rodata.cst8:0000000000000018 .LC35
                           .group:0000000000000000 wm4.0.cf9695abff4f49bdfe00dc4091904acd
                           .group:0000000000000000 wm4.stdcpredef.h.19.bf2bf6c5fb087dfb5ef2d2297c2795de
                           .group:0000000000000000 wm4.pngpriv.h.26.ca3d1719773cd86007410b516123e125
                           .group:0000000000000000 wm4.features.h.19.22780be97c2f806ec599b8b99aa89f7d
                           .group:0000000000000000 wm4.cdefs.h.19.56613e71f285ebad825b69b151170a81
                           .group:0000000000000000 wm4.wordsize.h.4.256e8fdbd37801980286acdbc40d0280
                           .group:0000000000000000 wm4.cdefs.h.432.619afd0aac7c4b439843706c1b28ddea
                           .group:0000000000000000 wm4.stubs64.h.10.918ceb5fa58268542bf143e4c1efbcf3
                           .group:0000000000000000 wm4.stdlib.h.27.59e2586c75bdbcb991b248ad7257b993
                           .group:0000000000000000 wm4.stddef.h.187.e1c83cba2098ce92b68f6311de19e6b1
                           .group:0000000000000000 wm4.stdlib.h.37.e081b308f911db94d3185af615f2b2e2
                           .group:0000000000000000 wm4.string.h.23.8394011d5995a16f15d67d04e84a1d69
                           .group:0000000000000000 wm4.stddef.h.238.04cc7214bceba497b20d15c10fd97511
                           .group:0000000000000000 wm4.string.h.24.1b0dc67418e7128d207285861439c2f8
                           .group:0000000000000000 wm4.endian.h.19.ff00c9c0f5e9f9a9719c5de76ace57b4
                           .group:0000000000000000 wm4.endian.h.41.27d650ce666b76881e2a2a218ea61984
                           .group:0000000000000000 wm4.types.h.89.468e2451361e3b92f048f6cad51690ff
                           .group:0000000000000000 wm4.typesizes.h.24.40eb69a6270178f15d1bf3d7b6635a8b
                           .group:0000000000000000 wm4.string2.h.55.e4a4cfd7781cc64a4341475e67436ab1
                           .group:0000000000000000 wm4.string3.h.31.2b75bd65145c50aeedb61673ce0d3293
                           .group:0000000000000000 wm4.pnglibconf.h.15.30e2eea90e566ac06da4f4de487193d7
                           .group:0000000000000000 wm4.pngpriv.h.130.f65d93453b5b5837849611ffe82d627a
                           .group:0000000000000000 wm4.png.h.412.12a95b2193a7d0bc2282b72c70a28ce1
                           .group:0000000000000000 wm4.limits.h.23.f0fd92c175c1576df467c4d5fe2b091a
                           .group:0000000000000000 wm4.posix1_lim.h.25.28c8eb2d22697e7711efefdec5344a02
                           .group:0000000000000000 wm4.local_lim.h.25.97ee4129efb08ad296101237bcd3401b
                           .group:0000000000000000 wm4.limits.h.2.9ff59823e8adcf4502d980ef41362326
                           .group:0000000000000000 wm4.local_lim.h.42.9dc3935e0e3b94e23cda247e4e39bd8b
                           .group:0000000000000000 wm4.limits.h.60.eb7066f861c8b8edc7a0a399744b0335
                           .group:0000000000000000 wm4.stddef.h.39.d5a83c17f38162a5dd6f834eaf38f8ef
                           .group:0000000000000000 wm4.stdio.h.26.4719156f1aea2bb9662fd6c582dc9a4c
                           .group:0000000000000000 wm4.stddef.h.161.19e15733342b50ead2919490b095303e
                           .group:0000000000000000 wm4.stdio.h.36.2dd12c1fd035242ad5cfd0152a01be5a
                           .group:0000000000000000 wm4._G_config.h.5.b0f37d9e474454cf6e459063458db32f
                           .group:0000000000000000 wm4.wchar.h.80.eea3eba2d2a17aace9470a8e0d8218dc
                           .group:0000000000000000 wm4._G_config.h.46.5187c97b14fd664662cb32e6b94fc49e
                           .group:0000000000000000 wm4.libio.h.33.a775b9ecae273f33bc59931e9891e4ca
                           .group:0000000000000000 wm4.stdarg.h.34.3a23a216c0c293b3d2ea2e89281481e6
                           .group:0000000000000000 wm4.libio.h.51.dab170798ec1df48c625aea7c30e1b63
                           .group:0000000000000000 wm4.stdio.h.120.80cbf0ec1718a5b27e6428218e29c72d
                           .group:0000000000000000 wm4.stdio_lim.h.23.f8541119d1bcf759d7de9531671fd758
                           .group:0000000000000000 wm4.stdio.h.172.df21df34a7396d7da2e08f9b617d582f
                           .group:0000000000000000 wm4.stdio.h.26.e50fc3808d57d965ceefc6f6dd102eb7
                           .group:0000000000000000 wm4.sigset.h.20.f36413b6d2364ad847d3db53fb03e683
                           .group:0000000000000000 wm4.setjmp.h.67.51aa194c3c89a841663c00cb93fd90ff
                           .group:0000000000000000 wm4.time.h.26.6a3cabd4f228e226db6723a3b0c81ba6
                           .group:0000000000000000 wm4.time.h.40.99bfb90272c7e82357ef3c2f5c6fefc8
                           .group:0000000000000000 wm4.time.h.53.f8af6908497bac0ca16faea86fb8cd87
                           .group:0000000000000000 wm4.pngconf.h.86.6636b2584cb7be1618479e118d71e58c
                           .group:0000000000000000 wm4.png.h.506.fa53b6434c0b20c8e63094b04d7940c5
                           .group:0000000000000000 wm4.pngpriv.h.298.dc2c896ce0eddc5cfadee24e76e3c417
                           .group:0000000000000000 wm4.float.h.29.1cf88a0527b6b1225d49fbee2b32acb7
                           .group:0000000000000000 wm4.math.h.26.671af5ac9cd425a35e0730f7b6d7cde2
                           .group:0000000000000000 wm4.libmsimddeclstubs.h.34.75644856b74ba3d815155fe5fe7ecc56
                           .group:0000000000000000 wm4.mathdef.h.23.67c0aa4a204f1f427459dfc651aba565
                           .group:0000000000000000 wm4.math.h.55.cf380f99c57d42476a5252f30065036a
                           .group:0000000000000000 wm4.math.h.84.742292806c6be54f49dc607928a827f7
                           .group:0000000000000000 wm4.math.h.105.59ff0f83ebf6a04e70e145cef2d1185e
                           .group:0000000000000000 wm4.math.h.152.48a142bc1575e748473ff86330dee044
                           .group:0000000000000000 wm4.math.h.30.7cada3efe024725df2da4c705b6566be
                           .group:0000000000000000 wm4.pngpriv.h.481.f98e7c29eaaa759546a3f9808bc25c74
                           .group:0000000000000000 wm4.pngstruct.h.22.7b9573417641055ab8f42438aa8afadf
                           .group:0000000000000000 wm4.zconf.h.9.bbc7b5783b51507f7721a5620139b4ee
                           .group:0000000000000000 wm4.zconf.h.397.69c03305677a9a6792fe2a94f7c9f69b
                           .group:0000000000000000 wm4.types.h.23.92678977f3921b8dce508274ac68f78d
                           .group:0000000000000000 wm4.types.h.187.12f6c32afb936b45a5f241219964ce93
                           .group:0000000000000000 wm4.stdarg.h.31.48e922dd0aaedfb616aafd8a7b7a4949
                           .group:0000000000000000 wm4.unistd.h.23.c85a58a698f53edadcf64287ab24fecb
                           .group:0000000000000000 wm4.posix_opt.h.20.9a8aece77957db1725bd2b9521e5f9c5
                           .group:0000000000000000 wm4.unistd.h.213.4c582e35260d661b081322974b7c1e74
                           .group:0000000000000000 wm4.unistd.h.284.7e168706bc8bd978e02fd1da439d9bc3
                           .group:0000000000000000 wm4.confname.h.27.6b00117a32f457cc72e5ac810a9adade
                           .group:0000000000000000 wm4.zconf.h.457.505c3613686dd75e492569d7a56a6eb0
                           .group:0000000000000000 wm4.zlib.h.40.5a15529ab8e285cee4b0ddab32502c27
                           .group:0000000000000000 wm4.pngstruct.h.44.bc957704556ff8ddcb697678a008ffae
                           .group:0000000000000000 wm4.pngpriv.h.853.4585af3e74cfb155d8486c5333b94adf
                           .group:0000000000000000 wm4.pngdebug.h.36.e9c57d5f35e3128225fb629498ec6fc8

UNDEFINED SYMBOLS
png_muldiv
__stack_chk_fail
png_muldiv_warn
png_check_IHDR
strtod
png_fixed
