   1              		.file	"pngget.c"
   2              		.text
   3              	.Ltext0:
   4              		.section	.text.ppi_from_ppm,"ax",@progbits
   5              		.p2align 4
   7              	ppi_from_ppm:
   8              	.LVL0:
   9              	.LFB60:
  10              		.file 1 "fltk-1.3.4-1/png/pngget.c"
   1:fltk-1.3.4-1/png/pngget.c **** 
   2:fltk-1.3.4-1/png/pngget.c **** /* pngget.c - retrieval of values from info struct
   3:fltk-1.3.4-1/png/pngget.c ****  *
   4:fltk-1.3.4-1/png/pngget.c ****  * Last changed in libpng 1.6.15 [November 20, 2014]
   5:fltk-1.3.4-1/png/pngget.c ****  * Copyright (c) 1998-2014 Glenn Randers-Pehrson
   6:fltk-1.3.4-1/png/pngget.c ****  * (Version 0.96 Copyright (c) 1996, 1997 Andreas Dilger)
   7:fltk-1.3.4-1/png/pngget.c ****  * (Version 0.88 Copyright (c) 1995, 1996 Guy Eric Schalnat, Group 42, Inc.)
   8:fltk-1.3.4-1/png/pngget.c ****  *
   9:fltk-1.3.4-1/png/pngget.c ****  * This code is released under the libpng license.
  10:fltk-1.3.4-1/png/pngget.c ****  * For conditions of distribution and use, see the disclaimer
  11:fltk-1.3.4-1/png/pngget.c ****  * and license in png.h
  12:fltk-1.3.4-1/png/pngget.c ****  *
  13:fltk-1.3.4-1/png/pngget.c ****  */
  14:fltk-1.3.4-1/png/pngget.c **** 
  15:fltk-1.3.4-1/png/pngget.c **** #include "pngpriv.h"
  16:fltk-1.3.4-1/png/pngget.c **** 
  17:fltk-1.3.4-1/png/pngget.c **** #if defined(PNG_READ_SUPPORTED) || defined(PNG_WRITE_SUPPORTED)
  18:fltk-1.3.4-1/png/pngget.c **** 
  19:fltk-1.3.4-1/png/pngget.c **** png_uint_32 PNGAPI
  20:fltk-1.3.4-1/png/pngget.c **** png_get_valid(png_const_structrp png_ptr, png_const_inforp info_ptr,
  21:fltk-1.3.4-1/png/pngget.c ****     png_uint_32 flag)
  22:fltk-1.3.4-1/png/pngget.c **** {
  23:fltk-1.3.4-1/png/pngget.c ****    if (png_ptr != NULL && info_ptr != NULL)
  24:fltk-1.3.4-1/png/pngget.c ****       return(info_ptr->valid & flag);
  25:fltk-1.3.4-1/png/pngget.c **** 
  26:fltk-1.3.4-1/png/pngget.c ****    return(0);
  27:fltk-1.3.4-1/png/pngget.c **** }
  28:fltk-1.3.4-1/png/pngget.c **** 
  29:fltk-1.3.4-1/png/pngget.c **** png_size_t PNGAPI
  30:fltk-1.3.4-1/png/pngget.c **** png_get_rowbytes(png_const_structrp png_ptr, png_const_inforp info_ptr)
  31:fltk-1.3.4-1/png/pngget.c **** {
  32:fltk-1.3.4-1/png/pngget.c ****    if (png_ptr != NULL && info_ptr != NULL)
  33:fltk-1.3.4-1/png/pngget.c ****       return(info_ptr->rowbytes);
  34:fltk-1.3.4-1/png/pngget.c **** 
  35:fltk-1.3.4-1/png/pngget.c ****    return(0);
  36:fltk-1.3.4-1/png/pngget.c **** }
  37:fltk-1.3.4-1/png/pngget.c **** 
  38:fltk-1.3.4-1/png/pngget.c **** #ifdef PNG_INFO_IMAGE_SUPPORTED
  39:fltk-1.3.4-1/png/pngget.c **** png_bytepp PNGAPI
  40:fltk-1.3.4-1/png/pngget.c **** png_get_rows(png_const_structrp png_ptr, png_const_inforp info_ptr)
  41:fltk-1.3.4-1/png/pngget.c **** {
  42:fltk-1.3.4-1/png/pngget.c ****    if (png_ptr != NULL && info_ptr != NULL)
  43:fltk-1.3.4-1/png/pngget.c ****       return(info_ptr->row_pointers);
  44:fltk-1.3.4-1/png/pngget.c **** 
  45:fltk-1.3.4-1/png/pngget.c ****    return(0);
  46:fltk-1.3.4-1/png/pngget.c **** }
  47:fltk-1.3.4-1/png/pngget.c **** #endif
  48:fltk-1.3.4-1/png/pngget.c **** 
  49:fltk-1.3.4-1/png/pngget.c **** #ifdef PNG_EASY_ACCESS_SUPPORTED
  50:fltk-1.3.4-1/png/pngget.c **** /* Easy access to info, added in libpng-0.99 */
  51:fltk-1.3.4-1/png/pngget.c **** png_uint_32 PNGAPI
  52:fltk-1.3.4-1/png/pngget.c **** png_get_image_width(png_const_structrp png_ptr, png_const_inforp info_ptr)
  53:fltk-1.3.4-1/png/pngget.c **** {
  54:fltk-1.3.4-1/png/pngget.c ****    if (png_ptr != NULL && info_ptr != NULL)
  55:fltk-1.3.4-1/png/pngget.c ****       return info_ptr->width;
  56:fltk-1.3.4-1/png/pngget.c **** 
  57:fltk-1.3.4-1/png/pngget.c ****    return (0);
  58:fltk-1.3.4-1/png/pngget.c **** }
  59:fltk-1.3.4-1/png/pngget.c **** 
  60:fltk-1.3.4-1/png/pngget.c **** png_uint_32 PNGAPI
  61:fltk-1.3.4-1/png/pngget.c **** png_get_image_height(png_const_structrp png_ptr, png_const_inforp info_ptr)
  62:fltk-1.3.4-1/png/pngget.c **** {
  63:fltk-1.3.4-1/png/pngget.c ****    if (png_ptr != NULL && info_ptr != NULL)
  64:fltk-1.3.4-1/png/pngget.c ****       return info_ptr->height;
  65:fltk-1.3.4-1/png/pngget.c **** 
  66:fltk-1.3.4-1/png/pngget.c ****    return (0);
  67:fltk-1.3.4-1/png/pngget.c **** }
  68:fltk-1.3.4-1/png/pngget.c **** 
  69:fltk-1.3.4-1/png/pngget.c **** png_byte PNGAPI
  70:fltk-1.3.4-1/png/pngget.c **** png_get_bit_depth(png_const_structrp png_ptr, png_const_inforp info_ptr)
  71:fltk-1.3.4-1/png/pngget.c **** {
  72:fltk-1.3.4-1/png/pngget.c ****    if (png_ptr != NULL && info_ptr != NULL)
  73:fltk-1.3.4-1/png/pngget.c ****       return info_ptr->bit_depth;
  74:fltk-1.3.4-1/png/pngget.c **** 
  75:fltk-1.3.4-1/png/pngget.c ****    return (0);
  76:fltk-1.3.4-1/png/pngget.c **** }
  77:fltk-1.3.4-1/png/pngget.c **** 
  78:fltk-1.3.4-1/png/pngget.c **** png_byte PNGAPI
  79:fltk-1.3.4-1/png/pngget.c **** png_get_color_type(png_const_structrp png_ptr, png_const_inforp info_ptr)
  80:fltk-1.3.4-1/png/pngget.c **** {
  81:fltk-1.3.4-1/png/pngget.c ****    if (png_ptr != NULL && info_ptr != NULL)
  82:fltk-1.3.4-1/png/pngget.c ****       return info_ptr->color_type;
  83:fltk-1.3.4-1/png/pngget.c **** 
  84:fltk-1.3.4-1/png/pngget.c ****    return (0);
  85:fltk-1.3.4-1/png/pngget.c **** }
  86:fltk-1.3.4-1/png/pngget.c **** 
  87:fltk-1.3.4-1/png/pngget.c **** png_byte PNGAPI
  88:fltk-1.3.4-1/png/pngget.c **** png_get_filter_type(png_const_structrp png_ptr, png_const_inforp info_ptr)
  89:fltk-1.3.4-1/png/pngget.c **** {
  90:fltk-1.3.4-1/png/pngget.c ****    if (png_ptr != NULL && info_ptr != NULL)
  91:fltk-1.3.4-1/png/pngget.c ****       return info_ptr->filter_type;
  92:fltk-1.3.4-1/png/pngget.c **** 
  93:fltk-1.3.4-1/png/pngget.c ****    return (0);
  94:fltk-1.3.4-1/png/pngget.c **** }
  95:fltk-1.3.4-1/png/pngget.c **** 
  96:fltk-1.3.4-1/png/pngget.c **** png_byte PNGAPI
  97:fltk-1.3.4-1/png/pngget.c **** png_get_interlace_type(png_const_structrp png_ptr, png_const_inforp info_ptr)
  98:fltk-1.3.4-1/png/pngget.c **** {
  99:fltk-1.3.4-1/png/pngget.c ****    if (png_ptr != NULL && info_ptr != NULL)
 100:fltk-1.3.4-1/png/pngget.c ****       return info_ptr->interlace_type;
 101:fltk-1.3.4-1/png/pngget.c **** 
 102:fltk-1.3.4-1/png/pngget.c ****    return (0);
 103:fltk-1.3.4-1/png/pngget.c **** }
 104:fltk-1.3.4-1/png/pngget.c **** 
 105:fltk-1.3.4-1/png/pngget.c **** png_byte PNGAPI
 106:fltk-1.3.4-1/png/pngget.c **** png_get_compression_type(png_const_structrp png_ptr, png_const_inforp info_ptr)
 107:fltk-1.3.4-1/png/pngget.c **** {
 108:fltk-1.3.4-1/png/pngget.c ****    if (png_ptr != NULL && info_ptr != NULL)
 109:fltk-1.3.4-1/png/pngget.c ****       return info_ptr->compression_type;
 110:fltk-1.3.4-1/png/pngget.c **** 
 111:fltk-1.3.4-1/png/pngget.c ****    return (0);
 112:fltk-1.3.4-1/png/pngget.c **** }
 113:fltk-1.3.4-1/png/pngget.c **** 
 114:fltk-1.3.4-1/png/pngget.c **** png_uint_32 PNGAPI
 115:fltk-1.3.4-1/png/pngget.c **** png_get_x_pixels_per_meter(png_const_structrp png_ptr, png_const_inforp
 116:fltk-1.3.4-1/png/pngget.c ****    info_ptr)
 117:fltk-1.3.4-1/png/pngget.c **** {
 118:fltk-1.3.4-1/png/pngget.c **** #ifdef PNG_pHYs_SUPPORTED
 119:fltk-1.3.4-1/png/pngget.c ****    if (png_ptr != NULL && info_ptr != NULL &&
 120:fltk-1.3.4-1/png/pngget.c ****        (info_ptr->valid & PNG_INFO_pHYs) != 0)
 121:fltk-1.3.4-1/png/pngget.c ****       {
 122:fltk-1.3.4-1/png/pngget.c ****          png_debug1(1, "in %s retrieval function",
 123:fltk-1.3.4-1/png/pngget.c ****              "png_get_x_pixels_per_meter");
 124:fltk-1.3.4-1/png/pngget.c **** 
 125:fltk-1.3.4-1/png/pngget.c ****          if (info_ptr->phys_unit_type == PNG_RESOLUTION_METER)
 126:fltk-1.3.4-1/png/pngget.c ****             return (info_ptr->x_pixels_per_unit);
 127:fltk-1.3.4-1/png/pngget.c ****       }
 128:fltk-1.3.4-1/png/pngget.c **** #else
 129:fltk-1.3.4-1/png/pngget.c ****    PNG_UNUSED(png_ptr)
 130:fltk-1.3.4-1/png/pngget.c ****    PNG_UNUSED(info_ptr)
 131:fltk-1.3.4-1/png/pngget.c **** #endif
 132:fltk-1.3.4-1/png/pngget.c **** 
 133:fltk-1.3.4-1/png/pngget.c ****    return (0);
 134:fltk-1.3.4-1/png/pngget.c **** }
 135:fltk-1.3.4-1/png/pngget.c **** 
 136:fltk-1.3.4-1/png/pngget.c **** png_uint_32 PNGAPI
 137:fltk-1.3.4-1/png/pngget.c **** png_get_y_pixels_per_meter(png_const_structrp png_ptr, png_const_inforp
 138:fltk-1.3.4-1/png/pngget.c ****     info_ptr)
 139:fltk-1.3.4-1/png/pngget.c **** {
 140:fltk-1.3.4-1/png/pngget.c **** #ifdef PNG_pHYs_SUPPORTED
 141:fltk-1.3.4-1/png/pngget.c ****    if (png_ptr != NULL && info_ptr != NULL &&
 142:fltk-1.3.4-1/png/pngget.c ****        (info_ptr->valid & PNG_INFO_pHYs) != 0)
 143:fltk-1.3.4-1/png/pngget.c ****    {
 144:fltk-1.3.4-1/png/pngget.c ****       png_debug1(1, "in %s retrieval function",
 145:fltk-1.3.4-1/png/pngget.c ****           "png_get_y_pixels_per_meter");
 146:fltk-1.3.4-1/png/pngget.c **** 
 147:fltk-1.3.4-1/png/pngget.c ****       if (info_ptr->phys_unit_type == PNG_RESOLUTION_METER)
 148:fltk-1.3.4-1/png/pngget.c ****          return (info_ptr->y_pixels_per_unit);
 149:fltk-1.3.4-1/png/pngget.c ****    }
 150:fltk-1.3.4-1/png/pngget.c **** #else
 151:fltk-1.3.4-1/png/pngget.c ****    PNG_UNUSED(png_ptr)
 152:fltk-1.3.4-1/png/pngget.c ****    PNG_UNUSED(info_ptr)
 153:fltk-1.3.4-1/png/pngget.c **** #endif
 154:fltk-1.3.4-1/png/pngget.c **** 
 155:fltk-1.3.4-1/png/pngget.c ****    return (0);
 156:fltk-1.3.4-1/png/pngget.c **** }
 157:fltk-1.3.4-1/png/pngget.c **** 
 158:fltk-1.3.4-1/png/pngget.c **** png_uint_32 PNGAPI
 159:fltk-1.3.4-1/png/pngget.c **** png_get_pixels_per_meter(png_const_structrp png_ptr, png_const_inforp info_ptr)
 160:fltk-1.3.4-1/png/pngget.c **** {
 161:fltk-1.3.4-1/png/pngget.c **** #ifdef PNG_pHYs_SUPPORTED
 162:fltk-1.3.4-1/png/pngget.c ****    if (png_ptr != NULL && info_ptr != NULL &&
 163:fltk-1.3.4-1/png/pngget.c ****        (info_ptr->valid & PNG_INFO_pHYs) != 0)
 164:fltk-1.3.4-1/png/pngget.c ****    {
 165:fltk-1.3.4-1/png/pngget.c ****       png_debug1(1, "in %s retrieval function", "png_get_pixels_per_meter");
 166:fltk-1.3.4-1/png/pngget.c **** 
 167:fltk-1.3.4-1/png/pngget.c ****       if (info_ptr->phys_unit_type == PNG_RESOLUTION_METER &&
 168:fltk-1.3.4-1/png/pngget.c ****           info_ptr->x_pixels_per_unit == info_ptr->y_pixels_per_unit)
 169:fltk-1.3.4-1/png/pngget.c ****          return (info_ptr->x_pixels_per_unit);
 170:fltk-1.3.4-1/png/pngget.c ****    }
 171:fltk-1.3.4-1/png/pngget.c **** #else
 172:fltk-1.3.4-1/png/pngget.c ****    PNG_UNUSED(png_ptr)
 173:fltk-1.3.4-1/png/pngget.c ****    PNG_UNUSED(info_ptr)
 174:fltk-1.3.4-1/png/pngget.c **** #endif
 175:fltk-1.3.4-1/png/pngget.c **** 
 176:fltk-1.3.4-1/png/pngget.c ****    return (0);
 177:fltk-1.3.4-1/png/pngget.c **** }
 178:fltk-1.3.4-1/png/pngget.c **** 
 179:fltk-1.3.4-1/png/pngget.c **** #ifdef PNG_FLOATING_POINT_SUPPORTED
 180:fltk-1.3.4-1/png/pngget.c **** float PNGAPI
 181:fltk-1.3.4-1/png/pngget.c **** png_get_pixel_aspect_ratio(png_const_structrp png_ptr, png_const_inforp
 182:fltk-1.3.4-1/png/pngget.c ****    info_ptr)
 183:fltk-1.3.4-1/png/pngget.c **** {
 184:fltk-1.3.4-1/png/pngget.c **** #ifdef PNG_READ_pHYs_SUPPORTED
 185:fltk-1.3.4-1/png/pngget.c ****    if (png_ptr != NULL && info_ptr != NULL &&
 186:fltk-1.3.4-1/png/pngget.c ****        (info_ptr->valid & PNG_INFO_pHYs) != 0)
 187:fltk-1.3.4-1/png/pngget.c ****    {
 188:fltk-1.3.4-1/png/pngget.c ****       png_debug1(1, "in %s retrieval function", "png_get_aspect_ratio");
 189:fltk-1.3.4-1/png/pngget.c **** 
 190:fltk-1.3.4-1/png/pngget.c ****       if (info_ptr->x_pixels_per_unit != 0)
 191:fltk-1.3.4-1/png/pngget.c ****          return ((float)((float)info_ptr->y_pixels_per_unit
 192:fltk-1.3.4-1/png/pngget.c ****              /(float)info_ptr->x_pixels_per_unit));
 193:fltk-1.3.4-1/png/pngget.c ****    }
 194:fltk-1.3.4-1/png/pngget.c **** #else
 195:fltk-1.3.4-1/png/pngget.c ****    PNG_UNUSED(png_ptr)
 196:fltk-1.3.4-1/png/pngget.c ****    PNG_UNUSED(info_ptr)
 197:fltk-1.3.4-1/png/pngget.c **** #endif
 198:fltk-1.3.4-1/png/pngget.c **** 
 199:fltk-1.3.4-1/png/pngget.c ****    return ((float)0.0);
 200:fltk-1.3.4-1/png/pngget.c **** }
 201:fltk-1.3.4-1/png/pngget.c **** #endif
 202:fltk-1.3.4-1/png/pngget.c **** 
 203:fltk-1.3.4-1/png/pngget.c **** #ifdef PNG_FIXED_POINT_SUPPORTED
 204:fltk-1.3.4-1/png/pngget.c **** png_fixed_point PNGAPI
 205:fltk-1.3.4-1/png/pngget.c **** png_get_pixel_aspect_ratio_fixed(png_const_structrp png_ptr,
 206:fltk-1.3.4-1/png/pngget.c ****     png_const_inforp info_ptr)
 207:fltk-1.3.4-1/png/pngget.c **** {
 208:fltk-1.3.4-1/png/pngget.c **** #ifdef PNG_READ_pHYs_SUPPORTED
 209:fltk-1.3.4-1/png/pngget.c ****    if (png_ptr != NULL && info_ptr != NULL &&
 210:fltk-1.3.4-1/png/pngget.c ****        (info_ptr->valid & PNG_INFO_pHYs) != 0 &&
 211:fltk-1.3.4-1/png/pngget.c ****        info_ptr->x_pixels_per_unit > 0 && info_ptr->y_pixels_per_unit > 0 &&
 212:fltk-1.3.4-1/png/pngget.c ****        info_ptr->x_pixels_per_unit <= PNG_UINT_31_MAX &&
 213:fltk-1.3.4-1/png/pngget.c ****        info_ptr->y_pixels_per_unit <= PNG_UINT_31_MAX)
 214:fltk-1.3.4-1/png/pngget.c ****    {
 215:fltk-1.3.4-1/png/pngget.c ****       png_fixed_point res;
 216:fltk-1.3.4-1/png/pngget.c **** 
 217:fltk-1.3.4-1/png/pngget.c ****       png_debug1(1, "in %s retrieval function", "png_get_aspect_ratio_fixed");
 218:fltk-1.3.4-1/png/pngget.c **** 
 219:fltk-1.3.4-1/png/pngget.c ****       /* The following casts work because a PNG 4 byte integer only has a valid
 220:fltk-1.3.4-1/png/pngget.c ****        * range of 0..2^31-1; otherwise the cast might overflow.
 221:fltk-1.3.4-1/png/pngget.c ****        */
 222:fltk-1.3.4-1/png/pngget.c ****       if (png_muldiv(&res, (png_int_32)info_ptr->y_pixels_per_unit, PNG_FP_1,
 223:fltk-1.3.4-1/png/pngget.c ****           (png_int_32)info_ptr->x_pixels_per_unit) != 0)
 224:fltk-1.3.4-1/png/pngget.c ****          return res;
 225:fltk-1.3.4-1/png/pngget.c ****    }
 226:fltk-1.3.4-1/png/pngget.c **** #else
 227:fltk-1.3.4-1/png/pngget.c ****    PNG_UNUSED(png_ptr)
 228:fltk-1.3.4-1/png/pngget.c ****    PNG_UNUSED(info_ptr)
 229:fltk-1.3.4-1/png/pngget.c **** #endif
 230:fltk-1.3.4-1/png/pngget.c **** 
 231:fltk-1.3.4-1/png/pngget.c ****    return 0;
 232:fltk-1.3.4-1/png/pngget.c **** }
 233:fltk-1.3.4-1/png/pngget.c **** #endif
 234:fltk-1.3.4-1/png/pngget.c **** 
 235:fltk-1.3.4-1/png/pngget.c **** png_int_32 PNGAPI
 236:fltk-1.3.4-1/png/pngget.c **** png_get_x_offset_microns(png_const_structrp png_ptr, png_const_inforp info_ptr)
 237:fltk-1.3.4-1/png/pngget.c **** {
 238:fltk-1.3.4-1/png/pngget.c **** #ifdef PNG_oFFs_SUPPORTED
 239:fltk-1.3.4-1/png/pngget.c ****    if (png_ptr != NULL && info_ptr != NULL &&
 240:fltk-1.3.4-1/png/pngget.c ****        (info_ptr->valid & PNG_INFO_oFFs) != 0)
 241:fltk-1.3.4-1/png/pngget.c ****    {
 242:fltk-1.3.4-1/png/pngget.c ****       png_debug1(1, "in %s retrieval function", "png_get_x_offset_microns");
 243:fltk-1.3.4-1/png/pngget.c **** 
 244:fltk-1.3.4-1/png/pngget.c ****       if (info_ptr->offset_unit_type == PNG_OFFSET_MICROMETER)
 245:fltk-1.3.4-1/png/pngget.c ****          return (info_ptr->x_offset);
 246:fltk-1.3.4-1/png/pngget.c ****    }
 247:fltk-1.3.4-1/png/pngget.c **** #else
 248:fltk-1.3.4-1/png/pngget.c ****    PNG_UNUSED(png_ptr)
 249:fltk-1.3.4-1/png/pngget.c ****    PNG_UNUSED(info_ptr)
 250:fltk-1.3.4-1/png/pngget.c **** #endif
 251:fltk-1.3.4-1/png/pngget.c **** 
 252:fltk-1.3.4-1/png/pngget.c ****    return (0);
 253:fltk-1.3.4-1/png/pngget.c **** }
 254:fltk-1.3.4-1/png/pngget.c **** 
 255:fltk-1.3.4-1/png/pngget.c **** png_int_32 PNGAPI
 256:fltk-1.3.4-1/png/pngget.c **** png_get_y_offset_microns(png_const_structrp png_ptr, png_const_inforp info_ptr)
 257:fltk-1.3.4-1/png/pngget.c **** {
 258:fltk-1.3.4-1/png/pngget.c **** #ifdef PNG_oFFs_SUPPORTED
 259:fltk-1.3.4-1/png/pngget.c ****    if (png_ptr != NULL && info_ptr != NULL &&
 260:fltk-1.3.4-1/png/pngget.c ****        (info_ptr->valid & PNG_INFO_oFFs) != 0)
 261:fltk-1.3.4-1/png/pngget.c ****    {
 262:fltk-1.3.4-1/png/pngget.c ****       png_debug1(1, "in %s retrieval function", "png_get_y_offset_microns");
 263:fltk-1.3.4-1/png/pngget.c **** 
 264:fltk-1.3.4-1/png/pngget.c ****       if (info_ptr->offset_unit_type == PNG_OFFSET_MICROMETER)
 265:fltk-1.3.4-1/png/pngget.c ****          return (info_ptr->y_offset);
 266:fltk-1.3.4-1/png/pngget.c ****    }
 267:fltk-1.3.4-1/png/pngget.c **** #else
 268:fltk-1.3.4-1/png/pngget.c ****    PNG_UNUSED(png_ptr)
 269:fltk-1.3.4-1/png/pngget.c ****    PNG_UNUSED(info_ptr)
 270:fltk-1.3.4-1/png/pngget.c **** #endif
 271:fltk-1.3.4-1/png/pngget.c **** 
 272:fltk-1.3.4-1/png/pngget.c ****    return (0);
 273:fltk-1.3.4-1/png/pngget.c **** }
 274:fltk-1.3.4-1/png/pngget.c **** 
 275:fltk-1.3.4-1/png/pngget.c **** png_int_32 PNGAPI
 276:fltk-1.3.4-1/png/pngget.c **** png_get_x_offset_pixels(png_const_structrp png_ptr, png_const_inforp info_ptr)
 277:fltk-1.3.4-1/png/pngget.c **** {
 278:fltk-1.3.4-1/png/pngget.c **** #ifdef PNG_oFFs_SUPPORTED
 279:fltk-1.3.4-1/png/pngget.c ****    if (png_ptr != NULL && info_ptr != NULL &&
 280:fltk-1.3.4-1/png/pngget.c ****        (info_ptr->valid & PNG_INFO_oFFs) != 0)
 281:fltk-1.3.4-1/png/pngget.c ****    {
 282:fltk-1.3.4-1/png/pngget.c ****       png_debug1(1, "in %s retrieval function", "png_get_x_offset_pixels");
 283:fltk-1.3.4-1/png/pngget.c **** 
 284:fltk-1.3.4-1/png/pngget.c ****       if (info_ptr->offset_unit_type == PNG_OFFSET_PIXEL)
 285:fltk-1.3.4-1/png/pngget.c ****          return (info_ptr->x_offset);
 286:fltk-1.3.4-1/png/pngget.c ****    }
 287:fltk-1.3.4-1/png/pngget.c **** #else
 288:fltk-1.3.4-1/png/pngget.c ****    PNG_UNUSED(png_ptr)
 289:fltk-1.3.4-1/png/pngget.c ****    PNG_UNUSED(info_ptr)
 290:fltk-1.3.4-1/png/pngget.c **** #endif
 291:fltk-1.3.4-1/png/pngget.c **** 
 292:fltk-1.3.4-1/png/pngget.c ****    return (0);
 293:fltk-1.3.4-1/png/pngget.c **** }
 294:fltk-1.3.4-1/png/pngget.c **** 
 295:fltk-1.3.4-1/png/pngget.c **** png_int_32 PNGAPI
 296:fltk-1.3.4-1/png/pngget.c **** png_get_y_offset_pixels(png_const_structrp png_ptr, png_const_inforp info_ptr)
 297:fltk-1.3.4-1/png/pngget.c **** {
 298:fltk-1.3.4-1/png/pngget.c **** #ifdef PNG_oFFs_SUPPORTED
 299:fltk-1.3.4-1/png/pngget.c ****    if (png_ptr != NULL && info_ptr != NULL &&
 300:fltk-1.3.4-1/png/pngget.c ****        (info_ptr->valid & PNG_INFO_oFFs) != 0)
 301:fltk-1.3.4-1/png/pngget.c ****    {
 302:fltk-1.3.4-1/png/pngget.c ****       png_debug1(1, "in %s retrieval function", "png_get_y_offset_pixels");
 303:fltk-1.3.4-1/png/pngget.c **** 
 304:fltk-1.3.4-1/png/pngget.c ****       if (info_ptr->offset_unit_type == PNG_OFFSET_PIXEL)
 305:fltk-1.3.4-1/png/pngget.c ****          return (info_ptr->y_offset);
 306:fltk-1.3.4-1/png/pngget.c ****    }
 307:fltk-1.3.4-1/png/pngget.c **** #else
 308:fltk-1.3.4-1/png/pngget.c ****    PNG_UNUSED(png_ptr)
 309:fltk-1.3.4-1/png/pngget.c ****    PNG_UNUSED(info_ptr)
 310:fltk-1.3.4-1/png/pngget.c **** #endif
 311:fltk-1.3.4-1/png/pngget.c **** 
 312:fltk-1.3.4-1/png/pngget.c ****    return (0);
 313:fltk-1.3.4-1/png/pngget.c **** }
 314:fltk-1.3.4-1/png/pngget.c **** 
 315:fltk-1.3.4-1/png/pngget.c **** #ifdef PNG_INCH_CONVERSIONS_SUPPORTED
 316:fltk-1.3.4-1/png/pngget.c **** static png_uint_32
 317:fltk-1.3.4-1/png/pngget.c **** ppi_from_ppm(png_uint_32 ppm)
 318:fltk-1.3.4-1/png/pngget.c **** {
  11              		.loc 1 318 1 view -0
  12              		.cfi_startproc
  13              		.loc 1 318 1 is_stmt 0 view .LVU1
  14 0000 4883EC18 		subq	$24, %rsp
  15              		.cfi_def_cfa_offset 32
  16              		.loc 1 318 1 view .LVU2
  17 0004 64488B04 		movq	%fs:40, %rax
  17      25280000 
  17      00
  18 000d 48894424 		movq	%rax, 8(%rsp)
  18      08
  19 0012 31C0     		xorl	%eax, %eax
 319:fltk-1.3.4-1/png/pngget.c **** #if 0
 320:fltk-1.3.4-1/png/pngget.c ****    /* The conversion is *(2.54/100), in binary (32 digits):
 321:fltk-1.3.4-1/png/pngget.c ****     * .00000110100000001001110101001001
 322:fltk-1.3.4-1/png/pngget.c ****     */
 323:fltk-1.3.4-1/png/pngget.c ****    png_uint_32 t1001, t1101;
 324:fltk-1.3.4-1/png/pngget.c ****    ppm >>= 1;                  /* .1 */
 325:fltk-1.3.4-1/png/pngget.c ****    t1001 = ppm + (ppm >> 3);   /* .1001 */
 326:fltk-1.3.4-1/png/pngget.c ****    t1101 = t1001 + (ppm >> 1); /* .1101 */
 327:fltk-1.3.4-1/png/pngget.c ****    ppm >>= 20;                 /* .000000000000000000001 */
 328:fltk-1.3.4-1/png/pngget.c ****    t1101 += t1101 >> 15;       /* .1101000000000001101 */
 329:fltk-1.3.4-1/png/pngget.c ****    t1001 >>= 11;               /* .000000000001001 */
 330:fltk-1.3.4-1/png/pngget.c ****    t1001 += t1001 >> 12;       /* .000000000001001000000001001 */
 331:fltk-1.3.4-1/png/pngget.c ****    ppm += t1001;               /* .000000000001001000001001001 */
 332:fltk-1.3.4-1/png/pngget.c ****    ppm += t1101;               /* .110100000001001110101001001 */
 333:fltk-1.3.4-1/png/pngget.c ****    return (ppm + 16) >> 5;/* .00000110100000001001110101001001 */
 334:fltk-1.3.4-1/png/pngget.c **** #else
 335:fltk-1.3.4-1/png/pngget.c ****    /* The argument is a PNG unsigned integer, so it is not permitted
 336:fltk-1.3.4-1/png/pngget.c ****     * to be bigger than 2^31.
 337:fltk-1.3.4-1/png/pngget.c ****     */
 338:fltk-1.3.4-1/png/pngget.c ****    png_fixed_point result;
  20              		.loc 1 338 4 is_stmt 1 view .LVU3
 339:fltk-1.3.4-1/png/pngget.c ****    if (ppm <= PNG_UINT_31_MAX && png_muldiv(&result, (png_int_32)ppm, 127,
  21              		.loc 1 339 4 view .LVU4
  22              		.loc 1 339 7 is_stmt 0 view .LVU5
  23 0014 85FF     		testl	%edi, %edi
  24 0016 7918     		jns	.L2
  25              	.LVL1:
  26              	.L4:
 340:fltk-1.3.4-1/png/pngget.c ****        5000) != 0)
 341:fltk-1.3.4-1/png/pngget.c ****       return result;
 342:fltk-1.3.4-1/png/pngget.c **** 
 343:fltk-1.3.4-1/png/pngget.c ****    /* Overflow. */
 344:fltk-1.3.4-1/png/pngget.c ****    return 0;
  27              		.loc 1 344 11 view .LVU6
  28 0018 31C0     		xorl	%eax, %eax
  29              	.L1:
 345:fltk-1.3.4-1/png/pngget.c **** #endif
 346:fltk-1.3.4-1/png/pngget.c **** }
  30              		.loc 1 346 1 view .LVU7
  31 001a 488B5424 		movq	8(%rsp), %rdx
  31      08
  32 001f 64483314 		xorq	%fs:40, %rdx
  32      25280000 
  32      00
  33 0028 7526     		jne	.L11
  34 002a 4883C418 		addq	$24, %rsp
  35              		.cfi_remember_state
  36              		.cfi_def_cfa_offset 8
  37 002e C3       		ret
  38              	.LVL2:
  39 002f 90       		.p2align 4,,10
  40              		.p2align 3
  41              	.L2:
  42              		.cfi_restore_state
  43              		.loc 1 346 1 view .LVU8
  44 0030 89FE     		movl	%edi, %esi
 339:fltk-1.3.4-1/png/pngget.c ****        5000) != 0)
  45              		.loc 1 339 34 discriminator 1 view .LVU9
  46 0032 B9881300 		movl	$5000, %ecx
  46      00
  47 0037 488D7C24 		leaq	4(%rsp), %rdi
  47      04
  48              	.LVL3:
 339:fltk-1.3.4-1/png/pngget.c ****        5000) != 0)
  49              		.loc 1 339 34 discriminator 1 view .LVU10
  50 003c BA7F0000 		movl	$127, %edx
  50      00
  51 0041 E8000000 		call	png_muldiv@PLT
  51      00
  52              	.LVL4:
 339:fltk-1.3.4-1/png/pngget.c ****        5000) != 0)
  53              		.loc 1 339 31 discriminator 1 view .LVU11
  54 0046 85C0     		testl	%eax, %eax
  55 0048 74CE     		je	.L4
 341:fltk-1.3.4-1/png/pngget.c **** 
  56              		.loc 1 341 7 is_stmt 1 view .LVU12
 341:fltk-1.3.4-1/png/pngget.c **** 
  57              		.loc 1 341 14 is_stmt 0 view .LVU13
  58 004a 8B442404 		movl	4(%rsp), %eax
  59 004e EBCA     		jmp	.L1
  60              	.L11:
  61              		.loc 1 346 1 view .LVU14
  62 0050 E8000000 		call	__stack_chk_fail@PLT
  62      00
  63              	.LVL5:
  64              		.cfi_endproc
  65              	.LFE60:
  67              		.section	.text.png_get_valid,"ax",@progbits
  68              		.p2align 4
  69              		.globl	png_get_valid
  71              	png_get_valid:
  72              	.LVL6:
  73              	.LFB41:
  22:fltk-1.3.4-1/png/pngget.c ****    if (png_ptr != NULL && info_ptr != NULL)
  74              		.loc 1 22 1 is_stmt 1 view -0
  75              		.cfi_startproc
  22:fltk-1.3.4-1/png/pngget.c ****    if (png_ptr != NULL && info_ptr != NULL)
  76              		.loc 1 22 1 is_stmt 0 view .LVU16
  77 0000 F30F1EFA 		endbr64
  23:fltk-1.3.4-1/png/pngget.c ****       return(info_ptr->valid & flag);
  78              		.loc 1 23 4 is_stmt 1 view .LVU17
  23:fltk-1.3.4-1/png/pngget.c ****       return(info_ptr->valid & flag);
  79              		.loc 1 23 7 is_stmt 0 view .LVU18
  80 0004 4885FF   		testq	%rdi, %rdi
  81 0007 740F     		je	.L14
  82 0009 4885F6   		testq	%rsi, %rsi
  83 000c 740A     		je	.L14
  24:fltk-1.3.4-1/png/pngget.c **** 
  84              		.loc 1 24 7 is_stmt 1 view .LVU19
  24:fltk-1.3.4-1/png/pngget.c **** 
  85              		.loc 1 24 30 is_stmt 0 view .LVU20
  86 000e 8B4608   		movl	8(%rsi), %eax
  87 0011 21D0     		andl	%edx, %eax
  88 0013 C3       		ret
  89              		.p2align 4,,10
  90 0014 0F1F4000 		.p2align 3
  91              	.L14:
  26:fltk-1.3.4-1/png/pngget.c **** }
  92              		.loc 1 26 10 view .LVU21
  93 0018 31C0     		xorl	%eax, %eax
  27:fltk-1.3.4-1/png/pngget.c **** 
  94              		.loc 1 27 1 view .LVU22
  95 001a C3       		ret
  96              		.cfi_endproc
  97              	.LFE41:
  99              		.section	.text.png_get_rowbytes,"ax",@progbits
 100              		.p2align 4
 101              		.globl	png_get_rowbytes
 103              	png_get_rowbytes:
 104              	.LVL7:
 105              	.LFB42:
  31:fltk-1.3.4-1/png/pngget.c ****    if (png_ptr != NULL && info_ptr != NULL)
 106              		.loc 1 31 1 is_stmt 1 view -0
 107              		.cfi_startproc
  31:fltk-1.3.4-1/png/pngget.c ****    if (png_ptr != NULL && info_ptr != NULL)
 108              		.loc 1 31 1 is_stmt 0 view .LVU24
 109 0000 F30F1EFA 		endbr64
  32:fltk-1.3.4-1/png/pngget.c ****       return(info_ptr->rowbytes);
 110              		.loc 1 32 4 is_stmt 1 view .LVU25
  32:fltk-1.3.4-1/png/pngget.c ****       return(info_ptr->rowbytes);
 111              		.loc 1 32 7 is_stmt 0 view .LVU26
 112 0004 4885FF   		testq	%rdi, %rdi
 113 0007 740F     		je	.L23
 114 0009 4885F6   		testq	%rsi, %rsi
 115 000c 740A     		je	.L23
  33:fltk-1.3.4-1/png/pngget.c **** 
 116              		.loc 1 33 7 is_stmt 1 view .LVU27
  33:fltk-1.3.4-1/png/pngget.c **** 
 117              		.loc 1 33 22 is_stmt 0 view .LVU28
 118 000e 488B4610 		movq	16(%rsi), %rax
 119 0012 C3       		ret
 120              		.p2align 4,,10
 121 0013 0F1F4400 		.p2align 3
 121      00
 122              	.L23:
  35:fltk-1.3.4-1/png/pngget.c **** }
 123              		.loc 1 35 10 view .LVU29
 124 0018 31C0     		xorl	%eax, %eax
  36:fltk-1.3.4-1/png/pngget.c **** 
 125              		.loc 1 36 1 view .LVU30
 126 001a C3       		ret
 127              		.cfi_endproc
 128              	.LFE42:
 130              		.section	.text.png_get_rows,"ax",@progbits
 131              		.p2align 4
 132              		.globl	png_get_rows
 134              	png_get_rows:
 135              	.LVL8:
 136              	.LFB43:
  41:fltk-1.3.4-1/png/pngget.c ****    if (png_ptr != NULL && info_ptr != NULL)
 137              		.loc 1 41 1 is_stmt 1 view -0
 138              		.cfi_startproc
  41:fltk-1.3.4-1/png/pngget.c ****    if (png_ptr != NULL && info_ptr != NULL)
 139              		.loc 1 41 1 is_stmt 0 view .LVU32
 140 0000 F30F1EFA 		endbr64
  42:fltk-1.3.4-1/png/pngget.c ****       return(info_ptr->row_pointers);
 141              		.loc 1 42 4 is_stmt 1 view .LVU33
  42:fltk-1.3.4-1/png/pngget.c ****       return(info_ptr->row_pointers);
 142              		.loc 1 42 7 is_stmt 0 view .LVU34
 143 0004 4885FF   		testq	%rdi, %rdi
 144 0007 7417     		je	.L32
 145 0009 4885F6   		testq	%rsi, %rsi
 146 000c 7412     		je	.L32
  43:fltk-1.3.4-1/png/pngget.c **** 
 147              		.loc 1 43 7 is_stmt 1 view .LVU35
  43:fltk-1.3.4-1/png/pngget.c **** 
 148              		.loc 1 43 22 is_stmt 0 view .LVU36
 149 000e 488B8650 		movq	336(%rsi), %rax
 149      010000
 150 0015 C3       		ret
 151 0016 662E0F1F 		.p2align 4,,10
 151      84000000 
 151      0000
 152              		.p2align 3
 153              	.L32:
  45:fltk-1.3.4-1/png/pngget.c **** }
 154              		.loc 1 45 10 view .LVU37
 155 0020 31C0     		xorl	%eax, %eax
  46:fltk-1.3.4-1/png/pngget.c **** #endif
 156              		.loc 1 46 1 view .LVU38
 157 0022 C3       		ret
 158              		.cfi_endproc
 159              	.LFE43:
 161              		.section	.text.png_get_image_width,"ax",@progbits
 162              		.p2align 4
 163              		.globl	png_get_image_width
 165              	png_get_image_width:
 166              	.LVL9:
 167              	.LFB44:
  53:fltk-1.3.4-1/png/pngget.c ****    if (png_ptr != NULL && info_ptr != NULL)
 168              		.loc 1 53 1 is_stmt 1 view -0
 169              		.cfi_startproc
  53:fltk-1.3.4-1/png/pngget.c ****    if (png_ptr != NULL && info_ptr != NULL)
 170              		.loc 1 53 1 is_stmt 0 view .LVU40
 171 0000 F30F1EFA 		endbr64
  54:fltk-1.3.4-1/png/pngget.c ****       return info_ptr->width;
 172              		.loc 1 54 4 is_stmt 1 view .LVU41
  54:fltk-1.3.4-1/png/pngget.c ****       return info_ptr->width;
 173              		.loc 1 54 7 is_stmt 0 view .LVU42
 174 0004 4885FF   		testq	%rdi, %rdi
 175 0007 740F     		je	.L41
 176 0009 4885F6   		testq	%rsi, %rsi
 177 000c 740A     		je	.L41
  55:fltk-1.3.4-1/png/pngget.c **** 
 178              		.loc 1 55 7 is_stmt 1 view .LVU43
  55:fltk-1.3.4-1/png/pngget.c **** 
 179              		.loc 1 55 22 is_stmt 0 view .LVU44
 180 000e 8B06     		movl	(%rsi), %eax
 181 0010 C3       		ret
 182              		.p2align 4,,10
 183 0011 0F1F8000 		.p2align 3
 183      000000
 184              	.L41:
  57:fltk-1.3.4-1/png/pngget.c **** }
 185              		.loc 1 57 11 view .LVU45
 186 0018 31C0     		xorl	%eax, %eax
  58:fltk-1.3.4-1/png/pngget.c **** 
 187              		.loc 1 58 1 view .LVU46
 188 001a C3       		ret
 189              		.cfi_endproc
 190              	.LFE44:
 192              		.section	.text.png_get_image_height,"ax",@progbits
 193              		.p2align 4
 194              		.globl	png_get_image_height
 196              	png_get_image_height:
 197              	.LVL10:
 198              	.LFB45:
  62:fltk-1.3.4-1/png/pngget.c ****    if (png_ptr != NULL && info_ptr != NULL)
 199              		.loc 1 62 1 is_stmt 1 view -0
 200              		.cfi_startproc
  62:fltk-1.3.4-1/png/pngget.c ****    if (png_ptr != NULL && info_ptr != NULL)
 201              		.loc 1 62 1 is_stmt 0 view .LVU48
 202 0000 F30F1EFA 		endbr64
  63:fltk-1.3.4-1/png/pngget.c ****       return info_ptr->height;
 203              		.loc 1 63 4 is_stmt 1 view .LVU49
  63:fltk-1.3.4-1/png/pngget.c ****       return info_ptr->height;
 204              		.loc 1 63 7 is_stmt 0 view .LVU50
 205 0004 4885FF   		testq	%rdi, %rdi
 206 0007 740F     		je	.L50
 207 0009 4885F6   		testq	%rsi, %rsi
 208 000c 740A     		je	.L50
  64:fltk-1.3.4-1/png/pngget.c **** 
 209              		.loc 1 64 7 is_stmt 1 view .LVU51
  64:fltk-1.3.4-1/png/pngget.c **** 
 210              		.loc 1 64 22 is_stmt 0 view .LVU52
 211 000e 8B4604   		movl	4(%rsi), %eax
 212 0011 C3       		ret
 213              		.p2align 4,,10
 214 0012 660F1F44 		.p2align 3
 214      0000
 215              	.L50:
  66:fltk-1.3.4-1/png/pngget.c **** }
 216              		.loc 1 66 11 view .LVU53
 217 0018 31C0     		xorl	%eax, %eax
  67:fltk-1.3.4-1/png/pngget.c **** 
 218              		.loc 1 67 1 view .LVU54
 219 001a C3       		ret
 220              		.cfi_endproc
 221              	.LFE45:
 223              		.section	.text.png_get_bit_depth,"ax",@progbits
 224              		.p2align 4
 225              		.globl	png_get_bit_depth
 227              	png_get_bit_depth:
 228              	.LVL11:
 229              	.LFB46:
  71:fltk-1.3.4-1/png/pngget.c ****    if (png_ptr != NULL && info_ptr != NULL)
 230              		.loc 1 71 1 is_stmt 1 view -0
 231              		.cfi_startproc
  71:fltk-1.3.4-1/png/pngget.c ****    if (png_ptr != NULL && info_ptr != NULL)
 232              		.loc 1 71 1 is_stmt 0 view .LVU56
 233 0000 F30F1EFA 		endbr64
  72:fltk-1.3.4-1/png/pngget.c ****       return info_ptr->bit_depth;
 234              		.loc 1 72 4 is_stmt 1 view .LVU57
  72:fltk-1.3.4-1/png/pngget.c ****       return info_ptr->bit_depth;
 235              		.loc 1 72 7 is_stmt 0 view .LVU58
 236 0004 4885FF   		testq	%rdi, %rdi
 237 0007 740F     		je	.L59
 238 0009 4885F6   		testq	%rsi, %rsi
 239 000c 740A     		je	.L59
  73:fltk-1.3.4-1/png/pngget.c **** 
 240              		.loc 1 73 7 is_stmt 1 view .LVU59
  73:fltk-1.3.4-1/png/pngget.c **** 
 241              		.loc 1 73 22 is_stmt 0 view .LVU60
 242 000e 0FB64624 		movzbl	36(%rsi), %eax
 243 0012 C3       		ret
 244              		.p2align 4,,10
 245 0013 0F1F4400 		.p2align 3
 245      00
 246              	.L59:
  75:fltk-1.3.4-1/png/pngget.c **** }
 247              		.loc 1 75 11 view .LVU61
 248 0018 31C0     		xorl	%eax, %eax
  76:fltk-1.3.4-1/png/pngget.c **** 
 249              		.loc 1 76 1 view .LVU62
 250 001a C3       		ret
 251              		.cfi_endproc
 252              	.LFE46:
 254              		.section	.text.png_get_color_type,"ax",@progbits
 255              		.p2align 4
 256              		.globl	png_get_color_type
 258              	png_get_color_type:
 259              	.LVL12:
 260              	.LFB47:
  80:fltk-1.3.4-1/png/pngget.c ****    if (png_ptr != NULL && info_ptr != NULL)
 261              		.loc 1 80 1 is_stmt 1 view -0
 262              		.cfi_startproc
  80:fltk-1.3.4-1/png/pngget.c ****    if (png_ptr != NULL && info_ptr != NULL)
 263              		.loc 1 80 1 is_stmt 0 view .LVU64
 264 0000 F30F1EFA 		endbr64
  81:fltk-1.3.4-1/png/pngget.c ****       return info_ptr->color_type;
 265              		.loc 1 81 4 is_stmt 1 view .LVU65
  81:fltk-1.3.4-1/png/pngget.c ****       return info_ptr->color_type;
 266              		.loc 1 81 7 is_stmt 0 view .LVU66
 267 0004 4885FF   		testq	%rdi, %rdi
 268 0007 740F     		je	.L68
 269 0009 4885F6   		testq	%rsi, %rsi
 270 000c 740A     		je	.L68
  82:fltk-1.3.4-1/png/pngget.c **** 
 271              		.loc 1 82 7 is_stmt 1 view .LVU67
  82:fltk-1.3.4-1/png/pngget.c **** 
 272              		.loc 1 82 22 is_stmt 0 view .LVU68
 273 000e 0FB64625 		movzbl	37(%rsi), %eax
 274 0012 C3       		ret
 275              		.p2align 4,,10
 276 0013 0F1F4400 		.p2align 3
 276      00
 277              	.L68:
  84:fltk-1.3.4-1/png/pngget.c **** }
 278              		.loc 1 84 11 view .LVU69
 279 0018 31C0     		xorl	%eax, %eax
  85:fltk-1.3.4-1/png/pngget.c **** 
 280              		.loc 1 85 1 view .LVU70
 281 001a C3       		ret
 282              		.cfi_endproc
 283              	.LFE47:
 285              		.section	.text.png_get_filter_type,"ax",@progbits
 286              		.p2align 4
 287              		.globl	png_get_filter_type
 289              	png_get_filter_type:
 290              	.LVL13:
 291              	.LFB48:
  89:fltk-1.3.4-1/png/pngget.c ****    if (png_ptr != NULL && info_ptr != NULL)
 292              		.loc 1 89 1 is_stmt 1 view -0
 293              		.cfi_startproc
  89:fltk-1.3.4-1/png/pngget.c ****    if (png_ptr != NULL && info_ptr != NULL)
 294              		.loc 1 89 1 is_stmt 0 view .LVU72
 295 0000 F30F1EFA 		endbr64
  90:fltk-1.3.4-1/png/pngget.c ****       return info_ptr->filter_type;
 296              		.loc 1 90 4 is_stmt 1 view .LVU73
  90:fltk-1.3.4-1/png/pngget.c ****       return info_ptr->filter_type;
 297              		.loc 1 90 7 is_stmt 0 view .LVU74
 298 0004 4885FF   		testq	%rdi, %rdi
 299 0007 740F     		je	.L77
 300 0009 4885F6   		testq	%rsi, %rsi
 301 000c 740A     		je	.L77
  91:fltk-1.3.4-1/png/pngget.c **** 
 302              		.loc 1 91 7 is_stmt 1 view .LVU75
  91:fltk-1.3.4-1/png/pngget.c **** 
 303              		.loc 1 91 22 is_stmt 0 view .LVU76
 304 000e 0FB64627 		movzbl	39(%rsi), %eax
 305 0012 C3       		ret
 306              		.p2align 4,,10
 307 0013 0F1F4400 		.p2align 3
 307      00
 308              	.L77:
  93:fltk-1.3.4-1/png/pngget.c **** }
 309              		.loc 1 93 11 view .LVU77
 310 0018 31C0     		xorl	%eax, %eax
  94:fltk-1.3.4-1/png/pngget.c **** 
 311              		.loc 1 94 1 view .LVU78
 312 001a C3       		ret
 313              		.cfi_endproc
 314              	.LFE48:
 316              		.section	.text.png_get_interlace_type,"ax",@progbits
 317              		.p2align 4
 318              		.globl	png_get_interlace_type
 320              	png_get_interlace_type:
 321              	.LVL14:
 322              	.LFB49:
  98:fltk-1.3.4-1/png/pngget.c ****    if (png_ptr != NULL && info_ptr != NULL)
 323              		.loc 1 98 1 is_stmt 1 view -0
 324              		.cfi_startproc
  98:fltk-1.3.4-1/png/pngget.c ****    if (png_ptr != NULL && info_ptr != NULL)
 325              		.loc 1 98 1 is_stmt 0 view .LVU80
 326 0000 F30F1EFA 		endbr64
  99:fltk-1.3.4-1/png/pngget.c ****       return info_ptr->interlace_type;
 327              		.loc 1 99 4 is_stmt 1 view .LVU81
  99:fltk-1.3.4-1/png/pngget.c ****       return info_ptr->interlace_type;
 328              		.loc 1 99 7 is_stmt 0 view .LVU82
 329 0004 4885FF   		testq	%rdi, %rdi
 330 0007 740F     		je	.L86
 331 0009 4885F6   		testq	%rsi, %rsi
 332 000c 740A     		je	.L86
 100:fltk-1.3.4-1/png/pngget.c **** 
 333              		.loc 1 100 7 is_stmt 1 view .LVU83
 100:fltk-1.3.4-1/png/pngget.c **** 
 334              		.loc 1 100 22 is_stmt 0 view .LVU84
 335 000e 0FB64628 		movzbl	40(%rsi), %eax
 336 0012 C3       		ret
 337              		.p2align 4,,10
 338 0013 0F1F4400 		.p2align 3
 338      00
 339              	.L86:
 102:fltk-1.3.4-1/png/pngget.c **** }
 340              		.loc 1 102 11 view .LVU85
 341 0018 31C0     		xorl	%eax, %eax
 103:fltk-1.3.4-1/png/pngget.c **** 
 342              		.loc 1 103 1 view .LVU86
 343 001a C3       		ret
 344              		.cfi_endproc
 345              	.LFE49:
 347              		.section	.text.png_get_compression_type,"ax",@progbits
 348              		.p2align 4
 349              		.globl	png_get_compression_type
 351              	png_get_compression_type:
 352              	.LVL15:
 353              	.LFB50:
 107:fltk-1.3.4-1/png/pngget.c ****    if (png_ptr != NULL && info_ptr != NULL)
 354              		.loc 1 107 1 is_stmt 1 view -0
 355              		.cfi_startproc
 107:fltk-1.3.4-1/png/pngget.c ****    if (png_ptr != NULL && info_ptr != NULL)
 356              		.loc 1 107 1 is_stmt 0 view .LVU88
 357 0000 F30F1EFA 		endbr64
 108:fltk-1.3.4-1/png/pngget.c ****       return info_ptr->compression_type;
 358              		.loc 1 108 4 is_stmt 1 view .LVU89
 108:fltk-1.3.4-1/png/pngget.c ****       return info_ptr->compression_type;
 359              		.loc 1 108 7 is_stmt 0 view .LVU90
 360 0004 4885FF   		testq	%rdi, %rdi
 361 0007 740F     		je	.L95
 362 0009 4885F6   		testq	%rsi, %rsi
 363 000c 740A     		je	.L95
 109:fltk-1.3.4-1/png/pngget.c **** 
 364              		.loc 1 109 7 is_stmt 1 view .LVU91
 109:fltk-1.3.4-1/png/pngget.c **** 
 365              		.loc 1 109 22 is_stmt 0 view .LVU92
 366 000e 0FB64626 		movzbl	38(%rsi), %eax
 367 0012 C3       		ret
 368              		.p2align 4,,10
 369 0013 0F1F4400 		.p2align 3
 369      00
 370              	.L95:
 111:fltk-1.3.4-1/png/pngget.c **** }
 371              		.loc 1 111 11 view .LVU93
 372 0018 31C0     		xorl	%eax, %eax
 112:fltk-1.3.4-1/png/pngget.c **** 
 373              		.loc 1 112 1 view .LVU94
 374 001a C3       		ret
 375              		.cfi_endproc
 376              	.LFE50:
 378              		.section	.text.png_get_x_pixels_per_meter,"ax",@progbits
 379              		.p2align 4
 380              		.globl	png_get_x_pixels_per_meter
 382              	png_get_x_pixels_per_meter:
 383              	.LVL16:
 384              	.LFB51:
 117:fltk-1.3.4-1/png/pngget.c **** #ifdef PNG_pHYs_SUPPORTED
 385              		.loc 1 117 1 is_stmt 1 view -0
 386              		.cfi_startproc
 117:fltk-1.3.4-1/png/pngget.c **** #ifdef PNG_pHYs_SUPPORTED
 387              		.loc 1 117 1 is_stmt 0 view .LVU96
 388 0000 F30F1EFA 		endbr64
 119:fltk-1.3.4-1/png/pngget.c ****        (info_ptr->valid & PNG_INFO_pHYs) != 0)
 389              		.loc 1 119 4 is_stmt 1 view .LVU97
 119:fltk-1.3.4-1/png/pngget.c ****        (info_ptr->valid & PNG_INFO_pHYs) != 0)
 390              		.loc 1 119 7 is_stmt 0 view .LVU98
 391 0004 4885FF   		testq	%rdi, %rdi
 392 0007 741F     		je	.L104
 393 0009 4885F6   		testq	%rsi, %rsi
 394 000c 741A     		je	.L104
 119:fltk-1.3.4-1/png/pngget.c ****        (info_ptr->valid & PNG_INFO_pHYs) != 0)
 395              		.loc 1 119 44 discriminator 1 view .LVU99
 396 000e 8B4608   		movl	8(%rsi), %eax
 397 0011 25800000 		andl	$128, %eax
 397      00
 398 0016 740B     		je	.L102
 399              	.LVL17:
 400              	.LBB16:
 401              	.LBI16:
 115:fltk-1.3.4-1/png/pngget.c ****    info_ptr)
 402              		.loc 1 115 1 is_stmt 1 view .LVU100
 403              	.LBB17:
 122:fltk-1.3.4-1/png/pngget.c ****              "png_get_x_pixels_per_meter");
 404              		.loc 1 122 10 view .LVU101
 125:fltk-1.3.4-1/png/pngget.c ****             return (info_ptr->x_pixels_per_unit);
 405              		.loc 1 125 10 view .LVU102
 406              	.LBE17:
 407              	.LBE16:
 133:fltk-1.3.4-1/png/pngget.c **** }
 408              		.loc 1 133 11 is_stmt 0 view .LVU103
 409 0018 31C0     		xorl	%eax, %eax
 410              	.LBB20:
 411              	.LBB18:
 125:fltk-1.3.4-1/png/pngget.c ****             return (info_ptr->x_pixels_per_unit);
 412              		.loc 1 125 13 view .LVU104
 413 001a 80BEE800 		cmpb	$1, 232(%rsi)
 413      000001
 414 0021 740D     		je	.L115
 415              	.LVL18:
 416              	.L102:
 125:fltk-1.3.4-1/png/pngget.c ****             return (info_ptr->x_pixels_per_unit);
 417              		.loc 1 125 13 view .LVU105
 418              	.LBE18:
 419              	.LBE20:
 134:fltk-1.3.4-1/png/pngget.c **** 
 420              		.loc 1 134 1 view .LVU106
 421 0023 C3       		ret
 422              		.p2align 4,,10
 423 0024 0F1F4000 		.p2align 3
 424              	.L104:
 133:fltk-1.3.4-1/png/pngget.c **** }
 425              		.loc 1 133 11 view .LVU107
 426 0028 31C0     		xorl	%eax, %eax
 134:fltk-1.3.4-1/png/pngget.c **** 
 427              		.loc 1 134 1 view .LVU108
 428 002a C3       		ret
 429              	.LVL19:
 430 002b 0F1F4400 		.p2align 4,,10
 430      00
 431              		.p2align 3
 432              	.L115:
 433              	.LBB21:
 434              	.LBB19:
 126:fltk-1.3.4-1/png/pngget.c ****       }
 435              		.loc 1 126 13 is_stmt 1 view .LVU109
 126:fltk-1.3.4-1/png/pngget.c ****       }
 436              		.loc 1 126 29 is_stmt 0 view .LVU110
 437 0030 8B86E000 		movl	224(%rsi), %eax
 437      0000
 438 0036 C3       		ret
 439              	.LBE19:
 440              	.LBE21:
 441              		.cfi_endproc
 442              	.LFE51:
 444              		.section	.text.png_get_y_pixels_per_meter,"ax",@progbits
 445              		.p2align 4
 446              		.globl	png_get_y_pixels_per_meter
 448              	png_get_y_pixels_per_meter:
 449              	.LVL20:
 450              	.LFB52:
 139:fltk-1.3.4-1/png/pngget.c **** #ifdef PNG_pHYs_SUPPORTED
 451              		.loc 1 139 1 is_stmt 1 view -0
 452              		.cfi_startproc
 139:fltk-1.3.4-1/png/pngget.c **** #ifdef PNG_pHYs_SUPPORTED
 453              		.loc 1 139 1 is_stmt 0 view .LVU112
 454 0000 F30F1EFA 		endbr64
 141:fltk-1.3.4-1/png/pngget.c ****        (info_ptr->valid & PNG_INFO_pHYs) != 0)
 455              		.loc 1 141 4 is_stmt 1 view .LVU113
 141:fltk-1.3.4-1/png/pngget.c ****        (info_ptr->valid & PNG_INFO_pHYs) != 0)
 456              		.loc 1 141 7 is_stmt 0 view .LVU114
 457 0004 4885FF   		testq	%rdi, %rdi
 458 0007 741F     		je	.L118
 459 0009 4885F6   		testq	%rsi, %rsi
 460 000c 741A     		je	.L118
 141:fltk-1.3.4-1/png/pngget.c ****        (info_ptr->valid & PNG_INFO_pHYs) != 0)
 461              		.loc 1 141 44 discriminator 1 view .LVU115
 462 000e 8B4608   		movl	8(%rsi), %eax
 463 0011 25800000 		andl	$128, %eax
 463      00
 464 0016 740B     		je	.L116
 465              	.LVL21:
 466              	.LBB24:
 467              	.LBI24:
 137:fltk-1.3.4-1/png/pngget.c ****     info_ptr)
 468              		.loc 1 137 1 is_stmt 1 view .LVU116
 469              	.LBB25:
 144:fltk-1.3.4-1/png/pngget.c ****           "png_get_y_pixels_per_meter");
 470              		.loc 1 144 7 view .LVU117
 147:fltk-1.3.4-1/png/pngget.c ****          return (info_ptr->y_pixels_per_unit);
 471              		.loc 1 147 7 view .LVU118
 472              	.LBE25:
 473              	.LBE24:
 155:fltk-1.3.4-1/png/pngget.c **** }
 474              		.loc 1 155 11 is_stmt 0 view .LVU119
 475 0018 31C0     		xorl	%eax, %eax
 476              	.LBB28:
 477              	.LBB26:
 147:fltk-1.3.4-1/png/pngget.c ****          return (info_ptr->y_pixels_per_unit);
 478              		.loc 1 147 10 view .LVU120
 479 001a 80BEE800 		cmpb	$1, 232(%rsi)
 479      000001
 480 0021 740D     		je	.L129
 481              	.LVL22:
 482              	.L116:
 147:fltk-1.3.4-1/png/pngget.c ****          return (info_ptr->y_pixels_per_unit);
 483              		.loc 1 147 10 view .LVU121
 484              	.LBE26:
 485              	.LBE28:
 156:fltk-1.3.4-1/png/pngget.c **** 
 486              		.loc 1 156 1 view .LVU122
 487 0023 C3       		ret
 488              		.p2align 4,,10
 489 0024 0F1F4000 		.p2align 3
 490              	.L118:
 155:fltk-1.3.4-1/png/pngget.c **** }
 491              		.loc 1 155 11 view .LVU123
 492 0028 31C0     		xorl	%eax, %eax
 156:fltk-1.3.4-1/png/pngget.c **** 
 493              		.loc 1 156 1 view .LVU124
 494 002a C3       		ret
 495              	.LVL23:
 496 002b 0F1F4400 		.p2align 4,,10
 496      00
 497              		.p2align 3
 498              	.L129:
 499              	.LBB29:
 500              	.LBB27:
 148:fltk-1.3.4-1/png/pngget.c ****    }
 501              		.loc 1 148 10 is_stmt 1 view .LVU125
 148:fltk-1.3.4-1/png/pngget.c ****    }
 502              		.loc 1 148 26 is_stmt 0 view .LVU126
 503 0030 8B86E400 		movl	228(%rsi), %eax
 503      0000
 504 0036 C3       		ret
 505              	.LBE27:
 506              	.LBE29:
 507              		.cfi_endproc
 508              	.LFE52:
 510              		.section	.text.png_get_pixels_per_meter,"ax",@progbits
 511              		.p2align 4
 512              		.globl	png_get_pixels_per_meter
 514              	png_get_pixels_per_meter:
 515              	.LVL24:
 516              	.LFB53:
 160:fltk-1.3.4-1/png/pngget.c **** #ifdef PNG_pHYs_SUPPORTED
 517              		.loc 1 160 1 is_stmt 1 view -0
 518              		.cfi_startproc
 160:fltk-1.3.4-1/png/pngget.c **** #ifdef PNG_pHYs_SUPPORTED
 519              		.loc 1 160 1 is_stmt 0 view .LVU128
 520 0000 F30F1EFA 		endbr64
 162:fltk-1.3.4-1/png/pngget.c ****        (info_ptr->valid & PNG_INFO_pHYs) != 0)
 521              		.loc 1 162 4 is_stmt 1 view .LVU129
 162:fltk-1.3.4-1/png/pngget.c ****        (info_ptr->valid & PNG_INFO_pHYs) != 0)
 522              		.loc 1 162 7 is_stmt 0 view .LVU130
 523 0004 4885FF   		testq	%rdi, %rdi
 524 0007 741F     		je	.L132
 525 0009 4885F6   		testq	%rsi, %rsi
 526 000c 741A     		je	.L132
 162:fltk-1.3.4-1/png/pngget.c ****        (info_ptr->valid & PNG_INFO_pHYs) != 0)
 527              		.loc 1 162 44 discriminator 1 view .LVU131
 528 000e 8B4608   		movl	8(%rsi), %eax
 529 0011 25800000 		andl	$128, %eax
 529      00
 530 0016 740B     		je	.L130
 165:fltk-1.3.4-1/png/pngget.c **** 
 531              		.loc 1 165 7 is_stmt 1 view .LVU132
 167:fltk-1.3.4-1/png/pngget.c ****           info_ptr->x_pixels_per_unit == info_ptr->y_pixels_per_unit)
 532              		.loc 1 167 7 view .LVU133
 533              	.LBB32:
 534              	.LBB33:
 176:fltk-1.3.4-1/png/pngget.c **** }
 535              		.loc 1 176 11 is_stmt 0 view .LVU134
 536 0018 31C0     		xorl	%eax, %eax
 537              	.LBE33:
 538              	.LBE32:
 167:fltk-1.3.4-1/png/pngget.c ****           info_ptr->x_pixels_per_unit == info_ptr->y_pixels_per_unit)
 539              		.loc 1 167 10 view .LVU135
 540 001a 80BEE800 		cmpb	$1, 232(%rsi)
 540      000001
 541 0021 740D     		je	.L143
 542              	.L130:
 177:fltk-1.3.4-1/png/pngget.c **** 
 543              		.loc 1 177 1 view .LVU136
 544 0023 C3       		ret
 545              		.p2align 4,,10
 546 0024 0F1F4000 		.p2align 3
 547              	.L132:
 548              	.LBB36:
 549              	.LBB34:
 176:fltk-1.3.4-1/png/pngget.c **** }
 550              		.loc 1 176 11 view .LVU137
 551 0028 31C0     		xorl	%eax, %eax
 552              	.LBE34:
 553              	.LBE36:
 177:fltk-1.3.4-1/png/pngget.c **** 
 554              		.loc 1 177 1 view .LVU138
 555 002a C3       		ret
 556 002b 0F1F4400 		.p2align 4,,10
 556      00
 557              		.p2align 3
 558              	.L143:
 559              	.LVL25:
 560              	.LBB37:
 561              	.LBI32:
 159:fltk-1.3.4-1/png/pngget.c **** {
 562              		.loc 1 159 1 is_stmt 1 view .LVU139
 563              	.LBB35:
 168:fltk-1.3.4-1/png/pngget.c ****          return (info_ptr->x_pixels_per_unit);
 564              		.loc 1 168 50 is_stmt 0 view .LVU140
 565 0030 8B86E400 		movl	228(%rsi), %eax
 565      0000
 176:fltk-1.3.4-1/png/pngget.c **** }
 566              		.loc 1 176 11 view .LVU141
 567 0036 BA000000 		movl	$0, %edx
 567      00
 568 003b 3986E000 		cmpl	%eax, 224(%rsi)
 568      0000
 569 0041 0F45C2   		cmovne	%edx, %eax
 570 0044 C3       		ret
 571              	.LBE35:
 572              	.LBE37:
 573              		.cfi_endproc
 574              	.LFE53:
 576              		.section	.text.png_get_pixel_aspect_ratio,"ax",@progbits
 577              		.p2align 4
 578              		.globl	png_get_pixel_aspect_ratio
 580              	png_get_pixel_aspect_ratio:
 581              	.LVL26:
 582              	.LFB54:
 183:fltk-1.3.4-1/png/pngget.c **** #ifdef PNG_READ_pHYs_SUPPORTED
 583              		.loc 1 183 1 is_stmt 1 view -0
 584              		.cfi_startproc
 183:fltk-1.3.4-1/png/pngget.c **** #ifdef PNG_READ_pHYs_SUPPORTED
 585              		.loc 1 183 1 is_stmt 0 view .LVU143
 586 0000 F30F1EFA 		endbr64
 185:fltk-1.3.4-1/png/pngget.c ****        (info_ptr->valid & PNG_INFO_pHYs) != 0)
 587              		.loc 1 185 4 is_stmt 1 view .LVU144
 199:fltk-1.3.4-1/png/pngget.c **** }
 588              		.loc 1 199 12 is_stmt 0 view .LVU145
 589 0004 660FEFC0 		pxor	%xmm0, %xmm0
 185:fltk-1.3.4-1/png/pngget.c ****        (info_ptr->valid & PNG_INFO_pHYs) != 0)
 590              		.loc 1 185 7 view .LVU146
 591 0008 4885FF   		testq	%rdi, %rdi
 592 000b 7415     		je	.L144
 593 000d 4885F6   		testq	%rsi, %rsi
 594 0010 7410     		je	.L144
 185:fltk-1.3.4-1/png/pngget.c ****        (info_ptr->valid & PNG_INFO_pHYs) != 0)
 595              		.loc 1 185 44 discriminator 1 view .LVU147
 596 0012 F6460880 		testb	$-128, 8(%rsi)
 597 0016 740A     		je	.L144
 188:fltk-1.3.4-1/png/pngget.c **** 
 598              		.loc 1 188 7 is_stmt 1 view .LVU148
 190:fltk-1.3.4-1/png/pngget.c ****          return ((float)((float)info_ptr->y_pixels_per_unit
 599              		.loc 1 190 7 view .LVU149
 190:fltk-1.3.4-1/png/pngget.c ****          return ((float)((float)info_ptr->y_pixels_per_unit
 600              		.loc 1 190 19 is_stmt 0 view .LVU150
 601 0018 8B96E000 		movl	224(%rsi), %edx
 601      0000
 190:fltk-1.3.4-1/png/pngget.c ****          return ((float)((float)info_ptr->y_pixels_per_unit
 602              		.loc 1 190 10 view .LVU151
 603 001e 85D2     		testl	%edx, %edx
 604 0020 7506     		jne	.L161
 605              	.L144:
 200:fltk-1.3.4-1/png/pngget.c **** #endif
 606              		.loc 1 200 1 view .LVU152
 607 0022 C3       		ret
 608              		.p2align 4,,10
 609 0023 0F1F4400 		.p2align 3
 609      00
 610              	.L161:
 191:fltk-1.3.4-1/png/pngget.c ****              /(float)info_ptr->x_pixels_per_unit));
 611              		.loc 1 191 10 is_stmt 1 view .LVU153
 191:fltk-1.3.4-1/png/pngget.c ****              /(float)info_ptr->x_pixels_per_unit));
 612              		.loc 1 191 26 is_stmt 0 view .LVU154
 613 0028 8B86E400 		movl	228(%rsi), %eax
 613      0000
 614 002e 660FEFC0 		pxor	%xmm0, %xmm0
 192:fltk-1.3.4-1/png/pngget.c ****    }
 615              		.loc 1 192 15 view .LVU155
 616 0032 660FEFC9 		pxor	%xmm1, %xmm1
 617 0036 F3480F2A 		cvtsi2ssq	%rdx, %xmm1
 617      CA
 191:fltk-1.3.4-1/png/pngget.c ****              /(float)info_ptr->x_pixels_per_unit));
 618              		.loc 1 191 26 view .LVU156
 619 003b F3480F2A 		cvtsi2ssq	%rax, %xmm0
 619      C0
 191:fltk-1.3.4-1/png/pngget.c ****              /(float)info_ptr->x_pixels_per_unit));
 620              		.loc 1 191 18 view .LVU157
 621 0040 F30F5EC1 		divss	%xmm1, %xmm0
 622 0044 C3       		ret
 623              		.cfi_endproc
 624              	.LFE54:
 626              		.section	.text.png_get_pixel_aspect_ratio_fixed,"ax",@progbits
 627              		.p2align 4
 628              		.globl	png_get_pixel_aspect_ratio_fixed
 630              	png_get_pixel_aspect_ratio_fixed:
 631              	.LVL27:
 632              	.LFB55:
 207:fltk-1.3.4-1/png/pngget.c **** #ifdef PNG_READ_pHYs_SUPPORTED
 633              		.loc 1 207 1 is_stmt 1 view -0
 634              		.cfi_startproc
 207:fltk-1.3.4-1/png/pngget.c **** #ifdef PNG_READ_pHYs_SUPPORTED
 635              		.loc 1 207 1 is_stmt 0 view .LVU159
 636 0000 F30F1EFA 		endbr64
 637 0004 4883EC18 		subq	$24, %rsp
 638              		.cfi_def_cfa_offset 32
 207:fltk-1.3.4-1/png/pngget.c **** #ifdef PNG_READ_pHYs_SUPPORTED
 639              		.loc 1 207 1 view .LVU160
 640 0008 64488B04 		movq	%fs:40, %rax
 640      25280000 
 640      00
 641 0011 48894424 		movq	%rax, 8(%rsp)
 641      08
 642 0016 31C0     		xorl	%eax, %eax
 209:fltk-1.3.4-1/png/pngget.c ****        (info_ptr->valid & PNG_INFO_pHYs) != 0 &&
 643              		.loc 1 209 4 is_stmt 1 view .LVU161
 209:fltk-1.3.4-1/png/pngget.c ****        (info_ptr->valid & PNG_INFO_pHYs) != 0 &&
 644              		.loc 1 209 7 is_stmt 0 view .LVU162
 645 0018 4885FF   		testq	%rdi, %rdi
 646 001b 7423     		je	.L166
 647 001d 4885F6   		testq	%rsi, %rsi
 648 0020 741E     		je	.L166
 209:fltk-1.3.4-1/png/pngget.c ****        (info_ptr->valid & PNG_INFO_pHYs) != 0 &&
 649              		.loc 1 209 44 discriminator 1 view .LVU163
 650 0022 F6460880 		testb	$-128, 8(%rsi)
 651 0026 7520     		jne	.L184
 652              	.LVL28:
 653              	.L162:
 232:fltk-1.3.4-1/png/pngget.c **** #endif
 654              		.loc 1 232 1 view .LVU164
 655 0028 488B5424 		movq	8(%rsp), %rdx
 655      08
 656 002d 64483314 		xorq	%fs:40, %rdx
 656      25280000 
 656      00
 657 0036 7544     		jne	.L185
 658 0038 4883C418 		addq	$24, %rsp
 659              		.cfi_remember_state
 660              		.cfi_def_cfa_offset 8
 661 003c C3       		ret
 662              	.LVL29:
 663 003d 0F1F00   		.p2align 4,,10
 664              		.p2align 3
 665              	.L166:
 666              		.cfi_restore_state
 231:fltk-1.3.4-1/png/pngget.c **** }
 667              		.loc 1 231 11 view .LVU165
 668 0040 31C0     		xorl	%eax, %eax
 669 0042 EBE4     		jmp	.L162
 670              		.p2align 4,,10
 671 0044 0F1F4000 		.p2align 3
 672              	.L184:
 211:fltk-1.3.4-1/png/pngget.c ****        info_ptr->x_pixels_per_unit <= PNG_UINT_31_MAX &&
 673              		.loc 1 211 16 view .LVU166
 674 0048 8B8EE000 		movl	224(%rsi), %ecx
 674      0000
 210:fltk-1.3.4-1/png/pngget.c ****        info_ptr->x_pixels_per_unit > 0 && info_ptr->y_pixels_per_unit > 0 &&
 675              		.loc 1 210 47 view .LVU167
 676 004e 85C9     		testl	%ecx, %ecx
 677 0050 74D6     		je	.L162
 211:fltk-1.3.4-1/png/pngget.c ****        info_ptr->x_pixels_per_unit <= PNG_UINT_31_MAX &&
 678              		.loc 1 211 51 view .LVU168
 679 0052 8BB6E400 		movl	228(%rsi), %esi
 679      0000
 680              	.LVL30:
 211:fltk-1.3.4-1/png/pngget.c ****        info_ptr->x_pixels_per_unit <= PNG_UINT_31_MAX &&
 681              		.loc 1 211 40 view .LVU169
 682 0058 85F6     		testl	%esi, %esi
 683 005a 74CC     		je	.L162
 211:fltk-1.3.4-1/png/pngget.c ****        info_ptr->x_pixels_per_unit <= PNG_UINT_31_MAX &&
 684              		.loc 1 211 75 discriminator 1 view .LVU170
 685 005c 85C9     		testl	%ecx, %ecx
 686 005e 78C8     		js	.L162
 212:fltk-1.3.4-1/png/pngget.c ****        info_ptr->y_pixels_per_unit <= PNG_UINT_31_MAX)
 687              		.loc 1 212 55 view .LVU171
 688 0060 85F6     		testl	%esi, %esi
 689 0062 78C4     		js	.L162
 690              	.LBB38:
 215:fltk-1.3.4-1/png/pngget.c **** 
 691              		.loc 1 215 7 is_stmt 1 view .LVU172
 217:fltk-1.3.4-1/png/pngget.c **** 
 692              		.loc 1 217 7 view .LVU173
 222:fltk-1.3.4-1/png/pngget.c ****           (png_int_32)info_ptr->x_pixels_per_unit) != 0)
 693              		.loc 1 222 7 view .LVU174
 222:fltk-1.3.4-1/png/pngget.c ****           (png_int_32)info_ptr->x_pixels_per_unit) != 0)
 694              		.loc 1 222 11 is_stmt 0 view .LVU175
 695 0064 488D7C24 		leaq	4(%rsp), %rdi
 695      04
 696              	.LVL31:
 222:fltk-1.3.4-1/png/pngget.c ****           (png_int_32)info_ptr->x_pixels_per_unit) != 0)
 697              		.loc 1 222 11 view .LVU176
 698 0069 BAA08601 		movl	$100000, %edx
 698      00
 699 006e E8000000 		call	png_muldiv@PLT
 699      00
 700              	.LVL32:
 224:fltk-1.3.4-1/png/pngget.c ****    }
 701              		.loc 1 224 17 view .LVU177
 702 0073 85C0     		testl	%eax, %eax
 703 0075 0F454424 		cmovne	4(%rsp), %eax
 703      04
 704 007a EBAC     		jmp	.L162
 705              	.L185:
 224:fltk-1.3.4-1/png/pngget.c ****    }
 706              		.loc 1 224 17 view .LVU178
 707              	.LBE38:
 232:fltk-1.3.4-1/png/pngget.c **** #endif
 708              		.loc 1 232 1 view .LVU179
 709 007c E8000000 		call	__stack_chk_fail@PLT
 709      00
 710              	.LVL33:
 711              		.cfi_endproc
 712              	.LFE55:
 714              		.section	.text.png_get_x_offset_microns,"ax",@progbits
 715              		.p2align 4
 716              		.globl	png_get_x_offset_microns
 718              	png_get_x_offset_microns:
 719              	.LVL34:
 720              	.LFB56:
 237:fltk-1.3.4-1/png/pngget.c **** #ifdef PNG_oFFs_SUPPORTED
 721              		.loc 1 237 1 is_stmt 1 view -0
 722              		.cfi_startproc
 237:fltk-1.3.4-1/png/pngget.c **** #ifdef PNG_oFFs_SUPPORTED
 723              		.loc 1 237 1 is_stmt 0 view .LVU181
 724 0000 F30F1EFA 		endbr64
 239:fltk-1.3.4-1/png/pngget.c ****        (info_ptr->valid & PNG_INFO_oFFs) != 0)
 725              		.loc 1 239 4 is_stmt 1 view .LVU182
 252:fltk-1.3.4-1/png/pngget.c **** }
 726              		.loc 1 252 11 is_stmt 0 view .LVU183
 727 0004 31C0     		xorl	%eax, %eax
 239:fltk-1.3.4-1/png/pngget.c ****        (info_ptr->valid & PNG_INFO_oFFs) != 0)
 728              		.loc 1 239 7 view .LVU184
 729 0006 4885FF   		testq	%rdi, %rdi
 730 0009 7414     		je	.L186
 731 000b 4885F6   		testq	%rsi, %rsi
 732 000e 740F     		je	.L186
 239:fltk-1.3.4-1/png/pngget.c ****        (info_ptr->valid & PNG_INFO_oFFs) != 0)
 733              		.loc 1 239 44 discriminator 1 view .LVU185
 734 0010 F6460901 		testb	$1, 9(%rsi)
 735 0014 7409     		je	.L186
 736              	.LVL35:
 737              	.LBB41:
 738              	.LBI41:
 236:fltk-1.3.4-1/png/pngget.c **** {
 739              		.loc 1 236 1 is_stmt 1 view .LVU186
 740              	.LBB42:
 242:fltk-1.3.4-1/png/pngget.c **** 
 741              		.loc 1 242 7 view .LVU187
 244:fltk-1.3.4-1/png/pngget.c ****          return (info_ptr->x_offset);
 742              		.loc 1 244 7 view .LVU188
 244:fltk-1.3.4-1/png/pngget.c ****          return (info_ptr->x_offset);
 743              		.loc 1 244 10 is_stmt 0 view .LVU189
 744 0016 80BEDC00 		cmpb	$1, 220(%rsi)
 744      000001
 745 001d 7401     		je	.L198
 746              	.LVL36:
 747              	.L186:
 244:fltk-1.3.4-1/png/pngget.c ****          return (info_ptr->x_offset);
 748              		.loc 1 244 10 view .LVU190
 749              	.LBE42:
 750              	.LBE41:
 253:fltk-1.3.4-1/png/pngget.c **** 
 751              		.loc 1 253 1 view .LVU191
 752 001f C3       		ret
 753              	.LVL37:
 754              		.p2align 4,,10
 755              		.p2align 3
 756              	.L198:
 757              	.LBB44:
 758              	.LBB43:
 245:fltk-1.3.4-1/png/pngget.c ****    }
 759              		.loc 1 245 10 is_stmt 1 view .LVU192
 245:fltk-1.3.4-1/png/pngget.c ****    }
 760              		.loc 1 245 26 is_stmt 0 view .LVU193
 761 0020 8B86D400 		movl	212(%rsi), %eax
 761      0000
 762 0026 C3       		ret
 763              	.LBE43:
 764              	.LBE44:
 765              		.cfi_endproc
 766              	.LFE56:
 768              		.section	.text.png_get_y_offset_microns,"ax",@progbits
 769              		.p2align 4
 770              		.globl	png_get_y_offset_microns
 772              	png_get_y_offset_microns:
 773              	.LVL38:
 774              	.LFB57:
 257:fltk-1.3.4-1/png/pngget.c **** #ifdef PNG_oFFs_SUPPORTED
 775              		.loc 1 257 1 is_stmt 1 view -0
 776              		.cfi_startproc
 257:fltk-1.3.4-1/png/pngget.c **** #ifdef PNG_oFFs_SUPPORTED
 777              		.loc 1 257 1 is_stmt 0 view .LVU195
 778 0000 F30F1EFA 		endbr64
 259:fltk-1.3.4-1/png/pngget.c ****        (info_ptr->valid & PNG_INFO_oFFs) != 0)
 779              		.loc 1 259 4 is_stmt 1 view .LVU196
 272:fltk-1.3.4-1/png/pngget.c **** }
 780              		.loc 1 272 11 is_stmt 0 view .LVU197
 781 0004 31C0     		xorl	%eax, %eax
 259:fltk-1.3.4-1/png/pngget.c ****        (info_ptr->valid & PNG_INFO_oFFs) != 0)
 782              		.loc 1 259 7 view .LVU198
 783 0006 4885FF   		testq	%rdi, %rdi
 784 0009 7414     		je	.L199
 785 000b 4885F6   		testq	%rsi, %rsi
 786 000e 740F     		je	.L199
 259:fltk-1.3.4-1/png/pngget.c ****        (info_ptr->valid & PNG_INFO_oFFs) != 0)
 787              		.loc 1 259 44 discriminator 1 view .LVU199
 788 0010 F6460901 		testb	$1, 9(%rsi)
 789 0014 7409     		je	.L199
 790              	.LVL39:
 791              	.LBB47:
 792              	.LBI47:
 256:fltk-1.3.4-1/png/pngget.c **** {
 793              		.loc 1 256 1 is_stmt 1 view .LVU200
 794              	.LBB48:
 262:fltk-1.3.4-1/png/pngget.c **** 
 795              		.loc 1 262 7 view .LVU201
 264:fltk-1.3.4-1/png/pngget.c ****          return (info_ptr->y_offset);
 796              		.loc 1 264 7 view .LVU202
 264:fltk-1.3.4-1/png/pngget.c ****          return (info_ptr->y_offset);
 797              		.loc 1 264 10 is_stmt 0 view .LVU203
 798 0016 80BEDC00 		cmpb	$1, 220(%rsi)
 798      000001
 799 001d 7401     		je	.L211
 800              	.LVL40:
 801              	.L199:
 264:fltk-1.3.4-1/png/pngget.c ****          return (info_ptr->y_offset);
 802              		.loc 1 264 10 view .LVU204
 803              	.LBE48:
 804              	.LBE47:
 273:fltk-1.3.4-1/png/pngget.c **** 
 805              		.loc 1 273 1 view .LVU205
 806 001f C3       		ret
 807              	.LVL41:
 808              		.p2align 4,,10
 809              		.p2align 3
 810              	.L211:
 811              	.LBB50:
 812              	.LBB49:
 265:fltk-1.3.4-1/png/pngget.c ****    }
 813              		.loc 1 265 10 is_stmt 1 view .LVU206
 265:fltk-1.3.4-1/png/pngget.c ****    }
 814              		.loc 1 265 26 is_stmt 0 view .LVU207
 815 0020 8B86D800 		movl	216(%rsi), %eax
 815      0000
 816 0026 C3       		ret
 817              	.LBE49:
 818              	.LBE50:
 819              		.cfi_endproc
 820              	.LFE57:
 822              		.section	.text.png_get_x_offset_pixels,"ax",@progbits
 823              		.p2align 4
 824              		.globl	png_get_x_offset_pixels
 826              	png_get_x_offset_pixels:
 827              	.LVL42:
 828              	.LFB58:
 277:fltk-1.3.4-1/png/pngget.c **** #ifdef PNG_oFFs_SUPPORTED
 829              		.loc 1 277 1 is_stmt 1 view -0
 830              		.cfi_startproc
 277:fltk-1.3.4-1/png/pngget.c **** #ifdef PNG_oFFs_SUPPORTED
 831              		.loc 1 277 1 is_stmt 0 view .LVU209
 832 0000 F30F1EFA 		endbr64
 279:fltk-1.3.4-1/png/pngget.c ****        (info_ptr->valid & PNG_INFO_oFFs) != 0)
 833              		.loc 1 279 4 is_stmt 1 view .LVU210
 292:fltk-1.3.4-1/png/pngget.c **** }
 834              		.loc 1 292 11 is_stmt 0 view .LVU211
 835 0004 31C0     		xorl	%eax, %eax
 279:fltk-1.3.4-1/png/pngget.c ****        (info_ptr->valid & PNG_INFO_oFFs) != 0)
 836              		.loc 1 279 7 view .LVU212
 837 0006 4885FF   		testq	%rdi, %rdi
 838 0009 7414     		je	.L212
 839 000b 4885F6   		testq	%rsi, %rsi
 840 000e 740F     		je	.L212
 279:fltk-1.3.4-1/png/pngget.c ****        (info_ptr->valid & PNG_INFO_oFFs) != 0)
 841              		.loc 1 279 44 discriminator 1 view .LVU213
 842 0010 F6460901 		testb	$1, 9(%rsi)
 843 0014 7409     		je	.L212
 282:fltk-1.3.4-1/png/pngget.c **** 
 844              		.loc 1 282 7 is_stmt 1 view .LVU214
 284:fltk-1.3.4-1/png/pngget.c ****          return (info_ptr->x_offset);
 845              		.loc 1 284 7 view .LVU215
 284:fltk-1.3.4-1/png/pngget.c ****          return (info_ptr->x_offset);
 846              		.loc 1 284 10 is_stmt 0 view .LVU216
 847 0016 80BEDC00 		cmpb	$0, 220(%rsi)
 847      000000
 848 001d 7401     		je	.L224
 849              	.L212:
 293:fltk-1.3.4-1/png/pngget.c **** 
 850              		.loc 1 293 1 view .LVU217
 851 001f C3       		ret
 852              		.p2align 4,,10
 853              		.p2align 3
 854              	.L224:
 285:fltk-1.3.4-1/png/pngget.c ****    }
 855              		.loc 1 285 10 is_stmt 1 view .LVU218
 285:fltk-1.3.4-1/png/pngget.c ****    }
 856              		.loc 1 285 26 is_stmt 0 view .LVU219
 857 0020 8B86D400 		movl	212(%rsi), %eax
 857      0000
 858 0026 C3       		ret
 859              		.cfi_endproc
 860              	.LFE58:
 862              		.section	.text.png_get_y_offset_pixels,"ax",@progbits
 863              		.p2align 4
 864              		.globl	png_get_y_offset_pixels
 866              	png_get_y_offset_pixels:
 867              	.LVL43:
 868              	.LFB59:
 297:fltk-1.3.4-1/png/pngget.c **** #ifdef PNG_oFFs_SUPPORTED
 869              		.loc 1 297 1 is_stmt 1 view -0
 870              		.cfi_startproc
 297:fltk-1.3.4-1/png/pngget.c **** #ifdef PNG_oFFs_SUPPORTED
 871              		.loc 1 297 1 is_stmt 0 view .LVU221
 872 0000 F30F1EFA 		endbr64
 299:fltk-1.3.4-1/png/pngget.c ****        (info_ptr->valid & PNG_INFO_oFFs) != 0)
 873              		.loc 1 299 4 is_stmt 1 view .LVU222
 312:fltk-1.3.4-1/png/pngget.c **** }
 874              		.loc 1 312 11 is_stmt 0 view .LVU223
 875 0004 31C0     		xorl	%eax, %eax
 299:fltk-1.3.4-1/png/pngget.c ****        (info_ptr->valid & PNG_INFO_oFFs) != 0)
 876              		.loc 1 299 7 view .LVU224
 877 0006 4885FF   		testq	%rdi, %rdi
 878 0009 7414     		je	.L225
 879 000b 4885F6   		testq	%rsi, %rsi
 880 000e 740F     		je	.L225
 299:fltk-1.3.4-1/png/pngget.c ****        (info_ptr->valid & PNG_INFO_oFFs) != 0)
 881              		.loc 1 299 44 discriminator 1 view .LVU225
 882 0010 F6460901 		testb	$1, 9(%rsi)
 883 0014 7409     		je	.L225
 302:fltk-1.3.4-1/png/pngget.c **** 
 884              		.loc 1 302 7 is_stmt 1 view .LVU226
 304:fltk-1.3.4-1/png/pngget.c ****          return (info_ptr->y_offset);
 885              		.loc 1 304 7 view .LVU227
 304:fltk-1.3.4-1/png/pngget.c ****          return (info_ptr->y_offset);
 886              		.loc 1 304 10 is_stmt 0 view .LVU228
 887 0016 80BEDC00 		cmpb	$0, 220(%rsi)
 887      000000
 888 001d 7401     		je	.L237
 889              	.L225:
 313:fltk-1.3.4-1/png/pngget.c **** 
 890              		.loc 1 313 1 view .LVU229
 891 001f C3       		ret
 892              		.p2align 4,,10
 893              		.p2align 3
 894              	.L237:
 305:fltk-1.3.4-1/png/pngget.c ****    }
 895              		.loc 1 305 10 is_stmt 1 view .LVU230
 305:fltk-1.3.4-1/png/pngget.c ****    }
 896              		.loc 1 305 26 is_stmt 0 view .LVU231
 897 0020 8B86D800 		movl	216(%rsi), %eax
 897      0000
 898 0026 C3       		ret
 899              		.cfi_endproc
 900              	.LFE59:
 902              		.section	.text.png_get_pixels_per_inch,"ax",@progbits
 903              		.p2align 4
 904              		.globl	png_get_pixels_per_inch
 906              	png_get_pixels_per_inch:
 907              	.LVL44:
 908              	.LFB61:
 347:fltk-1.3.4-1/png/pngget.c **** 
 348:fltk-1.3.4-1/png/pngget.c **** png_uint_32 PNGAPI
 349:fltk-1.3.4-1/png/pngget.c **** png_get_pixels_per_inch(png_const_structrp png_ptr, png_const_inforp info_ptr)
 350:fltk-1.3.4-1/png/pngget.c **** {
 909              		.loc 1 350 1 is_stmt 1 view -0
 910              		.cfi_startproc
 911              		.loc 1 350 1 is_stmt 0 view .LVU233
 912 0000 F30F1EFA 		endbr64
 351:fltk-1.3.4-1/png/pngget.c ****    return ppi_from_ppm(png_get_pixels_per_meter(png_ptr, info_ptr));
 913              		.loc 1 351 4 is_stmt 1 view .LVU234
 350:fltk-1.3.4-1/png/pngget.c ****    return ppi_from_ppm(png_get_pixels_per_meter(png_ptr, info_ptr));
 914              		.loc 1 350 1 is_stmt 0 view .LVU235
 915 0004 4883EC08 		subq	$8, %rsp
 916              		.cfi_def_cfa_offset 16
 917              		.loc 1 351 11 view .LVU236
 918 0008 E8000000 		call	png_get_pixels_per_meter
 918      00
 919              	.LVL45:
 352:fltk-1.3.4-1/png/pngget.c **** }
 920              		.loc 1 352 1 view .LVU237
 921 000d 4883C408 		addq	$8, %rsp
 922              		.cfi_def_cfa_offset 8
 351:fltk-1.3.4-1/png/pngget.c ****    return ppi_from_ppm(png_get_pixels_per_meter(png_ptr, info_ptr));
 923              		.loc 1 351 11 view .LVU238
 924 0011 89C7     		movl	%eax, %edi
 925              	.LVL46:
 351:fltk-1.3.4-1/png/pngget.c ****    return ppi_from_ppm(png_get_pixels_per_meter(png_ptr, info_ptr));
 926              		.loc 1 351 11 view .LVU239
 927 0013 E9000000 		jmp	ppi_from_ppm
 927      00
 928              	.LVL47:
 351:fltk-1.3.4-1/png/pngget.c ****    return ppi_from_ppm(png_get_pixels_per_meter(png_ptr, info_ptr));
 929              		.loc 1 351 11 view .LVU240
 930              		.cfi_endproc
 931              	.LFE61:
 933              		.section	.text.png_get_x_pixels_per_inch,"ax",@progbits
 934              		.p2align 4
 935              		.globl	png_get_x_pixels_per_inch
 937              	png_get_x_pixels_per_inch:
 938              	.LVL48:
 939              	.LFB62:
 353:fltk-1.3.4-1/png/pngget.c **** 
 354:fltk-1.3.4-1/png/pngget.c **** png_uint_32 PNGAPI
 355:fltk-1.3.4-1/png/pngget.c **** png_get_x_pixels_per_inch(png_const_structrp png_ptr, png_const_inforp info_ptr)
 356:fltk-1.3.4-1/png/pngget.c **** {
 940              		.loc 1 356 1 is_stmt 1 view -0
 941              		.cfi_startproc
 942              		.loc 1 356 1 is_stmt 0 view .LVU242
 943 0000 F30F1EFA 		endbr64
 357:fltk-1.3.4-1/png/pngget.c ****    return ppi_from_ppm(png_get_x_pixels_per_meter(png_ptr, info_ptr));
 944              		.loc 1 357 4 is_stmt 1 view .LVU243
 356:fltk-1.3.4-1/png/pngget.c ****    return ppi_from_ppm(png_get_x_pixels_per_meter(png_ptr, info_ptr));
 945              		.loc 1 356 1 is_stmt 0 view .LVU244
 946 0004 4883EC08 		subq	$8, %rsp
 947              		.cfi_def_cfa_offset 16
 948              		.loc 1 357 11 view .LVU245
 949 0008 E8000000 		call	png_get_x_pixels_per_meter
 949      00
 950              	.LVL49:
 358:fltk-1.3.4-1/png/pngget.c **** }
 951              		.loc 1 358 1 view .LVU246
 952 000d 4883C408 		addq	$8, %rsp
 953              		.cfi_def_cfa_offset 8
 357:fltk-1.3.4-1/png/pngget.c ****    return ppi_from_ppm(png_get_x_pixels_per_meter(png_ptr, info_ptr));
 954              		.loc 1 357 11 view .LVU247
 955 0011 89C7     		movl	%eax, %edi
 956              	.LVL50:
 357:fltk-1.3.4-1/png/pngget.c ****    return ppi_from_ppm(png_get_x_pixels_per_meter(png_ptr, info_ptr));
 957              		.loc 1 357 11 view .LVU248
 958 0013 E9000000 		jmp	ppi_from_ppm
 958      00
 959              	.LVL51:
 357:fltk-1.3.4-1/png/pngget.c ****    return ppi_from_ppm(png_get_x_pixels_per_meter(png_ptr, info_ptr));
 960              		.loc 1 357 11 view .LVU249
 961              		.cfi_endproc
 962              	.LFE62:
 964              		.section	.text.png_get_y_pixels_per_inch,"ax",@progbits
 965              		.p2align 4
 966              		.globl	png_get_y_pixels_per_inch
 968              	png_get_y_pixels_per_inch:
 969              	.LVL52:
 970              	.LFB63:
 359:fltk-1.3.4-1/png/pngget.c **** 
 360:fltk-1.3.4-1/png/pngget.c **** png_uint_32 PNGAPI
 361:fltk-1.3.4-1/png/pngget.c **** png_get_y_pixels_per_inch(png_const_structrp png_ptr, png_const_inforp info_ptr)
 362:fltk-1.3.4-1/png/pngget.c **** {
 971              		.loc 1 362 1 is_stmt 1 view -0
 972              		.cfi_startproc
 973              		.loc 1 362 1 is_stmt 0 view .LVU251
 974 0000 F30F1EFA 		endbr64
 363:fltk-1.3.4-1/png/pngget.c ****    return ppi_from_ppm(png_get_y_pixels_per_meter(png_ptr, info_ptr));
 975              		.loc 1 363 4 is_stmt 1 view .LVU252
 362:fltk-1.3.4-1/png/pngget.c ****    return ppi_from_ppm(png_get_y_pixels_per_meter(png_ptr, info_ptr));
 976              		.loc 1 362 1 is_stmt 0 view .LVU253
 977 0004 4883EC08 		subq	$8, %rsp
 978              		.cfi_def_cfa_offset 16
 979              		.loc 1 363 11 view .LVU254
 980 0008 E8000000 		call	png_get_y_pixels_per_meter
 980      00
 981              	.LVL53:
 364:fltk-1.3.4-1/png/pngget.c **** }
 982              		.loc 1 364 1 view .LVU255
 983 000d 4883C408 		addq	$8, %rsp
 984              		.cfi_def_cfa_offset 8
 363:fltk-1.3.4-1/png/pngget.c ****    return ppi_from_ppm(png_get_y_pixels_per_meter(png_ptr, info_ptr));
 985              		.loc 1 363 11 view .LVU256
 986 0011 89C7     		movl	%eax, %edi
 987              	.LVL54:
 363:fltk-1.3.4-1/png/pngget.c ****    return ppi_from_ppm(png_get_y_pixels_per_meter(png_ptr, info_ptr));
 988              		.loc 1 363 11 view .LVU257
 989 0013 E9000000 		jmp	ppi_from_ppm
 989      00
 990              	.LVL55:
 363:fltk-1.3.4-1/png/pngget.c ****    return ppi_from_ppm(png_get_y_pixels_per_meter(png_ptr, info_ptr));
 991              		.loc 1 363 11 view .LVU258
 992              		.cfi_endproc
 993              	.LFE63:
 995              		.section	.text.png_get_x_offset_inches_fixed,"ax",@progbits
 996              		.p2align 4
 997              		.globl	png_get_x_offset_inches_fixed
 999              	png_get_x_offset_inches_fixed:
 1000              	.LVL56:
 1001              	.LFB65:
 365:fltk-1.3.4-1/png/pngget.c **** 
 366:fltk-1.3.4-1/png/pngget.c **** #ifdef PNG_FIXED_POINT_SUPPORTED
 367:fltk-1.3.4-1/png/pngget.c **** static png_fixed_point
 368:fltk-1.3.4-1/png/pngget.c **** png_fixed_inches_from_microns(png_const_structrp png_ptr, png_int_32 microns)
 369:fltk-1.3.4-1/png/pngget.c **** {
 370:fltk-1.3.4-1/png/pngget.c ****    /* Convert from metres * 1,000,000 to inches * 100,000, meters to
 371:fltk-1.3.4-1/png/pngget.c ****     * inches is simply *(100/2.54), so we want *(10/2.54) == 500/127.
 372:fltk-1.3.4-1/png/pngget.c ****     * Notice that this can overflow - a warning is output and 0 is
 373:fltk-1.3.4-1/png/pngget.c ****     * returned.
 374:fltk-1.3.4-1/png/pngget.c ****     */
 375:fltk-1.3.4-1/png/pngget.c ****    return png_muldiv_warn(png_ptr, microns, 500, 127);
 376:fltk-1.3.4-1/png/pngget.c **** }
 377:fltk-1.3.4-1/png/pngget.c **** 
 378:fltk-1.3.4-1/png/pngget.c **** png_fixed_point PNGAPI
 379:fltk-1.3.4-1/png/pngget.c **** png_get_x_offset_inches_fixed(png_const_structrp png_ptr,
 380:fltk-1.3.4-1/png/pngget.c ****     png_const_inforp info_ptr)
 381:fltk-1.3.4-1/png/pngget.c **** {
 1002              		.loc 1 381 1 is_stmt 1 view -0
 1003              		.cfi_startproc
 1004              		.loc 1 381 1 is_stmt 0 view .LVU260
 1005 0000 F30F1EFA 		endbr64
 382:fltk-1.3.4-1/png/pngget.c ****    return png_fixed_inches_from_microns(png_ptr,
 1006              		.loc 1 382 4 is_stmt 1 view .LVU261
 381:fltk-1.3.4-1/png/pngget.c ****    return png_fixed_inches_from_microns(png_ptr,
 1007              		.loc 1 381 1 is_stmt 0 view .LVU262
 1008 0004 4883EC08 		subq	$8, %rsp
 1009              		.cfi_def_cfa_offset 16
 1010              		.loc 1 382 11 view .LVU263
 1011 0008 E8000000 		call	png_get_x_offset_microns
 1011      00
 1012              	.LVL57:
 1013              	.LBB51:
 1014              	.LBB52:
 375:fltk-1.3.4-1/png/pngget.c **** }
 1015              		.loc 1 375 11 view .LVU264
 1016 000d B97F0000 		movl	$127, %ecx
 1016      00
 1017 0012 BAF40100 		movl	$500, %edx
 1017      00
 1018              	.LBE52:
 1019              	.LBE51:
 383:fltk-1.3.4-1/png/pngget.c ****        png_get_x_offset_microns(png_ptr, info_ptr));
 384:fltk-1.3.4-1/png/pngget.c **** }
 1020              		.loc 1 384 1 view .LVU265
 1021 0017 4883C408 		addq	$8, %rsp
 1022              		.cfi_def_cfa_offset 8
 382:fltk-1.3.4-1/png/pngget.c ****        png_get_x_offset_microns(png_ptr, info_ptr));
 1023              		.loc 1 382 11 view .LVU266
 1024 001b 89C6     		movl	%eax, %esi
 1025              	.LVL58:
 1026              	.LBB54:
 1027              	.LBI51:
 368:fltk-1.3.4-1/png/pngget.c **** {
 1028              		.loc 1 368 1 is_stmt 1 view .LVU267
 1029              	.LBB53:
 375:fltk-1.3.4-1/png/pngget.c **** }
 1030              		.loc 1 375 4 view .LVU268
 375:fltk-1.3.4-1/png/pngget.c **** }
 1031              		.loc 1 375 11 is_stmt 0 view .LVU269
 1032 001d E9000000 		jmp	png_muldiv_warn@PLT
 1032      00
 1033              	.LVL59:
 375:fltk-1.3.4-1/png/pngget.c **** }
 1034              		.loc 1 375 11 view .LVU270
 1035              	.LBE53:
 1036              	.LBE54:
 1037              		.cfi_endproc
 1038              	.LFE65:
 1040              		.section	.text.png_get_y_offset_inches_fixed,"ax",@progbits
 1041              		.p2align 4
 1042              		.globl	png_get_y_offset_inches_fixed
 1044              	png_get_y_offset_inches_fixed:
 1045              	.LVL60:
 1046              	.LFB66:
 385:fltk-1.3.4-1/png/pngget.c **** #endif
 386:fltk-1.3.4-1/png/pngget.c **** 
 387:fltk-1.3.4-1/png/pngget.c **** #ifdef PNG_FIXED_POINT_SUPPORTED
 388:fltk-1.3.4-1/png/pngget.c **** png_fixed_point PNGAPI
 389:fltk-1.3.4-1/png/pngget.c **** png_get_y_offset_inches_fixed(png_const_structrp png_ptr,
 390:fltk-1.3.4-1/png/pngget.c ****     png_const_inforp info_ptr)
 391:fltk-1.3.4-1/png/pngget.c **** {
 1047              		.loc 1 391 1 is_stmt 1 view -0
 1048              		.cfi_startproc
 1049              		.loc 1 391 1 is_stmt 0 view .LVU272
 1050 0000 F30F1EFA 		endbr64
 392:fltk-1.3.4-1/png/pngget.c ****    return png_fixed_inches_from_microns(png_ptr,
 1051              		.loc 1 392 4 is_stmt 1 view .LVU273
 391:fltk-1.3.4-1/png/pngget.c ****    return png_fixed_inches_from_microns(png_ptr,
 1052              		.loc 1 391 1 is_stmt 0 view .LVU274
 1053 0004 4883EC08 		subq	$8, %rsp
 1054              		.cfi_def_cfa_offset 16
 1055              		.loc 1 392 11 view .LVU275
 1056 0008 E8000000 		call	png_get_y_offset_microns
 1056      00
 1057              	.LVL61:
 1058              	.LBB55:
 1059              	.LBB56:
 375:fltk-1.3.4-1/png/pngget.c **** }
 1060              		.loc 1 375 11 view .LVU276
 1061 000d B97F0000 		movl	$127, %ecx
 1061      00
 1062 0012 BAF40100 		movl	$500, %edx
 1062      00
 1063              	.LBE56:
 1064              	.LBE55:
 393:fltk-1.3.4-1/png/pngget.c ****        png_get_y_offset_microns(png_ptr, info_ptr));
 394:fltk-1.3.4-1/png/pngget.c **** }
 1065              		.loc 1 394 1 view .LVU277
 1066 0017 4883C408 		addq	$8, %rsp
 1067              		.cfi_def_cfa_offset 8
 392:fltk-1.3.4-1/png/pngget.c ****        png_get_y_offset_microns(png_ptr, info_ptr));
 1068              		.loc 1 392 11 view .LVU278
 1069 001b 89C6     		movl	%eax, %esi
 1070              	.LVL62:
 1071              	.LBB58:
 1072              	.LBI55:
 368:fltk-1.3.4-1/png/pngget.c **** {
 1073              		.loc 1 368 1 is_stmt 1 view .LVU279
 1074              	.LBB57:
 375:fltk-1.3.4-1/png/pngget.c **** }
 1075              		.loc 1 375 4 view .LVU280
 375:fltk-1.3.4-1/png/pngget.c **** }
 1076              		.loc 1 375 11 is_stmt 0 view .LVU281
 1077 001d E9000000 		jmp	png_muldiv_warn@PLT
 1077      00
 1078              	.LVL63:
 375:fltk-1.3.4-1/png/pngget.c **** }
 1079              		.loc 1 375 11 view .LVU282
 1080              	.LBE57:
 1081              	.LBE58:
 1082              		.cfi_endproc
 1083              	.LFE66:
 1085              		.section	.text.png_get_x_offset_inches,"ax",@progbits
 1086              		.p2align 4
 1087              		.globl	png_get_x_offset_inches
 1089              	png_get_x_offset_inches:
 1090              	.LVL64:
 1091              	.LFB67:
 395:fltk-1.3.4-1/png/pngget.c **** #endif
 396:fltk-1.3.4-1/png/pngget.c **** 
 397:fltk-1.3.4-1/png/pngget.c **** #ifdef PNG_FLOATING_POINT_SUPPORTED
 398:fltk-1.3.4-1/png/pngget.c **** float PNGAPI
 399:fltk-1.3.4-1/png/pngget.c **** png_get_x_offset_inches(png_const_structrp png_ptr, png_const_inforp info_ptr)
 400:fltk-1.3.4-1/png/pngget.c **** {
 1092              		.loc 1 400 1 is_stmt 1 view -0
 1093              		.cfi_startproc
 1094              		.loc 1 400 1 is_stmt 0 view .LVU284
 1095 0000 F30F1EFA 		endbr64
 401:fltk-1.3.4-1/png/pngget.c ****    /* To avoid the overflow do the conversion directly in floating
 402:fltk-1.3.4-1/png/pngget.c ****     * point.
 403:fltk-1.3.4-1/png/pngget.c ****     */
 404:fltk-1.3.4-1/png/pngget.c ****    return (float)(png_get_x_offset_microns(png_ptr, info_ptr) * .00003937);
 1096              		.loc 1 404 4 is_stmt 1 view .LVU285
 1097              		.loc 1 404 19 is_stmt 0 view .LVU286
 1098 0004 E8000000 		call	png_get_x_offset_microns
 1098      00
 1099              	.LVL65:
 1100              		.loc 1 404 63 view .LVU287
 1101 0009 660FEFC0 		pxor	%xmm0, %xmm0
 1102 000d F20F2AC0 		cvtsi2sdl	%eax, %xmm0
 1103 0011 F20F5905 		mulsd	.LC1(%rip), %xmm0
 1103      00000000 
 1104              		.loc 1 404 11 view .LVU288
 1105 0019 F20F5AC0 		cvtsd2ss	%xmm0, %xmm0
 405:fltk-1.3.4-1/png/pngget.c **** }
 1106              		.loc 1 405 1 view .LVU289
 1107 001d C3       		ret
 1108              		.cfi_endproc
 1109              	.LFE67:
 1111              		.section	.text.png_get_y_offset_inches,"ax",@progbits
 1112              		.p2align 4
 1113              		.globl	png_get_y_offset_inches
 1115              	png_get_y_offset_inches:
 1116              	.LVL66:
 1117              	.LFB68:
 406:fltk-1.3.4-1/png/pngget.c **** #endif
 407:fltk-1.3.4-1/png/pngget.c **** 
 408:fltk-1.3.4-1/png/pngget.c **** #ifdef PNG_FLOATING_POINT_SUPPORTED
 409:fltk-1.3.4-1/png/pngget.c **** float PNGAPI
 410:fltk-1.3.4-1/png/pngget.c **** png_get_y_offset_inches(png_const_structrp png_ptr, png_const_inforp info_ptr)
 411:fltk-1.3.4-1/png/pngget.c **** {
 1118              		.loc 1 411 1 is_stmt 1 view -0
 1119              		.cfi_startproc
 1120              		.loc 1 411 1 is_stmt 0 view .LVU291
 1121 0000 F30F1EFA 		endbr64
 412:fltk-1.3.4-1/png/pngget.c ****    /* To avoid the overflow do the conversion directly in floating
 413:fltk-1.3.4-1/png/pngget.c ****     * point.
 414:fltk-1.3.4-1/png/pngget.c ****     */
 415:fltk-1.3.4-1/png/pngget.c ****    return (float)(png_get_y_offset_microns(png_ptr, info_ptr) * .00003937);
 1122              		.loc 1 415 4 is_stmt 1 view .LVU292
 1123              		.loc 1 415 19 is_stmt 0 view .LVU293
 1124 0004 E8000000 		call	png_get_y_offset_microns
 1124      00
 1125              	.LVL67:
 1126              		.loc 1 415 63 view .LVU294
 1127 0009 660FEFC0 		pxor	%xmm0, %xmm0
 1128 000d F20F2AC0 		cvtsi2sdl	%eax, %xmm0
 1129 0011 F20F5905 		mulsd	.LC1(%rip), %xmm0
 1129      00000000 
 1130              		.loc 1 415 11 view .LVU295
 1131 0019 F20F5AC0 		cvtsd2ss	%xmm0, %xmm0
 416:fltk-1.3.4-1/png/pngget.c **** }
 1132              		.loc 1 416 1 view .LVU296
 1133 001d C3       		ret
 1134              		.cfi_endproc
 1135              	.LFE68:
 1137              		.section	.text.png_get_pHYs_dpi,"ax",@progbits
 1138              		.p2align 4
 1139              		.globl	png_get_pHYs_dpi
 1141              	png_get_pHYs_dpi:
 1142              	.LVL68:
 1143              	.LFB69:
 417:fltk-1.3.4-1/png/pngget.c **** #endif
 418:fltk-1.3.4-1/png/pngget.c **** 
 419:fltk-1.3.4-1/png/pngget.c **** #ifdef PNG_pHYs_SUPPORTED
 420:fltk-1.3.4-1/png/pngget.c **** png_uint_32 PNGAPI
 421:fltk-1.3.4-1/png/pngget.c **** png_get_pHYs_dpi(png_const_structrp png_ptr, png_const_inforp info_ptr,
 422:fltk-1.3.4-1/png/pngget.c ****     png_uint_32 *res_x, png_uint_32 *res_y, int *unit_type)
 423:fltk-1.3.4-1/png/pngget.c **** {
 1144              		.loc 1 423 1 is_stmt 1 view -0
 1145              		.cfi_startproc
 1146              		.loc 1 423 1 is_stmt 0 view .LVU298
 1147 0000 F30F1EFA 		endbr64
 424:fltk-1.3.4-1/png/pngget.c ****    png_uint_32 retval = 0;
 1148              		.loc 1 424 4 is_stmt 1 view .LVU299
 1149              	.LVL69:
 425:fltk-1.3.4-1/png/pngget.c **** 
 426:fltk-1.3.4-1/png/pngget.c ****    if (png_ptr != NULL && info_ptr != NULL &&
 1150              		.loc 1 426 4 view .LVU300
 1151              		.loc 1 426 7 is_stmt 0 view .LVU301
 1152 0004 4885FF   		testq	%rdi, %rdi
 1153 0007 0F84AB00 		je	.L261
 1153      0000
 1154 000d 4885F6   		testq	%rsi, %rsi
 1155 0010 0F84A200 		je	.L261
 1155      0000
 1156              		.loc 1 426 44 discriminator 1 view .LVU302
 1157 0016 8B4608   		movl	8(%rsi), %eax
 1158 0019 25800000 		andl	$128, %eax
 1158      00
 1159 001e 0F849600 		je	.L250
 1159      0000
 427:fltk-1.3.4-1/png/pngget.c ****        (info_ptr->valid & PNG_INFO_pHYs) != 0)
 428:fltk-1.3.4-1/png/pngget.c ****    {
 429:fltk-1.3.4-1/png/pngget.c ****       png_debug1(1, "in %s retrieval function", "pHYs");
 1160              		.loc 1 429 7 is_stmt 1 view .LVU303
 430:fltk-1.3.4-1/png/pngget.c **** 
 431:fltk-1.3.4-1/png/pngget.c ****       if (res_x != NULL)
 1161              		.loc 1 431 7 view .LVU304
 424:fltk-1.3.4-1/png/pngget.c **** 
 1162              		.loc 1 424 16 is_stmt 0 view .LVU305
 1163 0024 31C0     		xorl	%eax, %eax
 1164              		.loc 1 431 10 view .LVU306
 1165 0026 4885D2   		testq	%rdx, %rdx
 1166 0029 740D     		je	.L252
 432:fltk-1.3.4-1/png/pngget.c ****       {
 433:fltk-1.3.4-1/png/pngget.c ****          *res_x = info_ptr->x_pixels_per_unit;
 1167              		.loc 1 433 10 is_stmt 1 view .LVU307
 1168              		.loc 1 433 17 is_stmt 0 view .LVU308
 1169 002b 8B86E000 		movl	224(%rsi), %eax
 1169      0000
 1170 0031 8902     		movl	%eax, (%rdx)
 434:fltk-1.3.4-1/png/pngget.c ****          retval |= PNG_INFO_pHYs;
 1171              		.loc 1 434 10 is_stmt 1 view .LVU309
 1172              	.LVL70:
 1173              		.loc 1 434 17 is_stmt 0 view .LVU310
 1174 0033 B8800000 		movl	$128, %eax
 1174      00
 1175              	.LVL71:
 1176              	.L252:
 435:fltk-1.3.4-1/png/pngget.c ****       }
 436:fltk-1.3.4-1/png/pngget.c **** 
 437:fltk-1.3.4-1/png/pngget.c ****       if (res_y != NULL)
 1177              		.loc 1 437 7 is_stmt 1 view .LVU311
 1178              		.loc 1 437 10 is_stmt 0 view .LVU312
 1179 0038 4885C9   		testq	%rcx, %rcx
 1180 003b 740D     		je	.L253
 438:fltk-1.3.4-1/png/pngget.c ****       {
 439:fltk-1.3.4-1/png/pngget.c ****          *res_y = info_ptr->y_pixels_per_unit;
 1181              		.loc 1 439 10 is_stmt 1 view .LVU313
 1182              		.loc 1 439 17 is_stmt 0 view .LVU314
 1183 003d 8B86E400 		movl	228(%rsi), %eax
 1183      0000
 1184              	.LVL72:
 1185              		.loc 1 439 17 view .LVU315
 1186 0043 8901     		movl	%eax, (%rcx)
 440:fltk-1.3.4-1/png/pngget.c ****          retval |= PNG_INFO_pHYs;
 1187              		.loc 1 440 10 is_stmt 1 view .LVU316
 1188              	.LVL73:
 1189              		.loc 1 440 17 is_stmt 0 view .LVU317
 1190 0045 B8800000 		movl	$128, %eax
 1190      00
 1191              	.LVL74:
 1192              	.L253:
 441:fltk-1.3.4-1/png/pngget.c ****       }
 442:fltk-1.3.4-1/png/pngget.c **** 
 443:fltk-1.3.4-1/png/pngget.c ****       if (unit_type != NULL)
 1193              		.loc 1 443 7 is_stmt 1 view .LVU318
 1194              		.loc 1 443 10 is_stmt 0 view .LVU319
 1195 004a 4D85C0   		testq	%r8, %r8
 1196 004d 746B     		je	.L250
 444:fltk-1.3.4-1/png/pngget.c ****       {
 445:fltk-1.3.4-1/png/pngget.c ****          *unit_type = (int)info_ptr->phys_unit_type;
 1197              		.loc 1 445 10 is_stmt 1 view .LVU320
 1198              		.loc 1 445 23 is_stmt 0 view .LVU321
 1199 004f 0FB686E8 		movzbl	232(%rsi), %eax
 1199      000000
 1200              	.LVL75:
 1201              		.loc 1 445 21 view .LVU322
 1202 0056 418900   		movl	%eax, (%r8)
 446:fltk-1.3.4-1/png/pngget.c ****          retval |= PNG_INFO_pHYs;
 1203              		.loc 1 446 10 is_stmt 1 view .LVU323
 1204              	.LVL76:
 447:fltk-1.3.4-1/png/pngget.c **** 
 448:fltk-1.3.4-1/png/pngget.c ****          if (*unit_type == 1)
 1205              		.loc 1 448 10 view .LVU324
 1206              		.loc 1 448 13 is_stmt 0 view .LVU325
 1207 0059 83F801   		cmpl	$1, %eax
 1208 005c 754E     		jne	.L285
 449:fltk-1.3.4-1/png/pngget.c ****          {
 450:fltk-1.3.4-1/png/pngget.c ****             if (res_x != NULL) *res_x = (png_uint_32)(*res_x * .0254 + .50);
 1209              		.loc 1 450 13 is_stmt 1 view .LVU326
 1210              		.loc 1 450 16 is_stmt 0 view .LVU327
 1211 005e 4885D2   		testq	%rdx, %rdx
 1212 0061 7422     		je	.L255
 1213              		.loc 1 450 32 is_stmt 1 discriminator 1 view .LVU328
 1214              		.loc 1 450 62 is_stmt 0 discriminator 1 view .LVU329
 1215 0063 8B02     		movl	(%rdx), %eax
 1216 0065 660FEFC0 		pxor	%xmm0, %xmm0
 1217 0069 F2480F2A 		cvtsi2sdq	%rax, %xmm0
 1217      C0
 1218 006e F20F5905 		mulsd	.LC2(%rip), %xmm0
 1218      00000000 
 1219              		.loc 1 450 70 discriminator 1 view .LVU330
 1220 0076 F20F5805 		addsd	.LC3(%rip), %xmm0
 1220      00000000 
 1221              		.loc 1 450 41 discriminator 1 view .LVU331
 1222 007e F2480F2C 		cvttsd2siq	%xmm0, %rax
 1222      C0
 1223 0083 8902     		movl	%eax, (%rdx)
 1224              	.L255:
 451:fltk-1.3.4-1/png/pngget.c ****             if (res_y != NULL) *res_y = (png_uint_32)(*res_y * .0254 + .50);
 1225              		.loc 1 451 13 is_stmt 1 view .LVU332
 1226              		.loc 1 451 16 is_stmt 0 view .LVU333
 1227 0085 4885C9   		testq	%rcx, %rcx
 1228 0088 7422     		je	.L285
 1229              		.loc 1 451 32 is_stmt 1 discriminator 1 view .LVU334
 1230              		.loc 1 451 62 is_stmt 0 discriminator 1 view .LVU335
 1231 008a 8B01     		movl	(%rcx), %eax
 1232 008c 660FEFC0 		pxor	%xmm0, %xmm0
 1233 0090 F2480F2A 		cvtsi2sdq	%rax, %xmm0
 1233      C0
 1234 0095 F20F5905 		mulsd	.LC2(%rip), %xmm0
 1234      00000000 
 1235              		.loc 1 451 70 discriminator 1 view .LVU336
 1236 009d F20F5805 		addsd	.LC3(%rip), %xmm0
 1236      00000000 
 1237              		.loc 1 451 41 discriminator 1 view .LVU337
 1238 00a5 F2480F2C 		cvttsd2siq	%xmm0, %rax
 1238      C0
 1239 00aa 8901     		movl	%eax, (%rcx)
 1240              	.L285:
 446:fltk-1.3.4-1/png/pngget.c **** 
 1241              		.loc 1 446 17 discriminator 1 view .LVU338
 1242 00ac B8800000 		movl	$128, %eax
 1242      00
 1243 00b1 C3       		ret
 1244              	.LVL77:
 1245              		.p2align 4,,10
 1246 00b2 660F1F44 		.p2align 3
 1246      0000
 1247              	.L261:
 424:fltk-1.3.4-1/png/pngget.c **** 
 1248              		.loc 1 424 16 view .LVU339
 1249 00b8 31C0     		xorl	%eax, %eax
 452:fltk-1.3.4-1/png/pngget.c ****          }
 453:fltk-1.3.4-1/png/pngget.c ****       }
 454:fltk-1.3.4-1/png/pngget.c ****    }
 455:fltk-1.3.4-1/png/pngget.c **** 
 456:fltk-1.3.4-1/png/pngget.c ****    return (retval);
 1250              		.loc 1 456 4 is_stmt 1 view .LVU340
 1251              	.LVL78:
 1252              	.L250:
 457:fltk-1.3.4-1/png/pngget.c **** }
 1253              		.loc 1 457 1 is_stmt 0 view .LVU341
 1254 00ba C3       		ret
 1255              		.cfi_endproc
 1256              	.LFE69:
 1258              		.section	.text.png_get_channels,"ax",@progbits
 1259              		.p2align 4
 1260              		.globl	png_get_channels
 1262              	png_get_channels:
 1263              	.LVL79:
 1264              	.LFB70:
 458:fltk-1.3.4-1/png/pngget.c **** #endif /* pHYs */
 459:fltk-1.3.4-1/png/pngget.c **** #endif  /* INCH_CONVERSIONS */
 460:fltk-1.3.4-1/png/pngget.c **** 
 461:fltk-1.3.4-1/png/pngget.c **** /* png_get_channels really belongs in here, too, but it's been around longer */
 462:fltk-1.3.4-1/png/pngget.c **** 
 463:fltk-1.3.4-1/png/pngget.c **** #endif  /* EASY_ACCESS */
 464:fltk-1.3.4-1/png/pngget.c **** 
 465:fltk-1.3.4-1/png/pngget.c **** 
 466:fltk-1.3.4-1/png/pngget.c **** png_byte PNGAPI
 467:fltk-1.3.4-1/png/pngget.c **** png_get_channels(png_const_structrp png_ptr, png_const_inforp info_ptr)
 468:fltk-1.3.4-1/png/pngget.c **** {
 1265              		.loc 1 468 1 is_stmt 1 view -0
 1266              		.cfi_startproc
 1267              		.loc 1 468 1 is_stmt 0 view .LVU343
 1268 0000 F30F1EFA 		endbr64
 469:fltk-1.3.4-1/png/pngget.c ****    if (png_ptr != NULL && info_ptr != NULL)
 1269              		.loc 1 469 4 is_stmt 1 view .LVU344
 1270              		.loc 1 469 7 is_stmt 0 view .LVU345
 1271 0004 4885FF   		testq	%rdi, %rdi
 1272 0007 740F     		je	.L288
 1273 0009 4885F6   		testq	%rsi, %rsi
 1274 000c 740A     		je	.L288
 470:fltk-1.3.4-1/png/pngget.c ****       return(info_ptr->channels);
 1275              		.loc 1 470 7 is_stmt 1 view .LVU346
 1276              		.loc 1 470 22 is_stmt 0 view .LVU347
 1277 000e 0FB64629 		movzbl	41(%rsi), %eax
 1278 0012 C3       		ret
 1279              		.p2align 4,,10
 1280 0013 0F1F4400 		.p2align 3
 1280      00
 1281              	.L288:
 471:fltk-1.3.4-1/png/pngget.c **** 
 472:fltk-1.3.4-1/png/pngget.c ****    return (0);
 1282              		.loc 1 472 11 view .LVU348
 1283 0018 31C0     		xorl	%eax, %eax
 473:fltk-1.3.4-1/png/pngget.c **** }
 1284              		.loc 1 473 1 view .LVU349
 1285 001a C3       		ret
 1286              		.cfi_endproc
 1287              	.LFE70:
 1289              		.section	.text.png_get_signature,"ax",@progbits
 1290              		.p2align 4
 1291              		.globl	png_get_signature
 1293              	png_get_signature:
 1294              	.LVL80:
 1295              	.LFB71:
 474:fltk-1.3.4-1/png/pngget.c **** 
 475:fltk-1.3.4-1/png/pngget.c **** #ifdef PNG_READ_SUPPORTED
 476:fltk-1.3.4-1/png/pngget.c **** png_const_bytep PNGAPI
 477:fltk-1.3.4-1/png/pngget.c **** png_get_signature(png_const_structrp png_ptr, png_const_inforp info_ptr)
 478:fltk-1.3.4-1/png/pngget.c **** {
 1296              		.loc 1 478 1 is_stmt 1 view -0
 1297              		.cfi_startproc
 1298              		.loc 1 478 1 is_stmt 0 view .LVU351
 1299 0000 F30F1EFA 		endbr64
 479:fltk-1.3.4-1/png/pngget.c ****    if (png_ptr != NULL && info_ptr != NULL)
 1300              		.loc 1 479 4 is_stmt 1 view .LVU352
 1301              		.loc 1 479 7 is_stmt 0 view .LVU353
 1302 0004 4885FF   		testq	%rdi, %rdi
 1303 0007 740F     		je	.L297
 1304 0009 4885F6   		testq	%rsi, %rsi
 1305 000c 740A     		je	.L297
 480:fltk-1.3.4-1/png/pngget.c ****       return(info_ptr->signature);
 1306              		.loc 1 480 7 is_stmt 1 view .LVU354
 1307              		.loc 1 480 13 is_stmt 0 view .LVU355
 1308 000e 488D462C 		leaq	44(%rsi), %rax
 1309 0012 C3       		ret
 1310              		.p2align 4,,10
 1311 0013 0F1F4400 		.p2align 3
 1311      00
 1312              	.L297:
 481:fltk-1.3.4-1/png/pngget.c **** 
 482:fltk-1.3.4-1/png/pngget.c ****    return (NULL);
 1313              		.loc 1 482 11 view .LVU356
 1314 0018 31C0     		xorl	%eax, %eax
 483:fltk-1.3.4-1/png/pngget.c **** }
 1315              		.loc 1 483 1 view .LVU357
 1316 001a C3       		ret
 1317              		.cfi_endproc
 1318              	.LFE71:
 1320              		.section	.text.png_get_bKGD,"ax",@progbits
 1321              		.p2align 4
 1322              		.globl	png_get_bKGD
 1324              	png_get_bKGD:
 1325              	.LVL81:
 1326              	.LFB72:
 484:fltk-1.3.4-1/png/pngget.c **** #endif
 485:fltk-1.3.4-1/png/pngget.c **** 
 486:fltk-1.3.4-1/png/pngget.c **** #ifdef PNG_bKGD_SUPPORTED
 487:fltk-1.3.4-1/png/pngget.c **** png_uint_32 PNGAPI
 488:fltk-1.3.4-1/png/pngget.c **** png_get_bKGD(png_const_structrp png_ptr, png_inforp info_ptr,
 489:fltk-1.3.4-1/png/pngget.c ****    png_color_16p *background)
 490:fltk-1.3.4-1/png/pngget.c **** {
 1327              		.loc 1 490 1 is_stmt 1 view -0
 1328              		.cfi_startproc
 1329              		.loc 1 490 1 is_stmt 0 view .LVU359
 1330 0000 F30F1EFA 		endbr64
 491:fltk-1.3.4-1/png/pngget.c ****    if (png_ptr != NULL && info_ptr != NULL &&
 1331              		.loc 1 491 4 is_stmt 1 view .LVU360
 1332              		.loc 1 491 7 is_stmt 0 view .LVU361
 1333 0004 4885FF   		testq	%rdi, %rdi
 1334 0007 7410     		je	.L307
 1335 0009 4885F6   		testq	%rsi, %rsi
 1336 000c 740B     		je	.L307
 492:fltk-1.3.4-1/png/pngget.c ****        (info_ptr->valid & PNG_INFO_bKGD) != 0 &&
 1337              		.loc 1 492 47 discriminator 1 view .LVU362
 1338 000e F6460820 		testb	$32, 8(%rsi)
 1339 0012 7405     		je	.L307
 1340 0014 4885D2   		testq	%rdx, %rdx
 1341 0017 7507     		jne	.L320
 1342              	.L307:
 493:fltk-1.3.4-1/png/pngget.c ****        background != NULL)
 494:fltk-1.3.4-1/png/pngget.c ****    {
 495:fltk-1.3.4-1/png/pngget.c ****       png_debug1(1, "in %s retrieval function", "bKGD");
 496:fltk-1.3.4-1/png/pngget.c **** 
 497:fltk-1.3.4-1/png/pngget.c ****       *background = &(info_ptr->background);
 498:fltk-1.3.4-1/png/pngget.c ****       return (PNG_INFO_bKGD);
 499:fltk-1.3.4-1/png/pngget.c ****    }
 500:fltk-1.3.4-1/png/pngget.c **** 
 501:fltk-1.3.4-1/png/pngget.c ****    return (0);
 1343              		.loc 1 501 11 view .LVU363
 1344 0019 31C0     		xorl	%eax, %eax
 502:fltk-1.3.4-1/png/pngget.c **** }
 1345              		.loc 1 502 1 view .LVU364
 1346 001b C3       		ret
 1347 001c 0F1F4000 		.p2align 4,,10
 1348              		.p2align 3
 1349              	.L320:
 495:fltk-1.3.4-1/png/pngget.c **** 
 1350              		.loc 1 495 7 is_stmt 1 view .LVU365
 497:fltk-1.3.4-1/png/pngget.c ****       return (PNG_INFO_bKGD);
 1351              		.loc 1 497 7 view .LVU366
 497:fltk-1.3.4-1/png/pngget.c ****       return (PNG_INFO_bKGD);
 1352              		.loc 1 497 21 is_stmt 0 view .LVU367
 1353 0020 4881C6CA 		addq	$202, %rsi
 1353      000000
 1354              	.LVL82:
 498:fltk-1.3.4-1/png/pngget.c ****    }
 1355              		.loc 1 498 14 view .LVU368
 1356 0027 B8200000 		movl	$32, %eax
 1356      00
 497:fltk-1.3.4-1/png/pngget.c ****       return (PNG_INFO_bKGD);
 1357              		.loc 1 497 21 view .LVU369
 1358 002c 488932   		movq	%rsi, (%rdx)
 498:fltk-1.3.4-1/png/pngget.c ****    }
 1359              		.loc 1 498 7 is_stmt 1 view .LVU370
 498:fltk-1.3.4-1/png/pngget.c ****    }
 1360              		.loc 1 498 14 is_stmt 0 view .LVU371
 1361 002f C3       		ret
 1362              		.cfi_endproc
 1363              	.LFE72:
 1365              		.section	.text.png_get_cHRM,"ax",@progbits
 1366              		.p2align 4
 1367              		.globl	png_get_cHRM
 1369              	png_get_cHRM:
 1370              	.LVL83:
 1371              	.LFB73:
 503:fltk-1.3.4-1/png/pngget.c **** #endif
 504:fltk-1.3.4-1/png/pngget.c **** 
 505:fltk-1.3.4-1/png/pngget.c **** #ifdef PNG_cHRM_SUPPORTED
 506:fltk-1.3.4-1/png/pngget.c **** /* The XYZ APIs were added in 1.5.5 to take advantage of the code added at the
 507:fltk-1.3.4-1/png/pngget.c ****  * same time to correct the rgb grayscale coefficient defaults obtained from the
 508:fltk-1.3.4-1/png/pngget.c ****  * cHRM chunk in 1.5.4
 509:fltk-1.3.4-1/png/pngget.c ****  */
 510:fltk-1.3.4-1/png/pngget.c **** #  ifdef PNG_FLOATING_POINT_SUPPORTED
 511:fltk-1.3.4-1/png/pngget.c **** png_uint_32 PNGAPI
 512:fltk-1.3.4-1/png/pngget.c **** png_get_cHRM(png_const_structrp png_ptr, png_const_inforp info_ptr,
 513:fltk-1.3.4-1/png/pngget.c ****     double *white_x, double *white_y, double *red_x, double *red_y,
 514:fltk-1.3.4-1/png/pngget.c ****     double *green_x, double *green_y, double *blue_x, double *blue_y)
 515:fltk-1.3.4-1/png/pngget.c **** {
 1372              		.loc 1 515 1 is_stmt 1 view -0
 1373              		.cfi_startproc
 1374              		.loc 1 515 1 is_stmt 0 view .LVU373
 1375 0000 F30F1EFA 		endbr64
 516:fltk-1.3.4-1/png/pngget.c ****    /* Quiet API change: this code used to only return the end points if a cHRM
 517:fltk-1.3.4-1/png/pngget.c ****     * chunk was present, but the end points can also come from iCCP or sRGB
 518:fltk-1.3.4-1/png/pngget.c ****     * chunks, so in 1.6.0 the png_get_ APIs return the end points regardless and
 519:fltk-1.3.4-1/png/pngget.c ****     * the png_set_ APIs merely check that set end points are mutually
 520:fltk-1.3.4-1/png/pngget.c ****     * consistent.
 521:fltk-1.3.4-1/png/pngget.c ****     */
 522:fltk-1.3.4-1/png/pngget.c ****    if (png_ptr != NULL && info_ptr != NULL &&
 1376              		.loc 1 522 4 is_stmt 1 view .LVU374
 523:fltk-1.3.4-1/png/pngget.c ****       (info_ptr->colorspace.flags & PNG_COLORSPACE_HAVE_ENDPOINTS) != 0)
 524:fltk-1.3.4-1/png/pngget.c ****    {
 525:fltk-1.3.4-1/png/pngget.c ****       png_debug1(1, "in %s retrieval function", "cHRM");
 526:fltk-1.3.4-1/png/pngget.c **** 
 527:fltk-1.3.4-1/png/pngget.c ****       if (white_x != NULL)
 528:fltk-1.3.4-1/png/pngget.c ****          *white_x = png_float(png_ptr,
 529:fltk-1.3.4-1/png/pngget.c ****             info_ptr->colorspace.end_points_xy.whitex, "cHRM white X");
 530:fltk-1.3.4-1/png/pngget.c ****       if (white_y != NULL)
 531:fltk-1.3.4-1/png/pngget.c ****          *white_y = png_float(png_ptr,
 532:fltk-1.3.4-1/png/pngget.c ****             info_ptr->colorspace.end_points_xy.whitey, "cHRM white Y");
 533:fltk-1.3.4-1/png/pngget.c ****       if (red_x != NULL)
 534:fltk-1.3.4-1/png/pngget.c ****          *red_x = png_float(png_ptr, info_ptr->colorspace.end_points_xy.redx,
 535:fltk-1.3.4-1/png/pngget.c ****             "cHRM red X");
 536:fltk-1.3.4-1/png/pngget.c ****       if (red_y != NULL)
 537:fltk-1.3.4-1/png/pngget.c ****          *red_y = png_float(png_ptr, info_ptr->colorspace.end_points_xy.redy,
 538:fltk-1.3.4-1/png/pngget.c ****             "cHRM red Y");
 539:fltk-1.3.4-1/png/pngget.c ****       if (green_x != NULL)
 540:fltk-1.3.4-1/png/pngget.c ****          *green_x = png_float(png_ptr,
 541:fltk-1.3.4-1/png/pngget.c ****             info_ptr->colorspace.end_points_xy.greenx, "cHRM green X");
 542:fltk-1.3.4-1/png/pngget.c ****       if (green_y != NULL)
 543:fltk-1.3.4-1/png/pngget.c ****          *green_y = png_float(png_ptr,
 544:fltk-1.3.4-1/png/pngget.c ****             info_ptr->colorspace.end_points_xy.greeny, "cHRM green Y");
 545:fltk-1.3.4-1/png/pngget.c ****       if (blue_x != NULL)
 546:fltk-1.3.4-1/png/pngget.c ****          *blue_x = png_float(png_ptr, info_ptr->colorspace.end_points_xy.bluex,
 547:fltk-1.3.4-1/png/pngget.c ****             "cHRM blue X");
 548:fltk-1.3.4-1/png/pngget.c ****       if (blue_y != NULL)
 549:fltk-1.3.4-1/png/pngget.c ****          *blue_y = png_float(png_ptr, info_ptr->colorspace.end_points_xy.bluey,
 550:fltk-1.3.4-1/png/pngget.c ****             "cHRM blue Y");
 551:fltk-1.3.4-1/png/pngget.c ****       return (PNG_INFO_cHRM);
 552:fltk-1.3.4-1/png/pngget.c ****    }
 553:fltk-1.3.4-1/png/pngget.c **** 
 554:fltk-1.3.4-1/png/pngget.c ****    return (0);
 1377              		.loc 1 554 11 is_stmt 0 view .LVU375
 1378 0004 31C0     		xorl	%eax, %eax
 522:fltk-1.3.4-1/png/pngget.c ****       (info_ptr->colorspace.flags & PNG_COLORSPACE_HAVE_ENDPOINTS) != 0)
 1379              		.loc 1 522 7 view .LVU376
 1380 0006 4885FF   		testq	%rdi, %rdi
 1381 0009 740B     		je	.L321
 1382 000b 4885F6   		testq	%rsi, %rsi
 1383 000e 7406     		je	.L321
 522:fltk-1.3.4-1/png/pngget.c ****       (info_ptr->colorspace.flags & PNG_COLORSPACE_HAVE_ENDPOINTS) != 0)
 1384              		.loc 1 522 44 discriminator 1 view .LVU377
 1385 0010 F6467E02 		testb	$2, 126(%rsi)
 1386 0014 750A     		jne	.L362
 1387              	.L321:
 555:fltk-1.3.4-1/png/pngget.c **** }
 1388              		.loc 1 555 1 view .LVU378
 1389 0016 C3       		ret
 1390 0017 660F1F84 		.p2align 4,,10
 1390      00000000 
 1390      00
 1391              		.p2align 3
 1392              	.L362:
 525:fltk-1.3.4-1/png/pngget.c **** 
 1393              		.loc 1 525 7 is_stmt 1 view .LVU379
 527:fltk-1.3.4-1/png/pngget.c ****          *white_x = png_float(png_ptr,
 1394              		.loc 1 527 7 view .LVU380
 527:fltk-1.3.4-1/png/pngget.c ****          *white_x = png_float(png_ptr,
 1395              		.loc 1 527 10 is_stmt 0 view .LVU381
 1396 0020 4885D2   		testq	%rdx, %rdx
 1397 0023 7415     		je	.L323
 528:fltk-1.3.4-1/png/pngget.c ****             info_ptr->colorspace.end_points_xy.whitex, "cHRM white X");
 1398              		.loc 1 528 10 is_stmt 1 view .LVU382
 528:fltk-1.3.4-1/png/pngget.c ****             info_ptr->colorspace.end_points_xy.whitex, "cHRM white X");
 1399              		.loc 1 528 21 is_stmt 0 view .LVU383
 1400 0025 660FEFC0 		pxor	%xmm0, %xmm0
 1401 0029 F20F2A46 		cvtsi2sdl	80(%rsi), %xmm0
 1401      50
 1402 002e F20F5905 		mulsd	.LC4(%rip), %xmm0
 1402      00000000 
 528:fltk-1.3.4-1/png/pngget.c ****             info_ptr->colorspace.end_points_xy.whitex, "cHRM white X");
 1403              		.loc 1 528 19 view .LVU384
 1404 0036 F20F1102 		movsd	%xmm0, (%rdx)
 1405              	.L323:
 530:fltk-1.3.4-1/png/pngget.c ****          *white_y = png_float(png_ptr,
 1406              		.loc 1 530 7 is_stmt 1 view .LVU385
 530:fltk-1.3.4-1/png/pngget.c ****          *white_y = png_float(png_ptr,
 1407              		.loc 1 530 10 is_stmt 0 view .LVU386
 1408 003a 4885C9   		testq	%rcx, %rcx
 1409 003d 7415     		je	.L324
 531:fltk-1.3.4-1/png/pngget.c ****             info_ptr->colorspace.end_points_xy.whitey, "cHRM white Y");
 1410              		.loc 1 531 10 is_stmt 1 view .LVU387
 531:fltk-1.3.4-1/png/pngget.c ****             info_ptr->colorspace.end_points_xy.whitey, "cHRM white Y");
 1411              		.loc 1 531 21 is_stmt 0 view .LVU388
 1412 003f 660FEFC0 		pxor	%xmm0, %xmm0
 1413 0043 F20F2A46 		cvtsi2sdl	84(%rsi), %xmm0
 1413      54
 1414 0048 F20F5905 		mulsd	.LC4(%rip), %xmm0
 1414      00000000 
 531:fltk-1.3.4-1/png/pngget.c ****             info_ptr->colorspace.end_points_xy.whitey, "cHRM white Y");
 1415              		.loc 1 531 19 view .LVU389
 1416 0050 F20F1101 		movsd	%xmm0, (%rcx)
 1417              	.L324:
 533:fltk-1.3.4-1/png/pngget.c ****          *red_x = png_float(png_ptr, info_ptr->colorspace.end_points_xy.redx,
 1418              		.loc 1 533 7 is_stmt 1 view .LVU390
 533:fltk-1.3.4-1/png/pngget.c ****          *red_x = png_float(png_ptr, info_ptr->colorspace.end_points_xy.redx,
 1419              		.loc 1 533 10 is_stmt 0 view .LVU391
 1420 0054 4D85C0   		testq	%r8, %r8
 1421 0057 7416     		je	.L325
 534:fltk-1.3.4-1/png/pngget.c ****             "cHRM red X");
 1422              		.loc 1 534 10 is_stmt 1 view .LVU392
 534:fltk-1.3.4-1/png/pngget.c ****             "cHRM red X");
 1423              		.loc 1 534 19 is_stmt 0 view .LVU393
 1424 0059 660FEFC0 		pxor	%xmm0, %xmm0
 1425 005d F20F2A46 		cvtsi2sdl	56(%rsi), %xmm0
 1425      38
 1426 0062 F20F5905 		mulsd	.LC4(%rip), %xmm0
 1426      00000000 
 534:fltk-1.3.4-1/png/pngget.c ****             "cHRM red X");
 1427              		.loc 1 534 17 view .LVU394
 1428 006a F2410F11 		movsd	%xmm0, (%r8)
 1428      00
 1429              	.L325:
 536:fltk-1.3.4-1/png/pngget.c ****          *red_y = png_float(png_ptr, info_ptr->colorspace.end_points_xy.redy,
 1430              		.loc 1 536 7 is_stmt 1 view .LVU395
 536:fltk-1.3.4-1/png/pngget.c ****          *red_y = png_float(png_ptr, info_ptr->colorspace.end_points_xy.redy,
 1431              		.loc 1 536 10 is_stmt 0 view .LVU396
 1432 006f 4D85C9   		testq	%r9, %r9
 1433 0072 7416     		je	.L326
 537:fltk-1.3.4-1/png/pngget.c ****             "cHRM red Y");
 1434              		.loc 1 537 10 is_stmt 1 view .LVU397
 537:fltk-1.3.4-1/png/pngget.c ****             "cHRM red Y");
 1435              		.loc 1 537 19 is_stmt 0 view .LVU398
 1436 0074 660FEFC0 		pxor	%xmm0, %xmm0
 1437 0078 F20F2A46 		cvtsi2sdl	60(%rsi), %xmm0
 1437      3C
 1438 007d F20F5905 		mulsd	.LC4(%rip), %xmm0
 1438      00000000 
 537:fltk-1.3.4-1/png/pngget.c ****             "cHRM red Y");
 1439              		.loc 1 537 17 view .LVU399
 1440 0085 F2410F11 		movsd	%xmm0, (%r9)
 1440      01
 1441              	.L326:
 539:fltk-1.3.4-1/png/pngget.c ****          *green_x = png_float(png_ptr,
 1442              		.loc 1 539 7 is_stmt 1 view .LVU400
 539:fltk-1.3.4-1/png/pngget.c ****          *green_x = png_float(png_ptr,
 1443              		.loc 1 539 10 is_stmt 0 view .LVU401
 1444 008a 48837C24 		cmpq	$0, 8(%rsp)
 1444      0800
 1445 0090 741A     		je	.L327
 540:fltk-1.3.4-1/png/pngget.c ****             info_ptr->colorspace.end_points_xy.greenx, "cHRM green X");
 1446              		.loc 1 540 10 is_stmt 1 view .LVU402
 540:fltk-1.3.4-1/png/pngget.c ****             info_ptr->colorspace.end_points_xy.greenx, "cHRM green X");
 1447              		.loc 1 540 21 is_stmt 0 view .LVU403
 1448 0092 660FEFC0 		pxor	%xmm0, %xmm0
 540:fltk-1.3.4-1/png/pngget.c ****             info_ptr->colorspace.end_points_xy.greenx, "cHRM green X");
 1449              		.loc 1 540 19 view .LVU404
 1450 0096 488B4424 		movq	8(%rsp), %rax
 1450      08
 540:fltk-1.3.4-1/png/pngget.c ****             info_ptr->colorspace.end_points_xy.greenx, "cHRM green X");
 1451              		.loc 1 540 21 view .LVU405
 1452 009b F20F2A46 		cvtsi2sdl	64(%rsi), %xmm0
 1452      40
 1453 00a0 F20F5905 		mulsd	.LC4(%rip), %xmm0
 1453      00000000 
 540:fltk-1.3.4-1/png/pngget.c ****             info_ptr->colorspace.end_points_xy.greenx, "cHRM green X");
 1454              		.loc 1 540 19 view .LVU406
 1455 00a8 F20F1100 		movsd	%xmm0, (%rax)
 1456              	.L327:
 542:fltk-1.3.4-1/png/pngget.c ****          *green_y = png_float(png_ptr,
 1457              		.loc 1 542 7 is_stmt 1 view .LVU407
 542:fltk-1.3.4-1/png/pngget.c ****          *green_y = png_float(png_ptr,
 1458              		.loc 1 542 10 is_stmt 0 view .LVU408
 1459 00ac 48837C24 		cmpq	$0, 16(%rsp)
 1459      1000
 1460 00b2 741A     		je	.L328
 543:fltk-1.3.4-1/png/pngget.c ****             info_ptr->colorspace.end_points_xy.greeny, "cHRM green Y");
 1461              		.loc 1 543 10 is_stmt 1 view .LVU409
 543:fltk-1.3.4-1/png/pngget.c ****             info_ptr->colorspace.end_points_xy.greeny, "cHRM green Y");
 1462              		.loc 1 543 21 is_stmt 0 view .LVU410
 1463 00b4 660FEFC0 		pxor	%xmm0, %xmm0
 543:fltk-1.3.4-1/png/pngget.c ****             info_ptr->colorspace.end_points_xy.greeny, "cHRM green Y");
 1464              		.loc 1 543 19 view .LVU411
 1465 00b8 488B4424 		movq	16(%rsp), %rax
 1465      10
 543:fltk-1.3.4-1/png/pngget.c ****             info_ptr->colorspace.end_points_xy.greeny, "cHRM green Y");
 1466              		.loc 1 543 21 view .LVU412
 1467 00bd F20F2A46 		cvtsi2sdl	68(%rsi), %xmm0
 1467      44
 1468 00c2 F20F5905 		mulsd	.LC4(%rip), %xmm0
 1468      00000000 
 543:fltk-1.3.4-1/png/pngget.c ****             info_ptr->colorspace.end_points_xy.greeny, "cHRM green Y");
 1469              		.loc 1 543 19 view .LVU413
 1470 00ca F20F1100 		movsd	%xmm0, (%rax)
 1471              	.L328:
 545:fltk-1.3.4-1/png/pngget.c ****          *blue_x = png_float(png_ptr, info_ptr->colorspace.end_points_xy.bluex,
 1472              		.loc 1 545 7 is_stmt 1 view .LVU414
 545:fltk-1.3.4-1/png/pngget.c ****          *blue_x = png_float(png_ptr, info_ptr->colorspace.end_points_xy.bluex,
 1473              		.loc 1 545 10 is_stmt 0 view .LVU415
 1474 00ce 48837C24 		cmpq	$0, 24(%rsp)
 1474      1800
 1475 00d4 741A     		je	.L329
 546:fltk-1.3.4-1/png/pngget.c ****             "cHRM blue X");
 1476              		.loc 1 546 10 is_stmt 1 view .LVU416
 546:fltk-1.3.4-1/png/pngget.c ****             "cHRM blue X");
 1477              		.loc 1 546 20 is_stmt 0 view .LVU417
 1478 00d6 660FEFC0 		pxor	%xmm0, %xmm0
 546:fltk-1.3.4-1/png/pngget.c ****             "cHRM blue X");
 1479              		.loc 1 546 18 view .LVU418
 1480 00da 488B4424 		movq	24(%rsp), %rax
 1480      18
 546:fltk-1.3.4-1/png/pngget.c ****             "cHRM blue X");
 1481              		.loc 1 546 20 view .LVU419
 1482 00df F20F2A46 		cvtsi2sdl	72(%rsi), %xmm0
 1482      48
 1483 00e4 F20F5905 		mulsd	.LC4(%rip), %xmm0
 1483      00000000 
 546:fltk-1.3.4-1/png/pngget.c ****             "cHRM blue X");
 1484              		.loc 1 546 18 view .LVU420
 1485 00ec F20F1100 		movsd	%xmm0, (%rax)
 1486              	.L329:
 548:fltk-1.3.4-1/png/pngget.c ****          *blue_y = png_float(png_ptr, info_ptr->colorspace.end_points_xy.bluey,
 1487              		.loc 1 548 7 is_stmt 1 view .LVU421
 548:fltk-1.3.4-1/png/pngget.c ****          *blue_y = png_float(png_ptr, info_ptr->colorspace.end_points_xy.bluey,
 1488              		.loc 1 548 10 is_stmt 0 view .LVU422
 1489 00f0 48837C24 		cmpq	$0, 32(%rsp)
 1489      2000
 551:fltk-1.3.4-1/png/pngget.c ****    }
 1490              		.loc 1 551 14 view .LVU423
 1491 00f6 B8040000 		movl	$4, %eax
 1491      00
 548:fltk-1.3.4-1/png/pngget.c ****          *blue_y = png_float(png_ptr, info_ptr->colorspace.end_points_xy.bluey,
 1492              		.loc 1 548 10 view .LVU424
 1493 00fb 0F8415FF 		je	.L321
 1493      FFFF
 549:fltk-1.3.4-1/png/pngget.c ****             "cHRM blue Y");
 1494              		.loc 1 549 10 is_stmt 1 view .LVU425
 549:fltk-1.3.4-1/png/pngget.c ****             "cHRM blue Y");
 1495              		.loc 1 549 20 is_stmt 0 view .LVU426
 1496 0101 660FEFC0 		pxor	%xmm0, %xmm0
 549:fltk-1.3.4-1/png/pngget.c ****             "cHRM blue Y");
 1497              		.loc 1 549 18 view .LVU427
 1498 0105 488B7C24 		movq	32(%rsp), %rdi
 1498      20
 1499              	.LVL84:
 549:fltk-1.3.4-1/png/pngget.c ****             "cHRM blue Y");
 1500              		.loc 1 549 20 view .LVU428
 1501 010a F20F2A46 		cvtsi2sdl	76(%rsi), %xmm0
 1501      4C
 1502 010f F20F5905 		mulsd	.LC4(%rip), %xmm0
 1502      00000000 
 549:fltk-1.3.4-1/png/pngget.c ****             "cHRM blue Y");
 1503              		.loc 1 549 18 view .LVU429
 1504 0117 F20F1107 		movsd	%xmm0, (%rdi)
 1505 011b C3       		ret
 1506              		.cfi_endproc
 1507              	.LFE73:
 1509              		.section	.text.png_get_cHRM_XYZ,"ax",@progbits
 1510              		.p2align 4
 1511              		.globl	png_get_cHRM_XYZ
 1513              	png_get_cHRM_XYZ:
 1514              	.LVL85:
 1515              	.LFB74:
 556:fltk-1.3.4-1/png/pngget.c **** 
 557:fltk-1.3.4-1/png/pngget.c **** png_uint_32 PNGAPI
 558:fltk-1.3.4-1/png/pngget.c **** png_get_cHRM_XYZ(png_const_structrp png_ptr, png_const_inforp info_ptr,
 559:fltk-1.3.4-1/png/pngget.c ****    double *red_X, double *red_Y, double *red_Z, double *green_X,
 560:fltk-1.3.4-1/png/pngget.c ****    double *green_Y, double *green_Z, double *blue_X, double *blue_Y,
 561:fltk-1.3.4-1/png/pngget.c ****    double *blue_Z)
 562:fltk-1.3.4-1/png/pngget.c **** {
 1516              		.loc 1 562 1 is_stmt 1 view -0
 1517              		.cfi_startproc
 1518              		.loc 1 562 1 is_stmt 0 view .LVU431
 1519 0000 F30F1EFA 		endbr64
 563:fltk-1.3.4-1/png/pngget.c ****    if (png_ptr != NULL && info_ptr != NULL &&
 1520              		.loc 1 563 4 is_stmt 1 view .LVU432
 564:fltk-1.3.4-1/png/pngget.c ****       (info_ptr->colorspace.flags & PNG_COLORSPACE_HAVE_ENDPOINTS) != 0)
 565:fltk-1.3.4-1/png/pngget.c ****    {
 566:fltk-1.3.4-1/png/pngget.c ****       png_debug1(1, "in %s retrieval function", "cHRM_XYZ(float)");
 567:fltk-1.3.4-1/png/pngget.c **** 
 568:fltk-1.3.4-1/png/pngget.c ****       if (red_X != NULL)
 569:fltk-1.3.4-1/png/pngget.c ****          *red_X = png_float(png_ptr, info_ptr->colorspace.end_points_XYZ.red_X,
 570:fltk-1.3.4-1/png/pngget.c ****             "cHRM red X");
 571:fltk-1.3.4-1/png/pngget.c ****       if (red_Y != NULL)
 572:fltk-1.3.4-1/png/pngget.c ****          *red_Y = png_float(png_ptr, info_ptr->colorspace.end_points_XYZ.red_Y,
 573:fltk-1.3.4-1/png/pngget.c ****             "cHRM red Y");
 574:fltk-1.3.4-1/png/pngget.c ****       if (red_Z != NULL)
 575:fltk-1.3.4-1/png/pngget.c ****          *red_Z = png_float(png_ptr, info_ptr->colorspace.end_points_XYZ.red_Z,
 576:fltk-1.3.4-1/png/pngget.c ****             "cHRM red Z");
 577:fltk-1.3.4-1/png/pngget.c ****       if (green_X != NULL)
 578:fltk-1.3.4-1/png/pngget.c ****          *green_X = png_float(png_ptr,
 579:fltk-1.3.4-1/png/pngget.c ****             info_ptr->colorspace.end_points_XYZ.green_X, "cHRM green X");
 580:fltk-1.3.4-1/png/pngget.c ****       if (green_Y != NULL)
 581:fltk-1.3.4-1/png/pngget.c ****          *green_Y = png_float(png_ptr,
 582:fltk-1.3.4-1/png/pngget.c ****             info_ptr->colorspace.end_points_XYZ.green_Y, "cHRM green Y");
 583:fltk-1.3.4-1/png/pngget.c ****       if (green_Z != NULL)
 584:fltk-1.3.4-1/png/pngget.c ****          *green_Z = png_float(png_ptr,
 585:fltk-1.3.4-1/png/pngget.c ****             info_ptr->colorspace.end_points_XYZ.green_Z, "cHRM green Z");
 586:fltk-1.3.4-1/png/pngget.c ****       if (blue_X != NULL)
 587:fltk-1.3.4-1/png/pngget.c ****          *blue_X = png_float(png_ptr,
 588:fltk-1.3.4-1/png/pngget.c ****             info_ptr->colorspace.end_points_XYZ.blue_X, "cHRM blue X");
 589:fltk-1.3.4-1/png/pngget.c ****       if (blue_Y != NULL)
 590:fltk-1.3.4-1/png/pngget.c ****          *blue_Y = png_float(png_ptr,
 591:fltk-1.3.4-1/png/pngget.c ****             info_ptr->colorspace.end_points_XYZ.blue_Y, "cHRM blue Y");
 592:fltk-1.3.4-1/png/pngget.c ****       if (blue_Z != NULL)
 593:fltk-1.3.4-1/png/pngget.c ****          *blue_Z = png_float(png_ptr,
 594:fltk-1.3.4-1/png/pngget.c ****             info_ptr->colorspace.end_points_XYZ.blue_Z, "cHRM blue Z");
 595:fltk-1.3.4-1/png/pngget.c ****       return (PNG_INFO_cHRM);
 596:fltk-1.3.4-1/png/pngget.c ****    }
 597:fltk-1.3.4-1/png/pngget.c **** 
 598:fltk-1.3.4-1/png/pngget.c ****    return (0);
 1521              		.loc 1 598 11 is_stmt 0 view .LVU433
 1522 0004 31C0     		xorl	%eax, %eax
 563:fltk-1.3.4-1/png/pngget.c ****    if (png_ptr != NULL && info_ptr != NULL &&
 1523              		.loc 1 563 7 view .LVU434
 1524 0006 4885FF   		testq	%rdi, %rdi
 1525 0009 740B     		je	.L363
 1526 000b 4885F6   		testq	%rsi, %rsi
 1527 000e 7406     		je	.L363
 563:fltk-1.3.4-1/png/pngget.c ****    if (png_ptr != NULL && info_ptr != NULL &&
 1528              		.loc 1 563 44 discriminator 1 view .LVU435
 1529 0010 F6467E02 		testb	$2, 126(%rsi)
 1530 0014 750A     		jne	.L408
 1531              	.L363:
 599:fltk-1.3.4-1/png/pngget.c **** }
 1532              		.loc 1 599 1 view .LVU436
 1533 0016 C3       		ret
 1534 0017 660F1F84 		.p2align 4,,10
 1534      00000000 
 1534      00
 1535              		.p2align 3
 1536              	.L408:
 566:fltk-1.3.4-1/png/pngget.c **** 
 1537              		.loc 1 566 7 is_stmt 1 view .LVU437
 568:fltk-1.3.4-1/png/pngget.c ****          *red_X = png_float(png_ptr, info_ptr->colorspace.end_points_XYZ.red_X,
 1538              		.loc 1 568 7 view .LVU438
 568:fltk-1.3.4-1/png/pngget.c ****          *red_X = png_float(png_ptr, info_ptr->colorspace.end_points_XYZ.red_X,
 1539              		.loc 1 568 10 is_stmt 0 view .LVU439
 1540 0020 4885D2   		testq	%rdx, %rdx
 1541 0023 7415     		je	.L365
 569:fltk-1.3.4-1/png/pngget.c ****             "cHRM red X");
 1542              		.loc 1 569 10 is_stmt 1 view .LVU440
 569:fltk-1.3.4-1/png/pngget.c ****             "cHRM red X");
 1543              		.loc 1 569 19 is_stmt 0 view .LVU441
 1544 0025 660FEFC0 		pxor	%xmm0, %xmm0
 1545 0029 F20F2A46 		cvtsi2sdl	88(%rsi), %xmm0
 1545      58
 1546 002e F20F5905 		mulsd	.LC4(%rip), %xmm0
 1546      00000000 
 569:fltk-1.3.4-1/png/pngget.c ****             "cHRM red X");
 1547              		.loc 1 569 17 view .LVU442
 1548 0036 F20F1102 		movsd	%xmm0, (%rdx)
 1549              	.L365:
 571:fltk-1.3.4-1/png/pngget.c ****          *red_Y = png_float(png_ptr, info_ptr->colorspace.end_points_XYZ.red_Y,
 1550              		.loc 1 571 7 is_stmt 1 view .LVU443
 571:fltk-1.3.4-1/png/pngget.c ****          *red_Y = png_float(png_ptr, info_ptr->colorspace.end_points_XYZ.red_Y,
 1551              		.loc 1 571 10 is_stmt 0 view .LVU444
 1552 003a 4885C9   		testq	%rcx, %rcx
 1553 003d 7415     		je	.L366
 572:fltk-1.3.4-1/png/pngget.c ****             "cHRM red Y");
 1554              		.loc 1 572 10 is_stmt 1 view .LVU445
 572:fltk-1.3.4-1/png/pngget.c ****             "cHRM red Y");
 1555              		.loc 1 572 19 is_stmt 0 view .LVU446
 1556 003f 660FEFC0 		pxor	%xmm0, %xmm0
 1557 0043 F20F2A46 		cvtsi2sdl	92(%rsi), %xmm0
 1557      5C
 1558 0048 F20F5905 		mulsd	.LC4(%rip), %xmm0
 1558      00000000 
 572:fltk-1.3.4-1/png/pngget.c ****             "cHRM red Y");
 1559              		.loc 1 572 17 view .LVU447
 1560 0050 F20F1101 		movsd	%xmm0, (%rcx)
 1561              	.L366:
 574:fltk-1.3.4-1/png/pngget.c ****          *red_Z = png_float(png_ptr, info_ptr->colorspace.end_points_XYZ.red_Z,
 1562              		.loc 1 574 7 is_stmt 1 view .LVU448
 574:fltk-1.3.4-1/png/pngget.c ****          *red_Z = png_float(png_ptr, info_ptr->colorspace.end_points_XYZ.red_Z,
 1563              		.loc 1 574 10 is_stmt 0 view .LVU449
 1564 0054 4D85C0   		testq	%r8, %r8
 1565 0057 7416     		je	.L367
 575:fltk-1.3.4-1/png/pngget.c ****             "cHRM red Z");
 1566              		.loc 1 575 10 is_stmt 1 view .LVU450
 575:fltk-1.3.4-1/png/pngget.c ****             "cHRM red Z");
 1567              		.loc 1 575 19 is_stmt 0 view .LVU451
 1568 0059 660FEFC0 		pxor	%xmm0, %xmm0
 1569 005d F20F2A46 		cvtsi2sdl	96(%rsi), %xmm0
 1569      60
 1570 0062 F20F5905 		mulsd	.LC4(%rip), %xmm0
 1570      00000000 
 575:fltk-1.3.4-1/png/pngget.c ****             "cHRM red Z");
 1571              		.loc 1 575 17 view .LVU452
 1572 006a F2410F11 		movsd	%xmm0, (%r8)
 1572      00
 1573              	.L367:
 577:fltk-1.3.4-1/png/pngget.c ****          *green_X = png_float(png_ptr,
 1574              		.loc 1 577 7 is_stmt 1 view .LVU453
 577:fltk-1.3.4-1/png/pngget.c ****          *green_X = png_float(png_ptr,
 1575              		.loc 1 577 10 is_stmt 0 view .LVU454
 1576 006f 4D85C9   		testq	%r9, %r9
 1577 0072 7416     		je	.L368
 578:fltk-1.3.4-1/png/pngget.c ****             info_ptr->colorspace.end_points_XYZ.green_X, "cHRM green X");
 1578              		.loc 1 578 10 is_stmt 1 view .LVU455
 578:fltk-1.3.4-1/png/pngget.c ****             info_ptr->colorspace.end_points_XYZ.green_X, "cHRM green X");
 1579              		.loc 1 578 21 is_stmt 0 view .LVU456
 1580 0074 660FEFC0 		pxor	%xmm0, %xmm0
 1581 0078 F20F2A46 		cvtsi2sdl	100(%rsi), %xmm0
 1581      64
 1582 007d F20F5905 		mulsd	.LC4(%rip), %xmm0
 1582      00000000 
 578:fltk-1.3.4-1/png/pngget.c ****             info_ptr->colorspace.end_points_XYZ.green_X, "cHRM green X");
 1583              		.loc 1 578 19 view .LVU457
 1584 0085 F2410F11 		movsd	%xmm0, (%r9)
 1584      01
 1585              	.L368:
 580:fltk-1.3.4-1/png/pngget.c ****          *green_Y = png_float(png_ptr,
 1586              		.loc 1 580 7 is_stmt 1 view .LVU458
 580:fltk-1.3.4-1/png/pngget.c ****          *green_Y = png_float(png_ptr,
 1587              		.loc 1 580 10 is_stmt 0 view .LVU459
 1588 008a 48837C24 		cmpq	$0, 8(%rsp)
 1588      0800
 1589 0090 741A     		je	.L369
 581:fltk-1.3.4-1/png/pngget.c ****             info_ptr->colorspace.end_points_XYZ.green_Y, "cHRM green Y");
 1590              		.loc 1 581 10 is_stmt 1 view .LVU460
 581:fltk-1.3.4-1/png/pngget.c ****             info_ptr->colorspace.end_points_XYZ.green_Y, "cHRM green Y");
 1591              		.loc 1 581 21 is_stmt 0 view .LVU461
 1592 0092 660FEFC0 		pxor	%xmm0, %xmm0
 581:fltk-1.3.4-1/png/pngget.c ****             info_ptr->colorspace.end_points_XYZ.green_Y, "cHRM green Y");
 1593              		.loc 1 581 19 view .LVU462
 1594 0096 488B4424 		movq	8(%rsp), %rax
 1594      08
 581:fltk-1.3.4-1/png/pngget.c ****             info_ptr->colorspace.end_points_XYZ.green_Y, "cHRM green Y");
 1595              		.loc 1 581 21 view .LVU463
 1596 009b F20F2A46 		cvtsi2sdl	104(%rsi), %xmm0
 1596      68
 1597 00a0 F20F5905 		mulsd	.LC4(%rip), %xmm0
 1597      00000000 
 581:fltk-1.3.4-1/png/pngget.c ****             info_ptr->colorspace.end_points_XYZ.green_Y, "cHRM green Y");
 1598              		.loc 1 581 19 view .LVU464
 1599 00a8 F20F1100 		movsd	%xmm0, (%rax)
 1600              	.L369:
 583:fltk-1.3.4-1/png/pngget.c ****          *green_Z = png_float(png_ptr,
 1601              		.loc 1 583 7 is_stmt 1 view .LVU465
 583:fltk-1.3.4-1/png/pngget.c ****          *green_Z = png_float(png_ptr,
 1602              		.loc 1 583 10 is_stmt 0 view .LVU466
 1603 00ac 48837C24 		cmpq	$0, 16(%rsp)
 1603      1000
 1604 00b2 741A     		je	.L370
 584:fltk-1.3.4-1/png/pngget.c ****             info_ptr->colorspace.end_points_XYZ.green_Z, "cHRM green Z");
 1605              		.loc 1 584 10 is_stmt 1 view .LVU467
 584:fltk-1.3.4-1/png/pngget.c ****             info_ptr->colorspace.end_points_XYZ.green_Z, "cHRM green Z");
 1606              		.loc 1 584 21 is_stmt 0 view .LVU468
 1607 00b4 660FEFC0 		pxor	%xmm0, %xmm0
 584:fltk-1.3.4-1/png/pngget.c ****             info_ptr->colorspace.end_points_XYZ.green_Z, "cHRM green Z");
 1608              		.loc 1 584 19 view .LVU469
 1609 00b8 488B4424 		movq	16(%rsp), %rax
 1609      10
 584:fltk-1.3.4-1/png/pngget.c ****             info_ptr->colorspace.end_points_XYZ.green_Z, "cHRM green Z");
 1610              		.loc 1 584 21 view .LVU470
 1611 00bd F20F2A46 		cvtsi2sdl	108(%rsi), %xmm0
 1611      6C
 1612 00c2 F20F5905 		mulsd	.LC4(%rip), %xmm0
 1612      00000000 
 584:fltk-1.3.4-1/png/pngget.c ****             info_ptr->colorspace.end_points_XYZ.green_Z, "cHRM green Z");
 1613              		.loc 1 584 19 view .LVU471
 1614 00ca F20F1100 		movsd	%xmm0, (%rax)
 1615              	.L370:
 586:fltk-1.3.4-1/png/pngget.c ****          *blue_X = png_float(png_ptr,
 1616              		.loc 1 586 7 is_stmt 1 view .LVU472
 586:fltk-1.3.4-1/png/pngget.c ****          *blue_X = png_float(png_ptr,
 1617              		.loc 1 586 10 is_stmt 0 view .LVU473
 1618 00ce 48837C24 		cmpq	$0, 24(%rsp)
 1618      1800
 1619 00d4 741A     		je	.L371
 587:fltk-1.3.4-1/png/pngget.c ****             info_ptr->colorspace.end_points_XYZ.blue_X, "cHRM blue X");
 1620              		.loc 1 587 10 is_stmt 1 view .LVU474
 587:fltk-1.3.4-1/png/pngget.c ****             info_ptr->colorspace.end_points_XYZ.blue_X, "cHRM blue X");
 1621              		.loc 1 587 20 is_stmt 0 view .LVU475
 1622 00d6 660FEFC0 		pxor	%xmm0, %xmm0
 587:fltk-1.3.4-1/png/pngget.c ****             info_ptr->colorspace.end_points_XYZ.blue_X, "cHRM blue X");
 1623              		.loc 1 587 18 view .LVU476
 1624 00da 488B4424 		movq	24(%rsp), %rax
 1624      18
 587:fltk-1.3.4-1/png/pngget.c ****             info_ptr->colorspace.end_points_XYZ.blue_X, "cHRM blue X");
 1625              		.loc 1 587 20 view .LVU477
 1626 00df F20F2A46 		cvtsi2sdl	112(%rsi), %xmm0
 1626      70
 1627 00e4 F20F5905 		mulsd	.LC4(%rip), %xmm0
 1627      00000000 
 587:fltk-1.3.4-1/png/pngget.c ****             info_ptr->colorspace.end_points_XYZ.blue_X, "cHRM blue X");
 1628              		.loc 1 587 18 view .LVU478
 1629 00ec F20F1100 		movsd	%xmm0, (%rax)
 1630              	.L371:
 589:fltk-1.3.4-1/png/pngget.c ****          *blue_Y = png_float(png_ptr,
 1631              		.loc 1 589 7 is_stmt 1 view .LVU479
 589:fltk-1.3.4-1/png/pngget.c ****          *blue_Y = png_float(png_ptr,
 1632              		.loc 1 589 10 is_stmt 0 view .LVU480
 1633 00f0 48837C24 		cmpq	$0, 32(%rsp)
 1633      2000
 1634 00f6 741A     		je	.L372
 590:fltk-1.3.4-1/png/pngget.c ****             info_ptr->colorspace.end_points_XYZ.blue_Y, "cHRM blue Y");
 1635              		.loc 1 590 10 is_stmt 1 view .LVU481
 590:fltk-1.3.4-1/png/pngget.c ****             info_ptr->colorspace.end_points_XYZ.blue_Y, "cHRM blue Y");
 1636              		.loc 1 590 20 is_stmt 0 view .LVU482
 1637 00f8 660FEFC0 		pxor	%xmm0, %xmm0
 590:fltk-1.3.4-1/png/pngget.c ****             info_ptr->colorspace.end_points_XYZ.blue_Y, "cHRM blue Y");
 1638              		.loc 1 590 18 view .LVU483
 1639 00fc 488B4424 		movq	32(%rsp), %rax
 1639      20
 590:fltk-1.3.4-1/png/pngget.c ****             info_ptr->colorspace.end_points_XYZ.blue_Y, "cHRM blue Y");
 1640              		.loc 1 590 20 view .LVU484
 1641 0101 F20F2A46 		cvtsi2sdl	116(%rsi), %xmm0
 1641      74
 1642 0106 F20F5905 		mulsd	.LC4(%rip), %xmm0
 1642      00000000 
 590:fltk-1.3.4-1/png/pngget.c ****             info_ptr->colorspace.end_points_XYZ.blue_Y, "cHRM blue Y");
 1643              		.loc 1 590 18 view .LVU485
 1644 010e F20F1100 		movsd	%xmm0, (%rax)
 1645              	.L372:
 592:fltk-1.3.4-1/png/pngget.c ****          *blue_Z = png_float(png_ptr,
 1646              		.loc 1 592 7 is_stmt 1 view .LVU486
 592:fltk-1.3.4-1/png/pngget.c ****          *blue_Z = png_float(png_ptr,
 1647              		.loc 1 592 10 is_stmt 0 view .LVU487
 1648 0112 48837C24 		cmpq	$0, 40(%rsp)
 1648      2800
 595:fltk-1.3.4-1/png/pngget.c ****    }
 1649              		.loc 1 595 14 view .LVU488
 1650 0118 B8040000 		movl	$4, %eax
 1650      00
 592:fltk-1.3.4-1/png/pngget.c ****          *blue_Z = png_float(png_ptr,
 1651              		.loc 1 592 10 view .LVU489
 1652 011d 0F84F3FE 		je	.L363
 1652      FFFF
 593:fltk-1.3.4-1/png/pngget.c ****             info_ptr->colorspace.end_points_XYZ.blue_Z, "cHRM blue Z");
 1653              		.loc 1 593 10 is_stmt 1 view .LVU490
 593:fltk-1.3.4-1/png/pngget.c ****             info_ptr->colorspace.end_points_XYZ.blue_Z, "cHRM blue Z");
 1654              		.loc 1 593 20 is_stmt 0 view .LVU491
 1655 0123 660FEFC0 		pxor	%xmm0, %xmm0
 593:fltk-1.3.4-1/png/pngget.c ****             info_ptr->colorspace.end_points_XYZ.blue_Z, "cHRM blue Z");
 1656              		.loc 1 593 18 view .LVU492
 1657 0127 488B7C24 		movq	40(%rsp), %rdi
 1657      28
 1658              	.LVL86:
 593:fltk-1.3.4-1/png/pngget.c ****             info_ptr->colorspace.end_points_XYZ.blue_Z, "cHRM blue Z");
 1659              		.loc 1 593 20 view .LVU493
 1660 012c F20F2A46 		cvtsi2sdl	120(%rsi), %xmm0
 1660      78
 1661 0131 F20F5905 		mulsd	.LC4(%rip), %xmm0
 1661      00000000 
 593:fltk-1.3.4-1/png/pngget.c ****             info_ptr->colorspace.end_points_XYZ.blue_Z, "cHRM blue Z");
 1662              		.loc 1 593 18 view .LVU494
 1663 0139 F20F1107 		movsd	%xmm0, (%rdi)
 1664 013d C3       		ret
 1665              		.cfi_endproc
 1666              	.LFE74:
 1668              		.section	.text.png_get_cHRM_XYZ_fixed,"ax",@progbits
 1669              		.p2align 4
 1670              		.globl	png_get_cHRM_XYZ_fixed
 1672              	png_get_cHRM_XYZ_fixed:
 1673              	.LVL87:
 1674              	.LFB75:
 600:fltk-1.3.4-1/png/pngget.c **** #  endif
 601:fltk-1.3.4-1/png/pngget.c **** 
 602:fltk-1.3.4-1/png/pngget.c **** #  ifdef PNG_FIXED_POINT_SUPPORTED
 603:fltk-1.3.4-1/png/pngget.c **** png_uint_32 PNGAPI
 604:fltk-1.3.4-1/png/pngget.c **** png_get_cHRM_XYZ_fixed(png_const_structrp png_ptr, png_const_inforp info_ptr,
 605:fltk-1.3.4-1/png/pngget.c ****     png_fixed_point *int_red_X, png_fixed_point *int_red_Y,
 606:fltk-1.3.4-1/png/pngget.c ****     png_fixed_point *int_red_Z, png_fixed_point *int_green_X,
 607:fltk-1.3.4-1/png/pngget.c ****     png_fixed_point *int_green_Y, png_fixed_point *int_green_Z,
 608:fltk-1.3.4-1/png/pngget.c ****     png_fixed_point *int_blue_X, png_fixed_point *int_blue_Y,
 609:fltk-1.3.4-1/png/pngget.c ****     png_fixed_point *int_blue_Z)
 610:fltk-1.3.4-1/png/pngget.c **** {
 1675              		.loc 1 610 1 is_stmt 1 view -0
 1676              		.cfi_startproc
 1677              		.loc 1 610 1 is_stmt 0 view .LVU496
 1678 0000 F30F1EFA 		endbr64
 611:fltk-1.3.4-1/png/pngget.c ****    if (png_ptr != NULL && info_ptr != NULL &&
 1679              		.loc 1 611 4 is_stmt 1 view .LVU497
 612:fltk-1.3.4-1/png/pngget.c ****       (info_ptr->colorspace.flags & PNG_COLORSPACE_HAVE_ENDPOINTS) != 0)
 613:fltk-1.3.4-1/png/pngget.c ****    {
 614:fltk-1.3.4-1/png/pngget.c ****       png_debug1(1, "in %s retrieval function", "cHRM_XYZ");
 615:fltk-1.3.4-1/png/pngget.c **** 
 616:fltk-1.3.4-1/png/pngget.c ****       if (int_red_X != NULL)
 617:fltk-1.3.4-1/png/pngget.c ****          *int_red_X = info_ptr->colorspace.end_points_XYZ.red_X;
 618:fltk-1.3.4-1/png/pngget.c ****       if (int_red_Y != NULL)
 619:fltk-1.3.4-1/png/pngget.c ****          *int_red_Y = info_ptr->colorspace.end_points_XYZ.red_Y;
 620:fltk-1.3.4-1/png/pngget.c ****       if (int_red_Z != NULL)
 621:fltk-1.3.4-1/png/pngget.c ****          *int_red_Z = info_ptr->colorspace.end_points_XYZ.red_Z;
 622:fltk-1.3.4-1/png/pngget.c ****       if (int_green_X != NULL)
 623:fltk-1.3.4-1/png/pngget.c ****          *int_green_X = info_ptr->colorspace.end_points_XYZ.green_X;
 624:fltk-1.3.4-1/png/pngget.c ****       if (int_green_Y != NULL)
 625:fltk-1.3.4-1/png/pngget.c ****          *int_green_Y = info_ptr->colorspace.end_points_XYZ.green_Y;
 626:fltk-1.3.4-1/png/pngget.c ****       if (int_green_Z != NULL)
 627:fltk-1.3.4-1/png/pngget.c ****          *int_green_Z = info_ptr->colorspace.end_points_XYZ.green_Z;
 628:fltk-1.3.4-1/png/pngget.c ****       if (int_blue_X != NULL)
 629:fltk-1.3.4-1/png/pngget.c ****          *int_blue_X = info_ptr->colorspace.end_points_XYZ.blue_X;
 630:fltk-1.3.4-1/png/pngget.c ****       if (int_blue_Y != NULL)
 631:fltk-1.3.4-1/png/pngget.c ****          *int_blue_Y = info_ptr->colorspace.end_points_XYZ.blue_Y;
 632:fltk-1.3.4-1/png/pngget.c ****       if (int_blue_Z != NULL)
 633:fltk-1.3.4-1/png/pngget.c ****          *int_blue_Z = info_ptr->colorspace.end_points_XYZ.blue_Z;
 634:fltk-1.3.4-1/png/pngget.c ****       return (PNG_INFO_cHRM);
 635:fltk-1.3.4-1/png/pngget.c ****    }
 636:fltk-1.3.4-1/png/pngget.c **** 
 637:fltk-1.3.4-1/png/pngget.c ****    return (0);
 1680              		.loc 1 637 11 is_stmt 0 view .LVU498
 1681 0004 31C0     		xorl	%eax, %eax
 611:fltk-1.3.4-1/png/pngget.c ****    if (png_ptr != NULL && info_ptr != NULL &&
 1682              		.loc 1 611 7 view .LVU499
 1683 0006 4885FF   		testq	%rdi, %rdi
 1684 0009 740B     		je	.L409
 1685 000b 4885F6   		testq	%rsi, %rsi
 1686 000e 7406     		je	.L409
 611:fltk-1.3.4-1/png/pngget.c ****    if (png_ptr != NULL && info_ptr != NULL &&
 1687              		.loc 1 611 44 discriminator 1 view .LVU500
 1688 0010 F6467E02 		testb	$2, 126(%rsi)
 1689 0014 750A     		jne	.L454
 1690              	.LVL88:
 1691              	.L409:
 638:fltk-1.3.4-1/png/pngget.c **** }
 1692              		.loc 1 638 1 view .LVU501
 1693 0016 C3       		ret
 1694              	.LVL89:
 1695 0017 660F1F84 		.p2align 4,,10
 1695      00000000 
 1695      00
 1696              		.p2align 3
 1697              	.L454:
 614:fltk-1.3.4-1/png/pngget.c **** 
 1698              		.loc 1 614 7 is_stmt 1 view .LVU502
 616:fltk-1.3.4-1/png/pngget.c ****          *int_red_X = info_ptr->colorspace.end_points_XYZ.red_X;
 1699              		.loc 1 616 7 view .LVU503
 616:fltk-1.3.4-1/png/pngget.c ****          *int_red_X = info_ptr->colorspace.end_points_XYZ.red_X;
 1700              		.loc 1 616 10 is_stmt 0 view .LVU504
 1701 0020 4885D2   		testq	%rdx, %rdx
 1702 0023 7405     		je	.L411
 617:fltk-1.3.4-1/png/pngget.c ****       if (int_red_Y != NULL)
 1703              		.loc 1 617 10 is_stmt 1 view .LVU505
 617:fltk-1.3.4-1/png/pngget.c ****       if (int_red_Y != NULL)
 1704              		.loc 1 617 21 is_stmt 0 view .LVU506
 1705 0025 8B4658   		movl	88(%rsi), %eax
 1706 0028 8902     		movl	%eax, (%rdx)
 1707              	.L411:
 618:fltk-1.3.4-1/png/pngget.c ****          *int_red_Y = info_ptr->colorspace.end_points_XYZ.red_Y;
 1708              		.loc 1 618 7 is_stmt 1 view .LVU507
 618:fltk-1.3.4-1/png/pngget.c ****          *int_red_Y = info_ptr->colorspace.end_points_XYZ.red_Y;
 1709              		.loc 1 618 10 is_stmt 0 view .LVU508
 1710 002a 4885C9   		testq	%rcx, %rcx
 1711 002d 7405     		je	.L412
 619:fltk-1.3.4-1/png/pngget.c ****       if (int_red_Z != NULL)
 1712              		.loc 1 619 10 is_stmt 1 view .LVU509
 619:fltk-1.3.4-1/png/pngget.c ****       if (int_red_Z != NULL)
 1713              		.loc 1 619 21 is_stmt 0 view .LVU510
 1714 002f 8B465C   		movl	92(%rsi), %eax
 1715 0032 8901     		movl	%eax, (%rcx)
 1716              	.L412:
 620:fltk-1.3.4-1/png/pngget.c ****          *int_red_Z = info_ptr->colorspace.end_points_XYZ.red_Z;
 1717              		.loc 1 620 7 is_stmt 1 view .LVU511
 620:fltk-1.3.4-1/png/pngget.c ****          *int_red_Z = info_ptr->colorspace.end_points_XYZ.red_Z;
 1718              		.loc 1 620 10 is_stmt 0 view .LVU512
 1719 0034 4D85C0   		testq	%r8, %r8
 1720 0037 7406     		je	.L413
 621:fltk-1.3.4-1/png/pngget.c ****       if (int_green_X != NULL)
 1721              		.loc 1 621 10 is_stmt 1 view .LVU513
 621:fltk-1.3.4-1/png/pngget.c ****       if (int_green_X != NULL)
 1722              		.loc 1 621 21 is_stmt 0 view .LVU514
 1723 0039 8B4660   		movl	96(%rsi), %eax
 1724 003c 418900   		movl	%eax, (%r8)
 1725              	.L413:
 622:fltk-1.3.4-1/png/pngget.c ****          *int_green_X = info_ptr->colorspace.end_points_XYZ.green_X;
 1726              		.loc 1 622 7 is_stmt 1 view .LVU515
 622:fltk-1.3.4-1/png/pngget.c ****          *int_green_X = info_ptr->colorspace.end_points_XYZ.green_X;
 1727              		.loc 1 622 10 is_stmt 0 view .LVU516
 1728 003f 4D85C9   		testq	%r9, %r9
 1729 0042 7406     		je	.L414
 623:fltk-1.3.4-1/png/pngget.c ****       if (int_green_Y != NULL)
 1730              		.loc 1 623 10 is_stmt 1 view .LVU517
 623:fltk-1.3.4-1/png/pngget.c ****       if (int_green_Y != NULL)
 1731              		.loc 1 623 23 is_stmt 0 view .LVU518
 1732 0044 8B4664   		movl	100(%rsi), %eax
 1733 0047 418901   		movl	%eax, (%r9)
 1734              	.L414:
 624:fltk-1.3.4-1/png/pngget.c ****          *int_green_Y = info_ptr->colorspace.end_points_XYZ.green_Y;
 1735              		.loc 1 624 7 is_stmt 1 view .LVU519
 624:fltk-1.3.4-1/png/pngget.c ****          *int_green_Y = info_ptr->colorspace.end_points_XYZ.green_Y;
 1736              		.loc 1 624 10 is_stmt 0 view .LVU520
 1737 004a 48837C24 		cmpq	$0, 8(%rsp)
 1737      0800
 1738 0050 740A     		je	.L415
 625:fltk-1.3.4-1/png/pngget.c ****       if (int_green_Z != NULL)
 1739              		.loc 1 625 10 is_stmt 1 view .LVU521
 625:fltk-1.3.4-1/png/pngget.c ****       if (int_green_Z != NULL)
 1740              		.loc 1 625 23 is_stmt 0 view .LVU522
 1741 0052 8B4668   		movl	104(%rsi), %eax
 1742 0055 488B7C24 		movq	8(%rsp), %rdi
 1742      08
 1743              	.LVL90:
 625:fltk-1.3.4-1/png/pngget.c ****       if (int_green_Z != NULL)
 1744              		.loc 1 625 23 view .LVU523
 1745 005a 8907     		movl	%eax, (%rdi)
 1746              	.L415:
 626:fltk-1.3.4-1/png/pngget.c ****          *int_green_Z = info_ptr->colorspace.end_points_XYZ.green_Z;
 1747              		.loc 1 626 7 is_stmt 1 view .LVU524
 626:fltk-1.3.4-1/png/pngget.c ****          *int_green_Z = info_ptr->colorspace.end_points_XYZ.green_Z;
 1748              		.loc 1 626 10 is_stmt 0 view .LVU525
 1749 005c 48837C24 		cmpq	$0, 16(%rsp)
 1749      1000
 1750 0062 740A     		je	.L416
 627:fltk-1.3.4-1/png/pngget.c ****       if (int_blue_X != NULL)
 1751              		.loc 1 627 10 is_stmt 1 view .LVU526
 627:fltk-1.3.4-1/png/pngget.c ****       if (int_blue_X != NULL)
 1752              		.loc 1 627 23 is_stmt 0 view .LVU527
 1753 0064 8B466C   		movl	108(%rsi), %eax
 1754 0067 488B7C24 		movq	16(%rsp), %rdi
 1754      10
 1755 006c 8907     		movl	%eax, (%rdi)
 1756              	.L416:
 628:fltk-1.3.4-1/png/pngget.c ****          *int_blue_X = info_ptr->colorspace.end_points_XYZ.blue_X;
 1757              		.loc 1 628 7 is_stmt 1 view .LVU528
 628:fltk-1.3.4-1/png/pngget.c ****          *int_blue_X = info_ptr->colorspace.end_points_XYZ.blue_X;
 1758              		.loc 1 628 10 is_stmt 0 view .LVU529
 1759 006e 48837C24 		cmpq	$0, 24(%rsp)
 1759      1800
 1760 0074 740A     		je	.L417
 629:fltk-1.3.4-1/png/pngget.c ****       if (int_blue_Y != NULL)
 1761              		.loc 1 629 10 is_stmt 1 view .LVU530
 629:fltk-1.3.4-1/png/pngget.c ****       if (int_blue_Y != NULL)
 1762              		.loc 1 629 22 is_stmt 0 view .LVU531
 1763 0076 8B4670   		movl	112(%rsi), %eax
 1764 0079 488B7C24 		movq	24(%rsp), %rdi
 1764      18
 1765 007e 8907     		movl	%eax, (%rdi)
 1766              	.L417:
 630:fltk-1.3.4-1/png/pngget.c ****          *int_blue_Y = info_ptr->colorspace.end_points_XYZ.blue_Y;
 1767              		.loc 1 630 7 is_stmt 1 view .LVU532
 630:fltk-1.3.4-1/png/pngget.c ****          *int_blue_Y = info_ptr->colorspace.end_points_XYZ.blue_Y;
 1768              		.loc 1 630 10 is_stmt 0 view .LVU533
 1769 0080 48837C24 		cmpq	$0, 32(%rsp)
 1769      2000
 1770 0086 740A     		je	.L418
 631:fltk-1.3.4-1/png/pngget.c ****       if (int_blue_Z != NULL)
 1771              		.loc 1 631 10 is_stmt 1 view .LVU534
 631:fltk-1.3.4-1/png/pngget.c ****       if (int_blue_Z != NULL)
 1772              		.loc 1 631 22 is_stmt 0 view .LVU535
 1773 0088 8B4674   		movl	116(%rsi), %eax
 1774 008b 488B7C24 		movq	32(%rsp), %rdi
 1774      20
 1775 0090 8907     		movl	%eax, (%rdi)
 1776              	.L418:
 632:fltk-1.3.4-1/png/pngget.c ****          *int_blue_Z = info_ptr->colorspace.end_points_XYZ.blue_Z;
 1777              		.loc 1 632 7 is_stmt 1 view .LVU536
 632:fltk-1.3.4-1/png/pngget.c ****          *int_blue_Z = info_ptr->colorspace.end_points_XYZ.blue_Z;
 1778              		.loc 1 632 10 is_stmt 0 view .LVU537
 1779 0092 48837C24 		cmpq	$0, 40(%rsp)
 1779      2800
 634:fltk-1.3.4-1/png/pngget.c ****    }
 1780              		.loc 1 634 14 view .LVU538
 1781 0098 B8040000 		movl	$4, %eax
 1781      00
 632:fltk-1.3.4-1/png/pngget.c ****          *int_blue_Z = info_ptr->colorspace.end_points_XYZ.blue_Z;
 1782              		.loc 1 632 10 view .LVU539
 1783 009d 0F8473FF 		je	.L409
 1783      FFFF
 633:fltk-1.3.4-1/png/pngget.c ****       return (PNG_INFO_cHRM);
 1784              		.loc 1 633 10 is_stmt 1 view .LVU540
 633:fltk-1.3.4-1/png/pngget.c ****       return (PNG_INFO_cHRM);
 1785              		.loc 1 633 22 is_stmt 0 view .LVU541
 1786 00a3 8B5678   		movl	120(%rsi), %edx
 1787              	.LVL91:
 633:fltk-1.3.4-1/png/pngget.c ****       return (PNG_INFO_cHRM);
 1788              		.loc 1 633 22 view .LVU542
 1789 00a6 488B7C24 		movq	40(%rsp), %rdi
 1789      28
 1790 00ab 8917     		movl	%edx, (%rdi)
 1791 00ad C3       		ret
 1792              		.cfi_endproc
 1793              	.LFE75:
 1795              		.section	.text.png_get_cHRM_fixed,"ax",@progbits
 1796              		.p2align 4
 1797              		.globl	png_get_cHRM_fixed
 1799              	png_get_cHRM_fixed:
 1800              	.LVL92:
 1801              	.LFB76:
 639:fltk-1.3.4-1/png/pngget.c **** 
 640:fltk-1.3.4-1/png/pngget.c **** png_uint_32 PNGAPI
 641:fltk-1.3.4-1/png/pngget.c **** png_get_cHRM_fixed(png_const_structrp png_ptr, png_const_inforp info_ptr,
 642:fltk-1.3.4-1/png/pngget.c ****     png_fixed_point *white_x, png_fixed_point *white_y, png_fixed_point *red_x,
 643:fltk-1.3.4-1/png/pngget.c ****     png_fixed_point *red_y, png_fixed_point *green_x, png_fixed_point *green_y,
 644:fltk-1.3.4-1/png/pngget.c ****     png_fixed_point *blue_x, png_fixed_point *blue_y)
 645:fltk-1.3.4-1/png/pngget.c **** {
 1802              		.loc 1 645 1 is_stmt 1 view -0
 1803              		.cfi_startproc
 1804              		.loc 1 645 1 is_stmt 0 view .LVU544
 1805 0000 F30F1EFA 		endbr64
 646:fltk-1.3.4-1/png/pngget.c ****    png_debug1(1, "in %s retrieval function", "cHRM");
 1806              		.loc 1 646 4 is_stmt 1 view .LVU545
 647:fltk-1.3.4-1/png/pngget.c **** 
 648:fltk-1.3.4-1/png/pngget.c ****    if (png_ptr != NULL && info_ptr != NULL &&
 1807              		.loc 1 648 4 view .LVU546
 649:fltk-1.3.4-1/png/pngget.c ****       (info_ptr->colorspace.flags & PNG_COLORSPACE_HAVE_ENDPOINTS) != 0)
 650:fltk-1.3.4-1/png/pngget.c ****    {
 651:fltk-1.3.4-1/png/pngget.c ****       if (white_x != NULL)
 652:fltk-1.3.4-1/png/pngget.c ****          *white_x = info_ptr->colorspace.end_points_xy.whitex;
 653:fltk-1.3.4-1/png/pngget.c ****       if (white_y != NULL)
 654:fltk-1.3.4-1/png/pngget.c ****          *white_y = info_ptr->colorspace.end_points_xy.whitey;
 655:fltk-1.3.4-1/png/pngget.c ****       if (red_x != NULL)
 656:fltk-1.3.4-1/png/pngget.c ****          *red_x = info_ptr->colorspace.end_points_xy.redx;
 657:fltk-1.3.4-1/png/pngget.c ****       if (red_y != NULL)
 658:fltk-1.3.4-1/png/pngget.c ****          *red_y = info_ptr->colorspace.end_points_xy.redy;
 659:fltk-1.3.4-1/png/pngget.c ****       if (green_x != NULL)
 660:fltk-1.3.4-1/png/pngget.c ****          *green_x = info_ptr->colorspace.end_points_xy.greenx;
 661:fltk-1.3.4-1/png/pngget.c ****       if (green_y != NULL)
 662:fltk-1.3.4-1/png/pngget.c ****          *green_y = info_ptr->colorspace.end_points_xy.greeny;
 663:fltk-1.3.4-1/png/pngget.c ****       if (blue_x != NULL)
 664:fltk-1.3.4-1/png/pngget.c ****          *blue_x = info_ptr->colorspace.end_points_xy.bluex;
 665:fltk-1.3.4-1/png/pngget.c ****       if (blue_y != NULL)
 666:fltk-1.3.4-1/png/pngget.c ****          *blue_y = info_ptr->colorspace.end_points_xy.bluey;
 667:fltk-1.3.4-1/png/pngget.c ****       return (PNG_INFO_cHRM);
 668:fltk-1.3.4-1/png/pngget.c ****    }
 669:fltk-1.3.4-1/png/pngget.c **** 
 670:fltk-1.3.4-1/png/pngget.c ****    return (0);
 1808              		.loc 1 670 11 is_stmt 0 view .LVU547
 1809 0004 31C0     		xorl	%eax, %eax
 648:fltk-1.3.4-1/png/pngget.c ****       (info_ptr->colorspace.flags & PNG_COLORSPACE_HAVE_ENDPOINTS) != 0)
 1810              		.loc 1 648 7 view .LVU548
 1811 0006 4885FF   		testq	%rdi, %rdi
 1812 0009 740B     		je	.L455
 1813 000b 4885F6   		testq	%rsi, %rsi
 1814 000e 7406     		je	.L455
 648:fltk-1.3.4-1/png/pngget.c ****       (info_ptr->colorspace.flags & PNG_COLORSPACE_HAVE_ENDPOINTS) != 0)
 1815              		.loc 1 648 44 discriminator 1 view .LVU549
 1816 0010 F6467E02 		testb	$2, 126(%rsi)
 1817 0014 750A     		jne	.L496
 1818              	.LVL93:
 1819              	.L455:
 671:fltk-1.3.4-1/png/pngget.c **** }
 1820              		.loc 1 671 1 view .LVU550
 1821 0016 C3       		ret
 1822              	.LVL94:
 1823 0017 660F1F84 		.p2align 4,,10
 1823      00000000 
 1823      00
 1824              		.p2align 3
 1825              	.L496:
 651:fltk-1.3.4-1/png/pngget.c ****          *white_x = info_ptr->colorspace.end_points_xy.whitex;
 1826              		.loc 1 651 7 is_stmt 1 view .LVU551
 651:fltk-1.3.4-1/png/pngget.c ****          *white_x = info_ptr->colorspace.end_points_xy.whitex;
 1827              		.loc 1 651 10 is_stmt 0 view .LVU552
 1828 0020 4885D2   		testq	%rdx, %rdx
 1829 0023 7405     		je	.L457
 652:fltk-1.3.4-1/png/pngget.c ****       if (white_y != NULL)
 1830              		.loc 1 652 10 is_stmt 1 view .LVU553
 652:fltk-1.3.4-1/png/pngget.c ****       if (white_y != NULL)
 1831              		.loc 1 652 19 is_stmt 0 view .LVU554
 1832 0025 8B4650   		movl	80(%rsi), %eax
 1833 0028 8902     		movl	%eax, (%rdx)
 1834              	.L457:
 653:fltk-1.3.4-1/png/pngget.c ****          *white_y = info_ptr->colorspace.end_points_xy.whitey;
 1835              		.loc 1 653 7 is_stmt 1 view .LVU555
 653:fltk-1.3.4-1/png/pngget.c ****          *white_y = info_ptr->colorspace.end_points_xy.whitey;
 1836              		.loc 1 653 10 is_stmt 0 view .LVU556
 1837 002a 4885C9   		testq	%rcx, %rcx
 1838 002d 7405     		je	.L458
 654:fltk-1.3.4-1/png/pngget.c ****       if (red_x != NULL)
 1839              		.loc 1 654 10 is_stmt 1 view .LVU557
 654:fltk-1.3.4-1/png/pngget.c ****       if (red_x != NULL)
 1840              		.loc 1 654 19 is_stmt 0 view .LVU558
 1841 002f 8B4654   		movl	84(%rsi), %eax
 1842 0032 8901     		movl	%eax, (%rcx)
 1843              	.L458:
 655:fltk-1.3.4-1/png/pngget.c ****          *red_x = info_ptr->colorspace.end_points_xy.redx;
 1844              		.loc 1 655 7 is_stmt 1 view .LVU559
 655:fltk-1.3.4-1/png/pngget.c ****          *red_x = info_ptr->colorspace.end_points_xy.redx;
 1845              		.loc 1 655 10 is_stmt 0 view .LVU560
 1846 0034 4D85C0   		testq	%r8, %r8
 1847 0037 7406     		je	.L459
 656:fltk-1.3.4-1/png/pngget.c ****       if (red_y != NULL)
 1848              		.loc 1 656 10 is_stmt 1 view .LVU561
 656:fltk-1.3.4-1/png/pngget.c ****       if (red_y != NULL)
 1849              		.loc 1 656 17 is_stmt 0 view .LVU562
 1850 0039 8B4638   		movl	56(%rsi), %eax
 1851 003c 418900   		movl	%eax, (%r8)
 1852              	.L459:
 657:fltk-1.3.4-1/png/pngget.c ****          *red_y = info_ptr->colorspace.end_points_xy.redy;
 1853              		.loc 1 657 7 is_stmt 1 view .LVU563
 657:fltk-1.3.4-1/png/pngget.c ****          *red_y = info_ptr->colorspace.end_points_xy.redy;
 1854              		.loc 1 657 10 is_stmt 0 view .LVU564
 1855 003f 4D85C9   		testq	%r9, %r9
 1856 0042 7406     		je	.L460
 658:fltk-1.3.4-1/png/pngget.c ****       if (green_x != NULL)
 1857              		.loc 1 658 10 is_stmt 1 view .LVU565
 658:fltk-1.3.4-1/png/pngget.c ****       if (green_x != NULL)
 1858              		.loc 1 658 17 is_stmt 0 view .LVU566
 1859 0044 8B463C   		movl	60(%rsi), %eax
 1860 0047 418901   		movl	%eax, (%r9)
 1861              	.L460:
 659:fltk-1.3.4-1/png/pngget.c ****          *green_x = info_ptr->colorspace.end_points_xy.greenx;
 1862              		.loc 1 659 7 is_stmt 1 view .LVU567
 659:fltk-1.3.4-1/png/pngget.c ****          *green_x = info_ptr->colorspace.end_points_xy.greenx;
 1863              		.loc 1 659 10 is_stmt 0 view .LVU568
 1864 004a 48837C24 		cmpq	$0, 8(%rsp)
 1864      0800
 1865 0050 740A     		je	.L461
 660:fltk-1.3.4-1/png/pngget.c ****       if (green_y != NULL)
 1866              		.loc 1 660 10 is_stmt 1 view .LVU569
 660:fltk-1.3.4-1/png/pngget.c ****       if (green_y != NULL)
 1867              		.loc 1 660 19 is_stmt 0 view .LVU570
 1868 0052 8B4640   		movl	64(%rsi), %eax
 1869 0055 488B7C24 		movq	8(%rsp), %rdi
 1869      08
 1870              	.LVL95:
 660:fltk-1.3.4-1/png/pngget.c ****       if (green_y != NULL)
 1871              		.loc 1 660 19 view .LVU571
 1872 005a 8907     		movl	%eax, (%rdi)
 1873              	.L461:
 661:fltk-1.3.4-1/png/pngget.c ****          *green_y = info_ptr->colorspace.end_points_xy.greeny;
 1874              		.loc 1 661 7 is_stmt 1 view .LVU572
 661:fltk-1.3.4-1/png/pngget.c ****          *green_y = info_ptr->colorspace.end_points_xy.greeny;
 1875              		.loc 1 661 10 is_stmt 0 view .LVU573
 1876 005c 48837C24 		cmpq	$0, 16(%rsp)
 1876      1000
 1877 0062 740A     		je	.L462
 662:fltk-1.3.4-1/png/pngget.c ****       if (blue_x != NULL)
 1878              		.loc 1 662 10 is_stmt 1 view .LVU574
 662:fltk-1.3.4-1/png/pngget.c ****       if (blue_x != NULL)
 1879              		.loc 1 662 19 is_stmt 0 view .LVU575
 1880 0064 8B4644   		movl	68(%rsi), %eax
 1881 0067 488B7C24 		movq	16(%rsp), %rdi
 1881      10
 1882 006c 8907     		movl	%eax, (%rdi)
 1883              	.L462:
 663:fltk-1.3.4-1/png/pngget.c ****          *blue_x = info_ptr->colorspace.end_points_xy.bluex;
 1884              		.loc 1 663 7 is_stmt 1 view .LVU576
 663:fltk-1.3.4-1/png/pngget.c ****          *blue_x = info_ptr->colorspace.end_points_xy.bluex;
 1885              		.loc 1 663 10 is_stmt 0 view .LVU577
 1886 006e 48837C24 		cmpq	$0, 24(%rsp)
 1886      1800
 1887 0074 740A     		je	.L463
 664:fltk-1.3.4-1/png/pngget.c ****       if (blue_y != NULL)
 1888              		.loc 1 664 10 is_stmt 1 view .LVU578
 664:fltk-1.3.4-1/png/pngget.c ****       if (blue_y != NULL)
 1889              		.loc 1 664 18 is_stmt 0 view .LVU579
 1890 0076 8B4648   		movl	72(%rsi), %eax
 1891 0079 488B7C24 		movq	24(%rsp), %rdi
 1891      18
 1892 007e 8907     		movl	%eax, (%rdi)
 1893              	.L463:
 665:fltk-1.3.4-1/png/pngget.c ****          *blue_y = info_ptr->colorspace.end_points_xy.bluey;
 1894              		.loc 1 665 7 is_stmt 1 view .LVU580
 665:fltk-1.3.4-1/png/pngget.c ****          *blue_y = info_ptr->colorspace.end_points_xy.bluey;
 1895              		.loc 1 665 10 is_stmt 0 view .LVU581
 1896 0080 48837C24 		cmpq	$0, 32(%rsp)
 1896      2000
 667:fltk-1.3.4-1/png/pngget.c ****    }
 1897              		.loc 1 667 14 view .LVU582
 1898 0086 B8040000 		movl	$4, %eax
 1898      00
 665:fltk-1.3.4-1/png/pngget.c ****          *blue_y = info_ptr->colorspace.end_points_xy.bluey;
 1899              		.loc 1 665 10 view .LVU583
 1900 008b 7489     		je	.L455
 666:fltk-1.3.4-1/png/pngget.c ****       return (PNG_INFO_cHRM);
 1901              		.loc 1 666 10 is_stmt 1 view .LVU584
 666:fltk-1.3.4-1/png/pngget.c ****       return (PNG_INFO_cHRM);
 1902              		.loc 1 666 18 is_stmt 0 view .LVU585
 1903 008d 8B564C   		movl	76(%rsi), %edx
 1904              	.LVL96:
 666:fltk-1.3.4-1/png/pngget.c ****       return (PNG_INFO_cHRM);
 1905              		.loc 1 666 18 view .LVU586
 1906 0090 488B7C24 		movq	32(%rsp), %rdi
 1906      20
 1907 0095 8917     		movl	%edx, (%rdi)
 1908 0097 C3       		ret
 1909              		.cfi_endproc
 1910              	.LFE76:
 1912              		.section	.text.png_get_gAMA_fixed,"ax",@progbits
 1913              		.p2align 4
 1914              		.globl	png_get_gAMA_fixed
 1916              	png_get_gAMA_fixed:
 1917              	.LVL97:
 1918              	.LFB77:
 672:fltk-1.3.4-1/png/pngget.c **** #  endif
 673:fltk-1.3.4-1/png/pngget.c **** #endif
 674:fltk-1.3.4-1/png/pngget.c **** 
 675:fltk-1.3.4-1/png/pngget.c **** #ifdef PNG_gAMA_SUPPORTED
 676:fltk-1.3.4-1/png/pngget.c **** #  ifdef PNG_FIXED_POINT_SUPPORTED
 677:fltk-1.3.4-1/png/pngget.c **** png_uint_32 PNGAPI
 678:fltk-1.3.4-1/png/pngget.c **** png_get_gAMA_fixed(png_const_structrp png_ptr, png_const_inforp info_ptr,
 679:fltk-1.3.4-1/png/pngget.c ****     png_fixed_point *file_gamma)
 680:fltk-1.3.4-1/png/pngget.c **** {
 1919              		.loc 1 680 1 is_stmt 1 view -0
 1920              		.cfi_startproc
 1921              		.loc 1 680 1 is_stmt 0 view .LVU588
 1922 0000 F30F1EFA 		endbr64
 681:fltk-1.3.4-1/png/pngget.c ****    png_debug1(1, "in %s retrieval function", "gAMA");
 1923              		.loc 1 681 4 is_stmt 1 view .LVU589
 682:fltk-1.3.4-1/png/pngget.c **** 
 683:fltk-1.3.4-1/png/pngget.c ****    if (png_ptr != NULL && info_ptr != NULL &&
 1924              		.loc 1 683 4 view .LVU590
 1925              		.loc 1 683 7 is_stmt 0 view .LVU591
 1926 0004 4885FF   		testq	%rdi, %rdi
 1927 0007 7410     		je	.L500
 1928 0009 4885F6   		testq	%rsi, %rsi
 1929 000c 740B     		je	.L500
 684:fltk-1.3.4-1/png/pngget.c ****       (info_ptr->colorspace.flags & PNG_COLORSPACE_HAVE_GAMMA) != 0 &&
 1930              		.loc 1 684 69 discriminator 1 view .LVU592
 1931 000e F6467E01 		testb	$1, 126(%rsi)
 1932 0012 7405     		je	.L500
 1933 0014 4885D2   		testq	%rdx, %rdx
 1934 0017 7507     		jne	.L513
 1935              	.L500:
 685:fltk-1.3.4-1/png/pngget.c ****       file_gamma != NULL)
 686:fltk-1.3.4-1/png/pngget.c ****    {
 687:fltk-1.3.4-1/png/pngget.c ****       *file_gamma = info_ptr->colorspace.gamma;
 688:fltk-1.3.4-1/png/pngget.c ****       return (PNG_INFO_gAMA);
 689:fltk-1.3.4-1/png/pngget.c ****    }
 690:fltk-1.3.4-1/png/pngget.c **** 
 691:fltk-1.3.4-1/png/pngget.c ****    return (0);
 1936              		.loc 1 691 11 view .LVU593
 1937 0019 31C0     		xorl	%eax, %eax
 692:fltk-1.3.4-1/png/pngget.c **** }
 1938              		.loc 1 692 1 view .LVU594
 1939 001b C3       		ret
 1940 001c 0F1F4000 		.p2align 4,,10
 1941              		.p2align 3
 1942              	.L513:
 687:fltk-1.3.4-1/png/pngget.c ****       return (PNG_INFO_gAMA);
 1943              		.loc 1 687 7 is_stmt 1 view .LVU595
 687:fltk-1.3.4-1/png/pngget.c ****       return (PNG_INFO_gAMA);
 1944              		.loc 1 687 19 is_stmt 0 view .LVU596
 1945 0020 8B4634   		movl	52(%rsi), %eax
 1946 0023 8902     		movl	%eax, (%rdx)
 688:fltk-1.3.4-1/png/pngget.c ****    }
 1947              		.loc 1 688 7 is_stmt 1 view .LVU597
 688:fltk-1.3.4-1/png/pngget.c ****    }
 1948              		.loc 1 688 14 is_stmt 0 view .LVU598
 1949 0025 B8010000 		movl	$1, %eax
 1949      00
 1950 002a C3       		ret
 1951              		.cfi_endproc
 1952              	.LFE77:
 1954              		.section	.text.png_get_gAMA,"ax",@progbits
 1955              		.p2align 4
 1956              		.globl	png_get_gAMA
 1958              	png_get_gAMA:
 1959              	.LVL98:
 1960              	.LFB78:
 693:fltk-1.3.4-1/png/pngget.c **** #  endif
 694:fltk-1.3.4-1/png/pngget.c **** 
 695:fltk-1.3.4-1/png/pngget.c **** #  ifdef PNG_FLOATING_POINT_SUPPORTED
 696:fltk-1.3.4-1/png/pngget.c **** png_uint_32 PNGAPI
 697:fltk-1.3.4-1/png/pngget.c **** png_get_gAMA(png_const_structrp png_ptr, png_const_inforp info_ptr,
 698:fltk-1.3.4-1/png/pngget.c ****     double *file_gamma)
 699:fltk-1.3.4-1/png/pngget.c **** {
 1961              		.loc 1 699 1 is_stmt 1 view -0
 1962              		.cfi_startproc
 1963              		.loc 1 699 1 is_stmt 0 view .LVU600
 1964 0000 F30F1EFA 		endbr64
 700:fltk-1.3.4-1/png/pngget.c ****    png_debug1(1, "in %s retrieval function", "gAMA(float)");
 1965              		.loc 1 700 4 is_stmt 1 view .LVU601
 701:fltk-1.3.4-1/png/pngget.c **** 
 702:fltk-1.3.4-1/png/pngget.c ****    if (png_ptr != NULL && info_ptr != NULL &&
 1966              		.loc 1 702 4 view .LVU602
 1967              		.loc 1 702 7 is_stmt 0 view .LVU603
 1968 0004 4885FF   		testq	%rdi, %rdi
 1969 0007 7410     		je	.L517
 1970 0009 4885F6   		testq	%rsi, %rsi
 1971 000c 740B     		je	.L517
 703:fltk-1.3.4-1/png/pngget.c ****       (info_ptr->colorspace.flags & PNG_COLORSPACE_HAVE_GAMMA) != 0 &&
 1972              		.loc 1 703 69 discriminator 1 view .LVU604
 1973 000e F6467E01 		testb	$1, 126(%rsi)
 1974 0012 7405     		je	.L517
 1975 0014 4885D2   		testq	%rdx, %rdx
 1976 0017 7507     		jne	.L530
 1977              	.L517:
 704:fltk-1.3.4-1/png/pngget.c ****       file_gamma != NULL)
 705:fltk-1.3.4-1/png/pngget.c ****    {
 706:fltk-1.3.4-1/png/pngget.c ****       *file_gamma = png_float(png_ptr, info_ptr->colorspace.gamma,
 707:fltk-1.3.4-1/png/pngget.c ****          "png_get_gAMA");
 708:fltk-1.3.4-1/png/pngget.c ****       return (PNG_INFO_gAMA);
 709:fltk-1.3.4-1/png/pngget.c ****    }
 710:fltk-1.3.4-1/png/pngget.c **** 
 711:fltk-1.3.4-1/png/pngget.c ****    return (0);
 1978              		.loc 1 711 11 view .LVU605
 1979 0019 31C0     		xorl	%eax, %eax
 712:fltk-1.3.4-1/png/pngget.c **** }
 1980              		.loc 1 712 1 view .LVU606
 1981 001b C3       		ret
 1982 001c 0F1F4000 		.p2align 4,,10
 1983              		.p2align 3
 1984              	.L530:
 706:fltk-1.3.4-1/png/pngget.c ****          "png_get_gAMA");
 1985              		.loc 1 706 7 is_stmt 1 view .LVU607
 706:fltk-1.3.4-1/png/pngget.c ****          "png_get_gAMA");
 1986              		.loc 1 706 21 is_stmt 0 view .LVU608
 1987 0020 660FEFC0 		pxor	%xmm0, %xmm0
 708:fltk-1.3.4-1/png/pngget.c ****    }
 1988              		.loc 1 708 14 view .LVU609
 1989 0024 B8010000 		movl	$1, %eax
 1989      00
 706:fltk-1.3.4-1/png/pngget.c ****          "png_get_gAMA");
 1990              		.loc 1 706 21 view .LVU610
 1991 0029 F20F2A46 		cvtsi2sdl	52(%rsi), %xmm0
 1991      34
 1992 002e F20F5905 		mulsd	.LC4(%rip), %xmm0
 1992      00000000 
 706:fltk-1.3.4-1/png/pngget.c ****          "png_get_gAMA");
 1993              		.loc 1 706 19 view .LVU611
 1994 0036 F20F1102 		movsd	%xmm0, (%rdx)
 708:fltk-1.3.4-1/png/pngget.c ****    }
 1995              		.loc 1 708 7 is_stmt 1 view .LVU612
 708:fltk-1.3.4-1/png/pngget.c ****    }
 1996              		.loc 1 708 14 is_stmt 0 view .LVU613
 1997 003a C3       		ret
 1998              		.cfi_endproc
 1999              	.LFE78:
 2001              		.section	.text.png_get_sRGB,"ax",@progbits
 2002              		.p2align 4
 2003              		.globl	png_get_sRGB
 2005              	png_get_sRGB:
 2006              	.LVL99:
 2007              	.LFB79:
 713:fltk-1.3.4-1/png/pngget.c **** #  endif
 714:fltk-1.3.4-1/png/pngget.c **** #endif
 715:fltk-1.3.4-1/png/pngget.c **** 
 716:fltk-1.3.4-1/png/pngget.c **** #ifdef PNG_sRGB_SUPPORTED
 717:fltk-1.3.4-1/png/pngget.c **** png_uint_32 PNGAPI
 718:fltk-1.3.4-1/png/pngget.c **** png_get_sRGB(png_const_structrp png_ptr, png_const_inforp info_ptr,
 719:fltk-1.3.4-1/png/pngget.c ****     int *file_srgb_intent)
 720:fltk-1.3.4-1/png/pngget.c **** {
 2008              		.loc 1 720 1 is_stmt 1 view -0
 2009              		.cfi_startproc
 2010              		.loc 1 720 1 is_stmt 0 view .LVU615
 2011 0000 F30F1EFA 		endbr64
 721:fltk-1.3.4-1/png/pngget.c ****    png_debug1(1, "in %s retrieval function", "sRGB");
 2012              		.loc 1 721 4 is_stmt 1 view .LVU616
 722:fltk-1.3.4-1/png/pngget.c **** 
 723:fltk-1.3.4-1/png/pngget.c ****    if (png_ptr != NULL && info_ptr != NULL &&
 2013              		.loc 1 723 4 view .LVU617
 2014              		.loc 1 723 7 is_stmt 0 view .LVU618
 2015 0004 4885FF   		testq	%rdi, %rdi
 2016 0007 7410     		je	.L534
 2017 0009 4885F6   		testq	%rsi, %rsi
 2018 000c 740B     		je	.L534
 724:fltk-1.3.4-1/png/pngget.c ****       (info_ptr->valid & PNG_INFO_sRGB) != 0 && file_srgb_intent != NULL)
 2019              		.loc 1 724 46 discriminator 1 view .LVU619
 2020 000e F6460908 		testb	$8, 9(%rsi)
 2021 0012 7405     		je	.L534
 2022 0014 4885D2   		testq	%rdx, %rdx
 2023 0017 7507     		jne	.L547
 2024              	.L534:
 725:fltk-1.3.4-1/png/pngget.c ****    {
 726:fltk-1.3.4-1/png/pngget.c ****       *file_srgb_intent = info_ptr->colorspace.rendering_intent;
 727:fltk-1.3.4-1/png/pngget.c ****       return (PNG_INFO_sRGB);
 728:fltk-1.3.4-1/png/pngget.c ****    }
 729:fltk-1.3.4-1/png/pngget.c **** 
 730:fltk-1.3.4-1/png/pngget.c ****    return (0);
 2025              		.loc 1 730 11 view .LVU620
 2026 0019 31C0     		xorl	%eax, %eax
 731:fltk-1.3.4-1/png/pngget.c **** }
 2027              		.loc 1 731 1 view .LVU621
 2028 001b C3       		ret
 2029 001c 0F1F4000 		.p2align 4,,10
 2030              		.p2align 3
 2031              	.L547:
 726:fltk-1.3.4-1/png/pngget.c ****       return (PNG_INFO_sRGB);
 2032              		.loc 1 726 7 is_stmt 1 view .LVU622
 726:fltk-1.3.4-1/png/pngget.c ****       return (PNG_INFO_sRGB);
 2033              		.loc 1 726 47 is_stmt 0 view .LVU623
 2034 0020 0FB7467C 		movzwl	124(%rsi), %eax
 2035 0024 8902     		movl	%eax, (%rdx)
 727:fltk-1.3.4-1/png/pngget.c ****    }
 2036              		.loc 1 727 7 is_stmt 1 view .LVU624
 727:fltk-1.3.4-1/png/pngget.c ****    }
 2037              		.loc 1 727 14 is_stmt 0 view .LVU625
 2038 0026 B8000800 		movl	$2048, %eax
 2038      00
 2039 002b C3       		ret
 2040              		.cfi_endproc
 2041              	.LFE79:
 2043              		.section	.text.png_get_iCCP,"ax",@progbits
 2044              		.p2align 4
 2045              		.globl	png_get_iCCP
 2047              	png_get_iCCP:
 2048              	.LVL100:
 2049              	.LFB80:
 732:fltk-1.3.4-1/png/pngget.c **** #endif
 733:fltk-1.3.4-1/png/pngget.c **** 
 734:fltk-1.3.4-1/png/pngget.c **** #ifdef PNG_iCCP_SUPPORTED
 735:fltk-1.3.4-1/png/pngget.c **** png_uint_32 PNGAPI
 736:fltk-1.3.4-1/png/pngget.c **** png_get_iCCP(png_const_structrp png_ptr, png_inforp info_ptr,
 737:fltk-1.3.4-1/png/pngget.c ****     png_charpp name, int *compression_type,
 738:fltk-1.3.4-1/png/pngget.c ****     png_bytepp profile, png_uint_32 *proflen)
 739:fltk-1.3.4-1/png/pngget.c **** {
 2050              		.loc 1 739 1 is_stmt 1 view -0
 2051              		.cfi_startproc
 2052              		.loc 1 739 1 is_stmt 0 view .LVU627
 2053 0000 F30F1EFA 		endbr64
 740:fltk-1.3.4-1/png/pngget.c ****    png_debug1(1, "in %s retrieval function", "iCCP");
 2054              		.loc 1 740 4 is_stmt 1 view .LVU628
 741:fltk-1.3.4-1/png/pngget.c **** 
 742:fltk-1.3.4-1/png/pngget.c ****    if (png_ptr != NULL && info_ptr != NULL &&
 2055              		.loc 1 742 4 view .LVU629
 2056              		.loc 1 742 7 is_stmt 0 view .LVU630
 2057 0004 4885FF   		testq	%rdi, %rdi
 2058 0007 7427     		je	.L552
 2059 0009 4885F6   		testq	%rsi, %rsi
 2060 000c 7422     		je	.L552
 2061              		.loc 1 742 44 discriminator 1 view .LVU631
 2062 000e 8B4608   		movl	8(%rsi), %eax
 2063 0011 25001000 		andl	$4096, %eax
 2063      00
 2064 0016 741A     		je	.L548
 743:fltk-1.3.4-1/png/pngget.c ****        (info_ptr->valid & PNG_INFO_iCCP) != 0 &&
 744:fltk-1.3.4-1/png/pngget.c ****        name != NULL && compression_type != NULL && profile != NULL &&
 2065              		.loc 1 744 21 view .LVU632
 2066 0018 4885D2   		testq	%rdx, %rdx
 2067 001b 7413     		je	.L552
 2068 001d 4885C9   		testq	%rcx, %rcx
 2069 0020 740E     		je	.L552
 2070              		.loc 1 744 68 discriminator 1 view .LVU633
 2071 0022 4D85C0   		testq	%r8, %r8
 2072 0025 7409     		je	.L552
 2073 0027 4D85C9   		testq	%r9, %r9
 2074 002a 750C     		jne	.L574
 2075 002c 0F1F4000 		.p2align 4,,10
 2076              		.p2align 3
 2077              	.L552:
 745:fltk-1.3.4-1/png/pngget.c ****            proflen != NULL)
 746:fltk-1.3.4-1/png/pngget.c ****    {
 747:fltk-1.3.4-1/png/pngget.c ****       *name = info_ptr->iccp_name;
 748:fltk-1.3.4-1/png/pngget.c ****       *profile = info_ptr->iccp_profile;
 749:fltk-1.3.4-1/png/pngget.c ****       *proflen = png_get_uint_32(info_ptr->iccp_profile);
 750:fltk-1.3.4-1/png/pngget.c ****       /* This is somewhat irrelevant since the profile data returned has
 751:fltk-1.3.4-1/png/pngget.c ****        * actually been uncompressed.
 752:fltk-1.3.4-1/png/pngget.c ****        */
 753:fltk-1.3.4-1/png/pngget.c ****       *compression_type = PNG_COMPRESSION_TYPE_BASE;
 754:fltk-1.3.4-1/png/pngget.c ****       return (PNG_INFO_iCCP);
 755:fltk-1.3.4-1/png/pngget.c ****    }
 756:fltk-1.3.4-1/png/pngget.c **** 
 757:fltk-1.3.4-1/png/pngget.c ****    return (0);
 2078              		.loc 1 757 11 view .LVU634
 2079 0030 31C0     		xorl	%eax, %eax
 2080              	.L548:
 758:fltk-1.3.4-1/png/pngget.c **** }
 2081              		.loc 1 758 1 view .LVU635
 2082 0032 C3       		ret
 2083              		.p2align 4,,10
 2084 0033 0F1F4400 		.p2align 3
 2084      00
 2085              	.L574:
 747:fltk-1.3.4-1/png/pngget.c ****       *profile = info_ptr->iccp_profile;
 2086              		.loc 1 747 7 is_stmt 1 view .LVU636
 748:fltk-1.3.4-1/png/pngget.c ****       *proflen = png_get_uint_32(info_ptr->iccp_profile);
 2087              		.loc 1 748 26 is_stmt 0 view .LVU637
 2088 0038 488BBE88 		movq	136(%rsi), %rdi
 2088      000000
 2089              	.LVL101:
 747:fltk-1.3.4-1/png/pngget.c ****       *profile = info_ptr->iccp_profile;
 2090              		.loc 1 747 13 view .LVU638
 2091 003f 488B8680 		movq	128(%rsi), %rax
 2091      000000
 2092 0046 488902   		movq	%rax, (%rdx)
 748:fltk-1.3.4-1/png/pngget.c ****       *proflen = png_get_uint_32(info_ptr->iccp_profile);
 2093              		.loc 1 748 7 is_stmt 1 view .LVU639
 748:fltk-1.3.4-1/png/pngget.c ****       *proflen = png_get_uint_32(info_ptr->iccp_profile);
 2094              		.loc 1 748 16 is_stmt 0 view .LVU640
 2095 0049 498938   		movq	%rdi, (%r8)
 749:fltk-1.3.4-1/png/pngget.c ****       /* This is somewhat irrelevant since the profile data returned has
 2096              		.loc 1 749 7 is_stmt 1 view .LVU641
 749:fltk-1.3.4-1/png/pngget.c ****       /* This is somewhat irrelevant since the profile data returned has
 2097              		.loc 1 749 18 is_stmt 0 view .LVU642
 2098 004c 0FB607   		movzbl	(%rdi), %eax
 2099 004f 0FB65703 		movzbl	3(%rdi), %edx
 2100              	.LVL102:
 749:fltk-1.3.4-1/png/pngget.c ****       /* This is somewhat irrelevant since the profile data returned has
 2101              		.loc 1 749 18 view .LVU643
 2102 0053 C1E018   		sall	$24, %eax
 2103 0056 89C6     		movl	%eax, %esi
 2104              	.LVL103:
 749:fltk-1.3.4-1/png/pngget.c ****       /* This is somewhat irrelevant since the profile data returned has
 2105              		.loc 1 749 18 view .LVU644
 2106 0058 0FB64701 		movzbl	1(%rdi), %eax
 2107 005c C1E010   		sall	$16, %eax
 2108 005f 01F0     		addl	%esi, %eax
 2109 0061 01C2     		addl	%eax, %edx
 2110 0063 0FB64702 		movzbl	2(%rdi), %eax
 2111 0067 C1E008   		sall	$8, %eax
 2112 006a 01D0     		addl	%edx, %eax
 2113 006c 418901   		movl	%eax, (%r9)
 753:fltk-1.3.4-1/png/pngget.c ****       return (PNG_INFO_iCCP);
 2114              		.loc 1 753 7 is_stmt 1 view .LVU645
 754:fltk-1.3.4-1/png/pngget.c ****    }
 2115              		.loc 1 754 14 is_stmt 0 view .LVU646
 2116 006f B8001000 		movl	$4096, %eax
 2116      00
 753:fltk-1.3.4-1/png/pngget.c ****       return (PNG_INFO_iCCP);
 2117              		.loc 1 753 25 view .LVU647
 2118 0074 C7010000 		movl	$0, (%rcx)
 2118      0000
 754:fltk-1.3.4-1/png/pngget.c ****    }
 2119              		.loc 1 754 7 is_stmt 1 view .LVU648
 754:fltk-1.3.4-1/png/pngget.c ****    }
 2120              		.loc 1 754 14 is_stmt 0 view .LVU649
 2121 007a C3       		ret
 2122              		.cfi_endproc
 2123              	.LFE80:
 2125              		.section	.text.png_get_sPLT,"ax",@progbits
 2126              		.p2align 4
 2127              		.globl	png_get_sPLT
 2129              	png_get_sPLT:
 2130              	.LVL104:
 2131              	.LFB81:
 759:fltk-1.3.4-1/png/pngget.c **** #endif
 760:fltk-1.3.4-1/png/pngget.c **** 
 761:fltk-1.3.4-1/png/pngget.c **** #ifdef PNG_sPLT_SUPPORTED
 762:fltk-1.3.4-1/png/pngget.c **** int PNGAPI
 763:fltk-1.3.4-1/png/pngget.c **** png_get_sPLT(png_const_structrp png_ptr, png_inforp info_ptr,
 764:fltk-1.3.4-1/png/pngget.c ****     png_sPLT_tpp spalettes)
 765:fltk-1.3.4-1/png/pngget.c **** {
 2132              		.loc 1 765 1 is_stmt 1 view -0
 2133              		.cfi_startproc
 2134              		.loc 1 765 1 is_stmt 0 view .LVU651
 2135 0000 F30F1EFA 		endbr64
 766:fltk-1.3.4-1/png/pngget.c ****    if (png_ptr != NULL && info_ptr != NULL && spalettes != NULL)
 2136              		.loc 1 766 4 is_stmt 1 view .LVU652
 2137              		.loc 1 766 36 is_stmt 0 view .LVU653
 2138 0004 4885F6   		testq	%rsi, %rsi
 2139 0007 0F95C1   		setne	%cl
 2140              		.loc 1 766 44 view .LVU654
 2141 000a 4885D2   		testq	%rdx, %rdx
 2142 000d 0F95C0   		setne	%al
 2143 0010 84C1     		testb	%al, %cl
 2144 0012 7405     		je	.L577
 2145 0014 4885FF   		testq	%rdi, %rdi
 2146 0017 7507     		jne	.L584
 2147              	.L577:
 767:fltk-1.3.4-1/png/pngget.c ****    {
 768:fltk-1.3.4-1/png/pngget.c ****       *spalettes = info_ptr->splt_palettes;
 769:fltk-1.3.4-1/png/pngget.c ****       return info_ptr->splt_palettes_num;
 770:fltk-1.3.4-1/png/pngget.c ****    }
 771:fltk-1.3.4-1/png/pngget.c **** 
 772:fltk-1.3.4-1/png/pngget.c ****    return (0);
 2148              		.loc 1 772 11 view .LVU655
 2149 0019 31C0     		xorl	%eax, %eax
 773:fltk-1.3.4-1/png/pngget.c **** }
 2150              		.loc 1 773 1 view .LVU656
 2151 001b C3       		ret
 2152 001c 0F1F4000 		.p2align 4,,10
 2153              		.p2align 3
 2154              	.L584:
 768:fltk-1.3.4-1/png/pngget.c ****       return info_ptr->splt_palettes_num;
 2155              		.loc 1 768 7 is_stmt 1 view .LVU657
 768:fltk-1.3.4-1/png/pngget.c ****       return info_ptr->splt_palettes_num;
 2156              		.loc 1 768 18 is_stmt 0 view .LVU658
 2157 0020 488B8630 		movq	304(%rsi), %rax
 2157      010000
 2158 0027 488902   		movq	%rax, (%rdx)
 769:fltk-1.3.4-1/png/pngget.c ****    }
 2159              		.loc 1 769 7 is_stmt 1 view .LVU659
 769:fltk-1.3.4-1/png/pngget.c ****    }
 2160              		.loc 1 769 22 is_stmt 0 view .LVU660
 2161 002a 8B863801 		movl	312(%rsi), %eax
 2161      0000
 2162 0030 C3       		ret
 2163              		.cfi_endproc
 2164              	.LFE81:
 2166              		.section	.text.png_get_hIST,"ax",@progbits
 2167              		.p2align 4
 2168              		.globl	png_get_hIST
 2170              	png_get_hIST:
 2171              	.LVL105:
 2172              	.LFB82:
 774:fltk-1.3.4-1/png/pngget.c **** #endif
 775:fltk-1.3.4-1/png/pngget.c **** 
 776:fltk-1.3.4-1/png/pngget.c **** #ifdef PNG_hIST_SUPPORTED
 777:fltk-1.3.4-1/png/pngget.c **** png_uint_32 PNGAPI
 778:fltk-1.3.4-1/png/pngget.c **** png_get_hIST(png_const_structrp png_ptr, png_inforp info_ptr,
 779:fltk-1.3.4-1/png/pngget.c ****     png_uint_16p *hist)
 780:fltk-1.3.4-1/png/pngget.c **** {
 2173              		.loc 1 780 1 is_stmt 1 view -0
 2174              		.cfi_startproc
 2175              		.loc 1 780 1 is_stmt 0 view .LVU662
 2176 0000 F30F1EFA 		endbr64
 781:fltk-1.3.4-1/png/pngget.c ****    png_debug1(1, "in %s retrieval function", "hIST");
 2177              		.loc 1 781 4 is_stmt 1 view .LVU663
 782:fltk-1.3.4-1/png/pngget.c **** 
 783:fltk-1.3.4-1/png/pngget.c ****    if (png_ptr != NULL && info_ptr != NULL &&
 2178              		.loc 1 783 4 view .LVU664
 2179              		.loc 1 783 7 is_stmt 0 view .LVU665
 2180 0004 4885FF   		testq	%rdi, %rdi
 2181 0007 7410     		je	.L588
 2182 0009 4885F6   		testq	%rsi, %rsi
 2183 000c 740B     		je	.L588
 784:fltk-1.3.4-1/png/pngget.c ****        (info_ptr->valid & PNG_INFO_hIST) != 0 && hist != NULL)
 2184              		.loc 1 784 47 discriminator 1 view .LVU666
 2185 000e F6460840 		testb	$64, 8(%rsi)
 2186 0012 7405     		je	.L588
 2187 0014 4885D2   		testq	%rdx, %rdx
 2188 0017 7507     		jne	.L601
 2189              	.L588:
 785:fltk-1.3.4-1/png/pngget.c ****    {
 786:fltk-1.3.4-1/png/pngget.c ****       *hist = info_ptr->hist;
 787:fltk-1.3.4-1/png/pngget.c ****       return (PNG_INFO_hIST);
 788:fltk-1.3.4-1/png/pngget.c ****    }
 789:fltk-1.3.4-1/png/pngget.c **** 
 790:fltk-1.3.4-1/png/pngget.c ****    return (0);
 2190              		.loc 1 790 11 view .LVU667
 2191 0019 31C0     		xorl	%eax, %eax
 791:fltk-1.3.4-1/png/pngget.c **** }
 2192              		.loc 1 791 1 view .LVU668
 2193 001b C3       		ret
 2194 001c 0F1F4000 		.p2align 4,,10
 2195              		.p2align 3
 2196              	.L601:
 786:fltk-1.3.4-1/png/pngget.c ****       return (PNG_INFO_hIST);
 2197              		.loc 1 786 7 is_stmt 1 view .LVU669
 786:fltk-1.3.4-1/png/pngget.c ****       return (PNG_INFO_hIST);
 2198              		.loc 1 786 13 is_stmt 0 view .LVU670
 2199 0020 488B86F0 		movq	240(%rsi), %rax
 2199      000000
 2200 0027 488902   		movq	%rax, (%rdx)
 787:fltk-1.3.4-1/png/pngget.c ****    }
 2201              		.loc 1 787 7 is_stmt 1 view .LVU671
 787:fltk-1.3.4-1/png/pngget.c ****    }
 2202              		.loc 1 787 14 is_stmt 0 view .LVU672
 2203 002a B8400000 		movl	$64, %eax
 2203      00
 2204 002f C3       		ret
 2205              		.cfi_endproc
 2206              	.LFE82:
 2208              		.section	.text.png_get_IHDR,"ax",@progbits
 2209              		.p2align 4
 2210              		.globl	png_get_IHDR
 2212              	png_get_IHDR:
 2213              	.LVL106:
 2214              	.LFB83:
 792:fltk-1.3.4-1/png/pngget.c **** #endif
 793:fltk-1.3.4-1/png/pngget.c **** 
 794:fltk-1.3.4-1/png/pngget.c **** png_uint_32 PNGAPI
 795:fltk-1.3.4-1/png/pngget.c **** png_get_IHDR(png_const_structrp png_ptr, png_const_inforp info_ptr,
 796:fltk-1.3.4-1/png/pngget.c ****     png_uint_32 *width, png_uint_32 *height, int *bit_depth,
 797:fltk-1.3.4-1/png/pngget.c ****     int *color_type, int *interlace_type, int *compression_type,
 798:fltk-1.3.4-1/png/pngget.c ****     int *filter_type)
 799:fltk-1.3.4-1/png/pngget.c **** {
 2215              		.loc 1 799 1 is_stmt 1 view -0
 2216              		.cfi_startproc
 2217              		.loc 1 799 1 is_stmt 0 view .LVU674
 2218 0000 F30F1EFA 		endbr64
 800:fltk-1.3.4-1/png/pngget.c ****    png_debug1(1, "in %s retrieval function", "IHDR");
 2219              		.loc 1 800 4 is_stmt 1 view .LVU675
 801:fltk-1.3.4-1/png/pngget.c **** 
 802:fltk-1.3.4-1/png/pngget.c ****    if (png_ptr == NULL || info_ptr == NULL || width == NULL ||
 2220              		.loc 1 802 4 view .LVU676
 2221              		.loc 1 802 7 is_stmt 0 view .LVU677
 2222 0004 4885FF   		testq	%rdi, %rdi
 2223 0007 0F849300 		je	.L609
 2223      0000
 2224 000d 4885F6   		testq	%rsi, %rsi
 2225 0010 0F848A00 		je	.L609
 2225      0000
 2226              		.loc 1 802 61 discriminator 1 view .LVU678
 2227 0016 4885D2   		testq	%rdx, %rdx
 2228 0019 0F848100 		je	.L609
 2228      0000
 2229 001f 4885C9   		testq	%rcx, %rcx
 2230 0022 747C     		je	.L609
 803:fltk-1.3.4-1/png/pngget.c ****        height == NULL || bit_depth == NULL || color_type == NULL)
 2231              		.loc 1 803 44 view .LVU679
 2232 0024 4D85C0   		testq	%r8, %r8
 2233 0027 7477     		je	.L609
 2234 0029 4D85C9   		testq	%r9, %r9
 2235 002c 7472     		je	.L609
 804:fltk-1.3.4-1/png/pngget.c ****       return (0);
 805:fltk-1.3.4-1/png/pngget.c **** 
 806:fltk-1.3.4-1/png/pngget.c ****    *width = info_ptr->width;
 2236              		.loc 1 806 4 is_stmt 1 view .LVU680
 799:fltk-1.3.4-1/png/pngget.c ****    png_debug1(1, "in %s retrieval function", "IHDR");
 2237              		.loc 1 799 1 is_stmt 0 view .LVU681
 2238 002e 4883EC08 		subq	$8, %rsp
 2239              		.cfi_def_cfa_offset 16
 2240              		.loc 1 806 21 view .LVU682
 2241 0032 448B16   		movl	(%rsi), %r10d
 2242 0035 0FB64626 		movzbl	38(%rsi), %eax
 807:fltk-1.3.4-1/png/pngget.c ****    *height = info_ptr->height;
 808:fltk-1.3.4-1/png/pngget.c ****    *bit_depth = info_ptr->bit_depth;
 809:fltk-1.3.4-1/png/pngget.c ****    *color_type = info_ptr->color_type;
 810:fltk-1.3.4-1/png/pngget.c **** 
 811:fltk-1.3.4-1/png/pngget.c ****    if (compression_type != NULL)
 2243              		.loc 1 811 7 view .LVU683
 2244 0039 48837C24 		cmpq	$0, 24(%rsp)
 2244      1800
 806:fltk-1.3.4-1/png/pngget.c ****    *height = info_ptr->height;
 2245              		.loc 1 806 11 view .LVU684
 2246 003f 448912   		movl	%r10d, (%rdx)
 807:fltk-1.3.4-1/png/pngget.c ****    *height = info_ptr->height;
 2247              		.loc 1 807 4 is_stmt 1 view .LVU685
 807:fltk-1.3.4-1/png/pngget.c ****    *height = info_ptr->height;
 2248              		.loc 1 807 22 is_stmt 0 view .LVU686
 2249 0042 8B5604   		movl	4(%rsi), %edx
 2250              	.LVL107:
 807:fltk-1.3.4-1/png/pngget.c ****    *height = info_ptr->height;
 2251              		.loc 1 807 12 view .LVU687
 2252 0045 8911     		movl	%edx, (%rcx)
 808:fltk-1.3.4-1/png/pngget.c ****    *color_type = info_ptr->color_type;
 2253              		.loc 1 808 4 is_stmt 1 view .LVU688
 808:fltk-1.3.4-1/png/pngget.c ****    *color_type = info_ptr->color_type;
 2254              		.loc 1 808 25 is_stmt 0 view .LVU689
 2255 0047 0FB64E24 		movzbl	36(%rsi), %ecx
 2256              	.LVL108:
 808:fltk-1.3.4-1/png/pngget.c ****    *color_type = info_ptr->color_type;
 2257              		.loc 1 808 15 view .LVU690
 2258 004b 418908   		movl	%ecx, (%r8)
 809:fltk-1.3.4-1/png/pngget.c **** 
 2259              		.loc 1 809 4 is_stmt 1 view .LVU691
 809:fltk-1.3.4-1/png/pngget.c **** 
 2260              		.loc 1 809 26 is_stmt 0 view .LVU692
 2261 004e 440FB646 		movzbl	37(%rsi), %r8d
 2261      25
 2262              	.LVL109:
 809:fltk-1.3.4-1/png/pngget.c **** 
 2263              		.loc 1 809 16 view .LVU693
 2264 0053 458901   		movl	%r8d, (%r9)
 2265              		.loc 1 811 4 is_stmt 1 view .LVU694
 2266              		.loc 1 811 7 is_stmt 0 view .LVU695
 2267 0056 7408     		je	.L604
 812:fltk-1.3.4-1/png/pngget.c ****       *compression_type = info_ptr->compression_type;
 2268              		.loc 1 812 7 is_stmt 1 view .LVU696
 2269              		.loc 1 812 25 is_stmt 0 view .LVU697
 2270 0058 4C8B5C24 		movq	24(%rsp), %r11
 2270      18
 2271 005d 418903   		movl	%eax, (%r11)
 2272              	.L604:
 813:fltk-1.3.4-1/png/pngget.c **** 
 814:fltk-1.3.4-1/png/pngget.c ****    if (filter_type != NULL)
 2273              		.loc 1 814 4 is_stmt 1 view .LVU698
 2274              		.loc 1 814 7 is_stmt 0 view .LVU699
 2275 0060 48837C24 		cmpq	$0, 32(%rsp)
 2275      2000
 2276 0066 440FB65E 		movzbl	39(%rsi), %r11d
 2276      27
 2277 006b 7408     		je	.L605
 815:fltk-1.3.4-1/png/pngget.c ****       *filter_type = info_ptr->filter_type;
 2278              		.loc 1 815 7 is_stmt 1 view .LVU700
 2279              		.loc 1 815 20 is_stmt 0 view .LVU701
 2280 006d 4C8B4C24 		movq	32(%rsp), %r9
 2280      20
 2281              	.LVL110:
 2282              		.loc 1 815 20 view .LVU702
 2283 0072 458919   		movl	%r11d, (%r9)
 2284              	.L605:
 816:fltk-1.3.4-1/png/pngget.c **** 
 817:fltk-1.3.4-1/png/pngget.c ****    if (interlace_type != NULL)
 2285              		.loc 1 817 4 is_stmt 1 view .LVU703
 2286              		.loc 1 817 7 is_stmt 0 view .LVU704
 2287 0075 48837C24 		cmpq	$0, 16(%rsp)
 2287      1000
 2288 007b 440FB64E 		movzbl	40(%rsi), %r9d
 2288      28
 2289 0080 7408     		je	.L606
 818:fltk-1.3.4-1/png/pngget.c ****       *interlace_type = info_ptr->interlace_type;
 2290              		.loc 1 818 7 is_stmt 1 view .LVU705
 2291              		.loc 1 818 23 is_stmt 0 view .LVU706
 2292 0082 488B7424 		movq	16(%rsp), %rsi
 2292      10
 2293              	.LVL111:
 2294              		.loc 1 818 23 view .LVU707
 2295 0087 44890E   		movl	%r9d, (%rsi)
 2296              	.L606:
 819:fltk-1.3.4-1/png/pngget.c **** 
 820:fltk-1.3.4-1/png/pngget.c ****    /* This is redundant if we can be sure that the info_ptr values were all
 821:fltk-1.3.4-1/png/pngget.c ****     * assigned in png_set_IHDR().  We do the check anyhow in case an
 822:fltk-1.3.4-1/png/pngget.c ****     * application has ignored our advice not to mess with the members
 823:fltk-1.3.4-1/png/pngget.c ****     * of info_ptr directly.
 824:fltk-1.3.4-1/png/pngget.c ****     */
 825:fltk-1.3.4-1/png/pngget.c ****    png_check_IHDR(png_ptr, info_ptr->width, info_ptr->height,
 2297              		.loc 1 825 4 is_stmt 1 view .LVU708
 2298 008a 4153     		pushq	%r11
 2299              		.cfi_def_cfa_offset 24
 2300 008c 4489D6   		movl	%r10d, %esi
 2301 008f 50       		pushq	%rax
 2302              		.cfi_def_cfa_offset 32
 2303 0090 E8000000 		call	png_check_IHDR@PLT
 2303      00
 2304              	.LVL112:
 826:fltk-1.3.4-1/png/pngget.c ****        info_ptr->bit_depth, info_ptr->color_type, info_ptr->interlace_type,
 827:fltk-1.3.4-1/png/pngget.c ****        info_ptr->compression_type, info_ptr->filter_type);
 828:fltk-1.3.4-1/png/pngget.c **** 
 829:fltk-1.3.4-1/png/pngget.c ****    return (1);
 2305              		.loc 1 829 4 view .LVU709
 2306              		.loc 1 829 11 is_stmt 0 view .LVU710
 2307 0095 B8010000 		movl	$1, %eax
 2307      00
 830:fltk-1.3.4-1/png/pngget.c **** }
 2308              		.loc 1 830 1 view .LVU711
 2309 009a 4883C418 		addq	$24, %rsp
 2310              		.cfi_def_cfa_offset 8
 2311 009e C3       		ret
 2312              	.LVL113:
 2313 009f 90       		.p2align 4,,10
 2314              		.p2align 3
 2315              	.L609:
 804:fltk-1.3.4-1/png/pngget.c **** 
 2316              		.loc 1 804 14 view .LVU712
 2317 00a0 31C0     		xorl	%eax, %eax
 2318              		.loc 1 830 1 view .LVU713
 2319 00a2 C3       		ret
 2320              		.cfi_endproc
 2321              	.LFE83:
 2323              		.section	.text.png_get_oFFs,"ax",@progbits
 2324              		.p2align 4
 2325              		.globl	png_get_oFFs
 2327              	png_get_oFFs:
 2328              	.LVL114:
 2329              	.LFB84:
 831:fltk-1.3.4-1/png/pngget.c **** 
 832:fltk-1.3.4-1/png/pngget.c **** #ifdef PNG_oFFs_SUPPORTED
 833:fltk-1.3.4-1/png/pngget.c **** png_uint_32 PNGAPI
 834:fltk-1.3.4-1/png/pngget.c **** png_get_oFFs(png_const_structrp png_ptr, png_const_inforp info_ptr,
 835:fltk-1.3.4-1/png/pngget.c ****     png_int_32 *offset_x, png_int_32 *offset_y, int *unit_type)
 836:fltk-1.3.4-1/png/pngget.c **** {
 2330              		.loc 1 836 1 is_stmt 1 view -0
 2331              		.cfi_startproc
 2332              		.loc 1 836 1 is_stmt 0 view .LVU715
 2333 0000 F30F1EFA 		endbr64
 837:fltk-1.3.4-1/png/pngget.c ****    png_debug1(1, "in %s retrieval function", "oFFs");
 2334              		.loc 1 837 4 is_stmt 1 view .LVU716
 838:fltk-1.3.4-1/png/pngget.c **** 
 839:fltk-1.3.4-1/png/pngget.c ****    if (png_ptr != NULL && info_ptr != NULL &&
 2335              		.loc 1 839 4 view .LVU717
 2336              		.loc 1 839 7 is_stmt 0 view .LVU718
 2337 0004 4885FF   		testq	%rdi, %rdi
 2338 0007 7427     		je	.L626
 2339 0009 4885F6   		testq	%rsi, %rsi
 2340 000c 7422     		je	.L626
 2341              		.loc 1 839 44 discriminator 1 view .LVU719
 2342 000e 8B4608   		movl	8(%rsi), %eax
 2343 0011 25000100 		andl	$256, %eax
 2343      00
 2344 0016 741A     		je	.L623
 840:fltk-1.3.4-1/png/pngget.c ****        (info_ptr->valid & PNG_INFO_oFFs) != 0 &&
 841:fltk-1.3.4-1/png/pngget.c ****        offset_x != NULL && offset_y != NULL && unit_type != NULL)
 2345              		.loc 1 841 17 view .LVU720
 2346 0018 4885D2   		testq	%rdx, %rdx
 2347 001b 400F95C7 		setne	%dil
 2348              	.LVL115:
 2349              		.loc 1 841 37 view .LVU721
 2350 001f 4885C9   		testq	%rcx, %rcx
 2351 0022 0F95C0   		setne	%al
 2352              		.loc 1 841 45 view .LVU722
 2353 0025 4084C7   		testb	%al, %dil
 2354 0028 7406     		je	.L626
 2355 002a 4D85C0   		testq	%r8, %r8
 2356 002d 7509     		jne	.L642
 2357 002f 90       		.p2align 4,,10
 2358              		.p2align 3
 2359              	.L626:
 842:fltk-1.3.4-1/png/pngget.c ****    {
 843:fltk-1.3.4-1/png/pngget.c ****       *offset_x = info_ptr->x_offset;
 844:fltk-1.3.4-1/png/pngget.c ****       *offset_y = info_ptr->y_offset;
 845:fltk-1.3.4-1/png/pngget.c ****       *unit_type = (int)info_ptr->offset_unit_type;
 846:fltk-1.3.4-1/png/pngget.c ****       return (PNG_INFO_oFFs);
 847:fltk-1.3.4-1/png/pngget.c ****    }
 848:fltk-1.3.4-1/png/pngget.c **** 
 849:fltk-1.3.4-1/png/pngget.c ****    return (0);
 2360              		.loc 1 849 11 view .LVU723
 2361 0030 31C0     		xorl	%eax, %eax
 2362              	.L623:
 850:fltk-1.3.4-1/png/pngget.c **** }
 2363              		.loc 1 850 1 view .LVU724
 2364 0032 C3       		ret
 2365              		.p2align 4,,10
 2366 0033 0F1F4400 		.p2align 3
 2366      00
 2367              	.L642:
 843:fltk-1.3.4-1/png/pngget.c ****       *offset_y = info_ptr->y_offset;
 2368              		.loc 1 843 7 is_stmt 1 view .LVU725
 843:fltk-1.3.4-1/png/pngget.c ****       *offset_y = info_ptr->y_offset;
 2369              		.loc 1 843 17 is_stmt 0 view .LVU726
 2370 0038 8B86D400 		movl	212(%rsi), %eax
 2370      0000
 2371 003e 8902     		movl	%eax, (%rdx)
 844:fltk-1.3.4-1/png/pngget.c ****       *unit_type = (int)info_ptr->offset_unit_type;
 2372              		.loc 1 844 7 is_stmt 1 view .LVU727
 844:fltk-1.3.4-1/png/pngget.c ****       *unit_type = (int)info_ptr->offset_unit_type;
 2373              		.loc 1 844 17 is_stmt 0 view .LVU728
 2374 0040 8B86D800 		movl	216(%rsi), %eax
 2374      0000
 2375 0046 8901     		movl	%eax, (%rcx)
 845:fltk-1.3.4-1/png/pngget.c ****       return (PNG_INFO_oFFs);
 2376              		.loc 1 845 7 is_stmt 1 view .LVU729
 845:fltk-1.3.4-1/png/pngget.c ****       return (PNG_INFO_oFFs);
 2377              		.loc 1 845 20 is_stmt 0 view .LVU730
 2378 0048 0FB686DC 		movzbl	220(%rsi), %eax
 2378      000000
 2379 004f 418900   		movl	%eax, (%r8)
 846:fltk-1.3.4-1/png/pngget.c ****    }
 2380              		.loc 1 846 7 is_stmt 1 view .LVU731
 846:fltk-1.3.4-1/png/pngget.c ****    }
 2381              		.loc 1 846 14 is_stmt 0 view .LVU732
 2382 0052 B8000100 		movl	$256, %eax
 2382      00
 2383 0057 C3       		ret
 2384              		.cfi_endproc
 2385              	.LFE84:
 2387              		.section	.text.png_get_pCAL,"ax",@progbits
 2388              		.p2align 4
 2389              		.globl	png_get_pCAL
 2391              	png_get_pCAL:
 2392              	.LVL116:
 2393              	.LFB85:
 851:fltk-1.3.4-1/png/pngget.c **** #endif
 852:fltk-1.3.4-1/png/pngget.c **** 
 853:fltk-1.3.4-1/png/pngget.c **** #ifdef PNG_pCAL_SUPPORTED
 854:fltk-1.3.4-1/png/pngget.c **** png_uint_32 PNGAPI
 855:fltk-1.3.4-1/png/pngget.c **** png_get_pCAL(png_const_structrp png_ptr, png_inforp info_ptr,
 856:fltk-1.3.4-1/png/pngget.c ****     png_charp *purpose, png_int_32 *X0, png_int_32 *X1, int *type, int *nparams,
 857:fltk-1.3.4-1/png/pngget.c ****     png_charp *units, png_charpp *params)
 858:fltk-1.3.4-1/png/pngget.c **** {
 2394              		.loc 1 858 1 is_stmt 1 view -0
 2395              		.cfi_startproc
 2396              		.loc 1 858 1 is_stmt 0 view .LVU734
 2397 0000 F30F1EFA 		endbr64
 859:fltk-1.3.4-1/png/pngget.c ****    png_debug1(1, "in %s retrieval function", "pCAL");
 2398              		.loc 1 859 4 is_stmt 1 view .LVU735
 860:fltk-1.3.4-1/png/pngget.c **** 
 861:fltk-1.3.4-1/png/pngget.c ****    if (png_ptr != NULL && info_ptr != NULL &&
 2399              		.loc 1 861 4 view .LVU736
 2400              		.loc 1 861 7 is_stmt 0 view .LVU737
 2401 0004 4885FF   		testq	%rdi, %rdi
 2402 0007 0F84B300 		je	.L648
 2402      0000
 2403 000d 4885F6   		testq	%rsi, %rsi
 2404 0010 0F84AA00 		je	.L648
 2404      0000
 2405              		.loc 1 861 44 discriminator 1 view .LVU738
 2406 0016 8B4608   		movl	8(%rsi), %eax
 2407 0019 25000400 		andl	$1024, %eax
 2407      00
 2408 001e 0F849E00 		je	.L643
 2408      0000
 862:fltk-1.3.4-1/png/pngget.c ****        (info_ptr->valid & PNG_INFO_pCAL) != 0 &&
 863:fltk-1.3.4-1/png/pngget.c ****        purpose != NULL && X0 != NULL && X1 != NULL && type != NULL &&
 2409              		.loc 1 863 24 view .LVU739
 2410 0024 4885D2   		testq	%rdx, %rdx
 2411 0027 0F849300 		je	.L648
 2411      0000
 2412 002d 4885C9   		testq	%rcx, %rcx
 2413 0030 0F848A00 		je	.L648
 2413      0000
 2414              		.loc 1 863 52 discriminator 1 view .LVU740
 2415 0036 4D85C0   		testq	%r8, %r8
 2416 0039 0F848100 		je	.L648
 2416      0000
 2417 003f 4D85C9   		testq	%r9, %r9
 2418 0042 747C     		je	.L648
 864:fltk-1.3.4-1/png/pngget.c ****        nparams != NULL && units != NULL && params != NULL)
 2419              		.loc 1 864 16 view .LVU741
 2420 0044 48837C24 		cmpq	$0, 8(%rsp)
 2420      0800
 2421 004a 400F95C7 		setne	%dil
 2422              	.LVL117:
 2423              		.loc 1 864 33 view .LVU742
 2424 004e 48837C24 		cmpq	$0, 16(%rsp)
 2424      1000
 2425 0054 0F95C0   		setne	%al
 2426              		.loc 1 864 41 view .LVU743
 2427 0057 4084C7   		testb	%al, %dil
 2428 005a 7464     		je	.L648
 2429 005c 48837C24 		cmpq	$0, 24(%rsp)
 2429      1800
 2430 0062 745C     		je	.L648
 865:fltk-1.3.4-1/png/pngget.c ****    {
 866:fltk-1.3.4-1/png/pngget.c ****       *purpose = info_ptr->pcal_purpose;
 2431              		.loc 1 866 7 is_stmt 1 view .LVU744
 2432              		.loc 1 866 16 is_stmt 0 view .LVU745
 2433 0064 488B86F8 		movq	248(%rsi), %rax
 2433      000000
 867:fltk-1.3.4-1/png/pngget.c ****       *X0 = info_ptr->pcal_X0;
 868:fltk-1.3.4-1/png/pngget.c ****       *X1 = info_ptr->pcal_X1;
 869:fltk-1.3.4-1/png/pngget.c ****       *type = (int)info_ptr->pcal_type;
 870:fltk-1.3.4-1/png/pngget.c ****       *nparams = (int)info_ptr->pcal_nparams;
 2434              		.loc 1 870 18 view .LVU746
 2435 006b 488B7C24 		movq	8(%rsp), %rdi
 2435      08
 866:fltk-1.3.4-1/png/pngget.c ****       *X0 = info_ptr->pcal_X0;
 2436              		.loc 1 866 16 view .LVU747
 2437 0070 488902   		movq	%rax, (%rdx)
 867:fltk-1.3.4-1/png/pngget.c ****       *X0 = info_ptr->pcal_X0;
 2438              		.loc 1 867 7 is_stmt 1 view .LVU748
 867:fltk-1.3.4-1/png/pngget.c ****       *X0 = info_ptr->pcal_X0;
 2439              		.loc 1 867 11 is_stmt 0 view .LVU749
 2440 0073 8B860001 		movl	256(%rsi), %eax
 2440      0000
 2441 0079 8901     		movl	%eax, (%rcx)
 868:fltk-1.3.4-1/png/pngget.c ****       *type = (int)info_ptr->pcal_type;
 2442              		.loc 1 868 7 is_stmt 1 view .LVU750
 868:fltk-1.3.4-1/png/pngget.c ****       *type = (int)info_ptr->pcal_type;
 2443              		.loc 1 868 11 is_stmt 0 view .LVU751
 2444 007b 8B860401 		movl	260(%rsi), %eax
 2444      0000
 2445 0081 418900   		movl	%eax, (%r8)
 869:fltk-1.3.4-1/png/pngget.c ****       *nparams = (int)info_ptr->pcal_nparams;
 2446              		.loc 1 869 7 is_stmt 1 view .LVU752
 869:fltk-1.3.4-1/png/pngget.c ****       *nparams = (int)info_ptr->pcal_nparams;
 2447              		.loc 1 869 15 is_stmt 0 view .LVU753
 2448 0084 0FB68618 		movzbl	280(%rsi), %eax
 2448      010000
 2449 008b 418901   		movl	%eax, (%r9)
 2450              		.loc 1 870 7 is_stmt 1 view .LVU754
 2451              		.loc 1 870 18 is_stmt 0 view .LVU755
 2452 008e 0FB68619 		movzbl	281(%rsi), %eax
 2452      010000
 2453 0095 8907     		movl	%eax, (%rdi)
 871:fltk-1.3.4-1/png/pngget.c ****       *units = info_ptr->pcal_units;
 2454              		.loc 1 871 7 is_stmt 1 view .LVU756
 2455              		.loc 1 871 14 is_stmt 0 view .LVU757
 2456 0097 488B8608 		movq	264(%rsi), %rax
 2456      010000
 2457 009e 488B7C24 		movq	16(%rsp), %rdi
 2457      10
 2458 00a3 488907   		movq	%rax, (%rdi)
 872:fltk-1.3.4-1/png/pngget.c ****       *params = info_ptr->pcal_params;
 2459              		.loc 1 872 7 is_stmt 1 view .LVU758
 2460              		.loc 1 872 15 is_stmt 0 view .LVU759
 2461 00a6 488B8610 		movq	272(%rsi), %rax
 2461      010000
 2462 00ad 488B7C24 		movq	24(%rsp), %rdi
 2462      18
 2463 00b2 488907   		movq	%rax, (%rdi)
 873:fltk-1.3.4-1/png/pngget.c ****       return (PNG_INFO_pCAL);
 2464              		.loc 1 873 7 is_stmt 1 view .LVU760
 2465              		.loc 1 873 14 is_stmt 0 view .LVU761
 2466 00b5 B8000400 		movl	$1024, %eax
 2466      00
 2467 00ba C3       		ret
 2468 00bb 0F1F4400 		.p2align 4,,10
 2468      00
 2469              		.p2align 3
 2470              	.L648:
 874:fltk-1.3.4-1/png/pngget.c ****    }
 875:fltk-1.3.4-1/png/pngget.c **** 
 876:fltk-1.3.4-1/png/pngget.c ****    return (0);
 2471              		.loc 1 876 11 view .LVU762
 2472 00c0 31C0     		xorl	%eax, %eax
 2473              	.L643:
 877:fltk-1.3.4-1/png/pngget.c **** }
 2474              		.loc 1 877 1 view .LVU763
 2475 00c2 C3       		ret
 2476              		.cfi_endproc
 2477              	.LFE85:
 2479              		.section	.rodata.png_get_sCAL_fixed.str1.1,"aMS",@progbits,1
 2480              	.LC5:
 2481 0000 7343414C 		.string	"sCAL width"
 2481      20776964 
 2481      746800
 2482              	.LC6:
 2483 000b 7343414C 		.string	"sCAL height"
 2483      20686569 
 2483      67687400 
 2484              		.section	.text.png_get_sCAL_fixed,"ax",@progbits
 2485              		.p2align 4
 2486              		.globl	png_get_sCAL_fixed
 2488              	png_get_sCAL_fixed:
 2489              	.LVL118:
 2490              	.LFB86:
 878:fltk-1.3.4-1/png/pngget.c **** #endif
 879:fltk-1.3.4-1/png/pngget.c **** 
 880:fltk-1.3.4-1/png/pngget.c **** #ifdef PNG_sCAL_SUPPORTED
 881:fltk-1.3.4-1/png/pngget.c **** #  ifdef PNG_FIXED_POINT_SUPPORTED
 882:fltk-1.3.4-1/png/pngget.c **** #    if defined(PNG_FLOATING_ARITHMETIC_SUPPORTED) || \
 883:fltk-1.3.4-1/png/pngget.c ****          defined(PNG_FLOATING_POINT_SUPPORTED)
 884:fltk-1.3.4-1/png/pngget.c **** png_uint_32 PNGAPI
 885:fltk-1.3.4-1/png/pngget.c **** png_get_sCAL_fixed(png_const_structrp png_ptr, png_const_inforp info_ptr,
 886:fltk-1.3.4-1/png/pngget.c ****     int *unit, png_fixed_point *width, png_fixed_point *height)
 887:fltk-1.3.4-1/png/pngget.c **** {
 2491              		.loc 1 887 1 is_stmt 1 view -0
 2492              		.cfi_startproc
 2493              		.loc 1 887 1 is_stmt 0 view .LVU765
 2494 0000 F30F1EFA 		endbr64
 888:fltk-1.3.4-1/png/pngget.c ****    if (png_ptr != NULL && info_ptr != NULL &&
 2495              		.loc 1 888 4 is_stmt 1 view .LVU766
 2496              		.loc 1 888 7 is_stmt 0 view .LVU767
 2497 0004 4885FF   		testq	%rdi, %rdi
 2498 0007 0F848B00 		je	.L689
 2498      0000
 887:fltk-1.3.4-1/png/pngget.c ****    if (png_ptr != NULL && info_ptr != NULL &&
 2499              		.loc 1 887 1 view .LVU768
 2500 000d 55       		pushq	%rbp
 2501              		.cfi_def_cfa_offset 16
 2502              		.cfi_offset 6, -16
 889:fltk-1.3.4-1/png/pngget.c ****        (info_ptr->valid & PNG_INFO_sCAL) != 0)
 890:fltk-1.3.4-1/png/pngget.c ****    {
 891:fltk-1.3.4-1/png/pngget.c ****       *unit = info_ptr->scal_unit;
 892:fltk-1.3.4-1/png/pngget.c ****       /*TODO: make this work without FP support; the API is currently eliminated
 893:fltk-1.3.4-1/png/pngget.c ****        * if neither floating point APIs nor internal floating point arithmetic
 894:fltk-1.3.4-1/png/pngget.c ****        * are enabled.
 895:fltk-1.3.4-1/png/pngget.c ****        */
 896:fltk-1.3.4-1/png/pngget.c ****       *width = png_fixed(png_ptr, atof(info_ptr->scal_s_width), "sCAL width");
 897:fltk-1.3.4-1/png/pngget.c ****       *height = png_fixed(png_ptr, atof(info_ptr->scal_s_height),
 898:fltk-1.3.4-1/png/pngget.c ****          "sCAL height");
 899:fltk-1.3.4-1/png/pngget.c ****       return (PNG_INFO_sCAL);
 900:fltk-1.3.4-1/png/pngget.c ****    }
 901:fltk-1.3.4-1/png/pngget.c **** 
 902:fltk-1.3.4-1/png/pngget.c ****    return(0);
 2503              		.loc 1 902 10 view .LVU769
 2504 000e 31C0     		xorl	%eax, %eax
 887:fltk-1.3.4-1/png/pngget.c ****    if (png_ptr != NULL && info_ptr != NULL &&
 2505              		.loc 1 887 1 view .LVU770
 2506 0010 53       		pushq	%rbx
 2507              		.cfi_def_cfa_offset 24
 2508              		.cfi_offset 3, -24
 2509 0011 4889F3   		movq	%rsi, %rbx
 2510 0014 4883EC18 		subq	$24, %rsp
 2511              		.cfi_def_cfa_offset 48
 888:fltk-1.3.4-1/png/pngget.c ****        (info_ptr->valid & PNG_INFO_sCAL) != 0)
 2512              		.loc 1 888 7 view .LVU771
 2513 0018 4885F6   		testq	%rsi, %rsi
 2514 001b 740A     		je	.L676
 888:fltk-1.3.4-1/png/pngget.c ****        (info_ptr->valid & PNG_INFO_sCAL) != 0)
 2515              		.loc 1 888 44 discriminator 1 view .LVU772
 2516 001d 8B4608   		movl	8(%rsi), %eax
 2517 0020 25004000 		andl	$16384, %eax
 2517      00
 2518 0025 7509     		jne	.L693
 2519              	.LVL119:
 2520              	.L676:
 903:fltk-1.3.4-1/png/pngget.c **** }
 2521              		.loc 1 903 1 view .LVU773
 2522 0027 4883C418 		addq	$24, %rsp
 2523              		.cfi_remember_state
 2524              		.cfi_def_cfa_offset 24
 2525 002b 5B       		popq	%rbx
 2526              		.cfi_def_cfa_offset 16
 2527              	.LVL120:
 2528              		.loc 1 903 1 view .LVU774
 2529 002c 5D       		popq	%rbp
 2530              		.cfi_def_cfa_offset 8
 2531 002d C3       		ret
 2532              	.LVL121:
 2533 002e 6690     		.p2align 4,,10
 2534              		.p2align 3
 2535              	.L693:
 2536              		.cfi_restore_state
 891:fltk-1.3.4-1/png/pngget.c ****       /*TODO: make this work without FP support; the API is currently eliminated
 2537              		.loc 1 891 23 view .LVU775
 2538 0030 0FB6863C 		movzbl	316(%rsi), %eax
 2538      010000
 2539 0037 4889FD   		movq	%rdi, %rbp
 2540              	.LBB59:
 2541              	.LBB60:
 2542              		.file 2 "/usr/include/x86_64-linux-gnu/bits/stdlib-float.h"
   1:/usr/include/x86_64-linux-gnu/bits/stdlib-float.h **** /* Floating-point inline functions for stdlib.h.
   2:/usr/include/x86_64-linux-gnu/bits/stdlib-float.h ****    Copyright (C) 2012-2020 Free Software Foundation, Inc.
   3:/usr/include/x86_64-linux-gnu/bits/stdlib-float.h ****    This file is part of the GNU C Library.
   4:/usr/include/x86_64-linux-gnu/bits/stdlib-float.h **** 
   5:/usr/include/x86_64-linux-gnu/bits/stdlib-float.h ****    The GNU C Library is free software; you can redistribute it and/or
   6:/usr/include/x86_64-linux-gnu/bits/stdlib-float.h ****    modify it under the terms of the GNU Lesser General Public
   7:/usr/include/x86_64-linux-gnu/bits/stdlib-float.h ****    License as published by the Free Software Foundation; either
   8:/usr/include/x86_64-linux-gnu/bits/stdlib-float.h ****    version 2.1 of the License, or (at your option) any later version.
   9:/usr/include/x86_64-linux-gnu/bits/stdlib-float.h **** 
  10:/usr/include/x86_64-linux-gnu/bits/stdlib-float.h ****    The GNU C Library is distributed in the hope that it will be useful,
  11:/usr/include/x86_64-linux-gnu/bits/stdlib-float.h ****    but WITHOUT ANY WARRANTY; without even the implied warranty of
  12:/usr/include/x86_64-linux-gnu/bits/stdlib-float.h ****    MERCHANTABILITY or FITNESS FOR A PARTICULAR PURPOSE.  See the GNU
  13:/usr/include/x86_64-linux-gnu/bits/stdlib-float.h ****    Lesser General Public License for more details.
  14:/usr/include/x86_64-linux-gnu/bits/stdlib-float.h **** 
  15:/usr/include/x86_64-linux-gnu/bits/stdlib-float.h ****    You should have received a copy of the GNU Lesser General Public
  16:/usr/include/x86_64-linux-gnu/bits/stdlib-float.h ****    License along with the GNU C Library; if not, see
  17:/usr/include/x86_64-linux-gnu/bits/stdlib-float.h ****    <https://www.gnu.org/licenses/>.  */
  18:/usr/include/x86_64-linux-gnu/bits/stdlib-float.h **** 
  19:/usr/include/x86_64-linux-gnu/bits/stdlib-float.h **** #ifndef _STDLIB_H
  20:/usr/include/x86_64-linux-gnu/bits/stdlib-float.h **** # error "Never use <bits/stdlib-float.h> directly; include <stdlib.h> instead."
  21:/usr/include/x86_64-linux-gnu/bits/stdlib-float.h **** #endif
  22:/usr/include/x86_64-linux-gnu/bits/stdlib-float.h **** 
  23:/usr/include/x86_64-linux-gnu/bits/stdlib-float.h **** #ifdef __USE_EXTERN_INLINES
  24:/usr/include/x86_64-linux-gnu/bits/stdlib-float.h **** __extern_inline double
  25:/usr/include/x86_64-linux-gnu/bits/stdlib-float.h **** __NTH (atof (const char *__nptr))
  26:/usr/include/x86_64-linux-gnu/bits/stdlib-float.h **** {
  27:/usr/include/x86_64-linux-gnu/bits/stdlib-float.h ****   return strtod (__nptr, (char **) NULL);
 2543              		.loc 2 27 10 view .LVU776
 2544 003a 488BBE40 		movq	320(%rsi), %rdi
 2544      010000
 2545              	.LVL122:
 2546              		.loc 2 27 10 view .LVU777
 2547 0041 31F6     		xorl	%esi, %esi
 2548 0043 4C894424 		movq	%r8, 8(%rsp)
 2548      08
 2549              	.LBE60:
 2550              	.LBE59:
 891:fltk-1.3.4-1/png/pngget.c ****       /*TODO: make this work without FP support; the API is currently eliminated
 2551              		.loc 1 891 23 view .LVU778
 2552 0048 8902     		movl	%eax, (%rdx)
 2553 004a 48890C24 		movq	%rcx, (%rsp)
 891:fltk-1.3.4-1/png/pngget.c ****       /*TODO: make this work without FP support; the API is currently eliminated
 2554              		.loc 1 891 7 is_stmt 1 view .LVU779
 896:fltk-1.3.4-1/png/pngget.c ****       *height = png_fixed(png_ptr, atof(info_ptr->scal_s_height),
 2555              		.loc 1 896 7 view .LVU780
 2556              	.LBB62:
 2557              	.LBI59:
  25:/usr/include/x86_64-linux-gnu/bits/stdlib-float.h **** {
 2558              		.loc 2 25 1 view .LVU781
 2559              	.LBB61:
 2560              		.loc 2 27 3 view .LVU782
 2561              		.loc 2 27 10 is_stmt 0 view .LVU783
 2562 004e E8000000 		call	strtod@PLT
 2562      00
 2563              	.LVL123:
 2564              		.loc 2 27 10 view .LVU784
 2565              	.LBE61:
 2566              	.LBE62:
 896:fltk-1.3.4-1/png/pngget.c ****       *height = png_fixed(png_ptr, atof(info_ptr->scal_s_height),
 2567              		.loc 1 896 16 view .LVU785
 2568 0053 488D3500 		leaq	.LC5(%rip), %rsi
 2568      000000
 2569 005a 4889EF   		movq	%rbp, %rdi
 2570 005d E8000000 		call	png_fixed@PLT
 2570      00
 2571              	.LVL124:
 896:fltk-1.3.4-1/png/pngget.c ****       *height = png_fixed(png_ptr, atof(info_ptr->scal_s_height),
 2572              		.loc 1 896 14 view .LVU786
 2573 0062 488B0C24 		movq	(%rsp), %rcx
 2574              	.LBB63:
 2575              	.LBB64:
 2576              		.loc 2 27 10 view .LVU787
 2577 0066 488BBB48 		movq	328(%rbx), %rdi
 2577      010000
 2578 006d 31F6     		xorl	%esi, %esi
 2579              	.LBE64:
 2580              	.LBE63:
 896:fltk-1.3.4-1/png/pngget.c ****       *height = png_fixed(png_ptr, atof(info_ptr->scal_s_height),
 2581              		.loc 1 896 14 view .LVU788
 2582 006f 8901     		movl	%eax, (%rcx)
 897:fltk-1.3.4-1/png/pngget.c ****          "sCAL height");
 2583              		.loc 1 897 7 is_stmt 1 view .LVU789
 2584              	.LVL125:
 2585              	.LBB66:
 2586              	.LBI63:
  25:/usr/include/x86_64-linux-gnu/bits/stdlib-float.h **** {
 2587              		.loc 2 25 1 view .LVU790
 2588              	.LBB65:
 2589              		.loc 2 27 3 view .LVU791
 2590              		.loc 2 27 10 is_stmt 0 view .LVU792
 2591 0071 E8000000 		call	strtod@PLT
 2591      00
 2592              	.LVL126:
 2593              		.loc 2 27 10 view .LVU793
 2594              	.LBE65:
 2595              	.LBE66:
 897:fltk-1.3.4-1/png/pngget.c ****          "sCAL height");
 2596              		.loc 1 897 17 view .LVU794
 2597 0076 488D3500 		leaq	.LC6(%rip), %rsi
 2597      000000
 2598 007d 4889EF   		movq	%rbp, %rdi
 2599 0080 E8000000 		call	png_fixed@PLT
 2599      00
 2600              	.LVL127:
 897:fltk-1.3.4-1/png/pngget.c ****          "sCAL height");
 2601              		.loc 1 897 15 view .LVU795
 2602 0085 4C8B4424 		movq	8(%rsp), %r8
 2602      08
 2603 008a 418900   		movl	%eax, (%r8)
 899:fltk-1.3.4-1/png/pngget.c ****    }
 2604              		.loc 1 899 7 is_stmt 1 view .LVU796
 899:fltk-1.3.4-1/png/pngget.c ****    }
 2605              		.loc 1 899 14 is_stmt 0 view .LVU797
 2606 008d B8004000 		movl	$16384, %eax
 2606      00
 2607 0092 EB93     		jmp	.L676
 2608              	.LVL128:
 2609              		.p2align 4,,10
 2610 0094 0F1F4000 		.p2align 3
 2611              	.L689:
 2612              		.cfi_def_cfa_offset 8
 2613              		.cfi_restore 3
 2614              		.cfi_restore 6
 902:fltk-1.3.4-1/png/pngget.c **** }
 2615              		.loc 1 902 10 view .LVU798
 2616 0098 31C0     		xorl	%eax, %eax
 2617              		.loc 1 903 1 view .LVU799
 2618 009a C3       		ret
 2619              		.cfi_endproc
 2620              	.LFE86:
 2622              		.section	.text.png_get_sCAL,"ax",@progbits
 2623              		.p2align 4
 2624              		.globl	png_get_sCAL
 2626              	png_get_sCAL:
 2627              	.LVL129:
 2628              	.LFB87:
 904:fltk-1.3.4-1/png/pngget.c **** #    endif /* FLOATING_ARITHMETIC */
 905:fltk-1.3.4-1/png/pngget.c **** #  endif /* FIXED_POINT */
 906:fltk-1.3.4-1/png/pngget.c **** #  ifdef PNG_FLOATING_POINT_SUPPORTED
 907:fltk-1.3.4-1/png/pngget.c **** png_uint_32 PNGAPI
 908:fltk-1.3.4-1/png/pngget.c **** png_get_sCAL(png_const_structrp png_ptr, png_const_inforp info_ptr,
 909:fltk-1.3.4-1/png/pngget.c ****     int *unit, double *width, double *height)
 910:fltk-1.3.4-1/png/pngget.c **** {
 2629              		.loc 1 910 1 is_stmt 1 view -0
 2630              		.cfi_startproc
 2631              		.loc 1 910 1 is_stmt 0 view .LVU801
 2632 0000 F30F1EFA 		endbr64
 911:fltk-1.3.4-1/png/pngget.c ****    if (png_ptr != NULL && info_ptr != NULL &&
 2633              		.loc 1 911 4 is_stmt 1 view .LVU802
 2634              		.loc 1 911 7 is_stmt 0 view .LVU803
 2635 0004 4885FF   		testq	%rdi, %rdi
 2636 0007 7477     		je	.L707
 910:fltk-1.3.4-1/png/pngget.c ****    if (png_ptr != NULL && info_ptr != NULL &&
 2637              		.loc 1 910 1 view .LVU804
 2638 0009 53       		pushq	%rbx
 2639              		.cfi_def_cfa_offset 16
 2640              		.cfi_offset 3, -16
 912:fltk-1.3.4-1/png/pngget.c ****        (info_ptr->valid & PNG_INFO_sCAL) != 0)
 913:fltk-1.3.4-1/png/pngget.c ****    {
 914:fltk-1.3.4-1/png/pngget.c ****       *unit = info_ptr->scal_unit;
 915:fltk-1.3.4-1/png/pngget.c ****       *width = atof(info_ptr->scal_s_width);
 916:fltk-1.3.4-1/png/pngget.c ****       *height = atof(info_ptr->scal_s_height);
 917:fltk-1.3.4-1/png/pngget.c ****       return (PNG_INFO_sCAL);
 918:fltk-1.3.4-1/png/pngget.c ****    }
 919:fltk-1.3.4-1/png/pngget.c **** 
 920:fltk-1.3.4-1/png/pngget.c ****    return(0);
 2641              		.loc 1 920 10 view .LVU805
 2642 000a 31C0     		xorl	%eax, %eax
 2643 000c 4889F3   		movq	%rsi, %rbx
 910:fltk-1.3.4-1/png/pngget.c ****    if (png_ptr != NULL && info_ptr != NULL &&
 2644              		.loc 1 910 1 view .LVU806
 2645 000f 4883EC10 		subq	$16, %rsp
 2646              		.cfi_def_cfa_offset 32
 911:fltk-1.3.4-1/png/pngget.c ****        (info_ptr->valid & PNG_INFO_sCAL) != 0)
 2647              		.loc 1 911 7 view .LVU807
 2648 0013 4885F6   		testq	%rsi, %rsi
 2649 0016 740A     		je	.L694
 911:fltk-1.3.4-1/png/pngget.c ****        (info_ptr->valid & PNG_INFO_sCAL) != 0)
 2650              		.loc 1 911 44 discriminator 1 view .LVU808
 2651 0018 8B4608   		movl	8(%rsi), %eax
 2652 001b 25004000 		andl	$16384, %eax
 2652      00
 2653 0020 750E     		jne	.L711
 2654              	.LVL130:
 2655              	.L694:
 921:fltk-1.3.4-1/png/pngget.c **** }
 2656              		.loc 1 921 1 view .LVU809
 2657 0022 4883C410 		addq	$16, %rsp
 2658              		.cfi_remember_state
 2659              		.cfi_def_cfa_offset 16
 2660 0026 5B       		popq	%rbx
 2661              		.cfi_def_cfa_offset 8
 2662              	.LVL131:
 2663              		.loc 1 921 1 view .LVU810
 2664 0027 C3       		ret
 2665              	.LVL132:
 2666 0028 0F1F8400 		.p2align 4,,10
 2666      00000000 
 2667              		.p2align 3
 2668              	.L711:
 2669              		.cfi_restore_state
 914:fltk-1.3.4-1/png/pngget.c ****       *width = atof(info_ptr->scal_s_width);
 2670              		.loc 1 914 23 view .LVU811
 2671 0030 0FB6863C 		movzbl	316(%rsi), %eax
 2671      010000
 2672              	.LBB67:
 2673              	.LBB68:
 2674              		.loc 2 27 10 view .LVU812
 2675 0037 488BBE40 		movq	320(%rsi), %rdi
 2675      010000
 2676              	.LVL133:
 2677              		.loc 2 27 10 view .LVU813
 2678 003e 31F6     		xorl	%esi, %esi
 2679 0040 4C894424 		movq	%r8, 8(%rsp)
 2679      08
 2680 0045 48890C24 		movq	%rcx, (%rsp)
 2681              	.LBE68:
 2682              	.LBE67:
 914:fltk-1.3.4-1/png/pngget.c ****       *width = atof(info_ptr->scal_s_width);
 2683              		.loc 1 914 7 is_stmt 1 view .LVU814
 914:fltk-1.3.4-1/png/pngget.c ****       *width = atof(info_ptr->scal_s_width);
 2684              		.loc 1 914 23 is_stmt 0 view .LVU815
 2685 0049 8902     		movl	%eax, (%rdx)
 915:fltk-1.3.4-1/png/pngget.c ****       *height = atof(info_ptr->scal_s_height);
 2686              		.loc 1 915 7 is_stmt 1 view .LVU816
 2687              	.LBB70:
 2688              	.LBI67:
  25:/usr/include/x86_64-linux-gnu/bits/stdlib-float.h **** {
 2689              		.loc 2 25 1 view .LVU817
 2690              	.LBB69:
 2691              		.loc 2 27 3 view .LVU818
 2692              		.loc 2 27 10 is_stmt 0 view .LVU819
 2693 004b E8000000 		call	strtod@PLT
 2693      00
 2694              	.LVL134:
 2695              		.loc 2 27 10 view .LVU820
 2696              	.LBE69:
 2697              	.LBE70:
 915:fltk-1.3.4-1/png/pngget.c ****       *height = atof(info_ptr->scal_s_height);
 2698              		.loc 1 915 14 view .LVU821
 2699 0050 488B0C24 		movq	(%rsp), %rcx
 2700              	.LBB71:
 2701              	.LBB72:
 2702              		.loc 2 27 10 view .LVU822
 2703 0054 488BBB48 		movq	328(%rbx), %rdi
 2703      010000
 2704 005b 31F6     		xorl	%esi, %esi
 2705              	.LBE72:
 2706              	.LBE71:
 915:fltk-1.3.4-1/png/pngget.c ****       *height = atof(info_ptr->scal_s_height);
 2707              		.loc 1 915 14 view .LVU823
 2708 005d F20F1101 		movsd	%xmm0, (%rcx)
 916:fltk-1.3.4-1/png/pngget.c ****       return (PNG_INFO_sCAL);
 2709              		.loc 1 916 7 is_stmt 1 view .LVU824
 2710              	.LVL135:
 2711              	.LBB74:
 2712              	.LBI71:
  25:/usr/include/x86_64-linux-gnu/bits/stdlib-float.h **** {
 2713              		.loc 2 25 1 view .LVU825
 2714              	.LBB73:
 2715              		.loc 2 27 3 view .LVU826
 2716              		.loc 2 27 10 is_stmt 0 view .LVU827
 2717 0061 E8000000 		call	strtod@PLT
 2717      00
 2718              	.LVL136:
 2719              		.loc 2 27 10 view .LVU828
 2720              	.LBE73:
 2721              	.LBE74:
 916:fltk-1.3.4-1/png/pngget.c ****       return (PNG_INFO_sCAL);
 2722              		.loc 1 916 15 view .LVU829
 2723 0066 4C8B4424 		movq	8(%rsp), %r8
 2723      08
 917:fltk-1.3.4-1/png/pngget.c ****    }
 2724              		.loc 1 917 14 view .LVU830
 2725 006b B8004000 		movl	$16384, %eax
 2725      00
 916:fltk-1.3.4-1/png/pngget.c ****       return (PNG_INFO_sCAL);
 2726              		.loc 1 916 15 view .LVU831
 2727 0070 F2410F11 		movsd	%xmm0, (%r8)
 2727      00
 917:fltk-1.3.4-1/png/pngget.c ****    }
 2728              		.loc 1 917 7 is_stmt 1 view .LVU832
 917:fltk-1.3.4-1/png/pngget.c ****    }
 2729              		.loc 1 917 14 is_stmt 0 view .LVU833
 2730 0075 EBAB     		jmp	.L694
 2731              	.LVL137:
 2732 0077 660F1F84 		.p2align 4,,10
 2732      00000000 
 2732      00
 2733              		.p2align 3
 2734              	.L707:
 2735              		.cfi_def_cfa_offset 8
 2736              		.cfi_restore 3
 920:fltk-1.3.4-1/png/pngget.c **** }
 2737              		.loc 1 920 10 view .LVU834
 2738 0080 31C0     		xorl	%eax, %eax
 2739              		.loc 1 921 1 view .LVU835
 2740 0082 C3       		ret
 2741              		.cfi_endproc
 2742              	.LFE87:
 2744              		.section	.text.png_get_sCAL_s,"ax",@progbits
 2745              		.p2align 4
 2746              		.globl	png_get_sCAL_s
 2748              	png_get_sCAL_s:
 2749              	.LVL138:
 2750              	.LFB88:
 922:fltk-1.3.4-1/png/pngget.c **** #  endif /* FLOATING POINT */
 923:fltk-1.3.4-1/png/pngget.c **** png_uint_32 PNGAPI
 924:fltk-1.3.4-1/png/pngget.c **** png_get_sCAL_s(png_const_structrp png_ptr, png_const_inforp info_ptr,
 925:fltk-1.3.4-1/png/pngget.c ****     int *unit, png_charpp width, png_charpp height)
 926:fltk-1.3.4-1/png/pngget.c **** {
 2751              		.loc 1 926 1 is_stmt 1 view -0
 2752              		.cfi_startproc
 2753              		.loc 1 926 1 is_stmt 0 view .LVU837
 2754 0000 F30F1EFA 		endbr64
 927:fltk-1.3.4-1/png/pngget.c ****    if (png_ptr != NULL && info_ptr != NULL &&
 2755              		.loc 1 927 4 is_stmt 1 view .LVU838
 2756              		.loc 1 927 7 is_stmt 0 view .LVU839
 2757 0004 4885FF   		testq	%rdi, %rdi
 2758 0007 7417     		je	.L714
 2759 0009 4885F6   		testq	%rsi, %rsi
 2760 000c 7412     		je	.L714
 2761              		.loc 1 927 44 discriminator 1 view .LVU840
 2762 000e 8B4608   		movl	8(%rsi), %eax
 2763 0011 25004000 		andl	$16384, %eax
 2763      00
 2764 0016 7510     		jne	.L724
 928:fltk-1.3.4-1/png/pngget.c ****        (info_ptr->valid & PNG_INFO_sCAL) != 0)
 929:fltk-1.3.4-1/png/pngget.c ****    {
 930:fltk-1.3.4-1/png/pngget.c ****       *unit = info_ptr->scal_unit;
 931:fltk-1.3.4-1/png/pngget.c ****       *width = info_ptr->scal_s_width;
 932:fltk-1.3.4-1/png/pngget.c ****       *height = info_ptr->scal_s_height;
 933:fltk-1.3.4-1/png/pngget.c ****       return (PNG_INFO_sCAL);
 934:fltk-1.3.4-1/png/pngget.c ****    }
 935:fltk-1.3.4-1/png/pngget.c **** 
 936:fltk-1.3.4-1/png/pngget.c ****    return(0);
 937:fltk-1.3.4-1/png/pngget.c **** }
 2765              		.loc 1 937 1 view .LVU841
 2766 0018 C3       		ret
 2767 0019 0F1F8000 		.p2align 4,,10
 2767      000000
 2768              		.p2align 3
 2769              	.L714:
 936:fltk-1.3.4-1/png/pngget.c **** }
 2770              		.loc 1 936 10 view .LVU842
 2771 0020 31C0     		xorl	%eax, %eax
 2772              		.loc 1 937 1 view .LVU843
 2773 0022 C3       		ret
 2774              		.p2align 4,,10
 2775 0023 0F1F4400 		.p2align 3
 2775      00
 2776              	.L724:
 930:fltk-1.3.4-1/png/pngget.c ****       *width = info_ptr->scal_s_width;
 2777              		.loc 1 930 7 is_stmt 1 view .LVU844
 930:fltk-1.3.4-1/png/pngget.c ****       *width = info_ptr->scal_s_width;
 2778              		.loc 1 930 23 is_stmt 0 view .LVU845
 2779 0028 0FB6863C 		movzbl	316(%rsi), %eax
 2779      010000
 2780 002f 8902     		movl	%eax, (%rdx)
 931:fltk-1.3.4-1/png/pngget.c ****       *height = info_ptr->scal_s_height;
 2781              		.loc 1 931 7 is_stmt 1 view .LVU846
 931:fltk-1.3.4-1/png/pngget.c ****       *height = info_ptr->scal_s_height;
 2782              		.loc 1 931 14 is_stmt 0 view .LVU847
 2783 0031 488B8640 		movq	320(%rsi), %rax
 2783      010000
 2784 0038 488901   		movq	%rax, (%rcx)
 932:fltk-1.3.4-1/png/pngget.c ****       return (PNG_INFO_sCAL);
 2785              		.loc 1 932 7 is_stmt 1 view .LVU848
 932:fltk-1.3.4-1/png/pngget.c ****       return (PNG_INFO_sCAL);
 2786              		.loc 1 932 15 is_stmt 0 view .LVU849
 2787 003b 488B8648 		movq	328(%rsi), %rax
 2787      010000
 2788 0042 498900   		movq	%rax, (%r8)
 933:fltk-1.3.4-1/png/pngget.c ****    }
 2789              		.loc 1 933 7 is_stmt 1 view .LVU850
 933:fltk-1.3.4-1/png/pngget.c ****    }
 2790              		.loc 1 933 14 is_stmt 0 view .LVU851
 2791 0045 B8004000 		movl	$16384, %eax
 2791      00
 2792 004a C3       		ret
 2793              		.cfi_endproc
 2794              	.LFE88:
 2796              		.section	.text.png_get_pHYs,"ax",@progbits
 2797              		.p2align 4
 2798              		.globl	png_get_pHYs
 2800              	png_get_pHYs:
 2801              	.LVL139:
 2802              	.LFB89:
 938:fltk-1.3.4-1/png/pngget.c **** #endif /* sCAL */
 939:fltk-1.3.4-1/png/pngget.c **** 
 940:fltk-1.3.4-1/png/pngget.c **** #ifdef PNG_pHYs_SUPPORTED
 941:fltk-1.3.4-1/png/pngget.c **** png_uint_32 PNGAPI
 942:fltk-1.3.4-1/png/pngget.c **** png_get_pHYs(png_const_structrp png_ptr, png_const_inforp info_ptr,
 943:fltk-1.3.4-1/png/pngget.c ****     png_uint_32 *res_x, png_uint_32 *res_y, int *unit_type)
 944:fltk-1.3.4-1/png/pngget.c **** {
 2803              		.loc 1 944 1 is_stmt 1 view -0
 2804              		.cfi_startproc
 2805              		.loc 1 944 1 is_stmt 0 view .LVU853
 2806 0000 F30F1EFA 		endbr64
 945:fltk-1.3.4-1/png/pngget.c ****    png_uint_32 retval = 0;
 2807              		.loc 1 945 4 is_stmt 1 view .LVU854
 2808              	.LVL140:
 946:fltk-1.3.4-1/png/pngget.c **** 
 947:fltk-1.3.4-1/png/pngget.c ****    png_debug1(1, "in %s retrieval function", "pHYs");
 2809              		.loc 1 947 4 view .LVU855
 948:fltk-1.3.4-1/png/pngget.c **** 
 949:fltk-1.3.4-1/png/pngget.c ****    if (png_ptr != NULL && info_ptr != NULL &&
 2810              		.loc 1 949 4 view .LVU856
 2811              		.loc 1 949 7 is_stmt 0 view .LVU857
 2812 0004 4885FF   		testq	%rdi, %rdi
 2813 0007 744F     		je	.L729
 2814 0009 4885F6   		testq	%rsi, %rsi
 2815 000c 744A     		je	.L729
 2816              		.loc 1 949 44 discriminator 1 view .LVU858
 2817 000e 8B4608   		movl	8(%rsi), %eax
 2818 0011 25800000 		andl	$128, %eax
 2818      00
 2819 0016 7442     		je	.L725
 950:fltk-1.3.4-1/png/pngget.c ****        (info_ptr->valid & PNG_INFO_pHYs) != 0)
 951:fltk-1.3.4-1/png/pngget.c ****    {
 952:fltk-1.3.4-1/png/pngget.c ****       if (res_x != NULL)
 2820              		.loc 1 952 7 is_stmt 1 view .LVU859
 945:fltk-1.3.4-1/png/pngget.c **** 
 2821              		.loc 1 945 16 is_stmt 0 view .LVU860
 2822 0018 31C0     		xorl	%eax, %eax
 2823              		.loc 1 952 10 view .LVU861
 2824 001a 4885D2   		testq	%rdx, %rdx
 2825 001d 740D     		je	.L727
 953:fltk-1.3.4-1/png/pngget.c ****       {
 954:fltk-1.3.4-1/png/pngget.c ****          *res_x = info_ptr->x_pixels_per_unit;
 2826              		.loc 1 954 10 is_stmt 1 view .LVU862
 2827              		.loc 1 954 17 is_stmt 0 view .LVU863
 2828 001f 8B86E000 		movl	224(%rsi), %eax
 2828      0000
 2829 0025 8902     		movl	%eax, (%rdx)
 955:fltk-1.3.4-1/png/pngget.c ****          retval |= PNG_INFO_pHYs;
 2830              		.loc 1 955 10 is_stmt 1 view .LVU864
 2831              	.LVL141:
 2832              		.loc 1 955 17 is_stmt 0 view .LVU865
 2833 0027 B8800000 		movl	$128, %eax
 2833      00
 2834              	.LVL142:
 2835              	.L727:
 956:fltk-1.3.4-1/png/pngget.c ****       }
 957:fltk-1.3.4-1/png/pngget.c **** 
 958:fltk-1.3.4-1/png/pngget.c ****       if (res_y != NULL)
 2836              		.loc 1 958 7 is_stmt 1 view .LVU866
 2837              		.loc 1 958 10 is_stmt 0 view .LVU867
 2838 002c 4885C9   		testq	%rcx, %rcx
 2839 002f 740D     		je	.L728
 959:fltk-1.3.4-1/png/pngget.c ****       {
 960:fltk-1.3.4-1/png/pngget.c ****          *res_y = info_ptr->y_pixels_per_unit;
 2840              		.loc 1 960 10 is_stmt 1 view .LVU868
 2841              		.loc 1 960 17 is_stmt 0 view .LVU869
 2842 0031 8B86E400 		movl	228(%rsi), %eax
 2842      0000
 2843              	.LVL143:
 2844              		.loc 1 960 17 view .LVU870
 2845 0037 8901     		movl	%eax, (%rcx)
 961:fltk-1.3.4-1/png/pngget.c ****          retval |= PNG_INFO_pHYs;
 2846              		.loc 1 961 10 is_stmt 1 view .LVU871
 2847              	.LVL144:
 2848              		.loc 1 961 17 is_stmt 0 view .LVU872
 2849 0039 B8800000 		movl	$128, %eax
 2849      00
 2850              	.LVL145:
 2851              	.L728:
 962:fltk-1.3.4-1/png/pngget.c ****       }
 963:fltk-1.3.4-1/png/pngget.c **** 
 964:fltk-1.3.4-1/png/pngget.c ****       if (unit_type != NULL)
 2852              		.loc 1 964 7 is_stmt 1 view .LVU873
 2853              		.loc 1 964 10 is_stmt 0 view .LVU874
 2854 003e 4D85C0   		testq	%r8, %r8
 2855 0041 7417     		je	.L725
 965:fltk-1.3.4-1/png/pngget.c ****       {
 966:fltk-1.3.4-1/png/pngget.c ****          *unit_type = (int)info_ptr->phys_unit_type;
 2856              		.loc 1 966 10 is_stmt 1 view .LVU875
 2857              		.loc 1 966 23 is_stmt 0 view .LVU876
 2858 0043 0FB686E8 		movzbl	232(%rsi), %eax
 2858      000000
 2859              	.LVL146:
 2860              		.loc 1 966 23 view .LVU877
 2861 004a 418900   		movl	%eax, (%r8)
 967:fltk-1.3.4-1/png/pngget.c ****          retval |= PNG_INFO_pHYs;
 2862              		.loc 1 967 10 is_stmt 1 view .LVU878
 2863              	.LVL147:
 2864              		.loc 1 967 17 is_stmt 0 view .LVU879
 2865 004d B8800000 		movl	$128, %eax
 2865      00
 2866 0052 C3       		ret
 2867              	.LVL148:
 2868              		.p2align 4,,10
 2869 0053 0F1F4400 		.p2align 3
 2869      00
 2870              	.L729:
 945:fltk-1.3.4-1/png/pngget.c **** 
 2871              		.loc 1 945 16 view .LVU880
 2872 0058 31C0     		xorl	%eax, %eax
 968:fltk-1.3.4-1/png/pngget.c ****       }
 969:fltk-1.3.4-1/png/pngget.c ****    }
 970:fltk-1.3.4-1/png/pngget.c **** 
 971:fltk-1.3.4-1/png/pngget.c ****    return (retval);
 2873              		.loc 1 971 4 is_stmt 1 view .LVU881
 2874              	.LVL149:
 2875              	.L725:
 972:fltk-1.3.4-1/png/pngget.c **** }
 2876              		.loc 1 972 1 is_stmt 0 view .LVU882
 2877 005a C3       		ret
 2878              		.cfi_endproc
 2879              	.LFE89:
 2881              		.section	.text.png_get_PLTE,"ax",@progbits
 2882              		.p2align 4
 2883              		.globl	png_get_PLTE
 2885              	png_get_PLTE:
 2886              	.LVL150:
 2887              	.LFB90:
 973:fltk-1.3.4-1/png/pngget.c **** #endif /* pHYs */
 974:fltk-1.3.4-1/png/pngget.c **** 
 975:fltk-1.3.4-1/png/pngget.c **** png_uint_32 PNGAPI
 976:fltk-1.3.4-1/png/pngget.c **** png_get_PLTE(png_const_structrp png_ptr, png_inforp info_ptr,
 977:fltk-1.3.4-1/png/pngget.c ****     png_colorp *palette, int *num_palette)
 978:fltk-1.3.4-1/png/pngget.c **** {
 2888              		.loc 1 978 1 is_stmt 1 view -0
 2889              		.cfi_startproc
 2890              		.loc 1 978 1 is_stmt 0 view .LVU884
 2891 0000 F30F1EFA 		endbr64
 979:fltk-1.3.4-1/png/pngget.c ****    png_debug1(1, "in %s retrieval function", "PLTE");
 2892              		.loc 1 979 4 is_stmt 1 view .LVU885
 980:fltk-1.3.4-1/png/pngget.c **** 
 981:fltk-1.3.4-1/png/pngget.c ****    if (png_ptr != NULL && info_ptr != NULL &&
 2893              		.loc 1 981 4 view .LVU886
 2894              		.loc 1 981 7 is_stmt 0 view .LVU887
 2895 0004 4885FF   		testq	%rdi, %rdi
 2896 0007 7410     		je	.L750
 2897 0009 4885F6   		testq	%rsi, %rsi
 2898 000c 740B     		je	.L750
 982:fltk-1.3.4-1/png/pngget.c ****        (info_ptr->valid & PNG_INFO_PLTE) != 0 && palette != NULL)
 2899              		.loc 1 982 47 discriminator 1 view .LVU888
 2900 000e F6460808 		testb	$8, 8(%rsi)
 2901 0012 7405     		je	.L750
 2902 0014 4885D2   		testq	%rdx, %rdx
 2903 0017 7507     		jne	.L763
 2904              	.L750:
 983:fltk-1.3.4-1/png/pngget.c ****    {
 984:fltk-1.3.4-1/png/pngget.c ****       *palette = info_ptr->palette;
 985:fltk-1.3.4-1/png/pngget.c ****       *num_palette = info_ptr->num_palette;
 986:fltk-1.3.4-1/png/pngget.c ****       png_debug1(3, "num_palette = %d", *num_palette);
 987:fltk-1.3.4-1/png/pngget.c ****       return (PNG_INFO_PLTE);
 988:fltk-1.3.4-1/png/pngget.c ****    }
 989:fltk-1.3.4-1/png/pngget.c **** 
 990:fltk-1.3.4-1/png/pngget.c ****    return (0);
 2905              		.loc 1 990 11 view .LVU889
 2906 0019 31C0     		xorl	%eax, %eax
 991:fltk-1.3.4-1/png/pngget.c **** }
 2907              		.loc 1 991 1 view .LVU890
 2908 001b C3       		ret
 2909 001c 0F1F4000 		.p2align 4,,10
 2910              		.p2align 3
 2911              	.L763:
 984:fltk-1.3.4-1/png/pngget.c ****       *num_palette = info_ptr->num_palette;
 2912              		.loc 1 984 7 is_stmt 1 view .LVU891
 984:fltk-1.3.4-1/png/pngget.c ****       *num_palette = info_ptr->num_palette;
 2913              		.loc 1 984 16 is_stmt 0 view .LVU892
 2914 0020 488B4618 		movq	24(%rsi), %rax
 2915 0024 488902   		movq	%rax, (%rdx)
 985:fltk-1.3.4-1/png/pngget.c ****       png_debug1(3, "num_palette = %d", *num_palette);
 2916              		.loc 1 985 7 is_stmt 1 view .LVU893
 985:fltk-1.3.4-1/png/pngget.c ****       png_debug1(3, "num_palette = %d", *num_palette);
 2917              		.loc 1 985 30 is_stmt 0 view .LVU894
 2918 0027 0FB74620 		movzwl	32(%rsi), %eax
 2919 002b 8901     		movl	%eax, (%rcx)
 986:fltk-1.3.4-1/png/pngget.c ****       return (PNG_INFO_PLTE);
 2920              		.loc 1 986 7 is_stmt 1 view .LVU895
 987:fltk-1.3.4-1/png/pngget.c ****    }
 2921              		.loc 1 987 7 view .LVU896
 987:fltk-1.3.4-1/png/pngget.c ****    }
 2922              		.loc 1 987 14 is_stmt 0 view .LVU897
 2923 002d B8080000 		movl	$8, %eax
 2923      00
 2924 0032 C3       		ret
 2925              		.cfi_endproc
 2926              	.LFE90:
 2928              		.section	.text.png_get_sBIT,"ax",@progbits
 2929              		.p2align 4
 2930              		.globl	png_get_sBIT
 2932              	png_get_sBIT:
 2933              	.LVL151:
 2934              	.LFB91:
 992:fltk-1.3.4-1/png/pngget.c **** 
 993:fltk-1.3.4-1/png/pngget.c **** #ifdef PNG_sBIT_SUPPORTED
 994:fltk-1.3.4-1/png/pngget.c **** png_uint_32 PNGAPI
 995:fltk-1.3.4-1/png/pngget.c **** png_get_sBIT(png_const_structrp png_ptr, png_inforp info_ptr,
 996:fltk-1.3.4-1/png/pngget.c ****     png_color_8p *sig_bit)
 997:fltk-1.3.4-1/png/pngget.c **** {
 2935              		.loc 1 997 1 is_stmt 1 view -0
 2936              		.cfi_startproc
 2937              		.loc 1 997 1 is_stmt 0 view .LVU899
 2938 0000 F30F1EFA 		endbr64
 998:fltk-1.3.4-1/png/pngget.c ****    png_debug1(1, "in %s retrieval function", "sBIT");
 2939              		.loc 1 998 4 is_stmt 1 view .LVU900
 999:fltk-1.3.4-1/png/pngget.c **** 
1000:fltk-1.3.4-1/png/pngget.c ****    if (png_ptr != NULL && info_ptr != NULL &&
 2940              		.loc 1 1000 4 view .LVU901
 2941              		.loc 1 1000 7 is_stmt 0 view .LVU902
 2942 0004 4885FF   		testq	%rdi, %rdi
 2943 0007 7410     		je	.L767
 2944 0009 4885F6   		testq	%rsi, %rsi
 2945 000c 740B     		je	.L767
1001:fltk-1.3.4-1/png/pngget.c ****        (info_ptr->valid & PNG_INFO_sBIT) != 0 && sig_bit != NULL)
 2946              		.loc 1 1001 47 discriminator 1 view .LVU903
 2947 000e F6460802 		testb	$2, 8(%rsi)
 2948 0012 7405     		je	.L767
 2949 0014 4885D2   		testq	%rdx, %rdx
 2950 0017 7507     		jne	.L780
 2951              	.L767:
1002:fltk-1.3.4-1/png/pngget.c ****    {
1003:fltk-1.3.4-1/png/pngget.c ****       *sig_bit = &(info_ptr->sig_bit);
1004:fltk-1.3.4-1/png/pngget.c ****       return (PNG_INFO_sBIT);
1005:fltk-1.3.4-1/png/pngget.c ****    }
1006:fltk-1.3.4-1/png/pngget.c **** 
1007:fltk-1.3.4-1/png/pngget.c ****    return (0);
 2952              		.loc 1 1007 11 view .LVU904
 2953 0019 31C0     		xorl	%eax, %eax
1008:fltk-1.3.4-1/png/pngget.c **** }
 2954              		.loc 1 1008 1 view .LVU905
 2955 001b C3       		ret
 2956 001c 0F1F4000 		.p2align 4,,10
 2957              		.p2align 3
 2958              	.L780:
1003:fltk-1.3.4-1/png/pngget.c ****       return (PNG_INFO_sBIT);
 2959              		.loc 1 1003 7 is_stmt 1 view .LVU906
1003:fltk-1.3.4-1/png/pngget.c ****       return (PNG_INFO_sBIT);
 2960              		.loc 1 1003 18 is_stmt 0 view .LVU907
 2961 0020 4881C6B0 		addq	$176, %rsi
 2961      000000
 2962              	.LVL152:
1004:fltk-1.3.4-1/png/pngget.c ****    }
 2963              		.loc 1 1004 14 view .LVU908
 2964 0027 B8020000 		movl	$2, %eax
 2964      00
1003:fltk-1.3.4-1/png/pngget.c ****       return (PNG_INFO_sBIT);
 2965              		.loc 1 1003 18 view .LVU909
 2966 002c 488932   		movq	%rsi, (%rdx)
1004:fltk-1.3.4-1/png/pngget.c ****    }
 2967              		.loc 1 1004 7 is_stmt 1 view .LVU910
1004:fltk-1.3.4-1/png/pngget.c ****    }
 2968              		.loc 1 1004 14 is_stmt 0 view .LVU911
 2969 002f C3       		ret
 2970              		.cfi_endproc
 2971              	.LFE91:
 2973              		.section	.text.png_get_text,"ax",@progbits
 2974              		.p2align 4
 2975              		.globl	png_get_text
 2977              	png_get_text:
 2978              	.LVL153:
 2979              	.LFB92:
1009:fltk-1.3.4-1/png/pngget.c **** #endif
1010:fltk-1.3.4-1/png/pngget.c **** 
1011:fltk-1.3.4-1/png/pngget.c **** #ifdef PNG_TEXT_SUPPORTED
1012:fltk-1.3.4-1/png/pngget.c **** int PNGAPI
1013:fltk-1.3.4-1/png/pngget.c **** png_get_text(png_const_structrp png_ptr, png_inforp info_ptr,
1014:fltk-1.3.4-1/png/pngget.c ****     png_textp *text_ptr, int *num_text)
1015:fltk-1.3.4-1/png/pngget.c **** {
 2980              		.loc 1 1015 1 is_stmt 1 view -0
 2981              		.cfi_startproc
 2982              		.loc 1 1015 1 is_stmt 0 view .LVU913
 2983 0000 F30F1EFA 		endbr64
1016:fltk-1.3.4-1/png/pngget.c ****    if (png_ptr != NULL && info_ptr != NULL && info_ptr->num_text > 0)
 2984              		.loc 1 1016 4 is_stmt 1 view .LVU914
 2985              		.loc 1 1016 7 is_stmt 0 view .LVU915
 2986 0004 4885FF   		testq	%rdi, %rdi
 2987 0007 740F     		je	.L782
 2988 0009 4885F6   		testq	%rsi, %rsi
 2989 000c 740A     		je	.L782
 2990              		.loc 1 1016 55 discriminator 1 view .LVU916
 2991 000e 8B869400 		movl	148(%rsi), %eax
 2991      0000
 2992              		.loc 1 1016 44 discriminator 1 view .LVU917
 2993 0014 85C0     		testl	%eax, %eax
 2994 0016 7F18     		jg	.L799
 2995              	.L782:
1017:fltk-1.3.4-1/png/pngget.c ****    {
1018:fltk-1.3.4-1/png/pngget.c ****       png_debug1(1, "in 0x%lx retrieval function",
1019:fltk-1.3.4-1/png/pngget.c ****          (unsigned long)png_ptr->chunk_name);
1020:fltk-1.3.4-1/png/pngget.c **** 
1021:fltk-1.3.4-1/png/pngget.c ****       if (text_ptr != NULL)
1022:fltk-1.3.4-1/png/pngget.c ****          *text_ptr = info_ptr->text;
1023:fltk-1.3.4-1/png/pngget.c **** 
1024:fltk-1.3.4-1/png/pngget.c ****       if (num_text != NULL)
1025:fltk-1.3.4-1/png/pngget.c ****          *num_text = info_ptr->num_text;
1026:fltk-1.3.4-1/png/pngget.c **** 
1027:fltk-1.3.4-1/png/pngget.c ****       return info_ptr->num_text;
1028:fltk-1.3.4-1/png/pngget.c ****    }
1029:fltk-1.3.4-1/png/pngget.c **** 
1030:fltk-1.3.4-1/png/pngget.c ****    if (num_text != NULL)
 2996              		.loc 1 1030 4 is_stmt 1 view .LVU918
1031:fltk-1.3.4-1/png/pngget.c ****       *num_text = 0;
1032:fltk-1.3.4-1/png/pngget.c **** 
1033:fltk-1.3.4-1/png/pngget.c ****    return(0);
 2997              		.loc 1 1033 10 is_stmt 0 view .LVU919
 2998 0018 31C0     		xorl	%eax, %eax
1030:fltk-1.3.4-1/png/pngget.c ****       *num_text = 0;
 2999              		.loc 1 1030 7 view .LVU920
 3000 001a 4885C9   		testq	%rcx, %rcx
 3001 001d 7406     		je	.L781
1031:fltk-1.3.4-1/png/pngget.c ****       *num_text = 0;
 3002              		.loc 1 1031 7 is_stmt 1 view .LVU921
1031:fltk-1.3.4-1/png/pngget.c ****       *num_text = 0;
 3003              		.loc 1 1031 17 is_stmt 0 view .LVU922
 3004 001f C7010000 		movl	$0, (%rcx)
 3004      0000
 3005              	.LVL154:
 3006              	.L781:
1034:fltk-1.3.4-1/png/pngget.c **** }
 3007              		.loc 1 1034 1 view .LVU923
 3008 0025 C3       		ret
 3009              	.LVL155:
 3010 0026 662E0F1F 		.p2align 4,,10
 3010      84000000 
 3010      0000
 3011              		.p2align 3
 3012              	.L799:
1018:fltk-1.3.4-1/png/pngget.c ****          (unsigned long)png_ptr->chunk_name);
 3013              		.loc 1 1018 7 is_stmt 1 view .LVU924
1021:fltk-1.3.4-1/png/pngget.c ****          *text_ptr = info_ptr->text;
 3014              		.loc 1 1021 7 view .LVU925
1021:fltk-1.3.4-1/png/pngget.c ****          *text_ptr = info_ptr->text;
 3015              		.loc 1 1021 10 is_stmt 0 view .LVU926
 3016 0030 4885D2   		testq	%rdx, %rdx
 3017 0033 740A     		je	.L783
1022:fltk-1.3.4-1/png/pngget.c **** 
 3018              		.loc 1 1022 10 is_stmt 1 view .LVU927
1022:fltk-1.3.4-1/png/pngget.c **** 
 3019              		.loc 1 1022 20 is_stmt 0 view .LVU928
 3020 0035 488BB6A0 		movq	160(%rsi), %rsi
 3020      000000
 3021              	.LVL156:
1022:fltk-1.3.4-1/png/pngget.c **** 
 3022              		.loc 1 1022 20 view .LVU929
 3023 003c 488932   		movq	%rsi, (%rdx)
 3024              	.L783:
1024:fltk-1.3.4-1/png/pngget.c ****          *num_text = info_ptr->num_text;
 3025              		.loc 1 1024 7 is_stmt 1 view .LVU930
1024:fltk-1.3.4-1/png/pngget.c ****          *num_text = info_ptr->num_text;
 3026              		.loc 1 1024 10 is_stmt 0 view .LVU931
 3027 003f 4885C9   		testq	%rcx, %rcx
 3028 0042 74E1     		je	.L781
1025:fltk-1.3.4-1/png/pngget.c **** 
 3029              		.loc 1 1025 10 is_stmt 1 view .LVU932
1025:fltk-1.3.4-1/png/pngget.c **** 
 3030              		.loc 1 1025 20 is_stmt 0 view .LVU933
 3031 0044 8901     		movl	%eax, (%rcx)
 3032 0046 C3       		ret
 3033              		.cfi_endproc
 3034              	.LFE92:
 3036              		.section	.text.png_get_tIME,"ax",@progbits
 3037              		.p2align 4
 3038              		.globl	png_get_tIME
 3040              	png_get_tIME:
 3041              	.LVL157:
 3042              	.LFB93:
1035:fltk-1.3.4-1/png/pngget.c **** #endif
1036:fltk-1.3.4-1/png/pngget.c **** 
1037:fltk-1.3.4-1/png/pngget.c **** #ifdef PNG_tIME_SUPPORTED
1038:fltk-1.3.4-1/png/pngget.c **** png_uint_32 PNGAPI
1039:fltk-1.3.4-1/png/pngget.c **** png_get_tIME(png_const_structrp png_ptr, png_inforp info_ptr,
1040:fltk-1.3.4-1/png/pngget.c ****     png_timep *mod_time)
1041:fltk-1.3.4-1/png/pngget.c **** {
 3043              		.loc 1 1041 1 is_stmt 1 view -0
 3044              		.cfi_startproc
 3045              		.loc 1 1041 1 is_stmt 0 view .LVU935
 3046 0000 F30F1EFA 		endbr64
1042:fltk-1.3.4-1/png/pngget.c ****    png_debug1(1, "in %s retrieval function", "tIME");
 3047              		.loc 1 1042 4 is_stmt 1 view .LVU936
1043:fltk-1.3.4-1/png/pngget.c **** 
1044:fltk-1.3.4-1/png/pngget.c ****    if (png_ptr != NULL && info_ptr != NULL &&
 3048              		.loc 1 1044 4 view .LVU937
 3049              		.loc 1 1044 7 is_stmt 0 view .LVU938
 3050 0004 4885FF   		testq	%rdi, %rdi
 3051 0007 7410     		je	.L803
 3052 0009 4885F6   		testq	%rsi, %rsi
 3053 000c 740B     		je	.L803
1045:fltk-1.3.4-1/png/pngget.c ****        (info_ptr->valid & PNG_INFO_tIME) != 0 && mod_time != NULL)
 3054              		.loc 1 1045 47 discriminator 1 view .LVU939
 3055 000e F6460902 		testb	$2, 9(%rsi)
 3056 0012 7405     		je	.L803
 3057 0014 4885D2   		testq	%rdx, %rdx
 3058 0017 7507     		jne	.L816
 3059              	.L803:
1046:fltk-1.3.4-1/png/pngget.c ****    {
1047:fltk-1.3.4-1/png/pngget.c ****       *mod_time = &(info_ptr->mod_time);
1048:fltk-1.3.4-1/png/pngget.c ****       return (PNG_INFO_tIME);
1049:fltk-1.3.4-1/png/pngget.c ****    }
1050:fltk-1.3.4-1/png/pngget.c **** 
1051:fltk-1.3.4-1/png/pngget.c ****    return (0);
 3060              		.loc 1 1051 11 view .LVU940
 3061 0019 31C0     		xorl	%eax, %eax
1052:fltk-1.3.4-1/png/pngget.c **** }
 3062              		.loc 1 1052 1 view .LVU941
 3063 001b C3       		ret
 3064 001c 0F1F4000 		.p2align 4,,10
 3065              		.p2align 3
 3066              	.L816:
1047:fltk-1.3.4-1/png/pngget.c ****       return (PNG_INFO_tIME);
 3067              		.loc 1 1047 7 is_stmt 1 view .LVU942
1047:fltk-1.3.4-1/png/pngget.c ****       return (PNG_INFO_tIME);
 3068              		.loc 1 1047 19 is_stmt 0 view .LVU943
 3069 0020 4881C6A8 		addq	$168, %rsi
 3069      000000
 3070              	.LVL158:
1048:fltk-1.3.4-1/png/pngget.c ****    }
 3071              		.loc 1 1048 14 view .LVU944
 3072 0027 B8000200 		movl	$512, %eax
 3072      00
1047:fltk-1.3.4-1/png/pngget.c ****       return (PNG_INFO_tIME);
 3073              		.loc 1 1047 19 view .LVU945
 3074 002c 488932   		movq	%rsi, (%rdx)
1048:fltk-1.3.4-1/png/pngget.c ****    }
 3075              		.loc 1 1048 7 is_stmt 1 view .LVU946
1048:fltk-1.3.4-1/png/pngget.c ****    }
 3076              		.loc 1 1048 14 is_stmt 0 view .LVU947
 3077 002f C3       		ret
 3078              		.cfi_endproc
 3079              	.LFE93:
 3081              		.section	.text.png_get_tRNS,"ax",@progbits
 3082              		.p2align 4
 3083              		.globl	png_get_tRNS
 3085              	png_get_tRNS:
 3086              	.LVL159:
 3087              	.LFB94:
1053:fltk-1.3.4-1/png/pngget.c **** #endif
1054:fltk-1.3.4-1/png/pngget.c **** 
1055:fltk-1.3.4-1/png/pngget.c **** #ifdef PNG_tRNS_SUPPORTED
1056:fltk-1.3.4-1/png/pngget.c **** png_uint_32 PNGAPI
1057:fltk-1.3.4-1/png/pngget.c **** png_get_tRNS(png_const_structrp png_ptr, png_inforp info_ptr,
1058:fltk-1.3.4-1/png/pngget.c ****     png_bytep *trans_alpha, int *num_trans, png_color_16p *trans_color)
1059:fltk-1.3.4-1/png/pngget.c **** {
 3088              		.loc 1 1059 1 is_stmt 1 view -0
 3089              		.cfi_startproc
 3090              		.loc 1 1059 1 is_stmt 0 view .LVU949
 3091 0000 F30F1EFA 		endbr64
1060:fltk-1.3.4-1/png/pngget.c ****    png_uint_32 retval = 0;
 3092              		.loc 1 1060 4 is_stmt 1 view .LVU950
 3093              	.LVL160:
1061:fltk-1.3.4-1/png/pngget.c ****    if (png_ptr != NULL && info_ptr != NULL &&
 3094              		.loc 1 1061 4 view .LVU951
 3095              		.loc 1 1061 7 is_stmt 0 view .LVU952
 3096 0004 4885FF   		testq	%rdi, %rdi
 3097 0007 7447     		je	.L823
 3098 0009 4885F6   		testq	%rsi, %rsi
 3099 000c 7442     		je	.L823
 3100              		.loc 1 1061 44 discriminator 1 view .LVU953
 3101 000e 8B4608   		movl	8(%rsi), %eax
 3102 0011 83E010   		andl	$16, %eax
 3103 0014 743C     		je	.L817
1062:fltk-1.3.4-1/png/pngget.c ****        (info_ptr->valid & PNG_INFO_tRNS) != 0)
1063:fltk-1.3.4-1/png/pngget.c ****    {
1064:fltk-1.3.4-1/png/pngget.c ****       png_debug1(1, "in %s retrieval function", "tRNS");
 3104              		.loc 1 1064 7 is_stmt 1 view .LVU954
1065:fltk-1.3.4-1/png/pngget.c **** 
1066:fltk-1.3.4-1/png/pngget.c ****       if (info_ptr->color_type == PNG_COLOR_TYPE_PALETTE)
 3105              		.loc 1 1066 7 view .LVU955
1060:fltk-1.3.4-1/png/pngget.c ****    if (png_ptr != NULL && info_ptr != NULL &&
 3106              		.loc 1 1060 16 is_stmt 0 view .LVU956
 3107 0016 31C0     		xorl	%eax, %eax
 3108              		.loc 1 1066 10 view .LVU957
 3109 0018 807E2503 		cmpb	$3, 37(%rsi)
 3110 001c 743A     		je	.L846
1067:fltk-1.3.4-1/png/pngget.c ****       {
1068:fltk-1.3.4-1/png/pngget.c ****          if (trans_alpha != NULL)
1069:fltk-1.3.4-1/png/pngget.c ****          {
1070:fltk-1.3.4-1/png/pngget.c ****             *trans_alpha = info_ptr->trans_alpha;
1071:fltk-1.3.4-1/png/pngget.c ****             retval |= PNG_INFO_tRNS;
1072:fltk-1.3.4-1/png/pngget.c ****          }
1073:fltk-1.3.4-1/png/pngget.c **** 
1074:fltk-1.3.4-1/png/pngget.c ****          if (trans_color != NULL)
1075:fltk-1.3.4-1/png/pngget.c ****             *trans_color = &(info_ptr->trans_color);
1076:fltk-1.3.4-1/png/pngget.c ****       }
1077:fltk-1.3.4-1/png/pngget.c **** 
1078:fltk-1.3.4-1/png/pngget.c ****       else /* if (info_ptr->color_type != PNG_COLOR_TYPE_PALETTE) */
1079:fltk-1.3.4-1/png/pngget.c ****       {
1080:fltk-1.3.4-1/png/pngget.c ****          if (trans_color != NULL)
 3111              		.loc 1 1080 10 is_stmt 1 view .LVU958
 3112              		.loc 1 1080 13 is_stmt 0 view .LVU959
 3113 001e 4D85C0   		testq	%r8, %r8
 3114 0021 740F     		je	.L822
1081:fltk-1.3.4-1/png/pngget.c ****          {
1082:fltk-1.3.4-1/png/pngget.c ****             *trans_color = &(info_ptr->trans_color);
 3115              		.loc 1 1082 13 is_stmt 1 view .LVU960
 3116              		.loc 1 1082 28 is_stmt 0 view .LVU961
 3117 0023 488D86C0 		leaq	192(%rsi), %rax
 3117      000000
 3118 002a 498900   		movq	%rax, (%r8)
1083:fltk-1.3.4-1/png/pngget.c ****             retval |= PNG_INFO_tRNS;
 3119              		.loc 1 1083 13 is_stmt 1 view .LVU962
 3120              	.LVL161:
 3121              		.loc 1 1083 20 is_stmt 0 view .LVU963
 3122 002d B8100000 		movl	$16, %eax
 3122      00
 3123              	.LVL162:
 3124              	.L822:
1084:fltk-1.3.4-1/png/pngget.c ****          }
1085:fltk-1.3.4-1/png/pngget.c **** 
1086:fltk-1.3.4-1/png/pngget.c ****          if (trans_alpha != NULL)
 3125              		.loc 1 1086 10 is_stmt 1 view .LVU964
 3126              		.loc 1 1086 13 is_stmt 0 view .LVU965
 3127 0032 4885D2   		testq	%rdx, %rdx
 3128 0035 7407     		je	.L821
1087:fltk-1.3.4-1/png/pngget.c ****             *trans_alpha = NULL;
 3129              		.loc 1 1087 13 is_stmt 1 view .LVU966
 3130              		.loc 1 1087 26 is_stmt 0 view .LVU967
 3131 0037 48C70200 		movq	$0, (%rdx)
 3131      000000
 3132              	.LVL163:
 3133              	.L821:
1088:fltk-1.3.4-1/png/pngget.c ****       }
1089:fltk-1.3.4-1/png/pngget.c **** 
1090:fltk-1.3.4-1/png/pngget.c ****       if (num_trans != NULL)
 3134              		.loc 1 1090 7 is_stmt 1 view .LVU968
 3135              		.loc 1 1090 10 is_stmt 0 view .LVU969
 3136 003e 4885C9   		testq	%rcx, %rcx
 3137 0041 740F     		je	.L817
1091:fltk-1.3.4-1/png/pngget.c ****       {
1092:fltk-1.3.4-1/png/pngget.c ****          *num_trans = info_ptr->num_trans;
 3138              		.loc 1 1092 10 is_stmt 1 view .LVU970
 3139              		.loc 1 1092 31 is_stmt 0 view .LVU971
 3140 0043 0FB74622 		movzwl	34(%rsi), %eax
 3141              	.LVL164:
 3142              		.loc 1 1092 31 view .LVU972
 3143 0047 8901     		movl	%eax, (%rcx)
1093:fltk-1.3.4-1/png/pngget.c ****          retval |= PNG_INFO_tRNS;
 3144              		.loc 1 1093 10 is_stmt 1 view .LVU973
 3145              	.LVL165:
 3146              		.loc 1 1093 17 is_stmt 0 view .LVU974
 3147 0049 B8100000 		movl	$16, %eax
 3147      00
 3148 004e C3       		ret
 3149              	.LVL166:
 3150 004f 90       		.p2align 4,,10
 3151              		.p2align 3
 3152              	.L823:
1060:fltk-1.3.4-1/png/pngget.c ****    if (png_ptr != NULL && info_ptr != NULL &&
 3153              		.loc 1 1060 16 view .LVU975
 3154 0050 31C0     		xorl	%eax, %eax
1094:fltk-1.3.4-1/png/pngget.c ****       }
1095:fltk-1.3.4-1/png/pngget.c ****    }
1096:fltk-1.3.4-1/png/pngget.c **** 
1097:fltk-1.3.4-1/png/pngget.c ****    return (retval);
 3155              		.loc 1 1097 4 is_stmt 1 view .LVU976
 3156              	.LVL167:
 3157              	.L817:
1098:fltk-1.3.4-1/png/pngget.c **** }
 3158              		.loc 1 1098 1 is_stmt 0 view .LVU977
 3159 0052 C3       		ret
 3160              	.LVL168:
 3161              		.p2align 4,,10
 3162 0053 0F1F4400 		.p2align 3
 3162      00
 3163              	.L846:
1068:fltk-1.3.4-1/png/pngget.c ****          {
 3164              		.loc 1 1068 10 is_stmt 1 view .LVU978
1068:fltk-1.3.4-1/png/pngget.c ****          {
 3165              		.loc 1 1068 13 is_stmt 0 view .LVU979
 3166 0058 4885D2   		testq	%rdx, %rdx
 3167 005b 740F     		je	.L820
1070:fltk-1.3.4-1/png/pngget.c ****             retval |= PNG_INFO_tRNS;
 3168              		.loc 1 1070 13 is_stmt 1 view .LVU980
1070:fltk-1.3.4-1/png/pngget.c ****             retval |= PNG_INFO_tRNS;
 3169              		.loc 1 1070 26 is_stmt 0 view .LVU981
 3170 005d 488B86B8 		movq	184(%rsi), %rax
 3170      000000
 3171 0064 488902   		movq	%rax, (%rdx)
1071:fltk-1.3.4-1/png/pngget.c ****          }
 3172              		.loc 1 1071 13 is_stmt 1 view .LVU982
 3173              	.LVL169:
1071:fltk-1.3.4-1/png/pngget.c ****          }
 3174              		.loc 1 1071 20 is_stmt 0 view .LVU983
 3175 0067 B8100000 		movl	$16, %eax
 3175      00
 3176              	.LVL170:
 3177              	.L820:
1074:fltk-1.3.4-1/png/pngget.c ****             *trans_color = &(info_ptr->trans_color);
 3178              		.loc 1 1074 10 is_stmt 1 view .LVU984
1074:fltk-1.3.4-1/png/pngget.c ****             *trans_color = &(info_ptr->trans_color);
 3179              		.loc 1 1074 13 is_stmt 0 view .LVU985
 3180 006c 4D85C0   		testq	%r8, %r8
 3181 006f 74CD     		je	.L821
1075:fltk-1.3.4-1/png/pngget.c ****       }
 3182              		.loc 1 1075 13 is_stmt 1 view .LVU986
1075:fltk-1.3.4-1/png/pngget.c ****       }
 3183              		.loc 1 1075 28 is_stmt 0 view .LVU987
 3184 0071 488D96C0 		leaq	192(%rsi), %rdx
 3184      000000
 3185              	.LVL171:
1075:fltk-1.3.4-1/png/pngget.c ****       }
 3186              		.loc 1 1075 28 view .LVU988
 3187 0078 498910   		movq	%rdx, (%r8)
 3188 007b EBC1     		jmp	.L821
 3189              		.cfi_endproc
 3190              	.LFE94:
 3192              		.section	.text.png_get_unknown_chunks,"ax",@progbits
 3193              		.p2align 4
 3194              		.globl	png_get_unknown_chunks
 3196              	png_get_unknown_chunks:
 3197              	.LVL172:
 3198              	.LFB95:
1099:fltk-1.3.4-1/png/pngget.c **** #endif
1100:fltk-1.3.4-1/png/pngget.c **** 
1101:fltk-1.3.4-1/png/pngget.c **** #ifdef PNG_STORE_UNKNOWN_CHUNKS_SUPPORTED
1102:fltk-1.3.4-1/png/pngget.c **** int PNGAPI
1103:fltk-1.3.4-1/png/pngget.c **** png_get_unknown_chunks(png_const_structrp png_ptr, png_inforp info_ptr,
1104:fltk-1.3.4-1/png/pngget.c ****     png_unknown_chunkpp unknowns)
1105:fltk-1.3.4-1/png/pngget.c **** {
 3199              		.loc 1 1105 1 is_stmt 1 view -0
 3200              		.cfi_startproc
 3201              		.loc 1 1105 1 is_stmt 0 view .LVU990
 3202 0000 F30F1EFA 		endbr64
1106:fltk-1.3.4-1/png/pngget.c ****    if (png_ptr != NULL && info_ptr != NULL && unknowns != NULL)
 3203              		.loc 1 1106 4 is_stmt 1 view .LVU991
 3204              		.loc 1 1106 36 is_stmt 0 view .LVU992
 3205 0004 4885F6   		testq	%rsi, %rsi
 3206 0007 0F95C1   		setne	%cl
 3207              		.loc 1 1106 44 view .LVU993
 3208 000a 4885D2   		testq	%rdx, %rdx
 3209 000d 0F95C0   		setne	%al
 3210 0010 84C1     		testb	%al, %cl
 3211 0012 7405     		je	.L849
 3212 0014 4885FF   		testq	%rdi, %rdi
 3213 0017 7507     		jne	.L856
 3214              	.L849:
1107:fltk-1.3.4-1/png/pngget.c ****    {
1108:fltk-1.3.4-1/png/pngget.c ****       *unknowns = info_ptr->unknown_chunks;
1109:fltk-1.3.4-1/png/pngget.c ****       return info_ptr->unknown_chunks_num;
1110:fltk-1.3.4-1/png/pngget.c ****    }
1111:fltk-1.3.4-1/png/pngget.c **** 
1112:fltk-1.3.4-1/png/pngget.c ****    return (0);
 3215              		.loc 1 1112 11 view .LVU994
 3216 0019 31C0     		xorl	%eax, %eax
1113:fltk-1.3.4-1/png/pngget.c **** }
 3217              		.loc 1 1113 1 view .LVU995
 3218 001b C3       		ret
 3219 001c 0F1F4000 		.p2align 4,,10
 3220              		.p2align 3
 3221              	.L856:
