   1              		.file	"pngpread.c"
   2              		.text
   3              	.Ltext0:
   4              		.section	.text.png_push_fill_buffer,"ax",@progbits
   5              		.p2align 4
   6              		.globl	png_push_fill_buffer
   8              	png_push_fill_buffer:
   9              	.LVL0:
  10              	.LFB49:
  11              		.file 1 "fltk-1.3.4-1/png/pngpread.c"
   1:fltk-1.3.4-1/png/pngpread.c **** 
   2:fltk-1.3.4-1/png/pngpread.c **** /* pngpread.c - read a png file in push mode
   3:fltk-1.3.4-1/png/pngpread.c ****  *
   4:fltk-1.3.4-1/png/pngpread.c ****  * Last changed in libpng 1.6.15 [November 20, 2014]
   5:fltk-1.3.4-1/png/pngpread.c ****  * Copyright (c) 1998-2014 Glenn Randers-Pehrson
   6:fltk-1.3.4-1/png/pngpread.c ****  * (Version 0.96 Copyright (c) 1996, 1997 Andreas Dilger)
   7:fltk-1.3.4-1/png/pngpread.c ****  * (Version 0.88 Copyright (c) 1995, 1996 Guy Eric Schalnat, Group 42, Inc.)
   8:fltk-1.3.4-1/png/pngpread.c ****  *
   9:fltk-1.3.4-1/png/pngpread.c ****  * This code is released under the libpng license.
  10:fltk-1.3.4-1/png/pngpread.c ****  * For conditions of distribution and use, see the disclaimer
  11:fltk-1.3.4-1/png/pngpread.c ****  * and license in png.h
  12:fltk-1.3.4-1/png/pngpread.c ****  */
  13:fltk-1.3.4-1/png/pngpread.c **** 
  14:fltk-1.3.4-1/png/pngpread.c **** #include "pngpriv.h"
  15:fltk-1.3.4-1/png/pngpread.c **** 
  16:fltk-1.3.4-1/png/pngpread.c **** #ifdef PNG_PROGRESSIVE_READ_SUPPORTED
  17:fltk-1.3.4-1/png/pngpread.c **** 
  18:fltk-1.3.4-1/png/pngpread.c **** /* Push model modes */
  19:fltk-1.3.4-1/png/pngpread.c **** #define PNG_READ_SIG_MODE   0
  20:fltk-1.3.4-1/png/pngpread.c **** #define PNG_READ_CHUNK_MODE 1
  21:fltk-1.3.4-1/png/pngpread.c **** #define PNG_READ_IDAT_MODE  2
  22:fltk-1.3.4-1/png/pngpread.c **** #define PNG_SKIP_MODE       3
  23:fltk-1.3.4-1/png/pngpread.c **** #define PNG_READ_tEXt_MODE  4
  24:fltk-1.3.4-1/png/pngpread.c **** #define PNG_READ_zTXt_MODE  5
  25:fltk-1.3.4-1/png/pngpread.c **** #define PNG_READ_DONE_MODE  6
  26:fltk-1.3.4-1/png/pngpread.c **** #define PNG_READ_iTXt_MODE  7
  27:fltk-1.3.4-1/png/pngpread.c **** #define PNG_ERROR_MODE      8
  28:fltk-1.3.4-1/png/pngpread.c **** 
  29:fltk-1.3.4-1/png/pngpread.c **** #define PNG_PUSH_SAVE_BUFFER_IF_FULL \
  30:fltk-1.3.4-1/png/pngpread.c **** if (png_ptr->push_length + 4 > png_ptr->buffer_size) \
  31:fltk-1.3.4-1/png/pngpread.c ****    { png_push_save_buffer(png_ptr); return; }
  32:fltk-1.3.4-1/png/pngpread.c **** #define PNG_PUSH_SAVE_BUFFER_IF_LT(N) \
  33:fltk-1.3.4-1/png/pngpread.c **** if (png_ptr->buffer_size < N) \
  34:fltk-1.3.4-1/png/pngpread.c ****    { png_push_save_buffer(png_ptr); return; }
  35:fltk-1.3.4-1/png/pngpread.c **** 
  36:fltk-1.3.4-1/png/pngpread.c **** void PNGAPI
  37:fltk-1.3.4-1/png/pngpread.c **** png_process_data(png_structrp png_ptr, png_inforp info_ptr,
  38:fltk-1.3.4-1/png/pngpread.c ****     png_bytep buffer, png_size_t buffer_size)
  39:fltk-1.3.4-1/png/pngpread.c **** {
  40:fltk-1.3.4-1/png/pngpread.c ****    if (png_ptr == NULL || info_ptr == NULL)
  41:fltk-1.3.4-1/png/pngpread.c ****       return;
  42:fltk-1.3.4-1/png/pngpread.c **** 
  43:fltk-1.3.4-1/png/pngpread.c ****    png_push_restore_buffer(png_ptr, buffer, buffer_size);
  44:fltk-1.3.4-1/png/pngpread.c **** 
  45:fltk-1.3.4-1/png/pngpread.c ****    while (png_ptr->buffer_size)
  46:fltk-1.3.4-1/png/pngpread.c ****    {
  47:fltk-1.3.4-1/png/pngpread.c ****       png_process_some_data(png_ptr, info_ptr);
  48:fltk-1.3.4-1/png/pngpread.c ****    }
  49:fltk-1.3.4-1/png/pngpread.c **** }
  50:fltk-1.3.4-1/png/pngpread.c **** 
  51:fltk-1.3.4-1/png/pngpread.c **** png_size_t PNGAPI
  52:fltk-1.3.4-1/png/pngpread.c **** png_process_data_pause(png_structrp png_ptr, int save)
  53:fltk-1.3.4-1/png/pngpread.c **** {
  54:fltk-1.3.4-1/png/pngpread.c ****    if (png_ptr != NULL)
  55:fltk-1.3.4-1/png/pngpread.c ****    {
  56:fltk-1.3.4-1/png/pngpread.c ****       /* It's easiest for the caller if we do the save; then the caller doesn't
  57:fltk-1.3.4-1/png/pngpread.c ****        * have to supply the same data again:
  58:fltk-1.3.4-1/png/pngpread.c ****        */
  59:fltk-1.3.4-1/png/pngpread.c ****       if (save != 0)
  60:fltk-1.3.4-1/png/pngpread.c ****          png_push_save_buffer(png_ptr);
  61:fltk-1.3.4-1/png/pngpread.c ****       else
  62:fltk-1.3.4-1/png/pngpread.c ****       {
  63:fltk-1.3.4-1/png/pngpread.c ****          /* This includes any pending saved bytes: */
  64:fltk-1.3.4-1/png/pngpread.c ****          png_size_t remaining = png_ptr->buffer_size;
  65:fltk-1.3.4-1/png/pngpread.c ****          png_ptr->buffer_size = 0;
  66:fltk-1.3.4-1/png/pngpread.c **** 
  67:fltk-1.3.4-1/png/pngpread.c ****          /* So subtract the saved buffer size, unless all the data
  68:fltk-1.3.4-1/png/pngpread.c ****           * is actually 'saved', in which case we just return 0
  69:fltk-1.3.4-1/png/pngpread.c ****           */
  70:fltk-1.3.4-1/png/pngpread.c ****          if (png_ptr->save_buffer_size < remaining)
  71:fltk-1.3.4-1/png/pngpread.c ****             return remaining - png_ptr->save_buffer_size;
  72:fltk-1.3.4-1/png/pngpread.c ****       }
  73:fltk-1.3.4-1/png/pngpread.c ****    }
  74:fltk-1.3.4-1/png/pngpread.c **** 
  75:fltk-1.3.4-1/png/pngpread.c ****    return 0;
  76:fltk-1.3.4-1/png/pngpread.c **** }
  77:fltk-1.3.4-1/png/pngpread.c **** 
  78:fltk-1.3.4-1/png/pngpread.c **** png_uint_32 PNGAPI
  79:fltk-1.3.4-1/png/pngpread.c **** png_process_data_skip(png_structrp png_ptr)
  80:fltk-1.3.4-1/png/pngpread.c **** {
  81:fltk-1.3.4-1/png/pngpread.c ****    png_uint_32 remaining = 0;
  82:fltk-1.3.4-1/png/pngpread.c **** 
  83:fltk-1.3.4-1/png/pngpread.c ****    if (png_ptr != NULL && png_ptr->process_mode == PNG_SKIP_MODE &&
  84:fltk-1.3.4-1/png/pngpread.c ****       png_ptr->skip_length > 0)
  85:fltk-1.3.4-1/png/pngpread.c ****    {
  86:fltk-1.3.4-1/png/pngpread.c ****       /* At the end of png_process_data the buffer size must be 0 (see the loop
  87:fltk-1.3.4-1/png/pngpread.c ****        * above) so we can detect a broken call here:
  88:fltk-1.3.4-1/png/pngpread.c ****        */
  89:fltk-1.3.4-1/png/pngpread.c ****       if (png_ptr->buffer_size != 0)
  90:fltk-1.3.4-1/png/pngpread.c ****          png_error(png_ptr,
  91:fltk-1.3.4-1/png/pngpread.c ****             "png_process_data_skip called inside png_process_data");
  92:fltk-1.3.4-1/png/pngpread.c **** 
  93:fltk-1.3.4-1/png/pngpread.c ****       /* If is impossible for there to be a saved buffer at this point -
  94:fltk-1.3.4-1/png/pngpread.c ****        * otherwise we could not be in SKIP mode.  This will also happen if
  95:fltk-1.3.4-1/png/pngpread.c ****        * png_process_skip is called inside png_process_data (but only very
  96:fltk-1.3.4-1/png/pngpread.c ****        * rarely.)
  97:fltk-1.3.4-1/png/pngpread.c ****        */
  98:fltk-1.3.4-1/png/pngpread.c ****       if (png_ptr->save_buffer_size != 0)
  99:fltk-1.3.4-1/png/pngpread.c ****          png_error(png_ptr, "png_process_data_skip called with saved data");
 100:fltk-1.3.4-1/png/pngpread.c **** 
 101:fltk-1.3.4-1/png/pngpread.c ****       remaining = png_ptr->skip_length;
 102:fltk-1.3.4-1/png/pngpread.c ****       png_ptr->skip_length = 0;
 103:fltk-1.3.4-1/png/pngpread.c ****       png_ptr->process_mode = PNG_READ_CHUNK_MODE;
 104:fltk-1.3.4-1/png/pngpread.c ****    }
 105:fltk-1.3.4-1/png/pngpread.c **** 
 106:fltk-1.3.4-1/png/pngpread.c ****    return remaining;
 107:fltk-1.3.4-1/png/pngpread.c **** }
 108:fltk-1.3.4-1/png/pngpread.c **** 
 109:fltk-1.3.4-1/png/pngpread.c **** /* What we do with the incoming data depends on what we were previously
 110:fltk-1.3.4-1/png/pngpread.c ****  * doing before we ran out of data...
 111:fltk-1.3.4-1/png/pngpread.c ****  */
 112:fltk-1.3.4-1/png/pngpread.c **** void /* PRIVATE */
 113:fltk-1.3.4-1/png/pngpread.c **** png_process_some_data(png_structrp png_ptr, png_inforp info_ptr)
 114:fltk-1.3.4-1/png/pngpread.c **** {
 115:fltk-1.3.4-1/png/pngpread.c ****    if (png_ptr == NULL)
 116:fltk-1.3.4-1/png/pngpread.c ****       return;
 117:fltk-1.3.4-1/png/pngpread.c **** 
 118:fltk-1.3.4-1/png/pngpread.c ****    switch (png_ptr->process_mode)
 119:fltk-1.3.4-1/png/pngpread.c ****    {
 120:fltk-1.3.4-1/png/pngpread.c ****       case PNG_READ_SIG_MODE:
 121:fltk-1.3.4-1/png/pngpread.c ****       {
 122:fltk-1.3.4-1/png/pngpread.c ****          png_push_read_sig(png_ptr, info_ptr);
 123:fltk-1.3.4-1/png/pngpread.c ****          break;
 124:fltk-1.3.4-1/png/pngpread.c ****       }
 125:fltk-1.3.4-1/png/pngpread.c **** 
 126:fltk-1.3.4-1/png/pngpread.c ****       case PNG_READ_CHUNK_MODE:
 127:fltk-1.3.4-1/png/pngpread.c ****       {
 128:fltk-1.3.4-1/png/pngpread.c ****          png_push_read_chunk(png_ptr, info_ptr);
 129:fltk-1.3.4-1/png/pngpread.c ****          break;
 130:fltk-1.3.4-1/png/pngpread.c ****       }
 131:fltk-1.3.4-1/png/pngpread.c **** 
 132:fltk-1.3.4-1/png/pngpread.c ****       case PNG_READ_IDAT_MODE:
 133:fltk-1.3.4-1/png/pngpread.c ****       {
 134:fltk-1.3.4-1/png/pngpread.c ****          png_push_read_IDAT(png_ptr);
 135:fltk-1.3.4-1/png/pngpread.c ****          break;
 136:fltk-1.3.4-1/png/pngpread.c ****       }
 137:fltk-1.3.4-1/png/pngpread.c **** 
 138:fltk-1.3.4-1/png/pngpread.c ****       case PNG_SKIP_MODE:
 139:fltk-1.3.4-1/png/pngpread.c ****       {
 140:fltk-1.3.4-1/png/pngpread.c ****          png_push_crc_finish(png_ptr);
 141:fltk-1.3.4-1/png/pngpread.c ****          break;
 142:fltk-1.3.4-1/png/pngpread.c ****       }
 143:fltk-1.3.4-1/png/pngpread.c **** 
 144:fltk-1.3.4-1/png/pngpread.c ****       default:
 145:fltk-1.3.4-1/png/pngpread.c ****       {
 146:fltk-1.3.4-1/png/pngpread.c ****          png_ptr->buffer_size = 0;
 147:fltk-1.3.4-1/png/pngpread.c ****          break;
 148:fltk-1.3.4-1/png/pngpread.c ****       }
 149:fltk-1.3.4-1/png/pngpread.c ****    }
 150:fltk-1.3.4-1/png/pngpread.c **** }
 151:fltk-1.3.4-1/png/pngpread.c **** 
 152:fltk-1.3.4-1/png/pngpread.c **** /* Read any remaining signature bytes from the stream and compare them with
 153:fltk-1.3.4-1/png/pngpread.c ****  * the correct PNG signature.  It is possible that this routine is called
 154:fltk-1.3.4-1/png/pngpread.c ****  * with bytes already read from the signature, either because they have been
 155:fltk-1.3.4-1/png/pngpread.c ****  * checked by the calling application, or because of multiple calls to this
 156:fltk-1.3.4-1/png/pngpread.c ****  * routine.
 157:fltk-1.3.4-1/png/pngpread.c ****  */
 158:fltk-1.3.4-1/png/pngpread.c **** void /* PRIVATE */
 159:fltk-1.3.4-1/png/pngpread.c **** png_push_read_sig(png_structrp png_ptr, png_inforp info_ptr)
 160:fltk-1.3.4-1/png/pngpread.c **** {
 161:fltk-1.3.4-1/png/pngpread.c ****    png_size_t num_checked = png_ptr->sig_bytes, /* SAFE, does not exceed 8 */ 
 162:fltk-1.3.4-1/png/pngpread.c ****              num_to_check = 8 - num_checked;
 163:fltk-1.3.4-1/png/pngpread.c **** 
 164:fltk-1.3.4-1/png/pngpread.c ****    if (png_ptr->buffer_size < num_to_check)
 165:fltk-1.3.4-1/png/pngpread.c ****    {
 166:fltk-1.3.4-1/png/pngpread.c ****       num_to_check = png_ptr->buffer_size;
 167:fltk-1.3.4-1/png/pngpread.c ****    }
 168:fltk-1.3.4-1/png/pngpread.c **** 
 169:fltk-1.3.4-1/png/pngpread.c ****    png_push_fill_buffer(png_ptr, &(info_ptr->signature[num_checked]),
 170:fltk-1.3.4-1/png/pngpread.c ****        num_to_check);
 171:fltk-1.3.4-1/png/pngpread.c ****    png_ptr->sig_bytes = (png_byte)(png_ptr->sig_bytes + num_to_check);
 172:fltk-1.3.4-1/png/pngpread.c **** 
 173:fltk-1.3.4-1/png/pngpread.c ****    if (png_sig_cmp(info_ptr->signature, num_checked, num_to_check))
 174:fltk-1.3.4-1/png/pngpread.c ****    {
 175:fltk-1.3.4-1/png/pngpread.c ****       if (num_checked < 4 &&
 176:fltk-1.3.4-1/png/pngpread.c ****           png_sig_cmp(info_ptr->signature, num_checked, num_to_check - 4))
 177:fltk-1.3.4-1/png/pngpread.c ****          png_error(png_ptr, "Not a PNG file");
 178:fltk-1.3.4-1/png/pngpread.c **** 
 179:fltk-1.3.4-1/png/pngpread.c ****       else
 180:fltk-1.3.4-1/png/pngpread.c ****          png_error(png_ptr, "PNG file corrupted by ASCII conversion");
 181:fltk-1.3.4-1/png/pngpread.c ****    }
 182:fltk-1.3.4-1/png/pngpread.c ****    else
 183:fltk-1.3.4-1/png/pngpread.c ****    {
 184:fltk-1.3.4-1/png/pngpread.c ****       if (png_ptr->sig_bytes >= 8)
 185:fltk-1.3.4-1/png/pngpread.c ****       {
 186:fltk-1.3.4-1/png/pngpread.c ****          png_ptr->process_mode = PNG_READ_CHUNK_MODE;
 187:fltk-1.3.4-1/png/pngpread.c ****       }
 188:fltk-1.3.4-1/png/pngpread.c ****    }
 189:fltk-1.3.4-1/png/pngpread.c **** }
 190:fltk-1.3.4-1/png/pngpread.c **** 
 191:fltk-1.3.4-1/png/pngpread.c **** void /* PRIVATE */
 192:fltk-1.3.4-1/png/pngpread.c **** png_push_read_chunk(png_structrp png_ptr, png_inforp info_ptr)
 193:fltk-1.3.4-1/png/pngpread.c **** {
 194:fltk-1.3.4-1/png/pngpread.c ****    png_uint_32 chunk_name;
 195:fltk-1.3.4-1/png/pngpread.c **** #ifdef PNG_HANDLE_AS_UNKNOWN_SUPPORTED
 196:fltk-1.3.4-1/png/pngpread.c ****    int keep; /* unknown handling method */
 197:fltk-1.3.4-1/png/pngpread.c **** #endif
 198:fltk-1.3.4-1/png/pngpread.c **** 
 199:fltk-1.3.4-1/png/pngpread.c ****    /* First we make sure we have enough data for the 4-byte chunk name
 200:fltk-1.3.4-1/png/pngpread.c ****     * and the 4-byte chunk length before proceeding with decoding the
 201:fltk-1.3.4-1/png/pngpread.c ****     * chunk data.  To fully decode each of these chunks, we also make
 202:fltk-1.3.4-1/png/pngpread.c ****     * sure we have enough data in the buffer for the 4-byte CRC at the
 203:fltk-1.3.4-1/png/pngpread.c ****     * end of every chunk (except IDAT, which is handled separately).
 204:fltk-1.3.4-1/png/pngpread.c ****     */
 205:fltk-1.3.4-1/png/pngpread.c ****    if ((png_ptr->mode & PNG_HAVE_CHUNK_HEADER) == 0)
 206:fltk-1.3.4-1/png/pngpread.c ****    {
 207:fltk-1.3.4-1/png/pngpread.c ****       png_byte chunk_length[4];
 208:fltk-1.3.4-1/png/pngpread.c ****       png_byte chunk_tag[4];
 209:fltk-1.3.4-1/png/pngpread.c **** 
 210:fltk-1.3.4-1/png/pngpread.c ****       PNG_PUSH_SAVE_BUFFER_IF_LT(8)
 211:fltk-1.3.4-1/png/pngpread.c ****       png_push_fill_buffer(png_ptr, chunk_length, 4);
 212:fltk-1.3.4-1/png/pngpread.c ****       png_ptr->push_length = png_get_uint_31(png_ptr, chunk_length);
 213:fltk-1.3.4-1/png/pngpread.c ****       png_reset_crc(png_ptr);
 214:fltk-1.3.4-1/png/pngpread.c ****       png_crc_read(png_ptr, chunk_tag, 4);
 215:fltk-1.3.4-1/png/pngpread.c ****       png_ptr->chunk_name = PNG_CHUNK_FROM_STRING(chunk_tag);
 216:fltk-1.3.4-1/png/pngpread.c ****       png_check_chunk_name(png_ptr, png_ptr->chunk_name);
 217:fltk-1.3.4-1/png/pngpread.c ****       png_ptr->mode |= PNG_HAVE_CHUNK_HEADER;
 218:fltk-1.3.4-1/png/pngpread.c ****    }
 219:fltk-1.3.4-1/png/pngpread.c **** 
 220:fltk-1.3.4-1/png/pngpread.c ****    chunk_name = png_ptr->chunk_name;
 221:fltk-1.3.4-1/png/pngpread.c **** 
 222:fltk-1.3.4-1/png/pngpread.c ****    if (chunk_name == png_IDAT)
 223:fltk-1.3.4-1/png/pngpread.c ****    {
 224:fltk-1.3.4-1/png/pngpread.c ****       if ((png_ptr->mode & PNG_AFTER_IDAT) != 0)
 225:fltk-1.3.4-1/png/pngpread.c ****          png_ptr->mode |= PNG_HAVE_CHUNK_AFTER_IDAT;
 226:fltk-1.3.4-1/png/pngpread.c **** 
 227:fltk-1.3.4-1/png/pngpread.c ****       /* If we reach an IDAT chunk, this means we have read all of the
 228:fltk-1.3.4-1/png/pngpread.c ****        * header chunks, and we can start reading the image (or if this
 229:fltk-1.3.4-1/png/pngpread.c ****        * is called after the image has been read - we have an error).
 230:fltk-1.3.4-1/png/pngpread.c ****        */
 231:fltk-1.3.4-1/png/pngpread.c ****       if ((png_ptr->mode & PNG_HAVE_IHDR) == 0)
 232:fltk-1.3.4-1/png/pngpread.c ****          png_error(png_ptr, "Missing IHDR before IDAT");
 233:fltk-1.3.4-1/png/pngpread.c **** 
 234:fltk-1.3.4-1/png/pngpread.c ****       else if (png_ptr->color_type == PNG_COLOR_TYPE_PALETTE &&
 235:fltk-1.3.4-1/png/pngpread.c ****           (png_ptr->mode & PNG_HAVE_PLTE) == 0)
 236:fltk-1.3.4-1/png/pngpread.c ****          png_error(png_ptr, "Missing PLTE before IDAT");
 237:fltk-1.3.4-1/png/pngpread.c **** 
 238:fltk-1.3.4-1/png/pngpread.c ****       png_ptr->mode |= PNG_HAVE_IDAT;
 239:fltk-1.3.4-1/png/pngpread.c ****       png_ptr->process_mode = PNG_READ_IDAT_MODE;
 240:fltk-1.3.4-1/png/pngpread.c **** 
 241:fltk-1.3.4-1/png/pngpread.c ****       if ((png_ptr->mode & PNG_HAVE_CHUNK_AFTER_IDAT) == 0)
 242:fltk-1.3.4-1/png/pngpread.c ****          if (png_ptr->push_length == 0)
 243:fltk-1.3.4-1/png/pngpread.c ****             return;
 244:fltk-1.3.4-1/png/pngpread.c **** 
 245:fltk-1.3.4-1/png/pngpread.c ****       if ((png_ptr->mode & PNG_AFTER_IDAT) != 0)
 246:fltk-1.3.4-1/png/pngpread.c ****          png_benign_error(png_ptr, "Too many IDATs found");
 247:fltk-1.3.4-1/png/pngpread.c ****    }
 248:fltk-1.3.4-1/png/pngpread.c **** 
 249:fltk-1.3.4-1/png/pngpread.c ****    if (chunk_name == png_IHDR)
 250:fltk-1.3.4-1/png/pngpread.c ****    {
 251:fltk-1.3.4-1/png/pngpread.c ****       if (png_ptr->push_length != 13)
 252:fltk-1.3.4-1/png/pngpread.c ****          png_error(png_ptr, "Invalid IHDR length");
 253:fltk-1.3.4-1/png/pngpread.c **** 
 254:fltk-1.3.4-1/png/pngpread.c ****       PNG_PUSH_SAVE_BUFFER_IF_FULL
 255:fltk-1.3.4-1/png/pngpread.c ****       png_handle_IHDR(png_ptr, info_ptr, png_ptr->push_length);
 256:fltk-1.3.4-1/png/pngpread.c ****    }
 257:fltk-1.3.4-1/png/pngpread.c **** 
 258:fltk-1.3.4-1/png/pngpread.c ****    else if (chunk_name == png_IEND)
 259:fltk-1.3.4-1/png/pngpread.c ****    {
 260:fltk-1.3.4-1/png/pngpread.c ****       PNG_PUSH_SAVE_BUFFER_IF_FULL
 261:fltk-1.3.4-1/png/pngpread.c ****       png_handle_IEND(png_ptr, info_ptr, png_ptr->push_length);
 262:fltk-1.3.4-1/png/pngpread.c **** 
 263:fltk-1.3.4-1/png/pngpread.c ****       png_ptr->process_mode = PNG_READ_DONE_MODE;
 264:fltk-1.3.4-1/png/pngpread.c ****       png_push_have_end(png_ptr, info_ptr);
 265:fltk-1.3.4-1/png/pngpread.c ****    }
 266:fltk-1.3.4-1/png/pngpread.c **** 
 267:fltk-1.3.4-1/png/pngpread.c **** #ifdef PNG_HANDLE_AS_UNKNOWN_SUPPORTED
 268:fltk-1.3.4-1/png/pngpread.c ****    else if ((keep = png_chunk_unknown_handling(png_ptr, chunk_name)) != 0)
 269:fltk-1.3.4-1/png/pngpread.c ****    {
 270:fltk-1.3.4-1/png/pngpread.c ****       PNG_PUSH_SAVE_BUFFER_IF_FULL
 271:fltk-1.3.4-1/png/pngpread.c ****       png_handle_unknown(png_ptr, info_ptr, png_ptr->push_length, keep);
 272:fltk-1.3.4-1/png/pngpread.c **** 
 273:fltk-1.3.4-1/png/pngpread.c ****       if (chunk_name == png_PLTE)
 274:fltk-1.3.4-1/png/pngpread.c ****          png_ptr->mode |= PNG_HAVE_PLTE;
 275:fltk-1.3.4-1/png/pngpread.c ****    }
 276:fltk-1.3.4-1/png/pngpread.c **** #endif
 277:fltk-1.3.4-1/png/pngpread.c **** 
 278:fltk-1.3.4-1/png/pngpread.c ****    else if (chunk_name == png_PLTE)
 279:fltk-1.3.4-1/png/pngpread.c ****    {
 280:fltk-1.3.4-1/png/pngpread.c ****       PNG_PUSH_SAVE_BUFFER_IF_FULL
 281:fltk-1.3.4-1/png/pngpread.c ****       png_handle_PLTE(png_ptr, info_ptr, png_ptr->push_length);
 282:fltk-1.3.4-1/png/pngpread.c ****    }
 283:fltk-1.3.4-1/png/pngpread.c **** 
 284:fltk-1.3.4-1/png/pngpread.c ****    else if (chunk_name == png_IDAT)
 285:fltk-1.3.4-1/png/pngpread.c ****    {
 286:fltk-1.3.4-1/png/pngpread.c ****       png_ptr->idat_size = png_ptr->push_length;
 287:fltk-1.3.4-1/png/pngpread.c ****       png_ptr->process_mode = PNG_READ_IDAT_MODE;
 288:fltk-1.3.4-1/png/pngpread.c ****       png_push_have_info(png_ptr, info_ptr);
 289:fltk-1.3.4-1/png/pngpread.c ****       png_ptr->zstream.avail_out =
 290:fltk-1.3.4-1/png/pngpread.c ****           (uInt) PNG_ROWBYTES(png_ptr->pixel_depth,
 291:fltk-1.3.4-1/png/pngpread.c ****           png_ptr->iwidth) + 1;
 292:fltk-1.3.4-1/png/pngpread.c ****       png_ptr->zstream.next_out = png_ptr->row_buf;
 293:fltk-1.3.4-1/png/pngpread.c ****       return;
 294:fltk-1.3.4-1/png/pngpread.c ****    }
 295:fltk-1.3.4-1/png/pngpread.c **** 
 296:fltk-1.3.4-1/png/pngpread.c **** #ifdef PNG_READ_gAMA_SUPPORTED
 297:fltk-1.3.4-1/png/pngpread.c ****    else if (png_ptr->chunk_name == png_gAMA)
 298:fltk-1.3.4-1/png/pngpread.c ****    {
 299:fltk-1.3.4-1/png/pngpread.c ****       PNG_PUSH_SAVE_BUFFER_IF_FULL
 300:fltk-1.3.4-1/png/pngpread.c ****       png_handle_gAMA(png_ptr, info_ptr, png_ptr->push_length);
 301:fltk-1.3.4-1/png/pngpread.c ****    }
 302:fltk-1.3.4-1/png/pngpread.c **** 
 303:fltk-1.3.4-1/png/pngpread.c **** #endif
 304:fltk-1.3.4-1/png/pngpread.c **** #ifdef PNG_READ_sBIT_SUPPORTED
 305:fltk-1.3.4-1/png/pngpread.c ****    else if (png_ptr->chunk_name == png_sBIT)
 306:fltk-1.3.4-1/png/pngpread.c ****    {
 307:fltk-1.3.4-1/png/pngpread.c ****       PNG_PUSH_SAVE_BUFFER_IF_FULL
 308:fltk-1.3.4-1/png/pngpread.c ****       png_handle_sBIT(png_ptr, info_ptr, png_ptr->push_length);
 309:fltk-1.3.4-1/png/pngpread.c ****    }
 310:fltk-1.3.4-1/png/pngpread.c **** 
 311:fltk-1.3.4-1/png/pngpread.c **** #endif
 312:fltk-1.3.4-1/png/pngpread.c **** #ifdef PNG_READ_cHRM_SUPPORTED
 313:fltk-1.3.4-1/png/pngpread.c ****    else if (png_ptr->chunk_name == png_cHRM)
 314:fltk-1.3.4-1/png/pngpread.c ****    {
 315:fltk-1.3.4-1/png/pngpread.c ****       PNG_PUSH_SAVE_BUFFER_IF_FULL
 316:fltk-1.3.4-1/png/pngpread.c ****       png_handle_cHRM(png_ptr, info_ptr, png_ptr->push_length);
 317:fltk-1.3.4-1/png/pngpread.c ****    }
 318:fltk-1.3.4-1/png/pngpread.c **** 
 319:fltk-1.3.4-1/png/pngpread.c **** #endif
 320:fltk-1.3.4-1/png/pngpread.c **** #ifdef PNG_READ_sRGB_SUPPORTED
 321:fltk-1.3.4-1/png/pngpread.c ****    else if (chunk_name == png_sRGB)
 322:fltk-1.3.4-1/png/pngpread.c ****    {
 323:fltk-1.3.4-1/png/pngpread.c ****       PNG_PUSH_SAVE_BUFFER_IF_FULL
 324:fltk-1.3.4-1/png/pngpread.c ****       png_handle_sRGB(png_ptr, info_ptr, png_ptr->push_length);
 325:fltk-1.3.4-1/png/pngpread.c ****    }
 326:fltk-1.3.4-1/png/pngpread.c **** 
 327:fltk-1.3.4-1/png/pngpread.c **** #endif
 328:fltk-1.3.4-1/png/pngpread.c **** #ifdef PNG_READ_iCCP_SUPPORTED
 329:fltk-1.3.4-1/png/pngpread.c ****    else if (png_ptr->chunk_name == png_iCCP)
 330:fltk-1.3.4-1/png/pngpread.c ****    {
 331:fltk-1.3.4-1/png/pngpread.c ****       PNG_PUSH_SAVE_BUFFER_IF_FULL
 332:fltk-1.3.4-1/png/pngpread.c ****       png_handle_iCCP(png_ptr, info_ptr, png_ptr->push_length);
 333:fltk-1.3.4-1/png/pngpread.c ****    }
 334:fltk-1.3.4-1/png/pngpread.c **** 
 335:fltk-1.3.4-1/png/pngpread.c **** #endif
 336:fltk-1.3.4-1/png/pngpread.c **** #ifdef PNG_READ_sPLT_SUPPORTED
 337:fltk-1.3.4-1/png/pngpread.c ****    else if (chunk_name == png_sPLT)
 338:fltk-1.3.4-1/png/pngpread.c ****    {
 339:fltk-1.3.4-1/png/pngpread.c ****       PNG_PUSH_SAVE_BUFFER_IF_FULL
 340:fltk-1.3.4-1/png/pngpread.c ****       png_handle_sPLT(png_ptr, info_ptr, png_ptr->push_length);
 341:fltk-1.3.4-1/png/pngpread.c ****    }
 342:fltk-1.3.4-1/png/pngpread.c **** 
 343:fltk-1.3.4-1/png/pngpread.c **** #endif
 344:fltk-1.3.4-1/png/pngpread.c **** #ifdef PNG_READ_tRNS_SUPPORTED
 345:fltk-1.3.4-1/png/pngpread.c ****    else if (chunk_name == png_tRNS)
 346:fltk-1.3.4-1/png/pngpread.c ****    {
 347:fltk-1.3.4-1/png/pngpread.c ****       PNG_PUSH_SAVE_BUFFER_IF_FULL
 348:fltk-1.3.4-1/png/pngpread.c ****       png_handle_tRNS(png_ptr, info_ptr, png_ptr->push_length);
 349:fltk-1.3.4-1/png/pngpread.c ****    }
 350:fltk-1.3.4-1/png/pngpread.c **** 
 351:fltk-1.3.4-1/png/pngpread.c **** #endif
 352:fltk-1.3.4-1/png/pngpread.c **** #ifdef PNG_READ_bKGD_SUPPORTED
 353:fltk-1.3.4-1/png/pngpread.c ****    else if (chunk_name == png_bKGD)
 354:fltk-1.3.4-1/png/pngpread.c ****    {
 355:fltk-1.3.4-1/png/pngpread.c ****       PNG_PUSH_SAVE_BUFFER_IF_FULL
 356:fltk-1.3.4-1/png/pngpread.c ****       png_handle_bKGD(png_ptr, info_ptr, png_ptr->push_length);
 357:fltk-1.3.4-1/png/pngpread.c ****    }
 358:fltk-1.3.4-1/png/pngpread.c **** 
 359:fltk-1.3.4-1/png/pngpread.c **** #endif
 360:fltk-1.3.4-1/png/pngpread.c **** #ifdef PNG_READ_hIST_SUPPORTED
 361:fltk-1.3.4-1/png/pngpread.c ****    else if (chunk_name == png_hIST)
 362:fltk-1.3.4-1/png/pngpread.c ****    {
 363:fltk-1.3.4-1/png/pngpread.c ****       PNG_PUSH_SAVE_BUFFER_IF_FULL
 364:fltk-1.3.4-1/png/pngpread.c ****       png_handle_hIST(png_ptr, info_ptr, png_ptr->push_length);
 365:fltk-1.3.4-1/png/pngpread.c ****    }
 366:fltk-1.3.4-1/png/pngpread.c **** 
 367:fltk-1.3.4-1/png/pngpread.c **** #endif
 368:fltk-1.3.4-1/png/pngpread.c **** #ifdef PNG_READ_pHYs_SUPPORTED
 369:fltk-1.3.4-1/png/pngpread.c ****    else if (chunk_name == png_pHYs)
 370:fltk-1.3.4-1/png/pngpread.c ****    {
 371:fltk-1.3.4-1/png/pngpread.c ****       PNG_PUSH_SAVE_BUFFER_IF_FULL
 372:fltk-1.3.4-1/png/pngpread.c ****       png_handle_pHYs(png_ptr, info_ptr, png_ptr->push_length);
 373:fltk-1.3.4-1/png/pngpread.c ****    }
 374:fltk-1.3.4-1/png/pngpread.c **** 
 375:fltk-1.3.4-1/png/pngpread.c **** #endif
 376:fltk-1.3.4-1/png/pngpread.c **** #ifdef PNG_READ_oFFs_SUPPORTED
 377:fltk-1.3.4-1/png/pngpread.c ****    else if (chunk_name == png_oFFs)
 378:fltk-1.3.4-1/png/pngpread.c ****    {
 379:fltk-1.3.4-1/png/pngpread.c ****       PNG_PUSH_SAVE_BUFFER_IF_FULL
 380:fltk-1.3.4-1/png/pngpread.c ****       png_handle_oFFs(png_ptr, info_ptr, png_ptr->push_length);
 381:fltk-1.3.4-1/png/pngpread.c ****    }
 382:fltk-1.3.4-1/png/pngpread.c **** #endif
 383:fltk-1.3.4-1/png/pngpread.c **** 
 384:fltk-1.3.4-1/png/pngpread.c **** #ifdef PNG_READ_pCAL_SUPPORTED
 385:fltk-1.3.4-1/png/pngpread.c ****    else if (chunk_name == png_pCAL)
 386:fltk-1.3.4-1/png/pngpread.c ****    {
 387:fltk-1.3.4-1/png/pngpread.c ****       PNG_PUSH_SAVE_BUFFER_IF_FULL
 388:fltk-1.3.4-1/png/pngpread.c ****       png_handle_pCAL(png_ptr, info_ptr, png_ptr->push_length);
 389:fltk-1.3.4-1/png/pngpread.c ****    }
 390:fltk-1.3.4-1/png/pngpread.c **** 
 391:fltk-1.3.4-1/png/pngpread.c **** #endif
 392:fltk-1.3.4-1/png/pngpread.c **** #ifdef PNG_READ_sCAL_SUPPORTED
 393:fltk-1.3.4-1/png/pngpread.c ****    else if (chunk_name == png_sCAL)
 394:fltk-1.3.4-1/png/pngpread.c ****    {
 395:fltk-1.3.4-1/png/pngpread.c ****       PNG_PUSH_SAVE_BUFFER_IF_FULL
 396:fltk-1.3.4-1/png/pngpread.c ****       png_handle_sCAL(png_ptr, info_ptr, png_ptr->push_length);
 397:fltk-1.3.4-1/png/pngpread.c ****    }
 398:fltk-1.3.4-1/png/pngpread.c **** 
 399:fltk-1.3.4-1/png/pngpread.c **** #endif
 400:fltk-1.3.4-1/png/pngpread.c **** #ifdef PNG_READ_tIME_SUPPORTED
 401:fltk-1.3.4-1/png/pngpread.c ****    else if (chunk_name == png_tIME)
 402:fltk-1.3.4-1/png/pngpread.c ****    {
 403:fltk-1.3.4-1/png/pngpread.c ****       PNG_PUSH_SAVE_BUFFER_IF_FULL
 404:fltk-1.3.4-1/png/pngpread.c ****       png_handle_tIME(png_ptr, info_ptr, png_ptr->push_length);
 405:fltk-1.3.4-1/png/pngpread.c ****    }
 406:fltk-1.3.4-1/png/pngpread.c **** 
 407:fltk-1.3.4-1/png/pngpread.c **** #endif
 408:fltk-1.3.4-1/png/pngpread.c **** #ifdef PNG_READ_tEXt_SUPPORTED
 409:fltk-1.3.4-1/png/pngpread.c ****    else if (chunk_name == png_tEXt)
 410:fltk-1.3.4-1/png/pngpread.c ****    {
 411:fltk-1.3.4-1/png/pngpread.c ****       PNG_PUSH_SAVE_BUFFER_IF_FULL
 412:fltk-1.3.4-1/png/pngpread.c ****       png_handle_tEXt(png_ptr, info_ptr, png_ptr->push_length);
 413:fltk-1.3.4-1/png/pngpread.c ****    }
 414:fltk-1.3.4-1/png/pngpread.c **** 
 415:fltk-1.3.4-1/png/pngpread.c **** #endif
 416:fltk-1.3.4-1/png/pngpread.c **** #ifdef PNG_READ_zTXt_SUPPORTED
 417:fltk-1.3.4-1/png/pngpread.c ****    else if (chunk_name == png_zTXt)
 418:fltk-1.3.4-1/png/pngpread.c ****    {
 419:fltk-1.3.4-1/png/pngpread.c ****       PNG_PUSH_SAVE_BUFFER_IF_FULL
 420:fltk-1.3.4-1/png/pngpread.c ****       png_handle_zTXt(png_ptr, info_ptr, png_ptr->push_length);
 421:fltk-1.3.4-1/png/pngpread.c ****    }
 422:fltk-1.3.4-1/png/pngpread.c **** 
 423:fltk-1.3.4-1/png/pngpread.c **** #endif
 424:fltk-1.3.4-1/png/pngpread.c **** #ifdef PNG_READ_iTXt_SUPPORTED
 425:fltk-1.3.4-1/png/pngpread.c ****    else if (chunk_name == png_iTXt)
 426:fltk-1.3.4-1/png/pngpread.c ****    {
 427:fltk-1.3.4-1/png/pngpread.c ****       PNG_PUSH_SAVE_BUFFER_IF_FULL
 428:fltk-1.3.4-1/png/pngpread.c ****       png_handle_iTXt(png_ptr, info_ptr, png_ptr->push_length);
 429:fltk-1.3.4-1/png/pngpread.c ****    }
 430:fltk-1.3.4-1/png/pngpread.c **** #endif
 431:fltk-1.3.4-1/png/pngpread.c **** 
 432:fltk-1.3.4-1/png/pngpread.c ****    else
 433:fltk-1.3.4-1/png/pngpread.c ****    {
 434:fltk-1.3.4-1/png/pngpread.c ****       PNG_PUSH_SAVE_BUFFER_IF_FULL
 435:fltk-1.3.4-1/png/pngpread.c ****       png_handle_unknown(png_ptr, info_ptr, png_ptr->push_length,
 436:fltk-1.3.4-1/png/pngpread.c ****          PNG_HANDLE_CHUNK_AS_DEFAULT);
 437:fltk-1.3.4-1/png/pngpread.c ****    }
 438:fltk-1.3.4-1/png/pngpread.c **** 
 439:fltk-1.3.4-1/png/pngpread.c ****    png_ptr->mode &= ~PNG_HAVE_CHUNK_HEADER;
 440:fltk-1.3.4-1/png/pngpread.c **** }
 441:fltk-1.3.4-1/png/pngpread.c **** 
 442:fltk-1.3.4-1/png/pngpread.c **** void /* PRIVATE */
 443:fltk-1.3.4-1/png/pngpread.c **** png_push_crc_skip(png_structrp png_ptr, png_uint_32 skip)
 444:fltk-1.3.4-1/png/pngpread.c **** {
 445:fltk-1.3.4-1/png/pngpread.c ****    png_ptr->process_mode = PNG_SKIP_MODE;
 446:fltk-1.3.4-1/png/pngpread.c ****    png_ptr->skip_length = skip;
 447:fltk-1.3.4-1/png/pngpread.c **** }
 448:fltk-1.3.4-1/png/pngpread.c **** 
 449:fltk-1.3.4-1/png/pngpread.c **** void /* PRIVATE */
 450:fltk-1.3.4-1/png/pngpread.c **** png_push_crc_finish(png_structrp png_ptr)
 451:fltk-1.3.4-1/png/pngpread.c **** {
 452:fltk-1.3.4-1/png/pngpread.c ****    if (png_ptr->skip_length != 0 && png_ptr->save_buffer_size != 0)
 453:fltk-1.3.4-1/png/pngpread.c ****    {
 454:fltk-1.3.4-1/png/pngpread.c ****       png_size_t save_size = png_ptr->save_buffer_size;
 455:fltk-1.3.4-1/png/pngpread.c ****       png_uint_32 skip_length = png_ptr->skip_length;
 456:fltk-1.3.4-1/png/pngpread.c **** 
 457:fltk-1.3.4-1/png/pngpread.c ****       /* We want the smaller of 'skip_length' and 'save_buffer_size', but
 458:fltk-1.3.4-1/png/pngpread.c ****        * they are of different types and we don't know which variable has the
 459:fltk-1.3.4-1/png/pngpread.c ****        * fewest bits.  Carefully select the smaller and cast it to the type of
 460:fltk-1.3.4-1/png/pngpread.c ****        * the larger - this cannot overflow.  Do not cast in the following test
 461:fltk-1.3.4-1/png/pngpread.c ****        * - it will break on either 16 or 64 bit platforms.
 462:fltk-1.3.4-1/png/pngpread.c ****        */
 463:fltk-1.3.4-1/png/pngpread.c ****       if (skip_length < save_size)
 464:fltk-1.3.4-1/png/pngpread.c ****          save_size = (png_size_t)skip_length;
 465:fltk-1.3.4-1/png/pngpread.c **** 
 466:fltk-1.3.4-1/png/pngpread.c ****       else
 467:fltk-1.3.4-1/png/pngpread.c ****          skip_length = (png_uint_32)save_size;
 468:fltk-1.3.4-1/png/pngpread.c **** 
 469:fltk-1.3.4-1/png/pngpread.c ****       png_calculate_crc(png_ptr, png_ptr->save_buffer_ptr, save_size);
 470:fltk-1.3.4-1/png/pngpread.c **** 
 471:fltk-1.3.4-1/png/pngpread.c ****       png_ptr->skip_length -= skip_length;
 472:fltk-1.3.4-1/png/pngpread.c ****       png_ptr->buffer_size -= save_size;
 473:fltk-1.3.4-1/png/pngpread.c ****       png_ptr->save_buffer_size -= save_size;
 474:fltk-1.3.4-1/png/pngpread.c ****       png_ptr->save_buffer_ptr += save_size;
 475:fltk-1.3.4-1/png/pngpread.c ****    }
 476:fltk-1.3.4-1/png/pngpread.c ****    if (png_ptr->skip_length != 0 && png_ptr->current_buffer_size != 0)
 477:fltk-1.3.4-1/png/pngpread.c ****    {
 478:fltk-1.3.4-1/png/pngpread.c ****       png_size_t save_size = png_ptr->current_buffer_size;
 479:fltk-1.3.4-1/png/pngpread.c ****       png_uint_32 skip_length = png_ptr->skip_length;
 480:fltk-1.3.4-1/png/pngpread.c **** 
 481:fltk-1.3.4-1/png/pngpread.c ****       /* We want the smaller of 'skip_length' and 'current_buffer_size', here,
 482:fltk-1.3.4-1/png/pngpread.c ****        * the same problem exists as above and the same solution.
 483:fltk-1.3.4-1/png/pngpread.c ****        */
 484:fltk-1.3.4-1/png/pngpread.c ****       if (skip_length < save_size)
 485:fltk-1.3.4-1/png/pngpread.c ****          save_size = (png_size_t)skip_length;
 486:fltk-1.3.4-1/png/pngpread.c **** 
 487:fltk-1.3.4-1/png/pngpread.c ****       else
 488:fltk-1.3.4-1/png/pngpread.c ****          skip_length = (png_uint_32)save_size;
 489:fltk-1.3.4-1/png/pngpread.c **** 
 490:fltk-1.3.4-1/png/pngpread.c ****       png_calculate_crc(png_ptr, png_ptr->current_buffer_ptr, save_size);
 491:fltk-1.3.4-1/png/pngpread.c **** 
 492:fltk-1.3.4-1/png/pngpread.c ****       png_ptr->skip_length -= skip_length;
 493:fltk-1.3.4-1/png/pngpread.c ****       png_ptr->buffer_size -= save_size;
 494:fltk-1.3.4-1/png/pngpread.c ****       png_ptr->current_buffer_size -= save_size;
 495:fltk-1.3.4-1/png/pngpread.c ****       png_ptr->current_buffer_ptr += save_size;
 496:fltk-1.3.4-1/png/pngpread.c ****    }
 497:fltk-1.3.4-1/png/pngpread.c ****    if (png_ptr->skip_length == 0)
 498:fltk-1.3.4-1/png/pngpread.c ****    {
 499:fltk-1.3.4-1/png/pngpread.c ****       PNG_PUSH_SAVE_BUFFER_IF_LT(4)
 500:fltk-1.3.4-1/png/pngpread.c ****       png_crc_finish(png_ptr, 0);
 501:fltk-1.3.4-1/png/pngpread.c ****       png_ptr->process_mode = PNG_READ_CHUNK_MODE;
 502:fltk-1.3.4-1/png/pngpread.c ****    }
 503:fltk-1.3.4-1/png/pngpread.c **** }
 504:fltk-1.3.4-1/png/pngpread.c **** 
 505:fltk-1.3.4-1/png/pngpread.c **** void PNGCBAPI
 506:fltk-1.3.4-1/png/pngpread.c **** png_push_fill_buffer(png_structp png_ptr, png_bytep buffer, png_size_t length)
 507:fltk-1.3.4-1/png/pngpread.c **** {
  12              		.loc 1 507 1 view -0
  13              		.cfi_startproc
  14              		.loc 1 507 1 is_stmt 0 view .LVU1
  15 0000 F30F1EFA 		endbr64
 508:fltk-1.3.4-1/png/pngpread.c ****    png_bytep ptr;
  16              		.loc 1 508 4 is_stmt 1 view .LVU2
 509:fltk-1.3.4-1/png/pngpread.c **** 
 510:fltk-1.3.4-1/png/pngpread.c ****    if (png_ptr == NULL)
  17              		.loc 1 510 4 view .LVU3
 507:fltk-1.3.4-1/png/pngpread.c ****    png_bytep ptr;
  18              		.loc 1 507 1 is_stmt 0 view .LVU4
  19 0004 4154     		pushq	%r12
  20              		.cfi_def_cfa_offset 16
  21              		.cfi_offset 12, -16
  22 0006 55       		pushq	%rbp
  23              		.cfi_def_cfa_offset 24
  24              		.cfi_offset 6, -24
  25 0007 53       		pushq	%rbx
  26              		.cfi_def_cfa_offset 32
  27              		.cfi_offset 3, -32
 507:fltk-1.3.4-1/png/pngpread.c ****    png_bytep ptr;
  28              		.loc 1 507 1 view .LVU5
  29 0008 4889FB   		movq	%rdi, %rbx
  30              		.loc 1 510 7 view .LVU6
  31 000b 4885FF   		testq	%rdi, %rdi
  32 000e 7423     		je	.L1
 511:fltk-1.3.4-1/png/pngpread.c ****       return;
 512:fltk-1.3.4-1/png/pngpread.c **** 
 513:fltk-1.3.4-1/png/pngpread.c ****    ptr = buffer;
 514:fltk-1.3.4-1/png/pngpread.c ****    if (png_ptr->save_buffer_size != 0)
  33              		.loc 1 514 15 view .LVU7
  34 0010 488B8360 		movq	864(%rbx), %rax
  34      030000
  35 0017 4889F7   		movq	%rsi, %rdi
  36              	.LVL1:
  37              		.loc 1 514 15 view .LVU8
  38 001a 4889D5   		movq	%rdx, %rbp
 513:fltk-1.3.4-1/png/pngpread.c ****    if (png_ptr->save_buffer_size != 0)
  39              		.loc 1 513 4 is_stmt 1 view .LVU9
  40              	.LVL2:
  41              		.loc 1 514 4 view .LVU10
  42              		.loc 1 514 7 is_stmt 0 view .LVU11
  43 001d 4885C0   		testq	%rax, %rax
  44 0020 751E     		jne	.L17
  45              	.LVL3:
  46              	.L4:
 515:fltk-1.3.4-1/png/pngpread.c ****    {
 516:fltk-1.3.4-1/png/pngpread.c ****       png_size_t save_size;
 517:fltk-1.3.4-1/png/pngpread.c **** 
 518:fltk-1.3.4-1/png/pngpread.c ****       if (length < png_ptr->save_buffer_size)
 519:fltk-1.3.4-1/png/pngpread.c ****          save_size = length;
 520:fltk-1.3.4-1/png/pngpread.c **** 
 521:fltk-1.3.4-1/png/pngpread.c ****       else
 522:fltk-1.3.4-1/png/pngpread.c ****          save_size = png_ptr->save_buffer_size;
 523:fltk-1.3.4-1/png/pngpread.c **** 
 524:fltk-1.3.4-1/png/pngpread.c ****       memcpy(ptr, png_ptr->save_buffer_ptr, save_size);
 525:fltk-1.3.4-1/png/pngpread.c ****       length -= save_size;
 526:fltk-1.3.4-1/png/pngpread.c ****       ptr += save_size;
 527:fltk-1.3.4-1/png/pngpread.c ****       png_ptr->buffer_size -= save_size;
 528:fltk-1.3.4-1/png/pngpread.c ****       png_ptr->save_buffer_size -= save_size;
 529:fltk-1.3.4-1/png/pngpread.c ****       png_ptr->save_buffer_ptr += save_size;
 530:fltk-1.3.4-1/png/pngpread.c ****    }
 531:fltk-1.3.4-1/png/pngpread.c ****    if (length != 0 && png_ptr->current_buffer_size != 0)
  47              		.loc 1 531 4 is_stmt 1 view .LVU12
  48              		.loc 1 531 7 is_stmt 0 view .LVU13
  49 0022 4885ED   		testq	%rbp, %rbp
  50 0025 740C     		je	.L1
  51              		.loc 1 531 30 discriminator 1 view .LVU14
  52 0027 488B9378 		movq	888(%rbx), %rdx
  52      030000
  53              		.loc 1 531 20 discriminator 1 view .LVU15
  54 002e 4885D2   		testq	%rdx, %rdx
  55 0031 754D     		jne	.L18
  56              	.LVL4:
  57              	.L1:
 532:fltk-1.3.4-1/png/pngpread.c ****    {
 533:fltk-1.3.4-1/png/pngpread.c ****       png_size_t save_size;
 534:fltk-1.3.4-1/png/pngpread.c **** 
 535:fltk-1.3.4-1/png/pngpread.c ****       if (length < png_ptr->current_buffer_size)
 536:fltk-1.3.4-1/png/pngpread.c ****          save_size = length;
 537:fltk-1.3.4-1/png/pngpread.c **** 
 538:fltk-1.3.4-1/png/pngpread.c ****       else
 539:fltk-1.3.4-1/png/pngpread.c ****          save_size = png_ptr->current_buffer_size;
 540:fltk-1.3.4-1/png/pngpread.c **** 
 541:fltk-1.3.4-1/png/pngpread.c ****       memcpy(ptr, png_ptr->current_buffer_ptr, save_size);
 542:fltk-1.3.4-1/png/pngpread.c ****       png_ptr->buffer_size -= save_size;
 543:fltk-1.3.4-1/png/pngpread.c ****       png_ptr->current_buffer_size -= save_size;
 544:fltk-1.3.4-1/png/pngpread.c ****       png_ptr->current_buffer_ptr += save_size;
 545:fltk-1.3.4-1/png/pngpread.c ****    }
 546:fltk-1.3.4-1/png/pngpread.c **** }
  58              		.loc 1 546 1 view .LVU16
  59 0033 5B       		popq	%rbx
  60              		.cfi_remember_state
  61              		.cfi_def_cfa_offset 24
  62              	.LVL5:
  63              		.loc 1 546 1 view .LVU17
  64 0034 5D       		popq	%rbp
  65              		.cfi_def_cfa_offset 16
  66 0035 415C     		popq	%r12
  67              		.cfi_def_cfa_offset 8
  68 0037 C3       		ret
  69              	.LVL6:
  70 0038 0F1F8400 		.p2align 4,,10
  70      00000000 
  71              		.p2align 3
  72              	.L17:
  73              		.cfi_restore_state
  74              	.LBB118:
 516:fltk-1.3.4-1/png/pngpread.c **** 
  75              		.loc 1 516 7 is_stmt 1 view .LVU18
 518:fltk-1.3.4-1/png/pngpread.c ****          save_size = length;
  76              		.loc 1 518 7 view .LVU19
  77 0040 4839D0   		cmpq	%rdx, %rax
  78              	.LBB119:
  79              	.LBB120:
  80              		.file 2 "/usr/include/x86_64-linux-gnu/bits/string_fortified.h"
   1:/usr/include/x86_64-linux-gnu/bits/string_fortified.h **** /* Copyright (C) 2004-2020 Free Software Foundation, Inc.
   2:/usr/include/x86_64-linux-gnu/bits/string_fortified.h ****    This file is part of the GNU C Library.
   3:/usr/include/x86_64-linux-gnu/bits/string_fortified.h **** 
   4:/usr/include/x86_64-linux-gnu/bits/string_fortified.h ****    The GNU C Library is free software; you can redistribute it and/or
   5:/usr/include/x86_64-linux-gnu/bits/string_fortified.h ****    modify it under the terms of the GNU Lesser General Public
   6:/usr/include/x86_64-linux-gnu/bits/string_fortified.h ****    License as published by the Free Software Foundation; either
   7:/usr/include/x86_64-linux-gnu/bits/string_fortified.h ****    version 2.1 of the License, or (at your option) any later version.
   8:/usr/include/x86_64-linux-gnu/bits/string_fortified.h **** 
   9:/usr/include/x86_64-linux-gnu/bits/string_fortified.h ****    The GNU C Library is distributed in the hope that it will be useful,
  10:/usr/include/x86_64-linux-gnu/bits/string_fortified.h ****    but WITHOUT ANY WARRANTY; without even the implied warranty of
  11:/usr/include/x86_64-linux-gnu/bits/string_fortified.h ****    MERCHANTABILITY or FITNESS FOR A PARTICULAR PURPOSE.  See the GNU
  12:/usr/include/x86_64-linux-gnu/bits/string_fortified.h ****    Lesser General Public License for more details.
  13:/usr/include/x86_64-linux-gnu/bits/string_fortified.h **** 
  14:/usr/include/x86_64-linux-gnu/bits/string_fortified.h ****    You should have received a copy of the GNU Lesser General Public
  15:/usr/include/x86_64-linux-gnu/bits/string_fortified.h ****    License along with the GNU C Library; if not, see
  16:/usr/include/x86_64-linux-gnu/bits/string_fortified.h ****    <https://www.gnu.org/licenses/>.  */
  17:/usr/include/x86_64-linux-gnu/bits/string_fortified.h **** 
  18:/usr/include/x86_64-linux-gnu/bits/string_fortified.h **** #ifndef _BITS_STRING_FORTIFIED_H
  19:/usr/include/x86_64-linux-gnu/bits/string_fortified.h **** #define _BITS_STRING_FORTIFIED_H 1
  20:/usr/include/x86_64-linux-gnu/bits/string_fortified.h **** 
  21:/usr/include/x86_64-linux-gnu/bits/string_fortified.h **** #ifndef _STRING_H
  22:/usr/include/x86_64-linux-gnu/bits/string_fortified.h **** # error "Never use <bits/string_fortified.h> directly; include <string.h> instead."
  23:/usr/include/x86_64-linux-gnu/bits/string_fortified.h **** #endif
  24:/usr/include/x86_64-linux-gnu/bits/string_fortified.h **** 
  25:/usr/include/x86_64-linux-gnu/bits/string_fortified.h **** #if !__GNUC_PREREQ (5,0)
  26:/usr/include/x86_64-linux-gnu/bits/string_fortified.h **** __warndecl (__warn_memset_zero_len,
  27:/usr/include/x86_64-linux-gnu/bits/string_fortified.h **** 	    "memset used with constant zero length parameter; this could be due to transposed parameters")
  28:/usr/include/x86_64-linux-gnu/bits/string_fortified.h **** #endif
  29:/usr/include/x86_64-linux-gnu/bits/string_fortified.h **** 
  30:/usr/include/x86_64-linux-gnu/bits/string_fortified.h **** __fortify_function void *
  31:/usr/include/x86_64-linux-gnu/bits/string_fortified.h **** __NTH (memcpy (void *__restrict __dest, const void *__restrict __src,
  32:/usr/include/x86_64-linux-gnu/bits/string_fortified.h **** 	       size_t __len))
  33:/usr/include/x86_64-linux-gnu/bits/string_fortified.h **** {
  34:/usr/include/x86_64-linux-gnu/bits/string_fortified.h ****   return __builtin___memcpy_chk (__dest, __src, __len, __bos0 (__dest));
  81              		.loc 2 34 10 is_stmt 0 view .LVU20
  82 0043 488BB338 		movq	824(%rbx), %rsi
  82      030000
  83              	.LVL7:
  84              		.loc 2 34 10 view .LVU21
  85 004a 480F47C2 		cmova	%rdx, %rax
  86 004e 4889C2   		movq	%rax, %rdx
  87              	.LVL8:
  88              		.loc 2 34 10 view .LVU22
  89 0051 4989C4   		movq	%rax, %r12
  90              	.LVL9:
  91              		.loc 2 34 10 view .LVU23
  92              	.LBE120:
  93              	.LBE119:
 524:fltk-1.3.4-1/png/pngpread.c ****       length -= save_size;
  94              		.loc 1 524 7 is_stmt 1 view .LVU24
  95              	.LBB123:
  96              	.LBI119:
  31:/usr/include/x86_64-linux-gnu/bits/string_fortified.h **** 	       size_t __len))
  97              		.loc 2 31 1 view .LVU25
  98              	.LBB121:
  99              		.loc 2 34 3 view .LVU26
 100              		.loc 2 34 10 is_stmt 0 view .LVU27
 101 0054 E8000000 		call	memcpy@PLT
 101      00
 102              	.LVL10:
 103              		.loc 2 34 10 view .LVU28
 104              	.LBE121:
 105              	.LBE123:
 525:fltk-1.3.4-1/png/pngpread.c ****       ptr += save_size;
 106              		.loc 1 525 14 view .LVU29
 107 0059 4C29E5   		subq	%r12, %rbp
 108              	.LVL11:
 527:fltk-1.3.4-1/png/pngpread.c ****       png_ptr->save_buffer_size -= save_size;
 109              		.loc 1 527 28 view .LVU30
 110 005c 4C29A370 		subq	%r12, 880(%rbx)
 110      030000
 111              	.LBB124:
 112              	.LBB122:
 113              		.loc 2 34 10 view .LVU31
 114 0063 4889C7   		movq	%rax, %rdi
 115              	.LVL12:
 116              		.loc 2 34 10 view .LVU32
 117              	.LBE122:
 118              	.LBE124:
 525:fltk-1.3.4-1/png/pngpread.c ****       ptr += save_size;
 119              		.loc 1 525 7 is_stmt 1 view .LVU33
 526:fltk-1.3.4-1/png/pngpread.c ****       png_ptr->buffer_size -= save_size;
 120              		.loc 1 526 7 view .LVU34
 528:fltk-1.3.4-1/png/pngpread.c ****       png_ptr->save_buffer_ptr += save_size;
 121              		.loc 1 528 33 is_stmt 0 view .LVU35
 122 0066 4C29A360 		subq	%r12, 864(%rbx)
 122      030000
 529:fltk-1.3.4-1/png/pngpread.c ****    }
 123              		.loc 1 529 32 view .LVU36
 124 006d 4C01A338 		addq	%r12, 824(%rbx)
 124      030000
 526:fltk-1.3.4-1/png/pngpread.c ****       png_ptr->buffer_size -= save_size;
 125              		.loc 1 526 11 view .LVU37
 126 0074 4C01E7   		addq	%r12, %rdi
 127              	.LVL13:
 527:fltk-1.3.4-1/png/pngpread.c ****       png_ptr->save_buffer_size -= save_size;
 128              		.loc 1 527 7 is_stmt 1 view .LVU38
 528:fltk-1.3.4-1/png/pngpread.c ****       png_ptr->save_buffer_ptr += save_size;
 129              		.loc 1 528 7 view .LVU39
 529:fltk-1.3.4-1/png/pngpread.c ****    }
 130              		.loc 1 529 7 view .LVU40
 131 0077 EBA9     		jmp	.L4
 132              	.LVL14:
 133 0079 0F1F8000 		.p2align 4,,10
 133      000000
 134              		.p2align 3
 135              	.L18:
 529:fltk-1.3.4-1/png/pngpread.c ****    }
 136              		.loc 1 529 7 is_stmt 0 view .LVU41
 137              	.LBE118:
 138              	.LBB125:
 533:fltk-1.3.4-1/png/pngpread.c **** 
 139              		.loc 1 533 7 is_stmt 1 view .LVU42
 535:fltk-1.3.4-1/png/pngpread.c ****          save_size = length;
 140              		.loc 1 535 7 view .LVU43
 141 0080 4839EA   		cmpq	%rbp, %rdx
 142              	.LBB126:
 143              	.LBB127:
 144              		.loc 2 34 10 is_stmt 0 view .LVU44
 145 0083 488BB348 		movq	840(%rbx), %rsi
 145      030000
 146 008a 480F46EA 		cmovbe	%rdx, %rbp
 147              	.LVL15:
 148              		.loc 2 34 10 view .LVU45
 149              	.LBE127:
 150              	.LBE126:
 541:fltk-1.3.4-1/png/pngpread.c ****       png_ptr->buffer_size -= save_size;
 151              		.loc 1 541 7 is_stmt 1 view .LVU46
 152              	.LBB129:
 153              	.LBI126:
  31:/usr/include/x86_64-linux-gnu/bits/string_fortified.h **** 	       size_t __len))
 154              		.loc 2 31 1 view .LVU47
 155              	.LBB128:
 156              		.loc 2 34 3 view .LVU48
 157              		.loc 2 34 10 is_stmt 0 view .LVU49
 158 008e 4889EA   		movq	%rbp, %rdx
 159 0091 E8000000 		call	memcpy@PLT
 159      00
 160              	.LVL16:
 161              		.loc 2 34 10 view .LVU50
 162              	.LBE128:
 163              	.LBE129:
 542:fltk-1.3.4-1/png/pngpread.c ****       png_ptr->current_buffer_size -= save_size;
 164              		.loc 1 542 7 is_stmt 1 view .LVU51
 542:fltk-1.3.4-1/png/pngpread.c ****       png_ptr->current_buffer_size -= save_size;
 165              		.loc 1 542 28 is_stmt 0 view .LVU52
 166 0096 4829AB70 		subq	%rbp, 880(%rbx)
 166      030000
 543:fltk-1.3.4-1/png/pngpread.c ****       png_ptr->current_buffer_ptr += save_size;
 167              		.loc 1 543 7 is_stmt 1 view .LVU53
 543:fltk-1.3.4-1/png/pngpread.c ****       png_ptr->current_buffer_ptr += save_size;
 168              		.loc 1 543 36 is_stmt 0 view .LVU54
 169 009d 4829AB78 		subq	%rbp, 888(%rbx)
 169      030000
 544:fltk-1.3.4-1/png/pngpread.c ****    }
 170              		.loc 1 544 7 is_stmt 1 view .LVU55
 544:fltk-1.3.4-1/png/pngpread.c ****    }
 171              		.loc 1 544 35 is_stmt 0 view .LVU56
 172 00a4 4801AB48 		addq	%rbp, 840(%rbx)
 172      030000
 173              	.LBE125:
 174              		.loc 1 546 1 view .LVU57
 175 00ab 5B       		popq	%rbx
 176              		.cfi_def_cfa_offset 24
 177              	.LVL17:
 178              		.loc 1 546 1 view .LVU58
 179 00ac 5D       		popq	%rbp
 180              		.cfi_def_cfa_offset 16
 181              	.LVL18:
 182              		.loc 1 546 1 view .LVU59
 183 00ad 415C     		popq	%r12
 184              		.cfi_def_cfa_offset 8
 185 00af C3       		ret
 186              		.cfi_endproc
 187              	.LFE49:
 189              		.section	.text.png_read_push_finish_row.part.0,"ax",@progbits
 190              		.p2align 4
 192              	png_read_push_finish_row.part.0:
 193              	.LVL19:
 194              	.LFB63:
 547:fltk-1.3.4-1/png/pngpread.c **** 
 548:fltk-1.3.4-1/png/pngpread.c **** void /* PRIVATE */
 549:fltk-1.3.4-1/png/pngpread.c **** png_push_save_buffer(png_structrp png_ptr)
 550:fltk-1.3.4-1/png/pngpread.c **** {
 551:fltk-1.3.4-1/png/pngpread.c ****    if (png_ptr->save_buffer_size != 0)
 552:fltk-1.3.4-1/png/pngpread.c ****    {
 553:fltk-1.3.4-1/png/pngpread.c ****       if (png_ptr->save_buffer_ptr != png_ptr->save_buffer)
 554:fltk-1.3.4-1/png/pngpread.c ****       {
 555:fltk-1.3.4-1/png/pngpread.c ****          png_size_t i, istop;
 556:fltk-1.3.4-1/png/pngpread.c ****          png_bytep sp;
 557:fltk-1.3.4-1/png/pngpread.c ****          png_bytep dp;
 558:fltk-1.3.4-1/png/pngpread.c **** 
 559:fltk-1.3.4-1/png/pngpread.c ****          istop = png_ptr->save_buffer_size;
 560:fltk-1.3.4-1/png/pngpread.c ****          for (i = 0, sp = png_ptr->save_buffer_ptr, dp = png_ptr->save_buffer;
 561:fltk-1.3.4-1/png/pngpread.c ****              i < istop; i++, sp++, dp++)
 562:fltk-1.3.4-1/png/pngpread.c ****          {
 563:fltk-1.3.4-1/png/pngpread.c ****             *dp = *sp;
 564:fltk-1.3.4-1/png/pngpread.c ****          }
 565:fltk-1.3.4-1/png/pngpread.c ****       }
 566:fltk-1.3.4-1/png/pngpread.c ****    }
 567:fltk-1.3.4-1/png/pngpread.c ****    if (png_ptr->save_buffer_size + png_ptr->current_buffer_size >
 568:fltk-1.3.4-1/png/pngpread.c ****        png_ptr->save_buffer_max)
 569:fltk-1.3.4-1/png/pngpread.c ****    {
 570:fltk-1.3.4-1/png/pngpread.c ****       png_size_t new_max;
 571:fltk-1.3.4-1/png/pngpread.c ****       png_bytep old_buffer;
 572:fltk-1.3.4-1/png/pngpread.c **** 
 573:fltk-1.3.4-1/png/pngpread.c ****       if (png_ptr->save_buffer_size > PNG_SIZE_MAX -
 574:fltk-1.3.4-1/png/pngpread.c ****           (png_ptr->current_buffer_size + 256))
 575:fltk-1.3.4-1/png/pngpread.c ****       {
 576:fltk-1.3.4-1/png/pngpread.c ****          png_error(png_ptr, "Potential overflow of save_buffer");
 577:fltk-1.3.4-1/png/pngpread.c ****       }
 578:fltk-1.3.4-1/png/pngpread.c **** 
 579:fltk-1.3.4-1/png/pngpread.c ****       new_max = png_ptr->save_buffer_size + png_ptr->current_buffer_size + 256;
 580:fltk-1.3.4-1/png/pngpread.c ****       old_buffer = png_ptr->save_buffer;
 581:fltk-1.3.4-1/png/pngpread.c ****       png_ptr->save_buffer = (png_bytep)png_malloc_warn(png_ptr,
 582:fltk-1.3.4-1/png/pngpread.c ****           (png_size_t)new_max);
 583:fltk-1.3.4-1/png/pngpread.c **** 
 584:fltk-1.3.4-1/png/pngpread.c ****       if (png_ptr->save_buffer == NULL)
 585:fltk-1.3.4-1/png/pngpread.c ****       {
 586:fltk-1.3.4-1/png/pngpread.c ****          png_free(png_ptr, old_buffer);
 587:fltk-1.3.4-1/png/pngpread.c ****          old_buffer = NULL;
 588:fltk-1.3.4-1/png/pngpread.c ****          png_error(png_ptr, "Insufficient memory for save_buffer");
 589:fltk-1.3.4-1/png/pngpread.c ****       }
 590:fltk-1.3.4-1/png/pngpread.c **** 
 591:fltk-1.3.4-1/png/pngpread.c ****       memcpy(png_ptr->save_buffer, old_buffer, png_ptr->save_buffer_size);
 592:fltk-1.3.4-1/png/pngpread.c ****       png_free(png_ptr, old_buffer);
 593:fltk-1.3.4-1/png/pngpread.c ****       old_buffer = NULL;
 594:fltk-1.3.4-1/png/pngpread.c ****       png_ptr->save_buffer_max = new_max;
 595:fltk-1.3.4-1/png/pngpread.c ****    }
 596:fltk-1.3.4-1/png/pngpread.c ****    if (png_ptr->current_buffer_size)
 597:fltk-1.3.4-1/png/pngpread.c ****    {
 598:fltk-1.3.4-1/png/pngpread.c ****       memcpy(png_ptr->save_buffer + png_ptr->save_buffer_size,
 599:fltk-1.3.4-1/png/pngpread.c ****          png_ptr->current_buffer_ptr, png_ptr->current_buffer_size);
 600:fltk-1.3.4-1/png/pngpread.c ****       png_ptr->save_buffer_size += png_ptr->current_buffer_size;
 601:fltk-1.3.4-1/png/pngpread.c ****       png_ptr->current_buffer_size = 0;
 602:fltk-1.3.4-1/png/pngpread.c ****    }
 603:fltk-1.3.4-1/png/pngpread.c ****    png_ptr->save_buffer_ptr = png_ptr->save_buffer;
 604:fltk-1.3.4-1/png/pngpread.c ****    png_ptr->buffer_size = 0;
 605:fltk-1.3.4-1/png/pngpread.c **** }
 606:fltk-1.3.4-1/png/pngpread.c **** 
 607:fltk-1.3.4-1/png/pngpread.c **** void /* PRIVATE */
 608:fltk-1.3.4-1/png/pngpread.c **** png_push_restore_buffer(png_structrp png_ptr, png_bytep buffer,
 609:fltk-1.3.4-1/png/pngpread.c ****    png_size_t buffer_length)
 610:fltk-1.3.4-1/png/pngpread.c **** {
 611:fltk-1.3.4-1/png/pngpread.c ****    png_ptr->current_buffer = buffer;
 612:fltk-1.3.4-1/png/pngpread.c ****    png_ptr->current_buffer_size = buffer_length;
 613:fltk-1.3.4-1/png/pngpread.c ****    png_ptr->buffer_size = buffer_length + png_ptr->save_buffer_size;
 614:fltk-1.3.4-1/png/pngpread.c ****    png_ptr->current_buffer_ptr = png_ptr->current_buffer;
 615:fltk-1.3.4-1/png/pngpread.c **** }
 616:fltk-1.3.4-1/png/pngpread.c **** 
 617:fltk-1.3.4-1/png/pngpread.c **** void /* PRIVATE */
 618:fltk-1.3.4-1/png/pngpread.c **** png_push_read_IDAT(png_structrp png_ptr)
 619:fltk-1.3.4-1/png/pngpread.c **** {
 620:fltk-1.3.4-1/png/pngpread.c ****    if ((png_ptr->mode & PNG_HAVE_CHUNK_HEADER) == 0)
 621:fltk-1.3.4-1/png/pngpread.c ****    {
 622:fltk-1.3.4-1/png/pngpread.c ****       png_byte chunk_length[4];
 623:fltk-1.3.4-1/png/pngpread.c ****       png_byte chunk_tag[4];
 624:fltk-1.3.4-1/png/pngpread.c **** 
 625:fltk-1.3.4-1/png/pngpread.c ****       /* TODO: this code can be commoned up with the same code in push_read */
 626:fltk-1.3.4-1/png/pngpread.c ****       PNG_PUSH_SAVE_BUFFER_IF_LT(8)
 627:fltk-1.3.4-1/png/pngpread.c ****       png_push_fill_buffer(png_ptr, chunk_length, 4);
 628:fltk-1.3.4-1/png/pngpread.c ****       png_ptr->push_length = png_get_uint_31(png_ptr, chunk_length);
 629:fltk-1.3.4-1/png/pngpread.c ****       png_reset_crc(png_ptr);
 630:fltk-1.3.4-1/png/pngpread.c ****       png_crc_read(png_ptr, chunk_tag, 4);
 631:fltk-1.3.4-1/png/pngpread.c ****       png_ptr->chunk_name = PNG_CHUNK_FROM_STRING(chunk_tag);
 632:fltk-1.3.4-1/png/pngpread.c ****       png_ptr->mode |= PNG_HAVE_CHUNK_HEADER;
 633:fltk-1.3.4-1/png/pngpread.c **** 
 634:fltk-1.3.4-1/png/pngpread.c ****       if (png_ptr->chunk_name != png_IDAT)
 635:fltk-1.3.4-1/png/pngpread.c ****       {
 636:fltk-1.3.4-1/png/pngpread.c ****          png_ptr->process_mode = PNG_READ_CHUNK_MODE;
 637:fltk-1.3.4-1/png/pngpread.c **** 
 638:fltk-1.3.4-1/png/pngpread.c ****          if ((png_ptr->flags & PNG_FLAG_ZSTREAM_ENDED) == 0)
 639:fltk-1.3.4-1/png/pngpread.c ****             png_error(png_ptr, "Not enough compressed data");
 640:fltk-1.3.4-1/png/pngpread.c **** 
 641:fltk-1.3.4-1/png/pngpread.c ****          return;
 642:fltk-1.3.4-1/png/pngpread.c ****       }
 643:fltk-1.3.4-1/png/pngpread.c **** 
 644:fltk-1.3.4-1/png/pngpread.c ****       png_ptr->idat_size = png_ptr->push_length;
 645:fltk-1.3.4-1/png/pngpread.c ****    }
 646:fltk-1.3.4-1/png/pngpread.c **** 
 647:fltk-1.3.4-1/png/pngpread.c ****    if (png_ptr->idat_size != 0 && png_ptr->save_buffer_size != 0)
 648:fltk-1.3.4-1/png/pngpread.c ****    {
 649:fltk-1.3.4-1/png/pngpread.c ****       png_size_t save_size = png_ptr->save_buffer_size;
 650:fltk-1.3.4-1/png/pngpread.c ****       png_uint_32 idat_size = png_ptr->idat_size;
 651:fltk-1.3.4-1/png/pngpread.c **** 
 652:fltk-1.3.4-1/png/pngpread.c ****       /* We want the smaller of 'idat_size' and 'current_buffer_size', but they
 653:fltk-1.3.4-1/png/pngpread.c ****        * are of different types and we don't know which variable has the fewest
 654:fltk-1.3.4-1/png/pngpread.c ****        * bits.  Carefully select the smaller and cast it to the type of the
 655:fltk-1.3.4-1/png/pngpread.c ****        * larger - this cannot overflow.  Do not cast in the following test - it
 656:fltk-1.3.4-1/png/pngpread.c ****        * will break on either 16 or 64 bit platforms.
 657:fltk-1.3.4-1/png/pngpread.c ****        */
 658:fltk-1.3.4-1/png/pngpread.c ****       if (idat_size < save_size)
 659:fltk-1.3.4-1/png/pngpread.c ****          save_size = (png_size_t)idat_size;
 660:fltk-1.3.4-1/png/pngpread.c **** 
 661:fltk-1.3.4-1/png/pngpread.c ****       else
 662:fltk-1.3.4-1/png/pngpread.c ****          idat_size = (png_uint_32)save_size;
 663:fltk-1.3.4-1/png/pngpread.c **** 
 664:fltk-1.3.4-1/png/pngpread.c ****       png_calculate_crc(png_ptr, png_ptr->save_buffer_ptr, save_size);
 665:fltk-1.3.4-1/png/pngpread.c **** 
 666:fltk-1.3.4-1/png/pngpread.c ****       png_process_IDAT_data(png_ptr, png_ptr->save_buffer_ptr, save_size);
 667:fltk-1.3.4-1/png/pngpread.c **** 
 668:fltk-1.3.4-1/png/pngpread.c ****       png_ptr->idat_size -= idat_size;
 669:fltk-1.3.4-1/png/pngpread.c ****       png_ptr->buffer_size -= save_size;
 670:fltk-1.3.4-1/png/pngpread.c ****       png_ptr->save_buffer_size -= save_size;
 671:fltk-1.3.4-1/png/pngpread.c ****       png_ptr->save_buffer_ptr += save_size;
 672:fltk-1.3.4-1/png/pngpread.c ****    }
 673:fltk-1.3.4-1/png/pngpread.c **** 
 674:fltk-1.3.4-1/png/pngpread.c ****    if (png_ptr->idat_size != 0 && png_ptr->current_buffer_size != 0)
 675:fltk-1.3.4-1/png/pngpread.c ****    {
 676:fltk-1.3.4-1/png/pngpread.c ****       png_size_t save_size = png_ptr->current_buffer_size;
 677:fltk-1.3.4-1/png/pngpread.c ****       png_uint_32 idat_size = png_ptr->idat_size;
 678:fltk-1.3.4-1/png/pngpread.c **** 
 679:fltk-1.3.4-1/png/pngpread.c ****       /* We want the smaller of 'idat_size' and 'current_buffer_size', but they
 680:fltk-1.3.4-1/png/pngpread.c ****        * are of different types and we don't know which variable has the fewest
 681:fltk-1.3.4-1/png/pngpread.c ****        * bits.  Carefully select the smaller and cast it to the type of the
 682:fltk-1.3.4-1/png/pngpread.c ****        * larger - this cannot overflow.
 683:fltk-1.3.4-1/png/pngpread.c ****        */
 684:fltk-1.3.4-1/png/pngpread.c ****       if (idat_size < save_size)
 685:fltk-1.3.4-1/png/pngpread.c ****          save_size = (png_size_t)idat_size;
 686:fltk-1.3.4-1/png/pngpread.c **** 
 687:fltk-1.3.4-1/png/pngpread.c ****       else
 688:fltk-1.3.4-1/png/pngpread.c ****          idat_size = (png_uint_32)save_size;
 689:fltk-1.3.4-1/png/pngpread.c **** 
 690:fltk-1.3.4-1/png/pngpread.c ****       png_calculate_crc(png_ptr, png_ptr->current_buffer_ptr, save_size);
 691:fltk-1.3.4-1/png/pngpread.c **** 
 692:fltk-1.3.4-1/png/pngpread.c ****       png_process_IDAT_data(png_ptr, png_ptr->current_buffer_ptr, save_size);
 693:fltk-1.3.4-1/png/pngpread.c **** 
 694:fltk-1.3.4-1/png/pngpread.c ****       png_ptr->idat_size -= idat_size;
 695:fltk-1.3.4-1/png/pngpread.c ****       png_ptr->buffer_size -= save_size;
 696:fltk-1.3.4-1/png/pngpread.c ****       png_ptr->current_buffer_size -= save_size;
 697:fltk-1.3.4-1/png/pngpread.c ****       png_ptr->current_buffer_ptr += save_size;
 698:fltk-1.3.4-1/png/pngpread.c ****    }
 699:fltk-1.3.4-1/png/pngpread.c ****    if (png_ptr->idat_size == 0)
 700:fltk-1.3.4-1/png/pngpread.c ****    {
 701:fltk-1.3.4-1/png/pngpread.c ****       PNG_PUSH_SAVE_BUFFER_IF_LT(4)
 702:fltk-1.3.4-1/png/pngpread.c ****       png_crc_finish(png_ptr, 0);
 703:fltk-1.3.4-1/png/pngpread.c ****       png_ptr->mode &= ~PNG_HAVE_CHUNK_HEADER;
 704:fltk-1.3.4-1/png/pngpread.c ****       png_ptr->mode |= PNG_AFTER_IDAT;
 705:fltk-1.3.4-1/png/pngpread.c ****       png_ptr->zowner = 0;
 706:fltk-1.3.4-1/png/pngpread.c ****    }
 707:fltk-1.3.4-1/png/pngpread.c **** }
 708:fltk-1.3.4-1/png/pngpread.c **** 
 709:fltk-1.3.4-1/png/pngpread.c **** void /* PRIVATE */
 710:fltk-1.3.4-1/png/pngpread.c **** png_process_IDAT_data(png_structrp png_ptr, png_bytep buffer,
 711:fltk-1.3.4-1/png/pngpread.c ****    png_size_t buffer_length)
 712:fltk-1.3.4-1/png/pngpread.c **** {
 713:fltk-1.3.4-1/png/pngpread.c ****    /* The caller checks for a non-zero buffer length. */
 714:fltk-1.3.4-1/png/pngpread.c ****    if (!(buffer_length > 0) || buffer == NULL)
 715:fltk-1.3.4-1/png/pngpread.c ****       png_error(png_ptr, "No IDAT data (internal error)");
 716:fltk-1.3.4-1/png/pngpread.c **** 
 717:fltk-1.3.4-1/png/pngpread.c ****    /* This routine must process all the data it has been given
 718:fltk-1.3.4-1/png/pngpread.c ****     * before returning, calling the row callback as required to
 719:fltk-1.3.4-1/png/pngpread.c ****     * handle the uncompressed results.
 720:fltk-1.3.4-1/png/pngpread.c ****     */
 721:fltk-1.3.4-1/png/pngpread.c ****    png_ptr->zstream.next_in = buffer;
 722:fltk-1.3.4-1/png/pngpread.c ****    /* TODO: WARNING: TRUNCATION ERROR: DANGER WILL ROBINSON: */
 723:fltk-1.3.4-1/png/pngpread.c ****    png_ptr->zstream.avail_in = (uInt)buffer_length;
 724:fltk-1.3.4-1/png/pngpread.c **** 
 725:fltk-1.3.4-1/png/pngpread.c ****    /* Keep going until the decompressed data is all processed
 726:fltk-1.3.4-1/png/pngpread.c ****     * or the stream marked as finished.
 727:fltk-1.3.4-1/png/pngpread.c ****     */
 728:fltk-1.3.4-1/png/pngpread.c ****    while (png_ptr->zstream.avail_in > 0 &&
 729:fltk-1.3.4-1/png/pngpread.c ****       !(png_ptr->flags & PNG_FLAG_ZSTREAM_ENDED))
 730:fltk-1.3.4-1/png/pngpread.c ****    {
 731:fltk-1.3.4-1/png/pngpread.c ****       int ret;
 732:fltk-1.3.4-1/png/pngpread.c **** 
 733:fltk-1.3.4-1/png/pngpread.c ****       /* We have data for zlib, but we must check that zlib
 734:fltk-1.3.4-1/png/pngpread.c ****        * has someplace to put the results.  It doesn't matter
 735:fltk-1.3.4-1/png/pngpread.c ****        * if we don't expect any results -- it may be the input
 736:fltk-1.3.4-1/png/pngpread.c ****        * data is just the LZ end code.
 737:fltk-1.3.4-1/png/pngpread.c ****        */
 738:fltk-1.3.4-1/png/pngpread.c ****       if (!(png_ptr->zstream.avail_out > 0))
 739:fltk-1.3.4-1/png/pngpread.c ****       {
 740:fltk-1.3.4-1/png/pngpread.c ****          /* TODO: WARNING: TRUNCATION ERROR: DANGER WILL ROBINSON: */
 741:fltk-1.3.4-1/png/pngpread.c ****          png_ptr->zstream.avail_out = (uInt)(PNG_ROWBYTES(png_ptr->pixel_depth,
 742:fltk-1.3.4-1/png/pngpread.c ****              png_ptr->iwidth) + 1);
 743:fltk-1.3.4-1/png/pngpread.c **** 
 744:fltk-1.3.4-1/png/pngpread.c ****          png_ptr->zstream.next_out = png_ptr->row_buf;
 745:fltk-1.3.4-1/png/pngpread.c ****       }
 746:fltk-1.3.4-1/png/pngpread.c **** 
 747:fltk-1.3.4-1/png/pngpread.c ****       /* Using Z_SYNC_FLUSH here means that an unterminated
 748:fltk-1.3.4-1/png/pngpread.c ****        * LZ stream (a stream with a missing end code) can still
 749:fltk-1.3.4-1/png/pngpread.c ****        * be handled, otherwise (Z_NO_FLUSH) a future zlib
 750:fltk-1.3.4-1/png/pngpread.c ****        * implementation might defer output and therefore
 751:fltk-1.3.4-1/png/pngpread.c ****        * change the current behavior (see comments in inflate.c
 752:fltk-1.3.4-1/png/pngpread.c ****        * for why this doesn't happen at present with zlib 1.2.5).
 753:fltk-1.3.4-1/png/pngpread.c ****        */
 754:fltk-1.3.4-1/png/pngpread.c ****       ret = inflate(&png_ptr->zstream, Z_SYNC_FLUSH);
 755:fltk-1.3.4-1/png/pngpread.c **** 
 756:fltk-1.3.4-1/png/pngpread.c ****       /* Check for any failure before proceeding. */
 757:fltk-1.3.4-1/png/pngpread.c ****       if (ret != Z_OK && ret != Z_STREAM_END)
 758:fltk-1.3.4-1/png/pngpread.c ****       {
 759:fltk-1.3.4-1/png/pngpread.c ****          /* Terminate the decompression. */
 760:fltk-1.3.4-1/png/pngpread.c ****          png_ptr->flags |= PNG_FLAG_ZSTREAM_ENDED;
 761:fltk-1.3.4-1/png/pngpread.c ****          png_ptr->zowner = 0;
 762:fltk-1.3.4-1/png/pngpread.c **** 
 763:fltk-1.3.4-1/png/pngpread.c ****          /* This may be a truncated stream (missing or
 764:fltk-1.3.4-1/png/pngpread.c ****           * damaged end code).  Treat that as a warning.
 765:fltk-1.3.4-1/png/pngpread.c ****           */
 766:fltk-1.3.4-1/png/pngpread.c ****          if (png_ptr->row_number >= png_ptr->num_rows ||
 767:fltk-1.3.4-1/png/pngpread.c ****              png_ptr->pass > 6)
 768:fltk-1.3.4-1/png/pngpread.c ****             png_warning(png_ptr, "Truncated compressed data in IDAT");
 769:fltk-1.3.4-1/png/pngpread.c **** 
 770:fltk-1.3.4-1/png/pngpread.c ****          else
 771:fltk-1.3.4-1/png/pngpread.c ****             png_error(png_ptr, "Decompression error in IDAT");
 772:fltk-1.3.4-1/png/pngpread.c **** 
 773:fltk-1.3.4-1/png/pngpread.c ****          /* Skip the check on unprocessed input */
 774:fltk-1.3.4-1/png/pngpread.c ****          return;
 775:fltk-1.3.4-1/png/pngpread.c ****       }
 776:fltk-1.3.4-1/png/pngpread.c **** 
 777:fltk-1.3.4-1/png/pngpread.c ****       /* Did inflate output any data? */
 778:fltk-1.3.4-1/png/pngpread.c ****       if (png_ptr->zstream.next_out != png_ptr->row_buf)
 779:fltk-1.3.4-1/png/pngpread.c ****       {
 780:fltk-1.3.4-1/png/pngpread.c ****          /* Is this unexpected data after the last row?
 781:fltk-1.3.4-1/png/pngpread.c ****           * If it is, artificially terminate the LZ output
 782:fltk-1.3.4-1/png/pngpread.c ****           * here.
 783:fltk-1.3.4-1/png/pngpread.c ****           */
 784:fltk-1.3.4-1/png/pngpread.c ****          if (png_ptr->row_number >= png_ptr->num_rows ||
 785:fltk-1.3.4-1/png/pngpread.c ****              png_ptr->pass > 6)
 786:fltk-1.3.4-1/png/pngpread.c ****          {
 787:fltk-1.3.4-1/png/pngpread.c ****             /* Extra data. */
 788:fltk-1.3.4-1/png/pngpread.c ****             png_warning(png_ptr, "Extra compressed data in IDAT");
 789:fltk-1.3.4-1/png/pngpread.c ****             png_ptr->flags |= PNG_FLAG_ZSTREAM_ENDED;
 790:fltk-1.3.4-1/png/pngpread.c ****             png_ptr->zowner = 0;
 791:fltk-1.3.4-1/png/pngpread.c **** 
 792:fltk-1.3.4-1/png/pngpread.c ****             /* Do no more processing; skip the unprocessed
 793:fltk-1.3.4-1/png/pngpread.c ****              * input check below.
 794:fltk-1.3.4-1/png/pngpread.c ****              */
 795:fltk-1.3.4-1/png/pngpread.c ****             return;
 796:fltk-1.3.4-1/png/pngpread.c ****          }
 797:fltk-1.3.4-1/png/pngpread.c **** 
 798:fltk-1.3.4-1/png/pngpread.c ****          /* Do we have a complete row? */
 799:fltk-1.3.4-1/png/pngpread.c ****          if (png_ptr->zstream.avail_out == 0)
 800:fltk-1.3.4-1/png/pngpread.c ****             png_push_process_row(png_ptr);
 801:fltk-1.3.4-1/png/pngpread.c ****       }
 802:fltk-1.3.4-1/png/pngpread.c **** 
 803:fltk-1.3.4-1/png/pngpread.c ****       /* And check for the end of the stream. */
 804:fltk-1.3.4-1/png/pngpread.c ****       if (ret == Z_STREAM_END)
 805:fltk-1.3.4-1/png/pngpread.c ****          png_ptr->flags |= PNG_FLAG_ZSTREAM_ENDED;
 806:fltk-1.3.4-1/png/pngpread.c ****    }
 807:fltk-1.3.4-1/png/pngpread.c **** 
 808:fltk-1.3.4-1/png/pngpread.c ****    /* All the data should have been processed, if anything
 809:fltk-1.3.4-1/png/pngpread.c ****     * is left at this point we have bytes of IDAT data
 810:fltk-1.3.4-1/png/pngpread.c ****     * after the zlib end code.
 811:fltk-1.3.4-1/png/pngpread.c ****     */
 812:fltk-1.3.4-1/png/pngpread.c ****    if (png_ptr->zstream.avail_in > 0)
 813:fltk-1.3.4-1/png/pngpread.c ****       png_warning(png_ptr, "Extra compression data in IDAT");
 814:fltk-1.3.4-1/png/pngpread.c **** }
 815:fltk-1.3.4-1/png/pngpread.c **** 
 816:fltk-1.3.4-1/png/pngpread.c **** void /* PRIVATE */
 817:fltk-1.3.4-1/png/pngpread.c **** png_push_process_row(png_structrp png_ptr)
 818:fltk-1.3.4-1/png/pngpread.c **** {
 819:fltk-1.3.4-1/png/pngpread.c ****    /* 1.5.6: row_info moved out of png_struct to a local here. */
 820:fltk-1.3.4-1/png/pngpread.c ****    png_row_info row_info;
 821:fltk-1.3.4-1/png/pngpread.c **** 
 822:fltk-1.3.4-1/png/pngpread.c ****    row_info.width = png_ptr->iwidth; /* NOTE: width of current interlaced row */
 823:fltk-1.3.4-1/png/pngpread.c ****    row_info.color_type = png_ptr->color_type;
 824:fltk-1.3.4-1/png/pngpread.c ****    row_info.bit_depth = png_ptr->bit_depth;
 825:fltk-1.3.4-1/png/pngpread.c ****    row_info.channels = png_ptr->channels;
 826:fltk-1.3.4-1/png/pngpread.c ****    row_info.pixel_depth = png_ptr->pixel_depth;
 827:fltk-1.3.4-1/png/pngpread.c ****    row_info.rowbytes = PNG_ROWBYTES(row_info.pixel_depth, row_info.width);
 828:fltk-1.3.4-1/png/pngpread.c **** 
 829:fltk-1.3.4-1/png/pngpread.c ****    if (png_ptr->row_buf[0] > PNG_FILTER_VALUE_NONE)
 830:fltk-1.3.4-1/png/pngpread.c ****    {
 831:fltk-1.3.4-1/png/pngpread.c ****       if (png_ptr->row_buf[0] < PNG_FILTER_VALUE_LAST)
 832:fltk-1.3.4-1/png/pngpread.c ****          png_read_filter_row(png_ptr, &row_info, png_ptr->row_buf + 1,
 833:fltk-1.3.4-1/png/pngpread.c ****             png_ptr->prev_row + 1, png_ptr->row_buf[0]);
 834:fltk-1.3.4-1/png/pngpread.c ****       else
 835:fltk-1.3.4-1/png/pngpread.c ****          png_error(png_ptr, "bad adaptive filter value");
 836:fltk-1.3.4-1/png/pngpread.c ****    }
 837:fltk-1.3.4-1/png/pngpread.c **** 
 838:fltk-1.3.4-1/png/pngpread.c ****    /* libpng 1.5.6: the following line was copying png_ptr->rowbytes before
 839:fltk-1.3.4-1/png/pngpread.c ****     * 1.5.6, while the buffer really is this big in current versions of libpng
 840:fltk-1.3.4-1/png/pngpread.c ****     * it may not be in the future, so this was changed just to copy the
 841:fltk-1.3.4-1/png/pngpread.c ****     * interlaced row count:
 842:fltk-1.3.4-1/png/pngpread.c ****     */
 843:fltk-1.3.4-1/png/pngpread.c ****    memcpy(png_ptr->prev_row, png_ptr->row_buf, row_info.rowbytes + 1);
 844:fltk-1.3.4-1/png/pngpread.c **** 
 845:fltk-1.3.4-1/png/pngpread.c **** #ifdef PNG_READ_TRANSFORMS_SUPPORTED
 846:fltk-1.3.4-1/png/pngpread.c ****    if (png_ptr->transformations != 0)
 847:fltk-1.3.4-1/png/pngpread.c ****       png_do_read_transformations(png_ptr, &row_info);
 848:fltk-1.3.4-1/png/pngpread.c **** #endif
 849:fltk-1.3.4-1/png/pngpread.c **** 
 850:fltk-1.3.4-1/png/pngpread.c ****    /* The transformed pixel depth should match the depth now in row_info. */
 851:fltk-1.3.4-1/png/pngpread.c ****    if (png_ptr->transformed_pixel_depth == 0)
 852:fltk-1.3.4-1/png/pngpread.c ****    {
 853:fltk-1.3.4-1/png/pngpread.c ****       png_ptr->transformed_pixel_depth = row_info.pixel_depth;
 854:fltk-1.3.4-1/png/pngpread.c ****       if (row_info.pixel_depth > png_ptr->maximum_pixel_depth)
 855:fltk-1.3.4-1/png/pngpread.c ****          png_error(png_ptr, "progressive row overflow");
 856:fltk-1.3.4-1/png/pngpread.c ****    }
 857:fltk-1.3.4-1/png/pngpread.c **** 
 858:fltk-1.3.4-1/png/pngpread.c ****    else if (png_ptr->transformed_pixel_depth != row_info.pixel_depth)
 859:fltk-1.3.4-1/png/pngpread.c ****       png_error(png_ptr, "internal progressive row size calculation error");
 860:fltk-1.3.4-1/png/pngpread.c **** 
 861:fltk-1.3.4-1/png/pngpread.c **** 
 862:fltk-1.3.4-1/png/pngpread.c **** #ifdef PNG_READ_INTERLACING_SUPPORTED
 863:fltk-1.3.4-1/png/pngpread.c ****    /* Expand interlaced rows to full size */
 864:fltk-1.3.4-1/png/pngpread.c ****    if (png_ptr->interlaced != 0 &&
 865:fltk-1.3.4-1/png/pngpread.c ****        (png_ptr->transformations & PNG_INTERLACE) != 0)
 866:fltk-1.3.4-1/png/pngpread.c ****    {
 867:fltk-1.3.4-1/png/pngpread.c ****       if (png_ptr->pass < 6)
 868:fltk-1.3.4-1/png/pngpread.c ****          png_do_read_interlace(&row_info, png_ptr->row_buf + 1, png_ptr->pass,
 869:fltk-1.3.4-1/png/pngpread.c ****             png_ptr->transformations);
 870:fltk-1.3.4-1/png/pngpread.c **** 
 871:fltk-1.3.4-1/png/pngpread.c ****       switch (png_ptr->pass)
 872:fltk-1.3.4-1/png/pngpread.c ****       {
 873:fltk-1.3.4-1/png/pngpread.c ****          case 0:
 874:fltk-1.3.4-1/png/pngpread.c ****          {
 875:fltk-1.3.4-1/png/pngpread.c ****             int i;
 876:fltk-1.3.4-1/png/pngpread.c ****             for (i = 0; i < 8 && png_ptr->pass == 0; i++)
 877:fltk-1.3.4-1/png/pngpread.c ****             {
 878:fltk-1.3.4-1/png/pngpread.c ****                png_push_have_row(png_ptr, png_ptr->row_buf + 1);
 879:fltk-1.3.4-1/png/pngpread.c ****                png_read_push_finish_row(png_ptr); /* Updates png_ptr->pass */
 880:fltk-1.3.4-1/png/pngpread.c ****             }
 881:fltk-1.3.4-1/png/pngpread.c **** 
 882:fltk-1.3.4-1/png/pngpread.c ****             if (png_ptr->pass == 2) /* Pass 1 might be empty */
 883:fltk-1.3.4-1/png/pngpread.c ****             {
 884:fltk-1.3.4-1/png/pngpread.c ****                for (i = 0; i < 4 && png_ptr->pass == 2; i++)
 885:fltk-1.3.4-1/png/pngpread.c ****                {
 886:fltk-1.3.4-1/png/pngpread.c ****                   png_push_have_row(png_ptr, NULL);
 887:fltk-1.3.4-1/png/pngpread.c ****                   png_read_push_finish_row(png_ptr);
 888:fltk-1.3.4-1/png/pngpread.c ****                }
 889:fltk-1.3.4-1/png/pngpread.c ****             }
 890:fltk-1.3.4-1/png/pngpread.c **** 
 891:fltk-1.3.4-1/png/pngpread.c ****             if (png_ptr->pass == 4 && png_ptr->height <= 4)
 892:fltk-1.3.4-1/png/pngpread.c ****             {
 893:fltk-1.3.4-1/png/pngpread.c ****                for (i = 0; i < 2 && png_ptr->pass == 4; i++)
 894:fltk-1.3.4-1/png/pngpread.c ****                {
 895:fltk-1.3.4-1/png/pngpread.c ****                   png_push_have_row(png_ptr, NULL);
 896:fltk-1.3.4-1/png/pngpread.c ****                   png_read_push_finish_row(png_ptr);
 897:fltk-1.3.4-1/png/pngpread.c ****                }
 898:fltk-1.3.4-1/png/pngpread.c ****             }
 899:fltk-1.3.4-1/png/pngpread.c **** 
 900:fltk-1.3.4-1/png/pngpread.c ****             if (png_ptr->pass == 6 && png_ptr->height <= 4)
 901:fltk-1.3.4-1/png/pngpread.c ****             {
 902:fltk-1.3.4-1/png/pngpread.c ****                 png_push_have_row(png_ptr, NULL);
 903:fltk-1.3.4-1/png/pngpread.c ****                 png_read_push_finish_row(png_ptr);
 904:fltk-1.3.4-1/png/pngpread.c ****             }
 905:fltk-1.3.4-1/png/pngpread.c **** 
 906:fltk-1.3.4-1/png/pngpread.c ****             break;
 907:fltk-1.3.4-1/png/pngpread.c ****          }
 908:fltk-1.3.4-1/png/pngpread.c **** 
 909:fltk-1.3.4-1/png/pngpread.c ****          case 1:
 910:fltk-1.3.4-1/png/pngpread.c ****          {
 911:fltk-1.3.4-1/png/pngpread.c ****             int i;
 912:fltk-1.3.4-1/png/pngpread.c ****             for (i = 0; i < 8 && png_ptr->pass == 1; i++)
 913:fltk-1.3.4-1/png/pngpread.c ****             {
 914:fltk-1.3.4-1/png/pngpread.c ****                png_push_have_row(png_ptr, png_ptr->row_buf + 1);
 915:fltk-1.3.4-1/png/pngpread.c ****                png_read_push_finish_row(png_ptr);
 916:fltk-1.3.4-1/png/pngpread.c ****             }
 917:fltk-1.3.4-1/png/pngpread.c **** 
 918:fltk-1.3.4-1/png/pngpread.c ****             if (png_ptr->pass == 2) /* Skip top 4 generated rows */
 919:fltk-1.3.4-1/png/pngpread.c ****             {
 920:fltk-1.3.4-1/png/pngpread.c ****                for (i = 0; i < 4 && png_ptr->pass == 2; i++)
 921:fltk-1.3.4-1/png/pngpread.c ****                {
 922:fltk-1.3.4-1/png/pngpread.c ****                   png_push_have_row(png_ptr, NULL);
 923:fltk-1.3.4-1/png/pngpread.c ****                   png_read_push_finish_row(png_ptr);
 924:fltk-1.3.4-1/png/pngpread.c ****                }
 925:fltk-1.3.4-1/png/pngpread.c ****             }
 926:fltk-1.3.4-1/png/pngpread.c **** 
 927:fltk-1.3.4-1/png/pngpread.c ****             break;
 928:fltk-1.3.4-1/png/pngpread.c ****          }
 929:fltk-1.3.4-1/png/pngpread.c **** 
 930:fltk-1.3.4-1/png/pngpread.c ****          case 2:
 931:fltk-1.3.4-1/png/pngpread.c ****          {
 932:fltk-1.3.4-1/png/pngpread.c ****             int i;
 933:fltk-1.3.4-1/png/pngpread.c **** 
 934:fltk-1.3.4-1/png/pngpread.c ****             for (i = 0; i < 4 && png_ptr->pass == 2; i++)
 935:fltk-1.3.4-1/png/pngpread.c ****             {
 936:fltk-1.3.4-1/png/pngpread.c ****                png_push_have_row(png_ptr, png_ptr->row_buf + 1);
 937:fltk-1.3.4-1/png/pngpread.c ****                png_read_push_finish_row(png_ptr);
 938:fltk-1.3.4-1/png/pngpread.c ****             }
 939:fltk-1.3.4-1/png/pngpread.c **** 
 940:fltk-1.3.4-1/png/pngpread.c ****             for (i = 0; i < 4 && png_ptr->pass == 2; i++)
 941:fltk-1.3.4-1/png/pngpread.c ****             {
 942:fltk-1.3.4-1/png/pngpread.c ****                png_push_have_row(png_ptr, NULL);
 943:fltk-1.3.4-1/png/pngpread.c ****                png_read_push_finish_row(png_ptr);
 944:fltk-1.3.4-1/png/pngpread.c ****             }
 945:fltk-1.3.4-1/png/pngpread.c **** 
 946:fltk-1.3.4-1/png/pngpread.c ****             if (png_ptr->pass == 4) /* Pass 3 might be empty */
 947:fltk-1.3.4-1/png/pngpread.c ****             {
 948:fltk-1.3.4-1/png/pngpread.c ****                for (i = 0; i < 2 && png_ptr->pass == 4; i++)
 949:fltk-1.3.4-1/png/pngpread.c ****                {
 950:fltk-1.3.4-1/png/pngpread.c ****                   png_push_have_row(png_ptr, NULL);
 951:fltk-1.3.4-1/png/pngpread.c ****                   png_read_push_finish_row(png_ptr);
 952:fltk-1.3.4-1/png/pngpread.c ****                }
 953:fltk-1.3.4-1/png/pngpread.c ****             }
 954:fltk-1.3.4-1/png/pngpread.c **** 
 955:fltk-1.3.4-1/png/pngpread.c ****             break;
 956:fltk-1.3.4-1/png/pngpread.c ****          }
 957:fltk-1.3.4-1/png/pngpread.c **** 
 958:fltk-1.3.4-1/png/pngpread.c ****          case 3:
 959:fltk-1.3.4-1/png/pngpread.c ****          {
 960:fltk-1.3.4-1/png/pngpread.c ****             int i;
 961:fltk-1.3.4-1/png/pngpread.c **** 
 962:fltk-1.3.4-1/png/pngpread.c ****             for (i = 0; i < 4 && png_ptr->pass == 3; i++)
 963:fltk-1.3.4-1/png/pngpread.c ****             {
 964:fltk-1.3.4-1/png/pngpread.c ****                png_push_have_row(png_ptr, png_ptr->row_buf + 1);
 965:fltk-1.3.4-1/png/pngpread.c ****                png_read_push_finish_row(png_ptr);
 966:fltk-1.3.4-1/png/pngpread.c ****             }
 967:fltk-1.3.4-1/png/pngpread.c **** 
 968:fltk-1.3.4-1/png/pngpread.c ****             if (png_ptr->pass == 4) /* Skip top two generated rows */
 969:fltk-1.3.4-1/png/pngpread.c ****             {
 970:fltk-1.3.4-1/png/pngpread.c ****                for (i = 0; i < 2 && png_ptr->pass == 4; i++)
 971:fltk-1.3.4-1/png/pngpread.c ****                {
 972:fltk-1.3.4-1/png/pngpread.c ****                   png_push_have_row(png_ptr, NULL);
 973:fltk-1.3.4-1/png/pngpread.c ****                   png_read_push_finish_row(png_ptr);
 974:fltk-1.3.4-1/png/pngpread.c ****                }
 975:fltk-1.3.4-1/png/pngpread.c ****             }
 976:fltk-1.3.4-1/png/pngpread.c **** 
 977:fltk-1.3.4-1/png/pngpread.c ****             break;
 978:fltk-1.3.4-1/png/pngpread.c ****          }
 979:fltk-1.3.4-1/png/pngpread.c **** 
 980:fltk-1.3.4-1/png/pngpread.c ****          case 4:
 981:fltk-1.3.4-1/png/pngpread.c ****          {
 982:fltk-1.3.4-1/png/pngpread.c ****             int i;
 983:fltk-1.3.4-1/png/pngpread.c **** 
 984:fltk-1.3.4-1/png/pngpread.c ****             for (i = 0; i < 2 && png_ptr->pass == 4; i++)
 985:fltk-1.3.4-1/png/pngpread.c ****             {
 986:fltk-1.3.4-1/png/pngpread.c ****                png_push_have_row(png_ptr, png_ptr->row_buf + 1);
 987:fltk-1.3.4-1/png/pngpread.c ****                png_read_push_finish_row(png_ptr);
 988:fltk-1.3.4-1/png/pngpread.c ****             }
 989:fltk-1.3.4-1/png/pngpread.c **** 
 990:fltk-1.3.4-1/png/pngpread.c ****             for (i = 0; i < 2 && png_ptr->pass == 4; i++)
 991:fltk-1.3.4-1/png/pngpread.c ****             {
 992:fltk-1.3.4-1/png/pngpread.c ****                png_push_have_row(png_ptr, NULL);
 993:fltk-1.3.4-1/png/pngpread.c ****                png_read_push_finish_row(png_ptr);
 994:fltk-1.3.4-1/png/pngpread.c ****             }
 995:fltk-1.3.4-1/png/pngpread.c **** 
 996:fltk-1.3.4-1/png/pngpread.c ****             if (png_ptr->pass == 6) /* Pass 5 might be empty */
 997:fltk-1.3.4-1/png/pngpread.c ****             {
 998:fltk-1.3.4-1/png/pngpread.c ****                png_push_have_row(png_ptr, NULL);
 999:fltk-1.3.4-1/png/pngpread.c ****                png_read_push_finish_row(png_ptr);
1000:fltk-1.3.4-1/png/pngpread.c ****             }
1001:fltk-1.3.4-1/png/pngpread.c **** 
1002:fltk-1.3.4-1/png/pngpread.c ****             break;
1003:fltk-1.3.4-1/png/pngpread.c ****          }
1004:fltk-1.3.4-1/png/pngpread.c **** 
1005:fltk-1.3.4-1/png/pngpread.c ****          case 5:
1006:fltk-1.3.4-1/png/pngpread.c ****          {
1007:fltk-1.3.4-1/png/pngpread.c ****             int i;
1008:fltk-1.3.4-1/png/pngpread.c **** 
1009:fltk-1.3.4-1/png/pngpread.c ****             for (i = 0; i < 2 && png_ptr->pass == 5; i++)
1010:fltk-1.3.4-1/png/pngpread.c ****             {
1011:fltk-1.3.4-1/png/pngpread.c ****                png_push_have_row(png_ptr, png_ptr->row_buf + 1);
1012:fltk-1.3.4-1/png/pngpread.c ****                png_read_push_finish_row(png_ptr);
1013:fltk-1.3.4-1/png/pngpread.c ****             }
1014:fltk-1.3.4-1/png/pngpread.c **** 
1015:fltk-1.3.4-1/png/pngpread.c ****             if (png_ptr->pass == 6) /* Skip top generated row */
1016:fltk-1.3.4-1/png/pngpread.c ****             {
1017:fltk-1.3.4-1/png/pngpread.c ****                png_push_have_row(png_ptr, NULL);
1018:fltk-1.3.4-1/png/pngpread.c ****                png_read_push_finish_row(png_ptr);
1019:fltk-1.3.4-1/png/pngpread.c ****             }
1020:fltk-1.3.4-1/png/pngpread.c **** 
1021:fltk-1.3.4-1/png/pngpread.c ****             break;
1022:fltk-1.3.4-1/png/pngpread.c ****          }
1023:fltk-1.3.4-1/png/pngpread.c **** 
1024:fltk-1.3.4-1/png/pngpread.c ****          default:
1025:fltk-1.3.4-1/png/pngpread.c ****          case 6:
1026:fltk-1.3.4-1/png/pngpread.c ****          {
1027:fltk-1.3.4-1/png/pngpread.c ****             png_push_have_row(png_ptr, png_ptr->row_buf + 1);
1028:fltk-1.3.4-1/png/pngpread.c ****             png_read_push_finish_row(png_ptr);
1029:fltk-1.3.4-1/png/pngpread.c **** 
1030:fltk-1.3.4-1/png/pngpread.c ****             if (png_ptr->pass != 6)
1031:fltk-1.3.4-1/png/pngpread.c ****                break;
1032:fltk-1.3.4-1/png/pngpread.c **** 
1033:fltk-1.3.4-1/png/pngpread.c ****             png_push_have_row(png_ptr, NULL);
1034:fltk-1.3.4-1/png/pngpread.c ****             png_read_push_finish_row(png_ptr);
1035:fltk-1.3.4-1/png/pngpread.c ****          }
1036:fltk-1.3.4-1/png/pngpread.c ****       }
1037:fltk-1.3.4-1/png/pngpread.c ****    }
1038:fltk-1.3.4-1/png/pngpread.c ****    else
1039:fltk-1.3.4-1/png/pngpread.c ****    {
1040:fltk-1.3.4-1/png/pngpread.c ****       png_push_have_row(png_ptr, png_ptr->row_buf + 1);
1041:fltk-1.3.4-1/png/pngpread.c ****       png_read_push_finish_row(png_ptr);
1042:fltk-1.3.4-1/png/pngpread.c ****    }
1043:fltk-1.3.4-1/png/pngpread.c **** }
1044:fltk-1.3.4-1/png/pngpread.c **** 
1045:fltk-1.3.4-1/png/pngpread.c **** void /* PRIVATE */
1046:fltk-1.3.4-1/png/pngpread.c **** png_read_push_finish_row(png_structrp png_ptr)
 195              		.loc 1 1046 1 is_stmt 1 view -0
 196              		.cfi_startproc
1047:fltk-1.3.4-1/png/pngpread.c **** {
1048:fltk-1.3.4-1/png/pngpread.c ****    /* Arrays to facilitate easy interlacing - use pass (0 - 6) as index */
1049:fltk-1.3.4-1/png/pngpread.c **** 
1050:fltk-1.3.4-1/png/pngpread.c ****    /* Start of interlace block */
1051:fltk-1.3.4-1/png/pngpread.c ****    static PNG_CONST png_byte png_pass_start[] = {0, 4, 0, 2, 0, 1, 0};
1052:fltk-1.3.4-1/png/pngpread.c **** 
1053:fltk-1.3.4-1/png/pngpread.c ****    /* Offset to next interlace block */
1054:fltk-1.3.4-1/png/pngpread.c ****    static PNG_CONST png_byte png_pass_inc[] = {8, 8, 4, 4, 2, 2, 1};
1055:fltk-1.3.4-1/png/pngpread.c **** 
1056:fltk-1.3.4-1/png/pngpread.c ****    /* Start of interlace block in the y direction */
1057:fltk-1.3.4-1/png/pngpread.c ****    static PNG_CONST png_byte png_pass_ystart[] = {0, 0, 4, 0, 2, 0, 1};
1058:fltk-1.3.4-1/png/pngpread.c **** 
1059:fltk-1.3.4-1/png/pngpread.c ****    /* Offset to next interlace block in the y direction */
1060:fltk-1.3.4-1/png/pngpread.c ****    static PNG_CONST png_byte png_pass_yinc[] = {8, 8, 8, 4, 4, 2, 2};
1061:fltk-1.3.4-1/png/pngpread.c **** 
1062:fltk-1.3.4-1/png/pngpread.c ****    /* Height of interlace block.  This is not currently used - if you need
1063:fltk-1.3.4-1/png/pngpread.c ****     * it, uncomment it here and in png.h
1064:fltk-1.3.4-1/png/pngpread.c ****    static PNG_CONST png_byte png_pass_height[] = {8, 8, 4, 4, 2, 2, 1};
1065:fltk-1.3.4-1/png/pngpread.c ****    */
1066:fltk-1.3.4-1/png/pngpread.c **** #endif
1067:fltk-1.3.4-1/png/pngpread.c **** 
1068:fltk-1.3.4-1/png/pngpread.c ****    png_ptr->row_number++;
1069:fltk-1.3.4-1/png/pngpread.c ****    if (png_ptr->row_number < png_ptr->num_rows)
1070:fltk-1.3.4-1/png/pngpread.c ****       return;
1071:fltk-1.3.4-1/png/pngpread.c **** 
1072:fltk-1.3.4-1/png/pngpread.c ****    if (png_ptr->interlaced != 0)
1073:fltk-1.3.4-1/png/pngpread.c ****    {
1074:fltk-1.3.4-1/png/pngpread.c ****       png_ptr->row_number = 0;
 197              		.loc 1 1074 7 view .LVU61
1046:fltk-1.3.4-1/png/pngpread.c **** {
 198              		.loc 1 1046 1 is_stmt 0 view .LVU62
 199 0000 4155     		pushq	%r13
 200              		.cfi_def_cfa_offset 16
 201              		.cfi_offset 13, -16
 202              	.LBB130:
 203              	.LBB131:
  35:/usr/include/x86_64-linux-gnu/bits/string_fortified.h **** }
  36:/usr/include/x86_64-linux-gnu/bits/string_fortified.h **** 
  37:/usr/include/x86_64-linux-gnu/bits/string_fortified.h **** __fortify_function void *
  38:/usr/include/x86_64-linux-gnu/bits/string_fortified.h **** __NTH (memmove (void *__dest, const void *__src, size_t __len))
  39:/usr/include/x86_64-linux-gnu/bits/string_fortified.h **** {
  40:/usr/include/x86_64-linux-gnu/bits/string_fortified.h ****   return __builtin___memmove_chk (__dest, __src, __len, __bos0 (__dest));
  41:/usr/include/x86_64-linux-gnu/bits/string_fortified.h **** }
  42:/usr/include/x86_64-linux-gnu/bits/string_fortified.h **** 
  43:/usr/include/x86_64-linux-gnu/bits/string_fortified.h **** #ifdef __USE_GNU
  44:/usr/include/x86_64-linux-gnu/bits/string_fortified.h **** __fortify_function void *
  45:/usr/include/x86_64-linux-gnu/bits/string_fortified.h **** __NTH (mempcpy (void *__restrict __dest, const void *__restrict __src,
  46:/usr/include/x86_64-linux-gnu/bits/string_fortified.h **** 		size_t __len))
  47:/usr/include/x86_64-linux-gnu/bits/string_fortified.h **** {
  48:/usr/include/x86_64-linux-gnu/bits/string_fortified.h ****   return __builtin___mempcpy_chk (__dest, __src, __len, __bos0 (__dest));
  49:/usr/include/x86_64-linux-gnu/bits/string_fortified.h **** }
  50:/usr/include/x86_64-linux-gnu/bits/string_fortified.h **** #endif
  51:/usr/include/x86_64-linux-gnu/bits/string_fortified.h **** 
  52:/usr/include/x86_64-linux-gnu/bits/string_fortified.h **** 
  53:/usr/include/x86_64-linux-gnu/bits/string_fortified.h **** /* The first two tests here help to catch a somewhat common problem
  54:/usr/include/x86_64-linux-gnu/bits/string_fortified.h ****    where the second and third parameter are transposed.  This is
  55:/usr/include/x86_64-linux-gnu/bits/string_fortified.h ****    especially problematic if the intended fill value is zero.  In this
  56:/usr/include/x86_64-linux-gnu/bits/string_fortified.h ****    case no work is done at all.  We detect these problems by referring
  57:/usr/include/x86_64-linux-gnu/bits/string_fortified.h ****    non-existing functions.  */
  58:/usr/include/x86_64-linux-gnu/bits/string_fortified.h **** __fortify_function void *
  59:/usr/include/x86_64-linux-gnu/bits/string_fortified.h **** __NTH (memset (void *__dest, int __ch, size_t __len))
  60:/usr/include/x86_64-linux-gnu/bits/string_fortified.h **** {
  61:/usr/include/x86_64-linux-gnu/bits/string_fortified.h ****   /* GCC-5.0 and newer implements these checks in the compiler, so we don't
  62:/usr/include/x86_64-linux-gnu/bits/string_fortified.h ****      need them here.  */
  63:/usr/include/x86_64-linux-gnu/bits/string_fortified.h **** #if !__GNUC_PREREQ (5,0)
  64:/usr/include/x86_64-linux-gnu/bits/string_fortified.h ****   if (__builtin_constant_p (__len) && __len == 0
  65:/usr/include/x86_64-linux-gnu/bits/string_fortified.h ****       && (!__builtin_constant_p (__ch) || __ch != 0))
  66:/usr/include/x86_64-linux-gnu/bits/string_fortified.h ****     {
  67:/usr/include/x86_64-linux-gnu/bits/string_fortified.h ****       __warn_memset_zero_len ();
  68:/usr/include/x86_64-linux-gnu/bits/string_fortified.h ****       return __dest;
  69:/usr/include/x86_64-linux-gnu/bits/string_fortified.h ****     }
  70:/usr/include/x86_64-linux-gnu/bits/string_fortified.h **** #endif
  71:/usr/include/x86_64-linux-gnu/bits/string_fortified.h ****   return __builtin___memset_chk (__dest, __ch, __len, __bos0 (__dest));
 204              		.loc 2 71 10 view .LVU63
 205 0002 31F6     		xorl	%esi, %esi
 206              	.LBE131:
 207              	.LBE130:
1075:fltk-1.3.4-1/png/pngpread.c ****       memset(png_ptr->prev_row, 0, png_ptr->rowbytes + 1);
1076:fltk-1.3.4-1/png/pngpread.c **** 
1077:fltk-1.3.4-1/png/pngpread.c ****       do
1078:fltk-1.3.4-1/png/pngpread.c ****       {
1079:fltk-1.3.4-1/png/pngpread.c ****          png_ptr->pass++;
1080:fltk-1.3.4-1/png/pngpread.c ****          if ((png_ptr->pass == 1 && png_ptr->width < 5) ||
1081:fltk-1.3.4-1/png/pngpread.c ****              (png_ptr->pass == 3 && png_ptr->width < 3) ||
1082:fltk-1.3.4-1/png/pngpread.c ****              (png_ptr->pass == 5 && png_ptr->width < 2))
1083:fltk-1.3.4-1/png/pngpread.c ****             png_ptr->pass++;
1084:fltk-1.3.4-1/png/pngpread.c **** 
1085:fltk-1.3.4-1/png/pngpread.c ****          if (png_ptr->pass > 7)
1086:fltk-1.3.4-1/png/pngpread.c ****             png_ptr->pass--;
1087:fltk-1.3.4-1/png/pngpread.c **** 
1088:fltk-1.3.4-1/png/pngpread.c ****          if (png_ptr->pass >= 7)
1089:fltk-1.3.4-1/png/pngpread.c ****             break;
1090:fltk-1.3.4-1/png/pngpread.c **** 
1091:fltk-1.3.4-1/png/pngpread.c ****          png_ptr->iwidth = (png_ptr->width +
1092:fltk-1.3.4-1/png/pngpread.c ****              png_pass_inc[png_ptr->pass] - 1 -
1093:fltk-1.3.4-1/png/pngpread.c ****              png_pass_start[png_ptr->pass]) /
1094:fltk-1.3.4-1/png/pngpread.c ****              png_pass_inc[png_ptr->pass];
1095:fltk-1.3.4-1/png/pngpread.c **** 
1096:fltk-1.3.4-1/png/pngpread.c ****          if ((png_ptr->transformations & PNG_INTERLACE) != 0)
1097:fltk-1.3.4-1/png/pngpread.c ****             break;
1098:fltk-1.3.4-1/png/pngpread.c **** 
1099:fltk-1.3.4-1/png/pngpread.c ****          png_ptr->num_rows = (png_ptr->height +
1100:fltk-1.3.4-1/png/pngpread.c ****              png_pass_yinc[png_ptr->pass] - 1 -
 208              		.loc 1 1100 27 view .LVU64
 209 0004 4C8D2D00 		leaq	png_pass_yinc.6960(%rip), %r13
 209      000000
1046:fltk-1.3.4-1/png/pngpread.c **** {
 210              		.loc 1 1046 1 view .LVU65
 211 000b 4154     		pushq	%r12
 212              		.cfi_def_cfa_offset 24
 213              		.cfi_offset 12, -24
1101:fltk-1.3.4-1/png/pngpread.c ****              png_pass_ystart[png_ptr->pass]) /
 214              		.loc 1 1101 29 view .LVU66
 215 000d 4C8D2500 		leaq	png_pass_ystart.6959(%rip), %r12
 215      000000
1046:fltk-1.3.4-1/png/pngpread.c **** {
 216              		.loc 1 1046 1 view .LVU67
 217 0014 55       		pushq	%rbp
 218              		.cfi_def_cfa_offset 32
 219              		.cfi_offset 6, -32
1092:fltk-1.3.4-1/png/pngpread.c ****              png_pass_start[png_ptr->pass]) /
 220              		.loc 1 1092 26 view .LVU68
 221 0015 488D2D00 		leaq	png_pass_inc.6958(%rip), %rbp
 221      000000
1046:fltk-1.3.4-1/png/pngpread.c **** {
 222              		.loc 1 1046 1 view .LVU69
 223 001c 53       		pushq	%rbx
 224              		.cfi_def_cfa_offset 40
 225              		.cfi_offset 3, -40
 226 001d 4889FB   		movq	%rdi, %rbx
 227 0020 4883EC08 		subq	$8, %rsp
 228              		.cfi_def_cfa_offset 48
1075:fltk-1.3.4-1/png/pngpread.c **** 
 229              		.loc 1 1075 7 view .LVU70
 230 0024 488B8708 		movq	520(%rdi), %rax
 230      020000
1074:fltk-1.3.4-1/png/pngpread.c ****       memset(png_ptr->prev_row, 0, png_ptr->rowbytes + 1);
 231              		.loc 1 1074 27 view .LVU71
 232 002b C7871402 		movl	$0, 532(%rdi)
 232      00000000 
 232      0000
1075:fltk-1.3.4-1/png/pngpread.c **** 
 233              		.loc 1 1075 7 is_stmt 1 view .LVU72
 234              	.LVL20:
 235              	.LBB134:
 236              	.LBI130:
  59:/usr/include/x86_64-linux-gnu/bits/string_fortified.h **** {
 237              		.loc 2 59 1 view .LVU73
 238              	.LBB132:
 239              		.loc 2 71 3 view .LVU74
 240              		.loc 2 71 10 is_stmt 0 view .LVU75
 241 0035 488BBF20 		movq	544(%rdi), %rdi
 241      020000
 242              	.LVL21:
 243              		.loc 2 71 10 view .LVU76
 244              	.LBE132:
 245              	.LBE134:
1075:fltk-1.3.4-1/png/pngpread.c **** 
 246              		.loc 1 1075 7 view .LVU77
 247 003c 488D5001 		leaq	1(%rax), %rdx
 248              	.LVL22:
 249              	.LBB135:
 250              	.LBB133:
 251              		.loc 2 71 10 view .LVU78
 252 0040 E8000000 		call	memset@PLT
 252      00
 253              	.LVL23:
 254              		.loc 2 71 10 view .LVU79
 255 0045 0FB68B75 		movzbl	629(%rbx), %ecx
 255      020000
 256              	.LBE133:
 257              	.LBE135:
1093:fltk-1.3.4-1/png/pngpread.c ****              png_pass_inc[png_ptr->pass];
 258              		.loc 1 1093 28 view .LVU80
 259 004c 4C8D1D00 		leaq	png_pass_start.6957(%rip), %r11
 259      000000
 260              	.LVL24:
 261              		.p2align 4,,10
 262 0053 0F1F4400 		.p2align 3
 262      00
 263              	.L32:
1077:fltk-1.3.4-1/png/pngpread.c ****       {
 264              		.loc 1 1077 7 is_stmt 1 view .LVU81
1079:fltk-1.3.4-1/png/pngpread.c ****          if ((png_ptr->pass == 1 && png_ptr->width < 5) ||
 265              		.loc 1 1079 10 view .LVU82
1079:fltk-1.3.4-1/png/pngpread.c ****          if ((png_ptr->pass == 1 && png_ptr->width < 5) ||
 266              		.loc 1 1079 23 is_stmt 0 view .LVU83
 267 0058 8D4101   		leal	1(%rcx), %eax
1080:fltk-1.3.4-1/png/pngpread.c ****              (png_ptr->pass == 3 && png_ptr->width < 3) ||
 268              		.loc 1 1080 10 is_stmt 1 view .LVU84
1080:fltk-1.3.4-1/png/pngpread.c ****              (png_ptr->pass == 3 && png_ptr->width < 3) ||
 269              		.loc 1 1080 13 is_stmt 0 view .LVU85
 270 005b 84C9     		testb	%cl, %cl
 271 005d 0F84DD00 		je	.L35
 271      0000
1080:fltk-1.3.4-1/png/pngpread.c ****              (png_ptr->pass == 3 && png_ptr->width < 3) ||
 272              		.loc 1 1080 57 view .LVU86
 273 0063 3C03     		cmpb	$3, %al
 274 0065 0F849500 		je	.L36
 274      0000
1081:fltk-1.3.4-1/png/pngpread.c ****              (png_ptr->pass == 5 && png_ptr->width < 2))
 275              		.loc 1 1081 57 view .LVU87
 276 006b 3C05     		cmpb	$5, %al
 277 006d 0F85E500 		jne	.L31
 277      0000
1082:fltk-1.3.4-1/png/pngpread.c ****             png_ptr->pass++;
 278              		.loc 1 1082 34 view .LVU88
 279 0073 83BBF801 		cmpl	$1, 504(%rbx)
 279      000001
 280 007a 0F868D00 		jbe	.L21
 280      0000
 281              	.L24:
1088:fltk-1.3.4-1/png/pngpread.c ****             break;
 282              		.loc 1 1088 10 is_stmt 1 view .LVU89
1079:fltk-1.3.4-1/png/pngpread.c ****          if ((png_ptr->pass == 1 && png_ptr->width < 5) ||
 283              		.loc 1 1079 23 is_stmt 0 view .LVU90
 284 0080 89C1     		movl	%eax, %ecx
 285              	.L22:
1091:fltk-1.3.4-1/png/pngpread.c ****              png_pass_inc[png_ptr->pass] - 1 -
 286              		.loc 1 1091 10 is_stmt 1 view .LVU91
1092:fltk-1.3.4-1/png/pngpread.c ****              png_pass_start[png_ptr->pass]) /
 287              		.loc 1 1092 26 is_stmt 0 view .LVU92
 288 0082 440FB6C1 		movzbl	%cl, %r8d
1092:fltk-1.3.4-1/png/pngpread.c ****              png_pass_start[png_ptr->pass]) /
 289              		.loc 1 1092 46 view .LVU93
 290 0086 8B83F801 		movl	504(%rbx), %eax
 290      0000
1093:fltk-1.3.4-1/png/pngpread.c ****              png_pass_inc[png_ptr->pass];
 291              		.loc 1 1093 45 view .LVU94
 292 008c 31D2     		xorl	%edx, %edx
1092:fltk-1.3.4-1/png/pngpread.c ****              png_pass_start[png_ptr->pass]) /
 293              		.loc 1 1092 26 view .LVU95
 294 008e 460FB654 		movzbl	0(%rbp,%r8), %r10d
 294      0500
1092:fltk-1.3.4-1/png/pngpread.c ****              png_pass_start[png_ptr->pass]) /
 295              		.loc 1 1092 46 view .LVU96
 296 0094 418D7C02 		leal	-1(%r10,%rax), %edi
 296      FF
1093:fltk-1.3.4-1/png/pngpread.c ****              png_pass_inc[png_ptr->pass];
 297              		.loc 1 1093 28 view .LVU97
 298 0099 430FB604 		movzbl	(%r11,%r8), %eax
 298      03
1092:fltk-1.3.4-1/png/pngpread.c ****              png_pass_start[png_ptr->pass]) /
 299              		.loc 1 1092 46 view .LVU98
 300 009e 29C7     		subl	%eax, %edi
1093:fltk-1.3.4-1/png/pngpread.c ****              png_pass_inc[png_ptr->pass];
 301              		.loc 1 1093 45 view .LVU99
 302 00a0 89F8     		movl	%edi, %eax
 303 00a2 41F7F2   		divl	%r10d
1091:fltk-1.3.4-1/png/pngpread.c ****              png_pass_inc[png_ptr->pass] - 1 -
 304              		.loc 1 1091 26 view .LVU100
 305 00a5 89831002 		movl	%eax, 528(%rbx)
 305      0000
1096:fltk-1.3.4-1/png/pngpread.c ****             break;
 306              		.loc 1 1096 10 is_stmt 1 view .LVU101
1096:fltk-1.3.4-1/png/pngpread.c ****             break;
 307              		.loc 1 1096 13 is_stmt 0 view .LVU102
 308 00ab F6833401 		testb	$2, 308(%rbx)
 308      000002
 309 00b2 7537     		jne	.L34
1099:fltk-1.3.4-1/png/pngpread.c ****              png_pass_yinc[png_ptr->pass] - 1 -
 310              		.loc 1 1099 10 is_stmt 1 view .LVU103
1100:fltk-1.3.4-1/png/pngpread.c ****              png_pass_ystart[png_ptr->pass]) /
 311              		.loc 1 1100 27 is_stmt 0 view .LVU104
 312 00b4 470FB64C 		movzbl	0(%r13,%r8), %r9d
 312      0500
1100:fltk-1.3.4-1/png/pngpread.c ****              png_pass_ystart[png_ptr->pass]) /
 313              		.loc 1 1100 47 view .LVU105
 314 00ba 8B83FC01 		movl	508(%rbx), %eax
 314      0000
 315              		.loc 1 1101 46 view .LVU106
 316 00c0 31D2     		xorl	%edx, %edx
1100:fltk-1.3.4-1/png/pngpread.c ****              png_pass_ystart[png_ptr->pass]) /
 317              		.loc 1 1100 47 view .LVU107
 318 00c2 418D7401 		leal	-1(%r9,%rax), %esi
 318      FF
 319              		.loc 1 1101 29 view .LVU108
 320 00c7 430FB604 		movzbl	(%r12,%r8), %eax
 320      04
1100:fltk-1.3.4-1/png/pngpread.c ****              png_pass_ystart[png_ptr->pass]) /
 321              		.loc 1 1100 47 view .LVU109
 322 00cc 29C6     		subl	%eax, %esi
 323              		.loc 1 1101 46 view .LVU110
 324 00ce 89F0     		movl	%esi, %eax
 325 00d0 41F7F1   		divl	%r9d
1099:fltk-1.3.4-1/png/pngpread.c ****              png_pass_yinc[png_ptr->pass] - 1 -
 326              		.loc 1 1099 28 view .LVU111
 327 00d3 89830002 		movl	%eax, 512(%rbx)
 327      0000
1102:fltk-1.3.4-1/png/pngpread.c ****              png_pass_yinc[png_ptr->pass];
1103:fltk-1.3.4-1/png/pngpread.c **** 
1104:fltk-1.3.4-1/png/pngpread.c ****       } while (png_ptr->iwidth == 0 || png_ptr->num_rows == 0);
 328              		.loc 1 1104 15 is_stmt 1 view .LVU112
 329              		.loc 1 1104 37 is_stmt 0 view .LVU113
 330 00d9 4139F1   		cmpl	%esi, %r9d
 331 00dc 0F8776FF 		ja	.L32
 331      FFFF
 332 00e2 4139FA   		cmpl	%edi, %r10d
 333 00e5 0F876DFF 		ja	.L32
 333      FFFF
 334              	.L34:
 335 00eb 888B7502 		movb	%cl, 629(%rbx)
 335      0000
1105:fltk-1.3.4-1/png/pngpread.c ****    }
1106:fltk-1.3.4-1/png/pngpread.c **** }
 336              		.loc 1 1106 1 view .LVU114
 337 00f1 4883C408 		addq	$8, %rsp
 338              		.cfi_remember_state
 339              		.cfi_def_cfa_offset 40
 340 00f5 5B       		popq	%rbx
 341              		.cfi_def_cfa_offset 32
 342              	.LVL25:
 343              		.loc 1 1106 1 view .LVU115
 344 00f6 5D       		popq	%rbp
 345              		.cfi_def_cfa_offset 24
 346 00f7 415C     		popq	%r12
 347              		.cfi_def_cfa_offset 16
 348 00f9 415D     		popq	%r13
 349              		.cfi_def_cfa_offset 8
 350 00fb C3       		ret
 351              	.LVL26:
 352 00fc 0F1F4000 		.p2align 4,,10
 353              		.p2align 3
 354              	.L36:
 355              		.cfi_restore_state
1081:fltk-1.3.4-1/png/pngpread.c ****              (png_ptr->pass == 5 && png_ptr->width < 2))
 356              		.loc 1 1081 34 view .LVU116
 357 0100 83BBF801 		cmpl	$2, 504(%rbx)
 357      000002
 358 0107 0F8773FF 		ja	.L24
 358      FFFF
 359              	.L21:
1083:fltk-1.3.4-1/png/pngpread.c **** 
 360              		.loc 1 1083 13 is_stmt 1 view .LVU117
1083:fltk-1.3.4-1/png/pngpread.c **** 
 361              		.loc 1 1083 26 is_stmt 0 view .LVU118
 362 010d 83C102   		addl	$2, %ecx
 363              	.L25:
1085:fltk-1.3.4-1/png/pngpread.c ****             png_ptr->pass--;
 364              		.loc 1 1085 10 is_stmt 1 view .LVU119
1085:fltk-1.3.4-1/png/pngpread.c ****             png_ptr->pass--;
 365              		.loc 1 1085 13 is_stmt 0 view .LVU120
 366 0110 80F907   		cmpb	$7, %cl
 367 0113 761B     		jbe	.L26
1086:fltk-1.3.4-1/png/pngpread.c **** 
 368              		.loc 1 1086 13 is_stmt 1 view .LVU121
1086:fltk-1.3.4-1/png/pngpread.c **** 
 369              		.loc 1 1086 26 is_stmt 0 view .LVU122
 370 0115 83E901   		subl	$1, %ecx
 371 0118 888B7502 		movb	%cl, 629(%rbx)
 371      0000
1088:fltk-1.3.4-1/png/pngpread.c ****             break;
 372              		.loc 1 1088 10 is_stmt 1 view .LVU123
 373              	.L19:
 374              		.loc 1 1106 1 is_stmt 0 view .LVU124
 375 011e 4883C408 		addq	$8, %rsp
 376              		.cfi_remember_state
 377              		.cfi_def_cfa_offset 40
 378 0122 5B       		popq	%rbx
 379              		.cfi_def_cfa_offset 32
 380              	.LVL27:
 381              		.loc 1 1106 1 view .LVU125
 382 0123 5D       		popq	%rbp
 383              		.cfi_def_cfa_offset 24
 384 0124 415C     		popq	%r12
 385              		.cfi_def_cfa_offset 16
 386 0126 415D     		popq	%r13
 387              		.cfi_def_cfa_offset 8
 388 0128 C3       		ret
 389              	.LVL28:
 390 0129 0F1F8000 		.p2align 4,,10
 390      000000
 391              		.p2align 3
 392              	.L26:
 393              		.cfi_restore_state
1088:fltk-1.3.4-1/png/pngpread.c ****             break;
 394              		.loc 1 1088 10 is_stmt 1 view .LVU126
1088:fltk-1.3.4-1/png/pngpread.c ****             break;
 395              		.loc 1 1088 13 is_stmt 0 view .LVU127
 396 0130 0F854CFF 		jne	.L22
 396      FFFF
 397 0136 C6837502 		movb	$7, 629(%rbx)
 397      000007
 398 013d EBDF     		jmp	.L19
 399 013f 90       		.p2align 4,,10
 400              		.p2align 3
 401              	.L35:
1080:fltk-1.3.4-1/png/pngpread.c ****              (png_ptr->pass == 3 && png_ptr->width < 3) ||
 402              		.loc 1 1080 34 view .LVU128
 403 0140 83BBF801 		cmpl	$4, 504(%rbx)
 403      000004
 404 0147 76C4     		jbe	.L21
1079:fltk-1.3.4-1/png/pngpread.c ****          if ((png_ptr->pass == 1 && png_ptr->width < 5) ||
 405              		.loc 1 1079 23 view .LVU129
 406 0149 B9010000 		movl	$1, %ecx
 406      00
 407 014e E92FFFFF 		jmp	.L22
 407      FF
 408              		.p2align 4,,10
 409 0153 0F1F4400 		.p2align 3
 409      00
 410              	.L31:
1079:fltk-1.3.4-1/png/pngpread.c ****          if ((png_ptr->pass == 1 && png_ptr->width < 5) ||
 411              		.loc 1 1079 23 view .LVU130
 412 0158 89C1     		movl	%eax, %ecx
 413 015a EBB4     		jmp	.L25
 414              		.cfi_endproc
 415              	.LFE63:
 417              		.section	.rodata.png_process_data_skip.str1.8,"aMS",@progbits,1
 418              		.align 8
 419              	.LC0:
 420 0000 706E675F 		.string	"png_process_data_skip called inside png_process_data"
 420      70726F63 
 420      6573735F 
 420      64617461 
 420      5F736B69 
 421 0035 000000   		.align 8
 422              	.LC1:
 423 0038 706E675F 		.string	"png_process_data_skip called with saved data"
 423      70726F63 
 423      6573735F 
 423      64617461 
 423      5F736B69 
 424              		.section	.text.png_process_data_skip,"ax",@progbits
 425              		.p2align 4
 426              		.globl	png_process_data_skip
 428              	png_process_data_skip:
 429              	.LVL29:
 430              	.LFB43:
  80:fltk-1.3.4-1/png/pngpread.c ****    png_uint_32 remaining = 0;
 431              		.loc 1 80 1 is_stmt 1 view -0
 432              		.cfi_startproc
  80:fltk-1.3.4-1/png/pngpread.c ****    png_uint_32 remaining = 0;
 433              		.loc 1 80 1 is_stmt 0 view .LVU132
 434 0000 F30F1EFA 		endbr64
  81:fltk-1.3.4-1/png/pngpread.c **** 
 435              		.loc 1 81 4 is_stmt 1 view .LVU133
 436              	.LVL30:
  83:fltk-1.3.4-1/png/pngpread.c ****       png_ptr->skip_length > 0)
 437              		.loc 1 83 4 view .LVU134
  81:fltk-1.3.4-1/png/pngpread.c **** 
 438              		.loc 1 81 16 is_stmt 0 view .LVU135
 439 0004 31C0     		xorl	%eax, %eax
  83:fltk-1.3.4-1/png/pngpread.c ****       png_ptr->skip_length > 0)
 440              		.loc 1 83 7 view .LVU136
 441 0006 4885FF   		testq	%rdi, %rdi
 442 0009 744D     		je	.L41
  83:fltk-1.3.4-1/png/pngpread.c ****       png_ptr->skip_length > 0)
 443              		.loc 1 83 24 discriminator 1 view .LVU137
 444 000b 83BF8003 		cmpl	$3, 896(%rdi)
 444      000003
 445 0012 7404     		je	.L50
 446              	.L47:
 107:fltk-1.3.4-1/png/pngpread.c **** 
 447              		.loc 1 107 1 view .LVU138
 448 0014 C3       		ret
 449              		.p2align 4,,10
 450 0015 0F1F00   		.p2align 3
 451              	.L50:
  84:fltk-1.3.4-1/png/pngpread.c ****    {
 452              		.loc 1 84 14 discriminator 2 view .LVU139
 453 0018 8B875C03 		movl	860(%rdi), %eax
 453      0000
  83:fltk-1.3.4-1/png/pngpread.c ****       png_ptr->skip_length > 0)
 454              		.loc 1 83 66 discriminator 2 view .LVU140
 455 001e 85C0     		testl	%eax, %eax
 456 0020 74F2     		je	.L47
  89:fltk-1.3.4-1/png/pngpread.c ****          png_error(png_ptr,
 457              		.loc 1 89 7 is_stmt 1 view .LVU141
  80:fltk-1.3.4-1/png/pngpread.c ****    png_uint_32 remaining = 0;
 458              		.loc 1 80 1 is_stmt 0 view .LVU142
 459 0022 4883EC08 		subq	$8, %rsp
 460              		.cfi_def_cfa_offset 16
  89:fltk-1.3.4-1/png/pngpread.c ****          png_error(png_ptr,
 461              		.loc 1 89 10 view .LVU143
 462 0026 4883BF70 		cmpq	$0, 880(%rdi)
 462      03000000 
 463 002e 7529     		jne	.L51
  98:fltk-1.3.4-1/png/pngpread.c ****          png_error(png_ptr, "png_process_data_skip called with saved data");
 464              		.loc 1 98 7 is_stmt 1 view .LVU144
  98:fltk-1.3.4-1/png/pngpread.c ****          png_error(png_ptr, "png_process_data_skip called with saved data");
 465              		.loc 1 98 10 is_stmt 0 view .LVU145
 466 0030 4883BF60 		cmpq	$0, 864(%rdi)
 466      03000000 
 467 0038 752B     		jne	.L52
 101:fltk-1.3.4-1/png/pngpread.c ****       png_ptr->skip_length = 0;
 468              		.loc 1 101 7 is_stmt 1 view .LVU146
 469              	.LVL31:
 102:fltk-1.3.4-1/png/pngpread.c ****       png_ptr->process_mode = PNG_READ_CHUNK_MODE;
 470              		.loc 1 102 7 view .LVU147
 102:fltk-1.3.4-1/png/pngpread.c ****       png_ptr->process_mode = PNG_READ_CHUNK_MODE;
 471              		.loc 1 102 28 is_stmt 0 view .LVU148
 472 003a C7875C03 		movl	$0, 860(%rdi)
 472      00000000 
 472      0000
 103:fltk-1.3.4-1/png/pngpread.c ****    }
 473              		.loc 1 103 7 is_stmt 1 view .LVU149
 103:fltk-1.3.4-1/png/pngpread.c ****    }
 474              		.loc 1 103 29 is_stmt 0 view .LVU150
 475 0044 C7878003 		movl	$1, 896(%rdi)
 475      00000100 
 475      0000
 107:fltk-1.3.4-1/png/pngpread.c **** 
 476              		.loc 1 107 1 view .LVU151
 477 004e 4883C408 		addq	$8, %rsp
 478              		.cfi_def_cfa_offset 8
 479 0052 C3       		ret
 480              	.LVL32:
 481              		.p2align 4,,10
 482 0053 0F1F4400 		.p2align 3
 482      00
 483              	.L41:
 107:fltk-1.3.4-1/png/pngpread.c **** 
 484              		.loc 1 107 1 view .LVU152
 485 0058 C3       		ret
 486              	.L51:
 487              		.cfi_def_cfa_offset 16
  90:fltk-1.3.4-1/png/pngpread.c ****             "png_process_data_skip called inside png_process_data");
 488              		.loc 1 90 10 is_stmt 1 view .LVU153
 489 0059 488D3500 		leaq	.LC0(%rip), %rsi
 489      000000
 490 0060 E8000000 		call	png_error@PLT
 490      00
 491              	.LVL33:
 492              	.L52:
  99:fltk-1.3.4-1/png/pngpread.c **** 
 493              		.loc 1 99 10 view .LVU154
 494 0065 488D3500 		leaq	.LC1(%rip), %rsi
 494      000000
 495 006c E8000000 		call	png_error@PLT
 495      00
 496              	.LVL34:
  99:fltk-1.3.4-1/png/pngpread.c **** 
 497              		.loc 1 99 10 is_stmt 0 view .LVU155
 498              		.cfi_endproc
 499              	.LFE43:
 501              		.section	.rodata.png_push_read_sig.str1.1,"aMS",@progbits,1
 502              	.LC2:
 503 0000 4E6F7420 		.string	"Not a PNG file"
 503      6120504E 
 503      47206669 
 503      6C6500
 504              		.section	.rodata.png_push_read_sig.str1.8,"aMS",@progbits,1
 505              		.align 8
 506              	.LC3:
 507 0000 504E4720 		.string	"PNG file corrupted by ASCII conversion"
 507      66696C65 
 507      20636F72 
 507      72757074 
 507      65642062 
 508              		.section	.text.png_push_read_sig,"ax",@progbits
 509              		.p2align 4
 510              		.globl	png_push_read_sig
 512              	png_push_read_sig:
 513              	.LVL35:
 514              	.LFB45:
 160:fltk-1.3.4-1/png/pngpread.c ****    png_size_t num_checked = png_ptr->sig_bytes, /* SAFE, does not exceed 8 */ 
 515              		.loc 1 160 1 is_stmt 1 view -0
 516              		.cfi_startproc
 160:fltk-1.3.4-1/png/pngpread.c ****    png_size_t num_checked = png_ptr->sig_bytes, /* SAFE, does not exceed 8 */ 
 517              		.loc 1 160 1 is_stmt 0 view .LVU157
 518 0000 F30F1EFA 		endbr64
 519 0004 4155     		pushq	%r13
 520              		.cfi_def_cfa_offset 16
 521              		.cfi_offset 13, -16
 522 0006 4154     		pushq	%r12
 523              		.cfi_def_cfa_offset 24
 524              		.cfi_offset 12, -24
 525 0008 4989F4   		movq	%rsi, %r12
 526 000b 55       		pushq	%rbp
 527              		.cfi_def_cfa_offset 32
 528              		.cfi_offset 6, -32
 529 000c 4889FD   		movq	%rdi, %rbp
 161:fltk-1.3.4-1/png/pngpread.c ****              num_to_check = 8 - num_checked;
 530              		.loc 1 161 4 is_stmt 1 view .LVU158
 160:fltk-1.3.4-1/png/pngpread.c ****    png_size_t num_checked = png_ptr->sig_bytes, /* SAFE, does not exceed 8 */ 
 531              		.loc 1 160 1 is_stmt 0 view .LVU159
 532 000f 53       		pushq	%rbx
 533              		.cfi_def_cfa_offset 40
 534              		.cfi_offset 3, -40
 162:fltk-1.3.4-1/png/pngpread.c **** 
 535              		.loc 1 162 14 view .LVU160
 536 0010 BB080000 		movl	$8, %ebx
 536      00
 160:fltk-1.3.4-1/png/pngpread.c ****    png_size_t num_checked = png_ptr->sig_bytes, /* SAFE, does not exceed 8 */ 
 537              		.loc 1 160 1 view .LVU161
 538 0015 4883EC08 		subq	$8, %rsp
 539              		.cfi_def_cfa_offset 48
 161:fltk-1.3.4-1/png/pngpread.c ****              num_to_check = 8 - num_checked;
 540              		.loc 1 161 15 view .LVU162
 541 0019 440FB6AF 		movzbl	637(%rdi), %r13d
 541      7D020000 
 542              	.LVL36:
 162:fltk-1.3.4-1/png/pngpread.c **** 
 543              		.loc 1 162 14 view .LVU163
 544 0021 4C29EB   		subq	%r13, %rbx
 545              	.LVL37:
 164:fltk-1.3.4-1/png/pngpread.c ****    {
 546              		.loc 1 164 4 is_stmt 1 view .LVU164
 547 0024 48399F70 		cmpq	%rbx, 880(%rdi)
 547      030000
 169:fltk-1.3.4-1/png/pngpread.c ****        num_to_check);
 548              		.loc 1 169 4 is_stmt 0 view .LVU165
 549 002b 4A8D742E 		leaq	44(%rsi,%r13), %rsi
 549      2C
 550              	.LVL38:
 169:fltk-1.3.4-1/png/pngpread.c ****        num_to_check);
 551              		.loc 1 169 4 view .LVU166
 552 0030 480F469F 		cmovbe	880(%rdi), %rbx
 552      70030000 
 553              	.LVL39:
 169:fltk-1.3.4-1/png/pngpread.c ****        num_to_check);
 554              		.loc 1 169 4 is_stmt 1 view .LVU167
 173:fltk-1.3.4-1/png/pngpread.c ****    {
 555              		.loc 1 173 28 is_stmt 0 view .LVU168
 556 0038 4983C42C 		addq	$44, %r12
 557              	.LVL40:
 169:fltk-1.3.4-1/png/pngpread.c ****        num_to_check);
 558              		.loc 1 169 4 view .LVU169
 559 003c 4889DA   		movq	%rbx, %rdx
 560 003f E8000000 		call	png_push_fill_buffer
 560      00
 561              	.LVL41:
 171:fltk-1.3.4-1/png/pngpread.c **** 
 562              		.loc 1 171 4 is_stmt 1 view .LVU170
 173:fltk-1.3.4-1/png/pngpread.c ****    {
 563              		.loc 1 173 8 is_stmt 0 view .LVU171
 564 0044 4889DA   		movq	%rbx, %rdx
 565 0047 4C89EE   		movq	%r13, %rsi
 566 004a 4C89E7   		movq	%r12, %rdi
 171:fltk-1.3.4-1/png/pngpread.c **** 
 567              		.loc 1 171 25 view .LVU172
 568 004d 009D7D02 		addb	%bl, 637(%rbp)
 568      0000
 173:fltk-1.3.4-1/png/pngpread.c ****    {
 569              		.loc 1 173 4 is_stmt 1 view .LVU173
 173:fltk-1.3.4-1/png/pngpread.c ****    {
 570              		.loc 1 173 8 is_stmt 0 view .LVU174
 571 0053 E8000000 		call	png_sig_cmp@PLT
 571      00
 572              	.LVL42:
 173:fltk-1.3.4-1/png/pngpread.c ****    {
 573              		.loc 1 173 7 view .LVU175
 574 0058 85C0     		testl	%eax, %eax
 575 005a 742C     		je	.L54
 175:fltk-1.3.4-1/png/pngpread.c ****           png_sig_cmp(info_ptr->signature, num_checked, num_to_check - 4))
 576              		.loc 1 175 7 is_stmt 1 view .LVU176
 175:fltk-1.3.4-1/png/pngpread.c ****           png_sig_cmp(info_ptr->signature, num_checked, num_to_check - 4))
 577              		.loc 1 175 10 is_stmt 0 view .LVU177
 578 005c 4983FD03 		cmpq	$3, %r13
 579 0060 7713     		ja	.L55
 176:fltk-1.3.4-1/png/pngpread.c ****          png_error(png_ptr, "Not a PNG file");
 580              		.loc 1 176 11 discriminator 1 view .LVU178
 581 0062 488D53FC 		leaq	-4(%rbx), %rdx
 582 0066 4C89EE   		movq	%r13, %rsi
 583 0069 4C89E7   		movq	%r12, %rdi
 584 006c E8000000 		call	png_sig_cmp@PLT
 584      00
 585              	.LVL43:
 175:fltk-1.3.4-1/png/pngpread.c ****           png_sig_cmp(info_ptr->signature, num_checked, num_to_check - 4))
 586              		.loc 1 175 27 discriminator 1 view .LVU179
 587 0071 85C0     		testl	%eax, %eax
 588 0073 753B     		jne	.L61
 589              	.L55:
 180:fltk-1.3.4-1/png/pngpread.c ****    }
 590              		.loc 1 180 10 is_stmt 1 view .LVU180
 591 0075 488D3500 		leaq	.LC3(%rip), %rsi
 591      000000
 592 007c 4889EF   		movq	%rbp, %rdi
 593 007f E8000000 		call	png_error@PLT
 593      00
 594              	.LVL44:
 595              		.p2align 4,,10
 596 0084 0F1F4000 		.p2align 3
 597              	.L54:
 598              	.LBB138:
 599              	.LBI138:
 159:fltk-1.3.4-1/png/pngpread.c **** {
 600              		.loc 1 159 1 view .LVU181
 601              	.LBB139:
 184:fltk-1.3.4-1/png/pngpread.c ****       {
 602              		.loc 1 184 7 view .LVU182
 184:fltk-1.3.4-1/png/pngpread.c ****       {
 603              		.loc 1 184 10 is_stmt 0 view .LVU183
 604 0088 80BD7D02 		cmpb	$7, 637(%rbp)
 604      000007
 605 008f 760A     		jbe	.L53
 186:fltk-1.3.4-1/png/pngpread.c ****       }
 606              		.loc 1 186 10 is_stmt 1 view .LVU184
 186:fltk-1.3.4-1/png/pngpread.c ****       }
 607              		.loc 1 186 32 is_stmt 0 view .LVU185
 608 0091 C7858003 		movl	$1, 896(%rbp)
 608      00000100 
 608      0000
 609              	.LVL45:
 610              	.L53:
 186:fltk-1.3.4-1/png/pngpread.c ****       }
 611              		.loc 1 186 32 view .LVU186
 612              	.LBE139:
 613              	.LBE138:
 189:fltk-1.3.4-1/png/pngpread.c **** 
 614              		.loc 1 189 1 view .LVU187
 615 009b 4883C408 		addq	$8, %rsp
 616              		.cfi_remember_state
 617              		.cfi_def_cfa_offset 40
 618 009f 5B       		popq	%rbx
 619              		.cfi_def_cfa_offset 32
 620              	.LVL46:
 189:fltk-1.3.4-1/png/pngpread.c **** 
 621              		.loc 1 189 1 view .LVU188
 622 00a0 5D       		popq	%rbp
 623              		.cfi_def_cfa_offset 24
 624              	.LVL47:
 189:fltk-1.3.4-1/png/pngpread.c **** 
 625              		.loc 1 189 1 view .LVU189
 626 00a1 415C     		popq	%r12
 627              		.cfi_def_cfa_offset 16
 628              	.LVL48:
 189:fltk-1.3.4-1/png/pngpread.c **** 
 629              		.loc 1 189 1 view .LVU190
 630 00a3 415D     		popq	%r13
 631              		.cfi_def_cfa_offset 8
 632              	.LVL49:
 189:fltk-1.3.4-1/png/pngpread.c **** 
 633              		.loc 1 189 1 view .LVU191
 634 00a5 C3       		ret
 635              	.LVL50:
 636 00a6 662E0F1F 		.p2align 4,,10
 636      84000000 
 636      0000
 637              		.p2align 3
 638              	.L61:
 639              		.cfi_restore_state
 177:fltk-1.3.4-1/png/pngpread.c **** 
 640              		.loc 1 177 10 is_stmt 1 view .LVU192
 641 00b0 488D3500 		leaq	.LC2(%rip), %rsi
 641      000000
 642 00b7 4889EF   		movq	%rbp, %rdi
 643 00ba E8000000 		call	png_error@PLT
 643      00
 644              	.LVL51:
 645              		.cfi_endproc
 646              	.LFE45:
 648              		.section	.text.png_push_crc_skip,"ax",@progbits
 649              		.p2align 4
 650              		.globl	png_push_crc_skip
 652              	png_push_crc_skip:
 653              	.LVL52:
 654              	.LFB47:
 444:fltk-1.3.4-1/png/pngpread.c ****    png_ptr->process_mode = PNG_SKIP_MODE;
 655              		.loc 1 444 1 view -0
 656              		.cfi_startproc
 444:fltk-1.3.4-1/png/pngpread.c ****    png_ptr->process_mode = PNG_SKIP_MODE;
 657              		.loc 1 444 1 is_stmt 0 view .LVU194
 658 0000 F30F1EFA 		endbr64
 445:fltk-1.3.4-1/png/pngpread.c ****    png_ptr->skip_length = skip;
 659              		.loc 1 445 4 is_stmt 1 view .LVU195
 445:fltk-1.3.4-1/png/pngpread.c ****    png_ptr->skip_length = skip;
 660              		.loc 1 445 26 is_stmt 0 view .LVU196
 661 0004 C7878003 		movl	$3, 896(%rdi)
 661      00000300 
 661      0000
 446:fltk-1.3.4-1/png/pngpread.c **** }
 662              		.loc 1 446 4 is_stmt 1 view .LVU197
 446:fltk-1.3.4-1/png/pngpread.c **** }
 663              		.loc 1 446 25 is_stmt 0 view .LVU198
 664 000e 89B75C03 		movl	%esi, 860(%rdi)
 664      0000
 447:fltk-1.3.4-1/png/pngpread.c **** 
 665              		.loc 1 447 1 view .LVU199
 666 0014 C3       		ret
 667              		.cfi_endproc
 668              	.LFE47:
 670              		.section	.rodata.png_push_save_buffer.str1.8,"aMS",@progbits,1
 671              		.align 8
 672              	.LC4:
 673 0000 506F7465 		.string	"Potential overflow of save_buffer"
 673      6E746961 
 673      6C206F76 
 673      6572666C 
 673      6F77206F 
 674 0022 00000000 		.align 8
 674      0000
 675              	.LC5:
 676 0028 496E7375 		.string	"Insufficient memory for save_buffer"
 676      66666963 
 676      69656E74 
 676      206D656D 
 676      6F727920 
 677              		.section	.text.png_push_save_buffer,"ax",@progbits
 678              		.p2align 4
 679              		.globl	png_push_save_buffer
 681              	png_push_save_buffer:
 682              	.LVL53:
 683              	.LFB50:
 550:fltk-1.3.4-1/png/pngpread.c ****    if (png_ptr->save_buffer_size != 0)
 684              		.loc 1 550 1 is_stmt 1 view -0
 685              		.cfi_startproc
 550:fltk-1.3.4-1/png/pngpread.c ****    if (png_ptr->save_buffer_size != 0)
 686              		.loc 1 550 1 is_stmt 0 view .LVU201
 687 0000 F30F1EFA 		endbr64
 551:fltk-1.3.4-1/png/pngpread.c ****    {
 688              		.loc 1 551 4 is_stmt 1 view .LVU202
 550:fltk-1.3.4-1/png/pngpread.c ****    if (png_ptr->save_buffer_size != 0)
 689              		.loc 1 550 1 is_stmt 0 view .LVU203
 690 0004 4154     		pushq	%r12
 691              		.cfi_def_cfa_offset 16
 692              		.cfi_offset 12, -16
 693 0006 55       		pushq	%rbp
 694              		.cfi_def_cfa_offset 24
 695              		.cfi_offset 6, -24
 696 0007 4889FD   		movq	%rdi, %rbp
 697 000a 53       		pushq	%rbx
 698              		.cfi_def_cfa_offset 32
 699              		.cfi_offset 3, -32
 551:fltk-1.3.4-1/png/pngpread.c ****    {
 700              		.loc 1 551 15 view .LVU204
 701 000b 488B8F60 		movq	864(%rdi), %rcx
 701      030000
 702 0012 4C8BA740 		movq	832(%rdi), %r12
 702      030000
 551:fltk-1.3.4-1/png/pngpread.c ****    {
 703              		.loc 1 551 7 view .LVU205
 704 0019 4885C9   		testq	%rcx, %rcx
 705 001c 7472     		je	.L64
 553:fltk-1.3.4-1/png/pngpread.c ****       {
 706              		.loc 1 553 7 is_stmt 1 view .LVU206
 553:fltk-1.3.4-1/png/pngpread.c ****       {
 707              		.loc 1 553 18 is_stmt 0 view .LVU207
 708 001e 488BB738 		movq	824(%rdi), %rsi
 708      030000
 553:fltk-1.3.4-1/png/pngpread.c ****       {
 709              		.loc 1 553 10 view .LVU208
 710 0025 4C39E6   		cmpq	%r12, %rsi
 711 0028 741E     		je	.L65
 712              	.LBB140:
 560:fltk-1.3.4-1/png/pngpread.c ****              i < istop; i++, sp++, dp++)
 713              		.loc 1 560 17 view .LVU209
 714 002a 31C0     		xorl	%eax, %eax
 715 002c 0F1F4000 		.p2align 4,,10
 716              		.p2align 3
 717              	.L66:
 718              	.LVL54:
 563:fltk-1.3.4-1/png/pngpread.c ****          }
 719              		.loc 1 563 13 is_stmt 1 discriminator 1 view .LVU210
 563:fltk-1.3.4-1/png/pngpread.c ****          }
 720              		.loc 1 563 19 is_stmt 0 discriminator 1 view .LVU211
 721 0030 0FB61406 		movzbl	(%rsi,%rax), %edx
 563:fltk-1.3.4-1/png/pngpread.c ****          }
 722              		.loc 1 563 17 discriminator 1 view .LVU212
 723 0034 41881404 		movb	%dl, (%r12,%rax)
 561:fltk-1.3.4-1/png/pngpread.c ****          {
 724              		.loc 1 561 25 is_stmt 1 discriminator 1 view .LVU213
 561:fltk-1.3.4-1/png/pngpread.c ****          {
 725              		.loc 1 561 26 is_stmt 0 discriminator 1 view .LVU214
 726 0038 4883C001 		addq	$1, %rax
 727              	.LVL55:
 561:fltk-1.3.4-1/png/pngpread.c ****          {
 728              		.loc 1 561 14 is_stmt 1 discriminator 1 view .LVU215
 560:fltk-1.3.4-1/png/pngpread.c ****              i < istop; i++, sp++, dp++)
 729              		.loc 1 560 10 is_stmt 0 discriminator 1 view .LVU216
 730 003c 4839C1   		cmpq	%rax, %rcx
 731 003f 75EF     		jne	.L66
 732 0041 488B8D60 		movq	864(%rbp), %rcx
 732      030000
 733              	.LVL56:
 734              	.L65:
 560:fltk-1.3.4-1/png/pngpread.c ****              i < istop; i++, sp++, dp++)
 735              		.loc 1 560 10 discriminator 1 view .LVU217
 736              	.LBE140:
 567:fltk-1.3.4-1/png/pngpread.c ****        png_ptr->save_buffer_max)
 737              		.loc 1 567 4 is_stmt 1 view .LVU218
 567:fltk-1.3.4-1/png/pngpread.c ****        png_ptr->save_buffer_max)
 738              		.loc 1 567 43 is_stmt 0 view .LVU219
 739 0048 488B9578 		movq	888(%rbp), %rdx
 739      030000
 567:fltk-1.3.4-1/png/pngpread.c ****        png_ptr->save_buffer_max)
 740              		.loc 1 567 34 view .LVU220
 741 004f 488D040A 		leaq	(%rdx,%rcx), %rax
 567:fltk-1.3.4-1/png/pngpread.c ****        png_ptr->save_buffer_max)
 742              		.loc 1 567 7 view .LVU221
 743 0053 483B8568 		cmpq	872(%rbp), %rax
 743      030000
 744 005a 0F879800 		ja	.L67
 744      0000
 745              	.LVL57:
 746              	.L79:
 567:fltk-1.3.4-1/png/pngpread.c ****        png_ptr->save_buffer_max)
 747              		.loc 1 567 7 view .LVU222
 748 0060 4C8BA540 		movq	832(%rbp), %r12
 748      030000
 749              	.L68:
 596:fltk-1.3.4-1/png/pngpread.c ****    {
 750              		.loc 1 596 4 is_stmt 1 view .LVU223
 596:fltk-1.3.4-1/png/pngpread.c ****    {
 751              		.loc 1 596 7 is_stmt 0 view .LVU224
 752 0067 4885D2   		testq	%rdx, %rdx
 753 006a 0F85A800 		jne	.L80
 753      0000
 754              	.L71:
 603:fltk-1.3.4-1/png/pngpread.c ****    png_ptr->buffer_size = 0;
 755              		.loc 1 603 4 is_stmt 1 view .LVU225
 603:fltk-1.3.4-1/png/pngpread.c ****    png_ptr->buffer_size = 0;
 756              		.loc 1 603 29 is_stmt 0 view .LVU226
 757 0070 4C89A538 		movq	%r12, 824(%rbp)
 757      030000
 604:fltk-1.3.4-1/png/pngpread.c **** }
 758              		.loc 1 604 4 is_stmt 1 view .LVU227
 605:fltk-1.3.4-1/png/pngpread.c **** 
 759              		.loc 1 605 1 is_stmt 0 view .LVU228
 760 0077 5B       		popq	%rbx
 761              		.cfi_remember_state
 762              		.cfi_def_cfa_offset 24
 604:fltk-1.3.4-1/png/pngpread.c **** }
 763              		.loc 1 604 25 view .LVU229
 764 0078 48C78570 		movq	$0, 880(%rbp)
 764      03000000 
 764      000000
 605:fltk-1.3.4-1/png/pngpread.c **** 
 765              		.loc 1 605 1 view .LVU230
 766 0083 5D       		popq	%rbp
 767              		.cfi_def_cfa_offset 16
 768              	.LVL58:
 605:fltk-1.3.4-1/png/pngpread.c **** 
 769              		.loc 1 605 1 view .LVU231
 770 0084 415C     		popq	%r12
 771              		.cfi_def_cfa_offset 8
 772 0086 C3       		ret
 773              	.LVL59:
 774 0087 660F1F84 		.p2align 4,,10
 774      00000000 
 774      00
 775              		.p2align 3
 776              	.L64:
 777              		.cfi_restore_state
 567:fltk-1.3.4-1/png/pngpread.c ****        png_ptr->save_buffer_max)
 778              		.loc 1 567 4 is_stmt 1 view .LVU232
 567:fltk-1.3.4-1/png/pngpread.c ****        png_ptr->save_buffer_max)
 779              		.loc 1 567 43 is_stmt 0 view .LVU233
 780 0090 488B9778 		movq	888(%rdi), %rdx
 780      030000
 567:fltk-1.3.4-1/png/pngpread.c ****        png_ptr->save_buffer_max)
 781              		.loc 1 567 7 view .LVU234
 782 0097 483B9768 		cmpq	872(%rdi), %rdx
 782      030000
 783 009e 76C7     		jbe	.L68
 784              	.L72:
 785              	.LBB141:
 579:fltk-1.3.4-1/png/pngpread.c ****       old_buffer = png_ptr->save_buffer;
 786              		.loc 1 579 7 is_stmt 1 view .LVU235
 579:fltk-1.3.4-1/png/pngpread.c ****       old_buffer = png_ptr->save_buffer;
 787              		.loc 1 579 15 is_stmt 0 view .LVU236
 788 00a0 488D9A00 		leaq	256(%rdx), %rbx
 788      010000
 789              	.LVL60:
 580:fltk-1.3.4-1/png/pngpread.c ****       png_ptr->save_buffer = (png_bytep)png_malloc_warn(png_ptr,
 790              		.loc 1 580 7 is_stmt 1 view .LVU237
 581:fltk-1.3.4-1/png/pngpread.c ****           (png_size_t)new_max);
 791              		.loc 1 581 7 view .LVU238
 581:fltk-1.3.4-1/png/pngpread.c ****           (png_size_t)new_max);
 792              		.loc 1 581 41 is_stmt 0 view .LVU239
 793 00a7 4889EF   		movq	%rbp, %rdi
 794              	.LVL61:
 581:fltk-1.3.4-1/png/pngpread.c ****           (png_size_t)new_max);
 795              		.loc 1 581 41 view .LVU240
 796 00aa 4889DE   		movq	%rbx, %rsi
 797 00ad E8000000 		call	png_malloc_warn@PLT
 797      00
 798              	.LVL62:
 581:fltk-1.3.4-1/png/pngpread.c ****           (png_size_t)new_max);
 799              		.loc 1 581 28 view .LVU241
 800 00b2 48898540 		movq	%rax, 832(%rbp)
 800      030000
 584:fltk-1.3.4-1/png/pngpread.c ****       {
 801              		.loc 1 584 7 is_stmt 1 view .LVU242
 581:fltk-1.3.4-1/png/pngpread.c ****           (png_size_t)new_max);
 802              		.loc 1 581 41 is_stmt 0 view .LVU243
 803 00b9 4889C7   		movq	%rax, %rdi
 584:fltk-1.3.4-1/png/pngpread.c ****       {
 804              		.loc 1 584 10 view .LVU244
 805 00bc 4885C0   		testq	%rax, %rax
 806 00bf 0F848E00 		je	.L81
 806      0000
 591:fltk-1.3.4-1/png/pngpread.c ****       png_free(png_ptr, old_buffer);
 807              		.loc 1 591 7 is_stmt 1 view .LVU245
 808              	.LVL63:
 809              	.LBB142:
 810              	.LBI142:
  31:/usr/include/x86_64-linux-gnu/bits/string_fortified.h **** 	       size_t __len))
 811              		.loc 2 31 1 view .LVU246
 812              	.LBB143:
  34:/usr/include/x86_64-linux-gnu/bits/string_fortified.h **** }
 813              		.loc 2 34 3 view .LVU247
  34:/usr/include/x86_64-linux-gnu/bits/string_fortified.h **** }
 814              		.loc 2 34 10 is_stmt 0 view .LVU248
 815 00c5 488B9560 		movq	864(%rbp), %rdx
 815      030000
 816 00cc 4C89E6   		movq	%r12, %rsi
 817 00cf E8000000 		call	memcpy@PLT
 817      00
 818              	.LVL64:
  34:/usr/include/x86_64-linux-gnu/bits/string_fortified.h **** }
 819              		.loc 2 34 10 view .LVU249
 820              	.LBE143:
 821              	.LBE142:
 592:fltk-1.3.4-1/png/pngpread.c ****       old_buffer = NULL;
 822              		.loc 1 592 7 is_stmt 1 view .LVU250
 823 00d4 4C89E6   		movq	%r12, %rsi
 824 00d7 4889EF   		movq	%rbp, %rdi
 825 00da E8000000 		call	png_free@PLT
 825      00
 826              	.LVL65:
 593:fltk-1.3.4-1/png/pngpread.c ****       png_ptr->save_buffer_max = new_max;
 827              		.loc 1 593 7 view .LVU251
 594:fltk-1.3.4-1/png/pngpread.c ****    }
 828              		.loc 1 594 7 view .LVU252
 594:fltk-1.3.4-1/png/pngpread.c ****    }
 829              		.loc 1 594 32 is_stmt 0 view .LVU253
 830 00df 48899D68 		movq	%rbx, 872(%rbp)
 830      030000
 831 00e6 488B9578 		movq	888(%rbp), %rdx
 831      030000
 832 00ed E96EFFFF 		jmp	.L79
 832      FF
 833              	.LVL66:
 834              		.p2align 4,,10
 835 00f2 660F1F44 		.p2align 3
 835      0000
 836              	.L67:
 570:fltk-1.3.4-1/png/pngpread.c ****       png_bytep old_buffer;
 837              		.loc 1 570 7 is_stmt 1 view .LVU254
 571:fltk-1.3.4-1/png/pngpread.c **** 
 838              		.loc 1 571 7 view .LVU255
 573:fltk-1.3.4-1/png/pngpread.c ****           (png_ptr->current_buffer_size + 256))
 839              		.loc 1 573 7 view .LVU256
 574:fltk-1.3.4-1/png/pngpread.c ****       {
 840              		.loc 1 574 41 is_stmt 0 view .LVU257
 841 00f8 4881C200 		addq	$256, %rdx
 841      010000
 573:fltk-1.3.4-1/png/pngpread.c ****           (png_ptr->current_buffer_size + 256))
 842              		.loc 1 573 52 view .LVU258
 843 00ff 48F7D2   		notq	%rdx
 573:fltk-1.3.4-1/png/pngpread.c ****           (png_ptr->current_buffer_size + 256))
 844              		.loc 1 573 10 view .LVU259
 845 0102 4839CA   		cmpq	%rcx, %rdx
 846 0105 7266     		jb	.L82
 847 0107 4C8BA540 		movq	832(%rbp), %r12
 847      030000
 848 010e 4889C2   		movq	%rax, %rdx
 849 0111 EB8D     		jmp	.L72
 850              	.LVL67:
 851              		.p2align 4,,10
 852 0113 0F1F4400 		.p2align 3
 852      00
 853              	.L80:
 573:fltk-1.3.4-1/png/pngpread.c ****           (png_ptr->current_buffer_size + 256))
 854              		.loc 1 573 10 view .LVU260
 855              	.LBE141:
 598:fltk-1.3.4-1/png/pngpread.c ****          png_ptr->current_buffer_ptr, png_ptr->current_buffer_size);
 856              		.loc 1 598 7 is_stmt 1 view .LVU261
 857              	.LBB144:
 858              	.LBI144:
  31:/usr/include/x86_64-linux-gnu/bits/string_fortified.h **** 	       size_t __len))
 859              		.loc 2 31 1 view .LVU262
 860              	.LBB145:
  34:/usr/include/x86_64-linux-gnu/bits/string_fortified.h **** }
 861              		.loc 2 34 3 view .LVU263
 862              	.LBE145:
 863              	.LBE144:
 598:fltk-1.3.4-1/png/pngpread.c ****          png_ptr->current_buffer_ptr, png_ptr->current_buffer_size);
 864              		.loc 1 598 35 is_stmt 0 view .LVU264
 865 0118 488BBD60 		movq	864(%rbp), %rdi
 865      030000
 866              	.LBB148:
 867              	.LBB146:
  34:/usr/include/x86_64-linux-gnu/bits/string_fortified.h **** }
 868              		.loc 2 34 10 view .LVU265
 869 011f 488BB548 		movq	840(%rbp), %rsi
 869      030000
 870              	.LBE146:
 871              	.LBE148:
 598:fltk-1.3.4-1/png/pngpread.c ****          png_ptr->current_buffer_ptr, png_ptr->current_buffer_size);
 872              		.loc 1 598 35 view .LVU266
 873 0126 4C01E7   		addq	%r12, %rdi
 874              	.LVL68:
 875              	.LBB149:
 876              	.LBB147:
  34:/usr/include/x86_64-linux-gnu/bits/string_fortified.h **** }
 877              		.loc 2 34 10 view .LVU267
 878 0129 E8000000 		call	memcpy@PLT
 878      00
 879              	.LVL69:
  34:/usr/include/x86_64-linux-gnu/bits/string_fortified.h **** }
 880              		.loc 2 34 10 view .LVU268
 881              	.LBE147:
 882              	.LBE149:
 600:fltk-1.3.4-1/png/pngpread.c ****       png_ptr->current_buffer_size = 0;
 883              		.loc 1 600 7 is_stmt 1 view .LVU269
 600:fltk-1.3.4-1/png/pngpread.c ****       png_ptr->current_buffer_size = 0;
 884              		.loc 1 600 33 is_stmt 0 view .LVU270
 885 012e 488B8578 		movq	888(%rbp), %rax
 885      030000
 886 0135 4C8BA540 		movq	832(%rbp), %r12
 886      030000
 601:fltk-1.3.4-1/png/pngpread.c ****    }
 887              		.loc 1 601 36 view .LVU271
 888 013c 48C78578 		movq	$0, 888(%rbp)
 888      03000000 
 888      000000
 600:fltk-1.3.4-1/png/pngpread.c ****       png_ptr->current_buffer_size = 0;
 889              		.loc 1 600 33 view .LVU272
 890 0147 48018560 		addq	%rax, 864(%rbp)
 890      030000
 601:fltk-1.3.4-1/png/pngpread.c ****    }
 891              		.loc 1 601 7 is_stmt 1 view .LVU273
 892 014e E91DFFFF 		jmp	.L71
 892      FF
 893              	.LVL70:
 894              	.L81:
 895              	.LBB150:
 586:fltk-1.3.4-1/png/pngpread.c ****          old_buffer = NULL;
 896              		.loc 1 586 10 view .LVU274
 897 0153 4C89E6   		movq	%r12, %rsi
 898 0156 4889EF   		movq	%rbp, %rdi
 899 0159 E8000000 		call	png_free@PLT
 899      00
 900              	.LVL71:
 587:fltk-1.3.4-1/png/pngpread.c ****          png_error(png_ptr, "Insufficient memory for save_buffer");
 901              		.loc 1 587 10 view .LVU275
 588:fltk-1.3.4-1/png/pngpread.c ****       }
 902              		.loc 1 588 10 view .LVU276
 903 015e 488D3500 		leaq	.LC5(%rip), %rsi
 903      000000
 904 0165 4889EF   		movq	%rbp, %rdi
 905 0168 E8000000 		call	png_error@PLT
 905      00
 906              	.LVL72:
 907              	.L82:
 576:fltk-1.3.4-1/png/pngpread.c ****       }
 908              		.loc 1 576 10 view .LVU277
 909 016d 488D3500 		leaq	.LC4(%rip), %rsi
 909      000000
 910 0174 4889EF   		movq	%rbp, %rdi
 911              	.LVL73:
 576:fltk-1.3.4-1/png/pngpread.c ****       }
 912              		.loc 1 576 10 is_stmt 0 view .LVU278
 913 0177 E8000000 		call	png_error@PLT
 913      00
 914              	.LVL74:
 915              	.LBE150:
 916              		.cfi_endproc
 917              	.LFE50:
 919              		.section	.text.png_process_data_pause,"ax",@progbits
 920              		.p2align 4
 921              		.globl	png_process_data_pause
 923              	png_process_data_pause:
 924              	.LVL75:
 925              	.LFB42:
  53:fltk-1.3.4-1/png/pngpread.c ****    if (png_ptr != NULL)
 926              		.loc 1 53 1 is_stmt 1 view -0
 927              		.cfi_startproc
  53:fltk-1.3.4-1/png/pngpread.c ****    if (png_ptr != NULL)
 928              		.loc 1 53 1 is_stmt 0 view .LVU280
 929 0000 F30F1EFA 		endbr64
  54:fltk-1.3.4-1/png/pngpread.c ****    {
 930              		.loc 1 54 4 is_stmt 1 view .LVU281
  54:fltk-1.3.4-1/png/pngpread.c ****    {
 931              		.loc 1 54 7 is_stmt 0 view .LVU282
 932 0004 4885FF   		testq	%rdi, %rdi
 933 0007 7422     		je	.L87
  59:fltk-1.3.4-1/png/pngpread.c ****          png_push_save_buffer(png_ptr);
 934              		.loc 1 59 7 is_stmt 1 view .LVU283
  59:fltk-1.3.4-1/png/pngpread.c ****          png_push_save_buffer(png_ptr);
 935              		.loc 1 59 10 is_stmt 0 view .LVU284
 936 0009 85F6     		testl	%esi, %esi
 937 000b 7523     		jne	.L92
 938              	.LBB151:
  64:fltk-1.3.4-1/png/pngpread.c ****          png_ptr->buffer_size = 0;
 939              		.loc 1 64 10 is_stmt 1 view .LVU285
  64:fltk-1.3.4-1/png/pngpread.c ****          png_ptr->buffer_size = 0;
 940              		.loc 1 64 21 is_stmt 0 view .LVU286
 941 000d 488B8770 		movq	880(%rdi), %rax
 941      030000
 942              	.LVL76:
  65:fltk-1.3.4-1/png/pngpread.c **** 
 943              		.loc 1 65 10 is_stmt 1 view .LVU287
  70:fltk-1.3.4-1/png/pngpread.c ****             return remaining - png_ptr->save_buffer_size;
 944              		.loc 1 70 21 is_stmt 0 view .LVU288
 945 0014 488B9760 		movq	864(%rdi), %rdx
 945      030000
  65:fltk-1.3.4-1/png/pngpread.c **** 
 946              		.loc 1 65 31 view .LVU289
 947 001b 48C78770 		movq	$0, 880(%rdi)
 947      03000000 
 947      000000
  70:fltk-1.3.4-1/png/pngpread.c ****             return remaining - png_ptr->save_buffer_size;
 948              		.loc 1 70 10 is_stmt 1 view .LVU290
  70:fltk-1.3.4-1/png/pngpread.c ****             return remaining - png_ptr->save_buffer_size;
 949              		.loc 1 70 13 is_stmt 0 view .LVU291
 950 0026 4839C2   		cmpq	%rax, %rdx
 951 0029 7215     		jb	.L93
 952              	.LVL77:
 953              	.L87:
  70:fltk-1.3.4-1/png/pngpread.c ****             return remaining - png_ptr->save_buffer_size;
 954              		.loc 1 70 13 view .LVU292
 955              	.LBE151:
  75:fltk-1.3.4-1/png/pngpread.c **** }
 956              		.loc 1 75 11 view .LVU293
 957 002b 31C0     		xorl	%eax, %eax
 958 002d C3       		ret
 959 002e 6690     		.p2align 4,,10
 960              		.p2align 3
 961              	.L92:
  60:fltk-1.3.4-1/png/pngpread.c ****       else
 962              		.loc 1 60 10 is_stmt 1 view .LVU294
  53:fltk-1.3.4-1/png/pngpread.c ****    if (png_ptr != NULL)
 963              		.loc 1 53 1 is_stmt 0 view .LVU295
 964 0030 4883EC08 		subq	$8, %rsp
 965              		.cfi_def_cfa_offset 16
  60:fltk-1.3.4-1/png/pngpread.c ****       else
 966              		.loc 1 60 10 view .LVU296
 967 0034 E8000000 		call	png_push_save_buffer
 967      00
 968              	.LVL78:
  75:fltk-1.3.4-1/png/pngpread.c **** }
 969              		.loc 1 75 11 view .LVU297
 970 0039 31C0     		xorl	%eax, %eax
  76:fltk-1.3.4-1/png/pngpread.c **** 
 971              		.loc 1 76 1 view .LVU298
 972 003b 4883C408 		addq	$8, %rsp
 973              		.cfi_def_cfa_offset 8
 974 003f C3       		ret
 975              	.LVL79:
 976              		.p2align 4,,10
 977              		.p2align 3
 978              	.L93:
 979              	.LBB152:
  71:fltk-1.3.4-1/png/pngpread.c ****       }
 980              		.loc 1 71 13 is_stmt 1 view .LVU299
  71:fltk-1.3.4-1/png/pngpread.c ****       }
 981              		.loc 1 71 30 is_stmt 0 view .LVU300
 982 0040 4829D0   		subq	%rdx, %rax
 983              	.LVL80:
  71:fltk-1.3.4-1/png/pngpread.c ****       }
 984              		.loc 1 71 30 view .LVU301
 985              	.LBE152:
  76:fltk-1.3.4-1/png/pngpread.c **** 
 986              		.loc 1 76 1 view .LVU302
 987 0043 C3       		ret
 988              		.cfi_endproc
 989              	.LFE42:
 991              		.section	.text.png_push_crc_finish,"ax",@progbits
 992              		.p2align 4
 993              		.globl	png_push_crc_finish
 995              	png_push_crc_finish:
 996              	.LVL81:
 997              	.LFB48:
 451:fltk-1.3.4-1/png/pngpread.c ****    if (png_ptr->skip_length != 0 && png_ptr->save_buffer_size != 0)
 998              		.loc 1 451 1 is_stmt 1 view -0
 999              		.cfi_startproc
 451:fltk-1.3.4-1/png/pngpread.c ****    if (png_ptr->skip_length != 0 && png_ptr->save_buffer_size != 0)
 1000              		.loc 1 451 1 is_stmt 0 view .LVU304
 1001 0000 F30F1EFA 		endbr64
 452:fltk-1.3.4-1/png/pngpread.c ****    {
 1002              		.loc 1 452 4 is_stmt 1 view .LVU305
 451:fltk-1.3.4-1/png/pngpread.c ****    if (png_ptr->skip_length != 0 && png_ptr->save_buffer_size != 0)
 1003              		.loc 1 451 1 is_stmt 0 view .LVU306
 1004 0004 4154     		pushq	%r12
 1005              		.cfi_def_cfa_offset 16
 1006              		.cfi_offset 12, -16
 1007 0006 55       		pushq	%rbp
 1008              		.cfi_def_cfa_offset 24
 1009              		.cfi_offset 6, -24
 1010 0007 4889FD   		movq	%rdi, %rbp
 1011 000a 53       		pushq	%rbx
 1012              		.cfi_def_cfa_offset 32
 1013              		.cfi_offset 3, -32
 452:fltk-1.3.4-1/png/pngpread.c ****    {
 1014              		.loc 1 452 15 view .LVU307
 1015 000b 8B9F5C03 		movl	860(%rdi), %ebx
 1015      0000
 452:fltk-1.3.4-1/png/pngpread.c ****    {
 1016              		.loc 1 452 7 view .LVU308
 1017 0011 85DB     		testl	%ebx, %ebx
 1018 0013 0F84AF00 		je	.L101
 1018      0000
 452:fltk-1.3.4-1/png/pngpread.c ****    {
 1019              		.loc 1 452 44 discriminator 1 view .LVU309
 1020 0019 488B8760 		movq	864(%rdi), %rax
 1020      030000
 452:fltk-1.3.4-1/png/pngpread.c ****    {
 1021              		.loc 1 452 34 discriminator 1 view .LVU310
 1022 0020 4885C0   		testq	%rax, %rax
 1023 0023 7447     		je	.L96
 1024              	.LBB153:
 454:fltk-1.3.4-1/png/pngpread.c ****       png_uint_32 skip_length = png_ptr->skip_length;
 1025              		.loc 1 454 7 is_stmt 1 view .LVU311
 1026              	.LVL82:
 455:fltk-1.3.4-1/png/pngpread.c **** 
 1027              		.loc 1 455 7 view .LVU312
 463:fltk-1.3.4-1/png/pngpread.c ****          save_size = (png_size_t)skip_length;
 1028              		.loc 1 463 7 view .LVU313
 463:fltk-1.3.4-1/png/pngpread.c ****          save_size = (png_size_t)skip_length;
 1029              		.loc 1 463 23 is_stmt 0 view .LVU314
 1030 0025 4189DC   		movl	%ebx, %r12d
 463:fltk-1.3.4-1/png/pngpread.c ****          save_size = (png_size_t)skip_length;
 1031              		.loc 1 463 10 view .LVU315
 1032 0028 4C39E0   		cmpq	%r12, %rax
 1033 002b 0F86CF00 		jbe	.L119
 1033      0000
 1034              	.L97:
 1035              	.LVL83:
 469:fltk-1.3.4-1/png/pngpread.c **** 
 1036              		.loc 1 469 7 is_stmt 1 view .LVU316
 1037 0031 488BB538 		movq	824(%rbp), %rsi
 1037      030000
 1038 0038 4C89E2   		movq	%r12, %rdx
 1039 003b 4889EF   		movq	%rbp, %rdi
 1040              	.LVL84:
 469:fltk-1.3.4-1/png/pngpread.c **** 
 1041              		.loc 1 469 7 is_stmt 0 view .LVU317
 1042 003e E8000000 		call	png_calculate_crc@PLT
 1042      00
 1043              	.LVL85:
 471:fltk-1.3.4-1/png/pngpread.c ****       png_ptr->buffer_size -= save_size;
 1044              		.loc 1 471 7 is_stmt 1 view .LVU318
 471:fltk-1.3.4-1/png/pngpread.c ****       png_ptr->buffer_size -= save_size;
 1045              		.loc 1 471 28 is_stmt 0 view .LVU319
 1046 0043 8B855C03 		movl	860(%rbp), %eax
 1046      0000
 472:fltk-1.3.4-1/png/pngpread.c ****       png_ptr->save_buffer_size -= save_size;
 1047              		.loc 1 472 28 view .LVU320
 1048 0049 4C29A570 		subq	%r12, 880(%rbp)
 1048      030000
 473:fltk-1.3.4-1/png/pngpread.c ****       png_ptr->save_buffer_ptr += save_size;
 1049              		.loc 1 473 33 view .LVU321
 1050 0050 4C29A560 		subq	%r12, 864(%rbp)
 1050      030000
 471:fltk-1.3.4-1/png/pngpread.c ****       png_ptr->buffer_size -= save_size;
 1051              		.loc 1 471 28 view .LVU322
 1052 0057 29D8     		subl	%ebx, %eax
 474:fltk-1.3.4-1/png/pngpread.c ****    }
 1053              		.loc 1 474 32 view .LVU323
 1054 0059 4C01A538 		addq	%r12, 824(%rbp)
 1054      030000
 471:fltk-1.3.4-1/png/pngpread.c ****       png_ptr->buffer_size -= save_size;
 1055              		.loc 1 471 28 view .LVU324
 1056 0060 89855C03 		movl	%eax, 860(%rbp)
 1056      0000
 472:fltk-1.3.4-1/png/pngpread.c ****       png_ptr->save_buffer_size -= save_size;
 1057              		.loc 1 472 7 is_stmt 1 view .LVU325
 473:fltk-1.3.4-1/png/pngpread.c ****       png_ptr->save_buffer_ptr += save_size;
 1058              		.loc 1 473 7 view .LVU326
 474:fltk-1.3.4-1/png/pngpread.c ****    }
 1059              		.loc 1 474 7 view .LVU327
 1060              	.LBE153:
 476:fltk-1.3.4-1/png/pngpread.c ****    {
 1061              		.loc 1 476 4 view .LVU328
 1062              	.LBB154:
 471:fltk-1.3.4-1/png/pngpread.c ****       png_ptr->buffer_size -= save_size;
 1063              		.loc 1 471 28 is_stmt 0 view .LVU329
 1064 0066 89C3     		movl	%eax, %ebx
 1065              	.LVL86:
 471:fltk-1.3.4-1/png/pngpread.c ****       png_ptr->buffer_size -= save_size;
 1066              		.loc 1 471 28 view .LVU330
 1067              	.LBE154:
 476:fltk-1.3.4-1/png/pngpread.c ****    {
 1068              		.loc 1 476 7 view .LVU331
 1069 0068 85C0     		testl	%eax, %eax
 1070 006a 745C     		je	.L101
 1071              	.LVL87:
 1072              	.L96:
 476:fltk-1.3.4-1/png/pngpread.c ****    {
 1073              		.loc 1 476 44 discriminator 1 view .LVU332
 1074 006c 488B8578 		movq	888(%rbp), %rax
 1074      030000
 476:fltk-1.3.4-1/png/pngpread.c ****    {
 1075              		.loc 1 476 34 discriminator 1 view .LVU333
 1076 0073 4885C0   		testq	%rax, %rax
 1077 0076 7445     		je	.L94
 1078              	.LBB155:
 478:fltk-1.3.4-1/png/pngpread.c ****       png_uint_32 skip_length = png_ptr->skip_length;
 1079              		.loc 1 478 7 is_stmt 1 view .LVU334
 1080              	.LVL88:
 479:fltk-1.3.4-1/png/pngpread.c **** 
 1081              		.loc 1 479 7 view .LVU335
 484:fltk-1.3.4-1/png/pngpread.c ****          save_size = (png_size_t)skip_length;
 1082              		.loc 1 484 7 view .LVU336
 484:fltk-1.3.4-1/png/pngpread.c ****          save_size = (png_size_t)skip_length;
 1083              		.loc 1 484 23 is_stmt 0 view .LVU337
 1084 0078 4189DC   		movl	%ebx, %r12d
 484:fltk-1.3.4-1/png/pngpread.c ****          save_size = (png_size_t)skip_length;
 1085              		.loc 1 484 10 view .LVU338
 1086 007b 4C39E0   		cmpq	%r12, %rax
 1087 007e 0F868C00 		jbe	.L120
 1087      0000
 1088              	.L100:
 1089              	.LVL89:
 490:fltk-1.3.4-1/png/pngpread.c **** 
 1090              		.loc 1 490 7 is_stmt 1 view .LVU339
 1091 0084 488BB548 		movq	840(%rbp), %rsi
 1091      030000
 1092 008b 4C89E2   		movq	%r12, %rdx
 1093 008e 4889EF   		movq	%rbp, %rdi
 1094 0091 E8000000 		call	png_calculate_crc@PLT
 1094      00
 1095              	.LVL90:
 492:fltk-1.3.4-1/png/pngpread.c ****       png_ptr->buffer_size -= save_size;
 1096              		.loc 1 492 7 view .LVU340
 492:fltk-1.3.4-1/png/pngpread.c ****       png_ptr->buffer_size -= save_size;
 1097              		.loc 1 492 28 is_stmt 0 view .LVU341
 1098 0096 8B855C03 		movl	860(%rbp), %eax
 1098      0000
 493:fltk-1.3.4-1/png/pngpread.c ****       png_ptr->current_buffer_size -= save_size;
 1099              		.loc 1 493 28 view .LVU342
 1100 009c 4C29A570 		subq	%r12, 880(%rbp)
 1100      030000
 494:fltk-1.3.4-1/png/pngpread.c ****       png_ptr->current_buffer_ptr += save_size;
 1101              		.loc 1 494 36 view .LVU343
 1102 00a3 4C29A578 		subq	%r12, 888(%rbp)
 1102      030000
 492:fltk-1.3.4-1/png/pngpread.c ****       png_ptr->buffer_size -= save_size;
 1103              		.loc 1 492 28 view .LVU344
 1104 00aa 29D8     		subl	%ebx, %eax
 495:fltk-1.3.4-1/png/pngpread.c ****    }
 1105              		.loc 1 495 35 view .LVU345
 1106 00ac 4C01A548 		addq	%r12, 840(%rbp)
 1106      030000
 492:fltk-1.3.4-1/png/pngpread.c ****       png_ptr->buffer_size -= save_size;
 1107              		.loc 1 492 28 view .LVU346
 1108 00b3 89855C03 		movl	%eax, 860(%rbp)
 1108      0000
 493:fltk-1.3.4-1/png/pngpread.c ****       png_ptr->current_buffer_size -= save_size;
 1109              		.loc 1 493 7 is_stmt 1 view .LVU347
 494:fltk-1.3.4-1/png/pngpread.c ****       png_ptr->current_buffer_ptr += save_size;
 1110              		.loc 1 494 7 view .LVU348
 495:fltk-1.3.4-1/png/pngpread.c ****    }
 1111              		.loc 1 495 7 view .LVU349
 1112              	.LBE155:
 497:fltk-1.3.4-1/png/pngpread.c ****    {
 1113              		.loc 1 497 4 view .LVU350
 497:fltk-1.3.4-1/png/pngpread.c ****    {
 1114              		.loc 1 497 7 is_stmt 0 view .LVU351
 1115 00b9 85C0     		testl	%eax, %eax
 1116 00bb 740B     		je	.L101
 1117              	.LVL91:
 1118              	.L94:
 503:fltk-1.3.4-1/png/pngpread.c **** 
 1119              		.loc 1 503 1 view .LVU352
 1120 00bd 5B       		popq	%rbx
 1121              		.cfi_remember_state
 1122              		.cfi_def_cfa_offset 24
 1123 00be 5D       		popq	%rbp
 1124              		.cfi_def_cfa_offset 16
 1125              	.LVL92:
 503:fltk-1.3.4-1/png/pngpread.c **** 
 1126              		.loc 1 503 1 view .LVU353
 1127 00bf 415C     		popq	%r12
 1128              		.cfi_def_cfa_offset 8
 1129 00c1 C3       		ret
 1130              	.LVL93:
 1131              		.p2align 4,,10
 1132 00c2 660F1F44 		.p2align 3
 1132      0000
 1133              	.L101:
 1134              		.cfi_restore_state
 497:fltk-1.3.4-1/png/pngpread.c ****    {
 1135              		.loc 1 497 4 is_stmt 1 view .LVU354
 499:fltk-1.3.4-1/png/pngpread.c ****       png_crc_finish(png_ptr, 0);
 1136              		.loc 1 499 7 view .LVU355
 1137 00c8 4883BD70 		cmpq	$3, 880(%rbp)
 1137      03000003 
 1138 00d0 761E     		jbe	.L121
 500:fltk-1.3.4-1/png/pngpread.c ****       png_ptr->process_mode = PNG_READ_CHUNK_MODE;
 1139              		.loc 1 500 7 view .LVU356
 1140 00d2 4889EF   		movq	%rbp, %rdi
 1141 00d5 31F6     		xorl	%esi, %esi
 1142 00d7 E8000000 		call	png_crc_finish@PLT
 1142      00
 1143              	.LVL94:
 501:fltk-1.3.4-1/png/pngpread.c ****    }
 1144              		.loc 1 501 7 view .LVU357
 503:fltk-1.3.4-1/png/pngpread.c **** 
 1145              		.loc 1 503 1 is_stmt 0 view .LVU358
 1146 00dc 5B       		popq	%rbx
 1147              		.cfi_remember_state
 1148              		.cfi_def_cfa_offset 24
 501:fltk-1.3.4-1/png/pngpread.c ****    }
 1149              		.loc 1 501 29 view .LVU359
 1150 00dd C7858003 		movl	$1, 896(%rbp)
 1150      00000100 
 1150      0000
 503:fltk-1.3.4-1/png/pngpread.c **** 
 1151              		.loc 1 503 1 view .LVU360
 1152 00e7 5D       		popq	%rbp
 1153              		.cfi_def_cfa_offset 16
 1154              	.LVL95:
 503:fltk-1.3.4-1/png/pngpread.c **** 
 1155              		.loc 1 503 1 view .LVU361
 1156 00e8 415C     		popq	%r12
 1157              		.cfi_def_cfa_offset 8
 1158 00ea C3       		ret
 1159              	.LVL96:
 1160 00eb 0F1F4400 		.p2align 4,,10
 1160      00
 1161              		.p2align 3
 1162              	.L121:
 1163              		.cfi_restore_state
 499:fltk-1.3.4-1/png/pngpread.c ****       png_crc_finish(png_ptr, 0);
 1164              		.loc 1 499 7 is_stmt 1 discriminator 1 view .LVU362
 503:fltk-1.3.4-1/png/pngpread.c **** 
 1165              		.loc 1 503 1 is_stmt 0 discriminator 1 view .LVU363
 1166 00f0 5B       		popq	%rbx
 1167              		.cfi_remember_state
 1168              		.cfi_def_cfa_offset 24
 499:fltk-1.3.4-1/png/pngpread.c ****       png_crc_finish(png_ptr, 0);
 1169              		.loc 1 499 7 discriminator 1 view .LVU364
 1170 00f1 4889EF   		movq	%rbp, %rdi
 503:fltk-1.3.4-1/png/pngpread.c **** 
 1171              		.loc 1 503 1 discriminator 1 view .LVU365
 1172 00f4 5D       		popq	%rbp
 1173              		.cfi_def_cfa_offset 16
 1174              	.LVL97:
 503:fltk-1.3.4-1/png/pngpread.c **** 
 1175              		.loc 1 503 1 discriminator 1 view .LVU366
 1176 00f5 415C     		popq	%r12
 1177              		.cfi_def_cfa_offset 8
 499:fltk-1.3.4-1/png/pngpread.c ****       png_crc_finish(png_ptr, 0);
 1178              		.loc 1 499 7 discriminator 1 view .LVU367
 1179 00f7 E9000000 		jmp	png_push_save_buffer
 1179      00
 1180              	.LVL98:
 1181 00fc 0F1F4000 		.p2align 4,,10
 1182              		.p2align 3
 1183              	.L119:
 1184              		.cfi_restore_state
 1185              	.LBB156:
 467:fltk-1.3.4-1/png/pngpread.c **** 
 1186              		.loc 1 467 10 is_stmt 1 view .LVU368
 467:fltk-1.3.4-1/png/pngpread.c **** 
 1187              		.loc 1 467 22 is_stmt 0 view .LVU369
 1188 0100 89C3     		movl	%eax, %ebx
 1189              	.LVL99:
 467:fltk-1.3.4-1/png/pngpread.c **** 
 1190              		.loc 1 467 22 view .LVU370
 1191 0102 4989C4   		movq	%rax, %r12
 1192 0105 E927FFFF 		jmp	.L97
 1192      FF
 1193              	.LVL100:
 1194 010a 660F1F44 		.p2align 4,,10
 1194      0000
 1195              		.p2align 3
 1196              	.L120:
 467:fltk-1.3.4-1/png/pngpread.c **** 
 1197              		.loc 1 467 22 view .LVU371
 1198              	.LBE156:
 1199              	.LBB157:
 488:fltk-1.3.4-1/png/pngpread.c **** 
 1200              		.loc 1 488 10 is_stmt 1 view .LVU372
 488:fltk-1.3.4-1/png/pngpread.c **** 
 1201              		.loc 1 488 22 is_stmt 0 view .LVU373
 1202 0110 89C3     		movl	%eax, %ebx
 1203              	.LVL101:
 488:fltk-1.3.4-1/png/pngpread.c **** 
 1204              		.loc 1 488 22 view .LVU374
 1205 0112 4989C4   		movq	%rax, %r12
 1206 0115 E96AFFFF 		jmp	.L100
 1206      FF
 1207              	.LBE157:
 1208              		.cfi_endproc
 1209              	.LFE48:
 1211              		.section	.rodata.png_push_read_chunk.str1.1,"aMS",@progbits,1
 1212              	.LC6:
 1213 0000 4D697373 		.string	"Missing IHDR before IDAT"
 1213      696E6720 
 1213      49484452 
 1213      20626566 
 1213      6F726520 
 1214              	.LC7:
 1215 0019 4D697373 		.string	"Missing PLTE before IDAT"
 1215      696E6720 
 1215      504C5445 
 1215      20626566 
 1215      6F726520 
 1216              	.LC8:
 1217 0032 546F6F20 		.string	"Too many IDATs found"
 1217      6D616E79 
 1217      20494441 
 1217      54732066 
 1217      6F756E64 
 1218              	.LC9:
 1219 0047 496E7661 		.string	"Invalid IHDR length"
 1219      6C696420 
 1219      49484452 
 1219      206C656E 
 1219      67746800 
 1220              		.section	.text.png_push_read_chunk,"ax",@progbits
 1221              		.p2align 4
 1222              		.globl	png_push_read_chunk
 1224              	png_push_read_chunk:
 1225              	.LVL102:
 1226              	.LFB46:
 193:fltk-1.3.4-1/png/pngpread.c ****    png_uint_32 chunk_name;
 1227              		.loc 1 193 1 is_stmt 1 view -0
 1228              		.cfi_startproc
 193:fltk-1.3.4-1/png/pngpread.c ****    png_uint_32 chunk_name;
 1229              		.loc 1 193 1 is_stmt 0 view .LVU376
 1230 0000 F30F1EFA 		endbr64
 1231 0004 4155     		pushq	%r13
 1232              		.cfi_def_cfa_offset 16
 1233              		.cfi_offset 13, -16
 1234 0006 4154     		pushq	%r12
 1235              		.cfi_def_cfa_offset 24
 1236              		.cfi_offset 12, -24
 1237 0008 4989F4   		movq	%rsi, %r12
 1238 000b 55       		pushq	%rbp
 1239              		.cfi_def_cfa_offset 32
 1240              		.cfi_offset 6, -32
 1241 000c 4889FD   		movq	%rdi, %rbp
 1242 000f 53       		pushq	%rbx
 1243              		.cfi_def_cfa_offset 40
 1244              		.cfi_offset 3, -40
 1245 0010 4883EC18 		subq	$24, %rsp
 1246              		.cfi_def_cfa_offset 64
 193:fltk-1.3.4-1/png/pngpread.c ****    png_uint_32 chunk_name;
 1247              		.loc 1 193 1 view .LVU377
 1248 0014 64488B04 		movq	%fs:40, %rax
 1248      25280000 
 1248      00
 1249 001d 48894424 		movq	%rax, 8(%rsp)
 1249      08
 1250 0022 31C0     		xorl	%eax, %eax
 194:fltk-1.3.4-1/png/pngpread.c **** #ifdef PNG_HANDLE_AS_UNKNOWN_SUPPORTED
 1251              		.loc 1 194 4 is_stmt 1 view .LVU378
 196:fltk-1.3.4-1/png/pngpread.c **** #endif
 1252              		.loc 1 196 4 view .LVU379
 205:fltk-1.3.4-1/png/pngpread.c ****    {
 1253              		.loc 1 205 4 view .LVU380
 205:fltk-1.3.4-1/png/pngpread.c ****    {
 1254              		.loc 1 205 7 is_stmt 0 view .LVU381
 1255 0024 F6872D01 		testb	$1, 301(%rdi)
 1255      000001
 1256 002b 7567     		jne	.L123
 1257              	.LBB158:
 207:fltk-1.3.4-1/png/pngpread.c ****       png_byte chunk_tag[4];
 1258              		.loc 1 207 7 is_stmt 1 view .LVU382
 208:fltk-1.3.4-1/png/pngpread.c **** 
 1259              		.loc 1 208 7 view .LVU383
 210:fltk-1.3.4-1/png/pngpread.c ****       png_push_fill_buffer(png_ptr, chunk_length, 4);
 1260              		.loc 1 210 7 view .LVU384
 1261 002d 4883BF70 		cmpq	$7, 880(%rdi)
 1261      03000007 
 1262 0035 0F86A501 		jbe	.L137
 1262      0000
 211:fltk-1.3.4-1/png/pngpread.c ****       png_ptr->push_length = png_get_uint_31(png_ptr, chunk_length);
 1263              		.loc 1 211 7 view .LVU385
 1264 003b 4989E5   		movq	%rsp, %r13
 1265 003e BA040000 		movl	$4, %edx
 1265      00
 1266 0043 4C89EE   		movq	%r13, %rsi
 1267              	.LVL103:
 211:fltk-1.3.4-1/png/pngpread.c ****       png_ptr->push_length = png_get_uint_31(png_ptr, chunk_length);
 1268              		.loc 1 211 7 is_stmt 0 view .LVU386
 1269 0046 E8000000 		call	png_push_fill_buffer
 1269      00
 1270              	.LVL104:
 212:fltk-1.3.4-1/png/pngpread.c ****       png_reset_crc(png_ptr);
 1271              		.loc 1 212 7 is_stmt 1 view .LVU387
 212:fltk-1.3.4-1/png/pngpread.c ****       png_reset_crc(png_ptr);
 1272              		.loc 1 212 30 is_stmt 0 view .LVU388
 1273 004b 4C89EE   		movq	%r13, %rsi
 1274 004e 4889EF   		movq	%rbp, %rdi
 1275 0051 E8000000 		call	png_get_uint_31@PLT
 1275      00
 1276              	.LVL105:
 213:fltk-1.3.4-1/png/pngpread.c ****       png_crc_read(png_ptr, chunk_tag, 4);
 1277              		.loc 1 213 7 view .LVU389
 1278 0056 4889EF   		movq	%rbp, %rdi
 212:fltk-1.3.4-1/png/pngpread.c ****       png_reset_crc(png_ptr);
 1279              		.loc 1 212 28 view .LVU390
 1280 0059 89855803 		movl	%eax, 856(%rbp)
 1280      0000
 213:fltk-1.3.4-1/png/pngpread.c ****       png_crc_read(png_ptr, chunk_tag, 4);
 1281              		.loc 1 213 7 is_stmt 1 view .LVU391
 1282 005f E8000000 		call	png_reset_crc@PLT
 1282      00
 1283              	.LVL106:
 214:fltk-1.3.4-1/png/pngpread.c ****       png_ptr->chunk_name = PNG_CHUNK_FROM_STRING(chunk_tag);
 1284              		.loc 1 214 7 view .LVU392
 1285 0064 488D7424 		leaq	4(%rsp), %rsi
 1285      04
 1286 0069 BA040000 		movl	$4, %edx
 1286      00
 1287 006e 4889EF   		movq	%rbp, %rdi
 1288 0071 E8000000 		call	png_crc_read@PLT
 1288      00
 1289              	.LVL107:
 215:fltk-1.3.4-1/png/pngpread.c ****       png_check_chunk_name(png_ptr, png_ptr->chunk_name);
 1290              		.loc 1 215 7 view .LVU393
 1291 0076 8B742404 		movl	4(%rsp), %esi
 216:fltk-1.3.4-1/png/pngpread.c ****       png_ptr->mode |= PNG_HAVE_CHUNK_HEADER;
 1292              		.loc 1 216 7 is_stmt 0 view .LVU394
 1293 007a 4889EF   		movq	%rbp, %rdi
 1294 007d 0FCE     		bswap	%esi
 215:fltk-1.3.4-1/png/pngpread.c ****       png_check_chunk_name(png_ptr, png_ptr->chunk_name);
 1295              		.loc 1 215 27 view .LVU395
 1296 007f 89B51802 		movl	%esi, 536(%rbp)
 1296      0000
 216:fltk-1.3.4-1/png/pngpread.c ****       png_ptr->mode |= PNG_HAVE_CHUNK_HEADER;
 1297              		.loc 1 216 7 is_stmt 1 view .LVU396
 1298 0085 E8000000 		call	png_check_chunk_name@PLT
 1298      00
 1299              	.LVL108:
 217:fltk-1.3.4-1/png/pngpread.c ****    }
 1300              		.loc 1 217 7 view .LVU397
 217:fltk-1.3.4-1/png/pngpread.c ****    }
 1301              		.loc 1 217 21 is_stmt 0 view .LVU398
 1302 008a 818D2C01 		orl	$256, 300(%rbp)
 1302      00000001 
 1302      0000
 1303              	.L123:
 1304              	.LBE158:
 220:fltk-1.3.4-1/png/pngpread.c **** 
 1305              		.loc 1 220 4 is_stmt 1 view .LVU399
 220:fltk-1.3.4-1/png/pngpread.c **** 
 1306              		.loc 1 220 15 is_stmt 0 view .LVU400
 1307 0094 8B9D1802 		movl	536(%rbp), %ebx
 1307      0000
 1308              	.LVL109:
 222:fltk-1.3.4-1/png/pngpread.c ****    {
 1309              		.loc 1 222 4 is_stmt 1 view .LVU401
 222:fltk-1.3.4-1/png/pngpread.c ****    {
 1310              		.loc 1 222 7 is_stmt 0 view .LVU402
 1311 009a 81FB5441 		cmpl	$1229209940, %ebx
 1311      4449
 1312 00a0 0F84AA00 		je	.L176
 1312      0000
 249:fltk-1.3.4-1/png/pngpread.c ****    {
 1313              		.loc 1 249 4 is_stmt 1 view .LVU403
 249:fltk-1.3.4-1/png/pngpread.c ****    {
 1314              		.loc 1 249 7 is_stmt 0 view .LVU404
 1315 00a6 81FB5244 		cmpl	$1229472850, %ebx
 1315      4849
 1316 00ac 745A     		je	.L177
 258:fltk-1.3.4-1/png/pngpread.c ****    {
 1317              		.loc 1 258 9 is_stmt 1 view .LVU405
 258:fltk-1.3.4-1/png/pngpread.c ****    {
 1318              		.loc 1 258 12 is_stmt 0 view .LVU406
 1319 00ae 81FB444E 		cmpl	$1229278788, %ebx
 1319      4549
 1320 00b4 0F857E01 		jne	.L136
 1320      0000
 260:fltk-1.3.4-1/png/pngpread.c ****       png_handle_IEND(png_ptr, info_ptr, png_ptr->push_length);
 1321              		.loc 1 260 7 is_stmt 1 view .LVU407
 1322 00ba 8B955803 		movl	856(%rbp), %edx
 1322      0000
 1323 00c0 8D4204   		leal	4(%rdx), %eax
 1324 00c3 483B8570 		cmpq	880(%rbp), %rax
 1324      030000
 1325 00ca 0F871001 		ja	.L137
 1325      0000
 261:fltk-1.3.4-1/png/pngpread.c **** 
 1326              		.loc 1 261 7 view .LVU408
 1327 00d0 4C89E6   		movq	%r12, %rsi
 1328 00d3 4889EF   		movq	%rbp, %rdi
 1329 00d6 E8000000 		call	png_handle_IEND@PLT
 1329      00
 1330              	.LVL110:
 263:fltk-1.3.4-1/png/pngpread.c ****       png_push_have_end(png_ptr, info_ptr);
 1331              		.loc 1 263 7 view .LVU409
 1332              	.LBB159:
 1333              	.LBB160:
1107:fltk-1.3.4-1/png/pngpread.c **** 
1108:fltk-1.3.4-1/png/pngpread.c **** void /* PRIVATE */
1109:fltk-1.3.4-1/png/pngpread.c **** png_push_have_info(png_structrp png_ptr, png_inforp info_ptr)
1110:fltk-1.3.4-1/png/pngpread.c **** {
1111:fltk-1.3.4-1/png/pngpread.c ****    if (png_ptr->info_fn != NULL)
1112:fltk-1.3.4-1/png/pngpread.c ****       (*(png_ptr->info_fn))(png_ptr, info_ptr);
1113:fltk-1.3.4-1/png/pngpread.c **** }
1114:fltk-1.3.4-1/png/pngpread.c **** 
1115:fltk-1.3.4-1/png/pngpread.c **** void /* PRIVATE */
1116:fltk-1.3.4-1/png/pngpread.c **** png_push_have_end(png_structrp png_ptr, png_inforp info_ptr)
1117:fltk-1.3.4-1/png/pngpread.c **** {
1118:fltk-1.3.4-1/png/pngpread.c ****    if (png_ptr->end_fn != NULL)
 1334              		.loc 1 1118 15 is_stmt 0 view .LVU410
 1335 00db 488B8530 		movq	816(%rbp), %rax
 1335      030000
 1336              	.LBE160:
 1337              	.LBE159:
 263:fltk-1.3.4-1/png/pngpread.c ****       png_push_have_end(png_ptr, info_ptr);
 1338              		.loc 1 263 29 view .LVU411
 1339 00e2 C7858003 		movl	$6, 896(%rbp)
 1339      00000600 
 1339      0000
 264:fltk-1.3.4-1/png/pngpread.c ****    }
 1340              		.loc 1 264 7 is_stmt 1 view .LVU412
 1341              	.LVL111:
 1342              	.LBB162:
 1343              	.LBI159:
1116:fltk-1.3.4-1/png/pngpread.c **** {
 1344              		.loc 1 1116 1 view .LVU413
 1345              	.LBB161:
 1346              		.loc 1 1118 4 view .LVU414
 1347              		.loc 1 1118 7 is_stmt 0 view .LVU415
 1348 00ec 4885C0   		testq	%rax, %rax
 1349 00ef 0F845B02 		je	.L175
 1349      0000
1119:fltk-1.3.4-1/png/pngpread.c ****       (*(png_ptr->end_fn))(png_ptr, info_ptr);
 1350              		.loc 1 1119 7 is_stmt 1 view .LVU416
 1351              		.loc 1 1119 8 is_stmt 0 view .LVU417
 1352 00f5 4C89E6   		movq	%r12, %rsi
 1353 00f8 4889EF   		movq	%rbp, %rdi
 1354 00fb FFD0     		call	*%rax
 1355              	.LVL112:
 1356 00fd 8B852C01 		movl	300(%rbp), %eax
 1356      0000
 1357 0103 EB34     		jmp	.L135
 1358              	.LVL113:
 1359              		.p2align 4,,10
 1360 0105 0F1F00   		.p2align 3
 1361              	.L177:
 1362              		.loc 1 1119 8 view .LVU418
 1363              	.LBE161:
 1364              	.LBE162:
 251:fltk-1.3.4-1/png/pngpread.c ****          png_error(png_ptr, "Invalid IHDR length");
 1365              		.loc 1 251 7 is_stmt 1 view .LVU419
 251:fltk-1.3.4-1/png/pngpread.c ****          png_error(png_ptr, "Invalid IHDR length");
 1366              		.loc 1 251 10 is_stmt 0 view .LVU420
 1367 0108 83BD5803 		cmpl	$13, 856(%rbp)
 1367      00000D
 1368 010f 0F85DA04 		jne	.L178
 1368      0000
 254:fltk-1.3.4-1/png/pngpread.c ****       png_handle_IHDR(png_ptr, info_ptr, png_ptr->push_length);
 1369              		.loc 1 254 7 is_stmt 1 view .LVU421
 1370 0115 4883BD70 		cmpq	$16, 880(%rbp)
 1370      03000010 
 1371 011d 0F86BD00 		jbe	.L137
 1371      0000
 255:fltk-1.3.4-1/png/pngpread.c ****    }
 1372              		.loc 1 255 7 view .LVU422
 1373 0123 BA0D0000 		movl	$13, %edx
 1373      00
 1374 0128 4C89E6   		movq	%r12, %rsi
 1375 012b 4889EF   		movq	%rbp, %rdi
 1376 012e E8000000 		call	png_handle_IHDR@PLT
 1376      00
 1377              	.LVL114:
 1378 0133 8B852C01 		movl	300(%rbp), %eax
 1378      0000
 1379              	.L135:
 439:fltk-1.3.4-1/png/pngpread.c **** }
 1380              		.loc 1 439 4 view .LVU423
 439:fltk-1.3.4-1/png/pngpread.c **** }
 1381              		.loc 1 439 18 is_stmt 0 view .LVU424
 1382 0139 80E4FE   		andb	$-2, %ah
 1383 013c 89852C01 		movl	%eax, 300(%rbp)
 1383      0000
 1384 0142 E9A10000 		jmp	.L122
 1384      00
 1385 0147 660F1F84 		.p2align 4,,10
 1385      00000000 
 1385      00
 1386              		.p2align 3
 1387              	.L176:
 224:fltk-1.3.4-1/png/pngpread.c ****          png_ptr->mode |= PNG_HAVE_CHUNK_AFTER_IDAT;
 1388              		.loc 1 224 7 is_stmt 1 view .LVU425
 224:fltk-1.3.4-1/png/pngpread.c ****          png_ptr->mode |= PNG_HAVE_CHUNK_AFTER_IDAT;
 1389              		.loc 1 224 19 is_stmt 0 view .LVU426
 1390 0150 8B852C01 		movl	300(%rbp), %eax
 1390      0000
 224:fltk-1.3.4-1/png/pngpread.c ****          png_ptr->mode |= PNG_HAVE_CHUNK_AFTER_IDAT;
 1391              		.loc 1 224 10 view .LVU427
 1392 0156 A808     		testb	$8, %al
 1393 0158 7409     		je	.L127
 225:fltk-1.3.4-1/png/pngpread.c **** 
 1394              		.loc 1 225 10 is_stmt 1 view .LVU428
 225:fltk-1.3.4-1/png/pngpread.c **** 
 1395              		.loc 1 225 24 is_stmt 0 view .LVU429
 1396 015a 80CC20   		orb	$32, %ah
 1397 015d 89852C01 		movl	%eax, 300(%rbp)
 1397      0000
 1398              	.L127:
 231:fltk-1.3.4-1/png/pngpread.c ****          png_error(png_ptr, "Missing IHDR before IDAT");
 1399              		.loc 1 231 7 is_stmt 1 view .LVU430
 231:fltk-1.3.4-1/png/pngpread.c ****          png_error(png_ptr, "Missing IHDR before IDAT");
 1400              		.loc 1 231 10 is_stmt 0 view .LVU431
 1401 0163 A801     		testb	$1, %al
 1402 0165 0F847504 		je	.L179
 1402      0000
 234:fltk-1.3.4-1/png/pngpread.c ****           (png_ptr->mode & PNG_HAVE_PLTE) == 0)
 1403              		.loc 1 234 12 is_stmt 1 view .LVU432
 234:fltk-1.3.4-1/png/pngpread.c ****           (png_ptr->mode & PNG_HAVE_PLTE) == 0)
 1404              		.loc 1 234 15 is_stmt 0 view .LVU433
 1405 016b 80BD7702 		cmpb	$3, 631(%rbp)
 1405      000003
 1406 0172 7508     		jne	.L129
 234:fltk-1.3.4-1/png/pngpread.c ****           (png_ptr->mode & PNG_HAVE_PLTE) == 0)
 1407              		.loc 1 234 62 discriminator 1 view .LVU434
 1408 0174 A802     		testb	$2, %al
 1409 0176 0F848204 		je	.L180
 1409      0000
 1410              	.L129:
 238:fltk-1.3.4-1/png/pngpread.c ****       png_ptr->process_mode = PNG_READ_IDAT_MODE;
 1411              		.loc 1 238 7 is_stmt 1 view .LVU435
 239:fltk-1.3.4-1/png/pngpread.c **** 
 1412              		.loc 1 239 29 is_stmt 0 view .LVU436
 1413 017c C7858003 		movl	$2, 896(%rbp)
 1413      00000200 
 1413      0000
 238:fltk-1.3.4-1/png/pngpread.c ****       png_ptr->process_mode = PNG_READ_IDAT_MODE;
 1414              		.loc 1 238 21 view .LVU437
 1415 0186 89C2     		movl	%eax, %edx
 1416 0188 83CA04   		orl	$4, %edx
 1417 018b 89952C01 		movl	%edx, 300(%rbp)
 1417      0000
 239:fltk-1.3.4-1/png/pngpread.c **** 
 1418              		.loc 1 239 7 is_stmt 1 view .LVU438
 241:fltk-1.3.4-1/png/pngpread.c ****          if (png_ptr->push_length == 0)
 1419              		.loc 1 241 7 view .LVU439
 241:fltk-1.3.4-1/png/pngpread.c ****          if (png_ptr->push_length == 0)
 1420              		.loc 1 241 10 is_stmt 0 view .LVU440
 1421 0191 F6C420   		testb	$32, %ah
 1422 0194 750A     		jne	.L130
 242:fltk-1.3.4-1/png/pngpread.c ****             return;
 1423              		.loc 1 242 10 is_stmt 1 view .LVU441
 242:fltk-1.3.4-1/png/pngpread.c ****             return;
 1424              		.loc 1 242 13 is_stmt 0 view .LVU442
 1425 0196 8B955803 		movl	856(%rbp), %edx
 1425      0000
 1426 019c 85D2     		testl	%edx, %edx
 1427 019e 7448     		je	.L122
 1428              	.L130:
 245:fltk-1.3.4-1/png/pngpread.c ****          png_benign_error(png_ptr, "Too many IDATs found");
 1429              		.loc 1 245 7 is_stmt 1 view .LVU443
 245:fltk-1.3.4-1/png/pngpread.c ****          png_benign_error(png_ptr, "Too many IDATs found");
 1430              		.loc 1 245 10 is_stmt 0 view .LVU444
 1431 01a0 A808     		testb	$8, %al
 1432 01a2 740F     		je	.L131
 246:fltk-1.3.4-1/png/pngpread.c ****    }
 1433              		.loc 1 246 10 is_stmt 1 view .LVU445
 1434 01a4 488D3500 		leaq	.LC8(%rip), %rsi
 1434      000000
 1435 01ab 4889EF   		movq	%rbp, %rdi
 1436 01ae E8000000 		call	png_benign_error@PLT
 1436      00
 1437              	.LVL115:
 1438              	.L131:
 258:fltk-1.3.4-1/png/pngpread.c ****    {
 1439              		.loc 1 258 9 view .LVU446
 268:fltk-1.3.4-1/png/pngpread.c ****    {
 1440              		.loc 1 268 9 view .LVU447
 268:fltk-1.3.4-1/png/pngpread.c ****    {
 1441              		.loc 1 268 21 is_stmt 0 view .LVU448
 1442 01b3 BE544144 		movl	$1229209940, %esi
 1442      49
 1443 01b8 4889EF   		movq	%rbp, %rdi
 1444 01bb E8000000 		call	png_chunk_unknown_handling@PLT
 1444      00
 1445              	.LVL116:
 1446 01c0 89C1     		movl	%eax, %ecx
 1447              	.LVL117:
 268:fltk-1.3.4-1/png/pngpread.c ****    {
 1448              		.loc 1 268 12 view .LVU449
 1449 01c2 85C0     		testl	%eax, %eax
 1450 01c4 0F84E601 		je	.L181
 1450      0000
 1451              	.L160:
 270:fltk-1.3.4-1/png/pngpread.c ****       png_handle_unknown(png_ptr, info_ptr, png_ptr->push_length, keep);
 1452              		.loc 1 270 7 is_stmt 1 view .LVU450
 1453 01ca 8B955803 		movl	856(%rbp), %edx
 1453      0000
 1454 01d0 8D4204   		leal	4(%rdx), %eax
 1455              	.LVL118:
 270:fltk-1.3.4-1/png/pngpread.c ****       png_handle_unknown(png_ptr, info_ptr, png_ptr->push_length, keep);
 1456              		.loc 1 270 7 is_stmt 0 view .LVU451
 1457 01d3 483B8570 		cmpq	880(%rbp), %rax
 1457      030000
 1458 01da 7634     		jbe	.L182
 1459              	.LVL119:
 1460 01dc 0F1F4000 		.p2align 4,,10
 1461              		.p2align 3
 1462              	.L137:
 254:fltk-1.3.4-1/png/pngpread.c ****       png_handle_IHDR(png_ptr, info_ptr, png_ptr->push_length);
 1463              		.loc 1 254 7 is_stmt 1 discriminator 1 view .LVU452
 1464 01e0 4889EF   		movq	%rbp, %rdi
 1465 01e3 E8000000 		call	png_push_save_buffer
 1465      00
 1466              	.LVL120:
 254:fltk-1.3.4-1/png/pngpread.c ****       png_handle_IHDR(png_ptr, info_ptr, png_ptr->push_length);
 1467              		.loc 1 254 7 discriminator 1 view .LVU453
 1468              	.L122:
 440:fltk-1.3.4-1/png/pngpread.c **** 
 1469              		.loc 1 440 1 is_stmt 0 view .LVU454
 1470 01e8 488B4424 		movq	8(%rsp), %rax
 1470      08
 1471 01ed 64483304 		xorq	%fs:40, %rax
 1471      25280000 
 1471      00
 1472 01f6 0F856303 		jne	.L183
 1472      0000
 1473 01fc 4883C418 		addq	$24, %rsp
 1474              		.cfi_remember_state
 1475              		.cfi_def_cfa_offset 40
 1476 0200 5B       		popq	%rbx
 1477              		.cfi_def_cfa_offset 32
 1478 0201 5D       		popq	%rbp
 1479              		.cfi_def_cfa_offset 24
 1480              	.LVL121:
 440:fltk-1.3.4-1/png/pngpread.c **** 
 1481              		.loc 1 440 1 view .LVU455
 1482 0202 415C     		popq	%r12
 1483              		.cfi_def_cfa_offset 16
 1484              	.LVL122:
 440:fltk-1.3.4-1/png/pngpread.c **** 
 1485              		.loc 1 440 1 view .LVU456
 1486 0204 415D     		popq	%r13
 1487              		.cfi_def_cfa_offset 8
 1488 0206 C3       		ret
 1489              	.LVL123:
 1490 0207 660F1F84 		.p2align 4,,10
 1490      00000000 
 1490      00
 1491              		.p2align 3
 1492              	.L182:
 1493              		.cfi_restore_state
 271:fltk-1.3.4-1/png/pngpread.c **** 
 1494              		.loc 1 271 7 is_stmt 1 view .LVU457
 1495 0210 4C89E6   		movq	%r12, %rsi
 1496 0213 4889EF   		movq	%rbp, %rdi
 1497 0216 E8000000 		call	png_handle_unknown@PLT
 1497      00
 1498              	.LVL124:
 273:fltk-1.3.4-1/png/pngpread.c ****          png_ptr->mode |= PNG_HAVE_PLTE;
 1499              		.loc 1 273 7 view .LVU458
 274:fltk-1.3.4-1/png/pngpread.c ****    }
 1500              		.loc 1 274 24 is_stmt 0 view .LVU459
 1501 021b 8B852C01 		movl	300(%rbp), %eax
 1501      0000
 273:fltk-1.3.4-1/png/pngpread.c ****          png_ptr->mode |= PNG_HAVE_PLTE;
 1502              		.loc 1 273 10 view .LVU460
 1503 0221 81FB4554 		cmpl	$1347179589, %ebx
 1503      4C50
 1504 0227 0F850CFF 		jne	.L135
 1504      FFFF
 274:fltk-1.3.4-1/png/pngpread.c ****    }
 1505              		.loc 1 274 10 is_stmt 1 view .LVU461
 274:fltk-1.3.4-1/png/pngpread.c ****    }
 1506              		.loc 1 274 24 is_stmt 0 view .LVU462
 1507 022d 83C802   		orl	$2, %eax
 1508 0230 E904FFFF 		jmp	.L135
 1508      FF
 1509              		.p2align 4,,10
 1510 0235 0F1F00   		.p2align 3
 1511              	.L136:
 258:fltk-1.3.4-1/png/pngpread.c ****    {
 1512              		.loc 1 258 9 is_stmt 1 view .LVU463
 268:fltk-1.3.4-1/png/pngpread.c ****    {
 1513              		.loc 1 268 9 view .LVU464
 268:fltk-1.3.4-1/png/pngpread.c ****    {
 1514              		.loc 1 268 21 is_stmt 0 view .LVU465
 1515 0238 89DE     		movl	%ebx, %esi
 1516 023a 4889EF   		movq	%rbp, %rdi
 1517 023d E8000000 		call	png_chunk_unknown_handling@PLT
 1517      00
 1518              	.LVL125:
 1519 0242 89C1     		movl	%eax, %ecx
 1520              	.LVL126:
 268:fltk-1.3.4-1/png/pngpread.c ****    {
 1521              		.loc 1 268 12 view .LVU466
 1522 0244 85C0     		testl	%eax, %eax
 1523 0246 7582     		jne	.L160
 278:fltk-1.3.4-1/png/pngpread.c ****    {
 1524              		.loc 1 278 9 is_stmt 1 view .LVU467
 1525 0248 8B955803 		movl	856(%rbp), %edx
 1525      0000
 278:fltk-1.3.4-1/png/pngpread.c ****    {
 1526              		.loc 1 278 12 is_stmt 0 view .LVU468
 1527 024e 81FB4554 		cmpl	$1347179589, %ebx
 1527      4C50
 1528 0254 0F840601 		je	.L184
 1528      0000
 284:fltk-1.3.4-1/png/pngpread.c ****    {
 1529              		.loc 1 284 9 is_stmt 1 view .LVU469
 297:fltk-1.3.4-1/png/pngpread.c ****    {
 1530              		.loc 1 297 9 view .LVU470
 297:fltk-1.3.4-1/png/pngpread.c ****    {
 1531              		.loc 1 297 20 is_stmt 0 view .LVU471
 1532 025a 8B851802 		movl	536(%rbp), %eax
 1532      0000
 1533              	.LVL127:
 297:fltk-1.3.4-1/png/pngpread.c ****    {
 1534              		.loc 1 297 20 view .LVU472
 1535 0260 488B8D70 		movq	880(%rbp), %rcx
 1535      030000
 1536              	.LVL128:
 297:fltk-1.3.4-1/png/pngpread.c ****    {
 1537              		.loc 1 297 20 view .LVU473
 1538 0267 8D7204   		leal	4(%rdx), %esi
 297:fltk-1.3.4-1/png/pngpread.c ****    {
 1539              		.loc 1 297 12 view .LVU474
 1540 026a 3D414D41 		cmpl	$1732332865, %eax
 1540      67
 1541 026f 0F841B01 		je	.L185
 1541      0000
 305:fltk-1.3.4-1/png/pngpread.c ****    {
 1542              		.loc 1 305 9 is_stmt 1 view .LVU475
 305:fltk-1.3.4-1/png/pngpread.c ****    {
 1543              		.loc 1 305 12 is_stmt 0 view .LVU476
 1544 0275 3D544942 		cmpl	$1933723988, %eax
 1544      73
 1545 027a 0F849801 		je	.L186
 1545      0000
 313:fltk-1.3.4-1/png/pngpread.c ****    {
 1546              		.loc 1 313 9 is_stmt 1 view .LVU477
 313:fltk-1.3.4-1/png/pngpread.c ****    {
 1547              		.loc 1 313 12 is_stmt 0 view .LVU478
 1548 0280 3D4D5248 		cmpl	$1665684045, %eax
 1548      63
 1549 0285 0F84AC01 		je	.L187
 1549      0000
 321:fltk-1.3.4-1/png/pngpread.c ****    {
 1550              		.loc 1 321 9 is_stmt 1 view .LVU479
 321:fltk-1.3.4-1/png/pngpread.c ****    {
 1551              		.loc 1 321 12 is_stmt 0 view .LVU480
 1552 028b 81FB4247 		cmpl	$1934772034, %ebx
 1552      5273
 1553 0291 0F84D001 		je	.L188
 1553      0000
 329:fltk-1.3.4-1/png/pngpread.c ****    {
 1554              		.loc 1 329 9 is_stmt 1 view .LVU481
 329:fltk-1.3.4-1/png/pngpread.c ****    {
 1555              		.loc 1 329 12 is_stmt 0 view .LVU482
 1556 0297 3D504343 		cmpl	$1766015824, %eax
 1556      69
 1557 029c 0F84E401 		je	.L189
 1557      0000
 337:fltk-1.3.4-1/png/pngpread.c ****    {
 1558              		.loc 1 337 9 is_stmt 1 view .LVU483
 337:fltk-1.3.4-1/png/pngpread.c ****    {
 1559              		.loc 1 337 12 is_stmt 0 view .LVU484
 1560 02a2 81FB544C 		cmpl	$1934642260, %ebx
 1560      5073
 1561 02a8 0F84F701 		je	.L190
 1561      0000
 345:fltk-1.3.4-1/png/pngpread.c ****    {
 1562              		.loc 1 345 9 is_stmt 1 view .LVU485
 345:fltk-1.3.4-1/png/pngpread.c ****    {
 1563              		.loc 1 345 12 is_stmt 0 view .LVU486
 1564 02ae 81FB534E 		cmpl	$1951551059, %ebx
 1564      5274
 1565 02b4 0F840A02 		je	.L191
 1565      0000
 353:fltk-1.3.4-1/png/pngpread.c ****    {
 1566              		.loc 1 353 9 is_stmt 1 view .LVU487
 353:fltk-1.3.4-1/png/pngpread.c ****    {
 1567              		.loc 1 353 12 is_stmt 0 view .LVU488
 1568 02ba 81FB4447 		cmpl	$1649100612, %ebx
 1568      4B62
 1569 02c0 0F841D02 		je	.L192
 1569      0000
 361:fltk-1.3.4-1/png/pngpread.c ****    {
 1570              		.loc 1 361 9 is_stmt 1 view .LVU489
 361:fltk-1.3.4-1/png/pngpread.c ****    {
 1571              		.loc 1 361 12 is_stmt 0 view .LVU490
 1572 02c6 81FB5453 		cmpl	$1749635924, %ebx
 1572      4968
 1573 02cc 0F843002 		je	.L193
 1573      0000
 369:fltk-1.3.4-1/png/pngpread.c ****    {
 1574              		.loc 1 369 9 is_stmt 1 view .LVU491
 369:fltk-1.3.4-1/png/pngpread.c ****    {
 1575              		.loc 1 369 12 is_stmt 0 view .LVU492
 1576 02d2 81FB7359 		cmpl	$1883789683, %ebx
 1576      4870
 1577 02d8 0F844302 		je	.L194
 1577      0000
 377:fltk-1.3.4-1/png/pngpread.c ****    {
 1578              		.loc 1 377 9 is_stmt 1 view .LVU493
 377:fltk-1.3.4-1/png/pngpread.c ****    {
 1579              		.loc 1 377 12 is_stmt 0 view .LVU494
 1580 02de 81FB7346 		cmpl	$1866876531, %ebx
 1580      466F
 1581 02e4 0F845602 		je	.L195
 1581      0000
 385:fltk-1.3.4-1/png/pngpread.c ****    {
 1582              		.loc 1 385 9 is_stmt 1 view .LVU495
 385:fltk-1.3.4-1/png/pngpread.c ****    {
 1583              		.loc 1 385 12 is_stmt 0 view .LVU496
 1584 02ea 81FB4C41 		cmpl	$1883455820, %ebx
 1584      4370
 1585 02f0 0F846E02 		je	.L196
 1585      0000
 393:fltk-1.3.4-1/png/pngpread.c ****    {
 1586              		.loc 1 393 9 is_stmt 1 view .LVU497
 393:fltk-1.3.4-1/png/pngpread.c ****    {
 1587              		.loc 1 393 12 is_stmt 0 view .LVU498
 1588 02f6 81FB4C41 		cmpl	$1933787468, %ebx
 1588      4373
 1589 02fc 0F848102 		je	.L197
 1589      0000
 401:fltk-1.3.4-1/png/pngpread.c ****    {
 1590              		.loc 1 401 9 is_stmt 1 view .LVU499
 401:fltk-1.3.4-1/png/pngpread.c ****    {
 1591              		.loc 1 401 12 is_stmt 0 view .LVU500
 1592 0302 81FB454D 		cmpl	$1950960965, %ebx
 1592      4974
 1593 0308 0F849402 		je	.L198
 1593      0000
 409:fltk-1.3.4-1/png/pngpread.c ****    {
 1594              		.loc 1 409 9 is_stmt 1 view .LVU501
 409:fltk-1.3.4-1/png/pngpread.c ****    {
 1595              		.loc 1 409 12 is_stmt 0 view .LVU502
 1596 030e 81FB7458 		cmpl	$1950701684, %ebx
 1596      4574
 1597 0314 0F84A702 		je	.L199
 1597      0000
 417:fltk-1.3.4-1/png/pngpread.c ****    {
 1598              		.loc 1 417 9 is_stmt 1 view .LVU503
 417:fltk-1.3.4-1/png/pngpread.c ****    {
 1599              		.loc 1 417 12 is_stmt 0 view .LVU504
 1600 031a 81FB7458 		cmpl	$2052348020, %ebx
 1600      547A
 1601 0320 0F84E702 		je	.L200
 1601      0000
 425:fltk-1.3.4-1/png/pngpread.c ****    {
 1602              		.loc 1 425 9 is_stmt 1 view .LVU505
 425:fltk-1.3.4-1/png/pngpread.c ****    {
 1603              		.loc 1 425 12 is_stmt 0 view .LVU506
 1604 0326 81FB7458 		cmpl	$1767135348, %ebx
 1604      5469
 1605 032c 0F84FA02 		je	.L201
 1605      0000
 434:fltk-1.3.4-1/png/pngpread.c ****       png_handle_unknown(png_ptr, info_ptr, png_ptr->push_length,
 1606              		.loc 1 434 7 is_stmt 1 view .LVU507
 1607 0332 4839CE   		cmpq	%rcx, %rsi
 1608 0335 0F87A5FE 		ja	.L137
 1608      FFFF
 435:fltk-1.3.4-1/png/pngpread.c ****          PNG_HANDLE_CHUNK_AS_DEFAULT);
 1609              		.loc 1 435 7 view .LVU508
 1610 033b 31C9     		xorl	%ecx, %ecx
 1611 033d 4C89E6   		movq	%r12, %rsi
 1612 0340 4889EF   		movq	%rbp, %rdi
 1613 0343 E8000000 		call	png_handle_unknown@PLT
 1613      00
 1614              	.LVL129:
 1615 0348 0F1F8400 		.p2align 4,,10
 1615      00000000 
 1616              		.p2align 3
 1617              	.L175:
 435:fltk-1.3.4-1/png/pngpread.c ****          PNG_HANDLE_CHUNK_AS_DEFAULT);
 1618              		.loc 1 435 7 is_stmt 0 view .LVU509
 1619 0350 8B852C01 		movl	300(%rbp), %eax
 1619      0000
 1620 0356 E9DEFDFF 		jmp	.L135
 1620      FF
 1621              	.LVL130:
 1622 035b 0F1F4400 		.p2align 4,,10
 1622      00
 1623              		.p2align 3
 1624              	.L184:
 280:fltk-1.3.4-1/png/pngpread.c ****       png_handle_PLTE(png_ptr, info_ptr, png_ptr->push_length);
 1625              		.loc 1 280 7 is_stmt 1 view .LVU510
 1626 0360 8D4204   		leal	4(%rdx), %eax
 1627              	.LVL131:
 280:fltk-1.3.4-1/png/pngpread.c ****       png_handle_PLTE(png_ptr, info_ptr, png_ptr->push_length);
 1628              		.loc 1 280 7 is_stmt 0 view .LVU511
 1629 0363 483B8570 		cmpq	880(%rbp), %rax
 1629      030000
 1630 036a 0F8770FE 		ja	.L137
 1630      FFFF
 281:fltk-1.3.4-1/png/pngpread.c ****    }
 1631              		.loc 1 281 7 is_stmt 1 view .LVU512
 1632 0370 4C89E6   		movq	%r12, %rsi
 1633 0373 4889EF   		movq	%rbp, %rdi
 1634 0376 E8000000 		call	png_handle_PLTE@PLT
 1634      00
 1635              	.LVL132:
 281:fltk-1.3.4-1/png/pngpread.c ****    }
 1636              		.loc 1 281 7 is_stmt 0 view .LVU513
 1637 037b 8B852C01 		movl	300(%rbp), %eax
 1637      0000
 1638 0381 E9B3FDFF 		jmp	.L135
 1638      FF
 1639 0386 662E0F1F 		.p2align 4,,10
 1639      84000000 
 1639      0000
 1640              		.p2align 3
 1641              	.L185:
 299:fltk-1.3.4-1/png/pngpread.c ****       png_handle_gAMA(png_ptr, info_ptr, png_ptr->push_length);
 1642              		.loc 1 299 7 is_stmt 1 view .LVU514
 1643 0390 4839CE   		cmpq	%rcx, %rsi
 1644 0393 0F8747FE 		ja	.L137
 1644      FFFF
 300:fltk-1.3.4-1/png/pngpread.c ****    }
 1645              		.loc 1 300 7 view .LVU515
 1646 0399 4C89E6   		movq	%r12, %rsi
 1647 039c 4889EF   		movq	%rbp, %rdi
 1648 039f E8000000 		call	png_handle_gAMA@PLT
 1648      00
 1649              	.LVL133:
 1650 03a4 8B852C01 		movl	300(%rbp), %eax
 1650      0000
 1651 03aa E98AFDFF 		jmp	.L135
 1651      FF
 1652              	.LVL134:
 1653 03af 90       		.p2align 4,,10
 1654              		.p2align 3
 1655              	.L181:
 278:fltk-1.3.4-1/png/pngpread.c ****    {
 1656              		.loc 1 278 9 view .LVU516
 286:fltk-1.3.4-1/png/pngpread.c ****       png_ptr->process_mode = PNG_READ_IDAT_MODE;
 1657              		.loc 1 286 7 view .LVU517
 287:fltk-1.3.4-1/png/pngpread.c ****       png_push_have_info(png_ptr, info_ptr);
 1658              		.loc 1 287 29 is_stmt 0 view .LVU518
 1659 03b0 C7858003 		movl	$2, 896(%rbp)
 1659      00000200 
 1659      0000
 286:fltk-1.3.4-1/png/pngpread.c ****       png_ptr->process_mode = PNG_READ_IDAT_MODE;
 1660              		.loc 1 286 26 view .LVU519
 1661 03ba 8B855803 		movl	856(%rbp), %eax
 1661      0000
 1662              	.LVL135:
 286:fltk-1.3.4-1/png/pngpread.c ****       png_ptr->process_mode = PNG_READ_IDAT_MODE;
 1663              		.loc 1 286 26 view .LVU520
 1664 03c0 89855802 		movl	%eax, 600(%rbp)
 1664      0000
 287:fltk-1.3.4-1/png/pngpread.c ****       png_push_have_info(png_ptr, info_ptr);
 1665              		.loc 1 287 7 is_stmt 1 view .LVU521
 288:fltk-1.3.4-1/png/pngpread.c ****       png_ptr->zstream.avail_out =
 1666              		.loc 1 288 7 view .LVU522
 1667              	.LVL136:
 1668              	.LBB163:
 1669              	.LBI163:
1109:fltk-1.3.4-1/png/pngpread.c **** {
 1670              		.loc 1 1109 1 view .LVU523
 1671              	.LBB164:
1111:fltk-1.3.4-1/png/pngpread.c ****       (*(png_ptr->info_fn))(png_ptr, info_ptr);
 1672              		.loc 1 1111 4 view .LVU524
1111:fltk-1.3.4-1/png/pngpread.c ****       (*(png_ptr->info_fn))(png_ptr, info_ptr);
 1673              		.loc 1 1111 15 is_stmt 0 view .LVU525
 1674 03c6 488B8520 		movq	800(%rbp), %rax
 1674      030000
1111:fltk-1.3.4-1/png/pngpread.c ****       (*(png_ptr->info_fn))(png_ptr, info_ptr);
 1675              		.loc 1 1111 7 view .LVU526
 1676 03cd 4885C0   		testq	%rax, %rax
 1677 03d0 7408     		je	.L163
1112:fltk-1.3.4-1/png/pngpread.c **** }
 1678              		.loc 1 1112 7 is_stmt 1 view .LVU527
1112:fltk-1.3.4-1/png/pngpread.c **** }
 1679              		.loc 1 1112 8 is_stmt 0 view .LVU528
 1680 03d2 4C89E6   		movq	%r12, %rsi
 1681 03d5 4889EF   		movq	%rbp, %rdi
 1682 03d8 FFD0     		call	*%rax
 1683              	.LVL137:
 1684              	.L163:
1112:fltk-1.3.4-1/png/pngpread.c **** }
 1685              		.loc 1 1112 8 view .LVU529
 1686              	.LBE164:
 1687              	.LBE163:
 289:fltk-1.3.4-1/png/pngpread.c ****           (uInt) PNG_ROWBYTES(png_ptr->pixel_depth,
 1688              		.loc 1 289 7 is_stmt 1 view .LVU530
 290:fltk-1.3.4-1/png/pngpread.c ****           png_ptr->iwidth) + 1;
 1689              		.loc 1 290 18 is_stmt 0 view .LVU531
 1690 03da 0FB6957A 		movzbl	634(%rbp), %edx
 1690      020000
 1691 03e1 8B851002 		movl	528(%rbp), %eax
 1691      0000
 291:fltk-1.3.4-1/png/pngpread.c ****       png_ptr->zstream.next_out = png_ptr->row_buf;
 1692              		.loc 1 291 28 view .LVU532
 1693 03e7 80FA07   		cmpb	$7, %dl
 1694 03ea 766A     		jbe	.L141
 290:fltk-1.3.4-1/png/pngpread.c ****           png_ptr->iwidth) + 1;
 1695              		.loc 1 290 18 discriminator 1 view .LVU533
 1696 03ec C0EA03   		shrb	$3, %dl
 1697 03ef 0FB6D2   		movzbl	%dl, %edx
 1698 03f2 0FAFC2   		imull	%edx, %eax
 291:fltk-1.3.4-1/png/pngpread.c ****       png_ptr->zstream.next_out = png_ptr->row_buf;
 1699              		.loc 1 291 28 discriminator 1 view .LVU534
 1700 03f5 83C001   		addl	$1, %eax
 1701              	.L142:
 289:fltk-1.3.4-1/png/pngpread.c ****           (uInt) PNG_ROWBYTES(png_ptr->pixel_depth,
 1702              		.loc 1 289 34 view .LVU535
 1703 03f8 89856001 		movl	%eax, 352(%rbp)
 1703      0000
 292:fltk-1.3.4-1/png/pngpread.c ****       return;
 1704              		.loc 1 292 7 is_stmt 1 view .LVU536
 292:fltk-1.3.4-1/png/pngpread.c ****       return;
 1705              		.loc 1 292 33 is_stmt 0 view .LVU537
 1706 03fe 488B8528 		movq	552(%rbp), %rax
 1706      020000
 1707 0405 48898558 		movq	%rax, 344(%rbp)
 1707      010000
 293:fltk-1.3.4-1/png/pngpread.c ****    }
 1708              		.loc 1 293 7 is_stmt 1 view .LVU538
 1709 040c E9D7FDFF 		jmp	.L122
 1709      FF
 1710              		.p2align 4,,10
 1711 0411 0F1F8000 		.p2align 3
 1711      000000
 1712              	.L186:
 307:fltk-1.3.4-1/png/pngpread.c ****       png_handle_sBIT(png_ptr, info_ptr, png_ptr->push_length);
 1713              		.loc 1 307 7 view .LVU539
 1714 0418 4839CE   		cmpq	%rcx, %rsi
 1715 041b 0F87BFFD 		ja	.L137
 1715      FFFF
 308:fltk-1.3.4-1/png/pngpread.c ****    }
 1716              		.loc 1 308 7 view .LVU540
 1717 0421 4C89E6   		movq	%r12, %rsi
 1718 0424 4889EF   		movq	%rbp, %rdi
 1719 0427 E8000000 		call	png_handle_sBIT@PLT
 1719      00
 1720              	.LVL138:
 1721 042c 8B852C01 		movl	300(%rbp), %eax
 1721      0000
 1722 0432 E902FDFF 		jmp	.L135
 1722      FF
 1723              	.L187:
 315:fltk-1.3.4-1/png/pngpread.c ****       png_handle_cHRM(png_ptr, info_ptr, png_ptr->push_length);
 1724              		.loc 1 315 7 view .LVU541
 1725 0437 4839CE   		cmpq	%rcx, %rsi
 1726 043a 0F87A0FD 		ja	.L137
 1726      FFFF
 316:fltk-1.3.4-1/png/pngpread.c ****    }
 1727              		.loc 1 316 7 view .LVU542
 1728 0440 4C89E6   		movq	%r12, %rsi
 1729 0443 4889EF   		movq	%rbp, %rdi
 1730 0446 E8000000 		call	png_handle_cHRM@PLT
 1730      00
 1731              	.LVL139:
 1732 044b 8B852C01 		movl	300(%rbp), %eax
 1732      0000
 1733 0451 E9E3FCFF 		jmp	.L135
 1733      FF
 1734              	.L141:
 290:fltk-1.3.4-1/png/pngpread.c ****           png_ptr->iwidth) + 1;
 1735              		.loc 1 290 18 is_stmt 0 discriminator 2 view .LVU543
 1736 0456 480FAFC2 		imulq	%rdx, %rax
 1737 045a 4883C007 		addq	$7, %rax
 1738 045e 48C1E803 		shrq	$3, %rax
 291:fltk-1.3.4-1/png/pngpread.c ****       png_ptr->zstream.next_out = png_ptr->row_buf;
 1739              		.loc 1 291 28 discriminator 2 view .LVU544
 1740 0462 83C001   		addl	$1, %eax
 1741 0465 EB91     		jmp	.L142
 1742              	.L188:
 323:fltk-1.3.4-1/png/pngpread.c ****       png_handle_sRGB(png_ptr, info_ptr, png_ptr->push_length);
 1743              		.loc 1 323 7 is_stmt 1 view .LVU545
 1744 0467 4839CE   		cmpq	%rcx, %rsi
 1745 046a 0F8770FD 		ja	.L137
 1745      FFFF
 324:fltk-1.3.4-1/png/pngpread.c ****    }
 1746              		.loc 1 324 7 view .LVU546
 1747 0470 4C89E6   		movq	%r12, %rsi
 1748 0473 4889EF   		movq	%rbp, %rdi
 1749 0476 E8000000 		call	png_handle_sRGB@PLT
 1749      00
 1750              	.LVL140:
 1751 047b 8B852C01 		movl	300(%rbp), %eax
 1751      0000
 1752 0481 E9B3FCFF 		jmp	.L135
 1752      FF
 1753              	.L189:
 331:fltk-1.3.4-1/png/pngpread.c ****       png_handle_iCCP(png_ptr, info_ptr, png_ptr->push_length);
 1754              		.loc 1 331 7 view .LVU547
 1755 0486 4839CE   		cmpq	%rcx, %rsi
 1756 0489 0F8751FD 		ja	.L137
 1756      FFFF
 332:fltk-1.3.4-1/png/pngpread.c ****    }
 1757              		.loc 1 332 7 view .LVU548
 1758 048f 4C89E6   		movq	%r12, %rsi
 1759 0492 4889EF   		movq	%rbp, %rdi
 1760 0495 E8000000 		call	png_handle_iCCP@PLT
 1760      00
 1761              	.LVL141:
 1762 049a 8B852C01 		movl	300(%rbp), %eax
 1762      0000
 1763 04a0 E994FCFF 		jmp	.L135
 1763      FF
 1764              	.L190:
 339:fltk-1.3.4-1/png/pngpread.c ****       png_handle_sPLT(png_ptr, info_ptr, png_ptr->push_length);
 1765              		.loc 1 339 7 view .LVU549
 1766 04a5 4839CE   		cmpq	%rcx, %rsi
 1767 04a8 0F8732FD 		ja	.L137
 1767      FFFF
 340:fltk-1.3.4-1/png/pngpread.c ****    }
 1768              		.loc 1 340 7 view .LVU550
 1769 04ae 4C89E6   		movq	%r12, %rsi
 1770 04b1 4889EF   		movq	%rbp, %rdi
 1771 04b4 E8000000 		call	png_handle_sPLT@PLT
 1771      00
 1772              	.LVL142:
 1773 04b9 8B852C01 		movl	300(%rbp), %eax
 1773      0000
 1774 04bf E975FCFF 		jmp	.L135
 1774      FF
 1775              	.L191:
 347:fltk-1.3.4-1/png/pngpread.c ****       png_handle_tRNS(png_ptr, info_ptr, png_ptr->push_length);
 1776              		.loc 1 347 7 view .LVU551
 1777 04c4 4839CE   		cmpq	%rcx, %rsi
 1778 04c7 0F8713FD 		ja	.L137
 1778      FFFF
 348:fltk-1.3.4-1/png/pngpread.c ****    }
 1779              		.loc 1 348 7 view .LVU552
 1780 04cd 4C89E6   		movq	%r12, %rsi
 1781 04d0 4889EF   		movq	%rbp, %rdi
 1782 04d3 E8000000 		call	png_handle_tRNS@PLT
 1782      00
 1783              	.LVL143:
 1784 04d8 8B852C01 		movl	300(%rbp), %eax
 1784      0000
 1785 04de E956FCFF 		jmp	.L135
 1785      FF
 1786              	.L192:
 355:fltk-1.3.4-1/png/pngpread.c ****       png_handle_bKGD(png_ptr, info_ptr, png_ptr->push_length);
 1787              		.loc 1 355 7 view .LVU553
 1788 04e3 4839CE   		cmpq	%rcx, %rsi
 1789 04e6 0F87F4FC 		ja	.L137
 1789      FFFF
 356:fltk-1.3.4-1/png/pngpread.c ****    }
 1790              		.loc 1 356 7 view .LVU554
 1791 04ec 4C89E6   		movq	%r12, %rsi
 1792 04ef 4889EF   		movq	%rbp, %rdi
 1793 04f2 E8000000 		call	png_handle_bKGD@PLT
 1793      00
 1794              	.LVL144:
 1795 04f7 8B852C01 		movl	300(%rbp), %eax
 1795      0000
 1796 04fd E937FCFF 		jmp	.L135
 1796      FF
 1797              	.L193:
 363:fltk-1.3.4-1/png/pngpread.c ****       png_handle_hIST(png_ptr, info_ptr, png_ptr->push_length);
 1798              		.loc 1 363 7 view .LVU555
 1799 0502 4839CE   		cmpq	%rcx, %rsi
 1800 0505 0F87D5FC 		ja	.L137
 1800      FFFF
 364:fltk-1.3.4-1/png/pngpread.c ****    }
 1801              		.loc 1 364 7 view .LVU556
 1802 050b 4C89E6   		movq	%r12, %rsi
 1803 050e 4889EF   		movq	%rbp, %rdi
 1804 0511 E8000000 		call	png_handle_hIST@PLT
 1804      00
 1805              	.LVL145:
 1806 0516 8B852C01 		movl	300(%rbp), %eax
 1806      0000
 1807 051c E918FCFF 		jmp	.L135
 1807      FF
 1808              	.L194:
 371:fltk-1.3.4-1/png/pngpread.c ****       png_handle_pHYs(png_ptr, info_ptr, png_ptr->push_length);
 1809              		.loc 1 371 7 view .LVU557
 1810 0521 4839CE   		cmpq	%rcx, %rsi
 1811 0524 0F87B6FC 		ja	.L137
 1811      FFFF
 372:fltk-1.3.4-1/png/pngpread.c ****    }
 1812              		.loc 1 372 7 view .LVU558
 1813 052a 4C89E6   		movq	%r12, %rsi
 1814 052d 4889EF   		movq	%rbp, %rdi
 1815 0530 E8000000 		call	png_handle_pHYs@PLT
 1815      00
 1816              	.LVL146:
 1817 0535 8B852C01 		movl	300(%rbp), %eax
 1817      0000
 1818 053b E9F9FBFF 		jmp	.L135
 1818      FF
 1819              	.L195:
 379:fltk-1.3.4-1/png/pngpread.c ****       png_handle_oFFs(png_ptr, info_ptr, png_ptr->push_length);
 1820              		.loc 1 379 7 view .LVU559
 1821 0540 4839CE   		cmpq	%rcx, %rsi
 1822 0543 0F8797FC 		ja	.L137
 1822      FFFF
 380:fltk-1.3.4-1/png/pngpread.c ****    }
 1823              		.loc 1 380 7 view .LVU560
 1824 0549 4C89E6   		movq	%r12, %rsi
 1825 054c 4889EF   		movq	%rbp, %rdi
 1826 054f E8000000 		call	png_handle_oFFs@PLT
 1826      00
 1827              	.LVL147:
 1828 0554 8B852C01 		movl	300(%rbp), %eax
 1828      0000
 1829 055a E9DAFBFF 		jmp	.L135
 1829      FF
 1830              	.LVL148:
 1831              	.L183:
 440:fltk-1.3.4-1/png/pngpread.c **** 
 1832              		.loc 1 440 1 is_stmt 0 view .LVU561
 1833 055f E8000000 		call	__stack_chk_fail@PLT
 1833      00
 1834              	.LVL149:
 1835              	.L196:
 387:fltk-1.3.4-1/png/pngpread.c ****       png_handle_pCAL(png_ptr, info_ptr, png_ptr->push_length);
 1836              		.loc 1 387 7 is_stmt 1 view .LVU562
 1837 0564 4839CE   		cmpq	%rcx, %rsi
 1838 0567 0F8773FC 		ja	.L137
 1838      FFFF
 388:fltk-1.3.4-1/png/pngpread.c ****    }
 1839              		.loc 1 388 7 view .LVU563
 1840 056d 4C89E6   		movq	%r12, %rsi
 1841 0570 4889EF   		movq	%rbp, %rdi
 1842 0573 E8000000 		call	png_handle_pCAL@PLT
 1842      00
 1843              	.LVL150:
 1844 0578 8B852C01 		movl	300(%rbp), %eax
 1844      0000
 1845 057e E9B6FBFF 		jmp	.L135
 1845      FF
 1846              	.L197:
 395:fltk-1.3.4-1/png/pngpread.c ****       png_handle_sCAL(png_ptr, info_ptr, png_ptr->push_length);
 1847              		.loc 1 395 7 view .LVU564
 1848 0583 4839CE   		cmpq	%rcx, %rsi
 1849 0586 0F8754FC 		ja	.L137
 1849      FFFF
 396:fltk-1.3.4-1/png/pngpread.c ****    }
 1850              		.loc 1 396 7 view .LVU565
 1851 058c 4C89E6   		movq	%r12, %rsi
 1852 058f 4889EF   		movq	%rbp, %rdi
 1853 0592 E8000000 		call	png_handle_sCAL@PLT
 1853      00
 1854              	.LVL151:
 1855 0597 8B852C01 		movl	300(%rbp), %eax
 1855      0000
 1856 059d E997FBFF 		jmp	.L135
 1856      FF
 1857              	.L198:
 403:fltk-1.3.4-1/png/pngpread.c ****       png_handle_tIME(png_ptr, info_ptr, png_ptr->push_length);
 1858              		.loc 1 403 7 view .LVU566
 1859 05a2 4839CE   		cmpq	%rcx, %rsi
 1860 05a5 0F8735FC 		ja	.L137
 1860      FFFF
 404:fltk-1.3.4-1/png/pngpread.c ****    }
 1861              		.loc 1 404 7 view .LVU567
 1862 05ab 4C89E6   		movq	%r12, %rsi
 1863 05ae 4889EF   		movq	%rbp, %rdi
 1864 05b1 E8000000 		call	png_handle_tIME@PLT
 1864      00
 1865              	.LVL152:
 1866 05b6 8B852C01 		movl	300(%rbp), %eax
 1866      0000
 1867 05bc E978FBFF 		jmp	.L135
 1867      FF
 1868              	.L199:
 411:fltk-1.3.4-1/png/pngpread.c ****       png_handle_tEXt(png_ptr, info_ptr, png_ptr->push_length);
 1869              		.loc 1 411 7 view .LVU568
 1870 05c1 4839CE   		cmpq	%rcx, %rsi
 1871 05c4 0F8716FC 		ja	.L137
 1871      FFFF
 412:fltk-1.3.4-1/png/pngpread.c ****    }
 1872              		.loc 1 412 7 view .LVU569
 1873 05ca 4C89E6   		movq	%r12, %rsi
 1874 05cd 4889EF   		movq	%rbp, %rdi
 1875 05d0 E8000000 		call	png_handle_tEXt@PLT
 1875      00
 1876              	.LVL153:
 1877 05d5 8B852C01 		movl	300(%rbp), %eax
 1877      0000
 1878 05db E959FBFF 		jmp	.L135
 1878      FF
 1879              	.L179:
 232:fltk-1.3.4-1/png/pngpread.c **** 
 1880              		.loc 1 232 10 view .LVU570
 1881 05e0 488D3500 		leaq	.LC6(%rip), %rsi
 1881      000000
 1882 05e7 4889EF   		movq	%rbp, %rdi
 1883 05ea E8000000 		call	png_error@PLT
 1883      00
 1884              	.LVL154:
 1885              	.L178:
 252:fltk-1.3.4-1/png/pngpread.c **** 
 1886              		.loc 1 252 10 view .LVU571
 1887 05ef 488D3500 		leaq	.LC9(%rip), %rsi
 1887      000000
 1888 05f6 4889EF   		movq	%rbp, %rdi
 1889 05f9 E8000000 		call	png_error@PLT
 1889      00
 1890              	.LVL155:
 1891              	.L180:
 236:fltk-1.3.4-1/png/pngpread.c **** 
 1892              		.loc 1 236 10 view .LVU572
 1893 05fe 488D3500 		leaq	.LC7(%rip), %rsi
 1893      000000
 1894 0605 4889EF   		movq	%rbp, %rdi
 1895 0608 E8000000 		call	png_error@PLT
 1895      00
 1896              	.LVL156:
 1897              	.L200:
 419:fltk-1.3.4-1/png/pngpread.c ****       png_handle_zTXt(png_ptr, info_ptr, png_ptr->push_length);
 1898              		.loc 1 419 7 view .LVU573
 1899 060d 4839CE   		cmpq	%rcx, %rsi
 1900 0610 0F87CAFB 		ja	.L137
 1900      FFFF
 420:fltk-1.3.4-1/png/pngpread.c ****    }
 1901              		.loc 1 420 7 view .LVU574
 1902 0616 4C89E6   		movq	%r12, %rsi
 1903 0619 4889EF   		movq	%rbp, %rdi
 1904 061c E8000000 		call	png_handle_zTXt@PLT
 1904      00
 1905              	.LVL157:
 1906 0621 8B852C01 		movl	300(%rbp), %eax
 1906      0000
 1907 0627 E90DFBFF 		jmp	.L135
 1907      FF
 1908              	.L201:
 427:fltk-1.3.4-1/png/pngpread.c ****       png_handle_iTXt(png_ptr, info_ptr, png_ptr->push_length);
 1909              		.loc 1 427 7 view .LVU575
 1910 062c 4839CE   		cmpq	%rcx, %rsi
 1911 062f 0F87ABFB 		ja	.L137
 1911      FFFF
 428:fltk-1.3.4-1/png/pngpread.c ****    }
 1912              		.loc 1 428 7 view .LVU576
 1913 0635 4C89E6   		movq	%r12, %rsi
 1914 0638 4889EF   		movq	%rbp, %rdi
 1915 063b E8000000 		call	png_handle_iTXt@PLT
 1915      00
 1916              	.LVL158:
 1917 0640 8B852C01 		movl	300(%rbp), %eax
 1917      0000
 1918 0646 E9EEFAFF 		jmp	.L135
 1918      FF
 1919              		.cfi_endproc
 1920              	.LFE46:
 1922              		.section	.text.png_push_restore_buffer,"ax",@progbits
 1923              		.p2align 4
 1924              		.globl	png_push_restore_buffer
 1926              	png_push_restore_buffer:
 1927              	.LVL159:
 1928              	.LFB51:
 610:fltk-1.3.4-1/png/pngpread.c ****    png_ptr->current_buffer = buffer;
 1929              		.loc 1 610 1 view -0
 1930              		.cfi_startproc
 610:fltk-1.3.4-1/png/pngpread.c ****    png_ptr->current_buffer = buffer;
 1931              		.loc 1 610 1 is_stmt 0 view .LVU578
 1932 0000 F30F1EFA 		endbr64
 611:fltk-1.3.4-1/png/pngpread.c ****    png_ptr->current_buffer_size = buffer_length;
 1933              		.loc 1 611 4 is_stmt 1 view .LVU579
 612:fltk-1.3.4-1/png/pngpread.c ****    png_ptr->buffer_size = buffer_length + png_ptr->save_buffer_size;
 1934              		.loc 1 612 33 is_stmt 0 view .LVU580
 1935 0004 48899778 		movq	%rdx, 888(%rdi)
 1935      030000
 613:fltk-1.3.4-1/png/pngpread.c ****    png_ptr->current_buffer_ptr = png_ptr->current_buffer;
 1936              		.loc 1 613 41 view .LVU581
 1937 000b 48039760 		addq	864(%rdi), %rdx
 1937      030000
 1938              	.LVL160:
 611:fltk-1.3.4-1/png/pngpread.c ****    png_ptr->current_buffer_size = buffer_length;
 1939              		.loc 1 611 28 view .LVU582
 1940 0012 4889B750 		movq	%rsi, 848(%rdi)
 1940      030000
 612:fltk-1.3.4-1/png/pngpread.c ****    png_ptr->buffer_size = buffer_length + png_ptr->save_buffer_size;
 1941              		.loc 1 612 4 is_stmt 1 view .LVU583
 613:fltk-1.3.4-1/png/pngpread.c ****    png_ptr->current_buffer_ptr = png_ptr->current_buffer;
 1942              		.loc 1 613 4 view .LVU584
 613:fltk-1.3.4-1/png/pngpread.c ****    png_ptr->current_buffer_ptr = png_ptr->current_buffer;
 1943              		.loc 1 613 25 is_stmt 0 view .LVU585
 1944 0019 48899770 		movq	%rdx, 880(%rdi)
 1944      030000
 614:fltk-1.3.4-1/png/pngpread.c **** }
 1945              		.loc 1 614 4 is_stmt 1 view .LVU586
 614:fltk-1.3.4-1/png/pngpread.c **** }
 1946              		.loc 1 614 32 is_stmt 0 view .LVU587
 1947 0020 4889B748 		movq	%rsi, 840(%rdi)
 1947      030000
 615:fltk-1.3.4-1/png/pngpread.c **** 
 1948              		.loc 1 615 1 view .LVU588
 1949 0027 C3       		ret
 1950              		.cfi_endproc
 1951              	.LFE51:
 1953              		.section	.rodata.png_push_process_row.str1.1,"aMS",@progbits,1
 1954              	.LC10:
 1955 0000 62616420 		.string	"bad adaptive filter value"
 1955      61646170 
 1955      74697665 
 1955      2066696C 
 1955      74657220 
 1956              	.LC11:
 1957 001a 70726F67 		.string	"progressive row overflow"
 1957      72657373 
 1957      69766520 
 1957      726F7720 
 1957      6F766572 
 1958              		.section	.rodata.png_push_process_row.str1.8,"aMS",@progbits,1
 1959              		.align 8
 1960              	.LC12:
 1961 0000 696E7465 		.string	"internal progressive row size calculation error"
 1961      726E616C 
 1961      2070726F 
 1961      67726573 
 1961      73697665 
 1962              		.section	.text.png_push_process_row,"ax",@progbits
 1963              		.p2align 4
 1964              		.globl	png_push_process_row
 1966              	png_push_process_row:
 1967              	.LVL161:
 1968              	.LFB54:
 818:fltk-1.3.4-1/png/pngpread.c ****    /* 1.5.6: row_info moved out of png_struct to a local here. */
 1969              		.loc 1 818 1 is_stmt 1 view -0
 1970              		.cfi_startproc
 818:fltk-1.3.4-1/png/pngpread.c ****    /* 1.5.6: row_info moved out of png_struct to a local here. */
 1971              		.loc 1 818 1 is_stmt 0 view .LVU590
 1972 0000 F30F1EFA 		endbr64
 1973 0004 55       		pushq	%rbp
 1974              		.cfi_def_cfa_offset 16
 1975              		.cfi_offset 6, -16
 1976 0005 4889FD   		movq	%rdi, %rbp
 1977 0008 53       		pushq	%rbx
 1978              		.cfi_def_cfa_offset 24
 1979              		.cfi_offset 3, -24
 1980 0009 4883EC28 		subq	$40, %rsp
 1981              		.cfi_def_cfa_offset 64
 825:fltk-1.3.4-1/png/pngpread.c ****    row_info.pixel_depth = png_ptr->pixel_depth;
 1982              		.loc 1 825 22 view .LVU591
 1983 000d 0FB78F7A 		movzwl	634(%rdi), %ecx
 1983      020000
 822:fltk-1.3.4-1/png/pngpread.c ****    row_info.color_type = png_ptr->color_type;
 1984              		.loc 1 822 28 view .LVU592
 1985 0014 8B971002 		movl	528(%rdi), %edx
 1985      0000
 818:fltk-1.3.4-1/png/pngpread.c ****    /* 1.5.6: row_info moved out of png_struct to a local here. */
 1986              		.loc 1 818 1 view .LVU593
 1987 001a 64488B04 		movq	%fs:40, %rax
 1987      25280000 
 1987      00
 1988 0023 48894424 		movq	%rax, 24(%rsp)
 1988      18
 1989 0028 31C0     		xorl	%eax, %eax
 820:fltk-1.3.4-1/png/pngpread.c **** 
 1990              		.loc 1 820 4 is_stmt 1 view .LVU594
 822:fltk-1.3.4-1/png/pngpread.c ****    row_info.color_type = png_ptr->color_type;
 1991              		.loc 1 822 4 view .LVU595
 823:fltk-1.3.4-1/png/pngpread.c ****    row_info.bit_depth = png_ptr->bit_depth;
 1992              		.loc 1 823 24 is_stmt 0 view .LVU596
 1993 002a 0FB78777 		movzwl	631(%rdi), %eax
 1993      020000
 825:fltk-1.3.4-1/png/pngpread.c ****    row_info.pixel_depth = png_ptr->pixel_depth;
 1994              		.loc 1 825 22 view .LVU597
 1995 0031 66C1C108 		rolw	$8, %cx
 822:fltk-1.3.4-1/png/pngpread.c ****    row_info.color_type = png_ptr->color_type;
 1996              		.loc 1 822 19 view .LVU598
 1997 0035 891424   		movl	%edx, (%rsp)
 823:fltk-1.3.4-1/png/pngpread.c ****    row_info.bit_depth = png_ptr->bit_depth;
 1998              		.loc 1 823 4 is_stmt 1 view .LVU599
 824:fltk-1.3.4-1/png/pngpread.c ****    row_info.channels = png_ptr->channels;
 1999              		.loc 1 824 4 view .LVU600
 823:fltk-1.3.4-1/png/pngpread.c ****    row_info.bit_depth = png_ptr->bit_depth;
 2000              		.loc 1 823 24 is_stmt 0 view .LVU601
 2001 0038 66894424 		movw	%ax, 16(%rsp)
 2001      10
 825:fltk-1.3.4-1/png/pngpread.c ****    row_info.pixel_depth = png_ptr->pixel_depth;
 2002              		.loc 1 825 4 is_stmt 1 view .LVU602
 826:fltk-1.3.4-1/png/pngpread.c ****    row_info.rowbytes = PNG_ROWBYTES(row_info.pixel_depth, row_info.width);
 2003              		.loc 1 826 4 view .LVU603
 826:fltk-1.3.4-1/png/pngpread.c ****    row_info.rowbytes = PNG_ROWBYTES(row_info.pixel_depth, row_info.width);
 2004              		.loc 1 826 34 is_stmt 0 view .LVU604
 2005 003d 0FB6877A 		movzbl	634(%rdi), %eax
 2005      020000
 825:fltk-1.3.4-1/png/pngpread.c ****    row_info.pixel_depth = png_ptr->pixel_depth;
 2006              		.loc 1 825 22 view .LVU605
 2007 0044 66894C24 		movw	%cx, 18(%rsp)
 2007      12
 827:fltk-1.3.4-1/png/pngpread.c **** 
 2008              		.loc 1 827 4 is_stmt 1 view .LVU606
 2009 0049 89D1     		movl	%edx, %ecx
 827:fltk-1.3.4-1/png/pngpread.c **** 
 2010              		.loc 1 827 24 is_stmt 0 view .LVU607
 2011 004b 3C07     		cmpb	$7, %al
 2012 004d 0F863D01 		jbe	.L204
 2012      0000
 827:fltk-1.3.4-1/png/pngpread.c **** 
 2013              		.loc 1 827 24 discriminator 1 view .LVU608
 2014 0053 C0E803   		shrb	$3, %al
 2015 0056 0FB6D0   		movzbl	%al, %edx
 2016 0059 480FAFD1 		imulq	%rcx, %rdx
 2017              	.L205:
 829:fltk-1.3.4-1/png/pngpread.c ****    {
 2018              		.loc 1 829 15 discriminator 4 view .LVU609
 2019 005d 488BB528 		movq	552(%rbp), %rsi
 2019      020000
 827:fltk-1.3.4-1/png/pngpread.c **** 
 2020              		.loc 1 827 22 discriminator 4 view .LVU610
 2021 0064 48895424 		movq	%rdx, 8(%rsp)
 2021      08
 829:fltk-1.3.4-1/png/pngpread.c ****    {
 2022              		.loc 1 829 4 is_stmt 1 discriminator 4 view .LVU611
 829:fltk-1.3.4-1/png/pngpread.c ****    {
 2023              		.loc 1 829 24 is_stmt 0 discriminator 4 view .LVU612
 2024 0069 440FB606 		movzbl	(%rsi), %r8d
 829:fltk-1.3.4-1/png/pngpread.c ****    {
 2025              		.loc 1 829 7 discriminator 4 view .LVU613
 2026 006d 4584C0   		testb	%r8b, %r8b
 2027 0070 7430     		je	.L206
 831:fltk-1.3.4-1/png/pngpread.c ****          png_read_filter_row(png_ptr, &row_info, png_ptr->row_buf + 1,
 2028              		.loc 1 831 7 is_stmt 1 view .LVU614
 831:fltk-1.3.4-1/png/pngpread.c ****          png_read_filter_row(png_ptr, &row_info, png_ptr->row_buf + 1,
 2029              		.loc 1 831 10 is_stmt 0 view .LVU615
 2030 0072 4180F804 		cmpb	$4, %r8b
 2031 0076 0F87D808 		ja	.L207
 2031      0000
 832:fltk-1.3.4-1/png/pngpread.c ****             png_ptr->prev_row + 1, png_ptr->row_buf[0]);
 2032              		.loc 1 832 10 is_stmt 1 view .LVU616
 833:fltk-1.3.4-1/png/pngpread.c ****       else
 2033              		.loc 1 833 31 is_stmt 0 view .LVU617
 2034 007c 488B8520 		movq	544(%rbp), %rax
 2034      020000
 832:fltk-1.3.4-1/png/pngpread.c ****             png_ptr->prev_row + 1, png_ptr->row_buf[0]);
 2035              		.loc 1 832 10 view .LVU618
 2036 0083 488D5601 		leaq	1(%rsi), %rdx
 2037 0087 4889EF   		movq	%rbp, %rdi
 2038              	.LVL162:
 832:fltk-1.3.4-1/png/pngpread.c ****             png_ptr->prev_row + 1, png_ptr->row_buf[0]);
 2039              		.loc 1 832 10 view .LVU619
 2040 008a 4889E6   		movq	%rsp, %rsi
 833:fltk-1.3.4-1/png/pngpread.c ****       else
 2041              		.loc 1 833 31 view .LVU620
 2042 008d 488D4801 		leaq	1(%rax), %rcx
 832:fltk-1.3.4-1/png/pngpread.c ****             png_ptr->prev_row + 1, png_ptr->row_buf[0]);
 2043              		.loc 1 832 10 view .LVU621
 2044 0091 E8000000 		call	png_read_filter_row@PLT
 2044      00
 2045              	.LVL163:
 2046 0096 488B5424 		movq	8(%rsp), %rdx
 2046      08
 2047 009b 488BB528 		movq	552(%rbp), %rsi
 2047      020000
 2048              	.L206:
 843:fltk-1.3.4-1/png/pngpread.c **** 
 2049              		.loc 1 843 4 is_stmt 1 view .LVU622
 2050              	.LVL164:
 2051              	.LBB165:
 2052              	.LBI165:
  31:/usr/include/x86_64-linux-gnu/bits/string_fortified.h **** 	       size_t __len))
 2053              		.loc 2 31 1 view .LVU623
 2054              	.LBB166:
  34:/usr/include/x86_64-linux-gnu/bits/string_fortified.h **** }
 2055              		.loc 2 34 3 view .LVU624
  34:/usr/include/x86_64-linux-gnu/bits/string_fortified.h **** }
 2056              		.loc 2 34 10 is_stmt 0 view .LVU625
 2057 00a2 488BBD20 		movq	544(%rbp), %rdi
 2057      020000
 2058              	.LBE166:
 2059              	.LBE165:
 843:fltk-1.3.4-1/png/pngpread.c **** 
 2060              		.loc 1 843 4 view .LVU626
 2061 00a9 4883C201 		addq	$1, %rdx
 2062              	.LVL165:
 2063              	.LBB168:
 2064              	.LBB167:
  34:/usr/include/x86_64-linux-gnu/bits/string_fortified.h **** }
 2065              		.loc 2 34 10 view .LVU627
 2066 00ad E8000000 		call	memcpy@PLT
 2066      00
 2067              	.LVL166:
  34:/usr/include/x86_64-linux-gnu/bits/string_fortified.h **** }
 2068              		.loc 2 34 10 view .LVU628
 2069              	.LBE167:
 2070              	.LBE168:
 846:fltk-1.3.4-1/png/pngpread.c ****       png_do_read_transformations(png_ptr, &row_info);
 2071              		.loc 1 846 4 is_stmt 1 view .LVU629
 846:fltk-1.3.4-1/png/pngpread.c ****       png_do_read_transformations(png_ptr, &row_info);
 2072              		.loc 1 846 7 is_stmt 0 view .LVU630
 2073 00b2 8B853401 		movl	308(%rbp), %eax
 2073      0000
 2074 00b8 85C0     		testl	%eax, %eax
 2075 00ba 0F85C001 		jne	.L399
 2075      0000
 2076              	.L208:
 851:fltk-1.3.4-1/png/pngpread.c ****    {
 2077              		.loc 1 851 4 is_stmt 1 view .LVU631
 851:fltk-1.3.4-1/png/pngpread.c ****    {
 2078              		.loc 1 851 15 is_stmt 0 view .LVU632
 2079 00c0 0FB6857F 		movzbl	639(%rbp), %eax
 2079      020000
 2080 00c7 0FB65424 		movzbl	19(%rsp), %edx
 2080      13
 851:fltk-1.3.4-1/png/pngpread.c ****    {
 2081              		.loc 1 851 7 view .LVU633
 2082 00cc 84C0     		testb	%al, %al
 2083 00ce 0F84D400 		je	.L400
 2083      0000
 858:fltk-1.3.4-1/png/pngpread.c ****       png_error(png_ptr, "internal progressive row size calculation error");
 2084              		.loc 1 858 9 is_stmt 1 view .LVU634
 858:fltk-1.3.4-1/png/pngpread.c ****       png_error(png_ptr, "internal progressive row size calculation error");
 2085              		.loc 1 858 12 is_stmt 0 view .LVU635
 2086 00d4 38D0     		cmpb	%dl, %al
 2087 00d6 0F858708 		jne	.L401
 2087      0000
 2088              	.L210:
 864:fltk-1.3.4-1/png/pngpread.c ****        (png_ptr->transformations & PNG_INTERLACE) != 0)
 2089              		.loc 1 864 4 is_stmt 1 view .LVU636
 2090 00dc 488B8528 		movq	552(%rbp), %rax
 2090      020000
 864:fltk-1.3.4-1/png/pngpread.c ****        (png_ptr->transformations & PNG_INTERLACE) != 0)
 2091              		.loc 1 864 7 is_stmt 0 view .LVU637
 2092 00e3 80BD7402 		cmpb	$0, 628(%rbp)
 2092      000000
 2093 00ea 488D7001 		leaq	1(%rax), %rsi
 2094 00ee 0F842C01 		je	.L211
 2094      0000
 865:fltk-1.3.4-1/png/pngpread.c ****    {
 2095              		.loc 1 865 16 discriminator 1 view .LVU638
 2096 00f4 8B8D3401 		movl	308(%rbp), %ecx
 2096      0000
 864:fltk-1.3.4-1/png/pngpread.c ****        (png_ptr->transformations & PNG_INTERLACE) != 0)
 2097              		.loc 1 864 33 discriminator 1 view .LVU639
 2098 00fa F6C102   		testb	$2, %cl
 2099 00fd 0F841D01 		je	.L211
 2099      0000
 867:fltk-1.3.4-1/png/pngpread.c ****          png_do_read_interlace(&row_info, png_ptr->row_buf + 1, png_ptr->pass,
 2100              		.loc 1 867 7 is_stmt 1 view .LVU640
 867:fltk-1.3.4-1/png/pngpread.c ****          png_do_read_interlace(&row_info, png_ptr->row_buf + 1, png_ptr->pass,
 2101              		.loc 1 867 18 is_stmt 0 view .LVU641
 2102 0103 440FB68D 		movzbl	629(%rbp), %r9d
 2102      75020000 
 867:fltk-1.3.4-1/png/pngpread.c ****          png_do_read_interlace(&row_info, png_ptr->row_buf + 1, png_ptr->pass,
 2103              		.loc 1 867 10 view .LVU642
 2104 010b 4180F905 		cmpb	$5, %r9b
 2105 010f 0F86BB00 		jbe	.L402
 2105      0000
 871:fltk-1.3.4-1/png/pngpread.c ****       {
 2106              		.loc 1 871 7 is_stmt 1 view .LVU643
 2107 0115 4C8B8528 		movq	808(%rbp), %r8
 2107      030000
 2108 011c 8B951402 		movl	532(%rbp), %edx
 2108      0000
 2109              	.L213:
1027:fltk-1.3.4-1/png/pngpread.c ****             png_read_push_finish_row(png_ptr);
 2110              		.loc 1 1027 13 view .LVU644
 2111              	.LVL167:
 2112              	.LBB169:
 2113              	.LBI169:
1120:fltk-1.3.4-1/png/pngpread.c **** }
1121:fltk-1.3.4-1/png/pngpread.c **** 
1122:fltk-1.3.4-1/png/pngpread.c **** void /* PRIVATE */
1123:fltk-1.3.4-1/png/pngpread.c **** png_push_have_row(png_structrp png_ptr, png_bytep row)
 2114              		.loc 1 1123 1 view .LVU645
 2115              	.LBB170:
1124:fltk-1.3.4-1/png/pngpread.c **** {
1125:fltk-1.3.4-1/png/pngpread.c ****    if (png_ptr->row_fn != NULL)
 2116              		.loc 1 1125 4 view .LVU646
 2117              		.loc 1 1125 7 is_stmt 0 view .LVU647
 2118 0122 4D85C0   		testq	%r8, %r8
 2119 0125 740F     		je	.L270
1126:fltk-1.3.4-1/png/pngpread.c ****       (*(png_ptr->row_fn))(png_ptr, row, png_ptr->row_number,
 2120              		.loc 1 1126 7 is_stmt 1 view .LVU648
 2121              		.loc 1 1126 8 is_stmt 0 view .LVU649
 2122 0127 4489C9   		movl	%r9d, %ecx
 2123 012a 4889EF   		movq	%rbp, %rdi
 2124 012d 41FFD0   		call	*%r8
 2125              	.LVL168:
 2126              		.loc 1 1126 8 view .LVU650
 2127 0130 8B951402 		movl	532(%rbp), %edx
 2127      0000
 2128              	.L270:
 2129              	.LVL169:
 2130              		.loc 1 1126 8 view .LVU651
 2131              	.LBE170:
 2132              	.LBE169:
1028:fltk-1.3.4-1/png/pngpread.c **** 
 2133              		.loc 1 1028 13 is_stmt 1 view .LVU652
 2134              	.LBB171:
 2135              	.LBI171:
1046:fltk-1.3.4-1/png/pngpread.c **** {
 2136              		.loc 1 1046 1 view .LVU653
 2137              	.LBB172:
1051:fltk-1.3.4-1/png/pngpread.c **** 
 2138              		.loc 1 1051 4 view .LVU654
1054:fltk-1.3.4-1/png/pngpread.c **** 
 2139              		.loc 1 1054 4 view .LVU655
1057:fltk-1.3.4-1/png/pngpread.c **** 
 2140              		.loc 1 1057 4 view .LVU656
1060:fltk-1.3.4-1/png/pngpread.c **** 
 2141              		.loc 1 1060 4 view .LVU657
1068:fltk-1.3.4-1/png/pngpread.c ****    if (png_ptr->row_number < png_ptr->num_rows)
 2142              		.loc 1 1068 4 view .LVU658
1068:fltk-1.3.4-1/png/pngpread.c ****    if (png_ptr->row_number < png_ptr->num_rows)
 2143              		.loc 1 1068 23 is_stmt 0 view .LVU659
 2144 0136 83C201   		addl	$1, %edx
 2145 0139 89951402 		movl	%edx, 532(%rbp)
 2145      0000
1069:fltk-1.3.4-1/png/pngpread.c ****       return;
 2146              		.loc 1 1069 4 is_stmt 1 view .LVU660
1069:fltk-1.3.4-1/png/pngpread.c ****       return;
 2147              		.loc 1 1069 7 is_stmt 0 view .LVU661
 2148 013f 3B950002 		cmpl	512(%rbp), %edx
 2148      0000
 2149 0145 720D     		jb	.L271
1072:fltk-1.3.4-1/png/pngpread.c ****    {
 2150              		.loc 1 1072 4 is_stmt 1 view .LVU662
1072:fltk-1.3.4-1/png/pngpread.c ****    {
 2151              		.loc 1 1072 7 is_stmt 0 view .LVU663
 2152 0147 80BD7402 		cmpb	$0, 628(%rbp)
 2152      000000
 2153 014e 0F85C707 		jne	.L403
 2153      0000
 2154              	.L271:
 2155              	.LVL170:
1072:fltk-1.3.4-1/png/pngpread.c ****    {
 2156              		.loc 1 1072 7 view .LVU664
 2157              	.LBE172:
 2158              	.LBE171:
1030:fltk-1.3.4-1/png/pngpread.c ****                break;
 2159              		.loc 1 1030 13 is_stmt 1 view .LVU665
1030:fltk-1.3.4-1/png/pngpread.c ****                break;
 2160              		.loc 1 1030 16 is_stmt 0 view .LVU666
 2161 0154 80BD7502 		cmpb	$6, 629(%rbp)
 2161      000006
 2162 015b 0F85FD00 		jne	.L203
 2162      0000
 2163              	.L395:
1033:fltk-1.3.4-1/png/pngpread.c ****             png_read_push_finish_row(png_ptr);
 2164              		.loc 1 1033 13 is_stmt 1 view .LVU667
 2165              	.LVL171:
 2166              	.LBB174:
 2167              	.LBI174:
1123:fltk-1.3.4-1/png/pngpread.c **** {
 2168              		.loc 1 1123 1 view .LVU668
 2169              	.LBB175:
1125:fltk-1.3.4-1/png/pngpread.c ****       (*(png_ptr->row_fn))(png_ptr, row, png_ptr->row_number,
 2170              		.loc 1 1125 4 view .LVU669
1125:fltk-1.3.4-1/png/pngpread.c ****       (*(png_ptr->row_fn))(png_ptr, row, png_ptr->row_number,
 2171              		.loc 1 1125 15 is_stmt 0 view .LVU670
 2172 0161 488B8528 		movq	808(%rbp), %rax
 2172      030000
 2173 0168 8B951402 		movl	532(%rbp), %edx
 2173      0000
1125:fltk-1.3.4-1/png/pngpread.c ****       (*(png_ptr->row_fn))(png_ptr, row, png_ptr->row_number,
 2174              		.loc 1 1125 7 view .LVU671
 2175 016e 4885C0   		testq	%rax, %rax
 2176 0171 0F84CD00 		je	.L273
 2176      0000
 2177              		.loc 1 1126 7 is_stmt 1 view .LVU672
 2178              		.loc 1 1126 8 is_stmt 0 view .LVU673
 2179 0177 B9060000 		movl	$6, %ecx
 2179      00
 2180 017c 31F6     		xorl	%esi, %esi
 2181 017e 4889EF   		movq	%rbp, %rdi
 2182 0181 FFD0     		call	*%rax
 2183              	.LVL172:
 2184 0183 8B951402 		movl	532(%rbp), %edx
 2184      0000
 2185              	.LVL173:
 2186              		.loc 1 1126 8 view .LVU674
 2187              	.LBE175:
 2188              	.LBE174:
1034:fltk-1.3.4-1/png/pngpread.c ****          }
 2189              		.loc 1 1034 13 is_stmt 1 view .LVU675
 2190              	.LBB176:
 2191              	.LBI176:
1046:fltk-1.3.4-1/png/pngpread.c **** {
 2192              		.loc 1 1046 1 view .LVU676
 2193              	.LBB177:
1051:fltk-1.3.4-1/png/pngpread.c **** 
 2194              		.loc 1 1051 4 view .LVU677
1054:fltk-1.3.4-1/png/pngpread.c **** 
 2195              		.loc 1 1054 4 view .LVU678
1057:fltk-1.3.4-1/png/pngpread.c **** 
 2196              		.loc 1 1057 4 view .LVU679
1060:fltk-1.3.4-1/png/pngpread.c **** 
 2197              		.loc 1 1060 4 view .LVU680
1068:fltk-1.3.4-1/png/pngpread.c ****    if (png_ptr->row_number < png_ptr->num_rows)
 2198              		.loc 1 1068 4 view .LVU681
 2199 0189 E9B60000 		jmp	.L273
 2199      00
 2200              	.LVL174:
 2201 018e 6690     		.p2align 4,,10
 2202              		.p2align 3
 2203              	.L204:
1068:fltk-1.3.4-1/png/pngpread.c ****    if (png_ptr->row_number < png_ptr->num_rows)
 2204              		.loc 1 1068 4 is_stmt 0 view .LVU682
 2205              	.LBE177:
 2206              	.LBE176:
 827:fltk-1.3.4-1/png/pngpread.c **** 
 2207              		.loc 1 827 24 discriminator 2 view .LVU683
 2208 0190 0FB6D0   		movzbl	%al, %edx
 2209 0193 480FAFD1 		imulq	%rcx, %rdx
 2210 0197 4883C207 		addq	$7, %rdx
 2211 019b 48C1EA03 		shrq	$3, %rdx
 2212 019f E9B9FEFF 		jmp	.L205
 2212      FF
 2213              	.LVL175:
 2214              		.p2align 4,,10
 2215 01a4 0F1F4000 		.p2align 3
 2216              	.L400:
 853:fltk-1.3.4-1/png/pngpread.c ****       if (row_info.pixel_depth > png_ptr->maximum_pixel_depth)
 2217              		.loc 1 853 7 is_stmt 1 view .LVU684
 853:fltk-1.3.4-1/png/pngpread.c ****       if (row_info.pixel_depth > png_ptr->maximum_pixel_depth)
 2218              		.loc 1 853 40 is_stmt 0 view .LVU685
 2219 01a8 88957F02 		movb	%dl, 639(%rbp)
 2219      0000
 854:fltk-1.3.4-1/png/pngpread.c ****          png_error(png_ptr, "progressive row overflow");
 2220              		.loc 1 854 7 is_stmt 1 view .LVU686
 854:fltk-1.3.4-1/png/pngpread.c ****          png_error(png_ptr, "progressive row overflow");
 2221              		.loc 1 854 10 is_stmt 0 view .LVU687
 2222 01ae 38957E02 		cmpb	%dl, 638(%rbp)
 2222      0000
 2223 01b4 0F8322FF 		jnb	.L210
 2223      FFFF
 855:fltk-1.3.4-1/png/pngpread.c ****    }
 2224              		.loc 1 855 10 is_stmt 1 view .LVU688
 2225 01ba 488D3500 		leaq	.LC11(%rip), %rsi
 2225      000000
 2226 01c1 4889EF   		movq	%rbp, %rdi
 2227 01c4 E8000000 		call	png_error@PLT
 2227      00
 2228              	.LVL176:
 2229 01c9 0F1F8000 		.p2align 4,,10
 2229      000000
 2230              		.p2align 3
 2231              	.L402:
 868:fltk-1.3.4-1/png/pngpread.c ****             png_ptr->transformations);
 2232              		.loc 1 868 10 view .LVU689
 2233 01d0 4489CA   		movl	%r9d, %edx
 2234 01d3 4889E7   		movq	%rsp, %rdi
 2235 01d6 E8000000 		call	png_do_read_interlace@PLT
 2235      00
 2236              	.LVL177:
 2237 01db 488B8528 		movq	552(%rbp), %rax
 2237      020000
 2238 01e2 440FB68D 		movzbl	629(%rbp), %r9d
 2238      75020000 
 2239 01ea 4C8B8528 		movq	808(%rbp), %r8
 2239      030000
 2240 01f1 8B951402 		movl	532(%rbp), %edx
 2240      0000
 2241 01f7 488D7001 		leaq	1(%rax), %rsi
 871:fltk-1.3.4-1/png/pngpread.c ****       {
 2242              		.loc 1 871 7 view .LVU690
 2243 01fb 4180F905 		cmpb	$5, %r9b
 2244 01ff 0F871DFF 		ja	.L213
 2244      FFFF
 2245 0205 488D3500 		leaq	.L215(%rip), %rsi
 2245      000000
 2246 020c 4A630C8E 		movslq	(%rsi,%r9,4), %rcx
 2247 0210 4801F1   		addq	%rsi, %rcx
 2248 0213 3EFFE1   		notrack jmp	*%rcx
 2249              		.section	.rodata.png_push_process_row,"a",@progbits
 2250              		.align 4
 2251              		.align 4
 2252              	.L215:
 2253 0000 00000000 		.long	.L275-.L215
 2254 0004 00000000 		.long	.L276-.L215
 2255 0008 00000000 		.long	.L277-.L215
 2256 000c 00000000 		.long	.L278-.L215
 2257 0010 00000000 		.long	.L279-.L215
 2258 0014 00000000 		.long	.L280-.L215
 2259              		.section	.text.png_push_process_row
 2260 0216 662E0F1F 		.p2align 4,,10
 2260      84000000 
 2260      0000
 2261              		.p2align 3
 2262              	.L211:
1040:fltk-1.3.4-1/png/pngpread.c ****       png_read_push_finish_row(png_ptr);
 2263              		.loc 1 1040 7 view .LVU691
 2264              	.LVL178:
 2265              	.LBB178:
 2266              	.LBI178:
1123:fltk-1.3.4-1/png/pngpread.c **** {
 2267              		.loc 1 1123 1 view .LVU692
 2268              	.LBB179:
1125:fltk-1.3.4-1/png/pngpread.c ****       (*(png_ptr->row_fn))(png_ptr, row, png_ptr->row_number,
 2269              		.loc 1 1125 4 view .LVU693
1125:fltk-1.3.4-1/png/pngpread.c ****       (*(png_ptr->row_fn))(png_ptr, row, png_ptr->row_number,
 2270              		.loc 1 1125 15 is_stmt 0 view .LVU694
 2271 0220 488B8528 		movq	808(%rbp), %rax
 2271      030000
 2272 0227 8B951402 		movl	532(%rbp), %edx
 2272      0000
1125:fltk-1.3.4-1/png/pngpread.c ****       (*(png_ptr->row_fn))(png_ptr, row, png_ptr->row_number,
 2273              		.loc 1 1125 7 view .LVU695
 2274 022d 4885C0   		testq	%rax, %rax
 2275 0230 7412     		je	.L273
 2276              		.loc 1 1126 7 is_stmt 1 view .LVU696
 2277              		.loc 1 1126 8 is_stmt 0 view .LVU697
 2278 0232 0FB68D75 		movzbl	629(%rbp), %ecx
 2278      020000
 2279 0239 4889EF   		movq	%rbp, %rdi
 2280 023c FFD0     		call	*%rax
 2281              	.LVL179:
 2282              		.loc 1 1126 8 view .LVU698
 2283 023e 8B951402 		movl	532(%rbp), %edx
 2283      0000
 2284              	.LVL180:
 2285              	.L273:
 2286              		.loc 1 1126 8 view .LVU699
 2287              	.LBE179:
 2288              	.LBE178:
1041:fltk-1.3.4-1/png/pngpread.c ****    }
 2289              		.loc 1 1041 7 is_stmt 1 view .LVU700
 2290              	.LBB180:
 2291              	.LBI180:
1046:fltk-1.3.4-1/png/pngpread.c **** {
 2292              		.loc 1 1046 1 view .LVU701
 2293              	.LBB181:
1051:fltk-1.3.4-1/png/pngpread.c **** 
 2294              		.loc 1 1051 4 view .LVU702
1054:fltk-1.3.4-1/png/pngpread.c **** 
 2295              		.loc 1 1054 4 view .LVU703
1057:fltk-1.3.4-1/png/pngpread.c **** 
 2296              		.loc 1 1057 4 view .LVU704
1060:fltk-1.3.4-1/png/pngpread.c **** 
 2297              		.loc 1 1060 4 view .LVU705
1068:fltk-1.3.4-1/png/pngpread.c ****    if (png_ptr->row_number < png_ptr->num_rows)
 2298              		.loc 1 1068 4 view .LVU706
1068:fltk-1.3.4-1/png/pngpread.c ****    if (png_ptr->row_number < png_ptr->num_rows)
 2299              		.loc 1 1068 23 is_stmt 0 view .LVU707
 2300 0244 83C201   		addl	$1, %edx
 2301 0247 89951402 		movl	%edx, 532(%rbp)
 2301      0000
1069:fltk-1.3.4-1/png/pngpread.c ****       return;
 2302              		.loc 1 1069 4 is_stmt 1 view .LVU708
1069:fltk-1.3.4-1/png/pngpread.c ****       return;
 2303              		.loc 1 1069 7 is_stmt 0 view .LVU709
 2304 024d 3B950002 		cmpl	512(%rbp), %edx
 2304      0000
 2305 0253 7209     		jb	.L203
 2306              	.LBE181:
 2307              	.LBE180:
 2308              	.LBB182:
 2309              	.LBB183:
 2310              	.LBB184:
1072:fltk-1.3.4-1/png/pngpread.c ****    {
 2311              		.loc 1 1072 4 is_stmt 1 view .LVU710
1072:fltk-1.3.4-1/png/pngpread.c ****    {
 2312              		.loc 1 1072 7 is_stmt 0 view .LVU711
 2313 0255 80BD7402 		cmpb	$0, 628(%rbp)
 2313      000000
 2314 025c 7532     		jne	.L404
 2315              	.LVL181:
 2316              	.L203:
1072:fltk-1.3.4-1/png/pngpread.c ****    {
 2317              		.loc 1 1072 7 view .LVU712
 2318              	.LBE184:
 2319              	.LBE183:
 2320              	.LBE182:
1043:fltk-1.3.4-1/png/pngpread.c **** 
 2321              		.loc 1 1043 1 view .LVU713
 2322 025e 488B4424 		movq	24(%rsp), %rax
 2322      18
 2323 0263 64483304 		xorq	%fs:40, %rax
 2323      25280000 
 2323      00
 2324 026c 0F85DD06 		jne	.L405
 2324      0000
 2325 0272 4883C428 		addq	$40, %rsp
 2326              		.cfi_remember_state
 2327              		.cfi_def_cfa_offset 24
 2328 0276 5B       		popq	%rbx
 2329              		.cfi_def_cfa_offset 16
 2330 0277 5D       		popq	%rbp
 2331              		.cfi_def_cfa_offset 8
 2332              	.LVL182:
1043:fltk-1.3.4-1/png/pngpread.c **** 
 2333              		.loc 1 1043 1 view .LVU714
 2334 0278 C3       		ret
 2335              	.LVL183:
 2336 0279 0F1F8000 		.p2align 4,,10
 2336      000000
 2337              		.p2align 3
 2338              	.L399:
 2339              		.cfi_restore_state
 847:fltk-1.3.4-1/png/pngpread.c **** #endif
 2340              		.loc 1 847 7 is_stmt 1 view .LVU715
 2341 0280 4889E6   		movq	%rsp, %rsi
 2342 0283 4889EF   		movq	%rbp, %rdi
 2343 0286 E8000000 		call	png_do_read_transformations@PLT
 2343      00
 2344              	.LVL184:
 2345 028b E930FEFF 		jmp	.L208
 2345      FF
 2346              	.LVL185:
 2347              		.p2align 4,,10
 2348              		.p2align 3
 2349              	.L404:
 2350              	.LBB205:
 2351              	.LBB186:
 2352              	.LBB185:
 847:fltk-1.3.4-1/png/pngpread.c **** #endif
 2353              		.loc 1 847 7 is_stmt 0 view .LVU716
 2354 0290 4889EF   		movq	%rbp, %rdi
 2355 0293 E8000000 		call	png_read_push_finish_row.part.0
 2355      00
 2356              	.LVL186:
 2357 0298 EBC4     		jmp	.L203
 2358              	.LVL187:
 2359 029a 660F1F44 		.p2align 4,,10
 2359      0000
 2360              		.p2align 3
 2361              	.L280:
 847:fltk-1.3.4-1/png/pngpread.c **** #endif
 2362              		.loc 1 847 7 view .LVU717
 2363              	.LBE185:
 2364              	.LBE186:
 2365              	.LBE205:
 868:fltk-1.3.4-1/png/pngpread.c ****             png_ptr->transformations);
 2366              		.loc 1 868 10 view .LVU718
 2367 02a0 BB020000 		movl	$2, %ebx
 2367      00
 2368              	.L214:
 2369              	.LVL188:
 2370              	.LBB206:
1011:fltk-1.3.4-1/png/pngpread.c ****                png_read_push_finish_row(png_ptr);
 2371              		.loc 1 1011 16 is_stmt 1 discriminator 4 view .LVU719
 2372              	.LBB207:
 2373              	.LBI207:
1123:fltk-1.3.4-1/png/pngpread.c **** {
 2374              		.loc 1 1123 1 discriminator 4 view .LVU720
 2375              	.LBB208:
1125:fltk-1.3.4-1/png/pngpread.c ****       (*(png_ptr->row_fn))(png_ptr, row, png_ptr->row_number,
 2376              		.loc 1 1125 4 discriminator 4 view .LVU721
1125:fltk-1.3.4-1/png/pngpread.c ****       (*(png_ptr->row_fn))(png_ptr, row, png_ptr->row_number,
 2377              		.loc 1 1125 7 is_stmt 0 discriminator 4 view .LVU722
 2378 02a5 4D85C0   		testq	%r8, %r8
 2379 02a8 7415     		je	.L266
 2380              		.loc 1 1126 7 is_stmt 1 view .LVU723
 2381              	.LBE208:
 2382              	.LBE207:
1011:fltk-1.3.4-1/png/pngpread.c ****                png_read_push_finish_row(png_ptr);
 2383              		.loc 1 1011 16 is_stmt 0 view .LVU724
 2384 02aa 488D7001 		leaq	1(%rax), %rsi
 2385              	.LVL189:
 2386              	.LBB210:
 2387              	.LBB209:
 2388              		.loc 1 1126 8 view .LVU725
 2389 02ae B9050000 		movl	$5, %ecx
 2389      00
 2390 02b3 4889EF   		movq	%rbp, %rdi
 2391 02b6 41FFD0   		call	*%r8
 2392              	.LVL190:
 2393              		.loc 1 1126 8 view .LVU726
 2394 02b9 8B951402 		movl	532(%rbp), %edx
 2394      0000
 2395              	.L266:
 2396              	.LVL191:
 2397              		.loc 1 1126 8 view .LVU727
 2398              	.LBE209:
 2399              	.LBE210:
1012:fltk-1.3.4-1/png/pngpread.c ****             }
 2400              		.loc 1 1012 16 is_stmt 1 view .LVU728
 2401              	.LBB211:
 2402              	.LBI211:
1046:fltk-1.3.4-1/png/pngpread.c **** {
 2403              		.loc 1 1046 1 view .LVU729
 2404              	.LBB212:
1051:fltk-1.3.4-1/png/pngpread.c **** 
 2405              		.loc 1 1051 4 view .LVU730
1054:fltk-1.3.4-1/png/pngpread.c **** 
 2406              		.loc 1 1054 4 view .LVU731
1057:fltk-1.3.4-1/png/pngpread.c **** 
 2407              		.loc 1 1057 4 view .LVU732
1060:fltk-1.3.4-1/png/pngpread.c **** 
 2408              		.loc 1 1060 4 view .LVU733
1068:fltk-1.3.4-1/png/pngpread.c ****    if (png_ptr->row_number < png_ptr->num_rows)
 2409              		.loc 1 1068 4 view .LVU734
1068:fltk-1.3.4-1/png/pngpread.c ****    if (png_ptr->row_number < png_ptr->num_rows)
 2410              		.loc 1 1068 23 is_stmt 0 view .LVU735
 2411 02bf 83C201   		addl	$1, %edx
 2412 02c2 89951402 		movl	%edx, 532(%rbp)
 2412      0000
1069:fltk-1.3.4-1/png/pngpread.c ****       return;
 2413              		.loc 1 1069 4 is_stmt 1 view .LVU736
1069:fltk-1.3.4-1/png/pngpread.c ****       return;
 2414              		.loc 1 1069 7 is_stmt 0 view .LVU737
 2415 02c8 3B950002 		cmpl	512(%rbp), %edx
 2415      0000
 2416 02ce 720D     		jb	.L267
1072:fltk-1.3.4-1/png/pngpread.c ****    {
 2417              		.loc 1 1072 4 is_stmt 1 view .LVU738
1072:fltk-1.3.4-1/png/pngpread.c ****    {
 2418              		.loc 1 1072 7 is_stmt 0 view .LVU739
 2419 02d0 80BD7402 		cmpb	$0, 628(%rbp)
 2419      000000
 2420 02d7 0F853305 		jne	.L406
 2420      0000
 2421              	.L267:
 2422              	.LVL192:
1072:fltk-1.3.4-1/png/pngpread.c ****    {
 2423              		.loc 1 1072 7 view .LVU740
 2424              	.LBE212:
 2425              	.LBE211:
1009:fltk-1.3.4-1/png/pngpread.c ****             {
 2426              		.loc 1 1009 54 is_stmt 1 view .LVU741
1009:fltk-1.3.4-1/png/pngpread.c ****             {
 2427              		.loc 1 1009 25 view .LVU742
 2428 02dd 0FB68575 		movzbl	629(%rbp), %eax
 2428      020000
1009:fltk-1.3.4-1/png/pngpread.c ****             {
 2429              		.loc 1 1009 13 is_stmt 0 view .LVU743
 2430 02e4 83FB01   		cmpl	$1, %ebx
 2431 02e7 0F858B04 		jne	.L407
 2431      0000
 2432              	.LVL193:
 2433              	.L268:
1015:fltk-1.3.4-1/png/pngpread.c ****             {
 2434              		.loc 1 1015 13 is_stmt 1 view .LVU744
1015:fltk-1.3.4-1/png/pngpread.c ****             {
 2435              		.loc 1 1015 16 is_stmt 0 view .LVU745
 2436 02ed 3C06     		cmpb	$6, %al
 2437 02ef 0F8569FF 		jne	.L203
 2437      FFFF
 2438 02f5 E967FEFF 		jmp	.L395
 2438      FF
 2439 02fa 660F1F44 		.p2align 4,,10
 2439      0000
 2440              		.p2align 3
 2441              	.L275:
 2442              	.LBE206:
 868:fltk-1.3.4-1/png/pngpread.c ****             png_ptr->transformations);
 2443              		.loc 1 868 10 view .LVU746
 2444 0300 BB080000 		movl	$8, %ebx
 2444      00
 2445 0305 EB35     		jmp	.L220
 2446              	.LVL194:
 2447 0307 660F1F84 		.p2align 4,,10
 2447      00000000 
 2447      00
 2448              		.p2align 3
 2449              	.L222:
 2450              	.LBB215:
 876:fltk-1.3.4-1/png/pngpread.c ****             {
 2451              		.loc 1 876 54 is_stmt 1 view .LVU747
 876:fltk-1.3.4-1/png/pngpread.c ****             {
 2452              		.loc 1 876 25 view .LVU748
 2453 0310 0FB68575 		movzbl	629(%rbp), %eax
 2453      020000
 876:fltk-1.3.4-1/png/pngpread.c ****             {
 2454              		.loc 1 876 13 is_stmt 0 view .LVU749
 2455 0317 83EB01   		subl	$1, %ebx
 2456              	.LVL195:
 876:fltk-1.3.4-1/png/pngpread.c ****             {
 2457              		.loc 1 876 13 view .LVU750
 2458 031a 0F84F002 		je	.L223
 2458      0000
 876:fltk-1.3.4-1/png/pngpread.c ****             {
 2459              		.loc 1 876 31 discriminator 3 view .LVU751
 2460 0320 84C0     		testb	%al, %al
 2461 0322 0F85E802 		jne	.L223
 2461      0000
 2462 0328 488B8528 		movq	552(%rbp), %rax
 2462      020000
 2463 032f 4C8B8528 		movq	808(%rbp), %r8
 2463      030000
 2464 0336 8B951402 		movl	532(%rbp), %edx
 2464      0000
 2465              	.LVL196:
 2466              	.L220:
 878:fltk-1.3.4-1/png/pngpread.c ****                png_read_push_finish_row(png_ptr); /* Updates png_ptr->pass */
 2467              		.loc 1 878 16 is_stmt 1 discriminator 4 view .LVU752
 2468              	.LBB187:
 2469              	.LBI187:
1123:fltk-1.3.4-1/png/pngpread.c **** {
 2470              		.loc 1 1123 1 discriminator 4 view .LVU753
 2471              	.LBB188:
1125:fltk-1.3.4-1/png/pngpread.c ****       (*(png_ptr->row_fn))(png_ptr, row, png_ptr->row_number,
 2472              		.loc 1 1125 4 discriminator 4 view .LVU754
1125:fltk-1.3.4-1/png/pngpread.c ****       (*(png_ptr->row_fn))(png_ptr, row, png_ptr->row_number,
 2473              		.loc 1 1125 7 is_stmt 0 discriminator 4 view .LVU755
 2474 033c 4D85C0   		testq	%r8, %r8
 2475 033f 7412     		je	.L221
 2476              		.loc 1 1126 7 is_stmt 1 view .LVU756
 2477              	.LBE188:
 2478              	.LBE187:
 878:fltk-1.3.4-1/png/pngpread.c ****                png_read_push_finish_row(png_ptr); /* Updates png_ptr->pass */
 2479              		.loc 1 878 16 is_stmt 0 view .LVU757
 2480 0341 488D7001 		leaq	1(%rax), %rsi
 2481              	.LVL197:
 2482              	.LBB190:
 2483              	.LBB189:
 2484              		.loc 1 1126 8 view .LVU758
 2485 0345 31C9     		xorl	%ecx, %ecx
 2486 0347 4889EF   		movq	%rbp, %rdi
 2487 034a 41FFD0   		call	*%r8
 2488              	.LVL198:
 2489              		.loc 1 1126 8 view .LVU759
 2490 034d 8B951402 		movl	532(%rbp), %edx
 2490      0000
 2491              	.L221:
 2492              	.LVL199:
 2493              		.loc 1 1126 8 view .LVU760
 2494              	.LBE189:
 2495              	.LBE190:
 879:fltk-1.3.4-1/png/pngpread.c ****             }
 2496              		.loc 1 879 16 is_stmt 1 view .LVU761
 2497              	.LBB191:
 2498              	.LBI191:
1046:fltk-1.3.4-1/png/pngpread.c **** {
 2499              		.loc 1 1046 1 view .LVU762
 2500              	.LBB192:
1051:fltk-1.3.4-1/png/pngpread.c **** 
 2501              		.loc 1 1051 4 view .LVU763
1054:fltk-1.3.4-1/png/pngpread.c **** 
 2502              		.loc 1 1054 4 view .LVU764
1057:fltk-1.3.4-1/png/pngpread.c **** 
 2503              		.loc 1 1057 4 view .LVU765
1060:fltk-1.3.4-1/png/pngpread.c **** 
 2504              		.loc 1 1060 4 view .LVU766
1068:fltk-1.3.4-1/png/pngpread.c ****    if (png_ptr->row_number < png_ptr->num_rows)
 2505              		.loc 1 1068 4 view .LVU767
1068:fltk-1.3.4-1/png/pngpread.c ****    if (png_ptr->row_number < png_ptr->num_rows)
 2506              		.loc 1 1068 23 is_stmt 0 view .LVU768
 2507 0353 83C201   		addl	$1, %edx
 2508 0356 89951402 		movl	%edx, 532(%rbp)
 2508      0000
1069:fltk-1.3.4-1/png/pngpread.c ****       return;
 2509              		.loc 1 1069 4 is_stmt 1 view .LVU769
1069:fltk-1.3.4-1/png/pngpread.c ****       return;
 2510              		.loc 1 1069 7 is_stmt 0 view .LVU770
 2511 035c 3B950002 		cmpl	512(%rbp), %edx
 2511      0000
 2512 0362 72AC     		jb	.L222
1072:fltk-1.3.4-1/png/pngpread.c ****    {
 2513              		.loc 1 1072 4 is_stmt 1 view .LVU771
1072:fltk-1.3.4-1/png/pngpread.c ****    {
 2514              		.loc 1 1072 7 is_stmt 0 view .LVU772
 2515 0364 80BD7402 		cmpb	$0, 628(%rbp)
 2515      000000
 2516 036b 74A3     		je	.L222
 2517 036d 4889EF   		movq	%rbp, %rdi
 2518 0370 E8000000 		call	png_read_push_finish_row.part.0
 2518      00
 2519              	.LVL200:
 2520 0375 EB99     		jmp	.L222
 2521              	.LVL201:
 2522 0377 660F1F84 		.p2align 4,,10
 2522      00000000 
 2522      00
 2523              		.p2align 3
 2524              	.L276:
1072:fltk-1.3.4-1/png/pngpread.c ****    {
 2525              		.loc 1 1072 7 view .LVU773
 2526              	.LBE192:
 2527              	.LBE191:
 2528              	.LBE215:
 868:fltk-1.3.4-1/png/pngpread.c ****             png_ptr->transformations);
 2529              		.loc 1 868 10 view .LVU774
 2530 0380 BB080000 		movl	$8, %ebx
 2530      00
 2531 0385 EB35     		jmp	.L219
 2532              	.LVL202:
 2533 0387 660F1F84 		.p2align 4,,10
 2533      00000000 
 2533      00
 2534              		.p2align 3
 2535              	.L236:
 2536              	.LBB216:
 912:fltk-1.3.4-1/png/pngpread.c ****             {
 2537              		.loc 1 912 54 is_stmt 1 view .LVU775
 912:fltk-1.3.4-1/png/pngpread.c ****             {
 2538              		.loc 1 912 25 view .LVU776
 2539 0390 0FB68575 		movzbl	629(%rbp), %eax
 2539      020000
 912:fltk-1.3.4-1/png/pngpread.c ****             {
 2540              		.loc 1 912 13 is_stmt 0 view .LVU777
 2541 0397 83EB01   		subl	$1, %ebx
 2542              	.LVL203:
 912:fltk-1.3.4-1/png/pngpread.c ****             {
 2543              		.loc 1 912 13 view .LVU778
 2544 039a 0F840002 		je	.L237
 2544      0000
 912:fltk-1.3.4-1/png/pngpread.c ****             {
 2545              		.loc 1 912 31 discriminator 3 view .LVU779
 2546 03a0 3C01     		cmpb	$1, %al
 2547 03a2 0F85F801 		jne	.L237
 2547      0000
 2548 03a8 488B8528 		movq	552(%rbp), %rax
 2548      020000
 2549 03af 4C8B8528 		movq	808(%rbp), %r8
 2549      030000
 2550 03b6 8B951402 		movl	532(%rbp), %edx
 2550      0000
 2551              	.LVL204:
 2552              	.L219:
 914:fltk-1.3.4-1/png/pngpread.c ****                png_read_push_finish_row(png_ptr);
 2553              		.loc 1 914 16 is_stmt 1 discriminator 4 view .LVU780
 2554              	.LBB217:
 2555              	.LBI217:
1123:fltk-1.3.4-1/png/pngpread.c **** {
 2556              		.loc 1 1123 1 discriminator 4 view .LVU781
 2557              	.LBB218:
1125:fltk-1.3.4-1/png/pngpread.c ****       (*(png_ptr->row_fn))(png_ptr, row, png_ptr->row_number,
 2558              		.loc 1 1125 4 discriminator 4 view .LVU782
1125:fltk-1.3.4-1/png/pngpread.c ****       (*(png_ptr->row_fn))(png_ptr, row, png_ptr->row_number,
 2559              		.loc 1 1125 7 is_stmt 0 discriminator 4 view .LVU783
 2560 03bc 4D85C0   		testq	%r8, %r8
 2561 03bf 7415     		je	.L235
 2562              		.loc 1 1126 7 is_stmt 1 view .LVU784
 2563              	.LBE218:
 2564              	.LBE217:
 914:fltk-1.3.4-1/png/pngpread.c ****                png_read_push_finish_row(png_ptr);
 2565              		.loc 1 914 16 is_stmt 0 view .LVU785
 2566 03c1 488D7001 		leaq	1(%rax), %rsi
 2567              	.LVL205:
 2568              	.LBB220:
 2569              	.LBB219:
 2570              		.loc 1 1126 8 view .LVU786
 2571 03c5 B9010000 		movl	$1, %ecx
 2571      00
 2572 03ca 4889EF   		movq	%rbp, %rdi
 2573 03cd 41FFD0   		call	*%r8
 2574              	.LVL206:
 2575              		.loc 1 1126 8 view .LVU787
 2576 03d0 8B951402 		movl	532(%rbp), %edx
 2576      0000
 2577              	.L235:
 2578              	.LVL207:
 2579              		.loc 1 1126 8 view .LVU788
 2580              	.LBE219:
 2581              	.LBE220:
 915:fltk-1.3.4-1/png/pngpread.c ****             }
 2582              		.loc 1 915 16 is_stmt 1 view .LVU789
 2583              	.LBB221:
 2584              	.LBI221:
1046:fltk-1.3.4-1/png/pngpread.c **** {
 2585              		.loc 1 1046 1 view .LVU790
 2586              	.LBB222:
1051:fltk-1.3.4-1/png/pngpread.c **** 
 2587              		.loc 1 1051 4 view .LVU791
1054:fltk-1.3.4-1/png/pngpread.c **** 
 2588              		.loc 1 1054 4 view .LVU792
1057:fltk-1.3.4-1/png/pngpread.c **** 
 2589              		.loc 1 1057 4 view .LVU793
1060:fltk-1.3.4-1/png/pngpread.c **** 
 2590              		.loc 1 1060 4 view .LVU794
1068:fltk-1.3.4-1/png/pngpread.c ****    if (png_ptr->row_number < png_ptr->num_rows)
 2591              		.loc 1 1068 4 view .LVU795
1068:fltk-1.3.4-1/png/pngpread.c ****    if (png_ptr->row_number < png_ptr->num_rows)
 2592              		.loc 1 1068 23 is_stmt 0 view .LVU796
 2593 03d6 83C201   		addl	$1, %edx
 2594 03d9 89951402 		movl	%edx, 532(%rbp)
 2594      0000
1069:fltk-1.3.4-1/png/pngpread.c ****       return;
 2595              		.loc 1 1069 4 is_stmt 1 view .LVU797
1069:fltk-1.3.4-1/png/pngpread.c ****       return;
 2596              		.loc 1 1069 7 is_stmt 0 view .LVU798
 2597 03df 3B950002 		cmpl	512(%rbp), %edx
 2597      0000
 2598 03e5 72A9     		jb	.L236
1072:fltk-1.3.4-1/png/pngpread.c ****    {
 2599              		.loc 1 1072 4 is_stmt 1 view .LVU799
1072:fltk-1.3.4-1/png/pngpread.c ****    {
 2600              		.loc 1 1072 7 is_stmt 0 view .LVU800
 2601 03e7 80BD7402 		cmpb	$0, 628(%rbp)
 2601      000000
 2602 03ee 74A0     		je	.L236
 2603 03f0 4889EF   		movq	%rbp, %rdi
 2604 03f3 E8000000 		call	png_read_push_finish_row.part.0
 2604      00
 2605              	.LVL208:
 2606 03f8 EB96     		jmp	.L236
 2607              	.LVL209:
 2608 03fa 660F1F44 		.p2align 4,,10
 2608      0000
 2609              		.p2align 3
 2610              	.L278:
1072:fltk-1.3.4-1/png/pngpread.c ****    {
 2611              		.loc 1 1072 7 view .LVU801
 2612              	.LBE222:
 2613              	.LBE221:
 2614              	.LBE216:
 868:fltk-1.3.4-1/png/pngpread.c ****             png_ptr->transformations);
 2615              		.loc 1 868 10 view .LVU802
 2616 0400 BB040000 		movl	$4, %ebx
 2616      00
 2617              	.LVL210:
 2618              	.LBB229:
 964:fltk-1.3.4-1/png/pngpread.c ****                png_read_push_finish_row(png_ptr);
 2619              		.loc 1 964 16 is_stmt 1 view .LVU803
 2620              	.LBB230:
 2621              	.LBI230:
1123:fltk-1.3.4-1/png/pngpread.c **** {
 2622              		.loc 1 1123 1 view .LVU804
 2623              	.LBB231:
1125:fltk-1.3.4-1/png/pngpread.c ****       (*(png_ptr->row_fn))(png_ptr, row, png_ptr->row_number,
 2624              		.loc 1 1125 4 view .LVU805
1125:fltk-1.3.4-1/png/pngpread.c ****       (*(png_ptr->row_fn))(png_ptr, row, png_ptr->row_number,
 2625              		.loc 1 1125 7 is_stmt 0 view .LVU806
 2626 0405 4D85C0   		testq	%r8, %r8
 2627 0408 7415     		je	.L251
 2628              	.LVL211:
 2629              	.L409:
 2630              		.loc 1 1126 7 is_stmt 1 view .LVU807
 2631              	.LBE231:
 2632              	.LBE230:
 964:fltk-1.3.4-1/png/pngpread.c ****                png_read_push_finish_row(png_ptr);
 2633              		.loc 1 964 16 is_stmt 0 view .LVU808
 2634 040a 488D7001 		leaq	1(%rax), %rsi
 2635              	.LBB234:
 2636              	.LBB232:
 2637              		.loc 1 1126 8 view .LVU809
 2638 040e B9030000 		movl	$3, %ecx
 2638      00
 2639 0413 4889EF   		movq	%rbp, %rdi
 2640 0416 41FFD0   		call	*%r8
 2641              	.LVL212:
 2642 0419 8B951402 		movl	532(%rbp), %edx
 2642      0000
 2643              	.L251:
 2644              	.LVL213:
 2645              		.loc 1 1126 8 view .LVU810
 2646              	.LBE232:
 2647              	.LBE234:
 965:fltk-1.3.4-1/png/pngpread.c ****             }
 2648              		.loc 1 965 16 is_stmt 1 view .LVU811
 2649              	.LBB235:
 2650              	.LBI235:
1046:fltk-1.3.4-1/png/pngpread.c **** {
 2651              		.loc 1 1046 1 view .LVU812
 2652              	.LBB236:
1051:fltk-1.3.4-1/png/pngpread.c **** 
 2653              		.loc 1 1051 4 view .LVU813
1054:fltk-1.3.4-1/png/pngpread.c **** 
 2654              		.loc 1 1054 4 view .LVU814
1057:fltk-1.3.4-1/png/pngpread.c **** 
 2655              		.loc 1 1057 4 view .LVU815
1060:fltk-1.3.4-1/png/pngpread.c **** 
 2656              		.loc 1 1060 4 view .LVU816
1068:fltk-1.3.4-1/png/pngpread.c ****    if (png_ptr->row_number < png_ptr->num_rows)
 2657              		.loc 1 1068 4 view .LVU817
1068:fltk-1.3.4-1/png/pngpread.c ****    if (png_ptr->row_number < png_ptr->num_rows)
 2658              		.loc 1 1068 23 is_stmt 0 view .LVU818
 2659 041f 83C201   		addl	$1, %edx
 2660 0422 89951402 		movl	%edx, 532(%rbp)
 2660      0000
1069:fltk-1.3.4-1/png/pngpread.c ****       return;
 2661              		.loc 1 1069 4 is_stmt 1 view .LVU819
1069:fltk-1.3.4-1/png/pngpread.c ****       return;
 2662              		.loc 1 1069 7 is_stmt 0 view .LVU820
 2663 0428 3B950002 		cmpl	512(%rbp), %edx
 2663      0000
 2664 042e 720D     		jb	.L252
1072:fltk-1.3.4-1/png/pngpread.c ****    {
 2665              		.loc 1 1072 4 is_stmt 1 view .LVU821
1072:fltk-1.3.4-1/png/pngpread.c ****    {
 2666              		.loc 1 1072 7 is_stmt 0 view .LVU822
 2667 0430 80BD7402 		cmpb	$0, 628(%rbp)
 2667      000000
 2668 0437 0F85B303 		jne	.L408
 2668      0000
 2669              	.L252:
 2670              	.LVL214:
1072:fltk-1.3.4-1/png/pngpread.c ****    {
 2671              		.loc 1 1072 7 view .LVU823
 2672              	.LBE236:
 2673              	.LBE235:
 962:fltk-1.3.4-1/png/pngpread.c ****             {
 2674              		.loc 1 962 54 is_stmt 1 view .LVU824
 962:fltk-1.3.4-1/png/pngpread.c ****             {
 2675              		.loc 1 962 25 view .LVU825
 2676 043d 0FB68575 		movzbl	629(%rbp), %eax
 2676      020000
 962:fltk-1.3.4-1/png/pngpread.c ****             {
 2677              		.loc 1 962 13 is_stmt 0 view .LVU826
 2678 0444 83EB01   		subl	$1, %ebx
 2679              	.LVL215:
 962:fltk-1.3.4-1/png/pngpread.c ****             {
 2680              		.loc 1 962 13 view .LVU827
 2681 0447 0F84BB02 		je	.L253
 2681      0000
 962:fltk-1.3.4-1/png/pngpread.c ****             {
 2682              		.loc 1 962 31 discriminator 3 view .LVU828
 2683 044d 3C03     		cmpb	$3, %al
 2684 044f 0F85B302 		jne	.L253
 2684      0000
 2685 0455 4C8B8528 		movq	808(%rbp), %r8
 2685      030000
 2686 045c 488B8528 		movq	552(%rbp), %rax
 2686      020000
 2687 0463 8B951402 		movl	532(%rbp), %edx
 2687      0000
 964:fltk-1.3.4-1/png/pngpread.c ****                png_read_push_finish_row(png_ptr);
 2688              		.loc 1 964 16 is_stmt 1 view .LVU829
 2689              	.LVL216:
 2690              	.LBB238:
1123:fltk-1.3.4-1/png/pngpread.c **** {
 2691              		.loc 1 1123 1 view .LVU830
 2692              	.LBB233:
1125:fltk-1.3.4-1/png/pngpread.c ****       (*(png_ptr->row_fn))(png_ptr, row, png_ptr->row_number,
 2693              		.loc 1 1125 4 view .LVU831
1125:fltk-1.3.4-1/png/pngpread.c ****       (*(png_ptr->row_fn))(png_ptr, row, png_ptr->row_number,
 2694              		.loc 1 1125 7 is_stmt 0 view .LVU832
 2695 0469 4D85C0   		testq	%r8, %r8
 2696 046c 759C     		jne	.L409
 2697 046e EBAF     		jmp	.L251
 2698              	.LVL217:
 2699              		.p2align 4,,10
 2700              		.p2align 3
 2701              	.L279:
1125:fltk-1.3.4-1/png/pngpread.c ****       (*(png_ptr->row_fn))(png_ptr, row, png_ptr->row_number,
 2702              		.loc 1 1125 7 view .LVU833
 2703              	.LBE233:
 2704              	.LBE238:
 2705              	.LBE229:
 868:fltk-1.3.4-1/png/pngpread.c ****             png_ptr->transformations);
 2706              		.loc 1 868 10 view .LVU834
 2707 0470 BB020000 		movl	$2, %ebx
 2707      00
 2708              	.L216:
 2709              	.LVL218:
 2710              	.LBB246:
 986:fltk-1.3.4-1/png/pngpread.c ****                png_read_push_finish_row(png_ptr);
 2711              		.loc 1 986 16 is_stmt 1 discriminator 4 view .LVU835
 2712              	.LBB247:
 2713              	.LBI247:
1123:fltk-1.3.4-1/png/pngpread.c **** {
 2714              		.loc 1 1123 1 discriminator 4 view .LVU836
 2715              	.LBB248:
1125:fltk-1.3.4-1/png/pngpread.c ****       (*(png_ptr->row_fn))(png_ptr, row, png_ptr->row_number,
 2716              		.loc 1 1125 4 discriminator 4 view .LVU837
1125:fltk-1.3.4-1/png/pngpread.c ****       (*(png_ptr->row_fn))(png_ptr, row, png_ptr->row_number,
 2717              		.loc 1 1125 7 is_stmt 0 discriminator 4 view .LVU838
 2718 0475 4D85C0   		testq	%r8, %r8
 2719 0478 7415     		je	.L257
 2720              		.loc 1 1126 7 is_stmt 1 view .LVU839
 2721              	.LBE248:
 2722              	.LBE247:
 986:fltk-1.3.4-1/png/pngpread.c ****                png_read_push_finish_row(png_ptr);
 2723              		.loc 1 986 16 is_stmt 0 view .LVU840
 2724 047a 488D7001 		leaq	1(%rax), %rsi
 2725              	.LVL219:
 2726              	.LBB250:
 2727              	.LBB249:
 2728              		.loc 1 1126 8 view .LVU841
 2729 047e B9040000 		movl	$4, %ecx
 2729      00
 2730 0483 4889EF   		movq	%rbp, %rdi
 2731 0486 41FFD0   		call	*%r8
 2732              	.LVL220:
 2733              		.loc 1 1126 8 view .LVU842
 2734 0489 8B951402 		movl	532(%rbp), %edx
 2734      0000
 2735              	.L257:
 2736              	.LVL221:
 2737              		.loc 1 1126 8 view .LVU843
 2738              	.LBE249:
 2739              	.LBE250:
 987:fltk-1.3.4-1/png/pngpread.c ****             }
 2740              		.loc 1 987 16 is_stmt 1 view .LVU844
 2741              	.LBB251:
 2742              	.LBI251:
1046:fltk-1.3.4-1/png/pngpread.c **** {
 2743              		.loc 1 1046 1 view .LVU845
 2744              	.LBB252:
1051:fltk-1.3.4-1/png/pngpread.c **** 
 2745              		.loc 1 1051 4 view .LVU846
1054:fltk-1.3.4-1/png/pngpread.c **** 
 2746              		.loc 1 1054 4 view .LVU847
1057:fltk-1.3.4-1/png/pngpread.c **** 
 2747              		.loc 1 1057 4 view .LVU848
1060:fltk-1.3.4-1/png/pngpread.c **** 
 2748              		.loc 1 1060 4 view .LVU849
1068:fltk-1.3.4-1/png/pngpread.c ****    if (png_ptr->row_number < png_ptr->num_rows)
 2749              		.loc 1 1068 4 view .LVU850
1068:fltk-1.3.4-1/png/pngpread.c ****    if (png_ptr->row_number < png_ptr->num_rows)
 2750              		.loc 1 1068 23 is_stmt 0 view .LVU851
 2751 048f 83C201   		addl	$1, %edx
 2752 0492 89951402 		movl	%edx, 532(%rbp)
 2752      0000
1069:fltk-1.3.4-1/png/pngpread.c ****       return;
 2753              		.loc 1 1069 4 is_stmt 1 view .LVU852
1069:fltk-1.3.4-1/png/pngpread.c ****       return;
 2754              		.loc 1 1069 7 is_stmt 0 view .LVU853
 2755 0498 3B950002 		cmpl	512(%rbp), %edx
 2755      0000
 2756 049e 720D     		jb	.L258
1072:fltk-1.3.4-1/png/pngpread.c ****    {
 2757              		.loc 1 1072 4 is_stmt 1 view .LVU854
1072:fltk-1.3.4-1/png/pngpread.c ****    {
 2758              		.loc 1 1072 7 is_stmt 0 view .LVU855
 2759 04a0 80BD7402 		cmpb	$0, 628(%rbp)
 2759      000000
 2760 04a7 0F855303 		jne	.L410
 2760      0000
 2761              	.L258:
 2762              	.LVL222:
1072:fltk-1.3.4-1/png/pngpread.c ****    {
 2763              		.loc 1 1072 7 view .LVU856
 2764              	.LBE252:
 2765              	.LBE251:
 984:fltk-1.3.4-1/png/pngpread.c ****             {
 2766              		.loc 1 984 54 is_stmt 1 view .LVU857
 984:fltk-1.3.4-1/png/pngpread.c ****             {
 2767              		.loc 1 984 25 view .LVU858
 2768 04ad 0FB68575 		movzbl	629(%rbp), %eax
 2768      020000
 984:fltk-1.3.4-1/png/pngpread.c ****             {
 2769              		.loc 1 984 13 is_stmt 0 view .LVU859
 2770 04b4 83FB01   		cmpl	$1, %ebx
 2771 04b7 0F85E302 		jne	.L411
 2771      0000
 2772 04bd BB020000 		movl	$2, %ebx
 2772      00
 2773              	.LVL223:
 990:fltk-1.3.4-1/png/pngpread.c ****             {
 2774              		.loc 1 990 31 view .LVU860
 2775 04c2 3C04     		cmpb	$4, %al
 2776 04c4 0F8523FE 		jne	.L268
 2776      FFFF
 2777              	.LVL224:
 2778              	.L263:
 992:fltk-1.3.4-1/png/pngpread.c ****                png_read_push_finish_row(png_ptr);
 2779              		.loc 1 992 16 is_stmt 1 view .LVU861
 2780              	.LBB254:
 2781              	.LBI254:
1123:fltk-1.3.4-1/png/pngpread.c **** {
 2782              		.loc 1 1123 1 view .LVU862
 2783              	.LBB255:
1125:fltk-1.3.4-1/png/pngpread.c ****       (*(png_ptr->row_fn))(png_ptr, row, png_ptr->row_number,
 2784              		.loc 1 1125 4 view .LVU863
1125:fltk-1.3.4-1/png/pngpread.c ****       (*(png_ptr->row_fn))(png_ptr, row, png_ptr->row_number,
 2785              		.loc 1 1125 15 is_stmt 0 view .LVU864
 2786 04ca 488B8528 		movq	808(%rbp), %rax
 2786      030000
 2787 04d1 8B951402 		movl	532(%rbp), %edx
 2787      0000
1125:fltk-1.3.4-1/png/pngpread.c ****       (*(png_ptr->row_fn))(png_ptr, row, png_ptr->row_number,
 2788              		.loc 1 1125 7 view .LVU865
 2789 04d7 4885C0   		testq	%rax, %rax
 2790 04da 7412     		je	.L261
 2791              		.loc 1 1126 7 is_stmt 1 view .LVU866
 2792              		.loc 1 1126 8 is_stmt 0 view .LVU867
 2793 04dc B9040000 		movl	$4, %ecx
 2793      00
 2794 04e1 31F6     		xorl	%esi, %esi
 2795 04e3 4889EF   		movq	%rbp, %rdi
 2796 04e6 FFD0     		call	*%rax
 2797              	.LVL225:
 2798 04e8 8B951402 		movl	532(%rbp), %edx
 2798      0000
 2799              	.L261:
 2800              	.LVL226:
 2801              		.loc 1 1126 8 view .LVU868
 2802              	.LBE255:
 2803              	.LBE254:
 993:fltk-1.3.4-1/png/pngpread.c ****             }
 2804              		.loc 1 993 16 is_stmt 1 view .LVU869
 2805              	.LBB256:
 2806              	.LBI256:
1046:fltk-1.3.4-1/png/pngpread.c **** {
 2807              		.loc 1 1046 1 view .LVU870
 2808              	.LBB257:
1051:fltk-1.3.4-1/png/pngpread.c **** 
 2809              		.loc 1 1051 4 view .LVU871
1054:fltk-1.3.4-1/png/pngpread.c **** 
 2810              		.loc 1 1054 4 view .LVU872
1057:fltk-1.3.4-1/png/pngpread.c **** 
 2811              		.loc 1 1057 4 view .LVU873
1060:fltk-1.3.4-1/png/pngpread.c **** 
 2812              		.loc 1 1060 4 view .LVU874
1068:fltk-1.3.4-1/png/pngpread.c ****    if (png_ptr->row_number < png_ptr->num_rows)
 2813              		.loc 1 1068 4 view .LVU875
1068:fltk-1.3.4-1/png/pngpread.c ****    if (png_ptr->row_number < png_ptr->num_rows)
 2814              		.loc 1 1068 23 is_stmt 0 view .LVU876
 2815 04ee 83C201   		addl	$1, %edx
 2816 04f1 89951402 		movl	%edx, 532(%rbp)
 2816      0000
1069:fltk-1.3.4-1/png/pngpread.c ****       return;
 2817              		.loc 1 1069 4 is_stmt 1 view .LVU877
1069:fltk-1.3.4-1/png/pngpread.c ****       return;
 2818              		.loc 1 1069 7 is_stmt 0 view .LVU878
 2819 04f7 3B950002 		cmpl	512(%rbp), %edx
 2819      0000
 2820 04fd 720D     		jb	.L262
1072:fltk-1.3.4-1/png/pngpread.c ****    {
 2821              		.loc 1 1072 4 is_stmt 1 view .LVU879
1072:fltk-1.3.4-1/png/pngpread.c ****    {
 2822              		.loc 1 1072 7 is_stmt 0 view .LVU880
 2823 04ff 80BD7402 		cmpb	$0, 628(%rbp)
 2823      000000
 2824 0506 0F851403 		jne	.L412
 2824      0000
 2825              	.L262:
 2826              	.LVL227:
1072:fltk-1.3.4-1/png/pngpread.c ****    {
 2827              		.loc 1 1072 7 view .LVU881
 2828              	.LBE257:
 2829              	.LBE256:
 990:fltk-1.3.4-1/png/pngpread.c ****             {
 2830              		.loc 1 990 54 is_stmt 1 view .LVU882
 990:fltk-1.3.4-1/png/pngpread.c ****             {
 2831              		.loc 1 990 25 view .LVU883
 2832 050c 0FB68575 		movzbl	629(%rbp), %eax
 2832      020000
 990:fltk-1.3.4-1/png/pngpread.c ****             {
 2833              		.loc 1 990 13 is_stmt 0 view .LVU884
 2834 0513 83FB01   		cmpl	$1, %ebx
 2835 0516 0F84D1FD 		je	.L268
 2835      FFFF
 2836 051c BB010000 		movl	$1, %ebx
 2836      00
 2837              	.LVL228:
 990:fltk-1.3.4-1/png/pngpread.c ****             {
 2838              		.loc 1 990 31 view .LVU885
 2839 0521 3C04     		cmpb	$4, %al
 2840 0523 74A5     		je	.L263
 2841 0525 E9C3FDFF 		jmp	.L268
 2841      FF
 2842              	.LVL229:
 2843 052a 660F1F44 		.p2align 4,,10
 2843      0000
 2844              		.p2align 3
 2845              	.L277:
 990:fltk-1.3.4-1/png/pngpread.c ****             {
 2846              		.loc 1 990 31 view .LVU886
 2847              	.LBE246:
 868:fltk-1.3.4-1/png/pngpread.c ****             png_ptr->transformations);
 2848              		.loc 1 868 10 view .LVU887
 2849 0530 BB040000 		movl	$4, %ebx
 2849      00
 2850              	.LVL230:
 2851              	.LBB261:
 936:fltk-1.3.4-1/png/pngpread.c ****                png_read_push_finish_row(png_ptr);
 2852              		.loc 1 936 16 is_stmt 1 view .LVU888
 2853              	.LBB262:
 2854              	.LBI262:
1123:fltk-1.3.4-1/png/pngpread.c **** {
 2855              		.loc 1 1123 1 view .LVU889
 2856              	.LBB263:
1125:fltk-1.3.4-1/png/pngpread.c ****       (*(png_ptr->row_fn))(png_ptr, row, png_ptr->row_number,
 2857              		.loc 1 1125 4 view .LVU890
1125:fltk-1.3.4-1/png/pngpread.c ****       (*(png_ptr->row_fn))(png_ptr, row, png_ptr->row_number,
 2858              		.loc 1 1125 7 is_stmt 0 view .LVU891
 2859 0535 4D85C0   		testq	%r8, %r8
 2860 0538 7415     		je	.L241
 2861              	.LVL231:
 2862              	.L414:
 2863              		.loc 1 1126 7 is_stmt 1 view .LVU892
 2864              	.LBE263:
 2865              	.LBE262:
 936:fltk-1.3.4-1/png/pngpread.c ****                png_read_push_finish_row(png_ptr);
 2866              		.loc 1 936 16 is_stmt 0 view .LVU893
 2867 053a 488D7001 		leaq	1(%rax), %rsi
 2868              	.LBB266:
 2869              	.LBB264:
 2870              		.loc 1 1126 8 view .LVU894
 2871 053e B9020000 		movl	$2, %ecx
 2871      00
 2872 0543 4889EF   		movq	%rbp, %rdi
 2873 0546 41FFD0   		call	*%r8
 2874              	.LVL232:
 2875 0549 8B951402 		movl	532(%rbp), %edx
 2875      0000
 2876              	.L241:
 2877              	.LVL233:
 2878              		.loc 1 1126 8 view .LVU895
 2879              	.LBE264:
 2880              	.LBE266:
 937:fltk-1.3.4-1/png/pngpread.c ****             }
 2881              		.loc 1 937 16 is_stmt 1 view .LVU896
 2882              	.LBB267:
 2883              	.LBI267:
1046:fltk-1.3.4-1/png/pngpread.c **** {
 2884              		.loc 1 1046 1 view .LVU897
 2885              	.LBB268:
1051:fltk-1.3.4-1/png/pngpread.c **** 
 2886              		.loc 1 1051 4 view .LVU898
1054:fltk-1.3.4-1/png/pngpread.c **** 
 2887              		.loc 1 1054 4 view .LVU899
1057:fltk-1.3.4-1/png/pngpread.c **** 
 2888              		.loc 1 1057 4 view .LVU900
1060:fltk-1.3.4-1/png/pngpread.c **** 
 2889              		.loc 1 1060 4 view .LVU901
1068:fltk-1.3.4-1/png/pngpread.c ****    if (png_ptr->row_number < png_ptr->num_rows)
 2890              		.loc 1 1068 4 view .LVU902
1068:fltk-1.3.4-1/png/pngpread.c ****    if (png_ptr->row_number < png_ptr->num_rows)
 2891              		.loc 1 1068 23 is_stmt 0 view .LVU903
 2892 054f 83C201   		addl	$1, %edx
 2893 0552 89951402 		movl	%edx, 532(%rbp)
 2893      0000
1069:fltk-1.3.4-1/png/pngpread.c ****       return;
 2894              		.loc 1 1069 4 is_stmt 1 view .LVU904
1069:fltk-1.3.4-1/png/pngpread.c ****       return;
 2895              		.loc 1 1069 7 is_stmt 0 view .LVU905
 2896 0558 3B950002 		cmpl	512(%rbp), %edx
 2896      0000
 2897 055e 720D     		jb	.L242
1072:fltk-1.3.4-1/png/pngpread.c ****    {
 2898              		.loc 1 1072 4 is_stmt 1 view .LVU906
1072:fltk-1.3.4-1/png/pngpread.c ****    {
 2899              		.loc 1 1072 7 is_stmt 0 view .LVU907
 2900 0560 80BD7402 		cmpb	$0, 628(%rbp)
 2900      000000
 2901 0567 0F856302 		jne	.L413
 2901      0000
 2902              	.L242:
 2903              	.LVL234:
1072:fltk-1.3.4-1/png/pngpread.c ****    {
 2904              		.loc 1 1072 7 view .LVU908
 2905              	.LBE268:
 2906              	.LBE267:
 934:fltk-1.3.4-1/png/pngpread.c ****             {
 2907              		.loc 1 934 54 is_stmt 1 view .LVU909
 934:fltk-1.3.4-1/png/pngpread.c ****             {
 2908              		.loc 1 934 25 view .LVU910
 2909 056d 0FB68575 		movzbl	629(%rbp), %eax
 2909      020000
 934:fltk-1.3.4-1/png/pngpread.c ****             {
 2910              		.loc 1 934 13 is_stmt 0 view .LVU911
 2911 0574 83EB01   		subl	$1, %ebx
 2912              	.LVL235:
 934:fltk-1.3.4-1/png/pngpread.c ****             {
 2913              		.loc 1 934 13 view .LVU912
 2914 0577 0F84C300 		je	.L282
 2914      0000
 934:fltk-1.3.4-1/png/pngpread.c ****             {
 2915              		.loc 1 934 31 discriminator 3 view .LVU913
 2916 057d 3C02     		cmpb	$2, %al
 2917 057f 0F851201 		jne	.L244
 2917      0000
 2918 0585 4C8B8528 		movq	808(%rbp), %r8
 2918      030000
 2919 058c 488B8528 		movq	552(%rbp), %rax
 2919      020000
 2920 0593 8B951402 		movl	532(%rbp), %edx
 2920      0000
 936:fltk-1.3.4-1/png/pngpread.c ****                png_read_push_finish_row(png_ptr);
 2921              		.loc 1 936 16 is_stmt 1 view .LVU914
 2922              	.LVL236:
 2923              	.LBB270:
1123:fltk-1.3.4-1/png/pngpread.c **** {
 2924              		.loc 1 1123 1 view .LVU915
 2925              	.LBB265:
1125:fltk-1.3.4-1/png/pngpread.c ****       (*(png_ptr->row_fn))(png_ptr, row, png_ptr->row_number,
 2926              		.loc 1 1125 4 view .LVU916
1125:fltk-1.3.4-1/png/pngpread.c ****       (*(png_ptr->row_fn))(png_ptr, row, png_ptr->row_number,
 2927              		.loc 1 1125 7 is_stmt 0 view .LVU917
 2928 0599 4D85C0   		testq	%r8, %r8
 2929 059c 759C     		jne	.L414
 2930 059e EBAF     		jmp	.L241
 2931              	.LVL237:
 2932              		.p2align 4,,10
 2933              		.p2align 3
 2934              	.L237:
1125:fltk-1.3.4-1/png/pngpread.c ****       (*(png_ptr->row_fn))(png_ptr, row, png_ptr->row_number,
 2935              		.loc 1 1125 7 view .LVU918
 2936              	.LBE265:
 2937              	.LBE270:
 2938              	.LBE261:
 2939              	.LBB284:
 918:fltk-1.3.4-1/png/pngpread.c ****             {
 2940              		.loc 1 918 13 is_stmt 1 view .LVU919
 918:fltk-1.3.4-1/png/pngpread.c ****             {
 2941              		.loc 1 918 16 is_stmt 0 view .LVU920
 2942 05a0 3C02     		cmpb	$2, %al
 2943 05a2 0F85B6FC 		jne	.L203
 2943      FFFF
 2944 05a8 BB040000 		movl	$4, %ebx
 2944      00
 2945              	.LVL238:
 2946              	.L240:
 922:fltk-1.3.4-1/png/pngpread.c ****                   png_read_push_finish_row(png_ptr);
 2947              		.loc 1 922 19 is_stmt 1 view .LVU921
 2948              	.LBB223:
 2949              	.LBI223:
1123:fltk-1.3.4-1/png/pngpread.c **** {
 2950              		.loc 1 1123 1 view .LVU922
 2951              	.LBB224:
1125:fltk-1.3.4-1/png/pngpread.c ****       (*(png_ptr->row_fn))(png_ptr, row, png_ptr->row_number,
 2952              		.loc 1 1125 4 view .LVU923
1125:fltk-1.3.4-1/png/pngpread.c ****       (*(png_ptr->row_fn))(png_ptr, row, png_ptr->row_number,
 2953              		.loc 1 1125 15 is_stmt 0 view .LVU924
 2954 05ad 488B8528 		movq	808(%rbp), %rax
 2954      030000
 2955 05b4 8B951402 		movl	532(%rbp), %edx
 2955      0000
1125:fltk-1.3.4-1/png/pngpread.c ****       (*(png_ptr->row_fn))(png_ptr, row, png_ptr->row_number,
 2956              		.loc 1 1125 7 view .LVU925
 2957 05ba 4885C0   		testq	%rax, %rax
 2958 05bd 7412     		je	.L238
 2959              		.loc 1 1126 7 is_stmt 1 view .LVU926
 2960              		.loc 1 1126 8 is_stmt 0 view .LVU927
 2961 05bf B9020000 		movl	$2, %ecx
 2961      00
 2962 05c4 31F6     		xorl	%esi, %esi
 2963 05c6 4889EF   		movq	%rbp, %rdi
 2964 05c9 FFD0     		call	*%rax
 2965              	.LVL239:
 2966 05cb 8B951402 		movl	532(%rbp), %edx
 2966      0000
 2967              	.L238:
 2968              	.LVL240:
 2969              		.loc 1 1126 8 view .LVU928
 2970              	.LBE224:
 2971              	.LBE223:
 923:fltk-1.3.4-1/png/pngpread.c ****                }
 2972              		.loc 1 923 19 is_stmt 1 view .LVU929
 2973              	.LBB225:
 2974              	.LBI225:
1046:fltk-1.3.4-1/png/pngpread.c **** {
 2975              		.loc 1 1046 1 view .LVU930
 2976              	.LBB226:
1051:fltk-1.3.4-1/png/pngpread.c **** 
 2977              		.loc 1 1051 4 view .LVU931
1054:fltk-1.3.4-1/png/pngpread.c **** 
 2978              		.loc 1 1054 4 view .LVU932
1057:fltk-1.3.4-1/png/pngpread.c **** 
 2979              		.loc 1 1057 4 view .LVU933
1060:fltk-1.3.4-1/png/pngpread.c **** 
 2980              		.loc 1 1060 4 view .LVU934
1068:fltk-1.3.4-1/png/pngpread.c ****    if (png_ptr->row_number < png_ptr->num_rows)
 2981              		.loc 1 1068 4 view .LVU935
1068:fltk-1.3.4-1/png/pngpread.c ****    if (png_ptr->row_number < png_ptr->num_rows)
 2982              		.loc 1 1068 23 is_stmt 0 view .LVU936
 2983 05d1 83C201   		addl	$1, %edx
 2984 05d4 89951402 		movl	%edx, 532(%rbp)
 2984      0000
1069:fltk-1.3.4-1/png/pngpread.c ****       return;
 2985              		.loc 1 1069 4 is_stmt 1 view .LVU937
1069:fltk-1.3.4-1/png/pngpread.c ****       return;
 2986              		.loc 1 1069 7 is_stmt 0 view .LVU938
 2987 05da 3B950002 		cmpl	512(%rbp), %edx
 2987      0000
 2988 05e0 720D     		jb	.L239
1072:fltk-1.3.4-1/png/pngpread.c ****    {
 2989              		.loc 1 1072 4 is_stmt 1 view .LVU939
1072:fltk-1.3.4-1/png/pngpread.c ****    {
 2990              		.loc 1 1072 7 is_stmt 0 view .LVU940
 2991 05e2 80BD7402 		cmpb	$0, 628(%rbp)
 2991      000000
 2992 05e9 0F851F03 		jne	.L415
 2992      0000
 2993              	.L239:
 2994              	.LVL241:
1072:fltk-1.3.4-1/png/pngpread.c ****    {
 2995              		.loc 1 1072 7 view .LVU941
 2996              	.LBE226:
 2997              	.LBE225:
 920:fltk-1.3.4-1/png/pngpread.c ****                {
 2998              		.loc 1 920 57 is_stmt 1 view .LVU942
 920:fltk-1.3.4-1/png/pngpread.c ****                {
 2999              		.loc 1 920 28 view .LVU943
 920:fltk-1.3.4-1/png/pngpread.c ****                {
 3000              		.loc 1 920 16 is_stmt 0 view .LVU944
 3001 05ef 83EB01   		subl	$1, %ebx
 3002              	.LVL242:
 920:fltk-1.3.4-1/png/pngpread.c ****                {
 3003              		.loc 1 920 16 view .LVU945
 3004 05f2 0F8466FC 		je	.L203
 3004      FFFF
 920:fltk-1.3.4-1/png/pngpread.c ****                {
 3005              		.loc 1 920 34 discriminator 3 view .LVU946
 3006 05f8 80BD7502 		cmpb	$2, 629(%rbp)
 3006      000002
 3007 05ff 74AC     		je	.L240
 3008 0601 E958FCFF 		jmp	.L203
 3008      FF
 3009              	.LVL243:
 3010 0606 662E0F1F 		.p2align 4,,10
 3010      84000000 
 3010      0000
 3011              		.p2align 3
 3012              	.L223:
 920:fltk-1.3.4-1/png/pngpread.c ****                {
 3013              		.loc 1 920 34 discriminator 3 view .LVU947
 3014              	.LBE284:
 3015              	.LBB285:
 882:fltk-1.3.4-1/png/pngpread.c ****             {
 3016              		.loc 1 882 13 is_stmt 1 view .LVU948
 882:fltk-1.3.4-1/png/pngpread.c ****             {
 3017              		.loc 1 882 16 is_stmt 0 view .LVU949
 3018 0610 3C02     		cmpb	$2, %al
 3019 0612 0F849002 		je	.L416
 3019      0000
 3020              	.LVL244:
 3021              	.L224:
 891:fltk-1.3.4-1/png/pngpread.c ****             {
 3022              		.loc 1 891 13 is_stmt 1 view .LVU950
 891:fltk-1.3.4-1/png/pngpread.c ****             {
 3023              		.loc 1 891 16 is_stmt 0 view .LVU951
 3024 0618 3C04     		cmpb	$4, %al
 3025 061a 0F841002 		je	.L417
 3025      0000
 3026              	.L228:
 900:fltk-1.3.4-1/png/pngpread.c ****             {
 3027              		.loc 1 900 13 is_stmt 1 view .LVU952
 900:fltk-1.3.4-1/png/pngpread.c ****             {
 3028              		.loc 1 900 16 is_stmt 0 view .LVU953
 3029 0620 3C06     		cmpb	$6, %al
 3030 0622 0F8536FC 		jne	.L203
 3030      FFFF
 900:fltk-1.3.4-1/png/pngpread.c ****             {
 3031              		.loc 1 900 36 discriminator 1 view .LVU954
 3032 0628 83BDFC01 		cmpl	$4, 508(%rbp)
 3032      000004
 3033 062f 0F8729FC 		ja	.L203
 3033      FFFF
 3034 0635 E927FBFF 		jmp	.L395
 3034      FF
 3035              	.LVL245:
 3036 063a 660F1F44 		.p2align 4,,10
 3036      0000
 3037              		.p2align 3
 3038              	.L282:
 900:fltk-1.3.4-1/png/pngpread.c ****             {
 3039              		.loc 1 900 36 discriminator 1 view .LVU955
 3040              	.LBE285:
 3041              	.LBB286:
 3042 0640 BB040000 		movl	$4, %ebx
 3042      00
 3043              	.LVL246:
 3044              	.L243:
 940:fltk-1.3.4-1/png/pngpread.c ****             {
 3045              		.loc 1 940 31 discriminator 3 view .LVU956
 3046 0645 3C02     		cmpb	$2, %al
 3047 0647 754E     		jne	.L244
 942:fltk-1.3.4-1/png/pngpread.c ****                png_read_push_finish_row(png_ptr);
 3048              		.loc 1 942 16 is_stmt 1 view .LVU957
 3049              	.LVL247:
 3050              	.LBB271:
 3051              	.LBI271:
1123:fltk-1.3.4-1/png/pngpread.c **** {
 3052              		.loc 1 1123 1 view .LVU958
 3053              	.LBB272:
1125:fltk-1.3.4-1/png/pngpread.c ****       (*(png_ptr->row_fn))(png_ptr, row, png_ptr->row_number,
 3054              		.loc 1 1125 4 view .LVU959
1125:fltk-1.3.4-1/png/pngpread.c ****       (*(png_ptr->row_fn))(png_ptr, row, png_ptr->row_number,
 3055              		.loc 1 1125 15 is_stmt 0 view .LVU960
 3056 0649 488B8528 		movq	808(%rbp), %rax
 3056      030000
 3057 0650 8B951402 		movl	532(%rbp), %edx
 3057      0000
1125:fltk-1.3.4-1/png/pngpread.c ****       (*(png_ptr->row_fn))(png_ptr, row, png_ptr->row_number,
 3058              		.loc 1 1125 7 view .LVU961
 3059 0656 4885C0   		testq	%rax, %rax
 3060 0659 7412     		je	.L245
 3061              		.loc 1 1126 7 is_stmt 1 view .LVU962
 3062              		.loc 1 1126 8 is_stmt 0 view .LVU963
 3063 065b B9020000 		movl	$2, %ecx
 3063      00
 3064 0660 31F6     		xorl	%esi, %esi
 3065 0662 4889EF   		movq	%rbp, %rdi
 3066 0665 FFD0     		call	*%rax
 3067              	.LVL248:
 3068 0667 8B951402 		movl	532(%rbp), %edx
 3068      0000
 3069              	.L245:
 3070              	.LVL249:
 3071              		.loc 1 1126 8 view .LVU964
 3072              	.LBE272:
 3073              	.LBE271:
 943:fltk-1.3.4-1/png/pngpread.c ****             }
 3074              		.loc 1 943 16 is_stmt 1 view .LVU965
 3075              	.LBB273:
 3076              	.LBI273:
1046:fltk-1.3.4-1/png/pngpread.c **** {
 3077              		.loc 1 1046 1 view .LVU966
 3078              	.LBB274:
1051:fltk-1.3.4-1/png/pngpread.c **** 
 3079              		.loc 1 1051 4 view .LVU967
1054:fltk-1.3.4-1/png/pngpread.c **** 
 3080              		.loc 1 1054 4 view .LVU968
1057:fltk-1.3.4-1/png/pngpread.c **** 
 3081              		.loc 1 1057 4 view .LVU969
1060:fltk-1.3.4-1/png/pngpread.c **** 
 3082              		.loc 1 1060 4 view .LVU970
1068:fltk-1.3.4-1/png/pngpread.c ****    if (png_ptr->row_number < png_ptr->num_rows)
 3083              		.loc 1 1068 4 view .LVU971
1068:fltk-1.3.4-1/png/pngpread.c ****    if (png_ptr->row_number < png_ptr->num_rows)
 3084              		.loc 1 1068 23 is_stmt 0 view .LVU972
 3085 066d 83C201   		addl	$1, %edx
 3086 0670 89951402 		movl	%edx, 532(%rbp)
 3086      0000
1069:fltk-1.3.4-1/png/pngpread.c ****       return;
 3087              		.loc 1 1069 4 is_stmt 1 view .LVU973
1069:fltk-1.3.4-1/png/pngpread.c ****       return;
 3088              		.loc 1 1069 7 is_stmt 0 view .LVU974
 3089 0676 3B950002 		cmpl	512(%rbp), %edx
 3089      0000
 3090 067c 720D     		jb	.L246
1072:fltk-1.3.4-1/png/pngpread.c ****    {
 3091              		.loc 1 1072 4 is_stmt 1 view .LVU975
1072:fltk-1.3.4-1/png/pngpread.c ****    {
 3092              		.loc 1 1072 7 is_stmt 0 view .LVU976
 3093 067e 80BD7402 		cmpb	$0, 628(%rbp)
 3093      000000
 3094 0685 0F855501 		jne	.L418
 3094      0000
 3095              	.L246:
 3096              	.LVL250:
1072:fltk-1.3.4-1/png/pngpread.c ****    {
 3097              		.loc 1 1072 7 view .LVU977
 3098              	.LBE274:
 3099              	.LBE273:
 940:fltk-1.3.4-1/png/pngpread.c ****             {
 3100              		.loc 1 940 54 is_stmt 1 view .LVU978
 940:fltk-1.3.4-1/png/pngpread.c ****             {
 3101              		.loc 1 940 25 view .LVU979
 3102 068b 0FB68575 		movzbl	629(%rbp), %eax
 3102      020000
 940:fltk-1.3.4-1/png/pngpread.c ****             {
 3103              		.loc 1 940 13 is_stmt 0 view .LVU980
 3104 0692 83EB01   		subl	$1, %ebx
 3105              	.LVL251:
 940:fltk-1.3.4-1/png/pngpread.c ****             {
 3106              		.loc 1 940 13 view .LVU981
 3107 0695 75AE     		jne	.L243
 3108              	.LVL252:
 3109              	.L244:
 946:fltk-1.3.4-1/png/pngpread.c ****             {
 3110              		.loc 1 946 13 is_stmt 1 view .LVU982
 946:fltk-1.3.4-1/png/pngpread.c ****             {
 3111              		.loc 1 946 16 is_stmt 0 view .LVU983
 3112 0697 3C04     		cmpb	$4, %al
 3113 0699 0F85BFFB 		jne	.L203
 3113      FFFF
 3114 069f BB020000 		movl	$2, %ebx
 3114      00
 3115              	.L250:
 3116              	.LVL253:
 950:fltk-1.3.4-1/png/pngpread.c ****                   png_read_push_finish_row(png_ptr);
 3117              		.loc 1 950 19 is_stmt 1 view .LVU984
 3118              	.LBB276:
 3119              	.LBI276:
1123:fltk-1.3.4-1/png/pngpread.c **** {
 3120              		.loc 1 1123 1 view .LVU985
 3121              	.LBB277:
1125:fltk-1.3.4-1/png/pngpread.c ****       (*(png_ptr->row_fn))(png_ptr, row, png_ptr->row_number,
 3122              		.loc 1 1125 4 view .LVU986
1125:fltk-1.3.4-1/png/pngpread.c ****       (*(png_ptr->row_fn))(png_ptr, row, png_ptr->row_number,
 3123              		.loc 1 1125 15 is_stmt 0 view .LVU987
 3124 06a4 488B8528 		movq	808(%rbp), %rax
 3124      030000
 3125 06ab 8B951402 		movl	532(%rbp), %edx
 3125      0000
1125:fltk-1.3.4-1/png/pngpread.c ****       (*(png_ptr->row_fn))(png_ptr, row, png_ptr->row_number,
 3126              		.loc 1 1125 7 view .LVU988
 3127 06b1 4885C0   		testq	%rax, %rax
 3128 06b4 7412     		je	.L248
 3129              		.loc 1 1126 7 is_stmt 1 view .LVU989
 3130              		.loc 1 1126 8 is_stmt 0 view .LVU990
 3131 06b6 B9040000 		movl	$4, %ecx
 3131      00
 3132 06bb 31F6     		xorl	%esi, %esi
 3133 06bd 4889EF   		movq	%rbp, %rdi
 3134 06c0 FFD0     		call	*%rax
 3135              	.LVL254:
 3136 06c2 8B951402 		movl	532(%rbp), %edx
 3136      0000
 3137              	.L248:
 3138              	.LVL255:
 3139              		.loc 1 1126 8 view .LVU991
 3140              	.LBE277:
 3141              	.LBE276:
 951:fltk-1.3.4-1/png/pngpread.c ****                }
 3142              		.loc 1 951 19 is_stmt 1 view .LVU992
 3143              	.LBB278:
 3144              	.LBI278:
1046:fltk-1.3.4-1/png/pngpread.c **** {
 3145              		.loc 1 1046 1 view .LVU993
 3146              	.LBB279:
1051:fltk-1.3.4-1/png/pngpread.c **** 
 3147              		.loc 1 1051 4 view .LVU994
1054:fltk-1.3.4-1/png/pngpread.c **** 
 3148              		.loc 1 1054 4 view .LVU995
1057:fltk-1.3.4-1/png/pngpread.c **** 
 3149              		.loc 1 1057 4 view .LVU996
1060:fltk-1.3.4-1/png/pngpread.c **** 
 3150              		.loc 1 1060 4 view .LVU997
1068:fltk-1.3.4-1/png/pngpread.c ****    if (png_ptr->row_number < png_ptr->num_rows)
 3151              		.loc 1 1068 4 view .LVU998
1068:fltk-1.3.4-1/png/pngpread.c ****    if (png_ptr->row_number < png_ptr->num_rows)
 3152              		.loc 1 1068 23 is_stmt 0 view .LVU999
 3153 06c8 83C201   		addl	$1, %edx
 3154 06cb 89951402 		movl	%edx, 532(%rbp)
 3154      0000
1069:fltk-1.3.4-1/png/pngpread.c ****       return;
 3155              		.loc 1 1069 4 is_stmt 1 view .LVU1000
1069:fltk-1.3.4-1/png/pngpread.c ****       return;
 3156              		.loc 1 1069 7 is_stmt 0 view .LVU1001
 3157 06d1 3B950002 		cmpl	512(%rbp), %edx
 3157      0000
 3158 06d7 720D     		jb	.L249
1072:fltk-1.3.4-1/png/pngpread.c ****    {
 3159              		.loc 1 1072 4 is_stmt 1 view .LVU1002
1072:fltk-1.3.4-1/png/pngpread.c ****    {
 3160              		.loc 1 1072 7 is_stmt 0 view .LVU1003
 3161 06d9 80BD7402 		cmpb	$0, 628(%rbp)
 3161      000000
 3162 06e0 0F854F02 		jne	.L419
 3162      0000
 3163              	.L249:
 3164              	.LVL256:
1072:fltk-1.3.4-1/png/pngpread.c ****    {
 3165              		.loc 1 1072 7 view .LVU1004
 3166              	.LBE279:
 3167              	.LBE278:
 948:fltk-1.3.4-1/png/pngpread.c ****                {
 3168              		.loc 1 948 57 is_stmt 1 view .LVU1005
 948:fltk-1.3.4-1/png/pngpread.c ****                {
 3169              		.loc 1 948 28 view .LVU1006
 948:fltk-1.3.4-1/png/pngpread.c ****                {
 3170              		.loc 1 948 16 is_stmt 0 view .LVU1007
 3171 06e6 83FB01   		cmpl	$1, %ebx
 3172 06e9 0F846FFB 		je	.L203
 3172      FFFF
 948:fltk-1.3.4-1/png/pngpread.c ****                {
 3173              		.loc 1 948 34 discriminator 3 view .LVU1008
 3174 06ef 80BD7502 		cmpb	$4, 629(%rbp)
 3174      000004
 3175 06f6 BB010000 		movl	$1, %ebx
 3175      00
 3176              	.LVL257:
 948:fltk-1.3.4-1/png/pngpread.c ****                {
 3177              		.loc 1 948 34 discriminator 3 view .LVU1009
 3178 06fb 74A7     		je	.L250
 3179 06fd E95CFBFF 		jmp	.L203
 3179      FF
 3180              	.LVL258:
 3181              		.p2align 4,,10
 3182 0702 660F1F44 		.p2align 3
 3182      0000
 3183              	.L253:
 948:fltk-1.3.4-1/png/pngpread.c ****                {
 3184              		.loc 1 948 34 discriminator 3 view .LVU1010
 3185              	.LBE286:
 3186              	.LBB287:
 968:fltk-1.3.4-1/png/pngpread.c ****             {
 3187              		.loc 1 968 13 is_stmt 1 view .LVU1011
 968:fltk-1.3.4-1/png/pngpread.c ****             {
 3188              		.loc 1 968 16 is_stmt 0 view .LVU1012
 3189 0708 3C04     		cmpb	$4, %al
 3190 070a 0F854EFB 		jne	.L203
 3190      FFFF
 3191 0710 BB020000 		movl	$2, %ebx
 3191      00
 3192              	.LVL259:
 3193              	.L256:
 972:fltk-1.3.4-1/png/pngpread.c ****                   png_read_push_finish_row(png_ptr);
 3194              		.loc 1 972 19 is_stmt 1 view .LVU1013
 3195              	.LBB239:
 3196              	.LBI239:
1123:fltk-1.3.4-1/png/pngpread.c **** {
 3197              		.loc 1 1123 1 view .LVU1014
 3198              	.LBB240:
1125:fltk-1.3.4-1/png/pngpread.c ****       (*(png_ptr->row_fn))(png_ptr, row, png_ptr->row_number,
 3199              		.loc 1 1125 4 view .LVU1015
1125:fltk-1.3.4-1/png/pngpread.c ****       (*(png_ptr->row_fn))(png_ptr, row, png_ptr->row_number,
 3200              		.loc 1 1125 15 is_stmt 0 view .LVU1016
 3201 0715 488B8528 		movq	808(%rbp), %rax
 3201      030000
 3202 071c 8B951402 		movl	532(%rbp), %edx
 3202      0000
1125:fltk-1.3.4-1/png/pngpread.c ****       (*(png_ptr->row_fn))(png_ptr, row, png_ptr->row_number,
 3203              		.loc 1 1125 7 view .LVU1017
 3204 0722 4885C0   		testq	%rax, %rax
 3205 0725 7412     		je	.L254
 3206              		.loc 1 1126 7 is_stmt 1 view .LVU1018
 3207              		.loc 1 1126 8 is_stmt 0 view .LVU1019
 3208 0727 B9040000 		movl	$4, %ecx
 3208      00
 3209 072c 31F6     		xorl	%esi, %esi
 3210 072e 4889EF   		movq	%rbp, %rdi
 3211 0731 FFD0     		call	*%rax
 3212              	.LVL260:
 3213 0733 8B951402 		movl	532(%rbp), %edx
 3213      0000
 3214              	.L254:
 3215              	.LVL261:
 3216              		.loc 1 1126 8 view .LVU1020
 3217              	.LBE240:
 3218              	.LBE239:
 973:fltk-1.3.4-1/png/pngpread.c ****                }
 3219              		.loc 1 973 19 is_stmt 1 view .LVU1021
 3220              	.LBB241:
 3221              	.LBI241:
1046:fltk-1.3.4-1/png/pngpread.c **** {
 3222              		.loc 1 1046 1 view .LVU1022
 3223              	.LBB242:
1051:fltk-1.3.4-1/png/pngpread.c **** 
 3224              		.loc 1 1051 4 view .LVU1023
1054:fltk-1.3.4-1/png/pngpread.c **** 
 3225              		.loc 1 1054 4 view .LVU1024
1057:fltk-1.3.4-1/png/pngpread.c **** 
 3226              		.loc 1 1057 4 view .LVU1025
1060:fltk-1.3.4-1/png/pngpread.c **** 
 3227              		.loc 1 1060 4 view .LVU1026
1068:fltk-1.3.4-1/png/pngpread.c ****    if (png_ptr->row_number < png_ptr->num_rows)
 3228              		.loc 1 1068 4 view .LVU1027
1068:fltk-1.3.4-1/png/pngpread.c ****    if (png_ptr->row_number < png_ptr->num_rows)
 3229              		.loc 1 1068 23 is_stmt 0 view .LVU1028
 3230 0739 83C201   		addl	$1, %edx
 3231 073c 89951402 		movl	%edx, 532(%rbp)
 3231      0000
1069:fltk-1.3.4-1/png/pngpread.c ****       return;
 3232              		.loc 1 1069 4 is_stmt 1 view .LVU1029
1069:fltk-1.3.4-1/png/pngpread.c ****       return;
 3233              		.loc 1 1069 7 is_stmt 0 view .LVU1030
 3234 0742 3B950002 		cmpl	512(%rbp), %edx
 3234      0000
 3235 0748 720D     		jb	.L255
1072:fltk-1.3.4-1/png/pngpread.c ****    {
 3236              		.loc 1 1072 4 is_stmt 1 view .LVU1031
1072:fltk-1.3.4-1/png/pngpread.c ****    {
 3237              		.loc 1 1072 7 is_stmt 0 view .LVU1032
 3238 074a 80BD7402 		cmpb	$0, 628(%rbp)
 3238      000000
 3239 0751 0F85D101 		jne	.L420
 3239      0000
 3240              	.L255:
 3241              	.LVL262:
1072:fltk-1.3.4-1/png/pngpread.c ****    {
 3242              		.loc 1 1072 7 view .LVU1033
 3243              	.LBE242:
 3244              	.LBE241:
 970:fltk-1.3.4-1/png/pngpread.c ****                {
 3245              		.loc 1 970 57 is_stmt 1 view .LVU1034
 970:fltk-1.3.4-1/png/pngpread.c ****                {
 3246              		.loc 1 970 28 view .LVU1035
 970:fltk-1.3.4-1/png/pngpread.c ****                {
 3247              		.loc 1 970 16 is_stmt 0 view .LVU1036
 3248 0757 83FB01   		cmpl	$1, %ebx
 3249 075a 0F84FEFA 		je	.L203
 3249      FFFF
 970:fltk-1.3.4-1/png/pngpread.c ****                {
 3250              		.loc 1 970 34 discriminator 3 view .LVU1037
 3251 0760 80BD7502 		cmpb	$4, 629(%rbp)
 3251      000004
 3252 0767 BB010000 		movl	$1, %ebx
 3252      00
 3253              	.LVL263:
 970:fltk-1.3.4-1/png/pngpread.c ****                {
 3254              		.loc 1 970 34 discriminator 3 view .LVU1038
 3255 076c 74A7     		je	.L256
 3256 076e E9EBFAFF 		jmp	.L203
 3256      FF
 3257              	.LVL264:
 3258              		.p2align 4,,10
 3259 0773 0F1F4400 		.p2align 3
 3259      00
 3260              	.L407:
 970:fltk-1.3.4-1/png/pngpread.c ****                {
 3261              		.loc 1 970 34 discriminator 3 view .LVU1039
 3262              	.LBE287:
 3263              	.LBB288:
1009:fltk-1.3.4-1/png/pngpread.c ****             {
 3264              		.loc 1 1009 31 discriminator 3 view .LVU1040
 3265 0778 3C05     		cmpb	$5, %al
 3266 077a 0F856DFB 		jne	.L268
 3266      FFFF
 3267 0780 488B8528 		movq	552(%rbp), %rax
 3267      020000
 3268 0787 8B951402 		movl	532(%rbp), %edx
 3268      0000
1009:fltk-1.3.4-1/png/pngpread.c ****             {
 3269              		.loc 1 1009 31 view .LVU1041
 3270 078d BB010000 		movl	$1, %ebx
 3270      00
 3271              	.LVL265:
1009:fltk-1.3.4-1/png/pngpread.c ****             {
 3272              		.loc 1 1009 31 view .LVU1042
 3273 0792 4C8B8528 		movq	808(%rbp), %r8
 3273      030000
 3274 0799 E907FBFF 		jmp	.L214
 3274      FF
 3275              	.LVL266:
 3276 079e 6690     		.p2align 4,,10
 3277              		.p2align 3
 3278              	.L411:
1009:fltk-1.3.4-1/png/pngpread.c ****             {
 3279              		.loc 1 1009 31 view .LVU1043
 3280              	.LBE288:
 3281              	.LBB289:
 984:fltk-1.3.4-1/png/pngpread.c ****             {
 3282              		.loc 1 984 31 discriminator 3 view .LVU1044
 3283 07a0 3C04     		cmpb	$4, %al
 3284 07a2 0F8545FB 		jne	.L268
 3284      FFFF
 3285 07a8 488B8528 		movq	552(%rbp), %rax
 3285      020000
 3286 07af 8B951402 		movl	532(%rbp), %edx
 3286      0000
 984:fltk-1.3.4-1/png/pngpread.c ****             {
 3287              		.loc 1 984 31 view .LVU1045
 3288 07b5 BB010000 		movl	$1, %ebx
 3288      00
 3289              	.LVL267:
 984:fltk-1.3.4-1/png/pngpread.c ****             {
 3290              		.loc 1 984 31 view .LVU1046
 3291 07ba 4C8B8528 		movq	808(%rbp), %r8
 3291      030000
 3292 07c1 E9AFFCFF 		jmp	.L216
 3292      FF
 3293              	.LVL268:
 3294 07c6 662E0F1F 		.p2align 4,,10
 3294      84000000 
 3294      0000
 3295              		.p2align 3
 3296              	.L413:
 984:fltk-1.3.4-1/png/pngpread.c ****             {
 3297              		.loc 1 984 31 view .LVU1047
 3298              	.LBE289:
 3299              	.LBB290:
 3300              	.LBB281:
 3301              	.LBB269:
 3302 07d0 4889EF   		movq	%rbp, %rdi
 3303 07d3 E8000000 		call	png_read_push_finish_row.part.0
 3303      00
 3304              	.LVL269:
 3305 07d8 E990FDFF 		jmp	.L242
 3305      FF
 3306              	.LVL270:
 3307 07dd 0F1F00   		.p2align 4,,10
 3308              		.p2align 3
 3309              	.L418:
 984:fltk-1.3.4-1/png/pngpread.c ****             {
 3310              		.loc 1 984 31 view .LVU1048
 3311              	.LBE269:
 3312              	.LBE281:
 3313              	.LBB282:
 3314              	.LBB275:
 3315 07e0 4889EF   		movq	%rbp, %rdi
 3316 07e3 E8000000 		call	png_read_push_finish_row.part.0
 3316      00
 3317              	.LVL271:
 3318 07e8 E99EFEFF 		jmp	.L246
 3318      FF
 3319              	.LVL272:
 3320 07ed 0F1F00   		.p2align 4,,10
 3321              		.p2align 3
 3322              	.L408:
 984:fltk-1.3.4-1/png/pngpread.c ****             {
 3323              		.loc 1 984 31 view .LVU1049
 3324              	.LBE275:
 3325              	.LBE282:
 3326              	.LBE290:
 3327              	.LBB291:
 3328              	.LBB244:
 3329              	.LBB237:
 3330 07f0 4889EF   		movq	%rbp, %rdi
 3331 07f3 E8000000 		call	png_read_push_finish_row.part.0
 3331      00
 3332              	.LVL273:
 3333 07f8 E940FCFF 		jmp	.L252
 3333      FF
 3334              	.LVL274:
 3335 07fd 0F1F00   		.p2align 4,,10
 3336              		.p2align 3
 3337              	.L410:
 984:fltk-1.3.4-1/png/pngpread.c ****             {
 3338              		.loc 1 984 31 view .LVU1050
 3339              	.LBE237:
 3340              	.LBE244:
 3341              	.LBE291:
 3342              	.LBB292:
 3343              	.LBB259:
 3344              	.LBB253:
 3345 0800 4889EF   		movq	%rbp, %rdi
 3346 0803 E8000000 		call	png_read_push_finish_row.part.0
 3346      00
 3347              	.LVL275:
 3348 0808 E9A0FCFF 		jmp	.L258
 3348      FF
 3349              	.LVL276:
 3350 080d 0F1F00   		.p2align 4,,10
 3351              		.p2align 3
 3352              	.L406:
 984:fltk-1.3.4-1/png/pngpread.c ****             {
 3353              		.loc 1 984 31 view .LVU1051
 3354              	.LBE253:
 3355              	.LBE259:
 3356              	.LBE292:
 3357              	.LBB293:
 3358              	.LBB214:
 3359              	.LBB213:
 3360 0810 4889EF   		movq	%rbp, %rdi
 3361 0813 E8000000 		call	png_read_push_finish_row.part.0
 3361      00
 3362              	.LVL277:
 3363 0818 E9C0FAFF 		jmp	.L267
 3363      FF
 3364              	.LVL278:
 3365 081d 0F1F00   		.p2align 4,,10
 3366              		.p2align 3
 3367              	.L412:
 984:fltk-1.3.4-1/png/pngpread.c ****             {
 3368              		.loc 1 984 31 view .LVU1052
 3369              	.LBE213:
 3370              	.LBE214:
 3371              	.LBE293:
 3372              	.LBB294:
 3373              	.LBB260:
 3374              	.LBB258:
 3375 0820 4889EF   		movq	%rbp, %rdi
 3376 0823 E8000000 		call	png_read_push_finish_row.part.0
 3376      00
 3377              	.LVL279:
 3378 0828 E9DFFCFF 		jmp	.L262
 3378      FF
 3379              	.LVL280:
 3380 082d 0F1F00   		.p2align 4,,10
 3381              		.p2align 3
 3382              	.L417:
 984:fltk-1.3.4-1/png/pngpread.c ****             {
 3383              		.loc 1 984 31 view .LVU1053
 3384              	.LBE258:
 3385              	.LBE260:
 3386              	.LBE294:
 3387              	.LBB295:
 891:fltk-1.3.4-1/png/pngpread.c ****             {
 3388              		.loc 1 891 36 discriminator 1 view .LVU1054
 3389 0830 83BDFC01 		cmpl	$4, 508(%rbp)
 3389      000004
 3390 0837 0F8721FA 		ja	.L203
 3390      FFFF
 3391 083d BB020000 		movl	$2, %ebx
 3391      00
 3392              	.L229:
 3393              	.LVL281:
 895:fltk-1.3.4-1/png/pngpread.c ****                   png_read_push_finish_row(png_ptr);
 3394              		.loc 1 895 19 is_stmt 1 view .LVU1055
 3395              	.LBB193:
 3396              	.LBI193:
1123:fltk-1.3.4-1/png/pngpread.c **** {
 3397              		.loc 1 1123 1 view .LVU1056
 3398              	.LBB194:
1125:fltk-1.3.4-1/png/pngpread.c ****       (*(png_ptr->row_fn))(png_ptr, row, png_ptr->row_number,
 3399              		.loc 1 1125 4 view .LVU1057
1125:fltk-1.3.4-1/png/pngpread.c ****       (*(png_ptr->row_fn))(png_ptr, row, png_ptr->row_number,
 3400              		.loc 1 1125 15 is_stmt 0 view .LVU1058
 3401 0842 488B8528 		movq	808(%rbp), %rax
 3401      030000
 3402 0849 8B951402 		movl	532(%rbp), %edx
 3402      0000
1125:fltk-1.3.4-1/png/pngpread.c ****       (*(png_ptr->row_fn))(png_ptr, row, png_ptr->row_number,
 3403              		.loc 1 1125 7 view .LVU1059
 3404 084f 4885C0   		testq	%rax, %rax
 3405 0852 7412     		je	.L231
 3406              		.loc 1 1126 7 is_stmt 1 view .LVU1060
 3407              		.loc 1 1126 8 is_stmt 0 view .LVU1061
 3408 0854 B9040000 		movl	$4, %ecx
 3408      00
 3409 0859 31F6     		xorl	%esi, %esi
 3410 085b 4889EF   		movq	%rbp, %rdi
 3411 085e FFD0     		call	*%rax
 3412              	.LVL282:
 3413 0860 8B951402 		movl	532(%rbp), %edx
 3413      0000
 3414              	.L231:
 3415              	.LVL283:
 3416              		.loc 1 1126 8 view .LVU1062
 3417              	.LBE194:
 3418              	.LBE193:
 896:fltk-1.3.4-1/png/pngpread.c ****                }
 3419              		.loc 1 896 19 is_stmt 1 view .LVU1063
 3420              	.LBB195:
 3421              	.LBI195:
1046:fltk-1.3.4-1/png/pngpread.c **** {
 3422              		.loc 1 1046 1 view .LVU1064
 3423              	.LBB196:
1051:fltk-1.3.4-1/png/pngpread.c **** 
 3424              		.loc 1 1051 4 view .LVU1065
1054:fltk-1.3.4-1/png/pngpread.c **** 
 3425              		.loc 1 1054 4 view .LVU1066
1057:fltk-1.3.4-1/png/pngpread.c **** 
 3426              		.loc 1 1057 4 view .LVU1067
1060:fltk-1.3.4-1/png/pngpread.c **** 
 3427              		.loc 1 1060 4 view .LVU1068
1068:fltk-1.3.4-1/png/pngpread.c ****    if (png_ptr->row_number < png_ptr->num_rows)
 3428              		.loc 1 1068 4 view .LVU1069
1068:fltk-1.3.4-1/png/pngpread.c ****    if (png_ptr->row_number < png_ptr->num_rows)
 3429              		.loc 1 1068 23 is_stmt 0 view .LVU1070
 3430 0866 83C201   		addl	$1, %edx
 3431 0869 89951402 		movl	%edx, 532(%rbp)
 3431      0000
1069:fltk-1.3.4-1/png/pngpread.c ****       return;
 3432              		.loc 1 1069 4 is_stmt 1 view .LVU1071
1069:fltk-1.3.4-1/png/pngpread.c ****       return;
 3433              		.loc 1 1069 7 is_stmt 0 view .LVU1072
 3434 086f 3B950002 		cmpl	512(%rbp), %edx
 3434      0000
 3435 0875 720D     		jb	.L232
1072:fltk-1.3.4-1/png/pngpread.c ****    {
 3436              		.loc 1 1072 4 is_stmt 1 view .LVU1073
1072:fltk-1.3.4-1/png/pngpread.c ****    {
 3437              		.loc 1 1072 7 is_stmt 0 view .LVU1074
 3438 0877 80BD7402 		cmpb	$0, 628(%rbp)
 3438      000000
 3439 087e 0F85BE00 		jne	.L421
 3439      0000
 3440              	.L232:
 3441              	.LVL284:
1072:fltk-1.3.4-1/png/pngpread.c ****    {
 3442              		.loc 1 1072 7 view .LVU1075
 3443              	.LBE196:
 3444              	.LBE195:
 893:fltk-1.3.4-1/png/pngpread.c ****                {
 3445              		.loc 1 893 57 is_stmt 1 view .LVU1076
 893:fltk-1.3.4-1/png/pngpread.c ****                {
 3446              		.loc 1 893 28 view .LVU1077
 3447 0884 0FB68575 		movzbl	629(%rbp), %eax
 3447      020000
 893:fltk-1.3.4-1/png/pngpread.c ****                {
 3448              		.loc 1 893 16 is_stmt 0 view .LVU1078
 3449 088b 83FB01   		cmpl	$1, %ebx
 3450 088e 0F848CFD 		je	.L228
 3450      FFFF
 893:fltk-1.3.4-1/png/pngpread.c ****                {
 3451              		.loc 1 893 16 view .LVU1079
 3452 0894 BB010000 		movl	$1, %ebx
 3452      00
 3453              	.LVL285:
 893:fltk-1.3.4-1/png/pngpread.c ****                {
 3454              		.loc 1 893 34 discriminator 3 view .LVU1080
 3455 0899 3C04     		cmpb	$4, %al
 3456 089b 74A5     		je	.L229
 3457 089d E97EFDFF 		jmp	.L228
 3457      FF
 3458              	.LVL286:
 3459              		.p2align 4,,10
 3460 08a2 660F1F44 		.p2align 3
 3460      0000
 3461              	.L416:
 893:fltk-1.3.4-1/png/pngpread.c ****                {
 3462              		.loc 1 893 34 discriminator 3 view .LVU1081
 3463 08a8 BB040000 		movl	$4, %ebx
 3463      00
 3464              	.LVL287:
 3465              	.L227:
 886:fltk-1.3.4-1/png/pngpread.c ****                   png_read_push_finish_row(png_ptr);
 3466              		.loc 1 886 19 is_stmt 1 view .LVU1082
 3467              	.LBB198:
 3468              	.LBI198:
1123:fltk-1.3.4-1/png/pngpread.c **** {
 3469              		.loc 1 1123 1 view .LVU1083
 3470              	.LBB199:
1125:fltk-1.3.4-1/png/pngpread.c ****       (*(png_ptr->row_fn))(png_ptr, row, png_ptr->row_number,
 3471              		.loc 1 1125 4 view .LVU1084
1125:fltk-1.3.4-1/png/pngpread.c ****       (*(png_ptr->row_fn))(png_ptr, row, png_ptr->row_number,
 3472              		.loc 1 1125 15 is_stmt 0 view .LVU1085
 3473 08ad 488B8528 		movq	808(%rbp), %rax
 3473      030000
 3474 08b4 8B951402 		movl	532(%rbp), %edx
 3474      0000
1125:fltk-1.3.4-1/png/pngpread.c ****       (*(png_ptr->row_fn))(png_ptr, row, png_ptr->row_number,
 3475              		.loc 1 1125 7 view .LVU1086
 3476 08ba 4885C0   		testq	%rax, %rax
 3477 08bd 7412     		je	.L225
 3478              		.loc 1 1126 7 is_stmt 1 view .LVU1087
 3479              		.loc 1 1126 8 is_stmt 0 view .LVU1088
 3480 08bf B9020000 		movl	$2, %ecx
 3480      00
 3481 08c4 31F6     		xorl	%esi, %esi
 3482 08c6 4889EF   		movq	%rbp, %rdi
 3483 08c9 FFD0     		call	*%rax
 3484              	.LVL288:
 3485 08cb 8B951402 		movl	532(%rbp), %edx
 3485      0000
 3486              	.L225:
 3487              	.LVL289:
 3488              		.loc 1 1126 8 view .LVU1089
 3489              	.LBE199:
 3490              	.LBE198:
 887:fltk-1.3.4-1/png/pngpread.c ****                }
 3491              		.loc 1 887 19 is_stmt 1 view .LVU1090
 3492              	.LBB200:
 3493              	.LBI200:
1046:fltk-1.3.4-1/png/pngpread.c **** {
 3494              		.loc 1 1046 1 view .LVU1091
 3495              	.LBB201:
1051:fltk-1.3.4-1/png/pngpread.c **** 
 3496              		.loc 1 1051 4 view .LVU1092
1054:fltk-1.3.4-1/png/pngpread.c **** 
 3497              		.loc 1 1054 4 view .LVU1093
1057:fltk-1.3.4-1/png/pngpread.c **** 
 3498              		.loc 1 1057 4 view .LVU1094
1060:fltk-1.3.4-1/png/pngpread.c **** 
 3499              		.loc 1 1060 4 view .LVU1095
1068:fltk-1.3.4-1/png/pngpread.c ****    if (png_ptr->row_number < png_ptr->num_rows)
 3500              		.loc 1 1068 4 view .LVU1096
1068:fltk-1.3.4-1/png/pngpread.c ****    if (png_ptr->row_number < png_ptr->num_rows)
 3501              		.loc 1 1068 23 is_stmt 0 view .LVU1097
 3502 08d1 83C201   		addl	$1, %edx
 3503 08d4 89951402 		movl	%edx, 532(%rbp)
 3503      0000
1069:fltk-1.3.4-1/png/pngpread.c ****       return;
 3504              		.loc 1 1069 4 is_stmt 1 view .LVU1098
1069:fltk-1.3.4-1/png/pngpread.c ****       return;
 3505              		.loc 1 1069 7 is_stmt 0 view .LVU1099
 3506 08da 3B950002 		cmpl	512(%rbp), %edx
 3506      0000
 3507 08e0 7209     		jb	.L226
1072:fltk-1.3.4-1/png/pngpread.c ****    {
 3508              		.loc 1 1072 4 is_stmt 1 view .LVU1100
1072:fltk-1.3.4-1/png/pngpread.c ****    {
 3509              		.loc 1 1072 7 is_stmt 0 view .LVU1101
 3510 08e2 80BD7402 		cmpb	$0, 628(%rbp)
 3510      000000
 3511 08e9 7519     		jne	.L422
 3512              	.L226:
 3513              	.LVL290:
1072:fltk-1.3.4-1/png/pngpread.c ****    {
 3514              		.loc 1 1072 7 view .LVU1102
 3515              	.LBE201:
 3516              	.LBE200:
 884:fltk-1.3.4-1/png/pngpread.c ****                {
 3517              		.loc 1 884 57 is_stmt 1 view .LVU1103
 884:fltk-1.3.4-1/png/pngpread.c ****                {
 3518              		.loc 1 884 28 view .LVU1104
 3519 08eb 0FB68575 		movzbl	629(%rbp), %eax
 3519      020000
 884:fltk-1.3.4-1/png/pngpread.c ****                {
 3520              		.loc 1 884 16 is_stmt 0 view .LVU1105
 3521 08f2 83EB01   		subl	$1, %ebx
 3522              	.LVL291:
 884:fltk-1.3.4-1/png/pngpread.c ****                {
 3523              		.loc 1 884 16 view .LVU1106
 3524 08f5 0F841DFD 		je	.L224
 3524      FFFF
 884:fltk-1.3.4-1/png/pngpread.c ****                {
 3525              		.loc 1 884 34 discriminator 3 view .LVU1107
 3526 08fb 3C02     		cmpb	$2, %al
 3527 08fd 74AE     		je	.L227
 3528 08ff E914FDFF 		jmp	.L224
 3528      FF
 3529              	.LVL292:
 3530              	.L422:
 3531              	.LBB203:
 3532              	.LBB202:
 884:fltk-1.3.4-1/png/pngpread.c ****                {
 3533              		.loc 1 884 34 discriminator 3 view .LVU1108
 3534 0904 4889EF   		movq	%rbp, %rdi
 3535 0907 E8000000 		call	png_read_push_finish_row.part.0
 3535      00
 3536              	.LVL293:
 3537 090c EBDD     		jmp	.L226
 3538              	.LVL294:
 3539              	.L415:
 884:fltk-1.3.4-1/png/pngpread.c ****                {
 3540              		.loc 1 884 34 discriminator 3 view .LVU1109
 3541              	.LBE202:
 3542              	.LBE203:
 3543              	.LBE295:
 3544              	.LBB296:
 3545              	.LBB228:
 3546              	.LBB227:
 3547 090e 4889EF   		movq	%rbp, %rdi
 3548 0911 E8000000 		call	png_read_push_finish_row.part.0
 3548      00
 3549              	.LVL295:
 3550 0916 E9D4FCFF 		jmp	.L239
 3550      FF
 3551              	.LVL296:
 3552              	.L403:
 884:fltk-1.3.4-1/png/pngpread.c ****                {
 3553              		.loc 1 884 34 discriminator 3 view .LVU1110
 3554              	.LBE227:
 3555              	.LBE228:
 3556              	.LBE296:
 3557              	.LBB297:
 3558              	.LBB173:
 3559 091b 4889EF   		movq	%rbp, %rdi
 3560 091e E8000000 		call	png_read_push_finish_row.part.0
 3560      00
 3561              	.LVL297:
 3562 0923 E92CF8FF 		jmp	.L271
 3562      FF
 3563              	.LVL298:
 3564              	.L420:
 884:fltk-1.3.4-1/png/pngpread.c ****                {
 3565              		.loc 1 884 34 discriminator 3 view .LVU1111
 3566              	.LBE173:
 3567              	.LBE297:
 3568              	.LBB298:
 3569              	.LBB245:
 3570              	.LBB243:
 3571 0928 4889EF   		movq	%rbp, %rdi
 3572 092b E8000000 		call	png_read_push_finish_row.part.0
 3572      00
 3573              	.LVL299:
 3574 0930 E922FEFF 		jmp	.L255
 3574      FF
 3575              	.LVL300:
 3576              	.L419:
 884:fltk-1.3.4-1/png/pngpread.c ****                {
 3577              		.loc 1 884 34 discriminator 3 view .LVU1112
 3578              	.LBE243:
 3579              	.LBE245:
 3580              	.LBE298:
 3581              	.LBB299:
 3582              	.LBB283:
 3583              	.LBB280:
 3584 0935 4889EF   		movq	%rbp, %rdi
 3585 0938 E8000000 		call	png_read_push_finish_row.part.0
 3585      00
 3586              	.LVL301:
 3587 093d E9A4FDFF 		jmp	.L249
 3587      FF
 3588              	.LVL302:
 3589              	.L421:
 884:fltk-1.3.4-1/png/pngpread.c ****                {
 3590              		.loc 1 884 34 discriminator 3 view .LVU1113
 3591              	.LBE280:
 3592              	.LBE283:
 3593              	.LBE299:
 3594              	.LBB300:
 3595              	.LBB204:
 3596              	.LBB197:
 3597 0942 4889EF   		movq	%rbp, %rdi
 3598 0945 E8000000 		call	png_read_push_finish_row.part.0
 3598      00
 3599              	.LVL303:
 3600 094a E935FFFF 		jmp	.L232
 3600      FF
 3601              	.LVL304:
 3602              	.L405:
 884:fltk-1.3.4-1/png/pngpread.c ****                {
 3603              		.loc 1 884 34 discriminator 3 view .LVU1114
 3604              	.LBE197:
 3605              	.LBE204:
 3606              	.LBE300:
1043:fltk-1.3.4-1/png/pngpread.c **** 
 3607              		.loc 1 1043 1 view .LVU1115
 3608 094f E8000000 		call	__stack_chk_fail@PLT
 3608      00
 3609              	.LVL305:
 3610              	.L207:
 835:fltk-1.3.4-1/png/pngpread.c ****    }
 3611              		.loc 1 835 10 is_stmt 1 view .LVU1116
 3612 0954 488D3500 		leaq	.LC10(%rip), %rsi
 3612      000000
 3613 095b 4889EF   		movq	%rbp, %rdi
 3614              	.LVL306:
 835:fltk-1.3.4-1/png/pngpread.c ****    }
 3615              		.loc 1 835 10 is_stmt 0 view .LVU1117
 3616 095e E8000000 		call	png_error@PLT
 3616      00
 3617              	.LVL307:
 3618              	.L401:
 859:fltk-1.3.4-1/png/pngpread.c **** 
 3619              		.loc 1 859 7 is_stmt 1 view .LVU1118
 3620 0963 488D3500 		leaq	.LC12(%rip), %rsi
 3620      000000
 3621 096a 4889EF   		movq	%rbp, %rdi
 3622 096d E8000000 		call	png_error@PLT
 3622      00
 3623              	.LVL308:
 3624              		.cfi_endproc
 3625              	.LFE54:
 3627              		.section	.rodata.png_process_IDAT_data.str1.1,"aMS",@progbits,1
 3628              	.LC13:
 3629 0000 4E6F2049 		.string	"No IDAT data (internal error)"
 3629      44415420 
 3629      64617461 
 3629      2028696E 
 3629      7465726E 
 3630              		.section	.rodata.png_process_IDAT_data.str1.8,"aMS",@progbits,1
 3631              		.align 8
 3632              	.LC14:
 3633 0000 5472756E 		.string	"Truncated compressed data in IDAT"
 3633      63617465 
 3633      6420636F 
 3633      6D707265 
 3633      73736564 
 3634              		.section	.rodata.png_process_IDAT_data.str1.1
 3635              	.LC15:
 3636 001e 4465636F 		.string	"Decompression error in IDAT"
 3636      6D707265 
 3636      7373696F 
 3636      6E206572 
 3636      726F7220 
 3637              	.LC16:
 3638 003a 45787472 		.string	"Extra compressed data in IDAT"
 3638      6120636F 
 3638      6D707265 
 3638      73736564 
 3638      20646174 
 3639              		.section	.rodata.png_process_IDAT_data.str1.8
 3640 0022 00000000 		.align 8
 3640      0000
 3641              	.LC17:
 3642 0028 45787472 		.string	"Extra compression data in IDAT"
 3642      6120636F 
 3642      6D707265 
 3642      7373696F 
 3642      6E206461 
 3643              		.section	.text.png_process_IDAT_data,"ax",@progbits
 3644              		.p2align 4
 3645              		.globl	png_process_IDAT_data
 3647              	png_process_IDAT_data:
 3648              	.LVL309:
 3649              	.LFB53:
 712:fltk-1.3.4-1/png/pngpread.c ****    /* The caller checks for a non-zero buffer length. */
 3650              		.loc 1 712 1 view -0
 3651              		.cfi_startproc
 712:fltk-1.3.4-1/png/pngpread.c ****    /* The caller checks for a non-zero buffer length. */
 3652              		.loc 1 712 1 is_stmt 0 view .LVU1120
 3653 0000 F30F1EFA 		endbr64
 3654 0004 4154     		pushq	%r12
 3655              		.cfi_def_cfa_offset 16
 3656              		.cfi_offset 12, -16
 3657 0006 55       		pushq	%rbp
 3658              		.cfi_def_cfa_offset 24
 3659              		.cfi_offset 6, -24
 3660 0007 4889FD   		movq	%rdi, %rbp
 714:fltk-1.3.4-1/png/pngpread.c ****       png_error(png_ptr, "No IDAT data (internal error)");
 3661              		.loc 1 714 4 is_stmt 1 view .LVU1121
 712:fltk-1.3.4-1/png/pngpread.c ****    /* The caller checks for a non-zero buffer length. */
 3662              		.loc 1 712 1 is_stmt 0 view .LVU1122
 3663 000a 53       		pushq	%rbx
 3664              		.cfi_def_cfa_offset 32
 3665              		.cfi_offset 3, -32
 714:fltk-1.3.4-1/png/pngpread.c ****       png_error(png_ptr, "No IDAT data (internal error)");
 3666              		.loc 1 714 7 view .LVU1123
 3667 000b 4885D2   		testq	%rdx, %rdx
 3668 000e 0F849E01 		je	.L440
 3668      0000
 3669 0014 4885F6   		testq	%rsi, %rsi
 3670 0017 0F849501 		je	.L440
 3670      0000
 721:fltk-1.3.4-1/png/pngpread.c ****    /* TODO: WARNING: TRUNCATION ERROR: DANGER WILL ROBINSON: */
 3671              		.loc 1 721 4 is_stmt 1 view .LVU1124
 721:fltk-1.3.4-1/png/pngpread.c ****    /* TODO: WARNING: TRUNCATION ERROR: DANGER WILL ROBINSON: */
 3672              		.loc 1 721 29 is_stmt 0 view .LVU1125
 3673 001d 4889B740 		movq	%rsi, 320(%rdi)
 3673      010000
 723:fltk-1.3.4-1/png/pngpread.c **** 
 3674              		.loc 1 723 4 is_stmt 1 view .LVU1126
 723:fltk-1.3.4-1/png/pngpread.c **** 
 3675              		.loc 1 723 32 is_stmt 0 view .LVU1127
 3676 0024 89D0     		movl	%edx, %eax
 3677              	.LBB304:
 3678              	.LBB305:
 3679              	.LBB306:
 754:fltk-1.3.4-1/png/pngpread.c **** 
 3680              		.loc 1 754 13 view .LVU1128
 3681 0026 4C8DA740 		leaq	320(%rdi), %r12
 3681      010000
 3682              	.LBE306:
 3683              	.LBE305:
 3684              	.LBE304:
 723:fltk-1.3.4-1/png/pngpread.c **** 
 3685              		.loc 1 723 30 view .LVU1129
 3686 002d 89974801 		movl	%edx, 328(%rdi)
 3686      0000
 728:fltk-1.3.4-1/png/pngpread.c ****       !(png_ptr->flags & PNG_FLAG_ZSTREAM_ENDED))
 3687              		.loc 1 728 4 is_stmt 1 view .LVU1130
 3688              	.LVL310:
 3689              	.LBB322:
 3690              	.LBI304:
 710:fltk-1.3.4-1/png/pngpread.c ****    png_size_t buffer_length)
 3691              		.loc 1 710 1 view .LVU1131
 710:fltk-1.3.4-1/png/pngpread.c ****    png_size_t buffer_length)
 3692              		.loc 1 710 1 is_stmt 0 view .LVU1132
 3693 0033 EB7F     		jmp	.L437
 3694              	.LVL311:
 3695              		.p2align 4,,10
 3696 0035 0F1F00   		.p2align 3
 3697              	.L451:
 3698              	.LBB314:
 3699              	.LBB307:
 741:fltk-1.3.4-1/png/pngpread.c ****              png_ptr->iwidth) + 1);
 3700              		.loc 1 741 46 view .LVU1133
 3701 0038 C0E903   		shrb	$3, %cl
 3702 003b 0FB6C1   		movzbl	%cl, %eax
 3703 003e 0FAFD0   		imull	%eax, %edx
 741:fltk-1.3.4-1/png/pngpread.c ****              png_ptr->iwidth) + 1);
 3704              		.loc 1 741 39 view .LVU1134
 3705 0041 8D4201   		leal	1(%rdx), %eax
 3706              	.L429:
 741:fltk-1.3.4-1/png/pngpread.c ****              png_ptr->iwidth) + 1);
 3707              		.loc 1 741 37 view .LVU1135
 3708 0044 89856001 		movl	%eax, 352(%rbp)
 3708      0000
 744:fltk-1.3.4-1/png/pngpread.c ****       }
 3709              		.loc 1 744 10 is_stmt 1 view .LVU1136
 744:fltk-1.3.4-1/png/pngpread.c ****       }
 3710              		.loc 1 744 36 is_stmt 0 view .LVU1137
 3711 004a 488B8528 		movq	552(%rbp), %rax
 3711      020000
 3712 0051 48898558 		movq	%rax, 344(%rbp)
 3712      010000
 3713              	.L427:
 754:fltk-1.3.4-1/png/pngpread.c **** 
 3714              		.loc 1 754 7 is_stmt 1 view .LVU1138
 754:fltk-1.3.4-1/png/pngpread.c **** 
 3715              		.loc 1 754 13 is_stmt 0 view .LVU1139
 3716 0058 BE020000 		movl	$2, %esi
 3716      00
 3717 005d 4C89E7   		movq	%r12, %rdi
 3718 0060 E8000000 		call	inflate@PLT
 3718      00
 3719              	.LVL312:
 3720 0065 89C3     		movl	%eax, %ebx
 3721              	.LVL313:
 757:fltk-1.3.4-1/png/pngpread.c ****       {
 3722              		.loc 1 757 7 is_stmt 1 view .LVU1140
 757:fltk-1.3.4-1/png/pngpread.c ****       {
 3723              		.loc 1 757 10 is_stmt 0 view .LVU1141
 3724 0067 83F801   		cmpl	$1, %eax
 3725 006a 0F87F800 		ja	.L447
 3725      0000
 778:fltk-1.3.4-1/png/pngpread.c ****       {
 3726              		.loc 1 778 7 is_stmt 1 view .LVU1142
 778:fltk-1.3.4-1/png/pngpread.c ****       {
 3727              		.loc 1 778 10 is_stmt 0 view .LVU1143
 3728 0070 488B8528 		movq	552(%rbp), %rax
 3728      020000
 3729              	.LVL314:
 778:fltk-1.3.4-1/png/pngpread.c ****       {
 3730              		.loc 1 778 10 view .LVU1144
 3731 0077 48398558 		cmpq	%rax, 344(%rbp)
 3731      010000
 3732 007e 7429     		je	.L433
 784:fltk-1.3.4-1/png/pngpread.c ****              png_ptr->pass > 6)
 3733              		.loc 1 784 10 is_stmt 1 view .LVU1145
 784:fltk-1.3.4-1/png/pngpread.c ****              png_ptr->pass > 6)
 3734              		.loc 1 784 13 is_stmt 0 view .LVU1146
 3735 0080 8B850002 		movl	512(%rbp), %eax
 3735      0000
 3736 0086 39851402 		cmpl	%eax, 532(%rbp)
 3736      0000
 3737 008c 0F839600 		jnb	.L434
 3737      0000
 784:fltk-1.3.4-1/png/pngpread.c ****              png_ptr->pass > 6)
 3738              		.loc 1 784 55 view .LVU1147
 3739 0092 80BD7502 		cmpb	$6, 629(%rbp)
 3739      000006
 3740 0099 0F878900 		ja	.L434
 3740      0000
 799:fltk-1.3.4-1/png/pngpread.c ****             png_push_process_row(png_ptr);
 3741              		.loc 1 799 10 is_stmt 1 view .LVU1148
 799:fltk-1.3.4-1/png/pngpread.c ****             png_push_process_row(png_ptr);
 3742              		.loc 1 799 13 is_stmt 0 view .LVU1149
 3743 009f 8B856001 		movl	352(%rbp), %eax
 3743      0000
 3744 00a5 85C0     		testl	%eax, %eax
 3745 00a7 7457     		je	.L448
 3746              	.L433:
 804:fltk-1.3.4-1/png/pngpread.c ****          png_ptr->flags |= PNG_FLAG_ZSTREAM_ENDED;
 3747              		.loc 1 804 7 is_stmt 1 view .LVU1150
 3748 00a9 8B854801 		movl	328(%rbp), %eax
 3748      0000
 804:fltk-1.3.4-1/png/pngpread.c ****          png_ptr->flags |= PNG_FLAG_ZSTREAM_ENDED;
 3749              		.loc 1 804 10 is_stmt 0 view .LVU1151
 3750 00af 83FB01   		cmpl	$1, %ebx
 3751 00b2 745F     		je	.L449
 3752              	.LVL315:
 3753              	.L437:
 804:fltk-1.3.4-1/png/pngpread.c ****          png_ptr->flags |= PNG_FLAG_ZSTREAM_ENDED;
 3754              		.loc 1 804 10 view .LVU1152
 3755              	.LBE307:
 728:fltk-1.3.4-1/png/pngpread.c ****       !(png_ptr->flags & PNG_FLAG_ZSTREAM_ENDED))
 3756              		.loc 1 728 10 is_stmt 1 view .LVU1153
 3757 00b4 85C0     		testl	%eax, %eax
 3758 00b6 7466     		je	.L423
 3759              	.L452:
 728:fltk-1.3.4-1/png/pngpread.c ****       !(png_ptr->flags & PNG_FLAG_ZSTREAM_ENDED))
 3760              		.loc 1 728 41 is_stmt 0 view .LVU1154
 3761 00b8 F6853001 		testb	$8, 304(%rbp)
 3761      000008
 3762 00bf 0F858B00 		jne	.L450
 3762      0000
 3763              	.LBB308:
 731:fltk-1.3.4-1/png/pngpread.c **** 
 3764              		.loc 1 731 7 is_stmt 1 view .LVU1155
 738:fltk-1.3.4-1/png/pngpread.c ****       {
 3765              		.loc 1 738 7 view .LVU1156
 738:fltk-1.3.4-1/png/pngpread.c ****       {
 3766              		.loc 1 738 10 is_stmt 0 view .LVU1157
 3767 00c5 8B956001 		movl	352(%rbp), %edx
 3767      0000
 3768 00cb 85D2     		testl	%edx, %edx
 3769 00cd 7589     		jne	.L427
 741:fltk-1.3.4-1/png/pngpread.c ****              png_ptr->iwidth) + 1);
 3770              		.loc 1 741 10 is_stmt 1 view .LVU1158
 741:fltk-1.3.4-1/png/pngpread.c ****              png_ptr->iwidth) + 1);
 3771              		.loc 1 741 46 is_stmt 0 view .LVU1159
 3772 00cf 0FB68D7A 		movzbl	634(%rbp), %ecx
 3772      020000
 3773 00d6 8B951002 		movl	528(%rbp), %edx
 3773      0000
 741:fltk-1.3.4-1/png/pngpread.c ****              png_ptr->iwidth) + 1);
 3774              		.loc 1 741 39 view .LVU1160
 3775 00dc 80F907   		cmpb	$7, %cl
 3776 00df 0F8753FF 		ja	.L451
 3776      FFFF
 741:fltk-1.3.4-1/png/pngpread.c ****              png_ptr->iwidth) + 1);
 3777              		.loc 1 741 46 view .LVU1161
 3778 00e5 89D0     		movl	%edx, %eax
 3779 00e7 0FB6D1   		movzbl	%cl, %edx
 3780 00ea 480FAFC2 		imulq	%rdx, %rax
 3781 00ee 4883C007 		addq	$7, %rax
 3782 00f2 48C1E803 		shrq	$3, %rax
 741:fltk-1.3.4-1/png/pngpread.c ****              png_ptr->iwidth) + 1);
 3783              		.loc 1 741 39 view .LVU1162
 3784 00f6 83C001   		addl	$1, %eax
 3785 00f9 E946FFFF 		jmp	.L429
 3785      FF
 3786              	.LVL316:
 3787 00fe 6690     		.p2align 4,,10
 3788              		.p2align 3
 3789              	.L448:
 800:fltk-1.3.4-1/png/pngpread.c ****       }
 3790              		.loc 1 800 13 is_stmt 1 view .LVU1163
 3791 0100 4889EF   		movq	%rbp, %rdi
 3792 0103 E8000000 		call	png_push_process_row
 3792      00
 3793              	.LVL317:
 804:fltk-1.3.4-1/png/pngpread.c ****          png_ptr->flags |= PNG_FLAG_ZSTREAM_ENDED;
 3794              		.loc 1 804 7 view .LVU1164
 3795 0108 8B854801 		movl	328(%rbp), %eax
 3795      0000
 804:fltk-1.3.4-1/png/pngpread.c ****          png_ptr->flags |= PNG_FLAG_ZSTREAM_ENDED;
 3796              		.loc 1 804 10 is_stmt 0 view .LVU1165
 3797 010e 83FB01   		cmpl	$1, %ebx
 3798 0111 75A1     		jne	.L437
 3799              	.L449:
 805:fltk-1.3.4-1/png/pngpread.c ****    }
 3800              		.loc 1 805 10 is_stmt 1 view .LVU1166
 805:fltk-1.3.4-1/png/pngpread.c ****    }
 3801              		.loc 1 805 25 is_stmt 0 view .LVU1167
 3802 0113 838D3001 		orl	$8, 304(%rbp)
 3802      000008
 3803              	.LBE308:
 728:fltk-1.3.4-1/png/pngpread.c ****       !(png_ptr->flags & PNG_FLAG_ZSTREAM_ENDED))
 3804              		.loc 1 728 10 is_stmt 1 view .LVU1168
 3805 011a 85C0     		testl	%eax, %eax
 3806 011c 759A     		jne	.L452
 3807              	.LVL318:
 3808              	.L423:
 728:fltk-1.3.4-1/png/pngpread.c ****       !(png_ptr->flags & PNG_FLAG_ZSTREAM_ENDED))
 3809              		.loc 1 728 10 is_stmt 0 view .LVU1169
 3810              	.LBE314:
 3811              	.LBE322:
 814:fltk-1.3.4-1/png/pngpread.c **** 
 3812              		.loc 1 814 1 view .LVU1170
 3813 011e 5B       		popq	%rbx
 3814              		.cfi_remember_state
 3815              		.cfi_def_cfa_offset 24
 3816 011f 5D       		popq	%rbp
 3817              		.cfi_def_cfa_offset 16
 3818              	.LVL319:
 814:fltk-1.3.4-1/png/pngpread.c **** 
 3819              		.loc 1 814 1 view .LVU1171
 3820 0120 415C     		popq	%r12
 3821              		.cfi_def_cfa_offset 8
 3822              	.LVL320:
 814:fltk-1.3.4-1/png/pngpread.c **** 
 3823              		.loc 1 814 1 view .LVU1172
 3824 0122 C3       		ret
 3825              	.LVL321:
 3826              		.p2align 4,,10
 3827 0123 0F1F4400 		.p2align 3
 3827      00
 3828              	.L434:
 3829              		.cfi_restore_state
 3830              	.LBB323:
 3831              	.LBB315:
 3832              	.LBB309:
 788:fltk-1.3.4-1/png/pngpread.c ****             png_ptr->flags |= PNG_FLAG_ZSTREAM_ENDED;
 3833              		.loc 1 788 13 is_stmt 1 view .LVU1173
 3834 0128 4889EF   		movq	%rbp, %rdi
 3835 012b 488D3500 		leaq	.LC16(%rip), %rsi
 3835      000000
 3836 0132 E8000000 		call	png_warning@PLT
 3836      00
 3837              	.LVL322:
 789:fltk-1.3.4-1/png/pngpread.c ****             png_ptr->zowner = 0;
 3838              		.loc 1 789 13 view .LVU1174
 3839              	.LBE309:
 3840              	.LBE315:
 3841              	.LBE323:
 814:fltk-1.3.4-1/png/pngpread.c **** 
 3842              		.loc 1 814 1 is_stmt 0 view .LVU1175
 3843 0137 5B       		popq	%rbx
 3844              		.cfi_remember_state
 3845              		.cfi_def_cfa_offset 24
 3846              	.LVL323:
 3847              	.LBB324:
 3848              	.LBB316:
 3849              	.LBB310:
 789:fltk-1.3.4-1/png/pngpread.c ****             png_ptr->zowner = 0;
 3850              		.loc 1 789 28 view .LVU1176
 3851 0138 838D3001 		orl	$8, 304(%rbp)
 3851      000008
 790:fltk-1.3.4-1/png/pngpread.c **** 
 3852              		.loc 1 790 13 is_stmt 1 view .LVU1177
 790:fltk-1.3.4-1/png/pngpread.c **** 
 3853              		.loc 1 790 29 is_stmt 0 view .LVU1178
 3854 013f C7853801 		movl	$0, 312(%rbp)
 3854      00000000 
 3854      0000
 795:fltk-1.3.4-1/png/pngpread.c ****          }
 3855              		.loc 1 795 13 is_stmt 1 view .LVU1179
 3856              	.LBE310:
 3857              	.LBE316:
 3858              	.LBE324:
 814:fltk-1.3.4-1/png/pngpread.c **** 
 3859              		.loc 1 814 1 is_stmt 0 view .LVU1180
 3860 0149 5D       		popq	%rbp
 3861              		.cfi_def_cfa_offset 16
 3862              	.LVL324:
 814:fltk-1.3.4-1/png/pngpread.c **** 
 3863              		.loc 1 814 1 view .LVU1181
 3864 014a 415C     		popq	%r12
 3865              		.cfi_def_cfa_offset 8
 3866              	.LVL325:
 814:fltk-1.3.4-1/png/pngpread.c **** 
 3867              		.loc 1 814 1 view .LVU1182
 3868 014c C3       		ret
 3869              	.LVL326:
 3870 014d 0F1F00   		.p2align 4,,10
 3871              		.p2align 3
 3872              	.L450:
 3873              		.cfi_restore_state
 3874              	.LBB325:
 3875              	.LBB317:
 812:fltk-1.3.4-1/png/pngpread.c ****       png_warning(png_ptr, "Extra compression data in IDAT");
 3876              		.loc 1 812 4 is_stmt 1 view .LVU1183
 813:fltk-1.3.4-1/png/pngpread.c **** }
 3877              		.loc 1 813 7 view .LVU1184
 3878              	.LBE317:
 3879              	.LBE325:
 814:fltk-1.3.4-1/png/pngpread.c **** 
 3880              		.loc 1 814 1 is_stmt 0 view .LVU1185
 3881 0150 5B       		popq	%rbx
 3882              		.cfi_remember_state
 3883              		.cfi_def_cfa_offset 24
 3884              	.LBB326:
 3885              	.LBB318:
 813:fltk-1.3.4-1/png/pngpread.c **** }
 3886              		.loc 1 813 7 view .LVU1186
 3887 0151 4889EF   		movq	%rbp, %rdi
 3888 0154 488D3500 		leaq	.LC17(%rip), %rsi
 3888      000000
 3889              	.LBE318:
 3890              	.LBE326:
 814:fltk-1.3.4-1/png/pngpread.c **** 
 3891              		.loc 1 814 1 view .LVU1187
 3892 015b 5D       		popq	%rbp
 3893              		.cfi_def_cfa_offset 16
 3894              	.LVL327:
 814:fltk-1.3.4-1/png/pngpread.c **** 
 3895              		.loc 1 814 1 view .LVU1188
 3896 015c 415C     		popq	%r12
 3897              		.cfi_def_cfa_offset 8
 3898              	.LBB327:
 3899              	.LBB319:
 813:fltk-1.3.4-1/png/pngpread.c **** }
 3900              		.loc 1 813 7 view .LVU1189
 3901 015e E9000000 		jmp	png_warning@PLT
 3901      00
 3902              	.LVL328:
 3903              		.p2align 4,,10
 3904 0163 0F1F4400 		.p2align 3
 3904      00
 3905              	.L447:
 3906              		.cfi_restore_state
 3907              	.LBB311:
 760:fltk-1.3.4-1/png/pngpread.c ****          png_ptr->zowner = 0;
 3908              		.loc 1 760 10 is_stmt 1 view .LVU1190
 760:fltk-1.3.4-1/png/pngpread.c ****          png_ptr->zowner = 0;
 3909              		.loc 1 760 25 is_stmt 0 view .LVU1191
 3910 0168 838D3001 		orl	$8, 304(%rbp)
 3910      000008
 761:fltk-1.3.4-1/png/pngpread.c **** 
 3911              		.loc 1 761 10 is_stmt 1 view .LVU1192
 766:fltk-1.3.4-1/png/pngpread.c ****              png_ptr->pass > 6)
 3912              		.loc 1 766 13 is_stmt 0 view .LVU1193
 3913 016f 8B850002 		movl	512(%rbp), %eax
 3913      0000
 3914              	.LVL329:
 761:fltk-1.3.4-1/png/pngpread.c **** 
 3915              		.loc 1 761 26 view .LVU1194
 3916 0175 C7853801 		movl	$0, 312(%rbp)
 3916      00000000 
 3916      0000
 766:fltk-1.3.4-1/png/pngpread.c ****              png_ptr->pass > 6)
 3917              		.loc 1 766 10 is_stmt 1 view .LVU1195
 766:fltk-1.3.4-1/png/pngpread.c ****              png_ptr->pass > 6)
 3918              		.loc 1 766 13 is_stmt 0 view .LVU1196
 3919 017f 39851402 		cmpl	%eax, 532(%rbp)
 3919      0000
 3920 0185 7309     		jnb	.L431
 766:fltk-1.3.4-1/png/pngpread.c ****              png_ptr->pass > 6)
 3921              		.loc 1 766 55 view .LVU1197
 3922 0187 80BD7502 		cmpb	$6, 629(%rbp)
 3922      000006
 3923 018e 7613     		jbe	.L432
 3924              	.L431:
 768:fltk-1.3.4-1/png/pngpread.c **** 
 3925              		.loc 1 768 13 is_stmt 1 view .LVU1198
 3926              	.LBE311:
 3927              	.LBE319:
 3928              	.LBE327:
 814:fltk-1.3.4-1/png/pngpread.c **** 
 3929              		.loc 1 814 1 is_stmt 0 view .LVU1199
 3930 0190 5B       		popq	%rbx
 3931              		.cfi_remember_state
 3932              		.cfi_def_cfa_offset 24
 3933              	.LVL330:
 3934              	.LBB328:
 3935              	.LBB320:
 813:fltk-1.3.4-1/png/pngpread.c **** }
 3936              		.loc 1 813 7 view .LVU1200
 3937 0191 4889EF   		movq	%rbp, %rdi
 3938              	.LBB312:
 768:fltk-1.3.4-1/png/pngpread.c **** 
 3939              		.loc 1 768 13 view .LVU1201
 3940 0194 488D3500 		leaq	.LC14(%rip), %rsi
 3940      000000
 3941              	.LBE312:
 3942              	.LBE320:
 3943              	.LBE328:
 814:fltk-1.3.4-1/png/pngpread.c **** 
 3944              		.loc 1 814 1 view .LVU1202
 3945 019b 5D       		popq	%rbp
 3946              		.cfi_def_cfa_offset 16
 3947              	.LVL331:
 814:fltk-1.3.4-1/png/pngpread.c **** 
 3948              		.loc 1 814 1 view .LVU1203
 3949 019c 415C     		popq	%r12
 3950              		.cfi_def_cfa_offset 8
 3951              	.LBB329:
 3952              	.LBB321:
 813:fltk-1.3.4-1/png/pngpread.c **** }
 3953              		.loc 1 813 7 view .LVU1204
 3954 019e E9000000 		jmp	png_warning@PLT
 3954      00
 3955              	.LVL332:
 3956              	.L432:
 3957              		.cfi_restore_state
 3958              	.LBB313:
 771:fltk-1.3.4-1/png/pngpread.c **** 
 3959              		.loc 1 771 13 is_stmt 1 view .LVU1205
 3960 01a3 488D3500 		leaq	.LC15(%rip), %rsi
 3960      000000
 3961 01aa 4889EF   		movq	%rbp, %rdi
 3962 01ad E8000000 		call	png_error@PLT
 3962      00
 3963              	.LVL333:
 3964              	.L440:
 771:fltk-1.3.4-1/png/pngpread.c **** 
 3965              		.loc 1 771 13 is_stmt 0 view .LVU1206
 3966              	.LBE313:
 3967              	.LBE321:
 3968              	.LBE329:
 715:fltk-1.3.4-1/png/pngpread.c **** 
 3969              		.loc 1 715 7 is_stmt 1 view .LVU1207
 3970 01b2 488D3500 		leaq	.LC13(%rip), %rsi
 3970      000000
 3971              	.LVL334:
 715:fltk-1.3.4-1/png/pngpread.c **** 
 3972              		.loc 1 715 7 is_stmt 0 view .LVU1208
 3973 01b9 4889EF   		movq	%rbp, %rdi
 3974              	.LVL335:
 715:fltk-1.3.4-1/png/pngpread.c **** 
 3975              		.loc 1 715 7 view .LVU1209
 3976 01bc E8000000 		call	png_error@PLT
 3976      00
 3977              	.LVL336:
 715:fltk-1.3.4-1/png/pngpread.c **** 
 3978              		.loc 1 715 7 view .LVU1210
 3979              		.cfi_endproc
 3980              	.LFE53:
 3982              		.section	.rodata.png_push_read_IDAT.str1.1,"aMS",@progbits,1
 3983              	.LC18:
 3984 0000 4E6F7420 		.string	"Not enough compressed data"
 3984      656E6F75 
 3984      67682063 
 3984      6F6D7072 
 3984      65737365 
 3985              		.section	.text.png_push_read_IDAT,"ax",@progbits
 3986              		.p2align 4
 3987              		.globl	png_push_read_IDAT
 3989              	png_push_read_IDAT:
 3990              	.LVL337:
 3991              	.LFB52:
 619:fltk-1.3.4-1/png/pngpread.c ****    if ((png_ptr->mode & PNG_HAVE_CHUNK_HEADER) == 0)
 3992              		.loc 1 619 1 is_stmt 1 view -0
 3993              		.cfi_startproc
 619:fltk-1.3.4-1/png/pngpread.c ****    if ((png_ptr->mode & PNG_HAVE_CHUNK_HEADER) == 0)
 3994              		.loc 1 619 1 is_stmt 0 view .LVU1212
 3995 0000 F30F1EFA 		endbr64
 3996 0004 4154     		pushq	%r12
 3997              		.cfi_def_cfa_offset 16
 3998              		.cfi_offset 12, -16
 3999 0006 55       		pushq	%rbp
 4000              		.cfi_def_cfa_offset 24
 4001              		.cfi_offset 6, -24
 4002 0007 4889FD   		movq	%rdi, %rbp
 4003 000a 53       		pushq	%rbx
 4004              		.cfi_def_cfa_offset 32
 4005              		.cfi_offset 3, -32
 4006 000b 4883EC10 		subq	$16, %rsp
 4007              		.cfi_def_cfa_offset 48
 619:fltk-1.3.4-1/png/pngpread.c ****    if ((png_ptr->mode & PNG_HAVE_CHUNK_HEADER) == 0)
 4008              		.loc 1 619 1 view .LVU1213
 4009 000f 64488B04 		movq	%fs:40, %rax
 4009      25280000 
 4009      00
 4010 0018 48894424 		movq	%rax, 8(%rsp)
 4010      08
 4011 001d 31C0     		xorl	%eax, %eax
 620:fltk-1.3.4-1/png/pngpread.c ****    {
 4012              		.loc 1 620 4 is_stmt 1 view .LVU1214
 620:fltk-1.3.4-1/png/pngpread.c ****    {
 4013              		.loc 1 620 7 is_stmt 0 view .LVU1215
 4014 001f F6872D01 		testb	$1, 301(%rdi)
 4014      000001
 4015 0026 0F85A400 		jne	.L454
 4015      0000
 4016              	.LBB330:
 622:fltk-1.3.4-1/png/pngpread.c ****       png_byte chunk_tag[4];
 4017              		.loc 1 622 7 is_stmt 1 view .LVU1216
 623:fltk-1.3.4-1/png/pngpread.c **** 
 4018              		.loc 1 623 7 view .LVU1217
 626:fltk-1.3.4-1/png/pngpread.c ****       png_push_fill_buffer(png_ptr, chunk_length, 4);
 4019              		.loc 1 626 7 view .LVU1218
 4020 002c 4883BF70 		cmpq	$7, 880(%rdi)
 4020      03000007 
 4021 0034 0F86B601 		jbe	.L467
 4021      0000
 627:fltk-1.3.4-1/png/pngpread.c ****       png_ptr->push_length = png_get_uint_31(png_ptr, chunk_length);
 4022              		.loc 1 627 7 view .LVU1219
 4023 003a 4989E4   		movq	%rsp, %r12
 4024 003d BA040000 		movl	$4, %edx
 4024      00
 4025 0042 4C89E6   		movq	%r12, %rsi
 4026 0045 E8000000 		call	png_push_fill_buffer
 4026      00
 4027              	.LVL338:
 628:fltk-1.3.4-1/png/pngpread.c ****       png_reset_crc(png_ptr);
 4028              		.loc 1 628 7 view .LVU1220
 628:fltk-1.3.4-1/png/pngpread.c ****       png_reset_crc(png_ptr);
 4029              		.loc 1 628 30 is_stmt 0 view .LVU1221
 4030 004a 4C89E6   		movq	%r12, %rsi
 4031 004d 4889EF   		movq	%rbp, %rdi
 4032 0050 E8000000 		call	png_get_uint_31@PLT
 4032      00
 4033              	.LVL339:
 629:fltk-1.3.4-1/png/pngpread.c ****       png_crc_read(png_ptr, chunk_tag, 4);
 4034              		.loc 1 629 7 view .LVU1222
 4035 0055 4889EF   		movq	%rbp, %rdi
 628:fltk-1.3.4-1/png/pngpread.c ****       png_reset_crc(png_ptr);
 4036              		.loc 1 628 28 view .LVU1223
 4037 0058 89855803 		movl	%eax, 856(%rbp)
 4037      0000
 629:fltk-1.3.4-1/png/pngpread.c ****       png_crc_read(png_ptr, chunk_tag, 4);
 4038              		.loc 1 629 7 is_stmt 1 view .LVU1224
 4039 005e E8000000 		call	png_reset_crc@PLT
 4039      00
 4040              	.LVL340:
 630:fltk-1.3.4-1/png/pngpread.c ****       png_ptr->chunk_name = PNG_CHUNK_FROM_STRING(chunk_tag);
 4041              		.loc 1 630 7 view .LVU1225
 4042 0063 488D7424 		leaq	4(%rsp), %rsi
 4042      04
 4043 0068 BA040000 		movl	$4, %edx
 4043      00
 4044 006d 4889EF   		movq	%rbp, %rdi
 4045 0070 E8000000 		call	png_crc_read@PLT
 4045      00
 4046              	.LVL341:
 631:fltk-1.3.4-1/png/pngpread.c ****       png_ptr->mode |= PNG_HAVE_CHUNK_HEADER;
 4047              		.loc 1 631 7 view .LVU1226
 4048 0075 8B442404 		movl	4(%rsp), %eax
 632:fltk-1.3.4-1/png/pngpread.c **** 
 4049              		.loc 1 632 21 is_stmt 0 view .LVU1227
 4050 0079 818D2C01 		orl	$256, 300(%rbp)
 4050      00000001 
 4050      0000
 4051 0083 0FC8     		bswap	%eax
 631:fltk-1.3.4-1/png/pngpread.c ****       png_ptr->mode |= PNG_HAVE_CHUNK_HEADER;
 4052              		.loc 1 631 27 view .LVU1228
 4053 0085 89851802 		movl	%eax, 536(%rbp)
 4053      0000
 632:fltk-1.3.4-1/png/pngpread.c **** 
 4054              		.loc 1 632 7 is_stmt 1 view .LVU1229
 634:fltk-1.3.4-1/png/pngpread.c ****       {
 4055              		.loc 1 634 7 view .LVU1230
 634:fltk-1.3.4-1/png/pngpread.c ****       {
 4056              		.loc 1 634 10 is_stmt 0 view .LVU1231
 4057 008b 3D544144 		cmpl	$1229209940, %eax
 4057      49
 4058 0090 0F846A01 		je	.L457
 4058      0000
 636:fltk-1.3.4-1/png/pngpread.c **** 
 4059              		.loc 1 636 10 is_stmt 1 view .LVU1232
 636:fltk-1.3.4-1/png/pngpread.c **** 
 4060              		.loc 1 636 32 is_stmt 0 view .LVU1233
 4061 0096 C7858003 		movl	$1, 896(%rbp)
 4061      00000100 
 4061      0000
 638:fltk-1.3.4-1/png/pngpread.c ****             png_error(png_ptr, "Not enough compressed data");
 4062              		.loc 1 638 10 is_stmt 1 view .LVU1234
 638:fltk-1.3.4-1/png/pngpread.c ****             png_error(png_ptr, "Not enough compressed data");
 4063              		.loc 1 638 13 is_stmt 0 view .LVU1235
 4064 00a0 F6853001 		testb	$8, 304(%rbp)
 4064      000008
 4065 00a7 0F846901 		je	.L484
 4065      0000
 4066              	.L453:
 4067              	.LBE330:
 707:fltk-1.3.4-1/png/pngpread.c **** 
 4068              		.loc 1 707 1 view .LVU1236
 4069 00ad 488B4424 		movq	8(%rsp), %rax
 4069      08
 4070 00b2 64483304 		xorq	%fs:40, %rax
 4070      25280000 
 4070      00
 4071 00bb 0F855001 		jne	.L485
 4071      0000
 4072 00c1 4883C410 		addq	$16, %rsp
 4073              		.cfi_remember_state
 4074              		.cfi_def_cfa_offset 32
 4075 00c5 5B       		popq	%rbx
 4076              		.cfi_def_cfa_offset 24
 4077 00c6 5D       		popq	%rbp
 4078              		.cfi_def_cfa_offset 16
 4079              	.LVL342:
 707:fltk-1.3.4-1/png/pngpread.c **** 
 4080              		.loc 1 707 1 view .LVU1237
 4081 00c7 415C     		popq	%r12
 4082              		.cfi_def_cfa_offset 8
 4083 00c9 C3       		ret
 4084              	.LVL343:
 4085 00ca 660F1F44 		.p2align 4,,10
 4085      0000
 4086              		.p2align 3
 4087              	.L454:
 4088              		.cfi_restore_state
 707:fltk-1.3.4-1/png/pngpread.c **** 
 4089              		.loc 1 707 1 view .LVU1238
 4090 00d0 8B9F5802 		movl	600(%rdi), %ebx
 4090      0000
 4091              	.LVL344:
 4092              	.L458:
 647:fltk-1.3.4-1/png/pngpread.c ****    {
 4093              		.loc 1 647 4 is_stmt 1 view .LVU1239
 647:fltk-1.3.4-1/png/pngpread.c ****    {
 4094              		.loc 1 647 7 is_stmt 0 view .LVU1240
 4095 00d6 85DB     		testl	%ebx, %ebx
 4096 00d8 7536     		jne	.L486
 4097              	.L465:
 699:fltk-1.3.4-1/png/pngpread.c ****    {
 4098              		.loc 1 699 4 is_stmt 1 view .LVU1241
 701:fltk-1.3.4-1/png/pngpread.c ****       png_crc_finish(png_ptr, 0);
 4099              		.loc 1 701 7 view .LVU1242
 4100 00da 4883BD70 		cmpq	$3, 880(%rbp)
 4100      03000003 
 4101 00e2 0F860801 		jbe	.L467
 4101      0000
 702:fltk-1.3.4-1/png/pngpread.c ****       png_ptr->mode &= ~PNG_HAVE_CHUNK_HEADER;
 4102              		.loc 1 702 7 view .LVU1243
 4103 00e8 31F6     		xorl	%esi, %esi
 4104 00ea 4889EF   		movq	%rbp, %rdi
 4105 00ed E8000000 		call	png_crc_finish@PLT
 4105      00
 4106              	.LVL345:
 703:fltk-1.3.4-1/png/pngpread.c ****       png_ptr->mode |= PNG_AFTER_IDAT;
 4107              		.loc 1 703 7 view .LVU1244
 704:fltk-1.3.4-1/png/pngpread.c ****       png_ptr->zowner = 0;
 4108              		.loc 1 704 7 view .LVU1245
 703:fltk-1.3.4-1/png/pngpread.c ****       png_ptr->mode |= PNG_AFTER_IDAT;
 4109              		.loc 1 703 21 is_stmt 0 view .LVU1246
 4110 00f2 8B852C01 		movl	300(%rbp), %eax
 4110      0000
 705:fltk-1.3.4-1/png/pngpread.c ****    }
 4111              		.loc 1 705 23 view .LVU1247
 4112 00f8 C7853801 		movl	$0, 312(%rbp)
 4112      00000000 
 4112      0000
 703:fltk-1.3.4-1/png/pngpread.c ****       png_ptr->mode |= PNG_AFTER_IDAT;
 4113              		.loc 1 703 21 view .LVU1248
 4114 0102 80E4FE   		andb	$-2, %ah
 704:fltk-1.3.4-1/png/pngpread.c ****       png_ptr->zowner = 0;
 4115              		.loc 1 704 21 view .LVU1249
 4116 0105 83C808   		orl	$8, %eax
 4117 0108 89852C01 		movl	%eax, 300(%rbp)
 4117      0000
 705:fltk-1.3.4-1/png/pngpread.c ****    }
 4118              		.loc 1 705 7 is_stmt 1 view .LVU1250
 4119 010e EB9D     		jmp	.L453
 4120              		.p2align 4,,10
 4121              		.p2align 3
 4122              	.L486:
 647:fltk-1.3.4-1/png/pngpread.c ****    {
 4123              		.loc 1 647 42 is_stmt 0 discriminator 1 view .LVU1251
 4124 0110 488B8560 		movq	864(%rbp), %rax
 4124      030000
 647:fltk-1.3.4-1/png/pngpread.c ****    {
 4125              		.loc 1 647 32 discriminator 1 view .LVU1252
 4126 0117 4885C0   		testq	%rax, %rax
 4127 011a 745E     		je	.L461
 4128              	.LBB331:
 649:fltk-1.3.4-1/png/pngpread.c ****       png_uint_32 idat_size = png_ptr->idat_size;
 4129              		.loc 1 649 7 is_stmt 1 view .LVU1253
 4130              	.LVL346:
 650:fltk-1.3.4-1/png/pngpread.c **** 
 4131              		.loc 1 650 7 view .LVU1254
 658:fltk-1.3.4-1/png/pngpread.c ****          save_size = (png_size_t)idat_size;
 4132              		.loc 1 658 7 view .LVU1255
 658:fltk-1.3.4-1/png/pngpread.c ****          save_size = (png_size_t)idat_size;
 4133              		.loc 1 658 21 is_stmt 0 view .LVU1256
 4134 011c 4189DC   		movl	%ebx, %r12d
 658:fltk-1.3.4-1/png/pngpread.c ****          save_size = (png_size_t)idat_size;
 4135              		.loc 1 658 10 view .LVU1257
 4136 011f 4C39E0   		cmpq	%r12, %rax
 4137 0122 7705     		ja	.L462
 662:fltk-1.3.4-1/png/pngpread.c **** 
 4138              		.loc 1 662 10 is_stmt 1 view .LVU1258
 662:fltk-1.3.4-1/png/pngpread.c **** 
 4139              		.loc 1 662 20 is_stmt 0 view .LVU1259
 4140 0124 89C3     		movl	%eax, %ebx
 4141              	.LVL347:
 662:fltk-1.3.4-1/png/pngpread.c **** 
 4142              		.loc 1 662 20 view .LVU1260
 4143 0126 4989C4   		movq	%rax, %r12
 4144              	.LVL348:
 4145              	.L462:
 664:fltk-1.3.4-1/png/pngpread.c **** 
 4146              		.loc 1 664 7 is_stmt 1 view .LVU1261
 4147 0129 488BB538 		movq	824(%rbp), %rsi
 4147      030000
 4148 0130 4C89E2   		movq	%r12, %rdx
 4149 0133 4889EF   		movq	%rbp, %rdi
 4150 0136 E8000000 		call	png_calculate_crc@PLT
 4150      00
 4151              	.LVL349:
 666:fltk-1.3.4-1/png/pngpread.c **** 
 4152              		.loc 1 666 7 view .LVU1262
 4153 013b 488BB538 		movq	824(%rbp), %rsi
 4153      030000
 4154 0142 4C89E2   		movq	%r12, %rdx
 4155 0145 4889EF   		movq	%rbp, %rdi
 4156 0148 E8000000 		call	png_process_IDAT_data
 4156      00
 4157              	.LVL350:
 668:fltk-1.3.4-1/png/pngpread.c ****       png_ptr->buffer_size -= save_size;
 4158              		.loc 1 668 7 view .LVU1263
 668:fltk-1.3.4-1/png/pngpread.c ****       png_ptr->buffer_size -= save_size;
 4159              		.loc 1 668 26 is_stmt 0 view .LVU1264
 4160 014d 8B855802 		movl	600(%rbp), %eax
 4160      0000
 669:fltk-1.3.4-1/png/pngpread.c ****       png_ptr->save_buffer_size -= save_size;
 4161              		.loc 1 669 28 view .LVU1265
 4162 0153 4C29A570 		subq	%r12, 880(%rbp)
 4162      030000
 670:fltk-1.3.4-1/png/pngpread.c ****       png_ptr->save_buffer_ptr += save_size;
 4163              		.loc 1 670 33 view .LVU1266
 4164 015a 4C29A560 		subq	%r12, 864(%rbp)
 4164      030000
 668:fltk-1.3.4-1/png/pngpread.c ****       png_ptr->buffer_size -= save_size;
 4165              		.loc 1 668 26 view .LVU1267
 4166 0161 29D8     		subl	%ebx, %eax
 671:fltk-1.3.4-1/png/pngpread.c ****    }
 4167              		.loc 1 671 32 view .LVU1268
 4168 0163 4C01A538 		addq	%r12, 824(%rbp)
 4168      030000
 668:fltk-1.3.4-1/png/pngpread.c ****       png_ptr->buffer_size -= save_size;
 4169              		.loc 1 668 26 view .LVU1269
 4170 016a 89855802 		movl	%eax, 600(%rbp)
 4170      0000
 669:fltk-1.3.4-1/png/pngpread.c ****       png_ptr->save_buffer_size -= save_size;
 4171              		.loc 1 669 7 is_stmt 1 view .LVU1270
 670:fltk-1.3.4-1/png/pngpread.c ****       png_ptr->save_buffer_ptr += save_size;
 4172              		.loc 1 670 7 view .LVU1271
 671:fltk-1.3.4-1/png/pngpread.c ****    }
 4173              		.loc 1 671 7 view .LVU1272
 4174              	.LBE331:
 674:fltk-1.3.4-1/png/pngpread.c ****    {
 4175              		.loc 1 674 4 view .LVU1273
 4176              	.LBB332:
 668:fltk-1.3.4-1/png/pngpread.c ****       png_ptr->buffer_size -= save_size;
 4177              		.loc 1 668 26 is_stmt 0 view .LVU1274
 4178 0170 89C3     		movl	%eax, %ebx
 4179              	.LVL351:
 668:fltk-1.3.4-1/png/pngpread.c ****       png_ptr->buffer_size -= save_size;
 4180              		.loc 1 668 26 view .LVU1275
 4181              	.LBE332:
 674:fltk-1.3.4-1/png/pngpread.c ****    {
 4182              		.loc 1 674 7 view .LVU1276
 4183 0172 85C0     		testl	%eax, %eax
 4184 0174 0F8460FF 		je	.L465
 4184      FFFF
 4185              	.LVL352:
 4186              	.L461:
 674:fltk-1.3.4-1/png/pngpread.c ****    {
 4187              		.loc 1 674 42 discriminator 1 view .LVU1277
 4188 017a 488B8578 		movq	888(%rbp), %rax
 4188      030000
 674:fltk-1.3.4-1/png/pngpread.c ****    {
 4189              		.loc 1 674 32 discriminator 1 view .LVU1278
 4190 0181 4885C0   		testq	%rax, %rax
 4191 0184 0F8423FF 		je	.L453
 4191      FFFF
 4192              	.LBB333:
 676:fltk-1.3.4-1/png/pngpread.c ****       png_uint_32 idat_size = png_ptr->idat_size;
 4193              		.loc 1 676 7 is_stmt 1 view .LVU1279
 4194              	.LVL353:
 677:fltk-1.3.4-1/png/pngpread.c **** 
 4195              		.loc 1 677 7 view .LVU1280
 684:fltk-1.3.4-1/png/pngpread.c ****          save_size = (png_size_t)idat_size;
 4196              		.loc 1 684 7 view .LVU1281
 684:fltk-1.3.4-1/png/pngpread.c ****          save_size = (png_size_t)idat_size;
 4197              		.loc 1 684 21 is_stmt 0 view .LVU1282
 4198 018a 4189DC   		movl	%ebx, %r12d
 684:fltk-1.3.4-1/png/pngpread.c ****          save_size = (png_size_t)idat_size;
 4199              		.loc 1 684 10 view .LVU1283
 4200 018d 4C39E0   		cmpq	%r12, %rax
 4201 0190 7705     		ja	.L464
 688:fltk-1.3.4-1/png/pngpread.c **** 
 4202              		.loc 1 688 10 is_stmt 1 view .LVU1284
 688:fltk-1.3.4-1/png/pngpread.c **** 
 4203              		.loc 1 688 20 is_stmt 0 view .LVU1285
 4204 0192 89C3     		movl	%eax, %ebx
 4205              	.LVL354:
 688:fltk-1.3.4-1/png/pngpread.c **** 
 4206              		.loc 1 688 20 view .LVU1286
 4207 0194 4989C4   		movq	%rax, %r12
 4208              	.LVL355:
 4209              	.L464:
 690:fltk-1.3.4-1/png/pngpread.c **** 
 4210              		.loc 1 690 7 is_stmt 1 view .LVU1287
 4211 0197 488BB548 		movq	840(%rbp), %rsi
 4211      030000
 4212 019e 4C89E2   		movq	%r12, %rdx
 4213 01a1 4889EF   		movq	%rbp, %rdi
 4214 01a4 E8000000 		call	png_calculate_crc@PLT
 4214      00
 4215              	.LVL356:
 692:fltk-1.3.4-1/png/pngpread.c **** 
 4216              		.loc 1 692 7 view .LVU1288
 4217 01a9 488BB548 		movq	840(%rbp), %rsi
 4217      030000
 4218 01b0 4C89E2   		movq	%r12, %rdx
 4219 01b3 4889EF   		movq	%rbp, %rdi
 4220 01b6 E8000000 		call	png_process_IDAT_data
 4220      00
 4221              	.LVL357:
 694:fltk-1.3.4-1/png/pngpread.c ****       png_ptr->buffer_size -= save_size;
 4222              		.loc 1 694 7 view .LVU1289
 694:fltk-1.3.4-1/png/pngpread.c ****       png_ptr->buffer_size -= save_size;
 4223              		.loc 1 694 26 is_stmt 0 view .LVU1290
 4224 01bb 8B855802 		movl	600(%rbp), %eax
 4224      0000
 695:fltk-1.3.4-1/png/pngpread.c ****       png_ptr->current_buffer_size -= save_size;
 4225              		.loc 1 695 28 view .LVU1291
 4226 01c1 4C29A570 		subq	%r12, 880(%rbp)
 4226      030000
 696:fltk-1.3.4-1/png/pngpread.c ****       png_ptr->current_buffer_ptr += save_size;
 4227              		.loc 1 696 36 view .LVU1292
 4228 01c8 4C29A578 		subq	%r12, 888(%rbp)
 4228      030000
 694:fltk-1.3.4-1/png/pngpread.c ****       png_ptr->buffer_size -= save_size;
 4229              		.loc 1 694 26 view .LVU1293
 4230 01cf 29D8     		subl	%ebx, %eax
 697:fltk-1.3.4-1/png/pngpread.c ****    }
 4231              		.loc 1 697 35 view .LVU1294
 4232 01d1 4C01A548 		addq	%r12, 840(%rbp)
 4232      030000
 694:fltk-1.3.4-1/png/pngpread.c ****       png_ptr->buffer_size -= save_size;
 4233              		.loc 1 694 26 view .LVU1295
 4234 01d8 89855802 		movl	%eax, 600(%rbp)
 4234      0000
 695:fltk-1.3.4-1/png/pngpread.c ****       png_ptr->current_buffer_size -= save_size;
 4235              		.loc 1 695 7 is_stmt 1 view .LVU1296
 696:fltk-1.3.4-1/png/pngpread.c ****       png_ptr->current_buffer_ptr += save_size;
 4236              		.loc 1 696 7 view .LVU1297
 697:fltk-1.3.4-1/png/pngpread.c ****    }
 4237              		.loc 1 697 7 view .LVU1298
 4238              	.LBE333:
 699:fltk-1.3.4-1/png/pngpread.c ****    {
 4239              		.loc 1 699 4 view .LVU1299
 699:fltk-1.3.4-1/png/pngpread.c ****    {
 4240              		.loc 1 699 7 is_stmt 0 view .LVU1300
 4241 01de 85C0     		testl	%eax, %eax
 4242 01e0 0F85C7FE 		jne	.L453
 4242      FFFF
 699:fltk-1.3.4-1/png/pngpread.c ****    {
 4243              		.loc 1 699 7 view .LVU1301
 4244 01e6 E9EFFEFF 		jmp	.L465
 4244      FF
 4245              	.LVL358:
 4246 01eb 0F1F4400 		.p2align 4,,10
 4246      00
 4247              		.p2align 3
 4248              	.L467:
 701:fltk-1.3.4-1/png/pngpread.c ****       png_crc_finish(png_ptr, 0);
 4249              		.loc 1 701 7 is_stmt 1 discriminator 1 view .LVU1302
 4250 01f0 4889EF   		movq	%rbp, %rdi
 4251 01f3 E8000000 		call	png_push_save_buffer
 4251      00
 4252              	.LVL359:
 701:fltk-1.3.4-1/png/pngpread.c ****       png_crc_finish(png_ptr, 0);
 4253              		.loc 1 701 7 discriminator 1 view .LVU1303
 4254 01f8 E9B0FEFF 		jmp	.L453
 4254      FF
 4255 01fd 0F1F00   		.p2align 4,,10
 4256              		.p2align 3
 4257              	.L457:
 4258              	.LBB334:
 644:fltk-1.3.4-1/png/pngpread.c ****    }
 4259              		.loc 1 644 7 view .LVU1304
 644:fltk-1.3.4-1/png/pngpread.c ****    }
 4260              		.loc 1 644 35 is_stmt 0 view .LVU1305
 4261 0200 8B9D5803 		movl	856(%rbp), %ebx
 4261      0000
 644:fltk-1.3.4-1/png/pngpread.c ****    }
 4262              		.loc 1 644 26 view .LVU1306
 4263 0206 899D5802 		movl	%ebx, 600(%rbp)
 4263      0000
 4264 020c E9C5FEFF 		jmp	.L458
 4264      FF
 4265              	.L485:
 644:fltk-1.3.4-1/png/pngpread.c ****    }
 4266              		.loc 1 644 26 view .LVU1307
 4267              	.LBE334:
 707:fltk-1.3.4-1/png/pngpread.c **** 
 4268              		.loc 1 707 1 view .LVU1308
 4269 0211 E8000000 		call	__stack_chk_fail@PLT
 4269      00
 4270              	.LVL360:
 4271              	.L484:
 4272              	.LBB335:
 639:fltk-1.3.4-1/png/pngpread.c **** 
 4273              		.loc 1 639 13 is_stmt 1 view .LVU1309
 4274 0216 488D3500 		leaq	.LC18(%rip), %rsi
 4274      000000
 4275 021d 4889EF   		movq	%rbp, %rdi
 4276 0220 E8000000 		call	png_error@PLT
 4276      00
 4277              	.LVL361:
 4278              	.LBE335:
 4279              		.cfi_endproc
 4280              	.LFE52:
 4282              		.section	.text.png_process_some_data,"ax",@progbits
 4283              		.p2align 4
 4284              		.globl	png_process_some_data
 4286              	png_process_some_data:
 4287              	.LVL362:
 4288              	.LFB44:
 114:fltk-1.3.4-1/png/pngpread.c ****    if (png_ptr == NULL)
 4289              		.loc 1 114 1 view -0
 4290              		.cfi_startproc
 114:fltk-1.3.4-1/png/pngpread.c ****    if (png_ptr == NULL)
 4291              		.loc 1 114 1 is_stmt 0 view .LVU1311
 4292 0000 F30F1EFA 		endbr64
 115:fltk-1.3.4-1/png/pngpread.c ****       return;
 4293              		.loc 1 115 4 is_stmt 1 view .LVU1312
 115:fltk-1.3.4-1/png/pngpread.c ****       return;
 4294              		.loc 1 115 7 is_stmt 0 view .LVU1313
 4295 0004 4885FF   		testq	%rdi, %rdi
 4296 0007 743A     		je	.L487
 118:fltk-1.3.4-1/png/pngpread.c ****    {
 4297              		.loc 1 118 4 is_stmt 1 view .LVU1314
 118:fltk-1.3.4-1/png/pngpread.c ****    {
 4298              		.loc 1 118 19 is_stmt 0 view .LVU1315
 4299 0009 8B878003 		movl	896(%rdi), %eax
 4299      0000
 118:fltk-1.3.4-1/png/pngpread.c ****    {
 4300              		.loc 1 118 4 view .LVU1316
 4301 000f 83F802   		cmpl	$2, %eax
 4302 0012 743C     		je	.L489
 4303 0014 7F12     		jg	.L490
 4304 0016 85C0     		testl	%eax, %eax
 4305 0018 742E     		je	.L491
 4306 001a 83F801   		cmpl	$1, %eax
 4307 001d 7519     		jne	.L493
 128:fltk-1.3.4-1/png/pngpread.c ****          break;
 4308              		.loc 1 128 10 is_stmt 1 view .LVU1317
 4309 001f E9000000 		jmp	png_push_read_chunk
 4309      00
 4310              	.LVL363:
 4311              		.p2align 4,,10
 4312 0024 0F1F4000 		.p2align 3
 4313              	.L490:
 118:fltk-1.3.4-1/png/pngpread.c ****    {
 4314              		.loc 1 118 4 is_stmt 0 view .LVU1318
 4315 0028 83F803   		cmpl	$3, %eax
 4316 002b 750B     		jne	.L493
 140:fltk-1.3.4-1/png/pngpread.c ****          break;
 4317              		.loc 1 140 10 is_stmt 1 view .LVU1319
 4318 002d E9000000 		jmp	png_push_crc_finish
 4318      00
 4319              	.LVL364:
 4320              		.p2align 4,,10
 4321 0032 660F1F44 		.p2align 3
 4321      0000
 4322              	.L493:
 146:fltk-1.3.4-1/png/pngpread.c ****          break;
 4323              		.loc 1 146 10 view .LVU1320
 146:fltk-1.3.4-1/png/pngpread.c ****          break;
 4324              		.loc 1 146 31 is_stmt 0 view .LVU1321
 4325 0038 48C78770 		movq	$0, 880(%rdi)
 4325      03000000 
 4325      000000
 147:fltk-1.3.4-1/png/pngpread.c ****       }
 4326              		.loc 1 147 10 is_stmt 1 view .LVU1322
 4327              	.L487:
 150:fltk-1.3.4-1/png/pngpread.c **** 
 4328              		.loc 1 150 1 is_stmt 0 view .LVU1323
 4329 0043 C3       		ret
 4330              		.p2align 4,,10
 4331 0044 0F1F4000 		.p2align 3
 4332              	.L491:
 122:fltk-1.3.4-1/png/pngpread.c ****          break;
 4333              		.loc 1 122 10 is_stmt 1 view .LVU1324
 4334 0048 E9000000 		jmp	png_push_read_sig
 4334      00
 4335              	.LVL365:
 4336 004d 0F1F00   		.p2align 4,,10
 4337              		.p2align 3
 4338              	.L489:
 134:fltk-1.3.4-1/png/pngpread.c ****          break;
 4339              		.loc 1 134 10 view .LVU1325
 4340 0050 E9000000 		jmp	png_push_read_IDAT
 4340      00
 4341              	.LVL366:
 134:fltk-1.3.4-1/png/pngpread.c ****          break;
 4342              		.loc 1 134 10 is_stmt 0 view .LVU1326
 4343              		.cfi_endproc
 4344              	.LFE44:
 4346              		.section	.text.png_process_data,"ax",@progbits
 4347              		.p2align 4
 4348              		.globl	png_process_data
 4350              	png_process_data:
 4351              	.LVL367:
 4352              	.LFB41:
  39:fltk-1.3.4-1/png/pngpread.c ****    if (png_ptr == NULL || info_ptr == NULL)
 4353              		.loc 1 39 1 is_stmt 1 view -0
 4354              		.cfi_startproc
  39:fltk-1.3.4-1/png/pngpread.c ****    if (png_ptr == NULL || info_ptr == NULL)
 4355              		.loc 1 39 1 is_stmt 0 view .LVU1328
 4356 0000 F30F1EFA 		endbr64
  40:fltk-1.3.4-1/png/pngpread.c ****       return;
 4357              		.loc 1 40 4 is_stmt 1 view .LVU1329
  40:fltk-1.3.4-1/png/pngpread.c ****       return;
 4358              		.loc 1 40 7 is_stmt 0 view .LVU1330
 4359 0004 4885FF   		testq	%rdi, %rdi
 4360 0007 7457     		je	.L508
  39:fltk-1.3.4-1/png/pngpread.c ****    if (png_ptr == NULL || info_ptr == NULL)
 4361              		.loc 1 39 1 view .LVU1331
 4362 0009 55       		pushq	%rbp
 4363              		.cfi_def_cfa_offset 16
 4364              		.cfi_offset 6, -16
 4365 000a 4889F5   		movq	%rsi, %rbp
 4366 000d 53       		pushq	%rbx
 4367              		.cfi_def_cfa_offset 24
 4368              		.cfi_offset 3, -24
 4369 000e 4883EC08 		subq	$8, %rsp
 4370              		.cfi_def_cfa_offset 32
  40:fltk-1.3.4-1/png/pngpread.c ****       return;
 4371              		.loc 1 40 7 view .LVU1332
 4372 0012 4885F6   		testq	%rsi, %rsi
 4373 0015 743E     		je	.L498
 4374              	.LBB336:
 4375              	.LBB337:
 612:fltk-1.3.4-1/png/pngpread.c ****    png_ptr->buffer_size = buffer_length + png_ptr->save_buffer_size;
 4376              		.loc 1 612 33 view .LVU1333
 4377 0017 48898F78 		movq	%rcx, 888(%rdi)
 4377      030000
 613:fltk-1.3.4-1/png/pngpread.c ****    png_ptr->current_buffer_ptr = png_ptr->current_buffer;
 4378              		.loc 1 613 41 view .LVU1334
 4379 001e 48038F60 		addq	864(%rdi), %rcx
 4379      030000
 4380              	.LVL368:
 613:fltk-1.3.4-1/png/pngpread.c ****    png_ptr->current_buffer_ptr = png_ptr->current_buffer;
 4381              		.loc 1 613 41 view .LVU1335
 4382 0025 4889FB   		movq	%rdi, %rbx
 4383              	.LBE337:
 4384              	.LBE336:
  43:fltk-1.3.4-1/png/pngpread.c **** 
 4385              		.loc 1 43 4 is_stmt 1 view .LVU1336
 4386              	.LVL369:
 4387              	.LBB339:
 4388              	.LBI336:
 608:fltk-1.3.4-1/png/pngpread.c ****    png_size_t buffer_length)
 4389              		.loc 1 608 1 view .LVU1337
 4390              	.LBB338:
 611:fltk-1.3.4-1/png/pngpread.c ****    png_ptr->current_buffer_size = buffer_length;
 4391              		.loc 1 611 4 view .LVU1338
 611:fltk-1.3.4-1/png/pngpread.c ****    png_ptr->current_buffer_size = buffer_length;
 4392              		.loc 1 611 28 is_stmt 0 view .LVU1339
 4393 0028 48899750 		movq	%rdx, 848(%rdi)
 4393      030000
 612:fltk-1.3.4-1/png/pngpread.c ****    png_ptr->buffer_size = buffer_length + png_ptr->save_buffer_size;
 4394              		.loc 1 612 4 is_stmt 1 view .LVU1340
 613:fltk-1.3.4-1/png/pngpread.c ****    png_ptr->current_buffer_ptr = png_ptr->current_buffer;
 4395              		.loc 1 613 4 view .LVU1341
 613:fltk-1.3.4-1/png/pngpread.c ****    png_ptr->current_buffer_ptr = png_ptr->current_buffer;
 4396              		.loc 1 613 25 is_stmt 0 view .LVU1342
 4397 002f 48898F70 		movq	%rcx, 880(%rdi)
 4397      030000
 614:fltk-1.3.4-1/png/pngpread.c **** }
 4398              		.loc 1 614 4 is_stmt 1 view .LVU1343
 614:fltk-1.3.4-1/png/pngpread.c **** }
 4399              		.loc 1 614 32 is_stmt 0 view .LVU1344
 4400 0036 48899748 		movq	%rdx, 840(%rdi)
 4400      030000
 4401              	.LVL370:
 614:fltk-1.3.4-1/png/pngpread.c **** }
 4402              		.loc 1 614 32 view .LVU1345
 4403              	.LBE338:
 4404              	.LBE339:
  45:fltk-1.3.4-1/png/pngpread.c ****    {
 4405              		.loc 1 45 10 is_stmt 1 view .LVU1346
 4406 003d 7416     		je	.L498
 4407              	.LVL371:
 4408 003f 90       		.p2align 4,,10
 4409              		.p2align 3
 4410              	.L502:
  47:fltk-1.3.4-1/png/pngpread.c ****    }
 4411              		.loc 1 47 7 view .LVU1347
 4412 0040 4889EE   		movq	%rbp, %rsi
 4413 0043 4889DF   		movq	%rbx, %rdi
 4414 0046 E8000000 		call	png_process_some_data
 4414      00
 4415              	.LVL372:
  45:fltk-1.3.4-1/png/pngpread.c ****    {
 4416              		.loc 1 45 10 view .LVU1348
 4417 004b 4883BB70 		cmpq	$0, 880(%rbx)
 4417      03000000 
 4418 0053 75EB     		jne	.L502
 4419              	.LVL373:
 4420              	.L498:
  49:fltk-1.3.4-1/png/pngpread.c **** 
 4421              		.loc 1 49 1 is_stmt 0 view .LVU1349
 4422 0055 4883C408 		addq	$8, %rsp
 4423              		.cfi_def_cfa_offset 24
 4424 0059 5B       		popq	%rbx
 4425              		.cfi_def_cfa_offset 16
 4426 005a 5D       		popq	%rbp
 4427              		.cfi_def_cfa_offset 8
 4428              	.LVL374:
  49:fltk-1.3.4-1/png/pngpread.c **** 
 4429              		.loc 1 49 1 view .LVU1350
 4430 005b C3       		ret
 4431              	.LVL375:
 4432 005c 0F1F4000 		.p2align 4,,10
 4433              		.p2align 3
 4434              	.L508:
 4435              		.cfi_restore 3
 4436              		.cfi_restore 6
  49:fltk-1.3.4-1/png/pngpread.c **** 
 4437              		.loc 1 49 1 view .LVU1351
 4438 0060 C3       		ret
 4439              		.cfi_endproc
 4440              	.LFE41:
 4442              		.section	.text.png_read_push_finish_row,"ax",@progbits
 4443              		.p2align 4
 4444              		.globl	png_read_push_finish_row
 4446              	png_read_push_finish_row:
 4447              	.LVL376:
 4448              	.LFB55:
1047:fltk-1.3.4-1/png/pngpread.c ****    /* Arrays to facilitate easy interlacing - use pass (0 - 6) as index */
 4449              		.loc 1 1047 1 is_stmt 1 view -0
 4450              		.cfi_startproc
1047:fltk-1.3.4-1/png/pngpread.c ****    /* Arrays to facilitate easy interlacing - use pass (0 - 6) as index */
 4451              		.loc 1 1047 1 is_stmt 0 view .LVU1353
 4452 0000 F30F1EFA 		endbr64
1051:fltk-1.3.4-1/png/pngpread.c **** 
 4453              		.loc 1 1051 4 is_stmt 1 view .LVU1354
1054:fltk-1.3.4-1/png/pngpread.c **** 
 4454              		.loc 1 1054 4 view .LVU1355
1057:fltk-1.3.4-1/png/pngpread.c **** 
 4455              		.loc 1 1057 4 view .LVU1356
1060:fltk-1.3.4-1/png/pngpread.c **** 
 4456              		.loc 1 1060 4 view .LVU1357
1068:fltk-1.3.4-1/png/pngpread.c ****    if (png_ptr->row_number < png_ptr->num_rows)
 4457              		.loc 1 1068 4 view .LVU1358
1068:fltk-1.3.4-1/png/pngpread.c ****    if (png_ptr->row_number < png_ptr->num_rows)
 4458              		.loc 1 1068 23 is_stmt 0 view .LVU1359
 4459 0004 8B871402 		movl	532(%rdi), %eax
 4459      0000
 4460 000a 83C001   		addl	$1, %eax
 4461 000d 89871402 		movl	%eax, 532(%rdi)
 4461      0000
1069:fltk-1.3.4-1/png/pngpread.c ****       return;
 4462              		.loc 1 1069 4 is_stmt 1 view .LVU1360
1069:fltk-1.3.4-1/png/pngpread.c ****       return;
 4463              		.loc 1 1069 7 is_stmt 0 view .LVU1361
 4464 0013 3B870002 		cmpl	512(%rdi), %eax
 4464      0000
 4465 0019 7209     		jb	.L511
1072:fltk-1.3.4-1/png/pngpread.c ****    {
 4466              		.loc 1 1072 4 is_stmt 1 view .LVU1362
1072:fltk-1.3.4-1/png/pngpread.c ****    {
 4467              		.loc 1 1072 7 is_stmt 0 view .LVU1363
 4468 001b 80BF7402 		cmpb	$0, 628(%rdi)
 4468      000000
 4469 0022 7504     		jne	.L513
 4470              	.L511:
1106:fltk-1.3.4-1/png/pngpread.c **** 
 4471              		.loc 1 1106 1 view .LVU1364
 4472 0024 C3       		ret
 4473              		.p2align 4,,10
 4474 0025 0F1F00   		.p2align 3
 4475              	.L513:
 4476 0028 E9000000 		jmp	png_read_push_finish_row.part.0
 4476      00
 4477              	.LVL377:
1106:fltk-1.3.4-1/png/pngpread.c **** 
 4478              		.loc 1 1106 1 view .LVU1365
 4479              		.cfi_endproc
 4480              	.LFE55:
 4482              		.section	.text.png_push_have_info,"ax",@progbits
 4483              		.p2align 4
 4484              		.globl	png_push_have_info
 4486              	png_push_have_info:
 4487              	.LVL378:
 4488              	.LFB56:
1110:fltk-1.3.4-1/png/pngpread.c ****    if (png_ptr->info_fn != NULL)
 4489              		.loc 1 1110 1 is_stmt 1 view -0
 4490              		.cfi_startproc
1110:fltk-1.3.4-1/png/pngpread.c ****    if (png_ptr->info_fn != NULL)
 4491              		.loc 1 1110 1 is_stmt 0 view .LVU1367
 4492 0000 F30F1EFA 		endbr64
1111:fltk-1.3.4-1/png/pngpread.c ****       (*(png_ptr->info_fn))(png_ptr, info_ptr);
 4493              		.loc 1 1111 4 is_stmt 1 view .LVU1368
1111:fltk-1.3.4-1/png/pngpread.c ****       (*(png_ptr->info_fn))(png_ptr, info_ptr);
 4494              		.loc 1 1111 15 is_stmt 0 view .LVU1369
 4495 0004 488B8720 		movq	800(%rdi), %rax
 4495      030000
1111:fltk-1.3.4-1/png/pngpread.c ****       (*(png_ptr->info_fn))(png_ptr, info_ptr);
 4496              		.loc 1 1111 7 view .LVU1370
 4497 000b 4885C0   		testq	%rax, %rax
 4498 000e 7408     		je	.L514
1112:fltk-1.3.4-1/png/pngpread.c **** }
 4499              		.loc 1 1112 7 is_stmt 1 view .LVU1371
1112:fltk-1.3.4-1/png/pngpread.c **** }
 4500              		.loc 1 1112 8 is_stmt 0 view .LVU1372
 4501 0010 FFE0     		jmp	*%rax
 4502              	.LVL379:
 4503              		.p2align 4,,10
 4504 0012 660F1F44 		.p2align 3
 4504      0000
 4505              	.L514:
1113:fltk-1.3.4-1/png/pngpread.c **** 
 4506              		.loc 1 1113 1 view .LVU1373
 4507 0018 C3       		ret
 4508              		.cfi_endproc
 4509              	.LFE56:
 4511              		.section	.text.png_push_have_end,"ax",@progbits
 4512              		.p2align 4
 4513              		.globl	png_push_have_end
 4515              	png_push_have_end:
 4516              	.LVL380:
 4517              	.LFB57:
1117:fltk-1.3.4-1/png/pngpread.c ****    if (png_ptr->end_fn != NULL)
 4518              		.loc 1 1117 1 is_stmt 1 view -0
 4519              		.cfi_startproc
1117:fltk-1.3.4-1/png/pngpread.c ****    if (png_ptr->end_fn != NULL)
 4520              		.loc 1 1117 1 is_stmt 0 view .LVU1375
 4521 0000 F30F1EFA 		endbr64
1118:fltk-1.3.4-1/png/pngpread.c ****       (*(png_ptr->end_fn))(png_ptr, info_ptr);
 4522              		.loc 1 1118 4 is_stmt 1 view .LVU1376
1118:fltk-1.3.4-1/png/pngpread.c ****       (*(png_ptr->end_fn))(png_ptr, info_ptr);
 4523              		.loc 1 1118 15 is_stmt 0 view .LVU1377
 4524 0004 488B8730 		movq	816(%rdi), %rax
 4524      030000
1118:fltk-1.3.4-1/png/pngpread.c ****       (*(png_ptr->end_fn))(png_ptr, info_ptr);
 4525              		.loc 1 1118 7 view .LVU1378
 4526 000b 4885C0   		testq	%rax, %rax
 4527 000e 7408     		je	.L516
1119:fltk-1.3.4-1/png/pngpread.c **** }
 4528              		.loc 1 1119 7 is_stmt 1 view .LVU1379
1119:fltk-1.3.4-1/png/pngpread.c **** }
 4529              		.loc 1 1119 8 is_stmt 0 view .LVU1380
 4530 0010 FFE0     		jmp	*%rax
 4531              	.LVL381:
 4532              		.p2align 4,,10
 4533 0012 660F1F44 		.p2align 3
 4533      0000
 4534              	.L516:
1120:fltk-1.3.4-1/png/pngpread.c **** 
 4535              		.loc 1 1120 1 view .LVU1381
 4536 0018 C3       		ret
 4537              		.cfi_endproc
 4538              	.LFE57:
 4540              		.section	.text.png_push_have_row,"ax",@progbits
 4541              		.p2align 4
 4542              		.globl	png_push_have_row
 4544              	png_push_have_row:
 4545              	.LVL382:
 4546              	.LFB58:
1124:fltk-1.3.4-1/png/pngpread.c ****    if (png_ptr->row_fn != NULL)
 4547              		.loc 1 1124 1 is_stmt 1 view -0
 4548              		.cfi_startproc
1124:fltk-1.3.4-1/png/pngpread.c ****    if (png_ptr->row_fn != NULL)
 4549              		.loc 1 1124 1 is_stmt 0 view .LVU1383
 4550 0000 F30F1EFA 		endbr64
1125:fltk-1.3.4-1/png/pngpread.c ****       (*(png_ptr->row_fn))(png_ptr, row, png_ptr->row_number,
 4551              		.loc 1 1125 4 is_stmt 1 view .LVU1384
1125:fltk-1.3.4-1/png/pngpread.c ****       (*(png_ptr->row_fn))(png_ptr, row, png_ptr->row_number,
 4552              		.loc 1 1125 15 is_stmt 0 view .LVU1385
 4553 0004 488B8728 		movq	808(%rdi), %rax
 4553      030000
1125:fltk-1.3.4-1/png/pngpread.c ****       (*(png_ptr->row_fn))(png_ptr, row, png_ptr->row_number,
 4554              		.loc 1 1125 7 view .LVU1386
 4555 000b 4885C0   		testq	%rax, %rax
 4556 000e 7410     		je	.L518
 4557              		.loc 1 1126 7 is_stmt 1 view .LVU1387
 4558              		.loc 1 1126 8 is_stmt 0 view .LVU1388
 4559 0010 0FB68F75 		movzbl	629(%rdi), %ecx
 4559      020000
 4560 0017 8B971402 		movl	532(%rdi), %edx
 4560      0000
 4561 001d FFE0     		jmp	*%rax
 4562              	.LVL383:
 4563 001f 90       		.p2align 4,,10
 4564              		.p2align 3
 4565              	.L518:
1127:fltk-1.3.4-1/png/pngpread.c ****          (int)png_ptr->pass);
1128:fltk-1.3.4-1/png/pngpread.c **** }
 4566              		.loc 1 1128 1 view .LVU1389
 4567 0020 C3       		ret
 4568              		.cfi_endproc
 4569              	.LFE58:
 4571              		.section	.text.png_progressive_combine_row,"ax",@progbits
 4572              		.p2align 4
 4573              		.globl	png_progressive_combine_row
 4575              	png_progressive_combine_row:
 4576              	.LVL384:
 4577              	.LFB59:
1129:fltk-1.3.4-1/png/pngpread.c **** 
1130:fltk-1.3.4-1/png/pngpread.c **** void PNGAPI
1131:fltk-1.3.4-1/png/pngpread.c **** png_progressive_combine_row(png_const_structrp png_ptr, png_bytep old_row,
1132:fltk-1.3.4-1/png/pngpread.c ****     png_const_bytep new_row)
1133:fltk-1.3.4-1/png/pngpread.c **** {
 4578              		.loc 1 1133 1 is_stmt 1 view -0
 4579              		.cfi_startproc
 4580              		.loc 1 1133 1 is_stmt 0 view .LVU1391
 4581 0000 F30F1EFA 		endbr64
1134:fltk-1.3.4-1/png/pngpread.c ****    if (png_ptr == NULL)
 4582              		.loc 1 1134 4 is_stmt 1 view .LVU1392
1135:fltk-1.3.4-1/png/pngpread.c ****       return;
1136:fltk-1.3.4-1/png/pngpread.c **** 
1137:fltk-1.3.4-1/png/pngpread.c ****    /* new_row is a flag here - if it is NULL then the app callback was called
1138:fltk-1.3.4-1/png/pngpread.c ****     * from an empty row (see the calls to png_struct::row_fn below), otherwise
1139:fltk-1.3.4-1/png/pngpread.c ****     * it must be png_ptr->row_buf+1
1140:fltk-1.3.4-1/png/pngpread.c ****     */
1141:fltk-1.3.4-1/png/pngpread.c ****    if (new_row != NULL)
 4583              		.loc 1 1141 4 view .LVU1393
 4584              		.loc 1 1141 7 is_stmt 0 view .LVU1394
 4585 0004 4885D2   		testq	%rdx, %rdx
 4586 0007 7417     		je	.L520
 4587 0009 4885FF   		testq	%rdi, %rdi
 4588 000c 7412     		je	.L520
1142:fltk-1.3.4-1/png/pngpread.c ****       png_combine_row(png_ptr, old_row, 1/*blocky display*/);
 4589              		.loc 1 1142 7 is_stmt 1 view .LVU1395
 4590 000e BA010000 		movl	$1, %edx
 4590      00
 4591              	.LVL385:
 4592              		.loc 1 1142 7 is_stmt 0 view .LVU1396
 4593 0013 E9000000 		jmp	png_combine_row@PLT
 4593      00
 4594              	.LVL386:
 4595 0018 0F1F8400 		.p2align 4,,10
 4595      00000000 
 4596              		.p2align 3
 4597              	.L520:
1143:fltk-1.3.4-1/png/pngpread.c **** }
 4598              		.loc 1 1143 1 view .LVU1397
 4599 0020 C3       		ret
 4600              		.cfi_endproc
 4601              	.LFE59:
 4603              		.section	.text.png_set_progressive_read_fn,"ax",@progbits
 4604              		.p2align 4
 4605              		.globl	png_set_progressive_read_fn
 4607              	png_set_progressive_read_fn:
 4608              	.LVL387:
 4609              	.LFB60:
1144:fltk-1.3.4-1/png/pngpread.c **** 
1145:fltk-1.3.4-1/png/pngpread.c **** void PNGAPI
1146:fltk-1.3.4-1/png/pngpread.c **** png_set_progressive_read_fn(png_structrp png_ptr, png_voidp progressive_ptr,
1147:fltk-1.3.4-1/png/pngpread.c ****     png_progressive_info_ptr info_fn, png_progressive_row_ptr row_fn,
1148:fltk-1.3.4-1/png/pngpread.c ****     png_progressive_end_ptr end_fn)
1149:fltk-1.3.4-1/png/pngpread.c **** {
 4610              		.loc 1 1149 1 is_stmt 1 view -0
 4611              		.cfi_startproc
 4612              		.loc 1 1149 1 is_stmt 0 view .LVU1399
 4613 0000 F30F1EFA 		endbr64
1150:fltk-1.3.4-1/png/pngpread.c ****    if (png_ptr == NULL)
 4614              		.loc 1 1150 4 is_stmt 1 view .LVU1400
 4615              		.loc 1 1150 7 is_stmt 0 view .LVU1401
 4616 0004 4885FF   		testq	%rdi, %rdi
 4617 0007 7427     		je	.L528
1151:fltk-1.3.4-1/png/pngpread.c ****       return;
1152:fltk-1.3.4-1/png/pngpread.c **** 
1153:fltk-1.3.4-1/png/pngpread.c ****    png_ptr->info_fn = info_fn;
 4618              		.loc 1 1153 4 is_stmt 1 view .LVU1402
 4619              		.loc 1 1153 21 is_stmt 0 view .LVU1403
 4620 0009 48899720 		movq	%rdx, 800(%rdi)
 4620      030000
1154:fltk-1.3.4-1/png/pngpread.c ****    png_ptr->row_fn = row_fn;
 4621              		.loc 1 1154 4 is_stmt 1 view .LVU1404
1155:fltk-1.3.4-1/png/pngpread.c ****    png_ptr->end_fn = end_fn;
1156:fltk-1.3.4-1/png/pngpread.c **** 
1157:fltk-1.3.4-1/png/pngpread.c ****    png_set_read_fn(png_ptr, progressive_ptr, png_push_fill_buffer);
 4622              		.loc 1 1157 4 is_stmt 0 view .LVU1405
 4623 0010 488D1500 		leaq	png_push_fill_buffer(%rip), %rdx
 4623      000000
 4624              	.LVL388:
1154:fltk-1.3.4-1/png/pngpread.c ****    png_ptr->row_fn = row_fn;
 4625              		.loc 1 1154 20 view .LVU1406
 4626 0017 48898F28 		movq	%rcx, 808(%rdi)
 4626      030000
1155:fltk-1.3.4-1/png/pngpread.c ****    png_ptr->end_fn = end_fn;
 4627              		.loc 1 1155 4 is_stmt 1 view .LVU1407
1155:fltk-1.3.4-1/png/pngpread.c ****    png_ptr->end_fn = end_fn;
 4628              		.loc 1 1155 20 is_stmt 0 view .LVU1408
 4629 001e 4C898730 		movq	%r8, 816(%rdi)
 4629      030000
 4630              		.loc 1 1157 4 is_stmt 1 view .LVU1409
 4631 0025 E9000000 		jmp	png_set_read_fn@PLT
 4631      00
 4632              	.LVL389:
 4633 002a 660F1F44 		.p2align 4,,10
 4633      0000
 4634              		.p2align 3
 4635              	.L528:
1158:fltk-1.3.4-1/png/pngpread.c **** }
 4636              		.loc 1 1158 1 is_stmt 0 view .LVU1410
 4637 0030 C3       		ret
 4638              		.cfi_endproc
 4639              	.LFE60:
 4641              		.section	.text.png_get_progressive_ptr,"ax",@progbits
 4642              		.p2align 4
 4643              		.globl	png_get_progressive_ptr
 4645              	png_get_progressive_ptr:
 4646              	.LVL390:
 4647              	.LFB61:
1159:fltk-1.3.4-1/png/pngpread.c **** 
1160:fltk-1.3.4-1/png/pngpread.c **** png_voidp PNGAPI
1161:fltk-1.3.4-1/png/pngpread.c **** png_get_progressive_ptr(png_const_structrp png_ptr)
1162:fltk-1.3.4-1/png/pngpread.c **** {
 4648              		.loc 1 1162 1 is_stmt 1 view -0
 4649              		.cfi_startproc
 4650              		.loc 1 1162 1 is_stmt 0 view .LVU1412
 4651 0000 F30F1EFA 		endbr64
1163:fltk-1.3.4-1/png/pngpread.c ****    if (png_ptr == NULL)
 4652              		.loc 1 1163 4 is_stmt 1 view .LVU1413
 4653              		.loc 1 1163 7 is_stmt 0 view .LVU1414
 4654 0004 4885FF   		testq	%rdi, %rdi
 4655 0007 740F     		je	.L532
1164:fltk-1.3.4-1/png/pngpread.c ****       return (NULL);
1165:fltk-1.3.4-1/png/pngpread.c **** 
1166:fltk-1.3.4-1/png/pngpread.c ****    return png_ptr->io_ptr;
 4656              		.loc 1 1166 4 is_stmt 1 view .LVU1415
 4657              		.loc 1 1166 18 is_stmt 0 view .LVU1416
 4658 0009 488B8708 		movq	264(%rdi), %rax
 4658      010000
 4659 0010 C3       		ret
 4660              		.p2align 4,,10
 4661 0011 0F1F8000 		.p2align 3
 4661      000000
 4662              	.L532:
1164:fltk-1.3.4-1/png/pngpread.c ****       return (NULL);
 4663              		.loc 1 1164 14 view .LVU1417
 4664 0018 31C0     		xorl	%eax, %eax
1167:fltk-1.3.4-1/png/pngpread.c **** }
 4665              		.loc 1 1167 1 view .LVU1418
 4666 001a C3       		ret
 4667              		.cfi_endproc
 4668              	.LFE61:
 4670              		.section	.rodata.png_pass_ystart.6959,"a"
 4673              	png_pass_ystart.6959:
 4674 0000 00       		.string	""
 4675 0001 00       		.string	""
 4676 0002 0400     		.string	"\004"
 4677 0004 0200     		.string	"\002"
 4678 0006 01       		.ascii	"\001"
 4679              		.section	.rodata.png_pass_yinc.6960,"a"
 4682              	png_pass_yinc.6960:
 4683 0000 08080804 		.ascii	"\b\b\b\004\004\002\002"
 4683      040202
 4684              		.section	.rodata.png_pass_start.6957,"a"
 4687              	png_pass_start.6957:
 4688 0000 00       		.string	""
 4689 0001 0400     		.string	"\004"
 4690 0003 0200     		.string	"\002"
 4691 0005 0100     		.string	"\001"
 4692              		.section	.rodata.png_pass_inc.6958,"a"
 4695              	png_pass_inc.6958:
 4696 0000 08080404 		.ascii	"\b\b\004\004\002\002\001"
 4696      020201
 4697              		.text
 4698              	.Letext0:
 4699              		.file 3 "/usr/lib/gcc/x86_64-linux-gnu/9/include/stddef.h"
 4700              		.file 4 "/usr/include/x86_64-linux-gnu/bits/types.h"
 4701              		.file 5 "/usr/include/x86_64-linux-gnu/bits/types/struct_FILE.h"
 4702              		.file 6 "/usr/include/x86_64-linux-gnu/bits/types/FILE.h"
 4703              		.file 7 "/usr/include/stdio.h"
 4704              		.file 8 "/usr/include/x86_64-linux-gnu/bits/setjmp.h"
 4705              		.file 9 "/usr/include/x86_64-linux-gnu/bits/types/__sigset_t.h"
 4706              		.file 10 "/usr/include/setjmp.h"
 4707              		.file 11 "/usr/include/time.h"
 4708              		.file 12 "fltk-1.3.4-1/png/pngconf.h"
 4709              		.file 13 "fltk-1.3.4-1/png/png.h"
 4710              		.file 14 "fltk-1.3.4-1/png/pngstruct.h"
 4711              		.file 15 "fltk-1.3.4-1/png/pnginfo.h"
 4712              		.file 16 "/usr/include/zconf.h"
 4713              		.file 17 "/usr/include/unistd.h"
 4714              		.file 18 "/usr/include/x86_64-linux-gnu/bits/getopt_core.h"
 4715              		.file 19 "/usr/include/zlib.h"
 4716              		.file 20 "fltk-1.3.4-1/png/pngpriv.h"
 4717              		.file 21 "<built-in>"
 31092              		.section	.note.gnu.property,"a"
 31093              		.align 8
 31094 0000 04000000 		.long	 1f - 0f
 31095 0004 10000000 		.long	 4f - 1f
 31096 0008 05000000 		.long	 5
 31097              	0:
 31098 000c 474E5500 		.string	 "GNU"
 31099              	1:
 31100              		.align 8
 31101 0010 020000C0 		.long	 0xc0000002
 31102 0014 04000000 		.long	 3f - 2f
 31103              	2:
 31104 0018 03000000 		.long	 0x3
 31105              	3:
 31106 001c 00000000 		.align 8
 31107              	4:
DEFINED SYMBOLS
                            *ABS*:0000000000000000 pngpread.c
     /tmp/ccEjDsP5.s:8      .text.png_push_fill_buffer:0000000000000000 png_push_fill_buffer
     /tmp/ccEjDsP5.s:192    .text.png_read_push_finish_row.part.0:0000000000000000 png_read_push_finish_row.part.0
     /tmp/ccEjDsP5.s:4682   .rodata.png_pass_yinc.6960:0000000000000000 png_pass_yinc.6960
     /tmp/ccEjDsP5.s:4673   .rodata.png_pass_ystart.6959:0000000000000000 png_pass_ystart.6959
     /tmp/ccEjDsP5.s:4695   .rodata.png_pass_inc.6958:0000000000000000 png_pass_inc.6958
     /tmp/ccEjDsP5.s:4687   .rodata.png_pass_start.6957:0000000000000000 png_pass_start.6957
     /tmp/ccEjDsP5.s:428    .text.png_process_data_skip:0000000000000000 png_process_data_skip
     /tmp/ccEjDsP5.s:512    .text.png_push_read_sig:0000000000000000 png_push_read_sig
     /tmp/ccEjDsP5.s:652    .text.png_push_crc_skip:0000000000000000 png_push_crc_skip
     /tmp/ccEjDsP5.s:681    .text.png_push_save_buffer:0000000000000000 png_push_save_buffer
     /tmp/ccEjDsP5.s:923    .text.png_process_data_pause:0000000000000000 png_process_data_pause
     /tmp/ccEjDsP5.s:995    .text.png_push_crc_finish:0000000000000000 png_push_crc_finish
     /tmp/ccEjDsP5.s:1224   .text.png_push_read_chunk:0000000000000000 png_push_read_chunk
     /tmp/ccEjDsP5.s:1926   .text.png_push_restore_buffer:0000000000000000 png_push_restore_buffer
     /tmp/ccEjDsP5.s:1966   .text.png_push_process_row:0000000000000000 png_push_process_row
     /tmp/ccEjDsP5.s:3647   .text.png_process_IDAT_data:0000000000000000 png_process_IDAT_data
     /tmp/ccEjDsP5.s:3989   .text.png_push_read_IDAT:0000000000000000 png_push_read_IDAT
     /tmp/ccEjDsP5.s:4286   .text.png_process_some_data:0000000000000000 png_process_some_data
     /tmp/ccEjDsP5.s:4350   .text.png_process_data:0000000000000000 png_process_data
     /tmp/ccEjDsP5.s:4446   .text.png_read_push_finish_row:0000000000000000 png_read_push_finish_row
     /tmp/ccEjDsP5.s:4486   .text.png_push_have_info:0000000000000000 png_push_have_info
     /tmp/ccEjDsP5.s:4515   .text.png_push_have_end:0000000000000000 png_push_have_end
     /tmp/ccEjDsP5.s:4544   .text.png_push_have_row:0000000000000000 png_push_have_row
     /tmp/ccEjDsP5.s:4575   .text.png_progressive_combine_row:0000000000000000 png_progressive_combine_row
     /tmp/ccEjDsP5.s:4607   .text.png_set_progressive_read_fn:0000000000000000 png_set_progressive_read_fn
     /tmp/ccEjDsP5.s:4645   .text.png_get_progressive_ptr:0000000000000000 png_get_progressive_ptr
     /tmp/ccEjDsP5.s:419    .rodata.png_process_data_skip.str1.8:0000000000000000 .LC0
     /tmp/ccEjDsP5.s:422    .rodata.png_process_data_skip.str1.8:0000000000000038 .LC1
     /tmp/ccEjDsP5.s:506    .rodata.png_push_read_sig.str1.8:0000000000000000 .LC3
     /tmp/ccEjDsP5.s:502    .rodata.png_push_read_sig.str1.1:0000000000000000 .LC2
     /tmp/ccEjDsP5.s:675    .rodata.png_push_save_buffer.str1.8:0000000000000028 .LC5
     /tmp/ccEjDsP5.s:672    .rodata.png_push_save_buffer.str1.8:0000000000000000 .LC4
     /tmp/ccEjDsP5.s:1216   .rodata.png_push_read_chunk.str1.1:0000000000000032 .LC8
     /tmp/ccEjDsP5.s:1212   .rodata.png_push_read_chunk.str1.1:0000000000000000 .LC6
     /tmp/ccEjDsP5.s:1218   .rodata.png_push_read_chunk.str1.1:0000000000000047 .LC9
     /tmp/ccEjDsP5.s:1214   .rodata.png_push_read_chunk.str1.1:0000000000000019 .LC7
     /tmp/ccEjDsP5.s:1956   .rodata.png_push_process_row.str1.1:000000000000001a .LC11
     /tmp/ccEjDsP5.s:1954   .rodata.png_push_process_row.str1.1:0000000000000000 .LC10
     /tmp/ccEjDsP5.s:1960   .rodata.png_push_process_row.str1.8:0000000000000000 .LC12
     /tmp/ccEjDsP5.s:3637   .rodata.png_process_IDAT_data.str1.1:000000000000003a .LC16
     /tmp/ccEjDsP5.s:3641   .rodata.png_process_IDAT_data.str1.8:0000000000000028 .LC17
     /tmp/ccEjDsP5.s:3632   .rodata.png_process_IDAT_data.str1.8:0000000000000000 .LC14
     /tmp/ccEjDsP5.s:3635   .rodata.png_process_IDAT_data.str1.1:000000000000001e .LC15
     /tmp/ccEjDsP5.s:3628   .rodata.png_process_IDAT_data.str1.1:0000000000000000 .LC13
     /tmp/ccEjDsP5.s:3983   .rodata.png_push_read_IDAT.str1.1:0000000000000000 .LC18
                           .group:0000000000000000 wm4.0.a6b23a418548ac0bda5d8549c4a2ec91
                           .group:0000000000000000 wm4.stdcpredef.h.19.8dc41bed5d9037ff9622e015fb5f0ce3
                           .group:0000000000000000 wm4.pngpriv.h.26.ca3d1719773cd86007410b516123e125
                           .group:0000000000000000 wm4.features.h.19.320b3bf3f3d04eccd55afd968f1ea5b2
                           .group:0000000000000000 wm4.cdefs.h.19.98d80eddbb3f64f4f30cd9aee9c5593c
                           .group:0000000000000000 wm4.wordsize.h.4.baf119258a1e53d8dba67ceac44ab6bc
                           .group:0000000000000000 wm4.cdefs.h.475.fb75d2e4416aa349344e6f45f683bf28
                           .group:0000000000000000 wm4.stubs64.h.10.6ce4c34010988db072c080326a6b6319
                           .group:0000000000000000 wm4.libcheaderstart.h.37.d9274df4cc0172452960ad9644fa5579
                           .group:0000000000000000 wm4.stdlib.h.28.2cffa49d94c5d85f4538f55f7b59771d
                           .group:0000000000000000 wm4.stddef.h.181.13772e73e5434e8cc4fafaaddad2b5da
                           .group:0000000000000000 wm4.floatn.h.20.80c7cf8a8dfad237004b28d051d5afda
                           .group:0000000000000000 wm4.floatncommon.h.34.7e1840d7dfb19e9bdb51aeb077d76637
                           .group:0000000000000000 wm4.stdlib.h.71.39700ac5536cfafa1b6db501afc46864
                           .group:0000000000000000 wm4.string.h.23.93403f89af7dba8212345449bb14b09d
                           .group:0000000000000000 wm4.libcheaderstart.h.31.87b3c285aeba93fe355ad19123070832
                           .group:0000000000000000 wm4.string.h.31.e39a94e203ad4e1d978c0fc68ce016ee
                           .group:0000000000000000 wm4.stddef.h.231.8136eebbab3406dbf57a7ec475dd5d83
                           .group:0000000000000000 wm4.pnglibconf.h.15.30e2eea90e566ac06da4f4de487193d7
                           .group:0000000000000000 wm4.pngpriv.h.130.f65d93453b5b5837849611ffe82d627a
                           .group:0000000000000000 wm4.png.h.412.12a95b2193a7d0bc2282b72c70a28ce1
                           .group:0000000000000000 wm4.limits.h.23.3c23ae3e8f372a0298be6ce978307bc7
                           .group:0000000000000000 wm4.limits.h.32.6a1c51cbc8834927c9b529a347d7b23f
                           .group:0000000000000000 wm4.posix1_lim.h.32.858fce26e105c5c0f681b222378d5883
                           .group:0000000000000000 wm4.local_lim.h.25.97ee4129efb08ad296101237bcd3401b
                           .group:0000000000000000 wm4.limits.h.3.0a3ae0fffe30e22dfdd77ac2c1b1fbdd
                           .group:0000000000000000 wm4.local_lim.h.42.9dc3935e0e3b94e23cda247e4e39bd8b
                           .group:0000000000000000 wm4.posix2_lim.h.23.56b9c4f885cbac0b652f53ee56b244b1
                           .group:0000000000000000 wm4.limits.h.60.eb7066f861c8b8edc7a0a399744b0335
                           .group:0000000000000000 wm4.stddef.h.39.1bfffcccc3897d82880a055878218da6
                           .group:0000000000000000 wm4.stdio.h.24.5c1b97eef3c86b7a2549420f69f4f128
                           .group:0000000000000000 wm4.stdio.h.31.e39a94e203ad4e1d978c0fc68ce016ee
                           .group:0000000000000000 wm4.stddef.h.155.ba788add86a0e365f264484f110c3c29
                           .group:0000000000000000 wm4.stdarg.h.34.3a23a216c0c293b3d2ea2e89281481e6
                           .group:0000000000000000 wm4.types.h.109.56eb9ae966b255288cc544f18746a7ff
                           .group:0000000000000000 wm4.typesizes.h.24.2c64f817c0dc4b6fb2a2c619d717be26
                           .group:0000000000000000 wm4.time64.h.24.a8166ae916ec910dab0d8987098d42ee
                           .group:0000000000000000 wm4.struct_FILE.h.19.0888ac70396abe1031c03d393554032f
                           .group:0000000000000000 wm4.stdio.h.93.0122ffbd02ddfe34dfaf44a2e3561c5b
                           .group:0000000000000000 wm4.stdio_lim.h.19.86760ef34d2b7513aac6ce30cb73c6f8
                           .group:0000000000000000 wm4.stdio.h.141.d7a290e19ca077c9e4aa7c43ede17a73
                           .group:0000000000000000 wm4.stdio.h.20.38f8a7cea5a7dfe0d9ad992f7c8483f3
                           .group:0000000000000000 wm4.__sigset_t.h.2.6b1ab6ff3d7b8fd9c0c42b0d80afbd80
                           .group:0000000000000000 wm4.setjmp.h.62.5655e5632e7855e400222c83408ceb1d
                           .group:0000000000000000 wm4.time.h.23.18ede267f3a48794bef4705df80339de
                           .group:0000000000000000 wm4.time.h.24.57e6945634c11c9a0e367d020f81b7cf
                           .group:0000000000000000 wm4.endian.h.20.efabd1018df5d7b4052c27dc6bdd5ce5
                           .group:0000000000000000 wm4.endianness.h.2.2c6a211f7909f3af5e9e9cfa3b6b63c8
                           .group:0000000000000000 wm4.endian.h.40.9e5d395adda2f4eb53ae69b69b664084
                           .group:0000000000000000 wm4.pngconf.h.86.6636b2584cb7be1618479e118d71e58c
                           .group:0000000000000000 wm4.png.h.506.fa53b6434c0b20c8e63094b04d7940c5
                           .group:0000000000000000 wm4.pngpriv.h.298.dc2c896ce0eddc5cfadee24e76e3c417
                           .group:0000000000000000 wm4.float.h.29.cae0b78251c51e3ff449cb238a29ed5b
                           .group:0000000000000000 wm4.math.h.26.671af5ac9cd425a35e0730f7b6d7cde2
                           .group:0000000000000000 wm4.math.h.24.808d6e83a8b3b11b5fa9117392e0d6ca
                           .group:0000000000000000 wm4.libmsimddeclstubs.h.34.4541d7d9ef23fb8c722872ed06b4fd48
                           .group:0000000000000000 wm4.math.h.48.5dafc6157c80230c0414aa9de5e109ba
                           .group:0000000000000000 wm4.fplogb.h.23.f264b61801f4cf347bed2d0fad7232d9
                           .group:0000000000000000 wm4.math.h.193.2a53c39a04fb9ee53d2145d0dd51922b
                           .group:0000000000000000 wm4.math.h.262.a3ec711e4bc2a8e48d58e73f7b61f7e6
                           .group:0000000000000000 wm4.math.h.291.31c5ea429e9ba79c95bf28566b299669
                           .group:0000000000000000 wm4.math.h.308.057dcf159b5c763b6f753ad19bd78a7c
                           .group:0000000000000000 wm4.math.h.351.d4dfe6acabbee9531318a05b7f2a0ebb
                           .group:0000000000000000 wm4.math.h.425.dd23fd9bd1a8b67c9cdacb96d25aa4cb
                           .group:0000000000000000 wm4.math.h.30.7cada3efe024725df2da4c705b6566be
                           .group:0000000000000000 wm4.pngpriv.h.481.f98e7c29eaaa759546a3f9808bc25c74
                           .group:0000000000000000 wm4.pngstruct.h.22.7b9573417641055ab8f42438aa8afadf
                           .group:0000000000000000 wm4.zconf.h.9.5d696d5ff537aa9e4334014200af587a
                           .group:0000000000000000 wm4.zconf.h.252.d660ed3b0952e518b3e109403eef37af
                           .group:0000000000000000 wm4.zconf.h.420.b3ba5ae58b852c80eba061279e8960fb
                           .group:0000000000000000 wm4.types.h.23.ad09b9000f4b9223ee132237184eff7f
                           .group:0000000000000000 wm4.types.h.171.9aecc81dc8df45ffba0c25c0647ef29f
                           .group:0000000000000000 wm4.pthreadtypesarch.h.25.6063cba99664c916e22d3a912bcc348a
                           .group:0000000000000000 wm4.struct_mutex.h.20.ed51f515172b9be99e450ba83eb5dd99
                           .group:0000000000000000 wm4.struct_rwlock.h.21.0254880f2904e3833fb8ae683e0f0330
                           .group:0000000000000000 wm4.stdarg.h.31.250806951830a1b6a3066ee41cf22414
                           .group:0000000000000000 wm4.unistd.h.23.9eac1fbc6e0a9aafe6a69df62b992db8
                           .group:0000000000000000 wm4.posix_opt.h.20.25edad97e3613a63f1969894ab33449b
                           .group:0000000000000000 wm4.unistd.h.210.b40c6c15db1d0b653f8dce03f258da9c
                           .group:0000000000000000 wm4.unistd.h.281.99c6c81af9cf38eab36ea34a36ce096b
                           .group:0000000000000000 wm4.confname.h.27.6b00117a32f457cc72e5ac810a9adade
                           .group:0000000000000000 wm4.zconf.h.480.490915782eb343cae7cfb06f78d23c62
                           .group:0000000000000000 wm4.zlib.h.40.096e6fa45bd4a30b5bc135e17c50b44d
                           .group:0000000000000000 wm4.pngstruct.h.44.bc957704556ff8ddcb697678a008ffae
                           .group:0000000000000000 wm4.pngpriv.h.853.4585af3e74cfb155d8486c5333b94adf
                           .group:0000000000000000 wm4.pngdebug.h.36.e9c57d5f35e3128225fb629498ec6fc8

UNDEFINED SYMBOLS
_GLOBAL_OFFSET_TABLE_
memcpy
memset
png_error
png_sig_cmp
png_malloc_warn
png_free
png_calculate_crc
png_crc_finish
png_get_uint_31
png_reset_crc
png_crc_read
png_check_chunk_name
png_handle_IEND
png_handle_IHDR
png_benign_error
png_chunk_unknown_handling
png_handle_unknown
png_handle_PLTE
png_handle_gAMA
png_handle_sBIT
png_handle_cHRM
png_handle_sRGB
png_handle_iCCP
png_handle_sPLT
png_handle_tRNS
png_handle_bKGD
png_handle_hIST
png_handle_pHYs
png_handle_oFFs
__stack_chk_fail
png_handle_pCAL
png_handle_sCAL
png_handle_tIME
png_handle_tEXt
png_handle_zTXt
png_handle_iTXt
png_read_filter_row
png_do_read_interlace
png_do_read_transformations
inflate
png_warning
png_combine_row
png_set_read_fn
