   1              		.file	"pngset.c"
   2              		.text
   3              	.Ltext0:
   4              		.section	.rodata.check_location.str1.8,"aMS",@progbits,1
   5              		.align 8
   6              	.LC0:
   7 0000 706E675F 		.string	"png_set_unknown_chunks now expects a valid location"
   7      7365745F 
   7      756E6B6E 
   7      6F776E5F 
   7      6368756E 
   8 0034 00000000 		.align 8
   9              	.LC1:
  10 0038 696E7661 		.string	"invalid location in png_set_unknown_chunks"
  10      6C696420 
  10      6C6F6361 
  10      74696F6E 
  10      20696E20 
  11              		.section	.text.check_location,"ax",@progbits
  12              		.p2align 4
  14              	check_location:
  15              	.LVL0:
  16              	.LFB66:
  17              		.file 1 "fltk-1.3.4-1/png/pngset.c"
   1:fltk-1.3.4-1/png/pngset.c **** 
   2:fltk-1.3.4-1/png/pngset.c **** /* pngset.c - storage of image information into info struct
   3:fltk-1.3.4-1/png/pngset.c ****  *
   4:fltk-1.3.4-1/png/pngset.c ****  * Last changed in libpng 1.6.15 [November 20, 2014]
   5:fltk-1.3.4-1/png/pngset.c ****  * Copyright (c) 1998-2014 Glenn Randers-Pehrson
   6:fltk-1.3.4-1/png/pngset.c ****  * (Version 0.96 Copyright (c) 1996, 1997 Andreas Dilger)
   7:fltk-1.3.4-1/png/pngset.c ****  * (Version 0.88 Copyright (c) 1995, 1996 Guy Eric Schalnat, Group 42, Inc.)
   8:fltk-1.3.4-1/png/pngset.c ****  *
   9:fltk-1.3.4-1/png/pngset.c ****  * This code is released under the libpng license.
  10:fltk-1.3.4-1/png/pngset.c ****  * For conditions of distribution and use, see the disclaimer
  11:fltk-1.3.4-1/png/pngset.c ****  * and license in png.h
  12:fltk-1.3.4-1/png/pngset.c ****  *
  13:fltk-1.3.4-1/png/pngset.c ****  * The functions here are used during reads to store data from the file
  14:fltk-1.3.4-1/png/pngset.c ****  * into the info struct, and during writes to store application data
  15:fltk-1.3.4-1/png/pngset.c ****  * into the info struct for writing into the file.  This abstracts the
  16:fltk-1.3.4-1/png/pngset.c ****  * info struct and allows us to change the structure in the future.
  17:fltk-1.3.4-1/png/pngset.c ****  */
  18:fltk-1.3.4-1/png/pngset.c **** 
  19:fltk-1.3.4-1/png/pngset.c **** #include "pngpriv.h"
  20:fltk-1.3.4-1/png/pngset.c **** 
  21:fltk-1.3.4-1/png/pngset.c **** #if defined(PNG_READ_SUPPORTED) || defined(PNG_WRITE_SUPPORTED)
  22:fltk-1.3.4-1/png/pngset.c **** 
  23:fltk-1.3.4-1/png/pngset.c **** #ifdef PNG_bKGD_SUPPORTED
  24:fltk-1.3.4-1/png/pngset.c **** void PNGAPI
  25:fltk-1.3.4-1/png/pngset.c **** png_set_bKGD(png_const_structrp png_ptr, png_inforp info_ptr,
  26:fltk-1.3.4-1/png/pngset.c ****     png_const_color_16p background)
  27:fltk-1.3.4-1/png/pngset.c **** {
  28:fltk-1.3.4-1/png/pngset.c ****    png_debug1(1, "in %s storage function", "bKGD");
  29:fltk-1.3.4-1/png/pngset.c **** 
  30:fltk-1.3.4-1/png/pngset.c ****    if (png_ptr == NULL || info_ptr == NULL || background == NULL)
  31:fltk-1.3.4-1/png/pngset.c ****       return;
  32:fltk-1.3.4-1/png/pngset.c **** 
  33:fltk-1.3.4-1/png/pngset.c ****    info_ptr->background = *background;
  34:fltk-1.3.4-1/png/pngset.c ****    info_ptr->valid |= PNG_INFO_bKGD;
  35:fltk-1.3.4-1/png/pngset.c **** }
  36:fltk-1.3.4-1/png/pngset.c **** #endif
  37:fltk-1.3.4-1/png/pngset.c **** 
  38:fltk-1.3.4-1/png/pngset.c **** #ifdef PNG_cHRM_SUPPORTED
  39:fltk-1.3.4-1/png/pngset.c **** void PNGFAPI
  40:fltk-1.3.4-1/png/pngset.c **** png_set_cHRM_fixed(png_const_structrp png_ptr, png_inforp info_ptr,
  41:fltk-1.3.4-1/png/pngset.c ****     png_fixed_point white_x, png_fixed_point white_y, png_fixed_point red_x,
  42:fltk-1.3.4-1/png/pngset.c ****     png_fixed_point red_y, png_fixed_point green_x, png_fixed_point green_y,
  43:fltk-1.3.4-1/png/pngset.c ****     png_fixed_point blue_x, png_fixed_point blue_y)
  44:fltk-1.3.4-1/png/pngset.c **** {
  45:fltk-1.3.4-1/png/pngset.c ****    png_xy xy;
  46:fltk-1.3.4-1/png/pngset.c **** 
  47:fltk-1.3.4-1/png/pngset.c ****    png_debug1(1, "in %s storage function", "cHRM fixed");
  48:fltk-1.3.4-1/png/pngset.c **** 
  49:fltk-1.3.4-1/png/pngset.c ****    if (png_ptr == NULL || info_ptr == NULL)
  50:fltk-1.3.4-1/png/pngset.c ****       return;
  51:fltk-1.3.4-1/png/pngset.c **** 
  52:fltk-1.3.4-1/png/pngset.c ****    xy.redx = red_x;
  53:fltk-1.3.4-1/png/pngset.c ****    xy.redy = red_y;
  54:fltk-1.3.4-1/png/pngset.c ****    xy.greenx = green_x;
  55:fltk-1.3.4-1/png/pngset.c ****    xy.greeny = green_y;
  56:fltk-1.3.4-1/png/pngset.c ****    xy.bluex = blue_x;
  57:fltk-1.3.4-1/png/pngset.c ****    xy.bluey = blue_y;
  58:fltk-1.3.4-1/png/pngset.c ****    xy.whitex = white_x;
  59:fltk-1.3.4-1/png/pngset.c ****    xy.whitey = white_y;
  60:fltk-1.3.4-1/png/pngset.c **** 
  61:fltk-1.3.4-1/png/pngset.c ****    if (png_colorspace_set_chromaticities(png_ptr, &info_ptr->colorspace, &xy,
  62:fltk-1.3.4-1/png/pngset.c ****        2/* override with app values*/) != 0)
  63:fltk-1.3.4-1/png/pngset.c ****       info_ptr->colorspace.flags |= PNG_COLORSPACE_FROM_cHRM;
  64:fltk-1.3.4-1/png/pngset.c **** 
  65:fltk-1.3.4-1/png/pngset.c ****    png_colorspace_sync_info(png_ptr, info_ptr);
  66:fltk-1.3.4-1/png/pngset.c **** }
  67:fltk-1.3.4-1/png/pngset.c **** 
  68:fltk-1.3.4-1/png/pngset.c **** void PNGFAPI
  69:fltk-1.3.4-1/png/pngset.c **** png_set_cHRM_XYZ_fixed(png_const_structrp png_ptr, png_inforp info_ptr,
  70:fltk-1.3.4-1/png/pngset.c ****     png_fixed_point int_red_X, png_fixed_point int_red_Y,
  71:fltk-1.3.4-1/png/pngset.c ****     png_fixed_point int_red_Z, png_fixed_point int_green_X,
  72:fltk-1.3.4-1/png/pngset.c ****     png_fixed_point int_green_Y, png_fixed_point int_green_Z,
  73:fltk-1.3.4-1/png/pngset.c ****     png_fixed_point int_blue_X, png_fixed_point int_blue_Y,
  74:fltk-1.3.4-1/png/pngset.c ****     png_fixed_point int_blue_Z)
  75:fltk-1.3.4-1/png/pngset.c **** {
  76:fltk-1.3.4-1/png/pngset.c ****    png_XYZ XYZ;
  77:fltk-1.3.4-1/png/pngset.c **** 
  78:fltk-1.3.4-1/png/pngset.c ****    png_debug1(1, "in %s storage function", "cHRM XYZ fixed");
  79:fltk-1.3.4-1/png/pngset.c **** 
  80:fltk-1.3.4-1/png/pngset.c ****    if (png_ptr == NULL || info_ptr == NULL)
  81:fltk-1.3.4-1/png/pngset.c ****       return;
  82:fltk-1.3.4-1/png/pngset.c **** 
  83:fltk-1.3.4-1/png/pngset.c ****    XYZ.red_X = int_red_X;
  84:fltk-1.3.4-1/png/pngset.c ****    XYZ.red_Y = int_red_Y;
  85:fltk-1.3.4-1/png/pngset.c ****    XYZ.red_Z = int_red_Z;
  86:fltk-1.3.4-1/png/pngset.c ****    XYZ.green_X = int_green_X;
  87:fltk-1.3.4-1/png/pngset.c ****    XYZ.green_Y = int_green_Y;
  88:fltk-1.3.4-1/png/pngset.c ****    XYZ.green_Z = int_green_Z;
  89:fltk-1.3.4-1/png/pngset.c ****    XYZ.blue_X = int_blue_X;
  90:fltk-1.3.4-1/png/pngset.c ****    XYZ.blue_Y = int_blue_Y;
  91:fltk-1.3.4-1/png/pngset.c ****    XYZ.blue_Z = int_blue_Z;
  92:fltk-1.3.4-1/png/pngset.c **** 
  93:fltk-1.3.4-1/png/pngset.c ****    if (png_colorspace_set_endpoints(png_ptr, &info_ptr->colorspace,
  94:fltk-1.3.4-1/png/pngset.c ****        &XYZ, 2) != 0)
  95:fltk-1.3.4-1/png/pngset.c ****       info_ptr->colorspace.flags |= PNG_COLORSPACE_FROM_cHRM;
  96:fltk-1.3.4-1/png/pngset.c **** 
  97:fltk-1.3.4-1/png/pngset.c ****    png_colorspace_sync_info(png_ptr, info_ptr);
  98:fltk-1.3.4-1/png/pngset.c **** }
  99:fltk-1.3.4-1/png/pngset.c **** 
 100:fltk-1.3.4-1/png/pngset.c **** #  ifdef PNG_FLOATING_POINT_SUPPORTED
 101:fltk-1.3.4-1/png/pngset.c **** void PNGAPI
 102:fltk-1.3.4-1/png/pngset.c **** png_set_cHRM(png_const_structrp png_ptr, png_inforp info_ptr,
 103:fltk-1.3.4-1/png/pngset.c ****     double white_x, double white_y, double red_x, double red_y,
 104:fltk-1.3.4-1/png/pngset.c ****     double green_x, double green_y, double blue_x, double blue_y)
 105:fltk-1.3.4-1/png/pngset.c **** {
 106:fltk-1.3.4-1/png/pngset.c ****    png_set_cHRM_fixed(png_ptr, info_ptr,
 107:fltk-1.3.4-1/png/pngset.c ****       png_fixed(png_ptr, white_x, "cHRM White X"),
 108:fltk-1.3.4-1/png/pngset.c ****       png_fixed(png_ptr, white_y, "cHRM White Y"),
 109:fltk-1.3.4-1/png/pngset.c ****       png_fixed(png_ptr, red_x, "cHRM Red X"),
 110:fltk-1.3.4-1/png/pngset.c ****       png_fixed(png_ptr, red_y, "cHRM Red Y"),
 111:fltk-1.3.4-1/png/pngset.c ****       png_fixed(png_ptr, green_x, "cHRM Green X"),
 112:fltk-1.3.4-1/png/pngset.c ****       png_fixed(png_ptr, green_y, "cHRM Green Y"),
 113:fltk-1.3.4-1/png/pngset.c ****       png_fixed(png_ptr, blue_x, "cHRM Blue X"),
 114:fltk-1.3.4-1/png/pngset.c ****       png_fixed(png_ptr, blue_y, "cHRM Blue Y"));
 115:fltk-1.3.4-1/png/pngset.c **** }
 116:fltk-1.3.4-1/png/pngset.c **** 
 117:fltk-1.3.4-1/png/pngset.c **** void PNGAPI
 118:fltk-1.3.4-1/png/pngset.c **** png_set_cHRM_XYZ(png_const_structrp png_ptr, png_inforp info_ptr, double red_X,
 119:fltk-1.3.4-1/png/pngset.c ****     double red_Y, double red_Z, double green_X, double green_Y, double green_Z,
 120:fltk-1.3.4-1/png/pngset.c ****     double blue_X, double blue_Y, double blue_Z)
 121:fltk-1.3.4-1/png/pngset.c **** {
 122:fltk-1.3.4-1/png/pngset.c ****    png_set_cHRM_XYZ_fixed(png_ptr, info_ptr,
 123:fltk-1.3.4-1/png/pngset.c ****       png_fixed(png_ptr, red_X, "cHRM Red X"),
 124:fltk-1.3.4-1/png/pngset.c ****       png_fixed(png_ptr, red_Y, "cHRM Red Y"),
 125:fltk-1.3.4-1/png/pngset.c ****       png_fixed(png_ptr, red_Z, "cHRM Red Z"),
 126:fltk-1.3.4-1/png/pngset.c ****       png_fixed(png_ptr, green_X, "cHRM Red X"),
 127:fltk-1.3.4-1/png/pngset.c ****       png_fixed(png_ptr, green_Y, "cHRM Red Y"),
 128:fltk-1.3.4-1/png/pngset.c ****       png_fixed(png_ptr, green_Z, "cHRM Red Z"),
 129:fltk-1.3.4-1/png/pngset.c ****       png_fixed(png_ptr, blue_X, "cHRM Red X"),
 130:fltk-1.3.4-1/png/pngset.c ****       png_fixed(png_ptr, blue_Y, "cHRM Red Y"),
 131:fltk-1.3.4-1/png/pngset.c ****       png_fixed(png_ptr, blue_Z, "cHRM Red Z"));
 132:fltk-1.3.4-1/png/pngset.c **** }
 133:fltk-1.3.4-1/png/pngset.c **** #  endif /* FLOATING_POINT */
 134:fltk-1.3.4-1/png/pngset.c **** 
 135:fltk-1.3.4-1/png/pngset.c **** #endif /* cHRM */
 136:fltk-1.3.4-1/png/pngset.c **** 
 137:fltk-1.3.4-1/png/pngset.c **** #ifdef PNG_gAMA_SUPPORTED
 138:fltk-1.3.4-1/png/pngset.c **** void PNGFAPI
 139:fltk-1.3.4-1/png/pngset.c **** png_set_gAMA_fixed(png_const_structrp png_ptr, png_inforp info_ptr,
 140:fltk-1.3.4-1/png/pngset.c ****     png_fixed_point file_gamma)
 141:fltk-1.3.4-1/png/pngset.c **** {
 142:fltk-1.3.4-1/png/pngset.c ****    png_debug1(1, "in %s storage function", "gAMA");
 143:fltk-1.3.4-1/png/pngset.c **** 
 144:fltk-1.3.4-1/png/pngset.c ****    if (png_ptr == NULL || info_ptr == NULL)
 145:fltk-1.3.4-1/png/pngset.c ****       return;
 146:fltk-1.3.4-1/png/pngset.c **** 
 147:fltk-1.3.4-1/png/pngset.c ****    png_colorspace_set_gamma(png_ptr, &info_ptr->colorspace, file_gamma);
 148:fltk-1.3.4-1/png/pngset.c ****    png_colorspace_sync_info(png_ptr, info_ptr);
 149:fltk-1.3.4-1/png/pngset.c **** }
 150:fltk-1.3.4-1/png/pngset.c **** 
 151:fltk-1.3.4-1/png/pngset.c **** #  ifdef PNG_FLOATING_POINT_SUPPORTED
 152:fltk-1.3.4-1/png/pngset.c **** void PNGAPI
 153:fltk-1.3.4-1/png/pngset.c **** png_set_gAMA(png_const_structrp png_ptr, png_inforp info_ptr, double file_gamma)
 154:fltk-1.3.4-1/png/pngset.c **** {
 155:fltk-1.3.4-1/png/pngset.c ****    png_set_gAMA_fixed(png_ptr, info_ptr, png_fixed(png_ptr, file_gamma,
 156:fltk-1.3.4-1/png/pngset.c ****        "png_set_gAMA"));
 157:fltk-1.3.4-1/png/pngset.c **** }
 158:fltk-1.3.4-1/png/pngset.c **** #  endif
 159:fltk-1.3.4-1/png/pngset.c **** #endif
 160:fltk-1.3.4-1/png/pngset.c **** 
 161:fltk-1.3.4-1/png/pngset.c **** #ifdef PNG_hIST_SUPPORTED
 162:fltk-1.3.4-1/png/pngset.c **** void PNGAPI
 163:fltk-1.3.4-1/png/pngset.c **** png_set_hIST(png_const_structrp png_ptr, png_inforp info_ptr,
 164:fltk-1.3.4-1/png/pngset.c ****     png_const_uint_16p hist)
 165:fltk-1.3.4-1/png/pngset.c **** {
 166:fltk-1.3.4-1/png/pngset.c ****    int i;
 167:fltk-1.3.4-1/png/pngset.c **** 
 168:fltk-1.3.4-1/png/pngset.c ****    png_debug1(1, "in %s storage function", "hIST");
 169:fltk-1.3.4-1/png/pngset.c **** 
 170:fltk-1.3.4-1/png/pngset.c ****    if (png_ptr == NULL || info_ptr == NULL)
 171:fltk-1.3.4-1/png/pngset.c ****       return;
 172:fltk-1.3.4-1/png/pngset.c **** 
 173:fltk-1.3.4-1/png/pngset.c ****    if (info_ptr->num_palette == 0 || info_ptr->num_palette
 174:fltk-1.3.4-1/png/pngset.c ****        > PNG_MAX_PALETTE_LENGTH)
 175:fltk-1.3.4-1/png/pngset.c ****    {
 176:fltk-1.3.4-1/png/pngset.c ****       png_warning(png_ptr,
 177:fltk-1.3.4-1/png/pngset.c ****           "Invalid palette size, hIST allocation skipped");
 178:fltk-1.3.4-1/png/pngset.c **** 
 179:fltk-1.3.4-1/png/pngset.c ****       return;
 180:fltk-1.3.4-1/png/pngset.c ****    }
 181:fltk-1.3.4-1/png/pngset.c **** 
 182:fltk-1.3.4-1/png/pngset.c ****    png_free_data(png_ptr, info_ptr, PNG_FREE_HIST, 0);
 183:fltk-1.3.4-1/png/pngset.c **** 
 184:fltk-1.3.4-1/png/pngset.c ****    /* Changed from info->num_palette to PNG_MAX_PALETTE_LENGTH in
 185:fltk-1.3.4-1/png/pngset.c ****     * version 1.2.1
 186:fltk-1.3.4-1/png/pngset.c ****     */
 187:fltk-1.3.4-1/png/pngset.c ****    info_ptr->hist = png_voidcast(png_uint_16p, png_malloc_warn(png_ptr,
 188:fltk-1.3.4-1/png/pngset.c ****        PNG_MAX_PALETTE_LENGTH * (sizeof (png_uint_16))));
 189:fltk-1.3.4-1/png/pngset.c **** 
 190:fltk-1.3.4-1/png/pngset.c ****    if (info_ptr->hist == NULL)
 191:fltk-1.3.4-1/png/pngset.c ****    {
 192:fltk-1.3.4-1/png/pngset.c ****       png_warning(png_ptr, "Insufficient memory for hIST chunk data");
 193:fltk-1.3.4-1/png/pngset.c ****       return;
 194:fltk-1.3.4-1/png/pngset.c ****    }
 195:fltk-1.3.4-1/png/pngset.c **** 
 196:fltk-1.3.4-1/png/pngset.c ****    info_ptr->free_me |= PNG_FREE_HIST;
 197:fltk-1.3.4-1/png/pngset.c **** 
 198:fltk-1.3.4-1/png/pngset.c ****    for (i = 0; i < info_ptr->num_palette; i++)
 199:fltk-1.3.4-1/png/pngset.c ****       info_ptr->hist[i] = hist[i];
 200:fltk-1.3.4-1/png/pngset.c **** 
 201:fltk-1.3.4-1/png/pngset.c ****    info_ptr->valid |= PNG_INFO_hIST;
 202:fltk-1.3.4-1/png/pngset.c **** }
 203:fltk-1.3.4-1/png/pngset.c **** #endif
 204:fltk-1.3.4-1/png/pngset.c **** 
 205:fltk-1.3.4-1/png/pngset.c **** void PNGAPI
 206:fltk-1.3.4-1/png/pngset.c **** png_set_IHDR(png_const_structrp png_ptr, png_inforp info_ptr,
 207:fltk-1.3.4-1/png/pngset.c ****     png_uint_32 width, png_uint_32 height, int bit_depth,
 208:fltk-1.3.4-1/png/pngset.c ****     int color_type, int interlace_type, int compression_type,
 209:fltk-1.3.4-1/png/pngset.c ****     int filter_type)
 210:fltk-1.3.4-1/png/pngset.c **** {
 211:fltk-1.3.4-1/png/pngset.c ****    png_debug1(1, "in %s storage function", "IHDR");
 212:fltk-1.3.4-1/png/pngset.c **** 
 213:fltk-1.3.4-1/png/pngset.c ****    if (png_ptr == NULL || info_ptr == NULL)
 214:fltk-1.3.4-1/png/pngset.c ****       return;
 215:fltk-1.3.4-1/png/pngset.c **** 
 216:fltk-1.3.4-1/png/pngset.c ****    info_ptr->width = width;
 217:fltk-1.3.4-1/png/pngset.c ****    info_ptr->height = height;
 218:fltk-1.3.4-1/png/pngset.c ****    info_ptr->bit_depth = (png_byte)bit_depth;
 219:fltk-1.3.4-1/png/pngset.c ****    info_ptr->color_type = (png_byte)color_type;
 220:fltk-1.3.4-1/png/pngset.c ****    info_ptr->compression_type = (png_byte)compression_type;
 221:fltk-1.3.4-1/png/pngset.c ****    info_ptr->filter_type = (png_byte)filter_type;
 222:fltk-1.3.4-1/png/pngset.c ****    info_ptr->interlace_type = (png_byte)interlace_type;
 223:fltk-1.3.4-1/png/pngset.c **** 
 224:fltk-1.3.4-1/png/pngset.c ****    png_check_IHDR (png_ptr, info_ptr->width, info_ptr->height,
 225:fltk-1.3.4-1/png/pngset.c ****        info_ptr->bit_depth, info_ptr->color_type, info_ptr->interlace_type,
 226:fltk-1.3.4-1/png/pngset.c ****        info_ptr->compression_type, info_ptr->filter_type);
 227:fltk-1.3.4-1/png/pngset.c **** 
 228:fltk-1.3.4-1/png/pngset.c ****    if (info_ptr->color_type == PNG_COLOR_TYPE_PALETTE)
 229:fltk-1.3.4-1/png/pngset.c ****       info_ptr->channels = 1;
 230:fltk-1.3.4-1/png/pngset.c **** 
 231:fltk-1.3.4-1/png/pngset.c ****    else if ((info_ptr->color_type & PNG_COLOR_MASK_COLOR) != 0)
 232:fltk-1.3.4-1/png/pngset.c ****       info_ptr->channels = 3;
 233:fltk-1.3.4-1/png/pngset.c **** 
 234:fltk-1.3.4-1/png/pngset.c ****    else
 235:fltk-1.3.4-1/png/pngset.c ****       info_ptr->channels = 1;
 236:fltk-1.3.4-1/png/pngset.c **** 
 237:fltk-1.3.4-1/png/pngset.c ****    if ((info_ptr->color_type & PNG_COLOR_MASK_ALPHA) != 0)
 238:fltk-1.3.4-1/png/pngset.c ****       info_ptr->channels++;
 239:fltk-1.3.4-1/png/pngset.c **** 
 240:fltk-1.3.4-1/png/pngset.c ****    info_ptr->pixel_depth = (png_byte)(info_ptr->channels * info_ptr->bit_depth);
 241:fltk-1.3.4-1/png/pngset.c **** 
 242:fltk-1.3.4-1/png/pngset.c ****    info_ptr->rowbytes = PNG_ROWBYTES(info_ptr->pixel_depth, width);
 243:fltk-1.3.4-1/png/pngset.c **** }
 244:fltk-1.3.4-1/png/pngset.c **** 
 245:fltk-1.3.4-1/png/pngset.c **** #ifdef PNG_oFFs_SUPPORTED
 246:fltk-1.3.4-1/png/pngset.c **** void PNGAPI
 247:fltk-1.3.4-1/png/pngset.c **** png_set_oFFs(png_const_structrp png_ptr, png_inforp info_ptr,
 248:fltk-1.3.4-1/png/pngset.c ****     png_int_32 offset_x, png_int_32 offset_y, int unit_type)
 249:fltk-1.3.4-1/png/pngset.c **** {
 250:fltk-1.3.4-1/png/pngset.c ****    png_debug1(1, "in %s storage function", "oFFs");
 251:fltk-1.3.4-1/png/pngset.c **** 
 252:fltk-1.3.4-1/png/pngset.c ****    if (png_ptr == NULL || info_ptr == NULL)
 253:fltk-1.3.4-1/png/pngset.c ****       return;
 254:fltk-1.3.4-1/png/pngset.c **** 
 255:fltk-1.3.4-1/png/pngset.c ****    info_ptr->x_offset = offset_x;
 256:fltk-1.3.4-1/png/pngset.c ****    info_ptr->y_offset = offset_y;
 257:fltk-1.3.4-1/png/pngset.c ****    info_ptr->offset_unit_type = (png_byte)unit_type;
 258:fltk-1.3.4-1/png/pngset.c ****    info_ptr->valid |= PNG_INFO_oFFs;
 259:fltk-1.3.4-1/png/pngset.c **** }
 260:fltk-1.3.4-1/png/pngset.c **** #endif
 261:fltk-1.3.4-1/png/pngset.c **** 
 262:fltk-1.3.4-1/png/pngset.c **** #ifdef PNG_pCAL_SUPPORTED
 263:fltk-1.3.4-1/png/pngset.c **** void PNGAPI
 264:fltk-1.3.4-1/png/pngset.c **** png_set_pCAL(png_const_structrp png_ptr, png_inforp info_ptr,
 265:fltk-1.3.4-1/png/pngset.c ****     png_const_charp purpose, png_int_32 X0, png_int_32 X1, int type,
 266:fltk-1.3.4-1/png/pngset.c ****     int nparams, png_const_charp units, png_charpp params)
 267:fltk-1.3.4-1/png/pngset.c **** {
 268:fltk-1.3.4-1/png/pngset.c ****    png_size_t length;
 269:fltk-1.3.4-1/png/pngset.c ****    int i;
 270:fltk-1.3.4-1/png/pngset.c **** 
 271:fltk-1.3.4-1/png/pngset.c ****    png_debug1(1, "in %s storage function", "pCAL");
 272:fltk-1.3.4-1/png/pngset.c **** 
 273:fltk-1.3.4-1/png/pngset.c ****    if (png_ptr == NULL || info_ptr == NULL || purpose == NULL || units == NULL
 274:fltk-1.3.4-1/png/pngset.c ****       || (nparams > 0 && params == NULL))
 275:fltk-1.3.4-1/png/pngset.c ****       return;
 276:fltk-1.3.4-1/png/pngset.c **** 
 277:fltk-1.3.4-1/png/pngset.c ****    length = strlen(purpose) + 1;
 278:fltk-1.3.4-1/png/pngset.c ****    png_debug1(3, "allocating purpose for info (%lu bytes)",
 279:fltk-1.3.4-1/png/pngset.c ****        (unsigned long)length);
 280:fltk-1.3.4-1/png/pngset.c **** 
 281:fltk-1.3.4-1/png/pngset.c ****    /* TODO: validate format of calibration name and unit name */
 282:fltk-1.3.4-1/png/pngset.c **** 
 283:fltk-1.3.4-1/png/pngset.c ****    /* Check that the type matches the specification. */
 284:fltk-1.3.4-1/png/pngset.c ****    if (type < 0 || type > 3)
 285:fltk-1.3.4-1/png/pngset.c ****       png_error(png_ptr, "Invalid pCAL equation type");
 286:fltk-1.3.4-1/png/pngset.c **** 
 287:fltk-1.3.4-1/png/pngset.c ****    if (nparams < 0 || nparams > 255)
 288:fltk-1.3.4-1/png/pngset.c ****       png_error(png_ptr, "Invalid pCAL parameter count");
 289:fltk-1.3.4-1/png/pngset.c **** 
 290:fltk-1.3.4-1/png/pngset.c ****    /* Validate params[nparams] */
 291:fltk-1.3.4-1/png/pngset.c ****    for (i=0; i<nparams; ++i)
 292:fltk-1.3.4-1/png/pngset.c ****    {
 293:fltk-1.3.4-1/png/pngset.c ****       if (params[i] == NULL ||
 294:fltk-1.3.4-1/png/pngset.c ****           !png_check_fp_string(params[i], strlen(params[i])))
 295:fltk-1.3.4-1/png/pngset.c ****          png_error(png_ptr, "Invalid format for pCAL parameter");
 296:fltk-1.3.4-1/png/pngset.c ****    }
 297:fltk-1.3.4-1/png/pngset.c **** 
 298:fltk-1.3.4-1/png/pngset.c ****    info_ptr->pcal_purpose = png_voidcast(png_charp,
 299:fltk-1.3.4-1/png/pngset.c ****        png_malloc_warn(png_ptr, length));
 300:fltk-1.3.4-1/png/pngset.c **** 
 301:fltk-1.3.4-1/png/pngset.c ****    if (info_ptr->pcal_purpose == NULL)
 302:fltk-1.3.4-1/png/pngset.c ****    {
 303:fltk-1.3.4-1/png/pngset.c ****       png_warning(png_ptr, "Insufficient memory for pCAL purpose");
 304:fltk-1.3.4-1/png/pngset.c ****       return;
 305:fltk-1.3.4-1/png/pngset.c ****    }
 306:fltk-1.3.4-1/png/pngset.c **** 
 307:fltk-1.3.4-1/png/pngset.c ****    memcpy(info_ptr->pcal_purpose, purpose, length);
 308:fltk-1.3.4-1/png/pngset.c **** 
 309:fltk-1.3.4-1/png/pngset.c ****    png_debug(3, "storing X0, X1, type, and nparams in info");
 310:fltk-1.3.4-1/png/pngset.c ****    info_ptr->pcal_X0 = X0;
 311:fltk-1.3.4-1/png/pngset.c ****    info_ptr->pcal_X1 = X1;
 312:fltk-1.3.4-1/png/pngset.c ****    info_ptr->pcal_type = (png_byte)type;
 313:fltk-1.3.4-1/png/pngset.c ****    info_ptr->pcal_nparams = (png_byte)nparams;
 314:fltk-1.3.4-1/png/pngset.c **** 
 315:fltk-1.3.4-1/png/pngset.c ****    length = strlen(units) + 1;
 316:fltk-1.3.4-1/png/pngset.c ****    png_debug1(3, "allocating units for info (%lu bytes)",
 317:fltk-1.3.4-1/png/pngset.c ****      (unsigned long)length);
 318:fltk-1.3.4-1/png/pngset.c **** 
 319:fltk-1.3.4-1/png/pngset.c ****    info_ptr->pcal_units = png_voidcast(png_charp,
 320:fltk-1.3.4-1/png/pngset.c ****       png_malloc_warn(png_ptr, length));
 321:fltk-1.3.4-1/png/pngset.c **** 
 322:fltk-1.3.4-1/png/pngset.c ****    if (info_ptr->pcal_units == NULL)
 323:fltk-1.3.4-1/png/pngset.c ****    {
 324:fltk-1.3.4-1/png/pngset.c ****       png_warning(png_ptr, "Insufficient memory for pCAL units");
 325:fltk-1.3.4-1/png/pngset.c ****       return;
 326:fltk-1.3.4-1/png/pngset.c ****    }
 327:fltk-1.3.4-1/png/pngset.c **** 
 328:fltk-1.3.4-1/png/pngset.c ****    memcpy(info_ptr->pcal_units, units, length);
 329:fltk-1.3.4-1/png/pngset.c **** 
 330:fltk-1.3.4-1/png/pngset.c ****    info_ptr->pcal_params = png_voidcast(png_charpp, png_malloc_warn(png_ptr,
 331:fltk-1.3.4-1/png/pngset.c ****        (png_size_t)((nparams + 1) * (sizeof (png_charp)))));
 332:fltk-1.3.4-1/png/pngset.c **** 
 333:fltk-1.3.4-1/png/pngset.c ****    if (info_ptr->pcal_params == NULL)
 334:fltk-1.3.4-1/png/pngset.c ****    {
 335:fltk-1.3.4-1/png/pngset.c ****       png_warning(png_ptr, "Insufficient memory for pCAL params");
 336:fltk-1.3.4-1/png/pngset.c ****       return;
 337:fltk-1.3.4-1/png/pngset.c ****    }
 338:fltk-1.3.4-1/png/pngset.c **** 
 339:fltk-1.3.4-1/png/pngset.c ****    memset(info_ptr->pcal_params, 0, (nparams + 1) * (sizeof (png_charp)));
 340:fltk-1.3.4-1/png/pngset.c **** 
 341:fltk-1.3.4-1/png/pngset.c ****    for (i = 0; i < nparams; i++)
 342:fltk-1.3.4-1/png/pngset.c ****    {
 343:fltk-1.3.4-1/png/pngset.c ****       length = strlen(params[i]) + 1;
 344:fltk-1.3.4-1/png/pngset.c ****       png_debug2(3, "allocating parameter %d for info (%lu bytes)", i,
 345:fltk-1.3.4-1/png/pngset.c ****           (unsigned long)length);
 346:fltk-1.3.4-1/png/pngset.c **** 
 347:fltk-1.3.4-1/png/pngset.c ****       info_ptr->pcal_params[i] = (png_charp)png_malloc_warn(png_ptr, length);
 348:fltk-1.3.4-1/png/pngset.c **** 
 349:fltk-1.3.4-1/png/pngset.c ****       if (info_ptr->pcal_params[i] == NULL)
 350:fltk-1.3.4-1/png/pngset.c ****       {
 351:fltk-1.3.4-1/png/pngset.c ****          png_warning(png_ptr, "Insufficient memory for pCAL parameter");
 352:fltk-1.3.4-1/png/pngset.c ****          return;
 353:fltk-1.3.4-1/png/pngset.c ****       }
 354:fltk-1.3.4-1/png/pngset.c **** 
 355:fltk-1.3.4-1/png/pngset.c ****       memcpy(info_ptr->pcal_params[i], params[i], length);
 356:fltk-1.3.4-1/png/pngset.c ****    }
 357:fltk-1.3.4-1/png/pngset.c **** 
 358:fltk-1.3.4-1/png/pngset.c ****    info_ptr->valid |= PNG_INFO_pCAL;
 359:fltk-1.3.4-1/png/pngset.c ****    info_ptr->free_me |= PNG_FREE_PCAL;
 360:fltk-1.3.4-1/png/pngset.c **** }
 361:fltk-1.3.4-1/png/pngset.c **** #endif
 362:fltk-1.3.4-1/png/pngset.c **** 
 363:fltk-1.3.4-1/png/pngset.c **** #ifdef PNG_sCAL_SUPPORTED
 364:fltk-1.3.4-1/png/pngset.c **** void PNGAPI
 365:fltk-1.3.4-1/png/pngset.c **** png_set_sCAL_s(png_const_structrp png_ptr, png_inforp info_ptr,
 366:fltk-1.3.4-1/png/pngset.c ****     int unit, png_const_charp swidth, png_const_charp sheight)
 367:fltk-1.3.4-1/png/pngset.c **** {
 368:fltk-1.3.4-1/png/pngset.c ****    png_size_t lengthw = 0, lengthh = 0;
 369:fltk-1.3.4-1/png/pngset.c **** 
 370:fltk-1.3.4-1/png/pngset.c ****    png_debug1(1, "in %s storage function", "sCAL");
 371:fltk-1.3.4-1/png/pngset.c **** 
 372:fltk-1.3.4-1/png/pngset.c ****    if (png_ptr == NULL || info_ptr == NULL)
 373:fltk-1.3.4-1/png/pngset.c ****       return;
 374:fltk-1.3.4-1/png/pngset.c **** 
 375:fltk-1.3.4-1/png/pngset.c ****    /* Double check the unit (should never get here with an invalid
 376:fltk-1.3.4-1/png/pngset.c ****     * unit unless this is an API call.)
 377:fltk-1.3.4-1/png/pngset.c ****     */
 378:fltk-1.3.4-1/png/pngset.c ****    if (unit != 1 && unit != 2)
 379:fltk-1.3.4-1/png/pngset.c ****       png_error(png_ptr, "Invalid sCAL unit");
 380:fltk-1.3.4-1/png/pngset.c **** 
 381:fltk-1.3.4-1/png/pngset.c ****    if (swidth == NULL || (lengthw = strlen(swidth)) == 0 ||
 382:fltk-1.3.4-1/png/pngset.c ****        swidth[0] == 45 /* '-' */ || !png_check_fp_string(swidth, lengthw))
 383:fltk-1.3.4-1/png/pngset.c ****       png_error(png_ptr, "Invalid sCAL width");
 384:fltk-1.3.4-1/png/pngset.c **** 
 385:fltk-1.3.4-1/png/pngset.c ****    if (sheight == NULL || (lengthh = strlen(sheight)) == 0 ||
 386:fltk-1.3.4-1/png/pngset.c ****        sheight[0] == 45 /* '-' */ || !png_check_fp_string(sheight, lengthh))
 387:fltk-1.3.4-1/png/pngset.c ****       png_error(png_ptr, "Invalid sCAL height");
 388:fltk-1.3.4-1/png/pngset.c **** 
 389:fltk-1.3.4-1/png/pngset.c ****    info_ptr->scal_unit = (png_byte)unit;
 390:fltk-1.3.4-1/png/pngset.c **** 
 391:fltk-1.3.4-1/png/pngset.c ****    ++lengthw;
 392:fltk-1.3.4-1/png/pngset.c **** 
 393:fltk-1.3.4-1/png/pngset.c ****    png_debug1(3, "allocating unit for info (%u bytes)", (unsigned int)lengthw);
 394:fltk-1.3.4-1/png/pngset.c **** 
 395:fltk-1.3.4-1/png/pngset.c ****    info_ptr->scal_s_width = png_voidcast(png_charp,
 396:fltk-1.3.4-1/png/pngset.c ****       png_malloc_warn(png_ptr, lengthw));
 397:fltk-1.3.4-1/png/pngset.c **** 
 398:fltk-1.3.4-1/png/pngset.c ****    if (info_ptr->scal_s_width == NULL)
 399:fltk-1.3.4-1/png/pngset.c ****    {
 400:fltk-1.3.4-1/png/pngset.c ****       png_warning(png_ptr, "Memory allocation failed while processing sCAL");
 401:fltk-1.3.4-1/png/pngset.c ****       return;
 402:fltk-1.3.4-1/png/pngset.c ****    }
 403:fltk-1.3.4-1/png/pngset.c **** 
 404:fltk-1.3.4-1/png/pngset.c ****    memcpy(info_ptr->scal_s_width, swidth, lengthw);
 405:fltk-1.3.4-1/png/pngset.c **** 
 406:fltk-1.3.4-1/png/pngset.c ****    ++lengthh;
 407:fltk-1.3.4-1/png/pngset.c **** 
 408:fltk-1.3.4-1/png/pngset.c ****    png_debug1(3, "allocating unit for info (%u bytes)", (unsigned int)lengthh);
 409:fltk-1.3.4-1/png/pngset.c **** 
 410:fltk-1.3.4-1/png/pngset.c ****    info_ptr->scal_s_height = png_voidcast(png_charp,
 411:fltk-1.3.4-1/png/pngset.c ****       png_malloc_warn(png_ptr, lengthh));
 412:fltk-1.3.4-1/png/pngset.c **** 
 413:fltk-1.3.4-1/png/pngset.c ****    if (info_ptr->scal_s_height == NULL)
 414:fltk-1.3.4-1/png/pngset.c ****    {
 415:fltk-1.3.4-1/png/pngset.c ****       png_free (png_ptr, info_ptr->scal_s_width);
 416:fltk-1.3.4-1/png/pngset.c ****       info_ptr->scal_s_width = NULL;
 417:fltk-1.3.4-1/png/pngset.c **** 
 418:fltk-1.3.4-1/png/pngset.c ****       png_warning(png_ptr, "Memory allocation failed while processing sCAL");
 419:fltk-1.3.4-1/png/pngset.c ****       return;
 420:fltk-1.3.4-1/png/pngset.c ****    }
 421:fltk-1.3.4-1/png/pngset.c **** 
 422:fltk-1.3.4-1/png/pngset.c ****    memcpy(info_ptr->scal_s_height, sheight, lengthh);
 423:fltk-1.3.4-1/png/pngset.c **** 
 424:fltk-1.3.4-1/png/pngset.c ****    info_ptr->valid |= PNG_INFO_sCAL;
 425:fltk-1.3.4-1/png/pngset.c ****    info_ptr->free_me |= PNG_FREE_SCAL;
 426:fltk-1.3.4-1/png/pngset.c **** }
 427:fltk-1.3.4-1/png/pngset.c **** 
 428:fltk-1.3.4-1/png/pngset.c **** #  ifdef PNG_FLOATING_POINT_SUPPORTED
 429:fltk-1.3.4-1/png/pngset.c **** void PNGAPI
 430:fltk-1.3.4-1/png/pngset.c **** png_set_sCAL(png_const_structrp png_ptr, png_inforp info_ptr, int unit,
 431:fltk-1.3.4-1/png/pngset.c ****     double width, double height)
 432:fltk-1.3.4-1/png/pngset.c **** {
 433:fltk-1.3.4-1/png/pngset.c ****    png_debug1(1, "in %s storage function", "sCAL");
 434:fltk-1.3.4-1/png/pngset.c **** 
 435:fltk-1.3.4-1/png/pngset.c ****    /* Check the arguments. */
 436:fltk-1.3.4-1/png/pngset.c ****    if (width <= 0)
 437:fltk-1.3.4-1/png/pngset.c ****       png_warning(png_ptr, "Invalid sCAL width ignored");
 438:fltk-1.3.4-1/png/pngset.c **** 
 439:fltk-1.3.4-1/png/pngset.c ****    else if (height <= 0)
 440:fltk-1.3.4-1/png/pngset.c ****       png_warning(png_ptr, "Invalid sCAL height ignored");
 441:fltk-1.3.4-1/png/pngset.c **** 
 442:fltk-1.3.4-1/png/pngset.c ****    else
 443:fltk-1.3.4-1/png/pngset.c ****    {
 444:fltk-1.3.4-1/png/pngset.c ****       /* Convert 'width' and 'height' to ASCII. */
 445:fltk-1.3.4-1/png/pngset.c ****       char swidth[PNG_sCAL_MAX_DIGITS+1];
 446:fltk-1.3.4-1/png/pngset.c ****       char sheight[PNG_sCAL_MAX_DIGITS+1];
 447:fltk-1.3.4-1/png/pngset.c **** 
 448:fltk-1.3.4-1/png/pngset.c ****       png_ascii_from_fp(png_ptr, swidth, (sizeof swidth), width,
 449:fltk-1.3.4-1/png/pngset.c ****          PNG_sCAL_PRECISION);
 450:fltk-1.3.4-1/png/pngset.c ****       png_ascii_from_fp(png_ptr, sheight, (sizeof sheight), height,
 451:fltk-1.3.4-1/png/pngset.c ****          PNG_sCAL_PRECISION);
 452:fltk-1.3.4-1/png/pngset.c **** 
 453:fltk-1.3.4-1/png/pngset.c ****       png_set_sCAL_s(png_ptr, info_ptr, unit, swidth, sheight);
 454:fltk-1.3.4-1/png/pngset.c ****    }
 455:fltk-1.3.4-1/png/pngset.c **** }
 456:fltk-1.3.4-1/png/pngset.c **** #  endif
 457:fltk-1.3.4-1/png/pngset.c **** 
 458:fltk-1.3.4-1/png/pngset.c **** #  ifdef PNG_FIXED_POINT_SUPPORTED
 459:fltk-1.3.4-1/png/pngset.c **** void PNGAPI
 460:fltk-1.3.4-1/png/pngset.c **** png_set_sCAL_fixed(png_const_structrp png_ptr, png_inforp info_ptr, int unit,
 461:fltk-1.3.4-1/png/pngset.c ****     png_fixed_point width, png_fixed_point height)
 462:fltk-1.3.4-1/png/pngset.c **** {
 463:fltk-1.3.4-1/png/pngset.c ****    png_debug1(1, "in %s storage function", "sCAL");
 464:fltk-1.3.4-1/png/pngset.c **** 
 465:fltk-1.3.4-1/png/pngset.c ****    /* Check the arguments. */
 466:fltk-1.3.4-1/png/pngset.c ****    if (width <= 0)
 467:fltk-1.3.4-1/png/pngset.c ****       png_warning(png_ptr, "Invalid sCAL width ignored");
 468:fltk-1.3.4-1/png/pngset.c **** 
 469:fltk-1.3.4-1/png/pngset.c ****    else if (height <= 0)
 470:fltk-1.3.4-1/png/pngset.c ****       png_warning(png_ptr, "Invalid sCAL height ignored");
 471:fltk-1.3.4-1/png/pngset.c **** 
 472:fltk-1.3.4-1/png/pngset.c ****    else
 473:fltk-1.3.4-1/png/pngset.c ****    {
 474:fltk-1.3.4-1/png/pngset.c ****       /* Convert 'width' and 'height' to ASCII. */
 475:fltk-1.3.4-1/png/pngset.c ****       char swidth[PNG_sCAL_MAX_DIGITS+1];
 476:fltk-1.3.4-1/png/pngset.c ****       char sheight[PNG_sCAL_MAX_DIGITS+1];
 477:fltk-1.3.4-1/png/pngset.c **** 
 478:fltk-1.3.4-1/png/pngset.c ****       png_ascii_from_fixed(png_ptr, swidth, (sizeof swidth), width);
 479:fltk-1.3.4-1/png/pngset.c ****       png_ascii_from_fixed(png_ptr, sheight, (sizeof sheight), height);
 480:fltk-1.3.4-1/png/pngset.c **** 
 481:fltk-1.3.4-1/png/pngset.c ****       png_set_sCAL_s(png_ptr, info_ptr, unit, swidth, sheight);
 482:fltk-1.3.4-1/png/pngset.c ****    }
 483:fltk-1.3.4-1/png/pngset.c **** }
 484:fltk-1.3.4-1/png/pngset.c **** #  endif
 485:fltk-1.3.4-1/png/pngset.c **** #endif
 486:fltk-1.3.4-1/png/pngset.c **** 
 487:fltk-1.3.4-1/png/pngset.c **** #ifdef PNG_pHYs_SUPPORTED
 488:fltk-1.3.4-1/png/pngset.c **** void PNGAPI
 489:fltk-1.3.4-1/png/pngset.c **** png_set_pHYs(png_const_structrp png_ptr, png_inforp info_ptr,
 490:fltk-1.3.4-1/png/pngset.c ****     png_uint_32 res_x, png_uint_32 res_y, int unit_type)
 491:fltk-1.3.4-1/png/pngset.c **** {
 492:fltk-1.3.4-1/png/pngset.c ****    png_debug1(1, "in %s storage function", "pHYs");
 493:fltk-1.3.4-1/png/pngset.c **** 
 494:fltk-1.3.4-1/png/pngset.c ****    if (png_ptr == NULL || info_ptr == NULL)
 495:fltk-1.3.4-1/png/pngset.c ****       return;
 496:fltk-1.3.4-1/png/pngset.c **** 
 497:fltk-1.3.4-1/png/pngset.c ****    info_ptr->x_pixels_per_unit = res_x;
 498:fltk-1.3.4-1/png/pngset.c ****    info_ptr->y_pixels_per_unit = res_y;
 499:fltk-1.3.4-1/png/pngset.c ****    info_ptr->phys_unit_type = (png_byte)unit_type;
 500:fltk-1.3.4-1/png/pngset.c ****    info_ptr->valid |= PNG_INFO_pHYs;
 501:fltk-1.3.4-1/png/pngset.c **** }
 502:fltk-1.3.4-1/png/pngset.c **** #endif
 503:fltk-1.3.4-1/png/pngset.c **** 
 504:fltk-1.3.4-1/png/pngset.c **** void PNGAPI
 505:fltk-1.3.4-1/png/pngset.c **** png_set_PLTE(png_structrp png_ptr, png_inforp info_ptr,
 506:fltk-1.3.4-1/png/pngset.c ****     png_const_colorp palette, int num_palette)
 507:fltk-1.3.4-1/png/pngset.c **** {
 508:fltk-1.3.4-1/png/pngset.c **** 
 509:fltk-1.3.4-1/png/pngset.c ****    png_debug1(1, "in %s storage function", "PLTE");
 510:fltk-1.3.4-1/png/pngset.c **** 
 511:fltk-1.3.4-1/png/pngset.c ****    if (png_ptr == NULL || info_ptr == NULL)
 512:fltk-1.3.4-1/png/pngset.c ****       return;
 513:fltk-1.3.4-1/png/pngset.c **** 
 514:fltk-1.3.4-1/png/pngset.c ****    if (num_palette < 0 || num_palette > PNG_MAX_PALETTE_LENGTH)
 515:fltk-1.3.4-1/png/pngset.c ****    {
 516:fltk-1.3.4-1/png/pngset.c ****       if (info_ptr->color_type == PNG_COLOR_TYPE_PALETTE)
 517:fltk-1.3.4-1/png/pngset.c ****          png_error(png_ptr, "Invalid palette length");
 518:fltk-1.3.4-1/png/pngset.c **** 
 519:fltk-1.3.4-1/png/pngset.c ****       else
 520:fltk-1.3.4-1/png/pngset.c ****       {
 521:fltk-1.3.4-1/png/pngset.c ****          png_warning(png_ptr, "Invalid palette length");
 522:fltk-1.3.4-1/png/pngset.c ****          return;
 523:fltk-1.3.4-1/png/pngset.c ****       }
 524:fltk-1.3.4-1/png/pngset.c ****    }
 525:fltk-1.3.4-1/png/pngset.c **** 
 526:fltk-1.3.4-1/png/pngset.c ****    if ((num_palette > 0 && palette == NULL) ||
 527:fltk-1.3.4-1/png/pngset.c ****       (num_palette == 0
 528:fltk-1.3.4-1/png/pngset.c **** #        ifdef PNG_MNG_FEATURES_SUPPORTED
 529:fltk-1.3.4-1/png/pngset.c ****             && (png_ptr->mng_features_permitted & PNG_FLAG_MNG_EMPTY_PLTE) == 0
 530:fltk-1.3.4-1/png/pngset.c **** #        endif
 531:fltk-1.3.4-1/png/pngset.c ****       ))
 532:fltk-1.3.4-1/png/pngset.c ****    {
 533:fltk-1.3.4-1/png/pngset.c ****       png_error(png_ptr, "Invalid palette");
 534:fltk-1.3.4-1/png/pngset.c ****       return;
 535:fltk-1.3.4-1/png/pngset.c ****    }
 536:fltk-1.3.4-1/png/pngset.c **** 
 537:fltk-1.3.4-1/png/pngset.c ****    /* It may not actually be necessary to set png_ptr->palette here;
 538:fltk-1.3.4-1/png/pngset.c ****     * we do it for backward compatibility with the way the png_handle_tRNS
 539:fltk-1.3.4-1/png/pngset.c ****     * function used to do the allocation.
 540:fltk-1.3.4-1/png/pngset.c ****     *
 541:fltk-1.3.4-1/png/pngset.c ****     * 1.6.0: the above statement appears to be incorrect; something has to set
 542:fltk-1.3.4-1/png/pngset.c ****     * the palette inside png_struct on read.
 543:fltk-1.3.4-1/png/pngset.c ****     */
 544:fltk-1.3.4-1/png/pngset.c ****    png_free_data(png_ptr, info_ptr, PNG_FREE_PLTE, 0);
 545:fltk-1.3.4-1/png/pngset.c **** 
 546:fltk-1.3.4-1/png/pngset.c ****    /* Changed in libpng-1.2.1 to allocate PNG_MAX_PALETTE_LENGTH instead
 547:fltk-1.3.4-1/png/pngset.c ****     * of num_palette entries, in case of an invalid PNG file that has
 548:fltk-1.3.4-1/png/pngset.c ****     * too-large sample values.
 549:fltk-1.3.4-1/png/pngset.c ****     */
 550:fltk-1.3.4-1/png/pngset.c ****    png_ptr->palette = png_voidcast(png_colorp, png_calloc(png_ptr,
 551:fltk-1.3.4-1/png/pngset.c ****        PNG_MAX_PALETTE_LENGTH * (sizeof (png_color))));
 552:fltk-1.3.4-1/png/pngset.c **** 
 553:fltk-1.3.4-1/png/pngset.c ****    if (num_palette > 0)
 554:fltk-1.3.4-1/png/pngset.c ****       memcpy(png_ptr->palette, palette, num_palette * (sizeof (png_color)));
 555:fltk-1.3.4-1/png/pngset.c ****    info_ptr->palette = png_ptr->palette;
 556:fltk-1.3.4-1/png/pngset.c ****    info_ptr->num_palette = png_ptr->num_palette = (png_uint_16)num_palette;
 557:fltk-1.3.4-1/png/pngset.c **** 
 558:fltk-1.3.4-1/png/pngset.c ****    info_ptr->free_me |= PNG_FREE_PLTE;
 559:fltk-1.3.4-1/png/pngset.c **** 
 560:fltk-1.3.4-1/png/pngset.c ****    info_ptr->valid |= PNG_INFO_PLTE;
 561:fltk-1.3.4-1/png/pngset.c **** }
 562:fltk-1.3.4-1/png/pngset.c **** 
 563:fltk-1.3.4-1/png/pngset.c **** #ifdef PNG_sBIT_SUPPORTED
 564:fltk-1.3.4-1/png/pngset.c **** void PNGAPI
 565:fltk-1.3.4-1/png/pngset.c **** png_set_sBIT(png_const_structrp png_ptr, png_inforp info_ptr,
 566:fltk-1.3.4-1/png/pngset.c ****     png_const_color_8p sig_bit)
 567:fltk-1.3.4-1/png/pngset.c **** {
 568:fltk-1.3.4-1/png/pngset.c ****    png_debug1(1, "in %s storage function", "sBIT");
 569:fltk-1.3.4-1/png/pngset.c **** 
 570:fltk-1.3.4-1/png/pngset.c ****    if (png_ptr == NULL || info_ptr == NULL || sig_bit == NULL)
 571:fltk-1.3.4-1/png/pngset.c ****       return;
 572:fltk-1.3.4-1/png/pngset.c **** 
 573:fltk-1.3.4-1/png/pngset.c ****    info_ptr->sig_bit = *sig_bit;
 574:fltk-1.3.4-1/png/pngset.c ****    info_ptr->valid |= PNG_INFO_sBIT;
 575:fltk-1.3.4-1/png/pngset.c **** }
 576:fltk-1.3.4-1/png/pngset.c **** #endif
 577:fltk-1.3.4-1/png/pngset.c **** 
 578:fltk-1.3.4-1/png/pngset.c **** #ifdef PNG_sRGB_SUPPORTED
 579:fltk-1.3.4-1/png/pngset.c **** void PNGAPI
 580:fltk-1.3.4-1/png/pngset.c **** png_set_sRGB(png_const_structrp png_ptr, png_inforp info_ptr, int srgb_intent)
 581:fltk-1.3.4-1/png/pngset.c **** {
 582:fltk-1.3.4-1/png/pngset.c ****    png_debug1(1, "in %s storage function", "sRGB");
 583:fltk-1.3.4-1/png/pngset.c **** 
 584:fltk-1.3.4-1/png/pngset.c ****    if (png_ptr == NULL || info_ptr == NULL)
 585:fltk-1.3.4-1/png/pngset.c ****       return;
 586:fltk-1.3.4-1/png/pngset.c **** 
 587:fltk-1.3.4-1/png/pngset.c ****    (void)png_colorspace_set_sRGB(png_ptr, &info_ptr->colorspace, srgb_intent);
 588:fltk-1.3.4-1/png/pngset.c ****    png_colorspace_sync_info(png_ptr, info_ptr);
 589:fltk-1.3.4-1/png/pngset.c **** }
 590:fltk-1.3.4-1/png/pngset.c **** 
 591:fltk-1.3.4-1/png/pngset.c **** void PNGAPI
 592:fltk-1.3.4-1/png/pngset.c **** png_set_sRGB_gAMA_and_cHRM(png_const_structrp png_ptr, png_inforp info_ptr,
 593:fltk-1.3.4-1/png/pngset.c ****     int srgb_intent)
 594:fltk-1.3.4-1/png/pngset.c **** {
 595:fltk-1.3.4-1/png/pngset.c ****    png_debug1(1, "in %s storage function", "sRGB_gAMA_and_cHRM");
 596:fltk-1.3.4-1/png/pngset.c **** 
 597:fltk-1.3.4-1/png/pngset.c ****    if (png_ptr == NULL || info_ptr == NULL)
 598:fltk-1.3.4-1/png/pngset.c ****       return;
 599:fltk-1.3.4-1/png/pngset.c **** 
 600:fltk-1.3.4-1/png/pngset.c ****    if (png_colorspace_set_sRGB(png_ptr, &info_ptr->colorspace,
 601:fltk-1.3.4-1/png/pngset.c ****        srgb_intent) != 0)
 602:fltk-1.3.4-1/png/pngset.c ****    {
 603:fltk-1.3.4-1/png/pngset.c ****       /* This causes the gAMA and cHRM to be written too */
 604:fltk-1.3.4-1/png/pngset.c ****       info_ptr->colorspace.flags |=
 605:fltk-1.3.4-1/png/pngset.c ****          PNG_COLORSPACE_FROM_gAMA|PNG_COLORSPACE_FROM_cHRM;
 606:fltk-1.3.4-1/png/pngset.c ****    }
 607:fltk-1.3.4-1/png/pngset.c **** 
 608:fltk-1.3.4-1/png/pngset.c ****    png_colorspace_sync_info(png_ptr, info_ptr);
 609:fltk-1.3.4-1/png/pngset.c **** }
 610:fltk-1.3.4-1/png/pngset.c **** #endif /* sRGB */
 611:fltk-1.3.4-1/png/pngset.c **** 
 612:fltk-1.3.4-1/png/pngset.c **** 
 613:fltk-1.3.4-1/png/pngset.c **** #ifdef PNG_iCCP_SUPPORTED
 614:fltk-1.3.4-1/png/pngset.c **** void PNGAPI
 615:fltk-1.3.4-1/png/pngset.c **** png_set_iCCP(png_const_structrp png_ptr, png_inforp info_ptr,
 616:fltk-1.3.4-1/png/pngset.c ****     png_const_charp name, int compression_type,
 617:fltk-1.3.4-1/png/pngset.c ****     png_const_bytep profile, png_uint_32 proflen)
 618:fltk-1.3.4-1/png/pngset.c **** {
 619:fltk-1.3.4-1/png/pngset.c ****    png_charp new_iccp_name;
 620:fltk-1.3.4-1/png/pngset.c ****    png_bytep new_iccp_profile;
 621:fltk-1.3.4-1/png/pngset.c ****    png_size_t length;
 622:fltk-1.3.4-1/png/pngset.c **** 
 623:fltk-1.3.4-1/png/pngset.c ****    png_debug1(1, "in %s storage function", "iCCP");
 624:fltk-1.3.4-1/png/pngset.c **** 
 625:fltk-1.3.4-1/png/pngset.c ****    if (png_ptr == NULL || info_ptr == NULL || name == NULL || profile == NULL)
 626:fltk-1.3.4-1/png/pngset.c ****       return;
 627:fltk-1.3.4-1/png/pngset.c **** 
 628:fltk-1.3.4-1/png/pngset.c ****    if (compression_type != PNG_COMPRESSION_TYPE_BASE)
 629:fltk-1.3.4-1/png/pngset.c ****       png_app_error(png_ptr, "Invalid iCCP compression method");
 630:fltk-1.3.4-1/png/pngset.c **** 
 631:fltk-1.3.4-1/png/pngset.c ****    /* Set the colorspace first because this validates the profile; do not
 632:fltk-1.3.4-1/png/pngset.c ****     * override previously set app cHRM or gAMA here (because likely as not the
 633:fltk-1.3.4-1/png/pngset.c ****     * application knows better than libpng what the correct values are.)  Pass
 634:fltk-1.3.4-1/png/pngset.c ****     * the info_ptr color_type field to png_colorspace_set_ICC because in the
 635:fltk-1.3.4-1/png/pngset.c ****     * write case it has not yet been stored in png_ptr.
 636:fltk-1.3.4-1/png/pngset.c ****     */
 637:fltk-1.3.4-1/png/pngset.c ****    {
 638:fltk-1.3.4-1/png/pngset.c ****       int result = png_colorspace_set_ICC(png_ptr, &info_ptr->colorspace, name,
 639:fltk-1.3.4-1/png/pngset.c ****          proflen, profile, info_ptr->color_type);
 640:fltk-1.3.4-1/png/pngset.c **** 
 641:fltk-1.3.4-1/png/pngset.c ****       png_colorspace_sync_info(png_ptr, info_ptr);
 642:fltk-1.3.4-1/png/pngset.c **** 
 643:fltk-1.3.4-1/png/pngset.c ****       /* Don't do any of the copying if the profile was bad, or inconsistent. */
 644:fltk-1.3.4-1/png/pngset.c ****       if (result == 0)
 645:fltk-1.3.4-1/png/pngset.c ****          return;
 646:fltk-1.3.4-1/png/pngset.c **** 
 647:fltk-1.3.4-1/png/pngset.c ****       /* But do write the gAMA and cHRM chunks from the profile. */
 648:fltk-1.3.4-1/png/pngset.c ****       info_ptr->colorspace.flags |=
 649:fltk-1.3.4-1/png/pngset.c ****          PNG_COLORSPACE_FROM_gAMA|PNG_COLORSPACE_FROM_cHRM;
 650:fltk-1.3.4-1/png/pngset.c ****    }
 651:fltk-1.3.4-1/png/pngset.c **** 
 652:fltk-1.3.4-1/png/pngset.c ****    length = strlen(name)+1;
 653:fltk-1.3.4-1/png/pngset.c ****    new_iccp_name = png_voidcast(png_charp, png_malloc_warn(png_ptr, length));
 654:fltk-1.3.4-1/png/pngset.c **** 
 655:fltk-1.3.4-1/png/pngset.c ****    if (new_iccp_name == NULL)
 656:fltk-1.3.4-1/png/pngset.c ****    {
 657:fltk-1.3.4-1/png/pngset.c ****       png_benign_error(png_ptr, "Insufficient memory to process iCCP chunk");
 658:fltk-1.3.4-1/png/pngset.c ****       return;
 659:fltk-1.3.4-1/png/pngset.c ****    }
 660:fltk-1.3.4-1/png/pngset.c **** 
 661:fltk-1.3.4-1/png/pngset.c ****    memcpy(new_iccp_name, name, length);
 662:fltk-1.3.4-1/png/pngset.c ****    new_iccp_profile = png_voidcast(png_bytep,
 663:fltk-1.3.4-1/png/pngset.c ****       png_malloc_warn(png_ptr, proflen));
 664:fltk-1.3.4-1/png/pngset.c **** 
 665:fltk-1.3.4-1/png/pngset.c ****    if (new_iccp_profile == NULL)
 666:fltk-1.3.4-1/png/pngset.c ****    {
 667:fltk-1.3.4-1/png/pngset.c ****       png_free(png_ptr, new_iccp_name);
 668:fltk-1.3.4-1/png/pngset.c ****       new_iccp_name = NULL;
 669:fltk-1.3.4-1/png/pngset.c ****       png_benign_error(png_ptr,
 670:fltk-1.3.4-1/png/pngset.c ****           "Insufficient memory to process iCCP profile");
 671:fltk-1.3.4-1/png/pngset.c ****       return;
 672:fltk-1.3.4-1/png/pngset.c ****    }
 673:fltk-1.3.4-1/png/pngset.c **** 
 674:fltk-1.3.4-1/png/pngset.c ****    memcpy(new_iccp_profile, profile, proflen);
 675:fltk-1.3.4-1/png/pngset.c **** 
 676:fltk-1.3.4-1/png/pngset.c ****    png_free_data(png_ptr, info_ptr, PNG_FREE_ICCP, 0);
 677:fltk-1.3.4-1/png/pngset.c **** 
 678:fltk-1.3.4-1/png/pngset.c ****    info_ptr->iccp_proflen = proflen;
 679:fltk-1.3.4-1/png/pngset.c ****    info_ptr->iccp_name = new_iccp_name;
 680:fltk-1.3.4-1/png/pngset.c ****    info_ptr->iccp_profile = new_iccp_profile;
 681:fltk-1.3.4-1/png/pngset.c ****    info_ptr->free_me |= PNG_FREE_ICCP;
 682:fltk-1.3.4-1/png/pngset.c ****    info_ptr->valid |= PNG_INFO_iCCP;
 683:fltk-1.3.4-1/png/pngset.c **** }
 684:fltk-1.3.4-1/png/pngset.c **** #endif
 685:fltk-1.3.4-1/png/pngset.c **** 
 686:fltk-1.3.4-1/png/pngset.c **** #ifdef PNG_TEXT_SUPPORTED
 687:fltk-1.3.4-1/png/pngset.c **** void PNGAPI
 688:fltk-1.3.4-1/png/pngset.c **** png_set_text(png_const_structrp png_ptr, png_inforp info_ptr,
 689:fltk-1.3.4-1/png/pngset.c ****     png_const_textp text_ptr, int num_text)
 690:fltk-1.3.4-1/png/pngset.c **** {
 691:fltk-1.3.4-1/png/pngset.c ****    int ret;
 692:fltk-1.3.4-1/png/pngset.c ****    ret = png_set_text_2(png_ptr, info_ptr, text_ptr, num_text);
 693:fltk-1.3.4-1/png/pngset.c **** 
 694:fltk-1.3.4-1/png/pngset.c ****    if (ret != 0)
 695:fltk-1.3.4-1/png/pngset.c ****       png_error(png_ptr, "Insufficient memory to store text");
 696:fltk-1.3.4-1/png/pngset.c **** }
 697:fltk-1.3.4-1/png/pngset.c **** 
 698:fltk-1.3.4-1/png/pngset.c **** int /* PRIVATE */
 699:fltk-1.3.4-1/png/pngset.c **** png_set_text_2(png_const_structrp png_ptr, png_inforp info_ptr,
 700:fltk-1.3.4-1/png/pngset.c ****     png_const_textp text_ptr, int num_text)
 701:fltk-1.3.4-1/png/pngset.c **** {
 702:fltk-1.3.4-1/png/pngset.c ****    int i;
 703:fltk-1.3.4-1/png/pngset.c **** 
 704:fltk-1.3.4-1/png/pngset.c ****    png_debug1(1, "in %lx storage function", png_ptr == NULL ? "unexpected" :
 705:fltk-1.3.4-1/png/pngset.c ****       (unsigned long)png_ptr->chunk_name);
 706:fltk-1.3.4-1/png/pngset.c **** 
 707:fltk-1.3.4-1/png/pngset.c ****    if (png_ptr == NULL || info_ptr == NULL || num_text <= 0 || text_ptr == NULL)
 708:fltk-1.3.4-1/png/pngset.c ****       return(0);
 709:fltk-1.3.4-1/png/pngset.c **** 
 710:fltk-1.3.4-1/png/pngset.c ****    /* Make sure we have enough space in the "text" array in info_struct
 711:fltk-1.3.4-1/png/pngset.c ****     * to hold all of the incoming text_ptr objects.  This compare can't overflow
 712:fltk-1.3.4-1/png/pngset.c ****     * because max_text >= num_text (anyway, subtract of two positive integers
 713:fltk-1.3.4-1/png/pngset.c ****     * can't overflow in any case.)
 714:fltk-1.3.4-1/png/pngset.c ****     */
 715:fltk-1.3.4-1/png/pngset.c ****    if (num_text > info_ptr->max_text - info_ptr->num_text)
 716:fltk-1.3.4-1/png/pngset.c ****    {
 717:fltk-1.3.4-1/png/pngset.c ****       int old_num_text = info_ptr->num_text;
 718:fltk-1.3.4-1/png/pngset.c ****       int max_text;
 719:fltk-1.3.4-1/png/pngset.c ****       png_textp new_text = NULL;
 720:fltk-1.3.4-1/png/pngset.c **** 
 721:fltk-1.3.4-1/png/pngset.c ****       /* Calculate an appropriate max_text, checking for overflow. */
 722:fltk-1.3.4-1/png/pngset.c ****       max_text = old_num_text;
 723:fltk-1.3.4-1/png/pngset.c ****       if (num_text <= INT_MAX - max_text)
 724:fltk-1.3.4-1/png/pngset.c ****       {
 725:fltk-1.3.4-1/png/pngset.c ****          max_text += num_text;
 726:fltk-1.3.4-1/png/pngset.c **** 
 727:fltk-1.3.4-1/png/pngset.c ****          /* Round up to a multiple of 8 */
 728:fltk-1.3.4-1/png/pngset.c ****          if (max_text < INT_MAX-8)
 729:fltk-1.3.4-1/png/pngset.c ****             max_text = (max_text + 8) & ~0x7;
 730:fltk-1.3.4-1/png/pngset.c **** 
 731:fltk-1.3.4-1/png/pngset.c ****          else
 732:fltk-1.3.4-1/png/pngset.c ****             max_text = INT_MAX;
 733:fltk-1.3.4-1/png/pngset.c **** 
 734:fltk-1.3.4-1/png/pngset.c ****          /* Now allocate a new array and copy the old members in; this does all
 735:fltk-1.3.4-1/png/pngset.c ****           * the overflow checks.
 736:fltk-1.3.4-1/png/pngset.c ****           */
 737:fltk-1.3.4-1/png/pngset.c ****          new_text = png_voidcast(png_textp,png_realloc_array(png_ptr,
 738:fltk-1.3.4-1/png/pngset.c ****             info_ptr->text, old_num_text, max_text-old_num_text,
 739:fltk-1.3.4-1/png/pngset.c ****             sizeof *new_text));
 740:fltk-1.3.4-1/png/pngset.c ****       }
 741:fltk-1.3.4-1/png/pngset.c **** 
 742:fltk-1.3.4-1/png/pngset.c ****       if (new_text == NULL)
 743:fltk-1.3.4-1/png/pngset.c ****       {
 744:fltk-1.3.4-1/png/pngset.c ****          png_chunk_report(png_ptr, "too many text chunks",
 745:fltk-1.3.4-1/png/pngset.c ****             PNG_CHUNK_WRITE_ERROR);
 746:fltk-1.3.4-1/png/pngset.c ****          return 1;
 747:fltk-1.3.4-1/png/pngset.c ****       }
 748:fltk-1.3.4-1/png/pngset.c **** 
 749:fltk-1.3.4-1/png/pngset.c ****       png_free(png_ptr, info_ptr->text);
 750:fltk-1.3.4-1/png/pngset.c **** 
 751:fltk-1.3.4-1/png/pngset.c ****       info_ptr->text = new_text;
 752:fltk-1.3.4-1/png/pngset.c ****       info_ptr->free_me |= PNG_FREE_TEXT;
 753:fltk-1.3.4-1/png/pngset.c ****       info_ptr->max_text = max_text;
 754:fltk-1.3.4-1/png/pngset.c ****       /* num_text is adjusted below as the entries are copied in */
 755:fltk-1.3.4-1/png/pngset.c **** 
 756:fltk-1.3.4-1/png/pngset.c ****       png_debug1(3, "allocated %d entries for info_ptr->text", max_text);
 757:fltk-1.3.4-1/png/pngset.c ****    }
 758:fltk-1.3.4-1/png/pngset.c **** 
 759:fltk-1.3.4-1/png/pngset.c ****    for (i = 0; i < num_text; i++)
 760:fltk-1.3.4-1/png/pngset.c ****    {
 761:fltk-1.3.4-1/png/pngset.c ****       size_t text_length, key_len;
 762:fltk-1.3.4-1/png/pngset.c ****       size_t lang_len, lang_key_len;
 763:fltk-1.3.4-1/png/pngset.c ****       png_textp textp = &(info_ptr->text[info_ptr->num_text]);
 764:fltk-1.3.4-1/png/pngset.c **** 
 765:fltk-1.3.4-1/png/pngset.c ****       if (text_ptr[i].key == NULL)
 766:fltk-1.3.4-1/png/pngset.c ****           continue;
 767:fltk-1.3.4-1/png/pngset.c **** 
 768:fltk-1.3.4-1/png/pngset.c ****       if (text_ptr[i].compression < PNG_TEXT_COMPRESSION_NONE ||
 769:fltk-1.3.4-1/png/pngset.c ****           text_ptr[i].compression >= PNG_TEXT_COMPRESSION_LAST)
 770:fltk-1.3.4-1/png/pngset.c ****       {
 771:fltk-1.3.4-1/png/pngset.c ****          png_chunk_report(png_ptr, "text compression mode is out of range",
 772:fltk-1.3.4-1/png/pngset.c ****             PNG_CHUNK_WRITE_ERROR);
 773:fltk-1.3.4-1/png/pngset.c ****          continue;
 774:fltk-1.3.4-1/png/pngset.c ****       }
 775:fltk-1.3.4-1/png/pngset.c **** 
 776:fltk-1.3.4-1/png/pngset.c ****       key_len = strlen(text_ptr[i].key);
 777:fltk-1.3.4-1/png/pngset.c **** 
 778:fltk-1.3.4-1/png/pngset.c ****       if (text_ptr[i].compression <= 0)
 779:fltk-1.3.4-1/png/pngset.c ****       {
 780:fltk-1.3.4-1/png/pngset.c ****          lang_len = 0;
 781:fltk-1.3.4-1/png/pngset.c ****          lang_key_len = 0;
 782:fltk-1.3.4-1/png/pngset.c ****       }
 783:fltk-1.3.4-1/png/pngset.c **** 
 784:fltk-1.3.4-1/png/pngset.c ****       else
 785:fltk-1.3.4-1/png/pngset.c **** #  ifdef PNG_iTXt_SUPPORTED
 786:fltk-1.3.4-1/png/pngset.c ****       {
 787:fltk-1.3.4-1/png/pngset.c ****          /* Set iTXt data */
 788:fltk-1.3.4-1/png/pngset.c **** 
 789:fltk-1.3.4-1/png/pngset.c ****          if (text_ptr[i].lang != NULL)
 790:fltk-1.3.4-1/png/pngset.c ****             lang_len = strlen(text_ptr[i].lang);
 791:fltk-1.3.4-1/png/pngset.c **** 
 792:fltk-1.3.4-1/png/pngset.c ****          else
 793:fltk-1.3.4-1/png/pngset.c ****             lang_len = 0;
 794:fltk-1.3.4-1/png/pngset.c **** 
 795:fltk-1.3.4-1/png/pngset.c ****          if (text_ptr[i].lang_key != NULL)
 796:fltk-1.3.4-1/png/pngset.c ****             lang_key_len = strlen(text_ptr[i].lang_key);
 797:fltk-1.3.4-1/png/pngset.c **** 
 798:fltk-1.3.4-1/png/pngset.c ****          else
 799:fltk-1.3.4-1/png/pngset.c ****             lang_key_len = 0;
 800:fltk-1.3.4-1/png/pngset.c ****       }
 801:fltk-1.3.4-1/png/pngset.c **** #  else /* PNG_iTXt_SUPPORTED */
 802:fltk-1.3.4-1/png/pngset.c ****       {
 803:fltk-1.3.4-1/png/pngset.c ****          png_chunk_report(png_ptr, "iTXt chunk not supported",
 804:fltk-1.3.4-1/png/pngset.c ****             PNG_CHUNK_WRITE_ERROR);
 805:fltk-1.3.4-1/png/pngset.c ****          continue;
 806:fltk-1.3.4-1/png/pngset.c ****       }
 807:fltk-1.3.4-1/png/pngset.c **** #  endif
 808:fltk-1.3.4-1/png/pngset.c **** 
 809:fltk-1.3.4-1/png/pngset.c ****       if (text_ptr[i].text == NULL || text_ptr[i].text[0] == '\0')
 810:fltk-1.3.4-1/png/pngset.c ****       {
 811:fltk-1.3.4-1/png/pngset.c ****          text_length = 0;
 812:fltk-1.3.4-1/png/pngset.c **** #  ifdef PNG_iTXt_SUPPORTED
 813:fltk-1.3.4-1/png/pngset.c ****          if (text_ptr[i].compression > 0)
 814:fltk-1.3.4-1/png/pngset.c ****             textp->compression = PNG_ITXT_COMPRESSION_NONE;
 815:fltk-1.3.4-1/png/pngset.c **** 
 816:fltk-1.3.4-1/png/pngset.c ****          else
 817:fltk-1.3.4-1/png/pngset.c **** #  endif
 818:fltk-1.3.4-1/png/pngset.c ****             textp->compression = PNG_TEXT_COMPRESSION_NONE;
 819:fltk-1.3.4-1/png/pngset.c ****       }
 820:fltk-1.3.4-1/png/pngset.c **** 
 821:fltk-1.3.4-1/png/pngset.c ****       else
 822:fltk-1.3.4-1/png/pngset.c ****       {
 823:fltk-1.3.4-1/png/pngset.c ****          text_length = strlen(text_ptr[i].text);
 824:fltk-1.3.4-1/png/pngset.c ****          textp->compression = text_ptr[i].compression;
 825:fltk-1.3.4-1/png/pngset.c ****       }
 826:fltk-1.3.4-1/png/pngset.c **** 
 827:fltk-1.3.4-1/png/pngset.c ****       textp->key = png_voidcast(png_charp,png_malloc_base(png_ptr,
 828:fltk-1.3.4-1/png/pngset.c ****           key_len + text_length + lang_len + lang_key_len + 4));
 829:fltk-1.3.4-1/png/pngset.c **** 
 830:fltk-1.3.4-1/png/pngset.c ****       if (textp->key == NULL)
 831:fltk-1.3.4-1/png/pngset.c ****       {
 832:fltk-1.3.4-1/png/pngset.c ****          png_chunk_report(png_ptr, "text chunk: out of memory",
 833:fltk-1.3.4-1/png/pngset.c ****                PNG_CHUNK_WRITE_ERROR);
 834:fltk-1.3.4-1/png/pngset.c ****          return 1;
 835:fltk-1.3.4-1/png/pngset.c ****       }
 836:fltk-1.3.4-1/png/pngset.c **** 
 837:fltk-1.3.4-1/png/pngset.c ****       png_debug2(2, "Allocated %lu bytes at %p in png_set_text",
 838:fltk-1.3.4-1/png/pngset.c ****           (unsigned long)(png_uint_32)
 839:fltk-1.3.4-1/png/pngset.c ****           (key_len + lang_len + lang_key_len + text_length + 4),
 840:fltk-1.3.4-1/png/pngset.c ****           textp->key);
 841:fltk-1.3.4-1/png/pngset.c **** 
 842:fltk-1.3.4-1/png/pngset.c ****       memcpy(textp->key, text_ptr[i].key, key_len);
 843:fltk-1.3.4-1/png/pngset.c ****       *(textp->key + key_len) = '\0';
 844:fltk-1.3.4-1/png/pngset.c **** 
 845:fltk-1.3.4-1/png/pngset.c ****       if (text_ptr[i].compression > 0)
 846:fltk-1.3.4-1/png/pngset.c ****       {
 847:fltk-1.3.4-1/png/pngset.c ****          textp->lang = textp->key + key_len + 1;
 848:fltk-1.3.4-1/png/pngset.c ****          memcpy(textp->lang, text_ptr[i].lang, lang_len);
 849:fltk-1.3.4-1/png/pngset.c ****          *(textp->lang + lang_len) = '\0';
 850:fltk-1.3.4-1/png/pngset.c ****          textp->lang_key = textp->lang + lang_len + 1;
 851:fltk-1.3.4-1/png/pngset.c ****          memcpy(textp->lang_key, text_ptr[i].lang_key, lang_key_len);
 852:fltk-1.3.4-1/png/pngset.c ****          *(textp->lang_key + lang_key_len) = '\0';
 853:fltk-1.3.4-1/png/pngset.c ****          textp->text = textp->lang_key + lang_key_len + 1;
 854:fltk-1.3.4-1/png/pngset.c ****       }
 855:fltk-1.3.4-1/png/pngset.c **** 
 856:fltk-1.3.4-1/png/pngset.c ****       else
 857:fltk-1.3.4-1/png/pngset.c ****       {
 858:fltk-1.3.4-1/png/pngset.c ****          textp->lang=NULL;
 859:fltk-1.3.4-1/png/pngset.c ****          textp->lang_key=NULL;
 860:fltk-1.3.4-1/png/pngset.c ****          textp->text = textp->key + key_len + 1;
 861:fltk-1.3.4-1/png/pngset.c ****       }
 862:fltk-1.3.4-1/png/pngset.c **** 
 863:fltk-1.3.4-1/png/pngset.c ****       if (text_length != 0)
 864:fltk-1.3.4-1/png/pngset.c ****          memcpy(textp->text, text_ptr[i].text, text_length);
 865:fltk-1.3.4-1/png/pngset.c **** 
 866:fltk-1.3.4-1/png/pngset.c ****       *(textp->text + text_length) = '\0';
 867:fltk-1.3.4-1/png/pngset.c **** 
 868:fltk-1.3.4-1/png/pngset.c **** #  ifdef PNG_iTXt_SUPPORTED
 869:fltk-1.3.4-1/png/pngset.c ****       if (textp->compression > 0)
 870:fltk-1.3.4-1/png/pngset.c ****       {
 871:fltk-1.3.4-1/png/pngset.c ****          textp->text_length = 0;
 872:fltk-1.3.4-1/png/pngset.c ****          textp->itxt_length = text_length;
 873:fltk-1.3.4-1/png/pngset.c ****       }
 874:fltk-1.3.4-1/png/pngset.c **** 
 875:fltk-1.3.4-1/png/pngset.c ****       else
 876:fltk-1.3.4-1/png/pngset.c **** #  endif
 877:fltk-1.3.4-1/png/pngset.c ****       {
 878:fltk-1.3.4-1/png/pngset.c ****          textp->text_length = text_length;
 879:fltk-1.3.4-1/png/pngset.c ****          textp->itxt_length = 0;
 880:fltk-1.3.4-1/png/pngset.c ****       }
 881:fltk-1.3.4-1/png/pngset.c **** 
 882:fltk-1.3.4-1/png/pngset.c ****       info_ptr->num_text++;
 883:fltk-1.3.4-1/png/pngset.c ****       png_debug1(3, "transferred text chunk %d", info_ptr->num_text);
 884:fltk-1.3.4-1/png/pngset.c ****    }
 885:fltk-1.3.4-1/png/pngset.c **** 
 886:fltk-1.3.4-1/png/pngset.c ****    return(0);
 887:fltk-1.3.4-1/png/pngset.c **** }
 888:fltk-1.3.4-1/png/pngset.c **** #endif
 889:fltk-1.3.4-1/png/pngset.c **** 
 890:fltk-1.3.4-1/png/pngset.c **** #ifdef PNG_tIME_SUPPORTED
 891:fltk-1.3.4-1/png/pngset.c **** void PNGAPI
 892:fltk-1.3.4-1/png/pngset.c **** png_set_tIME(png_const_structrp png_ptr, png_inforp info_ptr,
 893:fltk-1.3.4-1/png/pngset.c ****     png_const_timep mod_time)
 894:fltk-1.3.4-1/png/pngset.c **** {
 895:fltk-1.3.4-1/png/pngset.c ****    png_debug1(1, "in %s storage function", "tIME");
 896:fltk-1.3.4-1/png/pngset.c **** 
 897:fltk-1.3.4-1/png/pngset.c ****    if (png_ptr == NULL || info_ptr == NULL || mod_time == NULL ||
 898:fltk-1.3.4-1/png/pngset.c ****        (png_ptr->mode & PNG_WROTE_tIME) != 0)
 899:fltk-1.3.4-1/png/pngset.c ****       return;
 900:fltk-1.3.4-1/png/pngset.c **** 
 901:fltk-1.3.4-1/png/pngset.c ****    if (mod_time->month == 0   || mod_time->month > 12  ||
 902:fltk-1.3.4-1/png/pngset.c ****        mod_time->day   == 0   || mod_time->day   > 31  ||
 903:fltk-1.3.4-1/png/pngset.c ****        mod_time->hour  > 23   || mod_time->minute > 59 ||
 904:fltk-1.3.4-1/png/pngset.c ****        mod_time->second > 60)
 905:fltk-1.3.4-1/png/pngset.c ****    {
 906:fltk-1.3.4-1/png/pngset.c ****       png_warning(png_ptr, "Ignoring invalid time value");
 907:fltk-1.3.4-1/png/pngset.c ****       return;
 908:fltk-1.3.4-1/png/pngset.c ****    }
 909:fltk-1.3.4-1/png/pngset.c **** 
 910:fltk-1.3.4-1/png/pngset.c ****    info_ptr->mod_time = *mod_time;
 911:fltk-1.3.4-1/png/pngset.c ****    info_ptr->valid |= PNG_INFO_tIME;
 912:fltk-1.3.4-1/png/pngset.c **** }
 913:fltk-1.3.4-1/png/pngset.c **** #endif
 914:fltk-1.3.4-1/png/pngset.c **** 
 915:fltk-1.3.4-1/png/pngset.c **** #ifdef PNG_tRNS_SUPPORTED
 916:fltk-1.3.4-1/png/pngset.c **** void PNGAPI
 917:fltk-1.3.4-1/png/pngset.c **** png_set_tRNS(png_structrp png_ptr, png_inforp info_ptr,
 918:fltk-1.3.4-1/png/pngset.c ****     png_const_bytep trans_alpha, int num_trans, png_const_color_16p trans_color)
 919:fltk-1.3.4-1/png/pngset.c **** {
 920:fltk-1.3.4-1/png/pngset.c ****    png_debug1(1, "in %s storage function", "tRNS");
 921:fltk-1.3.4-1/png/pngset.c **** 
 922:fltk-1.3.4-1/png/pngset.c ****    if (png_ptr == NULL || info_ptr == NULL)
 923:fltk-1.3.4-1/png/pngset.c ****       return;
 924:fltk-1.3.4-1/png/pngset.c **** 
 925:fltk-1.3.4-1/png/pngset.c ****    if (trans_alpha != NULL)
 926:fltk-1.3.4-1/png/pngset.c ****    {
 927:fltk-1.3.4-1/png/pngset.c ****        /* It may not actually be necessary to set png_ptr->trans_alpha here;
 928:fltk-1.3.4-1/png/pngset.c ****         * we do it for backward compatibility with the way the png_handle_tRNS
 929:fltk-1.3.4-1/png/pngset.c ****         * function used to do the allocation.
 930:fltk-1.3.4-1/png/pngset.c ****         *
 931:fltk-1.3.4-1/png/pngset.c ****         * 1.6.0: The above statement is incorrect; png_handle_tRNS effectively
 932:fltk-1.3.4-1/png/pngset.c ****         * relies on png_set_tRNS storing the information in png_struct
 933:fltk-1.3.4-1/png/pngset.c ****         * (otherwise it won't be there for the code in pngrtran.c).
 934:fltk-1.3.4-1/png/pngset.c ****         */
 935:fltk-1.3.4-1/png/pngset.c **** 
 936:fltk-1.3.4-1/png/pngset.c ****        png_free_data(png_ptr, info_ptr, PNG_FREE_TRNS, 0);
 937:fltk-1.3.4-1/png/pngset.c **** 
 938:fltk-1.3.4-1/png/pngset.c ****        /* Changed from num_trans to PNG_MAX_PALETTE_LENGTH in version 1.2.1 */
 939:fltk-1.3.4-1/png/pngset.c ****        png_ptr->trans_alpha = info_ptr->trans_alpha = png_voidcast(png_bytep,
 940:fltk-1.3.4-1/png/pngset.c ****          png_malloc(png_ptr, PNG_MAX_PALETTE_LENGTH));
 941:fltk-1.3.4-1/png/pngset.c **** 
 942:fltk-1.3.4-1/png/pngset.c ****        if (num_trans > 0 && num_trans <= PNG_MAX_PALETTE_LENGTH)
 943:fltk-1.3.4-1/png/pngset.c ****           memcpy(info_ptr->trans_alpha, trans_alpha, (png_size_t)num_trans);
 944:fltk-1.3.4-1/png/pngset.c ****    }
 945:fltk-1.3.4-1/png/pngset.c **** 
 946:fltk-1.3.4-1/png/pngset.c ****    if (trans_color != NULL)
 947:fltk-1.3.4-1/png/pngset.c ****    {
 948:fltk-1.3.4-1/png/pngset.c ****       int sample_max = (1 << info_ptr->bit_depth);
 949:fltk-1.3.4-1/png/pngset.c **** 
 950:fltk-1.3.4-1/png/pngset.c ****       if ((info_ptr->color_type == PNG_COLOR_TYPE_GRAY &&
 951:fltk-1.3.4-1/png/pngset.c ****           trans_color->gray > sample_max) ||
 952:fltk-1.3.4-1/png/pngset.c ****           (info_ptr->color_type == PNG_COLOR_TYPE_RGB &&
 953:fltk-1.3.4-1/png/pngset.c ****           (trans_color->red > sample_max ||
 954:fltk-1.3.4-1/png/pngset.c ****           trans_color->green > sample_max ||
 955:fltk-1.3.4-1/png/pngset.c ****           trans_color->blue > sample_max)))
 956:fltk-1.3.4-1/png/pngset.c ****          png_warning(png_ptr,
 957:fltk-1.3.4-1/png/pngset.c ****             "tRNS chunk has out-of-range samples for bit_depth");
 958:fltk-1.3.4-1/png/pngset.c **** 
 959:fltk-1.3.4-1/png/pngset.c ****       info_ptr->trans_color = *trans_color;
 960:fltk-1.3.4-1/png/pngset.c **** 
 961:fltk-1.3.4-1/png/pngset.c ****       if (num_trans == 0)
 962:fltk-1.3.4-1/png/pngset.c ****          num_trans = 1;
 963:fltk-1.3.4-1/png/pngset.c ****    }
 964:fltk-1.3.4-1/png/pngset.c **** 
 965:fltk-1.3.4-1/png/pngset.c ****    info_ptr->num_trans = (png_uint_16)num_trans;
 966:fltk-1.3.4-1/png/pngset.c **** 
 967:fltk-1.3.4-1/png/pngset.c ****    if (num_trans != 0)
 968:fltk-1.3.4-1/png/pngset.c ****    {
 969:fltk-1.3.4-1/png/pngset.c ****       info_ptr->valid |= PNG_INFO_tRNS;
 970:fltk-1.3.4-1/png/pngset.c ****       info_ptr->free_me |= PNG_FREE_TRNS;
 971:fltk-1.3.4-1/png/pngset.c ****    }
 972:fltk-1.3.4-1/png/pngset.c **** }
 973:fltk-1.3.4-1/png/pngset.c **** #endif
 974:fltk-1.3.4-1/png/pngset.c **** 
 975:fltk-1.3.4-1/png/pngset.c **** #ifdef PNG_sPLT_SUPPORTED
 976:fltk-1.3.4-1/png/pngset.c **** void PNGAPI
 977:fltk-1.3.4-1/png/pngset.c **** png_set_sPLT(png_const_structrp png_ptr,
 978:fltk-1.3.4-1/png/pngset.c ****     png_inforp info_ptr, png_const_sPLT_tp entries, int nentries)
 979:fltk-1.3.4-1/png/pngset.c **** /*
 980:fltk-1.3.4-1/png/pngset.c ****  *  entries        - array of png_sPLT_t structures
 981:fltk-1.3.4-1/png/pngset.c ****  *                   to be added to the list of palettes
 982:fltk-1.3.4-1/png/pngset.c ****  *                   in the info structure.
 983:fltk-1.3.4-1/png/pngset.c ****  *
 984:fltk-1.3.4-1/png/pngset.c ****  *  nentries       - number of palette structures to be
 985:fltk-1.3.4-1/png/pngset.c ****  *                   added.
 986:fltk-1.3.4-1/png/pngset.c ****  */
 987:fltk-1.3.4-1/png/pngset.c **** {
 988:fltk-1.3.4-1/png/pngset.c ****    png_sPLT_tp np;
 989:fltk-1.3.4-1/png/pngset.c **** 
 990:fltk-1.3.4-1/png/pngset.c ****    if (png_ptr == NULL || info_ptr == NULL || nentries <= 0 || entries == NULL)
 991:fltk-1.3.4-1/png/pngset.c ****       return;
 992:fltk-1.3.4-1/png/pngset.c **** 
 993:fltk-1.3.4-1/png/pngset.c ****    /* Use the internal realloc function, which checks for all the possible
 994:fltk-1.3.4-1/png/pngset.c ****     * overflows.  Notice that the parameters are (int) and (size_t)
 995:fltk-1.3.4-1/png/pngset.c ****     */
 996:fltk-1.3.4-1/png/pngset.c ****    np = png_voidcast(png_sPLT_tp,png_realloc_array(png_ptr,
 997:fltk-1.3.4-1/png/pngset.c ****       info_ptr->splt_palettes, info_ptr->splt_palettes_num, nentries,
 998:fltk-1.3.4-1/png/pngset.c ****       sizeof *np));
 999:fltk-1.3.4-1/png/pngset.c **** 
1000:fltk-1.3.4-1/png/pngset.c ****    if (np == NULL)
1001:fltk-1.3.4-1/png/pngset.c ****    {
1002:fltk-1.3.4-1/png/pngset.c ****       /* Out of memory or too many chunks */
1003:fltk-1.3.4-1/png/pngset.c ****       png_chunk_report(png_ptr, "too many sPLT chunks", PNG_CHUNK_WRITE_ERROR);
1004:fltk-1.3.4-1/png/pngset.c ****       return;
1005:fltk-1.3.4-1/png/pngset.c ****    }
1006:fltk-1.3.4-1/png/pngset.c **** 
1007:fltk-1.3.4-1/png/pngset.c ****    png_free(png_ptr, info_ptr->splt_palettes);
1008:fltk-1.3.4-1/png/pngset.c ****    info_ptr->splt_palettes = np;
1009:fltk-1.3.4-1/png/pngset.c ****    info_ptr->free_me |= PNG_FREE_SPLT;
1010:fltk-1.3.4-1/png/pngset.c **** 
1011:fltk-1.3.4-1/png/pngset.c ****    np += info_ptr->splt_palettes_num;
1012:fltk-1.3.4-1/png/pngset.c **** 
1013:fltk-1.3.4-1/png/pngset.c ****    do
1014:fltk-1.3.4-1/png/pngset.c ****    {
1015:fltk-1.3.4-1/png/pngset.c ****       png_size_t length;
1016:fltk-1.3.4-1/png/pngset.c **** 
1017:fltk-1.3.4-1/png/pngset.c ****       /* Skip invalid input entries */
1018:fltk-1.3.4-1/png/pngset.c ****       if (entries->name == NULL || entries->entries == NULL)
1019:fltk-1.3.4-1/png/pngset.c ****       {
1020:fltk-1.3.4-1/png/pngset.c ****          /* png_handle_sPLT doesn't do this, so this is an app error */
1021:fltk-1.3.4-1/png/pngset.c ****          png_app_error(png_ptr, "png_set_sPLT: invalid sPLT");
1022:fltk-1.3.4-1/png/pngset.c ****          /* Just skip the invalid entry */
1023:fltk-1.3.4-1/png/pngset.c ****          continue;
1024:fltk-1.3.4-1/png/pngset.c ****       }
1025:fltk-1.3.4-1/png/pngset.c **** 
1026:fltk-1.3.4-1/png/pngset.c ****       np->depth = entries->depth;
1027:fltk-1.3.4-1/png/pngset.c **** 
1028:fltk-1.3.4-1/png/pngset.c ****       /* In the event of out-of-memory just return - there's no point keeping
1029:fltk-1.3.4-1/png/pngset.c ****        * on trying to add sPLT chunks.
1030:fltk-1.3.4-1/png/pngset.c ****        */
1031:fltk-1.3.4-1/png/pngset.c ****       length = strlen(entries->name) + 1;
1032:fltk-1.3.4-1/png/pngset.c ****       np->name = png_voidcast(png_charp, png_malloc_base(png_ptr, length));
1033:fltk-1.3.4-1/png/pngset.c **** 
1034:fltk-1.3.4-1/png/pngset.c ****       if (np->name == NULL)
1035:fltk-1.3.4-1/png/pngset.c ****          break;
1036:fltk-1.3.4-1/png/pngset.c **** 
1037:fltk-1.3.4-1/png/pngset.c ****       memcpy(np->name, entries->name, length);
1038:fltk-1.3.4-1/png/pngset.c **** 
1039:fltk-1.3.4-1/png/pngset.c ****       /* IMPORTANT: we have memory now that won't get freed if something else
1040:fltk-1.3.4-1/png/pngset.c ****        * goes wrong; this code must free it.  png_malloc_array produces no
1041:fltk-1.3.4-1/png/pngset.c ****        * warnings; use a png_chunk_report (below) if there is an error.
1042:fltk-1.3.4-1/png/pngset.c ****        */
1043:fltk-1.3.4-1/png/pngset.c ****       np->entries = png_voidcast(png_sPLT_entryp, png_malloc_array(png_ptr,
1044:fltk-1.3.4-1/png/pngset.c ****           entries->nentries, sizeof (png_sPLT_entry)));
1045:fltk-1.3.4-1/png/pngset.c **** 
1046:fltk-1.3.4-1/png/pngset.c ****       if (np->entries == NULL)
1047:fltk-1.3.4-1/png/pngset.c ****       {
1048:fltk-1.3.4-1/png/pngset.c ****          png_free(png_ptr, np->name);
1049:fltk-1.3.4-1/png/pngset.c ****          np->name = NULL;
1050:fltk-1.3.4-1/png/pngset.c ****          break;
1051:fltk-1.3.4-1/png/pngset.c ****       }
1052:fltk-1.3.4-1/png/pngset.c **** 
1053:fltk-1.3.4-1/png/pngset.c ****       np->nentries = entries->nentries;
1054:fltk-1.3.4-1/png/pngset.c ****       /* This multiply can't overflow because png_malloc_array has already
1055:fltk-1.3.4-1/png/pngset.c ****        * checked it when doing the allocation.
1056:fltk-1.3.4-1/png/pngset.c ****        */
1057:fltk-1.3.4-1/png/pngset.c ****       memcpy(np->entries, entries->entries,
1058:fltk-1.3.4-1/png/pngset.c ****          entries->nentries * sizeof (png_sPLT_entry));
1059:fltk-1.3.4-1/png/pngset.c **** 
1060:fltk-1.3.4-1/png/pngset.c ****       /* Note that 'continue' skips the advance of the out pointer and out
1061:fltk-1.3.4-1/png/pngset.c ****        * count, so an invalid entry is not added.
1062:fltk-1.3.4-1/png/pngset.c ****        */
1063:fltk-1.3.4-1/png/pngset.c ****       info_ptr->valid |= PNG_INFO_sPLT;
1064:fltk-1.3.4-1/png/pngset.c ****       ++(info_ptr->splt_palettes_num);
1065:fltk-1.3.4-1/png/pngset.c ****       ++np;
1066:fltk-1.3.4-1/png/pngset.c ****    }
1067:fltk-1.3.4-1/png/pngset.c ****    while (++entries, --nentries);
1068:fltk-1.3.4-1/png/pngset.c **** 
1069:fltk-1.3.4-1/png/pngset.c ****    if (nentries > 0)
1070:fltk-1.3.4-1/png/pngset.c ****       png_chunk_report(png_ptr, "sPLT out of memory", PNG_CHUNK_WRITE_ERROR);
1071:fltk-1.3.4-1/png/pngset.c **** }
1072:fltk-1.3.4-1/png/pngset.c **** #endif /* sPLT */
1073:fltk-1.3.4-1/png/pngset.c **** 
1074:fltk-1.3.4-1/png/pngset.c **** #ifdef PNG_STORE_UNKNOWN_CHUNKS_SUPPORTED
1075:fltk-1.3.4-1/png/pngset.c **** static png_byte
1076:fltk-1.3.4-1/png/pngset.c **** check_location(png_const_structrp png_ptr, int location)
1077:fltk-1.3.4-1/png/pngset.c **** {
  18              		.loc 1 1077 1 view -0
  19              		.cfi_startproc
1078:fltk-1.3.4-1/png/pngset.c ****    location &= (PNG_HAVE_IHDR|PNG_HAVE_PLTE|PNG_AFTER_IDAT);
  20              		.loc 1 1078 4 view .LVU1
1079:fltk-1.3.4-1/png/pngset.c **** 
1080:fltk-1.3.4-1/png/pngset.c ****    /* New in 1.6.0; copy the location and check it.  This is an API
1081:fltk-1.3.4-1/png/pngset.c ****     * change; previously the app had to use the
1082:fltk-1.3.4-1/png/pngset.c ****     * png_set_unknown_chunk_location API below for each chunk.
1083:fltk-1.3.4-1/png/pngset.c ****     */
1084:fltk-1.3.4-1/png/pngset.c ****    if (location == 0 && (png_ptr->mode & PNG_IS_READ_STRUCT) == 0)
  21              		.loc 1 1084 4 view .LVU2
  22              		.loc 1 1084 7 is_stmt 0 view .LVU3
  23 0000 89F0     		movl	%esi, %eax
  24 0002 83E00B   		andl	$11, %eax
  25              	.LVL1:
  26              		.loc 1 1084 7 view .LVU4
  27 0005 7429     		je	.L20
1085:fltk-1.3.4-1/png/pngset.c ****    {
1086:fltk-1.3.4-1/png/pngset.c ****       /* Write struct, so unknown chunks come from the app */
1087:fltk-1.3.4-1/png/pngset.c ****       png_app_warning(png_ptr,
1088:fltk-1.3.4-1/png/pngset.c ****          "png_set_unknown_chunks now expects a valid location");
1089:fltk-1.3.4-1/png/pngset.c ****       /* Use the old behavior */
1090:fltk-1.3.4-1/png/pngset.c ****       location = (png_byte)(png_ptr->mode &
1091:fltk-1.3.4-1/png/pngset.c ****          (PNG_HAVE_IHDR|PNG_HAVE_PLTE|PNG_AFTER_IDAT));
1092:fltk-1.3.4-1/png/pngset.c ****    }
1093:fltk-1.3.4-1/png/pngset.c **** 
1094:fltk-1.3.4-1/png/pngset.c ****    /* This need not be an internal error - if the app calls
1095:fltk-1.3.4-1/png/pngset.c ****     * png_set_unknown_chunks on a read pointer it must get the location right.
1096:fltk-1.3.4-1/png/pngset.c ****     */
1097:fltk-1.3.4-1/png/pngset.c ****    if (location == 0)
1098:fltk-1.3.4-1/png/pngset.c ****       png_error(png_ptr, "invalid location in png_set_unknown_chunks");
1099:fltk-1.3.4-1/png/pngset.c **** 
1100:fltk-1.3.4-1/png/pngset.c ****    /* Now reduce the location to the top-most set bit by removing each least
1101:fltk-1.3.4-1/png/pngset.c ****     * significant bit in turn.
1102:fltk-1.3.4-1/png/pngset.c ****     */
1103:fltk-1.3.4-1/png/pngset.c ****    while (location != (location & -location))
  28              		.loc 1 1103 10 is_stmt 1 view .LVU5
  29              		.loc 1 1103 35 is_stmt 0 view .LVU6
  30 0007 89C2     		movl	%eax, %edx
  31 0009 F7DA     		negl	%edx
  32              		.loc 1 1103 33 view .LVU7
  33 000b 21C2     		andl	%eax, %edx
  34              		.loc 1 1103 10 view .LVU8
  35 000d 39C2     		cmpl	%eax, %edx
  36 000f 7438     		je	.L15
  37              		.p2align 4,,10
  38 0011 0F1F8000 		.p2align 3
  38      000000
  39              	.L13:
1104:fltk-1.3.4-1/png/pngset.c ****       location &= ~(location & -location);
  40              		.loc 1 1104 7 is_stmt 1 view .LVU9
  41              		.loc 1 1104 16 is_stmt 0 view .LVU10
  42 0018 8D50FF   		leal	-1(%rax), %edx
  43 001b 21D0     		andl	%edx, %eax
  44              	.LVL2:
1103:fltk-1.3.4-1/png/pngset.c ****       location &= ~(location & -location);
  45              		.loc 1 1103 10 is_stmt 1 view .LVU11
1103:fltk-1.3.4-1/png/pngset.c ****       location &= ~(location & -location);
  46              		.loc 1 1103 35 is_stmt 0 view .LVU12
  47 001d 89C2     		movl	%eax, %edx
  48 001f F7DA     		negl	%edx
1103:fltk-1.3.4-1/png/pngset.c ****       location &= ~(location & -location);
  49              		.loc 1 1103 33 view .LVU13
  50 0021 21C2     		andl	%eax, %edx
1103:fltk-1.3.4-1/png/pngset.c ****       location &= ~(location & -location);
  51              		.loc 1 1103 10 view .LVU14
  52 0023 39C2     		cmpl	%eax, %edx
  53 0025 75F1     		jne	.L13
  54 0027 C3       		ret
  55 0028 0F1F8400 		.p2align 4,,10
  55      00000000 
  56              		.p2align 3
  57              	.L20:
1077:fltk-1.3.4-1/png/pngset.c ****    location &= (PNG_HAVE_IHDR|PNG_HAVE_PLTE|PNG_AFTER_IDAT);
  58              		.loc 1 1077 1 discriminator 1 view .LVU15
  59 0030 4883EC18 		subq	$24, %rsp
  60              		.cfi_def_cfa_offset 32
1084:fltk-1.3.4-1/png/pngset.c ****    {
  61              		.loc 1 1084 22 discriminator 1 view .LVU16
  62 0034 F6872D01 		testb	$-128, 301(%rdi)
  62      000080
  63 003b 7413     		je	.L21
  64              	.LVL3:
  65              	.L3:
1098:fltk-1.3.4-1/png/pngset.c **** 
  66              		.loc 1 1098 7 is_stmt 1 view .LVU17
  67 003d 488D3500 		leaq	.LC1(%rip), %rsi
  67      000000
  68 0044 E8000000 		call	png_error@PLT
  68      00
  69              	.LVL4:
  70              	.L15:
  71              		.cfi_def_cfa_offset 8
1105:fltk-1.3.4-1/png/pngset.c **** 
1106:fltk-1.3.4-1/png/pngset.c ****    /* The cast is safe because 'location' is a bit mask and only the low four
1107:fltk-1.3.4-1/png/pngset.c ****     * bits are significant.
1108:fltk-1.3.4-1/png/pngset.c ****     */
1109:fltk-1.3.4-1/png/pngset.c ****    return (png_byte)location;
  72              		.loc 1 1109 4 view .LVU18
1110:fltk-1.3.4-1/png/pngset.c **** }
  73              		.loc 1 1110 1 is_stmt 0 view .LVU19
  74 0049 C3       		ret
  75 004a 660F1F44 		.p2align 4,,10
  75      0000
  76              		.p2align 3
  77              	.L21:
  78              		.cfi_def_cfa_offset 32
1087:fltk-1.3.4-1/png/pngset.c ****          "png_set_unknown_chunks now expects a valid location");
  79              		.loc 1 1087 7 is_stmt 1 view .LVU20
  80 0050 488D3500 		leaq	.LC0(%rip), %rsi
  80      000000
  81 0057 48897C24 		movq	%rdi, 8(%rsp)
  81      08
  82 005c E8000000 		call	png_app_warning@PLT
  82      00
  83              	.LVL5:
1090:fltk-1.3.4-1/png/pngset.c ****          (PNG_HAVE_IHDR|PNG_HAVE_PLTE|PNG_AFTER_IDAT));
  84              		.loc 1 1090 7 view .LVU21
1090:fltk-1.3.4-1/png/pngset.c ****          (PNG_HAVE_IHDR|PNG_HAVE_PLTE|PNG_AFTER_IDAT));
  85              		.loc 1 1090 18 is_stmt 0 view .LVU22
  86 0061 488B7C24 		movq	8(%rsp), %rdi
  86      08
  87 0066 0FB6872C 		movzbl	300(%rdi), %eax
  87      010000
  88              	.LVL6:
1097:fltk-1.3.4-1/png/pngset.c ****       png_error(png_ptr, "invalid location in png_set_unknown_chunks");
  89              		.loc 1 1097 4 is_stmt 1 view .LVU23
1097:fltk-1.3.4-1/png/pngset.c ****       png_error(png_ptr, "invalid location in png_set_unknown_chunks");
  90              		.loc 1 1097 7 is_stmt 0 view .LVU24
  91 006d 83E00B   		andl	$11, %eax
  92              	.LVL7:
1097:fltk-1.3.4-1/png/pngset.c ****       png_error(png_ptr, "invalid location in png_set_unknown_chunks");
  93              		.loc 1 1097 7 view .LVU25
  94 0070 750B     		jne	.L18
1097:fltk-1.3.4-1/png/pngset.c ****       png_error(png_ptr, "invalid location in png_set_unknown_chunks");
  95              		.loc 1 1097 7 view .LVU26
  96 0072 EBC9     		jmp	.L3
  97              		.p2align 4,,10
  98 0074 0F1F4000 		.p2align 3
  99              	.L4:
1104:fltk-1.3.4-1/png/pngset.c **** 
 100              		.loc 1 1104 7 is_stmt 1 view .LVU27
1104:fltk-1.3.4-1/png/pngset.c **** 
 101              		.loc 1 1104 16 is_stmt 0 view .LVU28
 102 0078 8D50FF   		leal	-1(%rax), %edx
 103 007b 21D0     		andl	%edx, %eax
 104              	.LVL8:
 105              	.L18:
1103:fltk-1.3.4-1/png/pngset.c ****       location &= ~(location & -location);
 106              		.loc 1 1103 10 is_stmt 1 view .LVU29
1103:fltk-1.3.4-1/png/pngset.c ****       location &= ~(location & -location);
 107              		.loc 1 1103 35 is_stmt 0 view .LVU30
 108 007d 89C2     		movl	%eax, %edx
 109 007f F7DA     		negl	%edx
1103:fltk-1.3.4-1/png/pngset.c ****       location &= ~(location & -location);
 110              		.loc 1 1103 33 view .LVU31
 111 0081 21C2     		andl	%eax, %edx
1103:fltk-1.3.4-1/png/pngset.c ****       location &= ~(location & -location);
 112              		.loc 1 1103 10 view .LVU32
 113 0083 39C2     		cmpl	%eax, %edx
 114 0085 75F1     		jne	.L4
1109:fltk-1.3.4-1/png/pngset.c **** }
 115              		.loc 1 1109 4 is_stmt 1 view .LVU33
 116              		.loc 1 1110 1 is_stmt 0 view .LVU34
 117 0087 4883C418 		addq	$24, %rsp
 118              		.cfi_def_cfa_offset 8
 119 008b C3       		ret
 120              		.cfi_endproc
 121              	.LFE66:
 123              		.section	.text.png_set_bKGD,"ax",@progbits
 124              		.p2align 4
 125              		.globl	png_set_bKGD
 127              	png_set_bKGD:
 128              	.LVL9:
 129              	.LFB41:
  27:fltk-1.3.4-1/png/pngset.c ****    png_debug1(1, "in %s storage function", "bKGD");
 130              		.loc 1 27 1 is_stmt 1 view -0
 131              		.cfi_startproc
  27:fltk-1.3.4-1/png/pngset.c ****    png_debug1(1, "in %s storage function", "bKGD");
 132              		.loc 1 27 1 is_stmt 0 view .LVU36
 133 0000 F30F1EFA 		endbr64
  28:fltk-1.3.4-1/png/pngset.c **** 
 134              		.loc 1 28 4 is_stmt 1 view .LVU37
  30:fltk-1.3.4-1/png/pngset.c ****       return;
 135              		.loc 1 30 4 view .LVU38
  30:fltk-1.3.4-1/png/pngset.c ****       return;
 136              		.loc 1 30 36 is_stmt 0 view .LVU39
 137 0004 4885F6   		testq	%rsi, %rsi
 138 0007 0F94C1   		sete	%cl
  30:fltk-1.3.4-1/png/pngset.c ****       return;
 139              		.loc 1 30 44 view .LVU40
 140 000a 4885D2   		testq	%rdx, %rdx
 141 000d 0F94C0   		sete	%al
 142 0010 08C1     		orb	%al, %cl
 143 0012 751E     		jne	.L22
 144 0014 4885FF   		testq	%rdi, %rdi
 145 0017 7419     		je	.L22
  33:fltk-1.3.4-1/png/pngset.c ****    info_ptr->valid |= PNG_INFO_bKGD;
 146              		.loc 1 33 4 is_stmt 1 view .LVU41
  33:fltk-1.3.4-1/png/pngset.c ****    info_ptr->valid |= PNG_INFO_bKGD;
 147              		.loc 1 33 25 is_stmt 0 view .LVU42
 148 0019 488B02   		movq	(%rdx), %rax
  34:fltk-1.3.4-1/png/pngset.c **** }
 149              		.loc 1 34 20 view .LVU43
 150 001c 834E0820 		orl	$32, 8(%rsi)
  33:fltk-1.3.4-1/png/pngset.c ****    info_ptr->valid |= PNG_INFO_bKGD;
 151              		.loc 1 33 25 view .LVU44
 152 0020 488986CA 		movq	%rax, 202(%rsi)
 152      000000
 153 0027 0FB74208 		movzwl	8(%rdx), %eax
 154 002b 668986D2 		movw	%ax, 210(%rsi)
 154      000000
  34:fltk-1.3.4-1/png/pngset.c **** }
 155              		.loc 1 34 4 is_stmt 1 view .LVU45
 156              	.L22:
  35:fltk-1.3.4-1/png/pngset.c **** #endif
 157              		.loc 1 35 1 is_stmt 0 view .LVU46
 158 0032 C3       		ret
 159              		.cfi_endproc
 160              	.LFE41:
 162              		.section	.text.png_set_cHRM_fixed,"ax",@progbits
 163              		.p2align 4
 164              		.globl	png_set_cHRM_fixed
 166              	png_set_cHRM_fixed:
 167              	.LVL10:
 168              	.LFB42:
  44:fltk-1.3.4-1/png/pngset.c ****    png_xy xy;
 169              		.loc 1 44 1 is_stmt 1 view -0
 170              		.cfi_startproc
  44:fltk-1.3.4-1/png/pngset.c ****    png_xy xy;
 171              		.loc 1 44 1 is_stmt 0 view .LVU48
 172 0000 F30F1EFA 		endbr64
 173 0004 4154     		pushq	%r12
 174              		.cfi_def_cfa_offset 16
 175              		.cfi_offset 12, -16
 176 0006 55       		pushq	%rbp
 177              		.cfi_def_cfa_offset 24
 178              		.cfi_offset 6, -24
 179 0007 4883EC38 		subq	$56, %rsp
 180              		.cfi_def_cfa_offset 80
  44:fltk-1.3.4-1/png/pngset.c ****    png_xy xy;
 181              		.loc 1 44 1 view .LVU49
 182 000b 64488B04 		movq	%fs:40, %rax
 182      25280000 
 182      00
 183 0014 48894424 		movq	%rax, 40(%rsp)
 183      28
 184 0019 31C0     		xorl	%eax, %eax
  45:fltk-1.3.4-1/png/pngset.c **** 
 185              		.loc 1 45 4 is_stmt 1 view .LVU50
  47:fltk-1.3.4-1/png/pngset.c **** 
 186              		.loc 1 47 4 view .LVU51
  49:fltk-1.3.4-1/png/pngset.c ****       return;
 187              		.loc 1 49 4 view .LVU52
  49:fltk-1.3.4-1/png/pngset.c ****       return;
 188              		.loc 1 49 7 is_stmt 0 view .LVU53
 189 001b 4885FF   		testq	%rdi, %rdi
 190 001e 7461     		je	.L24
 191 0020 4889F5   		movq	%rsi, %rbp
 192 0023 4885F6   		testq	%rsi, %rsi
 193 0026 7459     		je	.L24
 194              	.LBB73:
 195              	.LBB74:
  54:fltk-1.3.4-1/png/pngset.c ****    xy.greeny = green_y;
 196              		.loc 1 54 14 view .LVU54
 197 0028 8B442450 		movl	80(%rsp), %eax
  58:fltk-1.3.4-1/png/pngset.c ****    xy.whitey = white_y;
 198              		.loc 1 58 14 view .LVU55
 199 002c 89542418 		movl	%edx, 24(%rsp)
  61:fltk-1.3.4-1/png/pngset.c ****        2/* override with app values*/) != 0)
 200              		.loc 1 61 51 view .LVU56
 201 0030 488D7634 		leaq	52(%rsi), %rsi
 202              	.LVL11:
  61:fltk-1.3.4-1/png/pngset.c ****        2/* override with app values*/) != 0)
 203              		.loc 1 61 8 view .LVU57
 204 0034 4889E2   		movq	%rsp, %rdx
 205              	.LVL12:
  59:fltk-1.3.4-1/png/pngset.c **** 
 206              		.loc 1 59 14 view .LVU58
 207 0037 894C241C 		movl	%ecx, 28(%rsp)
  61:fltk-1.3.4-1/png/pngset.c ****        2/* override with app values*/) != 0)
 208              		.loc 1 61 8 view .LVU59
 209 003b B9020000 		movl	$2, %ecx
 209      00
 210              	.LVL13:
  61:fltk-1.3.4-1/png/pngset.c ****        2/* override with app values*/) != 0)
 211              		.loc 1 61 8 view .LVU60
 212 0040 4989FC   		movq	%rdi, %r12
 213              	.LVL14:
  61:fltk-1.3.4-1/png/pngset.c ****        2/* override with app values*/) != 0)
 214              		.loc 1 61 8 view .LVU61
 215              	.LBE74:
 216              	.LBI73:
  40:fltk-1.3.4-1/png/pngset.c ****     png_fixed_point white_x, png_fixed_point white_y, png_fixed_point red_x,
 217              		.loc 1 40 1 is_stmt 1 view .LVU62
 218              	.LBB75:
  52:fltk-1.3.4-1/png/pngset.c ****    xy.redy = red_y;
 219              		.loc 1 52 4 view .LVU63
  54:fltk-1.3.4-1/png/pngset.c ****    xy.greeny = green_y;
 220              		.loc 1 54 14 is_stmt 0 view .LVU64
 221 0043 89442408 		movl	%eax, 8(%rsp)
  55:fltk-1.3.4-1/png/pngset.c ****    xy.bluex = blue_x;
 222              		.loc 1 55 14 view .LVU65
 223 0047 8B442458 		movl	88(%rsp), %eax
 224              	.LVL15:
  52:fltk-1.3.4-1/png/pngset.c ****    xy.redy = red_y;
 225              		.loc 1 52 12 view .LVU66
 226 004b 44890424 		movl	%r8d, (%rsp)
  53:fltk-1.3.4-1/png/pngset.c ****    xy.greenx = green_x;
 227              		.loc 1 53 4 is_stmt 1 view .LVU67
  55:fltk-1.3.4-1/png/pngset.c ****    xy.bluex = blue_x;
 228              		.loc 1 55 14 is_stmt 0 view .LVU68
 229 004f 8944240C 		movl	%eax, 12(%rsp)
  56:fltk-1.3.4-1/png/pngset.c ****    xy.bluey = blue_y;
 230              		.loc 1 56 13 view .LVU69
 231 0053 8B442460 		movl	96(%rsp), %eax
  53:fltk-1.3.4-1/png/pngset.c ****    xy.greenx = green_x;
 232              		.loc 1 53 12 view .LVU70
 233 0057 44894C24 		movl	%r9d, 4(%rsp)
 233      04
  54:fltk-1.3.4-1/png/pngset.c ****    xy.greeny = green_y;
 234              		.loc 1 54 4 is_stmt 1 view .LVU71
  55:fltk-1.3.4-1/png/pngset.c ****    xy.bluex = blue_x;
 235              		.loc 1 55 4 view .LVU72
  56:fltk-1.3.4-1/png/pngset.c ****    xy.bluey = blue_y;
 236              		.loc 1 56 4 view .LVU73
  56:fltk-1.3.4-1/png/pngset.c ****    xy.bluey = blue_y;
 237              		.loc 1 56 13 is_stmt 0 view .LVU74
 238 005c 89442410 		movl	%eax, 16(%rsp)
  57:fltk-1.3.4-1/png/pngset.c ****    xy.whitex = white_x;
 239              		.loc 1 57 4 is_stmt 1 view .LVU75
  57:fltk-1.3.4-1/png/pngset.c ****    xy.whitex = white_x;
 240              		.loc 1 57 13 is_stmt 0 view .LVU76
 241 0060 8B442468 		movl	104(%rsp), %eax
 242 0064 89442414 		movl	%eax, 20(%rsp)
  58:fltk-1.3.4-1/png/pngset.c ****    xy.whitey = white_y;
 243              		.loc 1 58 4 is_stmt 1 view .LVU77
  59:fltk-1.3.4-1/png/pngset.c **** 
 244              		.loc 1 59 4 view .LVU78
  61:fltk-1.3.4-1/png/pngset.c ****        2/* override with app values*/) != 0)
 245              		.loc 1 61 4 view .LVU79
  61:fltk-1.3.4-1/png/pngset.c ****        2/* override with app values*/) != 0)
 246              		.loc 1 61 8 is_stmt 0 view .LVU80
 247 0068 E8000000 		call	png_colorspace_set_chromaticities@PLT
 247      00
 248              	.LVL16:
  61:fltk-1.3.4-1/png/pngset.c ****        2/* override with app values*/) != 0)
 249              		.loc 1 61 7 view .LVU81
 250 006d 85C0     		testl	%eax, %eax
 251 006f 7405     		je	.L26
  63:fltk-1.3.4-1/png/pngset.c **** 
 252              		.loc 1 63 7 is_stmt 1 view .LVU82
  63:fltk-1.3.4-1/png/pngset.c **** 
 253              		.loc 1 63 34 is_stmt 0 view .LVU83
 254 0071 66834D7E 		orw	$16, 126(%rbp)
 254      10
 255              	.L26:
  65:fltk-1.3.4-1/png/pngset.c **** }
 256              		.loc 1 65 4 is_stmt 1 view .LVU84
 257 0076 4889EE   		movq	%rbp, %rsi
 258 0079 4C89E7   		movq	%r12, %rdi
 259 007c E8000000 		call	png_colorspace_sync_info@PLT
 259      00
 260              	.LVL17:
 261              	.L24:
  65:fltk-1.3.4-1/png/pngset.c **** }
 262              		.loc 1 65 4 is_stmt 0 view .LVU85
 263              	.LBE75:
 264              	.LBE73:
  66:fltk-1.3.4-1/png/pngset.c **** 
 265              		.loc 1 66 1 view .LVU86
 266 0081 488B4424 		movq	40(%rsp), %rax
 266      28
 267 0086 64483304 		xorq	%fs:40, %rax
 267      25280000 
 267      00
 268 008f 7508     		jne	.L32
 269 0091 4883C438 		addq	$56, %rsp
 270              		.cfi_remember_state
 271              		.cfi_def_cfa_offset 24
 272 0095 5D       		popq	%rbp
 273              		.cfi_def_cfa_offset 16
 274 0096 415C     		popq	%r12
 275              		.cfi_def_cfa_offset 8
 276 0098 C3       		ret
 277              	.L32:
 278              		.cfi_restore_state
 279 0099 E8000000 		call	__stack_chk_fail@PLT
 279      00
 280              	.LVL18:
 281              		.cfi_endproc
 282              	.LFE42:
 284              		.section	.text.png_set_cHRM_XYZ_fixed,"ax",@progbits
 285              		.p2align 4
 286              		.globl	png_set_cHRM_XYZ_fixed
 288              	png_set_cHRM_XYZ_fixed:
 289              	.LVL19:
 290              	.LFB43:
  75:fltk-1.3.4-1/png/pngset.c ****    png_XYZ XYZ;
 291              		.loc 1 75 1 is_stmt 1 view -0
 292              		.cfi_startproc
  75:fltk-1.3.4-1/png/pngset.c ****    png_XYZ XYZ;
 293              		.loc 1 75 1 is_stmt 0 view .LVU88
 294 0000 F30F1EFA 		endbr64
 295 0004 4154     		pushq	%r12
 296              		.cfi_def_cfa_offset 16
 297              		.cfi_offset 12, -16
 298 0006 55       		pushq	%rbp
 299              		.cfi_def_cfa_offset 24
 300              		.cfi_offset 6, -24
 301 0007 4883EC38 		subq	$56, %rsp
 302              		.cfi_def_cfa_offset 80
  75:fltk-1.3.4-1/png/pngset.c ****    png_XYZ XYZ;
 303              		.loc 1 75 1 view .LVU89
 304 000b 64488B04 		movq	%fs:40, %rax
 304      25280000 
 304      00
 305 0014 48894424 		movq	%rax, 40(%rsp)
 305      28
 306 0019 31C0     		xorl	%eax, %eax
  76:fltk-1.3.4-1/png/pngset.c **** 
 307              		.loc 1 76 4 is_stmt 1 view .LVU90
  78:fltk-1.3.4-1/png/pngset.c **** 
 308              		.loc 1 78 4 view .LVU91
  80:fltk-1.3.4-1/png/pngset.c ****       return;
 309              		.loc 1 80 4 view .LVU92
  80:fltk-1.3.4-1/png/pngset.c ****       return;
 310              		.loc 1 80 7 is_stmt 0 view .LVU93
 311 001b 4885FF   		testq	%rdi, %rdi
 312 001e 7469     		je	.L33
 313 0020 4889F5   		movq	%rsi, %rbp
 314 0023 4885F6   		testq	%rsi, %rsi
 315 0026 7461     		je	.L33
 316              	.LBB78:
 317              	.LBB79:
  87:fltk-1.3.4-1/png/pngset.c ****    XYZ.green_Z = int_green_Z;
 318              		.loc 1 87 16 view .LVU94
 319 0028 8B442450 		movl	80(%rsp), %eax
  83:fltk-1.3.4-1/png/pngset.c ****    XYZ.red_Y = int_red_Y;
 320              		.loc 1 83 14 view .LVU95
 321 002c 891424   		movl	%edx, (%rsp)
  93:fltk-1.3.4-1/png/pngset.c ****        &XYZ, 2) != 0)
 322              		.loc 1 93 46 view .LVU96
 323 002f 488D7634 		leaq	52(%rsi), %rsi
 324              	.LVL20:
  93:fltk-1.3.4-1/png/pngset.c ****        &XYZ, 2) != 0)
 325              		.loc 1 93 8 view .LVU97
 326 0033 4889E2   		movq	%rsp, %rdx
 327              	.LVL21:
  84:fltk-1.3.4-1/png/pngset.c ****    XYZ.red_Z = int_red_Z;
 328              		.loc 1 84 14 view .LVU98
 329 0036 894C2404 		movl	%ecx, 4(%rsp)
  93:fltk-1.3.4-1/png/pngset.c ****        &XYZ, 2) != 0)
 330              		.loc 1 93 8 view .LVU99
 331 003a B9020000 		movl	$2, %ecx
 331      00
 332              	.LVL22:
  93:fltk-1.3.4-1/png/pngset.c ****        &XYZ, 2) != 0)
 333              		.loc 1 93 8 view .LVU100
 334 003f 4989FC   		movq	%rdi, %r12
 335              	.LVL23:
  93:fltk-1.3.4-1/png/pngset.c ****        &XYZ, 2) != 0)
 336              		.loc 1 93 8 view .LVU101
 337              	.LBE79:
 338              	.LBI78:
  69:fltk-1.3.4-1/png/pngset.c ****     png_fixed_point int_red_X, png_fixed_point int_red_Y,
 339              		.loc 1 69 1 is_stmt 1 view .LVU102
 340              	.LBB80:
  83:fltk-1.3.4-1/png/pngset.c ****    XYZ.red_Y = int_red_Y;
 341              		.loc 1 83 4 view .LVU103
  84:fltk-1.3.4-1/png/pngset.c ****    XYZ.red_Z = int_red_Z;
 342              		.loc 1 84 4 view .LVU104
  85:fltk-1.3.4-1/png/pngset.c ****    XYZ.green_X = int_green_X;
 343              		.loc 1 85 4 view .LVU105
  87:fltk-1.3.4-1/png/pngset.c ****    XYZ.green_Z = int_green_Z;
 344              		.loc 1 87 16 is_stmt 0 view .LVU106
 345 0042 89442410 		movl	%eax, 16(%rsp)
  88:fltk-1.3.4-1/png/pngset.c ****    XYZ.blue_X = int_blue_X;
 346              		.loc 1 88 16 view .LVU107
 347 0046 8B442458 		movl	88(%rsp), %eax
 348              	.LVL24:
  85:fltk-1.3.4-1/png/pngset.c ****    XYZ.green_X = int_green_X;
 349              		.loc 1 85 14 view .LVU108
 350 004a 44894424 		movl	%r8d, 8(%rsp)
 350      08
  86:fltk-1.3.4-1/png/pngset.c ****    XYZ.green_Y = int_green_Y;
 351              		.loc 1 86 4 is_stmt 1 view .LVU109
  88:fltk-1.3.4-1/png/pngset.c ****    XYZ.blue_X = int_blue_X;
 352              		.loc 1 88 16 is_stmt 0 view .LVU110
 353 004f 89442414 		movl	%eax, 20(%rsp)
  89:fltk-1.3.4-1/png/pngset.c ****    XYZ.blue_Y = int_blue_Y;
 354              		.loc 1 89 15 view .LVU111
 355 0053 8B442460 		movl	96(%rsp), %eax
  86:fltk-1.3.4-1/png/pngset.c ****    XYZ.green_Y = int_green_Y;
 356              		.loc 1 86 16 view .LVU112
 357 0057 44894C24 		movl	%r9d, 12(%rsp)
 357      0C
  87:fltk-1.3.4-1/png/pngset.c ****    XYZ.green_Z = int_green_Z;
 358              		.loc 1 87 4 is_stmt 1 view .LVU113
  88:fltk-1.3.4-1/png/pngset.c ****    XYZ.blue_X = int_blue_X;
 359              		.loc 1 88 4 view .LVU114
  89:fltk-1.3.4-1/png/pngset.c ****    XYZ.blue_Y = int_blue_Y;
 360              		.loc 1 89 4 view .LVU115
  89:fltk-1.3.4-1/png/pngset.c ****    XYZ.blue_Y = int_blue_Y;
 361              		.loc 1 89 15 is_stmt 0 view .LVU116
 362 005c 89442418 		movl	%eax, 24(%rsp)
  90:fltk-1.3.4-1/png/pngset.c ****    XYZ.blue_Z = int_blue_Z;
 363              		.loc 1 90 4 is_stmt 1 view .LVU117
  90:fltk-1.3.4-1/png/pngset.c ****    XYZ.blue_Z = int_blue_Z;
 364              		.loc 1 90 15 is_stmt 0 view .LVU118
 365 0060 8B442468 		movl	104(%rsp), %eax
 366 0064 8944241C 		movl	%eax, 28(%rsp)
  91:fltk-1.3.4-1/png/pngset.c **** 
 367              		.loc 1 91 4 is_stmt 1 view .LVU119
  91:fltk-1.3.4-1/png/pngset.c **** 
 368              		.loc 1 91 15 is_stmt 0 view .LVU120
 369 0068 8B442470 		movl	112(%rsp), %eax
 370 006c 89442420 		movl	%eax, 32(%rsp)
  93:fltk-1.3.4-1/png/pngset.c ****        &XYZ, 2) != 0)
 371              		.loc 1 93 4 is_stmt 1 view .LVU121
  93:fltk-1.3.4-1/png/pngset.c ****        &XYZ, 2) != 0)
 372              		.loc 1 93 8 is_stmt 0 view .LVU122
 373 0070 E8000000 		call	png_colorspace_set_endpoints@PLT
 373      00
 374              	.LVL25:
  93:fltk-1.3.4-1/png/pngset.c ****        &XYZ, 2) != 0)
 375              		.loc 1 93 7 view .LVU123
 376 0075 85C0     		testl	%eax, %eax
 377 0077 7405     		je	.L35
  95:fltk-1.3.4-1/png/pngset.c **** 
 378              		.loc 1 95 7 is_stmt 1 view .LVU124
  95:fltk-1.3.4-1/png/pngset.c **** 
 379              		.loc 1 95 34 is_stmt 0 view .LVU125
 380 0079 66834D7E 		orw	$16, 126(%rbp)
 380      10
 381              	.L35:
  97:fltk-1.3.4-1/png/pngset.c **** }
 382              		.loc 1 97 4 is_stmt 1 view .LVU126
 383 007e 4889EE   		movq	%rbp, %rsi
 384 0081 4C89E7   		movq	%r12, %rdi
 385 0084 E8000000 		call	png_colorspace_sync_info@PLT
 385      00
 386              	.LVL26:
 387              	.L33:
  97:fltk-1.3.4-1/png/pngset.c **** }
 388              		.loc 1 97 4 is_stmt 0 view .LVU127
 389              	.LBE80:
 390              	.LBE78:
  98:fltk-1.3.4-1/png/pngset.c **** 
 391              		.loc 1 98 1 view .LVU128
 392 0089 488B4424 		movq	40(%rsp), %rax
 392      28
 393 008e 64483304 		xorq	%fs:40, %rax
 393      25280000 
 393      00
 394 0097 7508     		jne	.L41
 395 0099 4883C438 		addq	$56, %rsp
 396              		.cfi_remember_state
 397              		.cfi_def_cfa_offset 24
 398 009d 5D       		popq	%rbp
 399              		.cfi_def_cfa_offset 16
 400 009e 415C     		popq	%r12
 401              		.cfi_def_cfa_offset 8
 402 00a0 C3       		ret
 403              	.L41:
 404              		.cfi_restore_state
 405 00a1 E8000000 		call	__stack_chk_fail@PLT
 405      00
 406              	.LVL27:
 407              		.cfi_endproc
 408              	.LFE43:
 410              		.section	.rodata.png_set_cHRM.str1.1,"aMS",@progbits,1
 411              	.LC2:
 412 0000 6348524D 		.string	"cHRM Blue Y"
 412      20426C75 
 412      65205900 
 413              	.LC3:
 414 000c 6348524D 		.string	"cHRM Blue X"
 414      20426C75 
 414      65205800 
 415              	.LC4:
 416 0018 6348524D 		.string	"cHRM Green Y"
 416      20477265 
 416      656E2059 
 416      00
 417              	.LC5:
 418 0025 6348524D 		.string	"cHRM Green X"
 418      20477265 
 418      656E2058 
 418      00
 419              	.LC6:
 420 0032 6348524D 		.string	"cHRM Red Y"
 420      20526564 
 420      205900
 421              	.LC7:
 422 003d 6348524D 		.string	"cHRM Red X"
 422      20526564 
 422      205800
 423              	.LC8:
 424 0048 6348524D 		.string	"cHRM White Y"
 424      20576869 
 424      74652059 
 424      00
 425              	.LC9:
 426 0055 6348524D 		.string	"cHRM White X"
 426      20576869 
 426      74652058 
 426      00
 427              		.section	.text.png_set_cHRM,"ax",@progbits
 428              		.p2align 4
 429              		.globl	png_set_cHRM
 431              	png_set_cHRM:
 432              	.LVL28:
 433              	.LFB44:
 105:fltk-1.3.4-1/png/pngset.c ****    png_set_cHRM_fixed(png_ptr, info_ptr,
 434              		.loc 1 105 1 is_stmt 1 view -0
 435              		.cfi_startproc
 105:fltk-1.3.4-1/png/pngset.c ****    png_set_cHRM_fixed(png_ptr, info_ptr,
 436              		.loc 1 105 1 is_stmt 0 view .LVU130
 437 0000 F30F1EFA 		endbr64
 438 0004 4157     		pushq	%r15
 439              		.cfi_def_cfa_offset 16
 440              		.cfi_offset 15, -16
 441 0006 4156     		pushq	%r14
 442              		.cfi_def_cfa_offset 24
 443              		.cfi_offset 14, -24
 444 0008 4155     		pushq	%r13
 445              		.cfi_def_cfa_offset 32
 446              		.cfi_offset 13, -32
 447 000a 4154     		pushq	%r12
 448              		.cfi_def_cfa_offset 40
 449              		.cfi_offset 12, -40
 450 000c 4989F4   		movq	%rsi, %r12
 106:fltk-1.3.4-1/png/pngset.c ****       png_fixed(png_ptr, white_x, "cHRM White X"),
 451              		.loc 1 106 4 view .LVU131
 452 000f 488D3500 		leaq	.LC2(%rip), %rsi
 452      000000
 453              	.LVL29:
 105:fltk-1.3.4-1/png/pngset.c ****    png_set_cHRM_fixed(png_ptr, info_ptr,
 454              		.loc 1 105 1 view .LVU132
 455 0016 55       		pushq	%rbp
 456              		.cfi_def_cfa_offset 48
 457              		.cfi_offset 6, -48
 458 0017 4889FD   		movq	%rdi, %rbp
 459 001a 53       		pushq	%rbx
 460              		.cfi_def_cfa_offset 56
 461              		.cfi_offset 3, -56
 462 001b 4883EC78 		subq	$120, %rsp
 463              		.cfi_def_cfa_offset 176
 105:fltk-1.3.4-1/png/pngset.c ****    png_set_cHRM_fixed(png_ptr, info_ptr,
 464              		.loc 1 105 1 view .LVU133
 465 001f F20F114C 		movsd	%xmm1, 48(%rsp)
 465      2430
 466 0025 F20F1154 		movsd	%xmm2, 40(%rsp)
 466      2428
 467 002b F20F115C 		movsd	%xmm3, 32(%rsp)
 467      2420
 468 0031 F20F1164 		movsd	%xmm4, 24(%rsp)
 468      2418
 469 0037 F20F116C 		movsd	%xmm5, 16(%rsp)
 469      2410
 470 003d F20F1144 		movsd	%xmm0, 56(%rsp)
 470      2438
 471 0043 660F28C7 		movapd	%xmm7, %xmm0
 472              	.LVL30:
 105:fltk-1.3.4-1/png/pngset.c ****    png_set_cHRM_fixed(png_ptr, info_ptr,
 473              		.loc 1 105 1 view .LVU134
 474 0047 F20F1174 		movsd	%xmm6, 8(%rsp)
 474      2408
 475 004d 64488B04 		movq	%fs:40, %rax
 475      25280000 
 475      00
 476 0056 48894424 		movq	%rax, 104(%rsp)
 476      68
 477 005b 31C0     		xorl	%eax, %eax
 106:fltk-1.3.4-1/png/pngset.c ****       png_fixed(png_ptr, white_x, "cHRM White X"),
 478              		.loc 1 106 4 is_stmt 1 view .LVU135
 479 005d E8000000 		call	png_fixed@PLT
 479      00
 480              	.LVL31:
 106:fltk-1.3.4-1/png/pngset.c ****       png_fixed(png_ptr, white_x, "cHRM White X"),
 481              		.loc 1 106 4 is_stmt 0 view .LVU136
 482 0062 F20F1074 		movsd	8(%rsp), %xmm6
 482      2408
 483 0068 488D3500 		leaq	.LC3(%rip), %rsi
 483      000000
 484 006f 4889EF   		movq	%rbp, %rdi
 485 0072 89C3     		movl	%eax, %ebx
 486 0074 660F28C6 		movapd	%xmm6, %xmm0
 487 0078 E8000000 		call	png_fixed@PLT
 487      00
 488              	.LVL32:
 489 007d F20F106C 		movsd	16(%rsp), %xmm5
 489      2410
 490 0083 488D3500 		leaq	.LC4(%rip), %rsi
 490      000000
 491 008a 4889EF   		movq	%rbp, %rdi
 492 008d 89442408 		movl	%eax, 8(%rsp)
 493              	.LVL33:
 106:fltk-1.3.4-1/png/pngset.c ****       png_fixed(png_ptr, white_x, "cHRM White X"),
 494              		.loc 1 106 4 view .LVU137
 495 0091 660F28C5 		movapd	%xmm5, %xmm0
 496 0095 E8000000 		call	png_fixed@PLT
 496      00
 497              	.LVL34:
 498 009a F20F1064 		movsd	24(%rsp), %xmm4
 498      2418
 499 00a0 488D3500 		leaq	.LC5(%rip), %rsi
 499      000000
 500 00a7 4889EF   		movq	%rbp, %rdi
 501 00aa 89442410 		movl	%eax, 16(%rsp)
 502              	.LVL35:
 106:fltk-1.3.4-1/png/pngset.c ****       png_fixed(png_ptr, white_x, "cHRM White X"),
 503              		.loc 1 106 4 view .LVU138
 504 00ae 660F28C4 		movapd	%xmm4, %xmm0
 505 00b2 E8000000 		call	png_fixed@PLT
 505      00
 506              	.LVL36:
 507 00b7 F20F105C 		movsd	32(%rsp), %xmm3
 507      2420
 508 00bd 488D3500 		leaq	.LC6(%rip), %rsi
 508      000000
 509 00c4 4889EF   		movq	%rbp, %rdi
 510 00c7 4189C5   		movl	%eax, %r13d
 511 00ca 660F28C3 		movapd	%xmm3, %xmm0
 512 00ce E8000000 		call	png_fixed@PLT
 512      00
 513              	.LVL37:
 514 00d3 F20F1054 		movsd	40(%rsp), %xmm2
 514      2428
 515 00d9 488D3500 		leaq	.LC7(%rip), %rsi
 515      000000
 516 00e0 4889EF   		movq	%rbp, %rdi
 517 00e3 4189C6   		movl	%eax, %r14d
 518 00e6 660F28C2 		movapd	%xmm2, %xmm0
 519 00ea E8000000 		call	png_fixed@PLT
 519      00
 520              	.LVL38:
 521 00ef F20F104C 		movsd	48(%rsp), %xmm1
 521      2430
 522 00f5 488D3500 		leaq	.LC8(%rip), %rsi
 522      000000
 523 00fc 4889EF   		movq	%rbp, %rdi
 524 00ff 4189C7   		movl	%eax, %r15d
 525 0102 660F28C1 		movapd	%xmm1, %xmm0
 526 0106 E8000000 		call	png_fixed@PLT
 526      00
 527              	.LVL39:
 528 010b F2440F10 		movsd	56(%rsp), %xmm8
 528      442438
 529 0112 488D3500 		leaq	.LC9(%rip), %rsi
 529      000000
 530 0119 4889EF   		movq	%rbp, %rdi
 531 011c 89442418 		movl	%eax, 24(%rsp)
 532              	.LVL40:
 106:fltk-1.3.4-1/png/pngset.c ****       png_fixed(png_ptr, white_x, "cHRM White X"),
 533              		.loc 1 106 4 view .LVU139
 534 0120 66410F28 		movapd	%xmm8, %xmm0
 534      C0
 535 0125 E8000000 		call	png_fixed@PLT
 535      00
 536              	.LVL41:
 537              	.LBB85:
 538              	.LBI85:
  40:fltk-1.3.4-1/png/pngset.c ****     png_fixed_point white_x, png_fixed_point white_y, png_fixed_point red_x,
 539              		.loc 1 40 1 is_stmt 1 view .LVU140
 540              	.LBB86:
  45:fltk-1.3.4-1/png/pngset.c **** 
 541              		.loc 1 45 4 view .LVU141
  47:fltk-1.3.4-1/png/pngset.c **** 
 542              		.loc 1 47 4 view .LVU142
  49:fltk-1.3.4-1/png/pngset.c ****       return;
 543              		.loc 1 49 4 view .LVU143
  49:fltk-1.3.4-1/png/pngset.c ****       return;
 544              		.loc 1 49 7 is_stmt 0 view .LVU144
 545 012a 4885ED   		testq	%rbp, %rbp
 546 012d 7461     		je	.L42
 547 012f 4D85E4   		testq	%r12, %r12
 548 0132 745C     		je	.L42
 549              	.LVL42:
 550              	.LBB87:
 551              	.LBI87:
  40:fltk-1.3.4-1/png/pngset.c ****     png_fixed_point white_x, png_fixed_point white_y, png_fixed_point red_x,
 552              		.loc 1 40 1 is_stmt 1 view .LVU145
 553              	.LBB88:
  52:fltk-1.3.4-1/png/pngset.c ****    xy.redy = red_y;
 554              		.loc 1 52 4 view .LVU146
  55:fltk-1.3.4-1/png/pngset.c ****    xy.bluex = blue_x;
 555              		.loc 1 55 14 is_stmt 0 view .LVU147
 556 0134 8B4C2410 		movl	16(%rsp), %ecx
  56:fltk-1.3.4-1/png/pngset.c ****    xy.bluey = blue_y;
 557              		.loc 1 56 13 view .LVU148
 558 0138 8B542408 		movl	8(%rsp), %edx
  58:fltk-1.3.4-1/png/pngset.c ****    xy.whitey = white_y;
 559              		.loc 1 58 14 view .LVU149
 560 013c 89442458 		movl	%eax, 88(%rsp)
  61:fltk-1.3.4-1/png/pngset.c ****        2/* override with app values*/) != 0)
 561              		.loc 1 61 8 view .LVU150
 562 0140 4889EF   		movq	%rbp, %rdi
  59:fltk-1.3.4-1/png/pngset.c **** 
 563              		.loc 1 59 14 view .LVU151
 564 0143 8B442418 		movl	24(%rsp), %eax
 565              	.LVL43:
  61:fltk-1.3.4-1/png/pngset.c ****        2/* override with app values*/) != 0)
 566              		.loc 1 61 51 view .LVU152
 567 0147 498D7424 		leaq	52(%r12), %rsi
 567      34
  52:fltk-1.3.4-1/png/pngset.c ****    xy.redy = red_y;
 568              		.loc 1 52 12 view .LVU153
 569 014c 44897C24 		movl	%r15d, 64(%rsp)
 569      40
  53:fltk-1.3.4-1/png/pngset.c ****    xy.greenx = green_x;
 570              		.loc 1 53 4 is_stmt 1 view .LVU154
  55:fltk-1.3.4-1/png/pngset.c ****    xy.bluex = blue_x;
 571              		.loc 1 55 14 is_stmt 0 view .LVU155
 572 0151 894C244C 		movl	%ecx, 76(%rsp)
  61:fltk-1.3.4-1/png/pngset.c ****        2/* override with app values*/) != 0)
 573              		.loc 1 61 8 view .LVU156
 574 0155 B9020000 		movl	$2, %ecx
 574      00
  56:fltk-1.3.4-1/png/pngset.c ****    xy.bluey = blue_y;
 575              		.loc 1 56 13 view .LVU157
 576 015a 89542450 		movl	%edx, 80(%rsp)
  61:fltk-1.3.4-1/png/pngset.c ****        2/* override with app values*/) != 0)
 577              		.loc 1 61 8 view .LVU158
 578 015e 488D5424 		leaq	64(%rsp), %rdx
 578      40
  53:fltk-1.3.4-1/png/pngset.c ****    xy.greenx = green_x;
 579              		.loc 1 53 12 view .LVU159
 580 0163 44897424 		movl	%r14d, 68(%rsp)
 580      44
  54:fltk-1.3.4-1/png/pngset.c ****    xy.greeny = green_y;
 581              		.loc 1 54 4 is_stmt 1 view .LVU160
  54:fltk-1.3.4-1/png/pngset.c ****    xy.greeny = green_y;
 582              		.loc 1 54 14 is_stmt 0 view .LVU161
 583 0168 44896C24 		movl	%r13d, 72(%rsp)
 583      48
  55:fltk-1.3.4-1/png/pngset.c ****    xy.bluex = blue_x;
 584              		.loc 1 55 4 is_stmt 1 view .LVU162
  56:fltk-1.3.4-1/png/pngset.c ****    xy.bluey = blue_y;
 585              		.loc 1 56 4 view .LVU163
  57:fltk-1.3.4-1/png/pngset.c ****    xy.whitex = white_x;
 586              		.loc 1 57 4 view .LVU164
  57:fltk-1.3.4-1/png/pngset.c ****    xy.whitex = white_x;
 587              		.loc 1 57 13 is_stmt 0 view .LVU165
 588 016d 895C2454 		movl	%ebx, 84(%rsp)
  58:fltk-1.3.4-1/png/pngset.c ****    xy.whitey = white_y;
 589              		.loc 1 58 4 is_stmt 1 view .LVU166
  59:fltk-1.3.4-1/png/pngset.c **** 
 590              		.loc 1 59 4 view .LVU167
  59:fltk-1.3.4-1/png/pngset.c **** 
 591              		.loc 1 59 14 is_stmt 0 view .LVU168
 592 0171 8944245C 		movl	%eax, 92(%rsp)
  61:fltk-1.3.4-1/png/pngset.c ****        2/* override with app values*/) != 0)
 593              		.loc 1 61 4 is_stmt 1 view .LVU169
  61:fltk-1.3.4-1/png/pngset.c ****        2/* override with app values*/) != 0)
 594              		.loc 1 61 8 is_stmt 0 view .LVU170
 595 0175 E8000000 		call	png_colorspace_set_chromaticities@PLT
 595      00
 596              	.LVL44:
  61:fltk-1.3.4-1/png/pngset.c ****        2/* override with app values*/) != 0)
 597              		.loc 1 61 7 view .LVU171
 598 017a 85C0     		testl	%eax, %eax
 599 017c 7407     		je	.L44
  63:fltk-1.3.4-1/png/pngset.c **** 
 600              		.loc 1 63 7 is_stmt 1 view .LVU172
  63:fltk-1.3.4-1/png/pngset.c **** 
 601              		.loc 1 63 34 is_stmt 0 view .LVU173
 602 017e 6641834C 		orw	$16, 126(%r12)
 602      247E10
 603              	.L44:
  65:fltk-1.3.4-1/png/pngset.c **** }
 604              		.loc 1 65 4 is_stmt 1 view .LVU174
 605 0185 4C89E6   		movq	%r12, %rsi
 606 0188 4889EF   		movq	%rbp, %rdi
 607 018b E8000000 		call	png_colorspace_sync_info@PLT
 607      00
 608              	.LVL45:
 609              	.L42:
  65:fltk-1.3.4-1/png/pngset.c **** }
 610              		.loc 1 65 4 is_stmt 0 view .LVU175
 611              	.LBE88:
 612              	.LBE87:
 613              	.LBE86:
 614              	.LBE85:
 115:fltk-1.3.4-1/png/pngset.c **** 
 615              		.loc 1 115 1 view .LVU176
 616 0190 488B4424 		movq	104(%rsp), %rax
 616      68
 617 0195 64483304 		xorq	%fs:40, %rax
 617      25280000 
 617      00
 618 019e 750F     		jne	.L50
 619 01a0 4883C478 		addq	$120, %rsp
 620              		.cfi_remember_state
 621              		.cfi_def_cfa_offset 56
 622 01a4 5B       		popq	%rbx
 623              		.cfi_def_cfa_offset 48
 624 01a5 5D       		popq	%rbp
 625              		.cfi_def_cfa_offset 40
 626              	.LVL46:
 115:fltk-1.3.4-1/png/pngset.c **** 
 627              		.loc 1 115 1 view .LVU177
 628 01a6 415C     		popq	%r12
 629              		.cfi_def_cfa_offset 32
 630              	.LVL47:
 115:fltk-1.3.4-1/png/pngset.c **** 
 631              		.loc 1 115 1 view .LVU178
 632 01a8 415D     		popq	%r13
 633              		.cfi_def_cfa_offset 24
 634 01aa 415E     		popq	%r14
 635              		.cfi_def_cfa_offset 16
 636 01ac 415F     		popq	%r15
 637              		.cfi_def_cfa_offset 8
 638 01ae C3       		ret
 639              	.LVL48:
 640              	.L50:
 641              		.cfi_restore_state
 115:fltk-1.3.4-1/png/pngset.c **** 
 642              		.loc 1 115 1 view .LVU179
 643 01af E8000000 		call	__stack_chk_fail@PLT
 643      00
 644              	.LVL49:
 645              		.cfi_endproc
 646              	.LFE44:
 648              		.section	.rodata.png_set_cHRM_XYZ.str1.1,"aMS",@progbits,1
 649              	.LC10:
 650 0000 6348524D 		.string	"cHRM Red Z"
 650      20526564 
 650      205A00
 651              		.section	.text.png_set_cHRM_XYZ,"ax",@progbits
 652              		.p2align 4
 653              		.globl	png_set_cHRM_XYZ
 655              	png_set_cHRM_XYZ:
 656              	.LVL50:
 657              	.LFB45:
 121:fltk-1.3.4-1/png/pngset.c ****    png_set_cHRM_XYZ_fixed(png_ptr, info_ptr,
 658              		.loc 1 121 1 is_stmt 1 view -0
 659              		.cfi_startproc
 121:fltk-1.3.4-1/png/pngset.c ****    png_set_cHRM_XYZ_fixed(png_ptr, info_ptr,
 660              		.loc 1 121 1 is_stmt 0 view .LVU181
 661 0000 F30F1EFA 		endbr64
 662 0004 4157     		pushq	%r15
 663              		.cfi_def_cfa_offset 16
 664              		.cfi_offset 15, -16
 665 0006 4156     		pushq	%r14
 666              		.cfi_def_cfa_offset 24
 667              		.cfi_offset 14, -24
 668 0008 4155     		pushq	%r13
 669              		.cfi_def_cfa_offset 32
 670              		.cfi_offset 13, -32
 671 000a 4154     		pushq	%r12
 672              		.cfi_def_cfa_offset 40
 673              		.cfi_offset 12, -40
 674 000c 4989F4   		movq	%rsi, %r12
 122:fltk-1.3.4-1/png/pngset.c ****       png_fixed(png_ptr, red_X, "cHRM Red X"),
 675              		.loc 1 122 4 view .LVU182
 676 000f 488D3500 		leaq	.LC10(%rip), %rsi
 676      000000
 677              	.LVL51:
 121:fltk-1.3.4-1/png/pngset.c ****    png_set_cHRM_XYZ_fixed(png_ptr, info_ptr,
 678              		.loc 1 121 1 view .LVU183
 679 0016 55       		pushq	%rbp
 680              		.cfi_def_cfa_offset 48
 681              		.cfi_offset 6, -48
 682 0017 4889FD   		movq	%rdi, %rbp
 683 001a 53       		pushq	%rbx
 684              		.cfi_def_cfa_offset 56
 685              		.cfi_offset 3, -56
 686 001b 4881EC88 		subq	$136, %rsp
 686      000000
 687              		.cfi_def_cfa_offset 192
 121:fltk-1.3.4-1/png/pngset.c ****    png_set_cHRM_XYZ_fixed(png_ptr, info_ptr,
 688              		.loc 1 121 1 view .LVU184
 689 0022 F20F1144 		movsd	%xmm0, 64(%rsp)
 689      2440
 122:fltk-1.3.4-1/png/pngset.c ****       png_fixed(png_ptr, red_X, "cHRM Red X"),
 690              		.loc 1 122 4 view .LVU185
 691 0028 F20F1084 		movsd	192(%rsp), %xmm0
 691      24C00000 
 691      00
 692              	.LVL52:
 121:fltk-1.3.4-1/png/pngset.c ****    png_set_cHRM_XYZ_fixed(png_ptr, info_ptr,
 693              		.loc 1 121 1 view .LVU186
 694 0031 F20F114C 		movsd	%xmm1, 56(%rsp)
 694      2438
 695 0037 F20F1154 		movsd	%xmm2, 48(%rsp)
 695      2430
 696 003d F20F115C 		movsd	%xmm3, 40(%rsp)
 696      2428
 697 0043 F20F1164 		movsd	%xmm4, 32(%rsp)
 697      2420
 698 0049 F20F116C 		movsd	%xmm5, 24(%rsp)
 698      2418
 699 004f F20F1174 		movsd	%xmm6, 16(%rsp)
 699      2410
 700 0055 F20F117C 		movsd	%xmm7, 8(%rsp)
 700      2408
 701 005b 64488B04 		movq	%fs:40, %rax
 701      25280000 
 701      00
 702 0064 48894424 		movq	%rax, 120(%rsp)
 702      78
 703 0069 31C0     		xorl	%eax, %eax
 122:fltk-1.3.4-1/png/pngset.c ****       png_fixed(png_ptr, red_X, "cHRM Red X"),
 704              		.loc 1 122 4 is_stmt 1 view .LVU187
 705 006b E8000000 		call	png_fixed@PLT
 705      00
 706              	.LVL53:
 122:fltk-1.3.4-1/png/pngset.c ****       png_fixed(png_ptr, red_X, "cHRM Red X"),
 707              		.loc 1 122 4 is_stmt 0 view .LVU188
 708 0070 F20F107C 		movsd	8(%rsp), %xmm7
 708      2408
 709 0076 488D3500 		leaq	.LC6(%rip), %rsi
 709      000000
 710 007d 4889EF   		movq	%rbp, %rdi
 711 0080 8944244C 		movl	%eax, 76(%rsp)
 712 0084 660F28C7 		movapd	%xmm7, %xmm0
 713 0088 E8000000 		call	png_fixed@PLT
 713      00
 714              	.LVL54:
 715 008d F20F1074 		movsd	16(%rsp), %xmm6
 715      2410
 716 0093 488D3500 		leaq	.LC7(%rip), %rsi
 716      000000
 717 009a 4889EF   		movq	%rbp, %rdi
 718 009d 89442408 		movl	%eax, 8(%rsp)
 719              	.LVL55:
 122:fltk-1.3.4-1/png/pngset.c ****       png_fixed(png_ptr, red_X, "cHRM Red X"),
 720              		.loc 1 122 4 view .LVU189
 721 00a1 660F28C6 		movapd	%xmm6, %xmm0
 722 00a5 E8000000 		call	png_fixed@PLT
 722      00
 723              	.LVL56:
 724 00aa F20F106C 		movsd	24(%rsp), %xmm5
 724      2418
 725 00b0 488D3500 		leaq	.LC10(%rip), %rsi
 725      000000
 726 00b7 4889EF   		movq	%rbp, %rdi
 727 00ba 89442410 		movl	%eax, 16(%rsp)
 728              	.LVL57:
 122:fltk-1.3.4-1/png/pngset.c ****       png_fixed(png_ptr, red_X, "cHRM Red X"),
 729              		.loc 1 122 4 view .LVU190
 730 00be 660F28C5 		movapd	%xmm5, %xmm0
 731 00c2 E8000000 		call	png_fixed@PLT
 731      00
 732              	.LVL58:
 733 00c7 F20F1064 		movsd	32(%rsp), %xmm4
 733      2420
 734 00cd 488D3500 		leaq	.LC6(%rip), %rsi
 734      000000
 735 00d4 4889EF   		movq	%rbp, %rdi
 736 00d7 89C3     		movl	%eax, %ebx
 737 00d9 660F28C4 		movapd	%xmm4, %xmm0
 738 00dd E8000000 		call	png_fixed@PLT
 738      00
 739              	.LVL59:
 740 00e2 F20F105C 		movsd	40(%rsp), %xmm3
 740      2428
 741 00e8 488D3500 		leaq	.LC7(%rip), %rsi
 741      000000
 742 00ef 4889EF   		movq	%rbp, %rdi
 743 00f2 89442418 		movl	%eax, 24(%rsp)
 744              	.LVL60:
 122:fltk-1.3.4-1/png/pngset.c ****       png_fixed(png_ptr, red_X, "cHRM Red X"),
 745              		.loc 1 122 4 view .LVU191
 746 00f6 660F28C3 		movapd	%xmm3, %xmm0
 747 00fa E8000000 		call	png_fixed@PLT
 747      00
 748              	.LVL61:
 749 00ff F20F1054 		movsd	48(%rsp), %xmm2
 749      2430
 750 0105 488D3500 		leaq	.LC10(%rip), %rsi
 750      000000
 751 010c 4889EF   		movq	%rbp, %rdi
 752 010f 4189C5   		movl	%eax, %r13d
 753 0112 660F28C2 		movapd	%xmm2, %xmm0
 754 0116 E8000000 		call	png_fixed@PLT
 754      00
 755              	.LVL62:
 756 011b F20F104C 		movsd	56(%rsp), %xmm1
 756      2438
 757 0121 488D3500 		leaq	.LC6(%rip), %rsi
 757      000000
 758 0128 4889EF   		movq	%rbp, %rdi
 759 012b 4189C6   		movl	%eax, %r14d
 760 012e 660F28C1 		movapd	%xmm1, %xmm0
 761 0132 E8000000 		call	png_fixed@PLT
 761      00
 762              	.LVL63:
 763 0137 F2440F10 		movsd	64(%rsp), %xmm8
 763      442440
 764 013e 488D3500 		leaq	.LC7(%rip), %rsi
 764      000000
 765 0145 4889EF   		movq	%rbp, %rdi
 766 0148 4189C7   		movl	%eax, %r15d
 767 014b 66410F28 		movapd	%xmm8, %xmm0
 767      C0
 768 0150 E8000000 		call	png_fixed@PLT
 768      00
 769              	.LVL64:
 770              	.LBB93:
 771              	.LBI93:
  69:fltk-1.3.4-1/png/pngset.c ****     png_fixed_point int_red_X, png_fixed_point int_red_Y,
 772              		.loc 1 69 1 is_stmt 1 view .LVU192
 773              	.LBB94:
  76:fltk-1.3.4-1/png/pngset.c **** 
 774              		.loc 1 76 4 view .LVU193
  78:fltk-1.3.4-1/png/pngset.c **** 
 775              		.loc 1 78 4 view .LVU194
  80:fltk-1.3.4-1/png/pngset.c ****       return;
 776              		.loc 1 80 4 view .LVU195
  80:fltk-1.3.4-1/png/pngset.c ****       return;
 777              		.loc 1 80 7 is_stmt 0 view .LVU196
 778 0155 4885ED   		testq	%rbp, %rbp
 779 0158 7469     		je	.L51
 780 015a 4D85E4   		testq	%r12, %r12
 781 015d 7464     		je	.L51
 782              	.LVL65:
 783              	.LBB95:
 784              	.LBI95:
  69:fltk-1.3.4-1/png/pngset.c ****     png_fixed_point int_red_X, png_fixed_point int_red_Y,
 785              		.loc 1 69 1 is_stmt 1 view .LVU197
 786              	.LBB96:
  83:fltk-1.3.4-1/png/pngset.c ****    XYZ.red_Y = int_red_Y;
 787              		.loc 1 83 4 view .LVU198
  87:fltk-1.3.4-1/png/pngset.c ****    XYZ.green_Z = int_green_Z;
 788              		.loc 1 87 16 is_stmt 0 view .LVU199
 789 015f 8B4C2418 		movl	24(%rsp), %ecx
  89:fltk-1.3.4-1/png/pngset.c ****    XYZ.blue_Y = int_blue_Y;
 790              		.loc 1 89 15 view .LVU200
 791 0163 8B542410 		movl	16(%rsp), %edx
  83:fltk-1.3.4-1/png/pngset.c ****    XYZ.red_Y = int_red_Y;
 792              		.loc 1 83 14 view .LVU201
 793 0167 89442450 		movl	%eax, 80(%rsp)
  84:fltk-1.3.4-1/png/pngset.c ****    XYZ.red_Z = int_red_Z;
 794              		.loc 1 84 4 is_stmt 1 view .LVU202
  93:fltk-1.3.4-1/png/pngset.c ****        &XYZ, 2) != 0)
 795              		.loc 1 93 8 is_stmt 0 view .LVU203
 796 016b 4889EF   		movq	%rbp, %rdi
  91:fltk-1.3.4-1/png/pngset.c **** 
 797              		.loc 1 91 15 view .LVU204
 798 016e 8B44244C 		movl	76(%rsp), %eax
 799              	.LVL66:
  93:fltk-1.3.4-1/png/pngset.c ****        &XYZ, 2) != 0)
 800              		.loc 1 93 46 view .LVU205
 801 0172 498D7424 		leaq	52(%r12), %rsi
 801      34
  84:fltk-1.3.4-1/png/pngset.c ****    XYZ.red_Z = int_red_Z;
 802              		.loc 1 84 14 view .LVU206
 803 0177 44897C24 		movl	%r15d, 84(%rsp)
 803      54
  85:fltk-1.3.4-1/png/pngset.c ****    XYZ.green_X = int_green_X;
 804              		.loc 1 85 4 is_stmt 1 view .LVU207
  87:fltk-1.3.4-1/png/pngset.c ****    XYZ.green_Z = int_green_Z;
 805              		.loc 1 87 16 is_stmt 0 view .LVU208
 806 017c 894C2460 		movl	%ecx, 96(%rsp)
  90:fltk-1.3.4-1/png/pngset.c ****    XYZ.blue_Z = int_blue_Z;
 807              		.loc 1 90 15 view .LVU209
 808 0180 8B4C2408 		movl	8(%rsp), %ecx
  89:fltk-1.3.4-1/png/pngset.c ****    XYZ.blue_Y = int_blue_Y;
 809              		.loc 1 89 15 view .LVU210
 810 0184 89542468 		movl	%edx, 104(%rsp)
  93:fltk-1.3.4-1/png/pngset.c ****        &XYZ, 2) != 0)
 811              		.loc 1 93 8 view .LVU211
 812 0188 488D5424 		leaq	80(%rsp), %rdx
 812      50
 813              	.LVL67:
  90:fltk-1.3.4-1/png/pngset.c ****    XYZ.blue_Z = int_blue_Z;
 814              		.loc 1 90 15 view .LVU212
 815 018d 894C246C 		movl	%ecx, 108(%rsp)
  93:fltk-1.3.4-1/png/pngset.c ****        &XYZ, 2) != 0)
 816              		.loc 1 93 8 view .LVU213
 817 0191 B9020000 		movl	$2, %ecx
 817      00
  85:fltk-1.3.4-1/png/pngset.c ****    XYZ.green_X = int_green_X;
 818              		.loc 1 85 14 view .LVU214
 819 0196 44897424 		movl	%r14d, 88(%rsp)
 819      58
  86:fltk-1.3.4-1/png/pngset.c ****    XYZ.green_Y = int_green_Y;
 820              		.loc 1 86 4 is_stmt 1 view .LVU215
  86:fltk-1.3.4-1/png/pngset.c ****    XYZ.green_Y = int_green_Y;
 821              		.loc 1 86 16 is_stmt 0 view .LVU216
 822 019b 44896C24 		movl	%r13d, 92(%rsp)
 822      5C
  87:fltk-1.3.4-1/png/pngset.c ****    XYZ.green_Z = int_green_Z;
 823              		.loc 1 87 4 is_stmt 1 view .LVU217
  88:fltk-1.3.4-1/png/pngset.c ****    XYZ.blue_X = int_blue_X;
 824              		.loc 1 88 4 view .LVU218
  88:fltk-1.3.4-1/png/pngset.c ****    XYZ.blue_X = int_blue_X;
 825              		.loc 1 88 16 is_stmt 0 view .LVU219
 826 01a0 895C2464 		movl	%ebx, 100(%rsp)
  89:fltk-1.3.4-1/png/pngset.c ****    XYZ.blue_Y = int_blue_Y;
 827              		.loc 1 89 4 is_stmt 1 view .LVU220
  90:fltk-1.3.4-1/png/pngset.c ****    XYZ.blue_Z = int_blue_Z;
 828              		.loc 1 90 4 view .LVU221
  91:fltk-1.3.4-1/png/pngset.c **** 
 829              		.loc 1 91 4 view .LVU222
  91:fltk-1.3.4-1/png/pngset.c **** 
 830              		.loc 1 91 15 is_stmt 0 view .LVU223
 831 01a4 89442470 		movl	%eax, 112(%rsp)
  93:fltk-1.3.4-1/png/pngset.c ****        &XYZ, 2) != 0)
 832              		.loc 1 93 4 is_stmt 1 view .LVU224
  93:fltk-1.3.4-1/png/pngset.c ****        &XYZ, 2) != 0)
 833              		.loc 1 93 8 is_stmt 0 view .LVU225
 834 01a8 E8000000 		call	png_colorspace_set_endpoints@PLT
 834      00
 835              	.LVL68:
  93:fltk-1.3.4-1/png/pngset.c ****        &XYZ, 2) != 0)
 836              		.loc 1 93 7 view .LVU226
 837 01ad 85C0     		testl	%eax, %eax
 838 01af 7407     		je	.L53
  95:fltk-1.3.4-1/png/pngset.c **** 
 839              		.loc 1 95 7 is_stmt 1 view .LVU227
  95:fltk-1.3.4-1/png/pngset.c **** 
 840              		.loc 1 95 34 is_stmt 0 view .LVU228
 841 01b1 6641834C 		orw	$16, 126(%r12)
 841      247E10
 842              	.L53:
  97:fltk-1.3.4-1/png/pngset.c **** }
 843              		.loc 1 97 4 is_stmt 1 view .LVU229
 844 01b8 4C89E6   		movq	%r12, %rsi
 845 01bb 4889EF   		movq	%rbp, %rdi
 846 01be E8000000 		call	png_colorspace_sync_info@PLT
 846      00
 847              	.LVL69:
 848              	.L51:
  97:fltk-1.3.4-1/png/pngset.c **** }
 849              		.loc 1 97 4 is_stmt 0 view .LVU230
 850              	.LBE96:
 851              	.LBE95:
 852              	.LBE94:
 853              	.LBE93:
 132:fltk-1.3.4-1/png/pngset.c **** #  endif /* FLOATING_POINT */
 854              		.loc 1 132 1 view .LVU231
 855 01c3 488B4424 		movq	120(%rsp), %rax
 855      78
 856 01c8 64483304 		xorq	%fs:40, %rax
 856      25280000 
 856      00
 857 01d1 7512     		jne	.L59
 858 01d3 4881C488 		addq	$136, %rsp
 858      000000
 859              		.cfi_remember_state
 860              		.cfi_def_cfa_offset 56
 861 01da 5B       		popq	%rbx
 862              		.cfi_def_cfa_offset 48
 863 01db 5D       		popq	%rbp
 864              		.cfi_def_cfa_offset 40
 865              	.LVL70:
 132:fltk-1.3.4-1/png/pngset.c **** #  endif /* FLOATING_POINT */
 866              		.loc 1 132 1 view .LVU232
 867 01dc 415C     		popq	%r12
 868              		.cfi_def_cfa_offset 32
 869              	.LVL71:
 132:fltk-1.3.4-1/png/pngset.c **** #  endif /* FLOATING_POINT */
 870              		.loc 1 132 1 view .LVU233
 871 01de 415D     		popq	%r13
 872              		.cfi_def_cfa_offset 24
 873 01e0 415E     		popq	%r14
 874              		.cfi_def_cfa_offset 16
 875 01e2 415F     		popq	%r15
 876              		.cfi_def_cfa_offset 8
 877 01e4 C3       		ret
 878              	.LVL72:
 879              	.L59:
 880              		.cfi_restore_state
 132:fltk-1.3.4-1/png/pngset.c **** #  endif /* FLOATING_POINT */
 881              		.loc 1 132 1 view .LVU234
 882 01e5 E8000000 		call	__stack_chk_fail@PLT
 882      00
 883              	.LVL73:
 884              		.cfi_endproc
 885              	.LFE45:
 887              		.section	.text.png_set_gAMA_fixed,"ax",@progbits
 888              		.p2align 4
 889              		.globl	png_set_gAMA_fixed
 891              	png_set_gAMA_fixed:
 892              	.LVL74:
 893              	.LFB46:
 141:fltk-1.3.4-1/png/pngset.c ****    png_debug1(1, "in %s storage function", "gAMA");
 894              		.loc 1 141 1 is_stmt 1 view -0
 895              		.cfi_startproc
 141:fltk-1.3.4-1/png/pngset.c ****    png_debug1(1, "in %s storage function", "gAMA");
 896              		.loc 1 141 1 is_stmt 0 view .LVU236
 897 0000 F30F1EFA 		endbr64
 142:fltk-1.3.4-1/png/pngset.c **** 
 898              		.loc 1 142 4 is_stmt 1 view .LVU237
 144:fltk-1.3.4-1/png/pngset.c ****       return;
 899              		.loc 1 144 4 view .LVU238
 144:fltk-1.3.4-1/png/pngset.c ****       return;
 900              		.loc 1 144 7 is_stmt 0 view .LVU239
 901 0004 4885FF   		testq	%rdi, %rdi
 902 0007 7447     		je	.L63
 141:fltk-1.3.4-1/png/pngset.c ****    png_debug1(1, "in %s storage function", "gAMA");
 903              		.loc 1 141 1 view .LVU240
 904 0009 4154     		pushq	%r12
 905              		.cfi_def_cfa_offset 16
 906              		.cfi_offset 12, -16
 907 000b 4989F4   		movq	%rsi, %r12
 908 000e 55       		pushq	%rbp
 909              		.cfi_def_cfa_offset 24
 910              		.cfi_offset 6, -24
 911 000f 4883EC08 		subq	$8, %rsp
 912              		.cfi_def_cfa_offset 32
 144:fltk-1.3.4-1/png/pngset.c ****       return;
 913              		.loc 1 144 7 view .LVU241
 914 0013 4885F6   		testq	%rsi, %rsi
 915 0016 7428     		je	.L60
 916              	.LBB99:
 917              	.LBB100:
 147:fltk-1.3.4-1/png/pngset.c ****    png_colorspace_sync_info(png_ptr, info_ptr);
 918              		.loc 1 147 38 view .LVU242
 919 0018 488D7634 		leaq	52(%rsi), %rsi
 920              	.LVL75:
 147:fltk-1.3.4-1/png/pngset.c ****    png_colorspace_sync_info(png_ptr, info_ptr);
 921              		.loc 1 147 38 view .LVU243
 922 001c 4889FD   		movq	%rdi, %rbp
 923              	.LVL76:
 147:fltk-1.3.4-1/png/pngset.c ****    png_colorspace_sync_info(png_ptr, info_ptr);
 924              		.loc 1 147 38 view .LVU244
 925              	.LBE100:
 926              	.LBI99:
 139:fltk-1.3.4-1/png/pngset.c ****     png_fixed_point file_gamma)
 927              		.loc 1 139 1 is_stmt 1 view .LVU245
 928              	.LBB101:
 147:fltk-1.3.4-1/png/pngset.c ****    png_colorspace_sync_info(png_ptr, info_ptr);
 929              		.loc 1 147 4 view .LVU246
 930 001f E8000000 		call	png_colorspace_set_gamma@PLT
 930      00
 931              	.LVL77:
 148:fltk-1.3.4-1/png/pngset.c **** }
 932              		.loc 1 148 4 view .LVU247
 933              	.LBE101:
 934              	.LBE99:
 149:fltk-1.3.4-1/png/pngset.c **** 
 935              		.loc 1 149 1 is_stmt 0 view .LVU248
 936 0024 4883C408 		addq	$8, %rsp
 937              		.cfi_remember_state
 938              		.cfi_def_cfa_offset 24
 939              	.LBB104:
 940              	.LBB102:
 148:fltk-1.3.4-1/png/pngset.c **** }
 941              		.loc 1 148 4 view .LVU249
 942 0028 4C89E6   		movq	%r12, %rsi
 943 002b 4889EF   		movq	%rbp, %rdi
 944              	.LBE102:
 945              	.LBE104:
 149:fltk-1.3.4-1/png/pngset.c **** 
 946              		.loc 1 149 1 view .LVU250
 947 002e 5D       		popq	%rbp
 948              		.cfi_restore 6
 949              		.cfi_def_cfa_offset 16
 950              	.LVL78:
 149:fltk-1.3.4-1/png/pngset.c **** 
 951              		.loc 1 149 1 view .LVU251
 952 002f 415C     		popq	%r12
 953              		.cfi_restore 12
 954              		.cfi_def_cfa_offset 8
 955              	.LVL79:
 956              	.LBB105:
 957              	.LBB103:
 148:fltk-1.3.4-1/png/pngset.c **** }
 958              		.loc 1 148 4 view .LVU252
 959 0031 E9000000 		jmp	png_colorspace_sync_info@PLT
 959      00
 960              	.LVL80:
 961 0036 662E0F1F 		.p2align 4,,10
 961      84000000 
 961      0000
 962              		.p2align 3
 963              	.L60:
 964              		.cfi_restore_state
 148:fltk-1.3.4-1/png/pngset.c **** }
 965              		.loc 1 148 4 view .LVU253
 966              	.LBE103:
 967              	.LBE105:
 149:fltk-1.3.4-1/png/pngset.c **** 
 968              		.loc 1 149 1 view .LVU254
 969 0040 4883C408 		addq	$8, %rsp
 970              		.cfi_def_cfa_offset 24
 971 0044 5D       		popq	%rbp
 972              		.cfi_def_cfa_offset 16
 973 0045 415C     		popq	%r12
 974              		.cfi_def_cfa_offset 8
 975 0047 C3       		ret
 976 0048 0F1F8400 		.p2align 4,,10
 976      00000000 
 977              		.p2align 3
 978              	.L63:
 979              		.cfi_restore 6
 980              		.cfi_restore 12
 981 0050 C3       		ret
 982              		.cfi_endproc
 983              	.LFE46:
 985              		.section	.rodata.png_set_gAMA.str1.1,"aMS",@progbits,1
 986              	.LC11:
 987 0000 706E675F 		.string	"png_set_gAMA"
 987      7365745F 
 987      67414D41 
 987      00
 988              		.section	.text.png_set_gAMA,"ax",@progbits
 989              		.p2align 4
 990              		.globl	png_set_gAMA
 992              	png_set_gAMA:
 993              	.LVL81:
 994              	.LFB47:
 154:fltk-1.3.4-1/png/pngset.c ****    png_set_gAMA_fixed(png_ptr, info_ptr, png_fixed(png_ptr, file_gamma,
 995              		.loc 1 154 1 is_stmt 1 view -0
 996              		.cfi_startproc
 154:fltk-1.3.4-1/png/pngset.c ****    png_set_gAMA_fixed(png_ptr, info_ptr, png_fixed(png_ptr, file_gamma,
 997              		.loc 1 154 1 is_stmt 0 view .LVU256
 998 0000 F30F1EFA 		endbr64
 155:fltk-1.3.4-1/png/pngset.c ****        "png_set_gAMA"));
 999              		.loc 1 155 4 is_stmt 1 view .LVU257
 154:fltk-1.3.4-1/png/pngset.c ****    png_set_gAMA_fixed(png_ptr, info_ptr, png_fixed(png_ptr, file_gamma,
 1000              		.loc 1 154 1 is_stmt 0 view .LVU258
 1001 0004 4154     		pushq	%r12
 1002              		.cfi_def_cfa_offset 16
 1003              		.cfi_offset 12, -16
 1004 0006 4989F4   		movq	%rsi, %r12
 155:fltk-1.3.4-1/png/pngset.c ****        "png_set_gAMA"));
 1005              		.loc 1 155 4 view .LVU259
 1006 0009 488D3500 		leaq	.LC11(%rip), %rsi
 1006      000000
 1007              	.LVL82:
 154:fltk-1.3.4-1/png/pngset.c ****    png_set_gAMA_fixed(png_ptr, info_ptr, png_fixed(png_ptr, file_gamma,
 1008              		.loc 1 154 1 view .LVU260
 1009 0010 55       		pushq	%rbp
 1010              		.cfi_def_cfa_offset 24
 1011              		.cfi_offset 6, -24
 1012 0011 4889FD   		movq	%rdi, %rbp
 1013 0014 4883EC08 		subq	$8, %rsp
 1014              		.cfi_def_cfa_offset 32
 155:fltk-1.3.4-1/png/pngset.c ****        "png_set_gAMA"));
 1015              		.loc 1 155 4 view .LVU261
 1016 0018 E8000000 		call	png_fixed@PLT
 1016      00
 1017              	.LVL83:
 1018              	.LBB110:
 1019              	.LBI110:
 139:fltk-1.3.4-1/png/pngset.c ****     png_fixed_point file_gamma)
 1020              		.loc 1 139 1 is_stmt 1 view .LVU262
 1021              	.LBB111:
 142:fltk-1.3.4-1/png/pngset.c **** 
 1022              		.loc 1 142 4 view .LVU263
 144:fltk-1.3.4-1/png/pngset.c ****       return;
 1023              		.loc 1 144 4 view .LVU264
 144:fltk-1.3.4-1/png/pngset.c ****       return;
 1024              		.loc 1 144 7 is_stmt 0 view .LVU265
 1025 001d 4885ED   		testq	%rbp, %rbp
 1026 0020 742E     		je	.L66
 1027 0022 4D85E4   		testq	%r12, %r12
 1028 0025 7429     		je	.L66
 1029              	.LBB112:
 1030              	.LBB113:
 147:fltk-1.3.4-1/png/pngset.c ****    png_colorspace_sync_info(png_ptr, info_ptr);
 1031              		.loc 1 147 38 view .LVU266
 1032 0027 498D7424 		leaq	52(%r12), %rsi
 1032      34
 147:fltk-1.3.4-1/png/pngset.c ****    png_colorspace_sync_info(png_ptr, info_ptr);
 1033              		.loc 1 147 4 view .LVU267
 1034 002c 4889EF   		movq	%rbp, %rdi
 1035 002f 89C2     		movl	%eax, %edx
 1036              	.LVL84:
 147:fltk-1.3.4-1/png/pngset.c ****    png_colorspace_sync_info(png_ptr, info_ptr);
 1037              		.loc 1 147 4 view .LVU268
 1038              	.LBE113:
 1039              	.LBI112:
 139:fltk-1.3.4-1/png/pngset.c ****     png_fixed_point file_gamma)
 1040              		.loc 1 139 1 is_stmt 1 view .LVU269
 1041              	.LBB114:
 147:fltk-1.3.4-1/png/pngset.c ****    png_colorspace_sync_info(png_ptr, info_ptr);
 1042              		.loc 1 147 4 view .LVU270
 1043 0031 E8000000 		call	png_colorspace_set_gamma@PLT
 1043      00
 1044              	.LVL85:
 148:fltk-1.3.4-1/png/pngset.c **** }
 1045              		.loc 1 148 4 view .LVU271
 1046              	.LBE114:
 1047              	.LBE112:
 1048              	.LBE111:
 1049              	.LBE110:
 157:fltk-1.3.4-1/png/pngset.c **** #  endif
 1050              		.loc 1 157 1 is_stmt 0 view .LVU272
 1051 0036 4883C408 		addq	$8, %rsp
 1052              		.cfi_remember_state
 1053              		.cfi_def_cfa_offset 24
 1054              	.LBB121:
 1055              	.LBB119:
 1056              	.LBB117:
 1057              	.LBB115:
 148:fltk-1.3.4-1/png/pngset.c **** }
 1058              		.loc 1 148 4 view .LVU273
 1059 003a 4C89E6   		movq	%r12, %rsi
 1060 003d 4889EF   		movq	%rbp, %rdi
 1061              	.LBE115:
 1062              	.LBE117:
 1063              	.LBE119:
 1064              	.LBE121:
 157:fltk-1.3.4-1/png/pngset.c **** #  endif
 1065              		.loc 1 157 1 view .LVU274
 1066 0040 5D       		popq	%rbp
 1067              		.cfi_def_cfa_offset 16
 1068              	.LVL86:
 157:fltk-1.3.4-1/png/pngset.c **** #  endif
 1069              		.loc 1 157 1 view .LVU275
 1070 0041 415C     		popq	%r12
 1071              		.cfi_def_cfa_offset 8
 1072              	.LVL87:
 1073              	.LBB122:
 1074              	.LBB120:
 1075              	.LBB118:
 1076              	.LBB116:
 148:fltk-1.3.4-1/png/pngset.c **** }
 1077              		.loc 1 148 4 view .LVU276
 1078 0043 E9000000 		jmp	png_colorspace_sync_info@PLT
 1078      00
 1079              	.LVL88:
 1080 0048 0F1F8400 		.p2align 4,,10
 1080      00000000 
 1081              		.p2align 3
 1082              	.L66:
 1083              		.cfi_restore_state
 148:fltk-1.3.4-1/png/pngset.c **** }
 1084              		.loc 1 148 4 view .LVU277
 1085              	.LBE116:
 1086              	.LBE118:
 1087              	.LBE120:
 1088              	.LBE122:
 157:fltk-1.3.4-1/png/pngset.c **** #  endif
 1089              		.loc 1 157 1 view .LVU278
 1090 0050 4883C408 		addq	$8, %rsp
 1091              		.cfi_def_cfa_offset 24
 1092 0054 5D       		popq	%rbp
 1093              		.cfi_def_cfa_offset 16
 1094              	.LVL89:
 157:fltk-1.3.4-1/png/pngset.c **** #  endif
 1095              		.loc 1 157 1 view .LVU279
 1096 0055 415C     		popq	%r12
 1097              		.cfi_def_cfa_offset 8
 1098              	.LVL90:
 157:fltk-1.3.4-1/png/pngset.c **** #  endif
 1099              		.loc 1 157 1 view .LVU280
 1100 0057 C3       		ret
 1101              		.cfi_endproc
 1102              	.LFE47:
 1104              		.section	.rodata.png_set_hIST.str1.8,"aMS",@progbits,1
 1105              		.align 8
 1106              	.LC12:
 1107 0000 496E7661 		.string	"Invalid palette size, hIST allocation skipped"
 1107      6C696420 
 1107      70616C65 
 1107      74746520 
 1107      73697A65 
 1108 002e 0000     		.align 8
 1109              	.LC13:
 1110 0030 496E7375 		.string	"Insufficient memory for hIST chunk data"
 1110      66666963 
 1110      69656E74 
 1110      206D656D 
 1110      6F727920 
 1111              		.section	.text.png_set_hIST,"ax",@progbits
 1112              		.p2align 4
 1113              		.globl	png_set_hIST
 1115              	png_set_hIST:
 1116              	.LVL91:
 1117              	.LFB48:
 165:fltk-1.3.4-1/png/pngset.c ****    int i;
 1118              		.loc 1 165 1 is_stmt 1 view -0
 1119              		.cfi_startproc
 165:fltk-1.3.4-1/png/pngset.c ****    int i;
 1120              		.loc 1 165 1 is_stmt 0 view .LVU282
 1121 0000 F30F1EFA 		endbr64
 166:fltk-1.3.4-1/png/pngset.c **** 
 1122              		.loc 1 166 4 is_stmt 1 view .LVU283
 168:fltk-1.3.4-1/png/pngset.c **** 
 1123              		.loc 1 168 4 view .LVU284
 170:fltk-1.3.4-1/png/pngset.c ****       return;
 1124              		.loc 1 170 4 view .LVU285
 170:fltk-1.3.4-1/png/pngset.c ****       return;
 1125              		.loc 1 170 7 is_stmt 0 view .LVU286
 1126 0004 4885FF   		testq	%rdi, %rdi
 1127 0007 0F84A300 		je	.L76
 1127      0000
 165:fltk-1.3.4-1/png/pngset.c ****    int i;
 1128              		.loc 1 165 1 view .LVU287
 1129 000d 4154     		pushq	%r12
 1130              		.cfi_def_cfa_offset 16
 1131              		.cfi_offset 12, -16
 1132 000f 55       		pushq	%rbp
 1133              		.cfi_def_cfa_offset 24
 1134              		.cfi_offset 6, -24
 1135 0010 53       		pushq	%rbx
 1136              		.cfi_def_cfa_offset 32
 1137              		.cfi_offset 3, -32
 1138 0011 4889F3   		movq	%rsi, %rbx
 170:fltk-1.3.4-1/png/pngset.c ****       return;
 1139              		.loc 1 170 7 view .LVU288
 1140 0014 4885F6   		testq	%rsi, %rsi
 1141 0017 7477     		je	.L69
 173:fltk-1.3.4-1/png/pngset.c ****        > PNG_MAX_PALETTE_LENGTH)
 1142              		.loc 1 173 35 view .LVU289
 1143 0019 0FB74620 		movzwl	32(%rsi), %eax
 1144 001d 4989FC   		movq	%rdi, %r12
 173:fltk-1.3.4-1/png/pngset.c ****        > PNG_MAX_PALETTE_LENGTH)
 1145              		.loc 1 173 4 is_stmt 1 view .LVU290
 176:fltk-1.3.4-1/png/pngset.c ****           "Invalid palette size, hIST allocation skipped");
 1146              		.loc 1 176 7 is_stmt 0 view .LVU291
 1147 0020 488D3500 		leaq	.LC12(%rip), %rsi
 1147      000000
 1148              	.LVL92:
 173:fltk-1.3.4-1/png/pngset.c ****        > PNG_MAX_PALETTE_LENGTH)
 1149              		.loc 1 173 35 view .LVU292
 1150 0027 83E801   		subl	$1, %eax
 173:fltk-1.3.4-1/png/pngset.c ****        > PNG_MAX_PALETTE_LENGTH)
 1151              		.loc 1 173 7 view .LVU293
 1152 002a 663DFF00 		cmpw	$255, %ax
 1153 002e 776C     		ja	.L79
 182:fltk-1.3.4-1/png/pngset.c **** 
 1154              		.loc 1 182 4 view .LVU294
 1155 0030 31C9     		xorl	%ecx, %ecx
 1156 0032 4889DE   		movq	%rbx, %rsi
 1157 0035 4889D5   		movq	%rdx, %rbp
 182:fltk-1.3.4-1/png/pngset.c **** 
 1158              		.loc 1 182 4 is_stmt 1 view .LVU295
 1159 0038 BA080000 		movl	$8, %edx
 1159      00
 1160              	.LVL93:
 182:fltk-1.3.4-1/png/pngset.c **** 
 1161              		.loc 1 182 4 is_stmt 0 view .LVU296
 1162 003d E8000000 		call	png_free_data@PLT
 1162      00
 1163              	.LVL94:
 187:fltk-1.3.4-1/png/pngset.c ****        PNG_MAX_PALETTE_LENGTH * (sizeof (png_uint_16))));
 1164              		.loc 1 187 4 is_stmt 1 view .LVU297
 187:fltk-1.3.4-1/png/pngset.c ****        PNG_MAX_PALETTE_LENGTH * (sizeof (png_uint_16))));
 1165              		.loc 1 187 21 is_stmt 0 view .LVU298
 1166 0042 BE000200 		movl	$512, %esi
 1166      00
 1167 0047 4C89E7   		movq	%r12, %rdi
 1168 004a E8000000 		call	png_malloc_warn@PLT
 1168      00
 1169              	.LVL95:
 187:fltk-1.3.4-1/png/pngset.c ****        PNG_MAX_PALETTE_LENGTH * (sizeof (png_uint_16))));
 1170              		.loc 1 187 19 view .LVU299
 1171 004f 488983F0 		movq	%rax, 240(%rbx)
 1171      000000
 190:fltk-1.3.4-1/png/pngset.c ****    {
 1172              		.loc 1 190 4 is_stmt 1 view .LVU300
 190:fltk-1.3.4-1/png/pngset.c ****    {
 1173              		.loc 1 190 7 is_stmt 0 view .LVU301
 1174 0056 4885C0   		testq	%rax, %rax
 1175 0059 743A     		je	.L80
 196:fltk-1.3.4-1/png/pngset.c **** 
 1176              		.loc 1 196 4 is_stmt 1 view .LVU302
 196:fltk-1.3.4-1/png/pngset.c **** 
 1177              		.loc 1 196 22 is_stmt 0 view .LVU303
 1178 005b 838B1C01 		orl	$8, 284(%rbx)
 1178      000008
 198:fltk-1.3.4-1/png/pngset.c ****       info_ptr->hist[i] = hist[i];
 1179              		.loc 1 198 4 is_stmt 1 view .LVU304
 1180              	.LVL96:
 198:fltk-1.3.4-1/png/pngset.c ****       info_ptr->hist[i] = hist[i];
 1181              		.loc 1 198 16 view .LVU305
 198:fltk-1.3.4-1/png/pngset.c ****       info_ptr->hist[i] = hist[i];
 1182              		.loc 1 198 4 is_stmt 0 view .LVU306
 1183 0062 66837B20 		cmpw	$0, 32(%rbx)
 1183      00
 1184 0067 7423     		je	.L73
 1185 0069 31D2     		xorl	%edx, %edx
 1186 006b EB0A     		jmp	.L74
 1187              	.LVL97:
 1188 006d 0F1F00   		.p2align 4,,10
 1189              		.p2align 3
 1190              	.L81:
 198:fltk-1.3.4-1/png/pngset.c ****       info_ptr->hist[i] = hist[i];
 1191              		.loc 1 198 4 view .LVU307
 1192 0070 488B83F0 		movq	240(%rbx), %rax
 1192      000000
 1193              	.L74:
 1194              	.LVL98:
 199:fltk-1.3.4-1/png/pngset.c **** 
 1195              		.loc 1 199 7 is_stmt 1 discriminator 3 view .LVU308
 199:fltk-1.3.4-1/png/pngset.c **** 
 1196              		.loc 1 199 31 is_stmt 0 discriminator 3 view .LVU309
 1197 0077 0FB74C55 		movzwl	0(%rbp,%rdx,2), %ecx
 1197      00
 199:fltk-1.3.4-1/png/pngset.c **** 
 1198              		.loc 1 199 25 discriminator 3 view .LVU310
 1199 007c 66890C50 		movw	%cx, (%rax,%rdx,2)
 198:fltk-1.3.4-1/png/pngset.c ****       info_ptr->hist[i] = hist[i];
 1200              		.loc 1 198 43 is_stmt 1 discriminator 3 view .LVU311
 1201              	.LVL99:
 198:fltk-1.3.4-1/png/pngset.c ****       info_ptr->hist[i] = hist[i];
 1202              		.loc 1 198 16 discriminator 3 view .LVU312
 198:fltk-1.3.4-1/png/pngset.c ****       info_ptr->hist[i] = hist[i];
 1203              		.loc 1 198 28 is_stmt 0 discriminator 3 view .LVU313
 1204 0080 0FB74320 		movzwl	32(%rbx), %eax
 1205 0084 4883C201 		addq	$1, %rdx
 1206              	.LVL100:
 198:fltk-1.3.4-1/png/pngset.c ****       info_ptr->hist[i] = hist[i];
 1207              		.loc 1 198 4 discriminator 3 view .LVU314
 1208 0088 39D0     		cmpl	%edx, %eax
 1209 008a 7FE4     		jg	.L81
 1210              	.L73:
 201:fltk-1.3.4-1/png/pngset.c **** }
 1211              		.loc 1 201 4 is_stmt 1 view .LVU315
 201:fltk-1.3.4-1/png/pngset.c **** }
 1212              		.loc 1 201 20 is_stmt 0 view .LVU316
 1213 008c 834B0840 		orl	$64, 8(%rbx)
 1214              	.LVL101:
 1215              	.L69:
 202:fltk-1.3.4-1/png/pngset.c **** #endif
 1216              		.loc 1 202 1 view .LVU317
 1217 0090 5B       		popq	%rbx
 1218              		.cfi_remember_state
 1219              		.cfi_def_cfa_offset 24
 1220              	.LVL102:
 202:fltk-1.3.4-1/png/pngset.c **** #endif
 1221              		.loc 1 202 1 view .LVU318
 1222 0091 5D       		popq	%rbp
 1223              		.cfi_def_cfa_offset 16
 1224 0092 415C     		popq	%r12
 1225              		.cfi_def_cfa_offset 8
 1226 0094 C3       		ret
 1227              	.LVL103:
 1228              	.L80:
 1229              		.cfi_restore_state
 192:fltk-1.3.4-1/png/pngset.c ****       return;
 1230              		.loc 1 192 7 is_stmt 1 view .LVU319
 1231 0095 488D3500 		leaq	.LC13(%rip), %rsi
 1231      000000
 1232              	.LVL104:
 1233              	.L79:
 202:fltk-1.3.4-1/png/pngset.c **** #endif
 1234              		.loc 1 202 1 is_stmt 0 view .LVU320
 1235 009c 5B       		popq	%rbx
 1236              		.cfi_restore 3
 1237              		.cfi_def_cfa_offset 24
 1238              	.LVL105:
 192:fltk-1.3.4-1/png/pngset.c ****       return;
 1239              		.loc 1 192 7 view .LVU321
 1240 009d 4C89E7   		movq	%r12, %rdi
 202:fltk-1.3.4-1/png/pngset.c **** #endif
 1241              		.loc 1 202 1 view .LVU322
 1242 00a0 5D       		popq	%rbp
 1243              		.cfi_restore 6
 1244              		.cfi_def_cfa_offset 16
 1245 00a1 415C     		popq	%r12
 1246              		.cfi_restore 12
 1247              		.cfi_def_cfa_offset 8
 1248              	.LVL106:
 192:fltk-1.3.4-1/png/pngset.c ****       return;
 1249              		.loc 1 192 7 view .LVU323
 1250 00a3 E9000000 		jmp	png_warning@PLT
 1250      00
 1251              	.LVL107:
 1252 00a8 0F1F8400 		.p2align 4,,10
 1252      00000000 
 1253              		.p2align 3
 1254              	.L76:
 192:fltk-1.3.4-1/png/pngset.c ****       return;
 1255              		.loc 1 192 7 view .LVU324
 1256 00b0 C3       		ret
 1257              		.cfi_endproc
 1258              	.LFE48:
 1260              		.section	.text.png_set_IHDR,"ax",@progbits
 1261              		.p2align 4
 1262              		.globl	png_set_IHDR
 1264              	png_set_IHDR:
 1265              	.LVL108:
 1266              	.LFB49:
 210:fltk-1.3.4-1/png/pngset.c ****    png_debug1(1, "in %s storage function", "IHDR");
 1267              		.loc 1 210 1 is_stmt 1 view -0
 1268              		.cfi_startproc
 210:fltk-1.3.4-1/png/pngset.c ****    png_debug1(1, "in %s storage function", "IHDR");
 1269              		.loc 1 210 1 is_stmt 0 view .LVU326
 1270 0000 F30F1EFA 		endbr64
 211:fltk-1.3.4-1/png/pngset.c **** 
 1271              		.loc 1 211 4 is_stmt 1 view .LVU327
 213:fltk-1.3.4-1/png/pngset.c ****       return;
 1272              		.loc 1 213 4 view .LVU328
 213:fltk-1.3.4-1/png/pngset.c ****       return;
 1273              		.loc 1 213 7 is_stmt 0 view .LVU329
 1274 0004 4885FF   		testq	%rdi, %rdi
 1275 0007 0F84A300 		je	.L94
 1275      0000
 210:fltk-1.3.4-1/png/pngset.c ****    png_debug1(1, "in %s storage function", "IHDR");
 1276              		.loc 1 210 1 view .LVU330
 1277 000d 55       		pushq	%rbp
 1278              		.cfi_def_cfa_offset 16
 1279              		.cfi_offset 6, -16
 1280 000e 53       		pushq	%rbx
 1281              		.cfi_def_cfa_offset 24
 1282              		.cfi_offset 3, -24
 1283 000f 4889F3   		movq	%rsi, %rbx
 1284 0012 4883EC08 		subq	$8, %rsp
 1285              		.cfi_def_cfa_offset 32
 213:fltk-1.3.4-1/png/pngset.c ****       return;
 1286              		.loc 1 213 7 view .LVU331
 1287 0016 4885F6   		testq	%rsi, %rsi
 1288 0019 0F848A00 		je	.L82
 1288      0000
 217:fltk-1.3.4-1/png/pngset.c ****    info_ptr->bit_depth = (png_byte)bit_depth;
 1289              		.loc 1 217 21 view .LVU332
 1290 001f 894E04   		movl	%ecx, 4(%rsi)
 1291 0022 89D5     		movl	%edx, %ebp
 1292 0024 89CA     		movl	%ecx, %edx
 1293              	.LVL109:
 220:fltk-1.3.4-1/png/pngset.c ****    info_ptr->filter_type = (png_byte)filter_type;
 1294              		.loc 1 220 33 view .LVU333
 1295 0026 0FB64C24 		movzbl	40(%rsp), %ecx
 1295      28
 1296              	.LVL110:
 218:fltk-1.3.4-1/png/pngset.c ****    info_ptr->color_type = (png_byte)color_type;
 1297              		.loc 1 218 26 view .LVU334
 1298 002b 44884624 		movb	%r8b, 36(%rsi)
 1299 002f 4489C8   		movl	%r9d, %eax
 216:fltk-1.3.4-1/png/pngset.c ****    info_ptr->height = height;
 1300              		.loc 1 216 4 is_stmt 1 view .LVU335
 220:fltk-1.3.4-1/png/pngset.c ****    info_ptr->filter_type = (png_byte)filter_type;
 1301              		.loc 1 220 33 is_stmt 0 view .LVU336
 1302 0032 884E26   		movb	%cl, 38(%rsi)
 221:fltk-1.3.4-1/png/pngset.c ****    info_ptr->interlace_type = (png_byte)interlace_type;
 1303              		.loc 1 221 28 view .LVU337
 1304 0035 0FB64C24 		movzbl	48(%rsp), %ecx
 1304      30
 219:fltk-1.3.4-1/png/pngset.c ****    info_ptr->compression_type = (png_byte)compression_type;
 1305              		.loc 1 219 27 view .LVU338
 1306 003a 44884E25 		movb	%r9b, 37(%rsi)
 221:fltk-1.3.4-1/png/pngset.c ****    info_ptr->interlace_type = (png_byte)interlace_type;
 1307              		.loc 1 221 28 view .LVU339
 1308 003e 884E27   		movb	%cl, 39(%rsi)
 224:fltk-1.3.4-1/png/pngset.c ****        info_ptr->bit_depth, info_ptr->color_type, info_ptr->interlace_type,
 1309              		.loc 1 224 4 view .LVU340
 1310 0041 410FB6C8 		movzbl	%r8b, %ecx
 1311 0045 440FB6C0 		movzbl	%al, %r8d
 1312              	.LVL111:
 216:fltk-1.3.4-1/png/pngset.c ****    info_ptr->height = height;
 1313              		.loc 1 216 20 view .LVU341
 1314 0049 892E     		movl	%ebp, (%rsi)
 217:fltk-1.3.4-1/png/pngset.c ****    info_ptr->bit_depth = (png_byte)bit_depth;
 1315              		.loc 1 217 4 is_stmt 1 view .LVU342
 218:fltk-1.3.4-1/png/pngset.c ****    info_ptr->color_type = (png_byte)color_type;
 1316              		.loc 1 218 4 view .LVU343
 219:fltk-1.3.4-1/png/pngset.c ****    info_ptr->compression_type = (png_byte)compression_type;
 1317              		.loc 1 219 4 view .LVU344
 220:fltk-1.3.4-1/png/pngset.c ****    info_ptr->filter_type = (png_byte)filter_type;
 1318              		.loc 1 220 4 view .LVU345
 221:fltk-1.3.4-1/png/pngset.c ****    info_ptr->interlace_type = (png_byte)interlace_type;
 1319              		.loc 1 221 4 view .LVU346
 222:fltk-1.3.4-1/png/pngset.c **** 
 1320              		.loc 1 222 4 view .LVU347
 222:fltk-1.3.4-1/png/pngset.c **** 
 1321              		.loc 1 222 31 is_stmt 0 view .LVU348
 1322 004b 0FB67424 		movzbl	32(%rsp), %esi
 1322      20
 1323              	.LVL112:
 222:fltk-1.3.4-1/png/pngset.c **** 
 1324              		.loc 1 222 31 view .LVU349
 1325 0050 40887328 		movb	%sil, 40(%rbx)
 224:fltk-1.3.4-1/png/pngset.c ****        info_ptr->bit_depth, info_ptr->color_type, info_ptr->interlace_type,
 1326              		.loc 1 224 4 is_stmt 1 view .LVU350
 1327 0054 0FB67424 		movzbl	48(%rsp), %esi
 1327      30
 1328 0059 56       		pushq	%rsi
 1329              		.cfi_def_cfa_offset 40
 1330 005a 0FB67424 		movzbl	48(%rsp), %esi
 1330      30
 1331 005f 56       		pushq	%rsi
 1332              		.cfi_def_cfa_offset 48
 1333 0060 440FB64C 		movzbl	48(%rsp), %r9d
 1333      2430
 1334              	.LVL113:
 224:fltk-1.3.4-1/png/pngset.c ****        info_ptr->bit_depth, info_ptr->color_type, info_ptr->interlace_type,
 1335              		.loc 1 224 4 is_stmt 0 view .LVU351
 1336 0066 89EE     		movl	%ebp, %esi
 1337 0068 E8000000 		call	png_check_IHDR@PLT
 1337      00
 1338              	.LVL114:
 228:fltk-1.3.4-1/png/pngset.c ****       info_ptr->channels = 1;
 1339              		.loc 1 228 4 is_stmt 1 view .LVU352
 228:fltk-1.3.4-1/png/pngset.c ****       info_ptr->channels = 1;
 1340              		.loc 1 228 16 is_stmt 0 view .LVU353
 1341 006d 0FB65325 		movzbl	37(%rbx), %edx
 228:fltk-1.3.4-1/png/pngset.c ****       info_ptr->channels = 1;
 1342              		.loc 1 228 7 view .LVU354
 1343 0071 58       		popq	%rax
 1344              		.cfi_def_cfa_offset 40
 1345 0072 59       		popq	%rcx
 1346              		.cfi_def_cfa_offset 32
 1347 0073 80FA03   		cmpb	$3, %dl
 1348 0076 7468     		je	.L97
 231:fltk-1.3.4-1/png/pngset.c ****       info_ptr->channels = 3;
 1349              		.loc 1 231 9 is_stmt 1 view .LVU355
 231:fltk-1.3.4-1/png/pngset.c ****       info_ptr->channels = 3;
 1350              		.loc 1 231 12 is_stmt 0 view .LVU356
 1351 0078 F6C202   		testb	$2, %dl
 1352 007b 753B     		jne	.L98
 235:fltk-1.3.4-1/png/pngset.c **** 
 1353              		.loc 1 235 7 is_stmt 1 view .LVU357
 235:fltk-1.3.4-1/png/pngset.c **** 
 1354              		.loc 1 235 26 is_stmt 0 view .LVU358
 1355 007d C6432901 		movb	$1, 41(%rbx)
 1356 0081 B8010000 		movl	$1, %eax
 1356      00
 1357              	.L87:
 237:fltk-1.3.4-1/png/pngset.c ****       info_ptr->channels++;
 1358              		.loc 1 237 4 is_stmt 1 view .LVU359
 237:fltk-1.3.4-1/png/pngset.c ****       info_ptr->channels++;
 1359              		.loc 1 237 7 is_stmt 0 view .LVU360
 1360 0086 83E204   		andl	$4, %edx
 1361 0089 7406     		je	.L85
 238:fltk-1.3.4-1/png/pngset.c **** 
 1362              		.loc 1 238 7 is_stmt 1 view .LVU361
 238:fltk-1.3.4-1/png/pngset.c **** 
 1363              		.loc 1 238 25 is_stmt 0 view .LVU362
 1364 008b 83C001   		addl	$1, %eax
 1365 008e 884329   		movb	%al, 41(%rbx)
 1366              	.L85:
 240:fltk-1.3.4-1/png/pngset.c **** 
 1367              		.loc 1 240 4 is_stmt 1 view .LVU363
 240:fltk-1.3.4-1/png/pngset.c **** 
 1368              		.loc 1 240 28 is_stmt 0 view .LVU364
 1369 0091 F66324   		mulb	36(%rbx)
 240:fltk-1.3.4-1/png/pngset.c **** 
 1370              		.loc 1 240 26 view .LVU365
 1371 0094 88432A   		movb	%al, 42(%rbx)
 242:fltk-1.3.4-1/png/pngset.c **** }
 1372              		.loc 1 242 4 is_stmt 1 view .LVU366
 242:fltk-1.3.4-1/png/pngset.c **** }
 1373              		.loc 1 242 25 is_stmt 0 view .LVU367
 1374 0097 3C07     		cmpb	$7, %al
 1375 0099 762D     		jbe	.L88
 242:fltk-1.3.4-1/png/pngset.c **** }
 1376              		.loc 1 242 25 discriminator 1 view .LVU368
 1377 009b C0E803   		shrb	$3, %al
 1378 009e 0FB6C0   		movzbl	%al, %eax
 1379 00a1 480FAFC5 		imulq	%rbp, %rax
 1380              	.L89:
 242:fltk-1.3.4-1/png/pngset.c **** }
 1381              		.loc 1 242 23 discriminator 4 view .LVU369
 1382 00a5 48894310 		movq	%rax, 16(%rbx)
 1383              	.LVL115:
 1384              	.L82:
 243:fltk-1.3.4-1/png/pngset.c **** 
 1385              		.loc 1 243 1 view .LVU370
 1386 00a9 4883C408 		addq	$8, %rsp
 1387              		.cfi_def_cfa_offset 24
 1388 00ad 5B       		popq	%rbx
 1389              		.cfi_def_cfa_offset 16
 1390              	.LVL116:
 243:fltk-1.3.4-1/png/pngset.c **** 
 1391              		.loc 1 243 1 view .LVU371
 1392 00ae 5D       		popq	%rbp
 1393              		.cfi_def_cfa_offset 8
 1394 00af C3       		ret
 1395              	.LVL117:
 1396              		.p2align 4,,10
 1397              		.p2align 3
 1398              	.L94:
 1399              		.cfi_restore 3
 1400              		.cfi_restore 6
 243:fltk-1.3.4-1/png/pngset.c **** 
 1401              		.loc 1 243 1 view .LVU372
 1402 00b0 C3       		ret
 1403              	.LVL118:
 1404              		.p2align 4,,10
 1405 00b1 0F1F8000 		.p2align 3
 1405      000000
 1406              	.L98:
 1407              		.cfi_def_cfa_offset 32
 1408              		.cfi_offset 3, -24
 1409              		.cfi_offset 6, -16
 232:fltk-1.3.4-1/png/pngset.c **** 
 1410              		.loc 1 232 7 is_stmt 1 view .LVU373
 232:fltk-1.3.4-1/png/pngset.c **** 
 1411              		.loc 1 232 26 is_stmt 0 view .LVU374
 1412 00b8 C6432903 		movb	$3, 41(%rbx)
 1413 00bc B8030000 		movl	$3, %eax
 1413      00
 1414 00c1 EBC3     		jmp	.L87
 1415              		.p2align 4,,10
 1416 00c3 0F1F4400 		.p2align 3
 1416      00
 1417              	.L88:
 242:fltk-1.3.4-1/png/pngset.c **** }
 1418              		.loc 1 242 25 discriminator 2 view .LVU375
 1419 00c8 0FB6C0   		movzbl	%al, %eax
 1420 00cb 480FAFC5 		imulq	%rbp, %rax
 1421 00cf 4883C007 		addq	$7, %rax
 1422 00d3 48C1E803 		shrq	$3, %rax
 1423 00d7 EBCC     		jmp	.L89
 1424 00d9 0F1F8000 		.p2align 4,,10
 1424      000000
 1425              		.p2align 3
 1426              	.L97:
 229:fltk-1.3.4-1/png/pngset.c **** 
 1427              		.loc 1 229 7 is_stmt 1 view .LVU376
 229:fltk-1.3.4-1/png/pngset.c **** 
 1428              		.loc 1 229 26 is_stmt 0 view .LVU377
 1429 00e0 C6432901 		movb	$1, 41(%rbx)
 237:fltk-1.3.4-1/png/pngset.c ****       info_ptr->channels++;
 1430              		.loc 1 237 4 is_stmt 1 view .LVU378
 229:fltk-1.3.4-1/png/pngset.c **** 
 1431              		.loc 1 229 26 is_stmt 0 view .LVU379
 1432 00e4 B8010000 		movl	$1, %eax
 1432      00
 1433 00e9 EBA6     		jmp	.L85
 1434              		.cfi_endproc
 1435              	.LFE49:
 1437              		.section	.text.png_set_oFFs,"ax",@progbits
 1438              		.p2align 4
 1439              		.globl	png_set_oFFs
 1441              	png_set_oFFs:
 1442              	.LVL119:
 1443              	.LFB50:
 249:fltk-1.3.4-1/png/pngset.c ****    png_debug1(1, "in %s storage function", "oFFs");
 1444              		.loc 1 249 1 is_stmt 1 view -0
 1445              		.cfi_startproc
 249:fltk-1.3.4-1/png/pngset.c ****    png_debug1(1, "in %s storage function", "oFFs");
 1446              		.loc 1 249 1 is_stmt 0 view .LVU381
 1447 0000 F30F1EFA 		endbr64
 250:fltk-1.3.4-1/png/pngset.c **** 
 1448              		.loc 1 250 4 is_stmt 1 view .LVU382
 252:fltk-1.3.4-1/png/pngset.c ****       return;
 1449              		.loc 1 252 4 view .LVU383
 252:fltk-1.3.4-1/png/pngset.c ****       return;
 1450              		.loc 1 252 7 is_stmt 0 view .LVU384
 1451 0004 4885FF   		testq	%rdi, %rdi
 1452 0007 741F     		je	.L99
 1453 0009 4885F6   		testq	%rsi, %rsi
 1454 000c 741A     		je	.L99
 255:fltk-1.3.4-1/png/pngset.c ****    info_ptr->y_offset = offset_y;
 1455              		.loc 1 255 4 is_stmt 1 view .LVU385
 258:fltk-1.3.4-1/png/pngset.c **** }
 1456              		.loc 1 258 20 is_stmt 0 view .LVU386
 1457 000e 814E0800 		orl	$256, 8(%rsi)
 1457      010000
 255:fltk-1.3.4-1/png/pngset.c ****    info_ptr->y_offset = offset_y;
 1458              		.loc 1 255 23 view .LVU387
 1459 0015 8996D400 		movl	%edx, 212(%rsi)
 1459      0000
 256:fltk-1.3.4-1/png/pngset.c ****    info_ptr->offset_unit_type = (png_byte)unit_type;
 1460              		.loc 1 256 4 is_stmt 1 view .LVU388
 256:fltk-1.3.4-1/png/pngset.c ****    info_ptr->offset_unit_type = (png_byte)unit_type;
 1461              		.loc 1 256 23 is_stmt 0 view .LVU389
 1462 001b 898ED800 		movl	%ecx, 216(%rsi)
 1462      0000
 257:fltk-1.3.4-1/png/pngset.c ****    info_ptr->valid |= PNG_INFO_oFFs;
 1463              		.loc 1 257 4 is_stmt 1 view .LVU390
 257:fltk-1.3.4-1/png/pngset.c ****    info_ptr->valid |= PNG_INFO_oFFs;
 1464              		.loc 1 257 33 is_stmt 0 view .LVU391
 1465 0021 448886DC 		movb	%r8b, 220(%rsi)
 1465      000000
 258:fltk-1.3.4-1/png/pngset.c **** }
 1466              		.loc 1 258 4 is_stmt 1 view .LVU392
 1467              	.L99:
 259:fltk-1.3.4-1/png/pngset.c **** #endif
 1468              		.loc 1 259 1 is_stmt 0 view .LVU393
 1469 0028 C3       		ret
 1470              		.cfi_endproc
 1471              	.LFE50:
 1473              		.section	.rodata.png_set_pCAL.str1.1,"aMS",@progbits,1
 1474              	.LC14:
 1475 0000 496E7661 		.string	"Invalid pCAL equation type"
 1475      6C696420 
 1475      7043414C 
 1475      20657175 
 1475      6174696F 
 1476              	.LC15:
 1477 001b 496E7661 		.string	"Invalid pCAL parameter count"
 1477      6C696420 
 1477      7043414C 
 1477      20706172 
 1477      616D6574 
 1478              		.section	.rodata.png_set_pCAL.str1.8,"aMS",@progbits,1
 1479              		.align 8
 1480              	.LC16:
 1481 0000 496E7661 		.string	"Invalid format for pCAL parameter"
 1481      6C696420 
 1481      666F726D 
 1481      61742066 
 1481      6F722070 
 1482 0022 00000000 		.align 8
 1482      0000
 1483              	.LC17:
 1484 0028 496E7375 		.string	"Insufficient memory for pCAL purpose"
 1484      66666963 
 1484      69656E74 
 1484      206D656D 
 1484      6F727920 
 1485 004d 000000   		.align 8
 1486              	.LC18:
 1487 0050 496E7375 		.string	"Insufficient memory for pCAL units"
 1487      66666963 
 1487      69656E74 
 1487      206D656D 
 1487      6F727920 
 1488 0073 00000000 		.align 8
 1488      00
 1489              	.LC19:
 1490 0078 496E7375 		.string	"Insufficient memory for pCAL params"
 1490      66666963 
 1490      69656E74 
 1490      206D656D 
 1490      6F727920 
 1491 009c 00000000 		.align 8
 1492              	.LC20:
 1493 00a0 496E7375 		.string	"Insufficient memory for pCAL parameter"
 1493      66666963 
 1493      69656E74 
 1493      206D656D 
 1493      6F727920 
 1494              		.section	.text.png_set_pCAL,"ax",@progbits
 1495              		.p2align 4
 1496              		.globl	png_set_pCAL
 1498              	png_set_pCAL:
 1499              	.LVL120:
 1500              	.LFB51:
 267:fltk-1.3.4-1/png/pngset.c ****    png_size_t length;
 1501              		.loc 1 267 1 is_stmt 1 view -0
 1502              		.cfi_startproc
 267:fltk-1.3.4-1/png/pngset.c ****    png_size_t length;
 1503              		.loc 1 267 1 is_stmt 0 view .LVU395
 1504 0000 F30F1EFA 		endbr64
 268:fltk-1.3.4-1/png/pngset.c ****    int i;
 1505              		.loc 1 268 4 is_stmt 1 view .LVU396
 269:fltk-1.3.4-1/png/pngset.c **** 
 1506              		.loc 1 269 4 view .LVU397
 271:fltk-1.3.4-1/png/pngset.c **** 
 1507              		.loc 1 271 4 view .LVU398
 273:fltk-1.3.4-1/png/pngset.c ****       || (nparams > 0 && params == NULL))
 1508              		.loc 1 273 4 view .LVU399
 267:fltk-1.3.4-1/png/pngset.c ****    png_size_t length;
 1509              		.loc 1 267 1 is_stmt 0 view .LVU400
 1510 0004 4157     		pushq	%r15
 1511              		.cfi_def_cfa_offset 16
 1512              		.cfi_offset 15, -16
 1513 0006 4156     		pushq	%r14
 1514              		.cfi_def_cfa_offset 24
 1515              		.cfi_offset 14, -24
 1516 0008 4155     		pushq	%r13
 1517              		.cfi_def_cfa_offset 32
 1518              		.cfi_offset 13, -32
 1519 000a 4154     		pushq	%r12
 1520              		.cfi_def_cfa_offset 40
 1521              		.cfi_offset 12, -40
 1522 000c 55       		pushq	%rbp
 1523              		.cfi_def_cfa_offset 48
 1524              		.cfi_offset 6, -48
 1525 000d 53       		pushq	%rbx
 1526              		.cfi_def_cfa_offset 56
 1527              		.cfi_offset 3, -56
 1528 000e 4883EC38 		subq	$56, %rsp
 1529              		.cfi_def_cfa_offset 112
 267:fltk-1.3.4-1/png/pngset.c ****    png_size_t length;
 1530              		.loc 1 267 1 view .LVU401
 1531 0012 894C2420 		movl	%ecx, 32(%rsp)
 1532 0016 488B4424 		movq	120(%rsp), %rax
 1532      78
 1533 001b 8B4C2470 		movl	112(%rsp), %ecx
 1534              	.LVL121:
 267:fltk-1.3.4-1/png/pngset.c ****    png_size_t length;
 1535              		.loc 1 267 1 view .LVU402
 1536 001f 48895424 		movq	%rdx, 8(%rsp)
 1536      08
 1537 0024 44894424 		movl	%r8d, 36(%rsp)
 1537      24
 1538 0029 4C8BAC24 		movq	128(%rsp), %r13
 1538      80000000 
 1539 0031 44894C24 		movl	%r9d, 20(%rsp)
 1539      14
 1540 0036 890C24   		movl	%ecx, (%rsp)
 1541 0039 48894424 		movq	%rax, 24(%rsp)
 1541      18
 273:fltk-1.3.4-1/png/pngset.c ****       || (nparams > 0 && params == NULL))
 1542              		.loc 1 273 7 view .LVU403
 1543 003e 4885FF   		testq	%rdi, %rdi
 1544 0041 741E     		je	.L101
 1545 0043 4889F3   		movq	%rsi, %rbx
 1546 0046 4885F6   		testq	%rsi, %rsi
 1547 0049 7416     		je	.L101
 273:fltk-1.3.4-1/png/pngset.c ****       || (nparams > 0 && params == NULL))
 1548              		.loc 1 273 63 discriminator 1 view .LVU404
 1549 004b 4885D2   		testq	%rdx, %rdx
 1550 004e 7411     		je	.L101
 1551 0050 4885C0   		testq	%rax, %rax
 1552 0053 740C     		je	.L101
 1553 0055 4989FC   		movq	%rdi, %r12
 274:fltk-1.3.4-1/png/pngset.c ****       return;
 1554              		.loc 1 274 7 view .LVU405
 1555 0058 85C9     		testl	%ecx, %ecx
 1556 005a 7E14     		jle	.L117
 1557 005c 4D85ED   		testq	%r13, %r13
 1558 005f 750F     		jne	.L117
 1559              	.L101:
 360:fltk-1.3.4-1/png/pngset.c **** #endif
 1560              		.loc 1 360 1 view .LVU406
 1561 0061 4883C438 		addq	$56, %rsp
 1562              		.cfi_remember_state
 1563              		.cfi_def_cfa_offset 56
 1564 0065 5B       		popq	%rbx
 1565              		.cfi_def_cfa_offset 48
 1566 0066 5D       		popq	%rbp
 1567              		.cfi_def_cfa_offset 40
 1568 0067 415C     		popq	%r12
 1569              		.cfi_def_cfa_offset 32
 1570 0069 415D     		popq	%r13
 1571              		.cfi_def_cfa_offset 24
 1572 006b 415E     		popq	%r14
 1573              		.cfi_def_cfa_offset 16
 1574 006d 415F     		popq	%r15
 1575              		.cfi_def_cfa_offset 8
 1576 006f C3       		ret
 1577              	.LVL122:
 1578              		.p2align 4,,10
 1579              		.p2align 3
 1580              	.L117:
 1581              		.cfi_restore_state
 277:fltk-1.3.4-1/png/pngset.c ****    png_debug1(3, "allocating purpose for info (%lu bytes)",
 1582              		.loc 1 277 4 is_stmt 1 view .LVU407
 277:fltk-1.3.4-1/png/pngset.c ****    png_debug1(3, "allocating purpose for info (%lu bytes)",
 1583              		.loc 1 277 13 is_stmt 0 view .LVU408
 1584 0070 488B7C24 		movq	8(%rsp), %rdi
 1584      08
 1585              	.LVL123:
 277:fltk-1.3.4-1/png/pngset.c ****    png_debug1(3, "allocating purpose for info (%lu bytes)",
 1586              		.loc 1 277 13 view .LVU409
 1587 0075 E8000000 		call	strlen@PLT
 1587      00
 1588              	.LVL124:
 277:fltk-1.3.4-1/png/pngset.c ****    png_debug1(3, "allocating purpose for info (%lu bytes)",
 1589              		.loc 1 277 11 view .LVU410
 1590 007a 4883C001 		addq	$1, %rax
 284:fltk-1.3.4-1/png/pngset.c ****       png_error(png_ptr, "Invalid pCAL equation type");
 1591              		.loc 1 284 7 view .LVU411
 1592 007e 837C2414 		cmpl	$3, 20(%rsp)
 1592      03
 277:fltk-1.3.4-1/png/pngset.c ****    png_debug1(3, "allocating purpose for info (%lu bytes)",
 1593              		.loc 1 277 11 view .LVU412
 1594 0083 48894424 		movq	%rax, 40(%rsp)
 1594      28
 1595              	.LVL125:
 278:fltk-1.3.4-1/png/pngset.c ****        (unsigned long)length);
 1596              		.loc 1 278 4 is_stmt 1 view .LVU413
 284:fltk-1.3.4-1/png/pngset.c ****       png_error(png_ptr, "Invalid pCAL equation type");
 1597              		.loc 1 284 4 view .LVU414
 284:fltk-1.3.4-1/png/pngset.c ****       png_error(png_ptr, "Invalid pCAL equation type");
 1598              		.loc 1 284 7 is_stmt 0 view .LVU415
 1599 0088 0F87F901 		ja	.L128
 1599      0000
 287:fltk-1.3.4-1/png/pngset.c ****       png_error(png_ptr, "Invalid pCAL parameter count");
 1600              		.loc 1 287 4 is_stmt 1 view .LVU416
 287:fltk-1.3.4-1/png/pngset.c ****       png_error(png_ptr, "Invalid pCAL parameter count");
 1601              		.loc 1 287 7 is_stmt 0 view .LVU417
 1602 008e 8B0424   		movl	(%rsp), %eax
 1603              	.LVL126:
 287:fltk-1.3.4-1/png/pngset.c ****       png_error(png_ptr, "Invalid pCAL parameter count");
 1604              		.loc 1 287 7 view .LVU418
 1605 0091 3DFF0000 		cmpl	$255, %eax
 1605      00
 1606 0096 0F87FA01 		ja	.L105
 1606      0000
 1607              	.LVL127:
 291:fltk-1.3.4-1/png/pngset.c ****    {
 1608              		.loc 1 291 14 is_stmt 1 view .LVU419
 291:fltk-1.3.4-1/png/pngset.c ****    {
 1609              		.loc 1 291 4 is_stmt 0 view .LVU420
 1610 009c 85C0     		testl	%eax, %eax
 1611 009e 7E40     		jle	.L107
 1612 00a0 8B0424   		movl	(%rsp), %eax
 1613 00a3 4D89EE   		movq	%r13, %r14
 1614 00a6 83E801   		subl	$1, %eax
 1615 00a9 498D6CC5 		leaq	8(%r13,%rax,8), %rbp
 1615      08
 1616              	.LVL128:
 1617 00ae 6690     		.p2align 4,,10
 1618              		.p2align 3
 1619              	.L110:
 293:fltk-1.3.4-1/png/pngset.c ****           !png_check_fp_string(params[i], strlen(params[i])))
 1620              		.loc 1 293 7 is_stmt 1 view .LVU421
 293:fltk-1.3.4-1/png/pngset.c ****           !png_check_fp_string(params[i], strlen(params[i])))
 1621              		.loc 1 293 17 is_stmt 0 view .LVU422
 1622 00b0 4D8B3E   		movq	(%r14), %r15
 293:fltk-1.3.4-1/png/pngset.c ****           !png_check_fp_string(params[i], strlen(params[i])))
 1623              		.loc 1 293 10 view .LVU423
 1624 00b3 4D85FF   		testq	%r15, %r15
 1625 00b6 0F84BC01 		je	.L109
 1625      0000
 294:fltk-1.3.4-1/png/pngset.c ****          png_error(png_ptr, "Invalid format for pCAL parameter");
 1626              		.loc 1 294 12 discriminator 1 view .LVU424
 1627 00bc 4C89FF   		movq	%r15, %rdi
 1628 00bf E8000000 		call	strlen@PLT
 1628      00
 1629              	.LVL129:
 1630 00c4 4C89FF   		movq	%r15, %rdi
 1631 00c7 4889C6   		movq	%rax, %rsi
 1632 00ca E8000000 		call	png_check_fp_string@PLT
 1632      00
 1633              	.LVL130:
 293:fltk-1.3.4-1/png/pngset.c ****           !png_check_fp_string(params[i], strlen(params[i])))
 1634              		.loc 1 293 29 discriminator 1 view .LVU425
 1635 00cf 85C0     		testl	%eax, %eax
 1636 00d1 0F84A101 		je	.L109
 1636      0000
 291:fltk-1.3.4-1/png/pngset.c ****    {
 1637              		.loc 1 291 25 is_stmt 1 discriminator 2 view .LVU426
 291:fltk-1.3.4-1/png/pngset.c ****    {
 1638              		.loc 1 291 14 discriminator 2 view .LVU427
 1639 00d7 4983C608 		addq	$8, %r14
 291:fltk-1.3.4-1/png/pngset.c ****    {
 1640              		.loc 1 291 4 is_stmt 0 discriminator 2 view .LVU428
 1641 00db 4939EE   		cmpq	%rbp, %r14
 1642 00de 75D0     		jne	.L110
 1643              	.L107:
 298:fltk-1.3.4-1/png/pngset.c ****        png_malloc_warn(png_ptr, length));
 1644              		.loc 1 298 4 is_stmt 1 view .LVU429
 298:fltk-1.3.4-1/png/pngset.c ****        png_malloc_warn(png_ptr, length));
 1645              		.loc 1 298 29 is_stmt 0 view .LVU430
 1646 00e0 488B7424 		movq	40(%rsp), %rsi
 1646      28
 1647 00e5 4C89E7   		movq	%r12, %rdi
 1648 00e8 E8000000 		call	png_malloc_warn@PLT
 1648      00
 1649              	.LVL131:
 298:fltk-1.3.4-1/png/pngset.c ****        png_malloc_warn(png_ptr, length));
 1650              		.loc 1 298 27 view .LVU431
 1651 00ed 488983F8 		movq	%rax, 248(%rbx)
 1651      000000
 301:fltk-1.3.4-1/png/pngset.c ****    {
 1652              		.loc 1 301 4 is_stmt 1 view .LVU432
 298:fltk-1.3.4-1/png/pngset.c ****        png_malloc_warn(png_ptr, length));
 1653              		.loc 1 298 29 is_stmt 0 view .LVU433
 1654 00f4 4889C7   		movq	%rax, %rdi
 301:fltk-1.3.4-1/png/pngset.c ****    {
 1655              		.loc 1 301 7 view .LVU434
 1656 00f7 4885C0   		testq	%rax, %rax
 1657 00fa 0F84B701 		je	.L129
 1657      0000
 307:fltk-1.3.4-1/png/pngset.c **** 
 1658              		.loc 1 307 4 is_stmt 1 view .LVU435
 1659              	.LVL132:
 1660              	.LBB123:
 1661              	.LBI123:
 1662              		.file 2 "/usr/include/x86_64-linux-gnu/bits/string_fortified.h"
   1:/usr/include/x86_64-linux-gnu/bits/string_fortified.h **** /* Copyright (C) 2004-2020 Free Software Foundation, Inc.
   2:/usr/include/x86_64-linux-gnu/bits/string_fortified.h ****    This file is part of the GNU C Library.
   3:/usr/include/x86_64-linux-gnu/bits/string_fortified.h **** 
   4:/usr/include/x86_64-linux-gnu/bits/string_fortified.h ****    The GNU C Library is free software; you can redistribute it and/or
   5:/usr/include/x86_64-linux-gnu/bits/string_fortified.h ****    modify it under the terms of the GNU Lesser General Public
   6:/usr/include/x86_64-linux-gnu/bits/string_fortified.h ****    License as published by the Free Software Foundation; either
   7:/usr/include/x86_64-linux-gnu/bits/string_fortified.h ****    version 2.1 of the License, or (at your option) any later version.
   8:/usr/include/x86_64-linux-gnu/bits/string_fortified.h **** 
   9:/usr/include/x86_64-linux-gnu/bits/string_fortified.h ****    The GNU C Library is distributed in the hope that it will be useful,
  10:/usr/include/x86_64-linux-gnu/bits/string_fortified.h ****    but WITHOUT ANY WARRANTY; without even the implied warranty of
  11:/usr/include/x86_64-linux-gnu/bits/string_fortified.h ****    MERCHANTABILITY or FITNESS FOR A PARTICULAR PURPOSE.  See the GNU
  12:/usr/include/x86_64-linux-gnu/bits/string_fortified.h ****    Lesser General Public License for more details.
  13:/usr/include/x86_64-linux-gnu/bits/string_fortified.h **** 
  14:/usr/include/x86_64-linux-gnu/bits/string_fortified.h ****    You should have received a copy of the GNU Lesser General Public
  15:/usr/include/x86_64-linux-gnu/bits/string_fortified.h ****    License along with the GNU C Library; if not, see
  16:/usr/include/x86_64-linux-gnu/bits/string_fortified.h ****    <https://www.gnu.org/licenses/>.  */
  17:/usr/include/x86_64-linux-gnu/bits/string_fortified.h **** 
  18:/usr/include/x86_64-linux-gnu/bits/string_fortified.h **** #ifndef _BITS_STRING_FORTIFIED_H
  19:/usr/include/x86_64-linux-gnu/bits/string_fortified.h **** #define _BITS_STRING_FORTIFIED_H 1
  20:/usr/include/x86_64-linux-gnu/bits/string_fortified.h **** 
  21:/usr/include/x86_64-linux-gnu/bits/string_fortified.h **** #ifndef _STRING_H
  22:/usr/include/x86_64-linux-gnu/bits/string_fortified.h **** # error "Never use <bits/string_fortified.h> directly; include <string.h> instead."
  23:/usr/include/x86_64-linux-gnu/bits/string_fortified.h **** #endif
  24:/usr/include/x86_64-linux-gnu/bits/string_fortified.h **** 
  25:/usr/include/x86_64-linux-gnu/bits/string_fortified.h **** #if !__GNUC_PREREQ (5,0)
  26:/usr/include/x86_64-linux-gnu/bits/string_fortified.h **** __warndecl (__warn_memset_zero_len,
  27:/usr/include/x86_64-linux-gnu/bits/string_fortified.h **** 	    "memset used with constant zero length parameter; this could be due to transposed parameters")
  28:/usr/include/x86_64-linux-gnu/bits/string_fortified.h **** #endif
  29:/usr/include/x86_64-linux-gnu/bits/string_fortified.h **** 
  30:/usr/include/x86_64-linux-gnu/bits/string_fortified.h **** __fortify_function void *
  31:/usr/include/x86_64-linux-gnu/bits/string_fortified.h **** __NTH (memcpy (void *__restrict __dest, const void *__restrict __src,
 1663              		.loc 2 31 1 view .LVU436
 1664              	.LBB124:
  32:/usr/include/x86_64-linux-gnu/bits/string_fortified.h **** 	       size_t __len))
  33:/usr/include/x86_64-linux-gnu/bits/string_fortified.h **** {
  34:/usr/include/x86_64-linux-gnu/bits/string_fortified.h ****   return __builtin___memcpy_chk (__dest, __src, __len, __bos0 (__dest));
 1665              		.loc 2 34 3 view .LVU437
 1666              		.loc 2 34 10 is_stmt 0 view .LVU438
 1667 0100 488B5424 		movq	40(%rsp), %rdx
 1667      28
 1668 0105 488B7424 		movq	8(%rsp), %rsi
 1668      08
 1669 010a E8000000 		call	memcpy@PLT
 1669      00
 1670              	.LVL133:
 1671              		.loc 2 34 10 view .LVU439
 1672              	.LBE124:
 1673              	.LBE123:
 309:fltk-1.3.4-1/png/pngset.c ****    info_ptr->pcal_X0 = X0;
 1674              		.loc 1 309 4 is_stmt 1 view .LVU440
 310:fltk-1.3.4-1/png/pngset.c ****    info_ptr->pcal_X1 = X1;
 1675              		.loc 1 310 4 view .LVU441
 310:fltk-1.3.4-1/png/pngset.c ****    info_ptr->pcal_X1 = X1;
 1676              		.loc 1 310 22 is_stmt 0 view .LVU442
 1677 010f 8B442420 		movl	32(%rsp), %eax
 315:fltk-1.3.4-1/png/pngset.c ****    png_debug1(3, "allocating units for info (%lu bytes)",
 1678              		.loc 1 315 13 view .LVU443
 1679 0113 488B7C24 		movq	24(%rsp), %rdi
 1679      18
 310:fltk-1.3.4-1/png/pngset.c ****    info_ptr->pcal_X1 = X1;
 1680              		.loc 1 310 22 view .LVU444
 1681 0118 89830001 		movl	%eax, 256(%rbx)
 1681      0000
 311:fltk-1.3.4-1/png/pngset.c ****    info_ptr->pcal_type = (png_byte)type;
 1682              		.loc 1 311 4 is_stmt 1 view .LVU445
 311:fltk-1.3.4-1/png/pngset.c ****    info_ptr->pcal_type = (png_byte)type;
 1683              		.loc 1 311 22 is_stmt 0 view .LVU446
 1684 011e 8B442424 		movl	36(%rsp), %eax
 1685 0122 89830401 		movl	%eax, 260(%rbx)
 1685      0000
 312:fltk-1.3.4-1/png/pngset.c ****    info_ptr->pcal_nparams = (png_byte)nparams;
 1686              		.loc 1 312 4 is_stmt 1 view .LVU447
 312:fltk-1.3.4-1/png/pngset.c ****    info_ptr->pcal_nparams = (png_byte)nparams;
 1687              		.loc 1 312 26 is_stmt 0 view .LVU448
 1688 0128 0FB64424 		movzbl	20(%rsp), %eax
 1688      14
 1689 012d 88831801 		movb	%al, 280(%rbx)
 1689      0000
 313:fltk-1.3.4-1/png/pngset.c **** 
 1690              		.loc 1 313 4 is_stmt 1 view .LVU449
 313:fltk-1.3.4-1/png/pngset.c **** 
 1691              		.loc 1 313 29 is_stmt 0 view .LVU450
 1692 0133 0FB60424 		movzbl	(%rsp), %eax
 1693 0137 88831901 		movb	%al, 281(%rbx)
 1693      0000
 315:fltk-1.3.4-1/png/pngset.c ****    png_debug1(3, "allocating units for info (%lu bytes)",
 1694              		.loc 1 315 4 is_stmt 1 view .LVU451
 315:fltk-1.3.4-1/png/pngset.c ****    png_debug1(3, "allocating units for info (%lu bytes)",
 1695              		.loc 1 315 13 is_stmt 0 view .LVU452
 1696 013d E8000000 		call	strlen@PLT
 1696      00
 1697              	.LVL134:
 319:fltk-1.3.4-1/png/pngset.c ****       png_malloc_warn(png_ptr, length));
 1698              		.loc 1 319 27 view .LVU453
 1699 0142 4C89E7   		movq	%r12, %rdi
 315:fltk-1.3.4-1/png/pngset.c ****    png_debug1(3, "allocating units for info (%lu bytes)",
 1700              		.loc 1 315 11 view .LVU454
 1701 0145 4C8D7001 		leaq	1(%rax), %r14
 1702              	.LVL135:
 316:fltk-1.3.4-1/png/pngset.c ****      (unsigned long)length);
 1703              		.loc 1 316 4 is_stmt 1 view .LVU455
 319:fltk-1.3.4-1/png/pngset.c ****       png_malloc_warn(png_ptr, length));
 1704              		.loc 1 319 4 view .LVU456
 319:fltk-1.3.4-1/png/pngset.c ****       png_malloc_warn(png_ptr, length));
 1705              		.loc 1 319 27 is_stmt 0 view .LVU457
 1706 0149 4C89F6   		movq	%r14, %rsi
 1707 014c E8000000 		call	png_malloc_warn@PLT
 1707      00
 1708              	.LVL136:
 319:fltk-1.3.4-1/png/pngset.c ****       png_malloc_warn(png_ptr, length));
 1709              		.loc 1 319 25 view .LVU458
 1710 0151 48898308 		movq	%rax, 264(%rbx)
 1710      010000
 322:fltk-1.3.4-1/png/pngset.c ****    {
 1711              		.loc 1 322 4 is_stmt 1 view .LVU459
 319:fltk-1.3.4-1/png/pngset.c ****       png_malloc_warn(png_ptr, length));
 1712              		.loc 1 319 27 is_stmt 0 view .LVU460
 1713 0158 4889C7   		movq	%rax, %rdi
 322:fltk-1.3.4-1/png/pngset.c ****    {
 1714              		.loc 1 322 7 view .LVU461
 1715 015b 4885C0   		testq	%rax, %rax
 1716 015e 0F844101 		je	.L130
 1716      0000
 328:fltk-1.3.4-1/png/pngset.c **** 
 1717              		.loc 1 328 4 is_stmt 1 view .LVU462
 1718              	.LVL137:
 1719              	.LBB125:
 1720              	.LBI125:
  31:/usr/include/x86_64-linux-gnu/bits/string_fortified.h **** 	       size_t __len))
 1721              		.loc 2 31 1 view .LVU463
 1722              	.LBB126:
 1723              		.loc 2 34 3 view .LVU464
 1724              		.loc 2 34 10 is_stmt 0 view .LVU465
 1725 0164 488B7424 		movq	24(%rsp), %rsi
 1725      18
 1726 0169 4C89F2   		movq	%r14, %rdx
 1727 016c E8000000 		call	memcpy@PLT
 1727      00
 1728              	.LVL138:
 1729              		.loc 2 34 10 view .LVU466
 1730              	.LBE126:
 1731              	.LBE125:
 330:fltk-1.3.4-1/png/pngset.c ****        (png_size_t)((nparams + 1) * (sizeof (png_charp)))));
 1732              		.loc 1 330 4 is_stmt 1 view .LVU467
 330:fltk-1.3.4-1/png/pngset.c ****        (png_size_t)((nparams + 1) * (sizeof (png_charp)))));
 1733              		.loc 1 330 28 is_stmt 0 view .LVU468
 1734 0171 8B0424   		movl	(%rsp), %eax
 1735 0174 4C89E7   		movq	%r12, %rdi
 1736 0177 8D6801   		leal	1(%rax), %ebp
 1737 017a 4863ED   		movslq	%ebp, %rbp
 1738 017d 48C1E503 		salq	$3, %rbp
 1739 0181 4889EE   		movq	%rbp, %rsi
 1740 0184 E8000000 		call	png_malloc_warn@PLT
 1740      00
 1741              	.LVL139:
 330:fltk-1.3.4-1/png/pngset.c ****        (png_size_t)((nparams + 1) * (sizeof (png_charp)))));
 1742              		.loc 1 330 26 view .LVU469
 1743 0189 48898310 		movq	%rax, 272(%rbx)
 1743      010000
 333:fltk-1.3.4-1/png/pngset.c ****    {
 1744              		.loc 1 333 4 is_stmt 1 view .LVU470
 330:fltk-1.3.4-1/png/pngset.c ****        (png_size_t)((nparams + 1) * (sizeof (png_charp)))));
 1745              		.loc 1 330 28 is_stmt 0 view .LVU471
 1746 0190 4889C1   		movq	%rax, %rcx
 333:fltk-1.3.4-1/png/pngset.c ****    {
 1747              		.loc 1 333 7 view .LVU472
 1748 0193 4885C0   		testq	%rax, %rax
 1749 0196 0F841201 		je	.L131
 1749      0000
 339:fltk-1.3.4-1/png/pngset.c **** 
 1750              		.loc 1 339 4 is_stmt 1 view .LVU473
 1751              	.LVL140:
 1752              	.LBB127:
 1753              	.LBI127:
  35:/usr/include/x86_64-linux-gnu/bits/string_fortified.h **** }
  36:/usr/include/x86_64-linux-gnu/bits/string_fortified.h **** 
  37:/usr/include/x86_64-linux-gnu/bits/string_fortified.h **** __fortify_function void *
  38:/usr/include/x86_64-linux-gnu/bits/string_fortified.h **** __NTH (memmove (void *__dest, const void *__src, size_t __len))
  39:/usr/include/x86_64-linux-gnu/bits/string_fortified.h **** {
  40:/usr/include/x86_64-linux-gnu/bits/string_fortified.h ****   return __builtin___memmove_chk (__dest, __src, __len, __bos0 (__dest));
  41:/usr/include/x86_64-linux-gnu/bits/string_fortified.h **** }
  42:/usr/include/x86_64-linux-gnu/bits/string_fortified.h **** 
  43:/usr/include/x86_64-linux-gnu/bits/string_fortified.h **** #ifdef __USE_GNU
  44:/usr/include/x86_64-linux-gnu/bits/string_fortified.h **** __fortify_function void *
  45:/usr/include/x86_64-linux-gnu/bits/string_fortified.h **** __NTH (mempcpy (void *__restrict __dest, const void *__restrict __src,
  46:/usr/include/x86_64-linux-gnu/bits/string_fortified.h **** 		size_t __len))
  47:/usr/include/x86_64-linux-gnu/bits/string_fortified.h **** {
  48:/usr/include/x86_64-linux-gnu/bits/string_fortified.h ****   return __builtin___mempcpy_chk (__dest, __src, __len, __bos0 (__dest));
  49:/usr/include/x86_64-linux-gnu/bits/string_fortified.h **** }
  50:/usr/include/x86_64-linux-gnu/bits/string_fortified.h **** #endif
  51:/usr/include/x86_64-linux-gnu/bits/string_fortified.h **** 
  52:/usr/include/x86_64-linux-gnu/bits/string_fortified.h **** 
  53:/usr/include/x86_64-linux-gnu/bits/string_fortified.h **** /* The first two tests here help to catch a somewhat common problem
  54:/usr/include/x86_64-linux-gnu/bits/string_fortified.h ****    where the second and third parameter are transposed.  This is
  55:/usr/include/x86_64-linux-gnu/bits/string_fortified.h ****    especially problematic if the intended fill value is zero.  In this
  56:/usr/include/x86_64-linux-gnu/bits/string_fortified.h ****    case no work is done at all.  We detect these problems by referring
  57:/usr/include/x86_64-linux-gnu/bits/string_fortified.h ****    non-existing functions.  */
  58:/usr/include/x86_64-linux-gnu/bits/string_fortified.h **** __fortify_function void *
  59:/usr/include/x86_64-linux-gnu/bits/string_fortified.h **** __NTH (memset (void *__dest, int __ch, size_t __len))
 1754              		.loc 2 59 1 view .LVU474
 1755              	.LBB128:
  60:/usr/include/x86_64-linux-gnu/bits/string_fortified.h **** {
  61:/usr/include/x86_64-linux-gnu/bits/string_fortified.h ****   /* GCC-5.0 and newer implements these checks in the compiler, so we don't
  62:/usr/include/x86_64-linux-gnu/bits/string_fortified.h ****      need them here.  */
  63:/usr/include/x86_64-linux-gnu/bits/string_fortified.h **** #if !__GNUC_PREREQ (5,0)
  64:/usr/include/x86_64-linux-gnu/bits/string_fortified.h ****   if (__builtin_constant_p (__len) && __len == 0
  65:/usr/include/x86_64-linux-gnu/bits/string_fortified.h ****       && (!__builtin_constant_p (__ch) || __ch != 0))
  66:/usr/include/x86_64-linux-gnu/bits/string_fortified.h ****     {
  67:/usr/include/x86_64-linux-gnu/bits/string_fortified.h ****       __warn_memset_zero_len ();
  68:/usr/include/x86_64-linux-gnu/bits/string_fortified.h ****       return __dest;
  69:/usr/include/x86_64-linux-gnu/bits/string_fortified.h ****     }
  70:/usr/include/x86_64-linux-gnu/bits/string_fortified.h **** #endif
  71:/usr/include/x86_64-linux-gnu/bits/string_fortified.h ****   return __builtin___memset_chk (__dest, __ch, __len, __bos0 (__dest));
 1756              		.loc 2 71 3 view .LVU475
 1757              		.loc 2 71 10 is_stmt 0 view .LVU476
 1758 019c 488D7908 		leaq	8(%rcx), %rdi
 1759 01a0 48C70000 		movq	$0, (%rax)
 1759      000000
 1760              	.LVL141:
 1761              		.loc 2 71 10 view .LVU477
 1762 01a7 89E8     		movl	%ebp, %eax
 1763              	.LVL142:
 1764              		.loc 2 71 10 view .LVU478
 1765 01a9 48C74401 		movq	$0, -8(%rcx,%rax)
 1765      F8000000 
 1765      00
 1766 01b2 4883E7F8 		andq	$-8, %rdi
 1767 01b6 31C0     		xorl	%eax, %eax
 1768 01b8 4829F9   		subq	%rdi, %rcx
 1769              	.LVL143:
 1770              		.loc 2 71 10 view .LVU479
 1771 01bb 01E9     		addl	%ebp, %ecx
 1772 01bd C1E903   		shrl	$3, %ecx
 1773 01c0 F348AB   		rep stosq
 1774              	.LVL144:
 1775              		.loc 2 71 10 view .LVU480
 1776              	.LBE128:
 1777              	.LBE127:
 341:fltk-1.3.4-1/png/pngset.c ****    {
 1778              		.loc 1 341 4 is_stmt 1 view .LVU481
 341:fltk-1.3.4-1/png/pngset.c ****    {
 1779              		.loc 1 341 16 view .LVU482
 341:fltk-1.3.4-1/png/pngset.c ****    {
 1780              		.loc 1 341 4 is_stmt 0 view .LVU483
 1781 01c3 8B0424   		movl	(%rsp), %eax
 1782 01c6 85C0     		testl	%eax, %eax
 1783 01c8 0F8E8A00 		jle	.L114
 1783      0000
 1784 01ce 83E801   		subl	$1, %eax
 1785 01d1 31ED     		xorl	%ebp, %ebp
 1786 01d3 488D04C5 		leaq	8(,%rax,8), %rax
 1786      08000000 
 1787 01db 48890424 		movq	%rax, (%rsp)
 1788 01df EB1E     		jmp	.L116
 1789              	.LVL145:
 1790              		.p2align 4,,10
 1791 01e1 0F1F8000 		.p2align 3
 1791      000000
 1792              	.L115:
 355:fltk-1.3.4-1/png/pngset.c ****    }
 1793              		.loc 1 355 7 is_stmt 1 discriminator 2 view .LVU484
 1794              	.LBB129:
 1795              	.LBI129:
  31:/usr/include/x86_64-linux-gnu/bits/string_fortified.h **** 	       size_t __len))
 1796              		.loc 2 31 1 discriminator 2 view .LVU485
 1797              	.LBB130:
  34:/usr/include/x86_64-linux-gnu/bits/string_fortified.h **** }
 1798              		.loc 2 34 3 discriminator 2 view .LVU486
  34:/usr/include/x86_64-linux-gnu/bits/string_fortified.h **** }
 1799              		.loc 2 34 10 is_stmt 0 discriminator 2 view .LVU487
 1800 01e8 498B742D 		movq	0(%r13,%rbp), %rsi
 1800      00
 1801 01ed 4C89F2   		movq	%r14, %rdx
 1802 01f0 4883C508 		addq	$8, %rbp
 1803              	.LVL146:
  34:/usr/include/x86_64-linux-gnu/bits/string_fortified.h **** }
 1804              		.loc 2 34 10 discriminator 2 view .LVU488
 1805 01f4 E8000000 		call	memcpy@PLT
 1805      00
 1806              	.LVL147:
  34:/usr/include/x86_64-linux-gnu/bits/string_fortified.h **** }
 1807              		.loc 2 34 10 discriminator 2 view .LVU489
 1808              	.LBE130:
 1809              	.LBE129:
 341:fltk-1.3.4-1/png/pngset.c ****    {
 1810              		.loc 1 341 29 is_stmt 1 discriminator 2 view .LVU490
 341:fltk-1.3.4-1/png/pngset.c ****    {
 1811              		.loc 1 341 16 discriminator 2 view .LVU491
 341:fltk-1.3.4-1/png/pngset.c ****    {
 1812              		.loc 1 341 4 is_stmt 0 discriminator 2 view .LVU492
 1813 01f9 483B2C24 		cmpq	(%rsp), %rbp
 1814 01fd 7459     		je	.L114
 1815              	.L116:
 343:fltk-1.3.4-1/png/pngset.c ****       png_debug2(3, "allocating parameter %d for info (%lu bytes)", i,
 1816              		.loc 1 343 7 is_stmt 1 view .LVU493
 343:fltk-1.3.4-1/png/pngset.c ****       png_debug2(3, "allocating parameter %d for info (%lu bytes)", i,
 1817              		.loc 1 343 16 is_stmt 0 view .LVU494
 1818 01ff 498B7C2D 		movq	0(%r13,%rbp), %rdi
 1818      00
 1819 0204 E8000000 		call	strlen@PLT
 1819      00
 1820              	.LVL148:
 347:fltk-1.3.4-1/png/pngset.c **** 
 1821              		.loc 1 347 28 view .LVU495
 1822 0209 4C8BBB10 		movq	272(%rbx), %r15
 1822      010000
 347:fltk-1.3.4-1/png/pngset.c **** 
 1823              		.loc 1 347 45 view .LVU496
 1824 0210 4C89E7   		movq	%r12, %rdi
 343:fltk-1.3.4-1/png/pngset.c ****       png_debug2(3, "allocating parameter %d for info (%lu bytes)", i,
 1825              		.loc 1 343 14 view .LVU497
 1826 0213 4C8D7001 		leaq	1(%rax), %r14
 1827              	.LVL149:
 344:fltk-1.3.4-1/png/pngset.c ****           (unsigned long)length);
 1828              		.loc 1 344 7 is_stmt 1 view .LVU498
 347:fltk-1.3.4-1/png/pngset.c **** 
 1829              		.loc 1 347 7 view .LVU499
 347:fltk-1.3.4-1/png/pngset.c **** 
 1830              		.loc 1 347 45 is_stmt 0 view .LVU500
 1831 0217 4C89F6   		movq	%r14, %rsi
 347:fltk-1.3.4-1/png/pngset.c **** 
 1832              		.loc 1 347 28 view .LVU501
 1833 021a 4901EF   		addq	%rbp, %r15
 347:fltk-1.3.4-1/png/pngset.c **** 
 1834              		.loc 1 347 45 view .LVU502
 1835 021d E8000000 		call	png_malloc_warn@PLT
 1835      00
 1836              	.LVL150:
 347:fltk-1.3.4-1/png/pngset.c **** 
 1837              		.loc 1 347 32 view .LVU503
 1838 0222 498907   		movq	%rax, (%r15)
 349:fltk-1.3.4-1/png/pngset.c ****       {
 1839              		.loc 1 349 7 is_stmt 1 view .LVU504
 349:fltk-1.3.4-1/png/pngset.c ****       {
 1840              		.loc 1 349 32 is_stmt 0 view .LVU505
 1841 0225 488B8310 		movq	272(%rbx), %rax
 1841      010000
 1842 022c 488B3C28 		movq	(%rax,%rbp), %rdi
 349:fltk-1.3.4-1/png/pngset.c ****       {
 1843              		.loc 1 349 10 view .LVU506
 1844 0230 4885FF   		testq	%rdi, %rdi
 1845 0233 75B3     		jne	.L115
 351:fltk-1.3.4-1/png/pngset.c ****          return;
 1846              		.loc 1 351 10 is_stmt 1 view .LVU507
 1847 0235 488D3500 		leaq	.LC20(%rip), %rsi
 1847      000000
 1848              	.LVL151:
 1849              	.L127:
 360:fltk-1.3.4-1/png/pngset.c **** #endif
 1850              		.loc 1 360 1 is_stmt 0 view .LVU508
 1851 023c 4883C438 		addq	$56, %rsp
 1852              		.cfi_remember_state
 1853              		.cfi_def_cfa_offset 56
 351:fltk-1.3.4-1/png/pngset.c ****          return;
 1854              		.loc 1 351 10 view .LVU509
 1855 0240 4C89E7   		movq	%r12, %rdi
 360:fltk-1.3.4-1/png/pngset.c **** #endif
 1856              		.loc 1 360 1 view .LVU510
 1857 0243 5B       		popq	%rbx
 1858              		.cfi_def_cfa_offset 48
 1859              	.LVL152:
 360:fltk-1.3.4-1/png/pngset.c **** #endif
 1860              		.loc 1 360 1 view .LVU511
 1861 0244 5D       		popq	%rbp
 1862              		.cfi_def_cfa_offset 40
 1863 0245 415C     		popq	%r12
 1864              		.cfi_def_cfa_offset 32
 1865              	.LVL153:
 360:fltk-1.3.4-1/png/pngset.c **** #endif
 1866              		.loc 1 360 1 view .LVU512
 1867 0247 415D     		popq	%r13
 1868              		.cfi_def_cfa_offset 24
 1869 0249 415E     		popq	%r14
 1870              		.cfi_def_cfa_offset 16
 1871 024b 415F     		popq	%r15
 1872              		.cfi_def_cfa_offset 8
 351:fltk-1.3.4-1/png/pngset.c ****          return;
 1873              		.loc 1 351 10 view .LVU513
 1874 024d E9000000 		jmp	png_warning@PLT
 1874      00
 1875              	.LVL154:
 1876              		.p2align 4,,10
 1877 0252 660F1F44 		.p2align 3
 1877      0000
 1878              	.L114:
 1879              		.cfi_restore_state
 358:fltk-1.3.4-1/png/pngset.c ****    info_ptr->free_me |= PNG_FREE_PCAL;
 1880              		.loc 1 358 4 is_stmt 1 view .LVU514
 358:fltk-1.3.4-1/png/pngset.c ****    info_ptr->free_me |= PNG_FREE_PCAL;
 1881              		.loc 1 358 20 is_stmt 0 view .LVU515
 1882 0258 814B0800 		orl	$1024, 8(%rbx)
 1882      040000
 359:fltk-1.3.4-1/png/pngset.c **** }
 1883              		.loc 1 359 4 is_stmt 1 view .LVU516
 359:fltk-1.3.4-1/png/pngset.c **** }
 1884              		.loc 1 359 22 is_stmt 0 view .LVU517
 1885 025f 818B1C01 		orl	$128, 284(%rbx)
 1885      00008000 
 1885      0000
 360:fltk-1.3.4-1/png/pngset.c **** #endif
 1886              		.loc 1 360 1 view .LVU518
 1887 0269 4883C438 		addq	$56, %rsp
 1888              		.cfi_remember_state
 1889              		.cfi_def_cfa_offset 56
 1890 026d 5B       		popq	%rbx
 1891              		.cfi_def_cfa_offset 48
 1892              	.LVL155:
 360:fltk-1.3.4-1/png/pngset.c **** #endif
 1893              		.loc 1 360 1 view .LVU519
 1894 026e 5D       		popq	%rbp
 1895              		.cfi_def_cfa_offset 40
 1896 026f 415C     		popq	%r12
 1897              		.cfi_def_cfa_offset 32
 1898              	.LVL156:
 360:fltk-1.3.4-1/png/pngset.c **** #endif
 1899              		.loc 1 360 1 view .LVU520
 1900 0271 415D     		popq	%r13
 1901              		.cfi_def_cfa_offset 24
 1902 0273 415E     		popq	%r14
 1903              		.cfi_def_cfa_offset 16
 1904              	.LVL157:
 360:fltk-1.3.4-1/png/pngset.c **** #endif
 1905              		.loc 1 360 1 view .LVU521
 1906 0275 415F     		popq	%r15
 1907              		.cfi_def_cfa_offset 8
 1908 0277 C3       		ret
 1909              	.LVL158:
 1910              	.L109:
 1911              		.cfi_restore_state
 295:fltk-1.3.4-1/png/pngset.c ****    }
 1912              		.loc 1 295 10 is_stmt 1 view .LVU522
 1913 0278 488D3500 		leaq	.LC16(%rip), %rsi
 1913      000000
 1914 027f 4C89E7   		movq	%r12, %rdi
 1915 0282 E8000000 		call	png_error@PLT
 1915      00
 1916              	.LVL159:
 1917              	.L128:
 285:fltk-1.3.4-1/png/pngset.c **** 
 1918              		.loc 1 285 7 view .LVU523
 1919 0287 488D3500 		leaq	.LC14(%rip), %rsi
 1919      000000
 1920 028e 4C89E7   		movq	%r12, %rdi
 1921 0291 E8000000 		call	png_error@PLT
 1921      00
 1922              	.LVL160:
 1923              	.L105:
 288:fltk-1.3.4-1/png/pngset.c **** 
 1924              		.loc 1 288 7 view .LVU524
 1925 0296 488D3500 		leaq	.LC15(%rip), %rsi
 1925      000000
 1926 029d 4C89E7   		movq	%r12, %rdi
 1927 02a0 E8000000 		call	png_error@PLT
 1927      00
 1928              	.LVL161:
 1929              	.L130:
 324:fltk-1.3.4-1/png/pngset.c ****       return;
 1930              		.loc 1 324 7 view .LVU525
 1931 02a5 488D3500 		leaq	.LC18(%rip), %rsi
 1931      000000
 1932 02ac EB8E     		jmp	.L127
 1933              	.L131:
 335:fltk-1.3.4-1/png/pngset.c ****       return;
 1934              		.loc 1 335 7 view .LVU526
 1935 02ae 488D3500 		leaq	.LC19(%rip), %rsi
 1935      000000
 1936 02b5 EB85     		jmp	.L127
 1937              	.LVL162:
 1938              	.L129:
 303:fltk-1.3.4-1/png/pngset.c ****       return;
 1939              		.loc 1 303 7 view .LVU527
 1940 02b7 488D3500 		leaq	.LC17(%rip), %rsi
 1940      000000
 1941 02be E979FFFF 		jmp	.L127
 1941      FF
 1942              		.cfi_endproc
 1943              	.LFE51:
 1945              		.section	.rodata.png_set_sCAL_s.str1.1,"aMS",@progbits,1
 1946              	.LC21:
 1947 0000 496E7661 		.string	"Invalid sCAL unit"
 1947      6C696420 
 1947      7343414C 
 1947      20756E69 
 1947      7400
 1948              	.LC22:
 1949 0012 496E7661 		.string	"Invalid sCAL width"
 1949      6C696420 
 1949      7343414C 
 1949      20776964 
 1949      746800
 1950              	.LC23:
 1951 0025 496E7661 		.string	"Invalid sCAL height"
 1951      6C696420 
 1951      7343414C 
 1951      20686569 
 1951      67687400 
 1952              		.section	.rodata.png_set_sCAL_s.str1.8,"aMS",@progbits,1
 1953              		.align 8
 1954              	.LC24:
 1955 0000 4D656D6F 		.string	"Memory allocation failed while processing sCAL"
 1955      72792061 
 1955      6C6C6F63 
 1955      6174696F 
 1955      6E206661 
 1956              		.section	.text.png_set_sCAL_s,"ax",@progbits
 1957              		.p2align 4
 1958              		.globl	png_set_sCAL_s
 1960              	png_set_sCAL_s:
 1961              	.LVL163:
 1962              	.LFB52:
 367:fltk-1.3.4-1/png/pngset.c ****    png_size_t lengthw = 0, lengthh = 0;
 1963              		.loc 1 367 1 view -0
 1964              		.cfi_startproc
 367:fltk-1.3.4-1/png/pngset.c ****    png_size_t lengthw = 0, lengthh = 0;
 1965              		.loc 1 367 1 is_stmt 0 view .LVU529
 1966 0000 F30F1EFA 		endbr64
 1967 0004 4157     		pushq	%r15
 1968              		.cfi_def_cfa_offset 16
 1969              		.cfi_offset 15, -16
 1970 0006 4156     		pushq	%r14
 1971              		.cfi_def_cfa_offset 24
 1972              		.cfi_offset 14, -24
 1973 0008 4155     		pushq	%r13
 1974              		.cfi_def_cfa_offset 32
 1975              		.cfi_offset 13, -32
 1976 000a 4154     		pushq	%r12
 1977              		.cfi_def_cfa_offset 40
 1978              		.cfi_offset 12, -40
 1979 000c 55       		pushq	%rbp
 1980              		.cfi_def_cfa_offset 48
 1981              		.cfi_offset 6, -48
 1982 000d 53       		pushq	%rbx
 1983              		.cfi_def_cfa_offset 56
 1984              		.cfi_offset 3, -56
 1985 000e 4883EC18 		subq	$24, %rsp
 1986              		.cfi_def_cfa_offset 80
 367:fltk-1.3.4-1/png/pngset.c ****    png_size_t lengthw = 0, lengthh = 0;
 1987              		.loc 1 367 1 view .LVU530
 1988 0012 8954240C 		movl	%edx, 12(%rsp)
 368:fltk-1.3.4-1/png/pngset.c **** 
 1989              		.loc 1 368 4 is_stmt 1 view .LVU531
 1990              	.LVL164:
 370:fltk-1.3.4-1/png/pngset.c **** 
 1991              		.loc 1 370 4 view .LVU532
 372:fltk-1.3.4-1/png/pngset.c ****       return;
 1992              		.loc 1 372 4 view .LVU533
 372:fltk-1.3.4-1/png/pngset.c ****       return;
 1993              		.loc 1 372 7 is_stmt 0 view .LVU534
 1994 0016 4885FF   		testq	%rdi, %rdi
 1995 0019 0F840801 		je	.L132
 1995      0000
 1996 001f 4889F3   		movq	%rsi, %rbx
 1997 0022 4885F6   		testq	%rsi, %rsi
 1998 0025 0F84FC00 		je	.L132
 1998      0000
 378:fltk-1.3.4-1/png/pngset.c ****       png_error(png_ptr, "Invalid sCAL unit");
 1999              		.loc 1 378 18 view .LVU535
 2000 002b 8D42FF   		leal	-1(%rdx), %eax
 2001 002e 4989FF   		movq	%rdi, %r15
 378:fltk-1.3.4-1/png/pngset.c ****       png_error(png_ptr, "Invalid sCAL unit");
 2002              		.loc 1 378 4 is_stmt 1 view .LVU536
 378:fltk-1.3.4-1/png/pngset.c ****       png_error(png_ptr, "Invalid sCAL unit");
 2003              		.loc 1 378 7 is_stmt 0 view .LVU537
 2004 0031 83F801   		cmpl	$1, %eax
 2005 0034 0F875101 		ja	.L155
 2005      0000
 2006 003a 4889CD   		movq	%rcx, %rbp
 2007              	.LVL165:
 2008              	.LBB137:
 2009              	.LBI137:
 365:fltk-1.3.4-1/png/pngset.c ****     int unit, png_const_charp swidth, png_const_charp sheight)
 2010              		.loc 1 365 1 is_stmt 1 view .LVU538
 2011              	.LBB138:
 381:fltk-1.3.4-1/png/pngset.c ****        swidth[0] == 45 /* '-' */ || !png_check_fp_string(swidth, lengthw))
 2012              		.loc 1 381 4 view .LVU539
 381:fltk-1.3.4-1/png/pngset.c ****        swidth[0] == 45 /* '-' */ || !png_check_fp_string(swidth, lengthw))
 2013              		.loc 1 381 7 is_stmt 0 view .LVU540
 2014 003d 4885C9   		testq	%rcx, %rcx
 2015 0040 0F84F000 		je	.L136
 2015      0000
 381:fltk-1.3.4-1/png/pngset.c ****        swidth[0] == 45 /* '-' */ || !png_check_fp_string(swidth, lengthw))
 2016              		.loc 1 381 37 view .LVU541
 2017 0046 4889CF   		movq	%rcx, %rdi
 2018              	.LVL166:
 381:fltk-1.3.4-1/png/pngset.c ****        swidth[0] == 45 /* '-' */ || !png_check_fp_string(swidth, lengthw))
 2019              		.loc 1 381 37 view .LVU542
 2020 0049 4D89C4   		movq	%r8, %r12
 2021 004c E8000000 		call	strlen@PLT
 2021      00
 2022              	.LVL167:
 381:fltk-1.3.4-1/png/pngset.c ****        swidth[0] == 45 /* '-' */ || !png_check_fp_string(swidth, lengthw))
 2023              		.loc 1 381 37 view .LVU543
 2024 0051 4989C5   		movq	%rax, %r13
 2025              	.LVL168:
 381:fltk-1.3.4-1/png/pngset.c ****        swidth[0] == 45 /* '-' */ || !png_check_fp_string(swidth, lengthw))
 2026              		.loc 1 381 23 view .LVU544
 2027 0054 4885C0   		testq	%rax, %rax
 2028 0057 0F84D900 		je	.L136
 2028      0000
 381:fltk-1.3.4-1/png/pngset.c ****        swidth[0] == 45 /* '-' */ || !png_check_fp_string(swidth, lengthw))
 2029              		.loc 1 381 58 view .LVU545
 2030 005d 807D002D 		cmpb	$45, 0(%rbp)
 2031 0061 0F84CF00 		je	.L136
 2031      0000
 382:fltk-1.3.4-1/png/pngset.c ****       png_error(png_ptr, "Invalid sCAL width");
 2032              		.loc 1 382 38 view .LVU546
 2033 0067 4889C6   		movq	%rax, %rsi
 2034 006a 4889EF   		movq	%rbp, %rdi
 2035 006d E8000000 		call	png_check_fp_string@PLT
 2035      00
 2036              	.LVL169:
 382:fltk-1.3.4-1/png/pngset.c ****       png_error(png_ptr, "Invalid sCAL width");
 2037              		.loc 1 382 34 view .LVU547
 2038 0072 85C0     		testl	%eax, %eax
 2039 0074 0F84BC00 		je	.L136
 2039      0000
 385:fltk-1.3.4-1/png/pngset.c ****        sheight[0] == 45 /* '-' */ || !png_check_fp_string(sheight, lengthh))
 2040              		.loc 1 385 4 is_stmt 1 view .LVU548
 385:fltk-1.3.4-1/png/pngset.c ****        sheight[0] == 45 /* '-' */ || !png_check_fp_string(sheight, lengthh))
 2041              		.loc 1 385 7 is_stmt 0 view .LVU549
 2042 007a 4D85E4   		testq	%r12, %r12
 2043 007d 0F84C200 		je	.L138
 2043      0000
 385:fltk-1.3.4-1/png/pngset.c ****        sheight[0] == 45 /* '-' */ || !png_check_fp_string(sheight, lengthh))
 2044              		.loc 1 385 38 view .LVU550
 2045 0083 4C89E7   		movq	%r12, %rdi
 2046 0086 E8000000 		call	strlen@PLT
 2046      00
 2047              	.LVL170:
 2048 008b 4989C6   		movq	%rax, %r14
 2049              	.LVL171:
 385:fltk-1.3.4-1/png/pngset.c ****        sheight[0] == 45 /* '-' */ || !png_check_fp_string(sheight, lengthh))
 2050              		.loc 1 385 24 view .LVU551
 2051 008e 4885C0   		testq	%rax, %rax
 2052 0091 0F84AE00 		je	.L138
 2052      0000
 385:fltk-1.3.4-1/png/pngset.c ****        sheight[0] == 45 /* '-' */ || !png_check_fp_string(sheight, lengthh))
 2053              		.loc 1 385 60 view .LVU552
 2054 0097 41803C24 		cmpb	$45, (%r12)
 2054      2D
 2055 009c 0F84A300 		je	.L138
 2055      0000
 386:fltk-1.3.4-1/png/pngset.c ****       png_error(png_ptr, "Invalid sCAL height");
 2056              		.loc 1 386 39 view .LVU553
 2057 00a2 4889C6   		movq	%rax, %rsi
 2058 00a5 4C89E7   		movq	%r12, %rdi
 2059 00a8 E8000000 		call	png_check_fp_string@PLT
 2059      00
 2060              	.LVL172:
 386:fltk-1.3.4-1/png/pngset.c ****       png_error(png_ptr, "Invalid sCAL height");
 2061              		.loc 1 386 35 view .LVU554
 2062 00ad 85C0     		testl	%eax, %eax
 2063 00af 0F849000 		je	.L138
 2063      0000
 389:fltk-1.3.4-1/png/pngset.c **** 
 2064              		.loc 1 389 4 is_stmt 1 view .LVU555
 389:fltk-1.3.4-1/png/pngset.c **** 
 2065              		.loc 1 389 26 is_stmt 0 view .LVU556
 2066 00b5 0FB64424 		movzbl	12(%rsp), %eax
 2066      0C
 391:fltk-1.3.4-1/png/pngset.c **** 
 2067              		.loc 1 391 4 view .LVU557
 2068 00ba 4983C501 		addq	$1, %r13
 2069              	.LVL173:
 395:fltk-1.3.4-1/png/pngset.c ****       png_malloc_warn(png_ptr, lengthw));
 2070              		.loc 1 395 29 view .LVU558
 2071 00be 4C89FF   		movq	%r15, %rdi
 2072 00c1 4C89EE   		movq	%r13, %rsi
 389:fltk-1.3.4-1/png/pngset.c **** 
 2073              		.loc 1 389 26 view .LVU559
 2074 00c4 88833C01 		movb	%al, 316(%rbx)
 2074      0000
 391:fltk-1.3.4-1/png/pngset.c **** 
 2075              		.loc 1 391 4 is_stmt 1 view .LVU560
 2076              	.LVL174:
 393:fltk-1.3.4-1/png/pngset.c **** 
 2077              		.loc 1 393 4 view .LVU561
 395:fltk-1.3.4-1/png/pngset.c ****       png_malloc_warn(png_ptr, lengthw));
 2078              		.loc 1 395 4 view .LVU562
 395:fltk-1.3.4-1/png/pngset.c ****       png_malloc_warn(png_ptr, lengthw));
 2079              		.loc 1 395 29 is_stmt 0 view .LVU563
 2080 00ca E8000000 		call	png_malloc_warn@PLT
 2080      00
 2081              	.LVL175:
 395:fltk-1.3.4-1/png/pngset.c ****       png_malloc_warn(png_ptr, lengthw));
 2082              		.loc 1 395 27 view .LVU564
 2083 00cf 48898340 		movq	%rax, 320(%rbx)
 2083      010000
 398:fltk-1.3.4-1/png/pngset.c ****    {
 2084              		.loc 1 398 4 is_stmt 1 view .LVU565
 395:fltk-1.3.4-1/png/pngset.c ****       png_malloc_warn(png_ptr, lengthw));
 2085              		.loc 1 395 29 is_stmt 0 view .LVU566
 2086 00d6 4889C7   		movq	%rax, %rdi
 398:fltk-1.3.4-1/png/pngset.c ****    {
 2087              		.loc 1 398 7 view .LVU567
 2088 00d9 4885C0   		testq	%rax, %rax
 2089 00dc 0F848C00 		je	.L154
 2089      0000
 404:fltk-1.3.4-1/png/pngset.c **** 
 2090              		.loc 1 404 4 is_stmt 1 view .LVU568
 2091              	.LVL176:
 2092              	.LBB139:
 2093              	.LBI139:
  31:/usr/include/x86_64-linux-gnu/bits/string_fortified.h **** 	       size_t __len))
 2094              		.loc 2 31 1 view .LVU569
 2095              	.LBB140:
  34:/usr/include/x86_64-linux-gnu/bits/string_fortified.h **** }
 2096              		.loc 2 34 3 view .LVU570
  34:/usr/include/x86_64-linux-gnu/bits/string_fortified.h **** }
 2097              		.loc 2 34 10 is_stmt 0 view .LVU571
 2098 00e2 4C89EA   		movq	%r13, %rdx
 2099 00e5 4889EE   		movq	%rbp, %rsi
 2100              	.LBE140:
 2101              	.LBE139:
 406:fltk-1.3.4-1/png/pngset.c **** 
 2102              		.loc 1 406 4 view .LVU572
 2103 00e8 4983C601 		addq	$1, %r14
 2104              	.LVL177:
 2105              	.LBB142:
 2106              	.LBB141:
  34:/usr/include/x86_64-linux-gnu/bits/string_fortified.h **** }
 2107              		.loc 2 34 10 view .LVU573
 2108 00ec E8000000 		call	memcpy@PLT
 2108      00
 2109              	.LVL178:
  34:/usr/include/x86_64-linux-gnu/bits/string_fortified.h **** }
 2110              		.loc 2 34 10 view .LVU574
 2111              	.LBE141:
 2112              	.LBE142:
 406:fltk-1.3.4-1/png/pngset.c **** 
 2113              		.loc 1 406 4 is_stmt 1 view .LVU575
 408:fltk-1.3.4-1/png/pngset.c **** 
 2114              		.loc 1 408 4 view .LVU576
 410:fltk-1.3.4-1/png/pngset.c ****       png_malloc_warn(png_ptr, lengthh));
 2115              		.loc 1 410 4 view .LVU577
 410:fltk-1.3.4-1/png/pngset.c ****       png_malloc_warn(png_ptr, lengthh));
 2116              		.loc 1 410 30 is_stmt 0 view .LVU578
 2117 00f1 4C89FF   		movq	%r15, %rdi
 2118 00f4 4C89F6   		movq	%r14, %rsi
 2119 00f7 E8000000 		call	png_malloc_warn@PLT
 2119      00
 2120              	.LVL179:
 410:fltk-1.3.4-1/png/pngset.c ****       png_malloc_warn(png_ptr, lengthh));
 2121              		.loc 1 410 28 view .LVU579
 2122 00fc 48898348 		movq	%rax, 328(%rbx)
 2122      010000
 413:fltk-1.3.4-1/png/pngset.c ****    {
 2123              		.loc 1 413 4 is_stmt 1 view .LVU580
 410:fltk-1.3.4-1/png/pngset.c ****       png_malloc_warn(png_ptr, lengthh));
 2124              		.loc 1 410 30 is_stmt 0 view .LVU581
 2125 0103 4889C7   		movq	%rax, %rdi
 413:fltk-1.3.4-1/png/pngset.c ****    {
 2126              		.loc 1 413 7 view .LVU582
 2127 0106 4885C0   		testq	%rax, %rax
 2128 0109 7449     		je	.L156
 422:fltk-1.3.4-1/png/pngset.c **** 
 2129              		.loc 1 422 4 is_stmt 1 view .LVU583
 2130              	.LVL180:
 2131              	.LBB143:
 2132              	.LBI143:
  31:/usr/include/x86_64-linux-gnu/bits/string_fortified.h **** 	       size_t __len))
 2133              		.loc 2 31 1 view .LVU584
 2134              	.LBB144:
  34:/usr/include/x86_64-linux-gnu/bits/string_fortified.h **** }
 2135              		.loc 2 34 3 view .LVU585
  34:/usr/include/x86_64-linux-gnu/bits/string_fortified.h **** }
 2136              		.loc 2 34 10 is_stmt 0 view .LVU586
 2137 010b 4C89F2   		movq	%r14, %rdx
 2138 010e 4C89E6   		movq	%r12, %rsi
 2139 0111 E8000000 		call	memcpy@PLT
 2139      00
 2140              	.LVL181:
  34:/usr/include/x86_64-linux-gnu/bits/string_fortified.h **** }
 2141              		.loc 2 34 10 view .LVU587
 2142              	.LBE144:
 2143              	.LBE143:
 424:fltk-1.3.4-1/png/pngset.c ****    info_ptr->free_me |= PNG_FREE_SCAL;
 2144              		.loc 1 424 4 is_stmt 1 view .LVU588
 424:fltk-1.3.4-1/png/pngset.c ****    info_ptr->free_me |= PNG_FREE_SCAL;
 2145              		.loc 1 424 20 is_stmt 0 view .LVU589
 2146 0116 814B0800 		orl	$16384, 8(%rbx)
 2146      400000
 425:fltk-1.3.4-1/png/pngset.c **** }
 2147              		.loc 1 425 4 is_stmt 1 view .LVU590
 425:fltk-1.3.4-1/png/pngset.c **** }
 2148              		.loc 1 425 22 is_stmt 0 view .LVU591
 2149 011d 818B1C01 		orl	$256, 284(%rbx)
 2149      00000001 
 2149      0000
 2150              	.LVL182:
 2151              	.L132:
 425:fltk-1.3.4-1/png/pngset.c **** }
 2152              		.loc 1 425 22 view .LVU592
 2153              	.LBE138:
 2154              	.LBE137:
 426:fltk-1.3.4-1/png/pngset.c **** 
 2155              		.loc 1 426 1 view .LVU593
 2156 0127 4883C418 		addq	$24, %rsp
 2157              		.cfi_remember_state
 2158              		.cfi_def_cfa_offset 56
 2159 012b 5B       		popq	%rbx
 2160              		.cfi_def_cfa_offset 48
 2161 012c 5D       		popq	%rbp
 2162              		.cfi_def_cfa_offset 40
 2163 012d 415C     		popq	%r12
 2164              		.cfi_def_cfa_offset 32
 2165 012f 415D     		popq	%r13
 2166              		.cfi_def_cfa_offset 24
 2167 0131 415E     		popq	%r14
 2168              		.cfi_def_cfa_offset 16
 2169 0133 415F     		popq	%r15
 2170              		.cfi_def_cfa_offset 8
 2171 0135 C3       		ret
 2172              	.LVL183:
 2173              	.L136:
 2174              		.cfi_restore_state
 2175              	.LBB148:
 2176              	.LBB145:
 383:fltk-1.3.4-1/png/pngset.c **** 
 2177              		.loc 1 383 7 is_stmt 1 view .LVU594
 2178 0136 488D3500 		leaq	.LC22(%rip), %rsi
 2178      000000
 2179 013d 4C89FF   		movq	%r15, %rdi
 2180 0140 E8000000 		call	png_error@PLT
 2180      00
 2181              	.LVL184:
 2182              	.L138:
 387:fltk-1.3.4-1/png/pngset.c **** 
 2183              		.loc 1 387 7 view .LVU595
 2184 0145 488D3500 		leaq	.LC23(%rip), %rsi
 2184      000000
 2185 014c 4C89FF   		movq	%r15, %rdi
 2186 014f E8000000 		call	png_error@PLT
 2186      00
 2187              	.LVL185:
 2188              	.L156:
 415:fltk-1.3.4-1/png/pngset.c ****       info_ptr->scal_s_width = NULL;
 2189              		.loc 1 415 7 view .LVU596
 2190 0154 488BB340 		movq	320(%rbx), %rsi
 2190      010000
 2191 015b 4C89FF   		movq	%r15, %rdi
 2192 015e E8000000 		call	png_free@PLT
 2192      00
 2193              	.LVL186:
 416:fltk-1.3.4-1/png/pngset.c **** 
 2194              		.loc 1 416 7 view .LVU597
 416:fltk-1.3.4-1/png/pngset.c **** 
 2195              		.loc 1 416 30 is_stmt 0 view .LVU598
 2196 0163 48C78340 		movq	$0, 320(%rbx)
 2196      01000000 
 2196      000000
 2197              	.L154:
 418:fltk-1.3.4-1/png/pngset.c ****       return;
 2198              		.loc 1 418 7 is_stmt 1 view .LVU599
 2199              	.LBE145:
 2200              	.LBE148:
 426:fltk-1.3.4-1/png/pngset.c **** 
 2201              		.loc 1 426 1 is_stmt 0 view .LVU600
 2202 016e 4883C418 		addq	$24, %rsp
 2203              		.cfi_remember_state
 2204              		.cfi_def_cfa_offset 56
 2205              	.LBB149:
 2206              	.LBB146:
 418:fltk-1.3.4-1/png/pngset.c ****       return;
 2207              		.loc 1 418 7 view .LVU601
 2208 0172 4C89FF   		movq	%r15, %rdi
 2209 0175 488D3500 		leaq	.LC24(%rip), %rsi
 2209      000000
 2210              	.LBE146:
 2211              	.LBE149:
 426:fltk-1.3.4-1/png/pngset.c **** 
 2212              		.loc 1 426 1 view .LVU602
 2213 017c 5B       		popq	%rbx
 2214              		.cfi_def_cfa_offset 48
 2215              	.LVL187:
 426:fltk-1.3.4-1/png/pngset.c **** 
 2216              		.loc 1 426 1 view .LVU603
 2217 017d 5D       		popq	%rbp
 2218              		.cfi_def_cfa_offset 40
 2219              	.LVL188:
 426:fltk-1.3.4-1/png/pngset.c **** 
 2220              		.loc 1 426 1 view .LVU604
 2221 017e 415C     		popq	%r12
 2222              		.cfi_def_cfa_offset 32
 2223              	.LVL189:
 426:fltk-1.3.4-1/png/pngset.c **** 
 2224              		.loc 1 426 1 view .LVU605
 2225 0180 415D     		popq	%r13
 2226              		.cfi_def_cfa_offset 24
 2227              	.LVL190:
 426:fltk-1.3.4-1/png/pngset.c **** 
 2228              		.loc 1 426 1 view .LVU606
 2229 0182 415E     		popq	%r14
 2230              		.cfi_def_cfa_offset 16
 2231              	.LVL191:
 426:fltk-1.3.4-1/png/pngset.c **** 
 2232              		.loc 1 426 1 view .LVU607
 2233 0184 415F     		popq	%r15
 2234              		.cfi_def_cfa_offset 8
 2235              	.LVL192:
 2236              	.LBB150:
 2237              	.LBB147:
 418:fltk-1.3.4-1/png/pngset.c ****       return;
 2238              		.loc 1 418 7 view .LVU608
 2239 0186 E9000000 		jmp	png_warning@PLT
 2239      00
 2240              	.LVL193:
 2241              	.L155:
 2242              		.cfi_restore_state
 418:fltk-1.3.4-1/png/pngset.c ****       return;
 2243              		.loc 1 418 7 view .LVU609
 2244              	.LBE147:
 2245              	.LBE150:
 379:fltk-1.3.4-1/png/pngset.c **** 
 2246              		.loc 1 379 7 is_stmt 1 view .LVU610
 2247 018b 488D3500 		leaq	.LC21(%rip), %rsi
 2247      000000
 2248 0192 E8000000 		call	png_error@PLT
 2248      00
 2249              	.LVL194:
 379:fltk-1.3.4-1/png/pngset.c **** 
 2250              		.loc 1 379 7 is_stmt 0 view .LVU611
 2251              		.cfi_endproc
 2252              	.LFE52:
 2254              		.section	.rodata.png_set_sCAL.str1.1,"aMS",@progbits,1
 2255              	.LC26:
 2256 0000 496E7661 		.string	"Invalid sCAL width ignored"
 2256      6C696420 
 2256      7343414C 
 2256      20776964 
 2256      74682069 
 2257              	.LC27:
 2258 001b 496E7661 		.string	"Invalid sCAL height ignored"
 2258      6C696420 
 2258      7343414C 
 2258      20686569 
 2258      67687420 
 2259              		.section	.text.png_set_sCAL,"ax",@progbits
 2260              		.p2align 4
 2261              		.globl	png_set_sCAL
 2263              	png_set_sCAL:
 2264              	.LVL195:
 2265              	.LFB53:
 432:fltk-1.3.4-1/png/pngset.c ****    png_debug1(1, "in %s storage function", "sCAL");
 2266              		.loc 1 432 1 is_stmt 1 view -0
 2267              		.cfi_startproc
 432:fltk-1.3.4-1/png/pngset.c ****    png_debug1(1, "in %s storage function", "sCAL");
 2268              		.loc 1 432 1 is_stmt 0 view .LVU613
 2269 0000 F30F1EFA 		endbr64
 2270 0004 4156     		pushq	%r14
 2271              		.cfi_def_cfa_offset 16
 2272              		.cfi_offset 14, -16
 436:fltk-1.3.4-1/png/pngset.c ****       png_warning(png_ptr, "Invalid sCAL width ignored");
 2273              		.loc 1 436 7 view .LVU614
 2274 0006 660FEFD2 		pxor	%xmm2, %xmm2
 432:fltk-1.3.4-1/png/pngset.c ****    png_debug1(1, "in %s storage function", "sCAL");
 2275              		.loc 1 432 1 view .LVU615
 2276 000a 4155     		pushq	%r13
 2277              		.cfi_def_cfa_offset 24
 2278              		.cfi_offset 13, -24
 2279 000c 4154     		pushq	%r12
 2280              		.cfi_def_cfa_offset 32
 2281              		.cfi_offset 12, -32
 2282 000e 55       		pushq	%rbp
 2283              		.cfi_def_cfa_offset 40
 2284              		.cfi_offset 6, -40
 2285 000f 4889FD   		movq	%rdi, %rbp
 2286 0012 53       		pushq	%rbx
 2287              		.cfi_def_cfa_offset 48
 2288              		.cfi_offset 3, -48
 2289 0013 4883EC50 		subq	$80, %rsp
 2290              		.cfi_def_cfa_offset 128
 432:fltk-1.3.4-1/png/pngset.c ****    png_debug1(1, "in %s storage function", "sCAL");
 2291              		.loc 1 432 1 view .LVU616
 2292 0017 64488B04 		movq	%fs:40, %rax
 2292      25280000 
 2292      00
 2293 0020 48894424 		movq	%rax, 72(%rsp)
 2293      48
 2294 0025 31C0     		xorl	%eax, %eax
 433:fltk-1.3.4-1/png/pngset.c **** 
 2295              		.loc 1 433 4 is_stmt 1 view .LVU617
 436:fltk-1.3.4-1/png/pngset.c ****       png_warning(png_ptr, "Invalid sCAL width ignored");
 2296              		.loc 1 436 4 view .LVU618
 436:fltk-1.3.4-1/png/pngset.c ****       png_warning(png_ptr, "Invalid sCAL width ignored");
 2297              		.loc 1 436 7 is_stmt 0 view .LVU619
 2298 0027 660F2FD0 		comisd	%xmm0, %xmm2
 2299 002b 0F838F00 		jnb	.L169
 2299      0000
 439:fltk-1.3.4-1/png/pngset.c ****       png_warning(png_ptr, "Invalid sCAL height ignored");
 2300              		.loc 1 439 9 is_stmt 1 view .LVU620
 439:fltk-1.3.4-1/png/pngset.c ****       png_warning(png_ptr, "Invalid sCAL height ignored");
 2301              		.loc 1 439 12 is_stmt 0 view .LVU621
 2302 0031 660F2FD1 		comisd	%xmm1, %xmm2
 2303 0035 7379     		jnb	.L170
 2304              	.LBB151:
 448:fltk-1.3.4-1/png/pngset.c ****          PNG_sCAL_PRECISION);
 2305              		.loc 1 448 7 view .LVU622
 2306 0037 4C8D7424 		leaq	16(%rsp), %r14
 2306      10
 2307 003c 4989F4   		movq	%rsi, %r12
 2308 003f 4189D5   		movl	%edx, %r13d
 2309 0042 B9050000 		movl	$5, %ecx
 2309      00
 2310 0047 BA120000 		movl	$18, %edx
 2310      00
 2311              	.LVL196:
 448:fltk-1.3.4-1/png/pngset.c ****          PNG_sCAL_PRECISION);
 2312              		.loc 1 448 7 view .LVU623
 2313 004c 4C89F6   		movq	%r14, %rsi
 2314              	.LVL197:
 448:fltk-1.3.4-1/png/pngset.c ****          PNG_sCAL_PRECISION);
 2315              		.loc 1 448 7 view .LVU624
 2316 004f F20F114C 		movsd	%xmm1, 8(%rsp)
 2316      2408
 445:fltk-1.3.4-1/png/pngset.c ****       char sheight[PNG_sCAL_MAX_DIGITS+1];
 2317              		.loc 1 445 7 is_stmt 1 view .LVU625
 446:fltk-1.3.4-1/png/pngset.c **** 
 2318              		.loc 1 446 7 view .LVU626
 448:fltk-1.3.4-1/png/pngset.c ****          PNG_sCAL_PRECISION);
 2319              		.loc 1 448 7 view .LVU627
 450:fltk-1.3.4-1/png/pngset.c ****          PNG_sCAL_PRECISION);
 2320              		.loc 1 450 7 is_stmt 0 view .LVU628
 2321 0055 488D5C24 		leaq	48(%rsp), %rbx
 2321      30
 448:fltk-1.3.4-1/png/pngset.c ****          PNG_sCAL_PRECISION);
 2322              		.loc 1 448 7 view .LVU629
 2323 005a E8000000 		call	png_ascii_from_fp@PLT
 2323      00
 2324              	.LVL198:
 450:fltk-1.3.4-1/png/pngset.c ****          PNG_sCAL_PRECISION);
 2325              		.loc 1 450 7 is_stmt 1 view .LVU630
 2326 005f B9050000 		movl	$5, %ecx
 2326      00
 2327 0064 4889DE   		movq	%rbx, %rsi
 2328 0067 4889EF   		movq	%rbp, %rdi
 2329 006a F20F104C 		movsd	8(%rsp), %xmm1
 2329      2408
 2330 0070 BA120000 		movl	$18, %edx
 2330      00
 2331 0075 660F28C1 		movapd	%xmm1, %xmm0
 2332 0079 E8000000 		call	png_ascii_from_fp@PLT
 2332      00
 2333              	.LVL199:
 453:fltk-1.3.4-1/png/pngset.c ****    }
 2334              		.loc 1 453 7 view .LVU631
 2335 007e 4989D8   		movq	%rbx, %r8
 2336 0081 4C89F1   		movq	%r14, %rcx
 2337 0084 4489EA   		movl	%r13d, %edx
 2338 0087 4C89E6   		movq	%r12, %rsi
 2339 008a 4889EF   		movq	%rbp, %rdi
 2340 008d E8000000 		call	png_set_sCAL_s
 2340      00
 2341              	.LVL200:
 2342              	.L157:
 453:fltk-1.3.4-1/png/pngset.c ****    }
 2343              		.loc 1 453 7 is_stmt 0 view .LVU632
 2344              	.LBE151:
 455:fltk-1.3.4-1/png/pngset.c **** #  endif
 2345              		.loc 1 455 1 view .LVU633
 2346 0092 488B4424 		movq	72(%rsp), %rax
 2346      48
 2347 0097 64483304 		xorq	%fs:40, %rax
 2347      25280000 
 2347      00
 2348 00a0 752C     		jne	.L171
 2349 00a2 4883C450 		addq	$80, %rsp
 2350              		.cfi_remember_state
 2351              		.cfi_def_cfa_offset 48
 2352 00a6 5B       		popq	%rbx
 2353              		.cfi_def_cfa_offset 40
 2354 00a7 5D       		popq	%rbp
 2355              		.cfi_def_cfa_offset 32
 2356              	.LVL201:
 455:fltk-1.3.4-1/png/pngset.c **** #  endif
 2357              		.loc 1 455 1 view .LVU634
 2358 00a8 415C     		popq	%r12
 2359              		.cfi_def_cfa_offset 24
 2360 00aa 415D     		popq	%r13
 2361              		.cfi_def_cfa_offset 16
 2362 00ac 415E     		popq	%r14
 2363              		.cfi_def_cfa_offset 8
 2364 00ae C3       		ret
 2365              	.LVL202:
 2366 00af 90       		.p2align 4,,10
 2367              		.p2align 3
 2368              	.L170:
 2369              		.cfi_restore_state
 440:fltk-1.3.4-1/png/pngset.c **** 
 2370              		.loc 1 440 7 is_stmt 1 view .LVU635
 2371 00b0 488D3500 		leaq	.LC27(%rip), %rsi
 2371      000000
 2372              	.LVL203:
 440:fltk-1.3.4-1/png/pngset.c **** 
 2373              		.loc 1 440 7 is_stmt 0 view .LVU636
 2374 00b7 E8000000 		call	png_warning@PLT
 2374      00
 2375              	.LVL204:
 440:fltk-1.3.4-1/png/pngset.c **** 
 2376              		.loc 1 440 7 view .LVU637
 2377 00bc EBD4     		jmp	.L157
 2378              	.LVL205:
 2379 00be 6690     		.p2align 4,,10
 2380              		.p2align 3
 2381              	.L169:
 437:fltk-1.3.4-1/png/pngset.c **** 
 2382              		.loc 1 437 7 is_stmt 1 view .LVU638
 2383 00c0 488D3500 		leaq	.LC26(%rip), %rsi
 2383      000000
 2384              	.LVL206:
 437:fltk-1.3.4-1/png/pngset.c **** 
 2385              		.loc 1 437 7 is_stmt 0 view .LVU639
 2386 00c7 E8000000 		call	png_warning@PLT
 2386      00
 2387              	.LVL207:
 437:fltk-1.3.4-1/png/pngset.c **** 
 2388              		.loc 1 437 7 view .LVU640
 2389 00cc EBC4     		jmp	.L157
 2390              	.L171:
 455:fltk-1.3.4-1/png/pngset.c **** #  endif
 2391              		.loc 1 455 1 view .LVU641
 2392 00ce E8000000 		call	__stack_chk_fail@PLT
 2392      00
 2393              	.LVL208:
 2394              		.cfi_endproc
 2395              	.LFE53:
 2397              		.section	.text.png_set_sCAL_fixed,"ax",@progbits
 2398              		.p2align 4
 2399              		.globl	png_set_sCAL_fixed
 2401              	png_set_sCAL_fixed:
 2402              	.LVL209:
 2403              	.LFB54:
 462:fltk-1.3.4-1/png/pngset.c ****    png_debug1(1, "in %s storage function", "sCAL");
 2404              		.loc 1 462 1 is_stmt 1 view -0
 2405              		.cfi_startproc
 462:fltk-1.3.4-1/png/pngset.c ****    png_debug1(1, "in %s storage function", "sCAL");
 2406              		.loc 1 462 1 is_stmt 0 view .LVU643
 2407 0000 F30F1EFA 		endbr64
 2408 0004 4157     		pushq	%r15
 2409              		.cfi_def_cfa_offset 16
 2410              		.cfi_offset 15, -16
 2411 0006 4156     		pushq	%r14
 2412              		.cfi_def_cfa_offset 24
 2413              		.cfi_offset 14, -24
 2414 0008 4155     		pushq	%r13
 2415              		.cfi_def_cfa_offset 32
 2416              		.cfi_offset 13, -32
 2417 000a 4154     		pushq	%r12
 2418              		.cfi_def_cfa_offset 40
 2419              		.cfi_offset 12, -40
 2420 000c 55       		pushq	%rbp
 2421              		.cfi_def_cfa_offset 48
 2422              		.cfi_offset 6, -48
 2423 000d 4889FD   		movq	%rdi, %rbp
 2424 0010 53       		pushq	%rbx
 2425              		.cfi_def_cfa_offset 56
 2426              		.cfi_offset 3, -56
 2427 0011 4883EC48 		subq	$72, %rsp
 2428              		.cfi_def_cfa_offset 128
 462:fltk-1.3.4-1/png/pngset.c ****    png_debug1(1, "in %s storage function", "sCAL");
 2429              		.loc 1 462 1 view .LVU644
 2430 0015 64488B04 		movq	%fs:40, %rax
 2430      25280000 
 2430      00
 2431 001e 48894424 		movq	%rax, 56(%rsp)
 2431      38
 2432 0023 31C0     		xorl	%eax, %eax
 463:fltk-1.3.4-1/png/pngset.c **** 
 2433              		.loc 1 463 4 is_stmt 1 view .LVU645
 466:fltk-1.3.4-1/png/pngset.c ****       png_warning(png_ptr, "Invalid sCAL width ignored");
 2434              		.loc 1 466 4 view .LVU646
 466:fltk-1.3.4-1/png/pngset.c ****       png_warning(png_ptr, "Invalid sCAL width ignored");
 2435              		.loc 1 466 7 is_stmt 0 view .LVU647
 2436 0025 85C9     		testl	%ecx, %ecx
 2437 0027 0F8E8300 		jle	.L178
 2437      0000
 2438 002d 4589C4   		movl	%r8d, %r12d
 469:fltk-1.3.4-1/png/pngset.c ****       png_warning(png_ptr, "Invalid sCAL height ignored");
 2439              		.loc 1 469 9 is_stmt 1 view .LVU648
 469:fltk-1.3.4-1/png/pngset.c ****       png_warning(png_ptr, "Invalid sCAL height ignored");
 2440              		.loc 1 469 12 is_stmt 0 view .LVU649
 2441 0030 4585C0   		testl	%r8d, %r8d
 2442 0033 7E6B     		jle	.L179
 2443              	.LBB152:
 478:fltk-1.3.4-1/png/pngset.c ****       png_ascii_from_fixed(png_ptr, sheight, (sizeof sheight), height);
 2444              		.loc 1 478 7 view .LVU650
 2445 0035 4989E7   		movq	%rsp, %r15
 2446 0038 4989F5   		movq	%rsi, %r13
 479:fltk-1.3.4-1/png/pngset.c **** 
 2447              		.loc 1 479 7 view .LVU651
 2448 003b 488D5C24 		leaq	32(%rsp), %rbx
 2448      20
 2449 0040 4189D6   		movl	%edx, %r14d
 475:fltk-1.3.4-1/png/pngset.c ****       char sheight[PNG_sCAL_MAX_DIGITS+1];
 2450              		.loc 1 475 7 is_stmt 1 view .LVU652
 476:fltk-1.3.4-1/png/pngset.c **** 
 2451              		.loc 1 476 7 view .LVU653
 478:fltk-1.3.4-1/png/pngset.c ****       png_ascii_from_fixed(png_ptr, sheight, (sizeof sheight), height);
 2452              		.loc 1 478 7 view .LVU654
 2453 0043 4C89FE   		movq	%r15, %rsi
 2454              	.LVL210:
 478:fltk-1.3.4-1/png/pngset.c ****       png_ascii_from_fixed(png_ptr, sheight, (sizeof sheight), height);
 2455              		.loc 1 478 7 is_stmt 0 view .LVU655
 2456 0046 BA120000 		movl	$18, %edx
 2456      00
 2457              	.LVL211:
 478:fltk-1.3.4-1/png/pngset.c ****       png_ascii_from_fixed(png_ptr, sheight, (sizeof sheight), height);
 2458              		.loc 1 478 7 view .LVU656
 2459 004b E8000000 		call	png_ascii_from_fixed@PLT
 2459      00
 2460              	.LVL212:
 479:fltk-1.3.4-1/png/pngset.c **** 
 2461              		.loc 1 479 7 is_stmt 1 view .LVU657
 2462 0050 4489E1   		movl	%r12d, %ecx
 2463 0053 BA120000 		movl	$18, %edx
 2463      00
 2464 0058 4889DE   		movq	%rbx, %rsi
 2465 005b 4889EF   		movq	%rbp, %rdi
 2466 005e E8000000 		call	png_ascii_from_fixed@PLT
 2466      00
 2467              	.LVL213:
 481:fltk-1.3.4-1/png/pngset.c ****    }
 2468              		.loc 1 481 7 view .LVU658
 2469 0063 4989D8   		movq	%rbx, %r8
 2470 0066 4C89F9   		movq	%r15, %rcx
 2471 0069 4489F2   		movl	%r14d, %edx
 2472 006c 4C89EE   		movq	%r13, %rsi
 2473 006f 4889EF   		movq	%rbp, %rdi
 2474 0072 E8000000 		call	png_set_sCAL_s
 2474      00
 2475              	.LVL214:
 2476              	.L172:
 481:fltk-1.3.4-1/png/pngset.c ****    }
 2477              		.loc 1 481 7 is_stmt 0 view .LVU659
 2478              	.LBE152:
 483:fltk-1.3.4-1/png/pngset.c **** #  endif
 2479              		.loc 1 483 1 view .LVU660
 2480 0077 488B4424 		movq	56(%rsp), %rax
 2480      38
 2481 007c 64483304 		xorq	%fs:40, %rax
 2481      25280000 
 2481      00
 2482 0085 7537     		jne	.L180
 2483 0087 4883C448 		addq	$72, %rsp
 2484              		.cfi_remember_state
 2485              		.cfi_def_cfa_offset 56
 2486 008b 5B       		popq	%rbx
 2487              		.cfi_def_cfa_offset 48
 2488 008c 5D       		popq	%rbp
 2489              		.cfi_def_cfa_offset 40
 2490              	.LVL215:
 483:fltk-1.3.4-1/png/pngset.c **** #  endif
 2491              		.loc 1 483 1 view .LVU661
 2492 008d 415C     		popq	%r12
 2493              		.cfi_def_cfa_offset 32
 2494 008f 415D     		popq	%r13
 2495              		.cfi_def_cfa_offset 24
 2496 0091 415E     		popq	%r14
 2497              		.cfi_def_cfa_offset 16
 2498 0093 415F     		popq	%r15
 2499              		.cfi_def_cfa_offset 8
 2500 0095 C3       		ret
 2501              	.LVL216:
 2502 0096 662E0F1F 		.p2align 4,,10
 2502      84000000 
 2502      0000
 2503              		.p2align 3
 2504              	.L179:
 2505              		.cfi_restore_state
 470:fltk-1.3.4-1/png/pngset.c **** 
 2506              		.loc 1 470 7 is_stmt 1 view .LVU662
 2507 00a0 488D3500 		leaq	.LC27(%rip), %rsi
 2507      000000
 2508              	.LVL217:
 470:fltk-1.3.4-1/png/pngset.c **** 
 2509              		.loc 1 470 7 is_stmt 0 view .LVU663
 2510 00a7 E8000000 		call	png_warning@PLT
 2510      00
 2511              	.LVL218:
 470:fltk-1.3.4-1/png/pngset.c **** 
 2512              		.loc 1 470 7 view .LVU664
 2513 00ac EBC9     		jmp	.L172
 2514              	.LVL219:
 2515 00ae 6690     		.p2align 4,,10
 2516              		.p2align 3
 2517              	.L178:
 467:fltk-1.3.4-1/png/pngset.c **** 
 2518              		.loc 1 467 7 is_stmt 1 view .LVU665
 2519 00b0 488D3500 		leaq	.LC26(%rip), %rsi
 2519      000000
 2520              	.LVL220:
 467:fltk-1.3.4-1/png/pngset.c **** 
 2521              		.loc 1 467 7 is_stmt 0 view .LVU666
 2522 00b7 E8000000 		call	png_warning@PLT
 2522      00
 2523              	.LVL221:
 467:fltk-1.3.4-1/png/pngset.c **** 
 2524              		.loc 1 467 7 view .LVU667
 2525 00bc EBB9     		jmp	.L172
 2526              	.L180:
 483:fltk-1.3.4-1/png/pngset.c **** #  endif
 2527              		.loc 1 483 1 view .LVU668
 2528 00be E8000000 		call	__stack_chk_fail@PLT
 2528      00
 2529              	.LVL222:
 2530              		.cfi_endproc
 2531              	.LFE54:
 2533              		.section	.text.png_set_pHYs,"ax",@progbits
 2534              		.p2align 4
 2535              		.globl	png_set_pHYs
 2537              	png_set_pHYs:
 2538              	.LVL223:
 2539              	.LFB55:
 491:fltk-1.3.4-1/png/pngset.c ****    png_debug1(1, "in %s storage function", "pHYs");
 2540              		.loc 1 491 1 is_stmt 1 view -0
 2541              		.cfi_startproc
 491:fltk-1.3.4-1/png/pngset.c ****    png_debug1(1, "in %s storage function", "pHYs");
 2542              		.loc 1 491 1 is_stmt 0 view .LVU670
 2543 0000 F30F1EFA 		endbr64
 492:fltk-1.3.4-1/png/pngset.c **** 
 2544              		.loc 1 492 4 is_stmt 1 view .LVU671
 494:fltk-1.3.4-1/png/pngset.c ****       return;
 2545              		.loc 1 494 4 view .LVU672
 494:fltk-1.3.4-1/png/pngset.c ****       return;
 2546              		.loc 1 494 7 is_stmt 0 view .LVU673
 2547 0004 4885FF   		testq	%rdi, %rdi
 2548 0007 741F     		je	.L181
 2549 0009 4885F6   		testq	%rsi, %rsi
 2550 000c 741A     		je	.L181
 497:fltk-1.3.4-1/png/pngset.c ****    info_ptr->y_pixels_per_unit = res_y;
 2551              		.loc 1 497 4 is_stmt 1 view .LVU674
 500:fltk-1.3.4-1/png/pngset.c **** }
 2552              		.loc 1 500 20 is_stmt 0 view .LVU675
 2553 000e 814E0880 		orl	$128, 8(%rsi)
 2553      000000
 497:fltk-1.3.4-1/png/pngset.c ****    info_ptr->y_pixels_per_unit = res_y;
 2554              		.loc 1 497 32 view .LVU676
 2555 0015 8996E000 		movl	%edx, 224(%rsi)
 2555      0000
 498:fltk-1.3.4-1/png/pngset.c ****    info_ptr->phys_unit_type = (png_byte)unit_type;
 2556              		.loc 1 498 4 is_stmt 1 view .LVU677
 498:fltk-1.3.4-1/png/pngset.c ****    info_ptr->phys_unit_type = (png_byte)unit_type;
 2557              		.loc 1 498 32 is_stmt 0 view .LVU678
 2558 001b 898EE400 		movl	%ecx, 228(%rsi)
 2558      0000
 499:fltk-1.3.4-1/png/pngset.c ****    info_ptr->valid |= PNG_INFO_pHYs;
 2559              		.loc 1 499 4 is_stmt 1 view .LVU679
 499:fltk-1.3.4-1/png/pngset.c ****    info_ptr->valid |= PNG_INFO_pHYs;
 2560              		.loc 1 499 31 is_stmt 0 view .LVU680
 2561 0021 448886E8 		movb	%r8b, 232(%rsi)
 2561      000000
 500:fltk-1.3.4-1/png/pngset.c **** }
 2562              		.loc 1 500 4 is_stmt 1 view .LVU681
 2563              	.L181:
 501:fltk-1.3.4-1/png/pngset.c **** #endif
 2564              		.loc 1 501 1 is_stmt 0 view .LVU682
 2565 0028 C3       		ret
 2566              		.cfi_endproc
 2567              	.LFE55:
 2569              		.section	.rodata.png_set_PLTE.str1.1,"aMS",@progbits,1
 2570              	.LC28:
 2571 0000 496E7661 		.string	"Invalid palette length"
 2571      6C696420 
 2571      70616C65 
 2571      74746520 
 2571      6C656E67 
 2572              	.LC29:
 2573 0017 496E7661 		.string	"Invalid palette"
 2573      6C696420 
 2573      70616C65 
 2573      74746500 
 2574              		.section	.text.png_set_PLTE,"ax",@progbits
 2575              		.p2align 4
 2576              		.globl	png_set_PLTE
 2578              	png_set_PLTE:
 2579              	.LVL224:
 2580              	.LFB56:
 507:fltk-1.3.4-1/png/pngset.c **** 
 2581              		.loc 1 507 1 is_stmt 1 view -0
 2582              		.cfi_startproc
 507:fltk-1.3.4-1/png/pngset.c **** 
 2583              		.loc 1 507 1 is_stmt 0 view .LVU684
 2584 0000 F30F1EFA 		endbr64
 509:fltk-1.3.4-1/png/pngset.c **** 
 2585              		.loc 1 509 4 is_stmt 1 view .LVU685
 511:fltk-1.3.4-1/png/pngset.c ****       return;
 2586              		.loc 1 511 4 view .LVU686
 511:fltk-1.3.4-1/png/pngset.c ****       return;
 2587              		.loc 1 511 7 is_stmt 0 view .LVU687
 2588 0004 4885FF   		testq	%rdi, %rdi
 2589 0007 0F84BB00 		je	.L204
 2589      0000
 507:fltk-1.3.4-1/png/pngset.c **** 
 2590              		.loc 1 507 1 view .LVU688
 2591 000d 4155     		pushq	%r13
 2592              		.cfi_def_cfa_offset 16
 2593              		.cfi_offset 13, -16
 2594 000f 4154     		pushq	%r12
 2595              		.cfi_def_cfa_offset 24
 2596              		.cfi_offset 12, -24
 2597 0011 55       		pushq	%rbp
 2598              		.cfi_def_cfa_offset 32
 2599              		.cfi_offset 6, -32
 2600 0012 53       		pushq	%rbx
 2601              		.cfi_def_cfa_offset 40
 2602              		.cfi_offset 3, -40
 2603 0013 4889F3   		movq	%rsi, %rbx
 2604 0016 4883EC08 		subq	$8, %rsp
 2605              		.cfi_def_cfa_offset 48
 511:fltk-1.3.4-1/png/pngset.c ****       return;
 2606              		.loc 1 511 7 view .LVU689
 2607 001a 4885F6   		testq	%rsi, %rsi
 2608 001d 0F849300 		je	.L183
 2608      0000
 2609 0023 4989FD   		movq	%rdi, %r13
 2610 0026 89CD     		movl	%ecx, %ebp
 514:fltk-1.3.4-1/png/pngset.c ****    {
 2611              		.loc 1 514 4 is_stmt 1 view .LVU690
 514:fltk-1.3.4-1/png/pngset.c ****    {
 2612              		.loc 1 514 7 is_stmt 0 view .LVU691
 2613 0028 81F90001 		cmpl	$256, %ecx
 2613      0000
 2614 002e 7620     		jbe	.L185
 516:fltk-1.3.4-1/png/pngset.c ****          png_error(png_ptr, "Invalid palette length");
 2615              		.loc 1 516 7 is_stmt 1 view .LVU692
 516:fltk-1.3.4-1/png/pngset.c ****          png_error(png_ptr, "Invalid palette length");
 2616              		.loc 1 516 10 is_stmt 0 view .LVU693
 2617 0030 807B2503 		cmpb	$3, 37(%rbx)
 517:fltk-1.3.4-1/png/pngset.c **** 
 2618              		.loc 1 517 10 view .LVU694
 2619 0034 488D3500 		leaq	.LC28(%rip), %rsi
 2619      000000
 2620              	.LVL225:
 516:fltk-1.3.4-1/png/pngset.c ****          png_error(png_ptr, "Invalid palette length");
 2621              		.loc 1 516 10 view .LVU695
 2622 003b 0F844C01 		je	.L207
 2622      0000
 521:fltk-1.3.4-1/png/pngset.c ****          return;
 2623              		.loc 1 521 10 is_stmt 1 view .LVU696
 561:fltk-1.3.4-1/png/pngset.c **** 
 2624              		.loc 1 561 1 is_stmt 0 view .LVU697
 2625 0041 4883C408 		addq	$8, %rsp
 2626              		.cfi_remember_state
 2627              		.cfi_def_cfa_offset 40
 2628 0045 5B       		popq	%rbx
 2629              		.cfi_restore 3
 2630              		.cfi_def_cfa_offset 32
 2631              	.LVL226:
 561:fltk-1.3.4-1/png/pngset.c **** 
 2632              		.loc 1 561 1 view .LVU698
 2633 0046 5D       		popq	%rbp
 2634              		.cfi_restore 6
 2635              		.cfi_def_cfa_offset 24
 2636 0047 415C     		popq	%r12
 2637              		.cfi_restore 12
 2638              		.cfi_def_cfa_offset 16
 2639 0049 415D     		popq	%r13
 2640              		.cfi_restore 13
 2641              		.cfi_def_cfa_offset 8
 521:fltk-1.3.4-1/png/pngset.c ****          return;
 2642              		.loc 1 521 10 view .LVU699
 2643 004b E9000000 		jmp	png_warning@PLT
 2643      00
 2644              	.LVL227:
 2645              		.p2align 4,,10
 2646              		.p2align 3
 2647              	.L185:
 2648              		.cfi_restore_state
 521:fltk-1.3.4-1/png/pngset.c ****          return;
 2649              		.loc 1 521 10 view .LVU700
 2650 0050 4989D4   		movq	%rdx, %r12
 526:fltk-1.3.4-1/png/pngset.c ****       (num_palette == 0
 2651              		.loc 1 526 4 is_stmt 1 view .LVU701
 526:fltk-1.3.4-1/png/pngset.c ****       (num_palette == 0
 2652              		.loc 1 526 7 is_stmt 0 view .LVU702
 2653 0053 85C9     		testl	%ecx, %ecx
 2654 0055 7E09     		jle	.L196
 526:fltk-1.3.4-1/png/pngset.c ****       (num_palette == 0
 2655              		.loc 1 526 7 view .LVU703
 2656 0057 4885D2   		testq	%rdx, %rdx
 2657 005a 0F841E01 		je	.L187
 2657      0000
 2658              	.L196:
 526:fltk-1.3.4-1/png/pngset.c ****       (num_palette == 0
 2659              		.loc 1 526 45 discriminator 1 view .LVU704
 2660 0060 85ED     		testl	%ebp, %ebp
 2661 0062 756C     		jne	.L189
 529:fltk-1.3.4-1/png/pngset.c **** #        endif
 2662              		.loc 1 529 13 view .LVU705
 2663 0064 41F68518 		testb	$1, 1048(%r13)
 2663      04000001 
 2664 006c 0F840C01 		je	.L187
 2664      0000
 544:fltk-1.3.4-1/png/pngset.c **** 
 2665              		.loc 1 544 4 is_stmt 1 view .LVU706
 2666 0072 31C9     		xorl	%ecx, %ecx
 2667              	.LVL228:
 544:fltk-1.3.4-1/png/pngset.c **** 
 2668              		.loc 1 544 4 is_stmt 0 view .LVU707
 2669 0074 BA001000 		movl	$4096, %edx
 2669      00
 2670              	.LVL229:
 544:fltk-1.3.4-1/png/pngset.c **** 
 2671              		.loc 1 544 4 view .LVU708
 2672 0079 4889DE   		movq	%rbx, %rsi
 2673 007c 4C89EF   		movq	%r13, %rdi
 2674              	.LVL230:
 544:fltk-1.3.4-1/png/pngset.c **** 
 2675              		.loc 1 544 4 view .LVU709
 2676 007f E8000000 		call	png_free_data@PLT
 2676      00
 2677              	.LVL231:
 550:fltk-1.3.4-1/png/pngset.c ****        PNG_MAX_PALETTE_LENGTH * (sizeof (png_color))));
 2678              		.loc 1 550 4 is_stmt 1 view .LVU710
 550:fltk-1.3.4-1/png/pngset.c ****        PNG_MAX_PALETTE_LENGTH * (sizeof (png_color))));
 2679              		.loc 1 550 23 is_stmt 0 view .LVU711
 2680 0084 BE000300 		movl	$768, %esi
 2680      00
 2681 0089 4C89EF   		movq	%r13, %rdi
 2682 008c E8000000 		call	png_calloc@PLT
 2682      00
 2683              	.LVL232:
 550:fltk-1.3.4-1/png/pngset.c ****        PNG_MAX_PALETTE_LENGTH * (sizeof (png_color))));
 2684              		.loc 1 550 21 view .LVU712
 2685 0091 49898560 		movq	%rax, 608(%r13)
 2685      020000
 553:fltk-1.3.4-1/png/pngset.c ****       memcpy(png_ptr->palette, palette, num_palette * (sizeof (png_color)));
 2686              		.loc 1 553 4 is_stmt 1 view .LVU713
 2687              	.L195:
 555:fltk-1.3.4-1/png/pngset.c ****    info_ptr->num_palette = png_ptr->num_palette = (png_uint_16)num_palette;
 2688              		.loc 1 555 4 view .LVU714
 558:fltk-1.3.4-1/png/pngset.c **** 
 2689              		.loc 1 558 22 is_stmt 0 view .LVU715
 2690 0098 818B1C01 		orl	$4096, 284(%rbx)
 2690      00000010 
 2690      0000
 560:fltk-1.3.4-1/png/pngset.c **** }
 2691              		.loc 1 560 20 view .LVU716
 2692 00a2 834B0808 		orl	$8, 8(%rbx)
 555:fltk-1.3.4-1/png/pngset.c ****    info_ptr->num_palette = png_ptr->num_palette = (png_uint_16)num_palette;
 2693              		.loc 1 555 22 view .LVU717
 2694 00a6 48894318 		movq	%rax, 24(%rbx)
 556:fltk-1.3.4-1/png/pngset.c **** 
 2695              		.loc 1 556 4 is_stmt 1 view .LVU718
 556:fltk-1.3.4-1/png/pngset.c **** 
 2696              		.loc 1 556 49 is_stmt 0 view .LVU719
 2697 00aa 664189AD 		movw	%bp, 616(%r13)
 2697      68020000 
 556:fltk-1.3.4-1/png/pngset.c **** 
 2698              		.loc 1 556 26 view .LVU720
 2699 00b2 66896B20 		movw	%bp, 32(%rbx)
 558:fltk-1.3.4-1/png/pngset.c **** 
 2700              		.loc 1 558 4 is_stmt 1 view .LVU721
 560:fltk-1.3.4-1/png/pngset.c **** }
 2701              		.loc 1 560 4 view .LVU722
 2702              	.LVL233:
 2703              	.L183:
 561:fltk-1.3.4-1/png/pngset.c **** 
 2704              		.loc 1 561 1 is_stmt 0 view .LVU723
 2705 00b6 4883C408 		addq	$8, %rsp
 2706              		.cfi_def_cfa_offset 40
 2707 00ba 5B       		popq	%rbx
 2708              		.cfi_def_cfa_offset 32
 2709              	.LVL234:
 561:fltk-1.3.4-1/png/pngset.c **** 
 2710              		.loc 1 561 1 view .LVU724
 2711 00bb 5D       		popq	%rbp
 2712              		.cfi_def_cfa_offset 24
 2713 00bc 415C     		popq	%r12
 2714              		.cfi_def_cfa_offset 16
 2715 00be 415D     		popq	%r13
 2716              		.cfi_def_cfa_offset 8
 2717 00c0 C3       		ret
 2718              	.LVL235:
 2719              		.p2align 4,,10
 2720 00c1 0F1F8000 		.p2align 3
 2720      000000
 2721              	.L204:
 2722              		.cfi_restore 3
 2723              		.cfi_restore 6
 2724              		.cfi_restore 12
 2725              		.cfi_restore 13
 561:fltk-1.3.4-1/png/pngset.c **** 
 2726              		.loc 1 561 1 view .LVU725
 2727 00c8 C3       		ret
 2728              	.LVL236:
 2729 00c9 0F1F8000 		.p2align 4,,10
 2729      000000
 2730              		.p2align 3
 2731              	.L189:
 2732              		.cfi_def_cfa_offset 48
 2733              		.cfi_offset 3, -40
 2734              		.cfi_offset 6, -32
 2735              		.cfi_offset 12, -24
 2736              		.cfi_offset 13, -16
 544:fltk-1.3.4-1/png/pngset.c **** 
 2737              		.loc 1 544 4 is_stmt 1 view .LVU726
 2738 00d0 BA001000 		movl	$4096, %edx
 2738      00
 2739              	.LVL237:
 544:fltk-1.3.4-1/png/pngset.c **** 
 2740              		.loc 1 544 4 is_stmt 0 view .LVU727
 2741 00d5 31C9     		xorl	%ecx, %ecx
 2742              	.LVL238:
 544:fltk-1.3.4-1/png/pngset.c **** 
 2743              		.loc 1 544 4 view .LVU728
 2744 00d7 4889DE   		movq	%rbx, %rsi
 2745 00da 4C89EF   		movq	%r13, %rdi
 2746              	.LVL239:
 544:fltk-1.3.4-1/png/pngset.c **** 
 2747              		.loc 1 544 4 view .LVU729
 2748 00dd E8000000 		call	png_free_data@PLT
 2748      00
 2749              	.LVL240:
 550:fltk-1.3.4-1/png/pngset.c ****        PNG_MAX_PALETTE_LENGTH * (sizeof (png_color))));
 2750              		.loc 1 550 4 is_stmt 1 view .LVU730
 550:fltk-1.3.4-1/png/pngset.c ****        PNG_MAX_PALETTE_LENGTH * (sizeof (png_color))));
 2751              		.loc 1 550 23 is_stmt 0 view .LVU731
 2752 00e2 BE000300 		movl	$768, %esi
 2752      00
 2753 00e7 4C89EF   		movq	%r13, %rdi
 2754 00ea E8000000 		call	png_calloc@PLT
 2754      00
 2755              	.LVL241:
 554:fltk-1.3.4-1/png/pngset.c ****    info_ptr->palette = png_ptr->palette;
 2756              		.loc 1 554 7 view .LVU732
 2757 00ef 4863D5   		movslq	%ebp, %rdx
 2758 00f2 488D1452 		leaq	(%rdx,%rdx,2), %rdx
 550:fltk-1.3.4-1/png/pngset.c ****        PNG_MAX_PALETTE_LENGTH * (sizeof (png_color))));
 2759              		.loc 1 550 21 view .LVU733
 2760 00f6 49898560 		movq	%rax, 608(%r13)
 2760      020000
 553:fltk-1.3.4-1/png/pngset.c ****       memcpy(png_ptr->palette, palette, num_palette * (sizeof (png_color)));
 2761              		.loc 1 553 4 is_stmt 1 view .LVU734
 554:fltk-1.3.4-1/png/pngset.c ****    info_ptr->palette = png_ptr->palette;
 2762              		.loc 1 554 7 view .LVU735
 2763              	.LVL242:
 2764              	.LBB153:
 2765              	.LBI153:
  31:/usr/include/x86_64-linux-gnu/bits/string_fortified.h **** 	       size_t __len))
 2766              		.loc 2 31 1 view .LVU736
 2767              	.LBB154:
  34:/usr/include/x86_64-linux-gnu/bits/string_fortified.h **** }
 2768              		.loc 2 34 3 view .LVU737
  34:/usr/include/x86_64-linux-gnu/bits/string_fortified.h **** }
 2769              		.loc 2 34 10 is_stmt 0 view .LVU738
 2770 00fd 83FA08   		cmpl	$8, %edx
 2771 0100 732E     		jnb	.L191
 2772 0102 F6C204   		testb	$4, %dl
 2773 0105 7561     		jne	.L208
 2774 0107 85D2     		testl	%edx, %edx
 2775 0109 748D     		je	.L195
 2776 010b 410FB60C 		movzbl	(%r12), %ecx
 2776      24
 2777 0110 8808     		movb	%cl, (%rax)
 2778 0112 F6C202   		testb	$2, %dl
 2779 0115 7481     		je	.L195
 2780 0117 89D2     		movl	%edx, %edx
 2781 0119 410FB74C 		movzwl	-2(%r12,%rdx), %ecx
 2781      14FE
 2782 011f 66894C10 		movw	%cx, -2(%rax,%rdx)
 2782      FE
 2783 0124 E96FFFFF 		jmp	.L195
 2783      FF
 2784 0129 0F1F8000 		.p2align 4,,10
 2784      000000
 2785              		.p2align 3
 2786              	.L191:
  34:/usr/include/x86_64-linux-gnu/bits/string_fortified.h **** }
 2787              		.loc 2 34 10 view .LVU739
 2788 0130 498B0C24 		movq	(%r12), %rcx
 2789 0134 488D7808 		leaq	8(%rax), %rdi
 2790 0138 4883E7F8 		andq	$-8, %rdi
 2791 013c 488908   		movq	%rcx, (%rax)
 2792 013f 89D1     		movl	%edx, %ecx
 2793 0141 498B740C 		movq	-8(%r12,%rcx), %rsi
 2793      F8
 2794 0146 48897408 		movq	%rsi, -8(%rax,%rcx)
 2794      F8
 2795 014b 4889C1   		movq	%rax, %rcx
 2796 014e 4C89E6   		movq	%r12, %rsi
 2797 0151 4829F9   		subq	%rdi, %rcx
 2798 0154 4829CE   		subq	%rcx, %rsi
 2799 0157 01D1     		addl	%edx, %ecx
 2800 0159 89CA     		movl	%ecx, %edx
 2801 015b C1EA03   		shrl	$3, %edx
 2802 015e 89D1     		movl	%edx, %ecx
 2803 0160 F348A5   		rep movsq
 2804 0163 E930FFFF 		jmp	.L195
 2804      FF
 2805              	.L208:
  34:/usr/include/x86_64-linux-gnu/bits/string_fortified.h **** }
 2806              		.loc 2 34 10 view .LVU740
 2807 0168 418B0C24 		movl	(%r12), %ecx
 2808 016c 89D2     		movl	%edx, %edx
 2809 016e 8908     		movl	%ecx, (%rax)
 2810 0170 418B4C14 		movl	-4(%r12,%rdx), %ecx
 2810      FC
 2811 0175 894C10FC 		movl	%ecx, -4(%rax,%rdx)
 2812 0179 E91AFFFF 		jmp	.L195
 2812      FF
 2813              	.LVL243:
 2814              	.L187:
  34:/usr/include/x86_64-linux-gnu/bits/string_fortified.h **** }
 2815              		.loc 2 34 10 view .LVU741
 2816              	.LBE154:
 2817              	.LBE153:
 533:fltk-1.3.4-1/png/pngset.c ****       return;
 2818              		.loc 1 533 7 is_stmt 1 view .LVU742
 2819 017e 488D3500 		leaq	.LC29(%rip), %rsi
 2819      000000
 2820 0185 4C89EF   		movq	%r13, %rdi
 2821              	.LVL244:
 533:fltk-1.3.4-1/png/pngset.c ****       return;
 2822              		.loc 1 533 7 is_stmt 0 view .LVU743
 2823 0188 E8000000 		call	png_error@PLT
 2823      00
 2824              	.LVL245:
 2825              	.L207:
 517:fltk-1.3.4-1/png/pngset.c **** 
 2826              		.loc 1 517 10 is_stmt 1 view .LVU744
 2827 018d E8000000 		call	png_error@PLT
 2827      00
 2828              	.LVL246:
 517:fltk-1.3.4-1/png/pngset.c **** 
 2829              		.loc 1 517 10 is_stmt 0 view .LVU745
 2830              		.cfi_endproc
 2831              	.LFE56:
 2833              		.section	.text.png_set_sBIT,"ax",@progbits
 2834              		.p2align 4
 2835              		.globl	png_set_sBIT
 2837              	png_set_sBIT:
 2838              	.LVL247:
 2839              	.LFB57:
 567:fltk-1.3.4-1/png/pngset.c ****    png_debug1(1, "in %s storage function", "sBIT");
 2840              		.loc 1 567 1 is_stmt 1 view -0
 2841              		.cfi_startproc
 567:fltk-1.3.4-1/png/pngset.c ****    png_debug1(1, "in %s storage function", "sBIT");
 2842              		.loc 1 567 1 is_stmt 0 view .LVU747
 2843 0000 F30F1EFA 		endbr64
 568:fltk-1.3.4-1/png/pngset.c **** 
 2844              		.loc 1 568 4 is_stmt 1 view .LVU748
 570:fltk-1.3.4-1/png/pngset.c ****       return;
 2845              		.loc 1 570 4 view .LVU749
 570:fltk-1.3.4-1/png/pngset.c ****       return;
 2846              		.loc 1 570 36 is_stmt 0 view .LVU750
 2847 0004 4885F6   		testq	%rsi, %rsi
 2848 0007 0F94C1   		sete	%cl
 570:fltk-1.3.4-1/png/pngset.c ****       return;
 2849              		.loc 1 570 44 view .LVU751
 2850 000a 4885D2   		testq	%rdx, %rdx
 2851 000d 0F94C0   		sete	%al
 2852 0010 08C1     		orb	%al, %cl
 2853 0012 751B     		jne	.L209
 2854 0014 4885FF   		testq	%rdi, %rdi
 2855 0017 7416     		je	.L209
 573:fltk-1.3.4-1/png/pngset.c ****    info_ptr->valid |= PNG_INFO_sBIT;
 2856              		.loc 1 573 4 is_stmt 1 view .LVU752
 573:fltk-1.3.4-1/png/pngset.c ****    info_ptr->valid |= PNG_INFO_sBIT;
 2857              		.loc 1 573 22 is_stmt 0 view .LVU753
 2858 0019 8B02     		movl	(%rdx), %eax
 574:fltk-1.3.4-1/png/pngset.c **** }
 2859              		.loc 1 574 20 view .LVU754
 2860 001b 834E0802 		orl	$2, 8(%rsi)
 573:fltk-1.3.4-1/png/pngset.c ****    info_ptr->valid |= PNG_INFO_sBIT;
 2861              		.loc 1 573 22 view .LVU755
 2862 001f 8986B000 		movl	%eax, 176(%rsi)
 2862      0000
 2863 0025 0FB64204 		movzbl	4(%rdx), %eax
 2864 0029 8886B400 		movb	%al, 180(%rsi)
 2864      0000
 574:fltk-1.3.4-1/png/pngset.c **** }
 2865              		.loc 1 574 4 is_stmt 1 view .LVU756
 2866              	.L209:
 575:fltk-1.3.4-1/png/pngset.c **** #endif
 2867              		.loc 1 575 1 is_stmt 0 view .LVU757
 2868 002f C3       		ret
 2869              		.cfi_endproc
 2870              	.LFE57:
 2872              		.section	.text.png_set_sRGB,"ax",@progbits
 2873              		.p2align 4
 2874              		.globl	png_set_sRGB
 2876              	png_set_sRGB:
 2877              	.LVL248:
 2878              	.LFB58:
 581:fltk-1.3.4-1/png/pngset.c ****    png_debug1(1, "in %s storage function", "sRGB");
 2879              		.loc 1 581 1 is_stmt 1 view -0
 2880              		.cfi_startproc
 581:fltk-1.3.4-1/png/pngset.c ****    png_debug1(1, "in %s storage function", "sRGB");
 2881              		.loc 1 581 1 is_stmt 0 view .LVU759
 2882 0000 F30F1EFA 		endbr64
 582:fltk-1.3.4-1/png/pngset.c **** 
 2883              		.loc 1 582 4 is_stmt 1 view .LVU760
 584:fltk-1.3.4-1/png/pngset.c ****       return;
 2884              		.loc 1 584 4 view .LVU761
 584:fltk-1.3.4-1/png/pngset.c ****       return;
 2885              		.loc 1 584 7 is_stmt 0 view .LVU762
 2886 0004 4885FF   		testq	%rdi, %rdi
 2887 0007 7447     		je	.L214
 581:fltk-1.3.4-1/png/pngset.c ****    png_debug1(1, "in %s storage function", "sRGB");
 2888              		.loc 1 581 1 view .LVU763
 2889 0009 4154     		pushq	%r12
 2890              		.cfi_def_cfa_offset 16
 2891              		.cfi_offset 12, -16
 2892 000b 4989F4   		movq	%rsi, %r12
 2893 000e 55       		pushq	%rbp
 2894              		.cfi_def_cfa_offset 24
 2895              		.cfi_offset 6, -24
 2896 000f 4883EC08 		subq	$8, %rsp
 2897              		.cfi_def_cfa_offset 32
 584:fltk-1.3.4-1/png/pngset.c ****       return;
 2898              		.loc 1 584 7 view .LVU764
 2899 0013 4885F6   		testq	%rsi, %rsi
 2900 0016 7428     		je	.L211
 587:fltk-1.3.4-1/png/pngset.c ****    png_colorspace_sync_info(png_ptr, info_ptr);
 2901              		.loc 1 587 43 view .LVU765
 2902 0018 488D7634 		leaq	52(%rsi), %rsi
 2903              	.LVL249:
 587:fltk-1.3.4-1/png/pngset.c ****    png_colorspace_sync_info(png_ptr, info_ptr);
 2904              		.loc 1 587 43 view .LVU766
 2905 001c 4889FD   		movq	%rdi, %rbp
 587:fltk-1.3.4-1/png/pngset.c ****    png_colorspace_sync_info(png_ptr, info_ptr);
 2906              		.loc 1 587 4 is_stmt 1 view .LVU767
 587:fltk-1.3.4-1/png/pngset.c ****    png_colorspace_sync_info(png_ptr, info_ptr);
 2907              		.loc 1 587 10 is_stmt 0 view .LVU768
 2908 001f E8000000 		call	png_colorspace_set_sRGB@PLT
 2908      00
 2909              	.LVL250:
 588:fltk-1.3.4-1/png/pngset.c **** }
 2910              		.loc 1 588 4 is_stmt 1 view .LVU769
 589:fltk-1.3.4-1/png/pngset.c **** 
 2911              		.loc 1 589 1 is_stmt 0 view .LVU770
 2912 0024 4883C408 		addq	$8, %rsp
 2913              		.cfi_remember_state
 2914              		.cfi_def_cfa_offset 24
 588:fltk-1.3.4-1/png/pngset.c **** }
 2915              		.loc 1 588 4 view .LVU771
 2916 0028 4C89E6   		movq	%r12, %rsi
