   1              		.file	"pngtrans.c"
   2              		.text
   3              	.Ltext0:
   4              		.section	.text.png_set_bgr,"ax",@progbits
   5              		.p2align 4
   6              		.globl	png_set_bgr
   8              	png_set_bgr:
   9              	.LVL0:
  10              	.LFB41:
  11              		.file 1 "fltk-1.3.4-1/png/pngtrans.c"
   1:fltk-1.3.4-1/png/pngtrans.c **** 
   2:fltk-1.3.4-1/png/pngtrans.c **** /* pngtrans.c - transforms the data in a row (used by both readers and writers)
   3:fltk-1.3.4-1/png/pngtrans.c ****  *
   4:fltk-1.3.4-1/png/pngtrans.c ****  * Last changed in libpng 1.6.15 [November 20, 2014]
   5:fltk-1.3.4-1/png/pngtrans.c ****  * Copyright (c) 1998-2014 Glenn Randers-Pehrson
   6:fltk-1.3.4-1/png/pngtrans.c ****  * (Version 0.96 Copyright (c) 1996, 1997 Andreas Dilger)
   7:fltk-1.3.4-1/png/pngtrans.c ****  * (Version 0.88 Copyright (c) 1995, 1996 Guy Eric Schalnat, Group 42, Inc.)
   8:fltk-1.3.4-1/png/pngtrans.c ****  *
   9:fltk-1.3.4-1/png/pngtrans.c ****  * This code is released under the libpng license.
  10:fltk-1.3.4-1/png/pngtrans.c ****  * For conditions of distribution and use, see the disclaimer
  11:fltk-1.3.4-1/png/pngtrans.c ****  * and license in png.h
  12:fltk-1.3.4-1/png/pngtrans.c ****  */
  13:fltk-1.3.4-1/png/pngtrans.c **** 
  14:fltk-1.3.4-1/png/pngtrans.c **** #include "pngpriv.h"
  15:fltk-1.3.4-1/png/pngtrans.c **** 
  16:fltk-1.3.4-1/png/pngtrans.c **** #if defined(PNG_READ_SUPPORTED) || defined(PNG_WRITE_SUPPORTED)
  17:fltk-1.3.4-1/png/pngtrans.c **** 
  18:fltk-1.3.4-1/png/pngtrans.c **** #if defined(PNG_READ_BGR_SUPPORTED) || defined(PNG_WRITE_BGR_SUPPORTED)
  19:fltk-1.3.4-1/png/pngtrans.c **** /* Turn on BGR-to-RGB mapping */
  20:fltk-1.3.4-1/png/pngtrans.c **** void PNGAPI
  21:fltk-1.3.4-1/png/pngtrans.c **** png_set_bgr(png_structrp png_ptr)
  22:fltk-1.3.4-1/png/pngtrans.c **** {
  12              		.loc 1 22 1 view -0
  13              		.cfi_startproc
  14              		.loc 1 22 1 is_stmt 0 view .LVU1
  15 0000 F30F1EFA 		endbr64
  23:fltk-1.3.4-1/png/pngtrans.c ****    png_debug(1, "in png_set_bgr");
  16              		.loc 1 23 4 is_stmt 1 view .LVU2
  24:fltk-1.3.4-1/png/pngtrans.c **** 
  25:fltk-1.3.4-1/png/pngtrans.c ****    if (png_ptr == NULL)
  17              		.loc 1 25 4 view .LVU3
  18              		.loc 1 25 7 is_stmt 0 view .LVU4
  19 0004 4885FF   		testq	%rdi, %rdi
  20 0007 7407     		je	.L1
  26:fltk-1.3.4-1/png/pngtrans.c ****       return;
  27:fltk-1.3.4-1/png/pngtrans.c **** 
  28:fltk-1.3.4-1/png/pngtrans.c ****    png_ptr->transformations |= PNG_BGR;
  21              		.loc 1 28 4 is_stmt 1 view .LVU5
  22              		.loc 1 28 29 is_stmt 0 view .LVU6
  23 0009 838F3401 		orl	$1, 308(%rdi)
  23      000001
  24              	.L1:
  29:fltk-1.3.4-1/png/pngtrans.c **** }
  25              		.loc 1 29 1 view .LVU7
  26 0010 C3       		ret
  27              		.cfi_endproc
  28              	.LFE41:
  30              		.section	.text.png_set_swap,"ax",@progbits
  31              		.p2align 4
  32              		.globl	png_set_swap
  34              	png_set_swap:
  35              	.LVL1:
  36              	.LFB42:
  30:fltk-1.3.4-1/png/pngtrans.c **** #endif
  31:fltk-1.3.4-1/png/pngtrans.c **** 
  32:fltk-1.3.4-1/png/pngtrans.c **** #if defined(PNG_READ_SWAP_SUPPORTED) || defined(PNG_WRITE_SWAP_SUPPORTED)
  33:fltk-1.3.4-1/png/pngtrans.c **** /* Turn on 16 bit byte swapping */
  34:fltk-1.3.4-1/png/pngtrans.c **** void PNGAPI
  35:fltk-1.3.4-1/png/pngtrans.c **** png_set_swap(png_structrp png_ptr)
  36:fltk-1.3.4-1/png/pngtrans.c **** {
  37              		.loc 1 36 1 is_stmt 1 view -0
  38              		.cfi_startproc
  39              		.loc 1 36 1 is_stmt 0 view .LVU9
  40 0000 F30F1EFA 		endbr64
  37:fltk-1.3.4-1/png/pngtrans.c ****    png_debug(1, "in png_set_swap");
  41              		.loc 1 37 4 is_stmt 1 view .LVU10
  38:fltk-1.3.4-1/png/pngtrans.c **** 
  39:fltk-1.3.4-1/png/pngtrans.c ****    if (png_ptr == NULL)
  42              		.loc 1 39 4 view .LVU11
  43              		.loc 1 39 7 is_stmt 0 view .LVU12
  44 0004 4885FF   		testq	%rdi, %rdi
  45 0007 7409     		je	.L7
  40:fltk-1.3.4-1/png/pngtrans.c ****       return;
  41:fltk-1.3.4-1/png/pngtrans.c **** 
  42:fltk-1.3.4-1/png/pngtrans.c ****    if (png_ptr->bit_depth == 16)
  46              		.loc 1 42 4 is_stmt 1 view .LVU13
  47              		.loc 1 42 7 is_stmt 0 view .LVU14
  48 0009 80BF7802 		cmpb	$16, 632(%rdi)
  48      000010
  49 0010 7406     		je	.L12
  50              	.L7:
  43:fltk-1.3.4-1/png/pngtrans.c ****       png_ptr->transformations |= PNG_SWAP_BYTES;
  44:fltk-1.3.4-1/png/pngtrans.c **** }
  51              		.loc 1 44 1 view .LVU15
  52 0012 C3       		ret
  53              		.p2align 4,,10
  54 0013 0F1F4400 		.p2align 3
  54      00
  55              	.L12:
  43:fltk-1.3.4-1/png/pngtrans.c ****       png_ptr->transformations |= PNG_SWAP_BYTES;
  56              		.loc 1 43 7 is_stmt 1 view .LVU16
  43:fltk-1.3.4-1/png/pngtrans.c ****       png_ptr->transformations |= PNG_SWAP_BYTES;
  57              		.loc 1 43 32 is_stmt 0 view .LVU17
  58 0018 838F3401 		orl	$16, 308(%rdi)
  58      000010
  59              		.loc 1 44 1 view .LVU18
  60 001f C3       		ret
  61              		.cfi_endproc
  62              	.LFE42:
  64              		.section	.text.png_set_packing,"ax",@progbits
  65              		.p2align 4
  66              		.globl	png_set_packing
  68              	png_set_packing:
  69              	.LVL2:
  70              	.LFB43:
  45:fltk-1.3.4-1/png/pngtrans.c **** #endif
  46:fltk-1.3.4-1/png/pngtrans.c **** 
  47:fltk-1.3.4-1/png/pngtrans.c **** #if defined(PNG_READ_PACK_SUPPORTED) || defined(PNG_WRITE_PACK_SUPPORTED)
  48:fltk-1.3.4-1/png/pngtrans.c **** /* Turn on pixel packing */
  49:fltk-1.3.4-1/png/pngtrans.c **** void PNGAPI
  50:fltk-1.3.4-1/png/pngtrans.c **** png_set_packing(png_structrp png_ptr)
  51:fltk-1.3.4-1/png/pngtrans.c **** {
  71              		.loc 1 51 1 is_stmt 1 view -0
  72              		.cfi_startproc
  73              		.loc 1 51 1 is_stmt 0 view .LVU20
  74 0000 F30F1EFA 		endbr64
  52:fltk-1.3.4-1/png/pngtrans.c ****    png_debug(1, "in png_set_packing");
  75              		.loc 1 52 4 is_stmt 1 view .LVU21
  53:fltk-1.3.4-1/png/pngtrans.c **** 
  54:fltk-1.3.4-1/png/pngtrans.c ****    if (png_ptr == NULL)
  76              		.loc 1 54 4 view .LVU22
  77              		.loc 1 54 7 is_stmt 0 view .LVU23
  78 0004 4885FF   		testq	%rdi, %rdi
  79 0007 7417     		je	.L13
  55:fltk-1.3.4-1/png/pngtrans.c ****       return;
  56:fltk-1.3.4-1/png/pngtrans.c **** 
  57:fltk-1.3.4-1/png/pngtrans.c ****    if (png_ptr->bit_depth < 8)
  80              		.loc 1 57 4 is_stmt 1 view .LVU24
  81              		.loc 1 57 7 is_stmt 0 view .LVU25
  82 0009 80BF7802 		cmpb	$7, 632(%rdi)
  82      000007
  83 0010 770E     		ja	.L13
  58:fltk-1.3.4-1/png/pngtrans.c ****    {
  59:fltk-1.3.4-1/png/pngtrans.c ****       png_ptr->transformations |= PNG_PACK;
  84              		.loc 1 59 7 is_stmt 1 view .LVU26
  85              		.loc 1 59 32 is_stmt 0 view .LVU27
  86 0012 838F3401 		orl	$4, 308(%rdi)
  86      000004
  60:fltk-1.3.4-1/png/pngtrans.c **** #     ifdef PNG_WRITE_SUPPORTED
  61:fltk-1.3.4-1/png/pngtrans.c ****          png_ptr->usr_bit_depth = 8;
  87              		.loc 1 61 10 is_stmt 1 view .LVU28
  88              		.loc 1 61 33 is_stmt 0 view .LVU29
  89 0019 C6877902 		movb	$8, 633(%rdi)
  89      000008
  90              	.L13:
  62:fltk-1.3.4-1/png/pngtrans.c **** #     endif
  63:fltk-1.3.4-1/png/pngtrans.c ****    }
  64:fltk-1.3.4-1/png/pngtrans.c **** }
  91              		.loc 1 64 1 view .LVU30
  92 0020 C3       		ret
  93              		.cfi_endproc
  94              	.LFE43:
  96              		.section	.text.png_set_packswap,"ax",@progbits
  97              		.p2align 4
  98              		.globl	png_set_packswap
 100              	png_set_packswap:
 101              	.LVL3:
 102              	.LFB44:
  65:fltk-1.3.4-1/png/pngtrans.c **** #endif
  66:fltk-1.3.4-1/png/pngtrans.c **** 
  67:fltk-1.3.4-1/png/pngtrans.c **** #if defined(PNG_READ_PACKSWAP_SUPPORTED)||defined(PNG_WRITE_PACKSWAP_SUPPORTED)
  68:fltk-1.3.4-1/png/pngtrans.c **** /* Turn on packed pixel swapping */
  69:fltk-1.3.4-1/png/pngtrans.c **** void PNGAPI
  70:fltk-1.3.4-1/png/pngtrans.c **** png_set_packswap(png_structrp png_ptr)
  71:fltk-1.3.4-1/png/pngtrans.c **** {
 103              		.loc 1 71 1 is_stmt 1 view -0
 104              		.cfi_startproc
 105              		.loc 1 71 1 is_stmt 0 view .LVU32
 106 0000 F30F1EFA 		endbr64
  72:fltk-1.3.4-1/png/pngtrans.c ****    png_debug(1, "in png_set_packswap");
 107              		.loc 1 72 4 is_stmt 1 view .LVU33
  73:fltk-1.3.4-1/png/pngtrans.c **** 
  74:fltk-1.3.4-1/png/pngtrans.c ****    if (png_ptr == NULL)
 108              		.loc 1 74 4 view .LVU34
 109              		.loc 1 74 7 is_stmt 0 view .LVU35
 110 0004 4885FF   		testq	%rdi, %rdi
 111 0007 7413     		je	.L18
  75:fltk-1.3.4-1/png/pngtrans.c ****       return;
  76:fltk-1.3.4-1/png/pngtrans.c **** 
  77:fltk-1.3.4-1/png/pngtrans.c ****    if (png_ptr->bit_depth < 8)
 112              		.loc 1 77 4 is_stmt 1 view .LVU36
 113              		.loc 1 77 7 is_stmt 0 view .LVU37
 114 0009 80BF7802 		cmpb	$7, 632(%rdi)
 114      000007
 115 0010 770A     		ja	.L18
  78:fltk-1.3.4-1/png/pngtrans.c ****       png_ptr->transformations |= PNG_PACKSWAP;
 116              		.loc 1 78 7 is_stmt 1 view .LVU38
 117              		.loc 1 78 32 is_stmt 0 view .LVU39
 118 0012 818F3401 		orl	$65536, 308(%rdi)
 118      00000000 
 118      0100
 119              	.L18:
  79:fltk-1.3.4-1/png/pngtrans.c **** }
 120              		.loc 1 79 1 view .LVU40
 121 001c C3       		ret
 122              		.cfi_endproc
 123              	.LFE44:
 125              		.section	.text.png_set_shift,"ax",@progbits
 126              		.p2align 4
 127              		.globl	png_set_shift
 129              	png_set_shift:
 130              	.LVL4:
 131              	.LFB45:
  80:fltk-1.3.4-1/png/pngtrans.c **** #endif
  81:fltk-1.3.4-1/png/pngtrans.c **** 
  82:fltk-1.3.4-1/png/pngtrans.c **** #if defined(PNG_READ_SHIFT_SUPPORTED) || defined(PNG_WRITE_SHIFT_SUPPORTED)
  83:fltk-1.3.4-1/png/pngtrans.c **** void PNGAPI
  84:fltk-1.3.4-1/png/pngtrans.c **** png_set_shift(png_structrp png_ptr, png_const_color_8p true_bits)
  85:fltk-1.3.4-1/png/pngtrans.c **** {
 132              		.loc 1 85 1 is_stmt 1 view -0
 133              		.cfi_startproc
 134              		.loc 1 85 1 is_stmt 0 view .LVU42
 135 0000 F30F1EFA 		endbr64
  86:fltk-1.3.4-1/png/pngtrans.c ****    png_debug(1, "in png_set_shift");
 136              		.loc 1 86 4 is_stmt 1 view .LVU43
  87:fltk-1.3.4-1/png/pngtrans.c **** 
  88:fltk-1.3.4-1/png/pngtrans.c ****    if (png_ptr == NULL)
 137              		.loc 1 88 4 view .LVU44
 138              		.loc 1 88 7 is_stmt 0 view .LVU45
 139 0004 4885FF   		testq	%rdi, %rdi
 140 0007 7419     		je	.L23
  89:fltk-1.3.4-1/png/pngtrans.c ****       return;
  90:fltk-1.3.4-1/png/pngtrans.c **** 
  91:fltk-1.3.4-1/png/pngtrans.c ****    png_ptr->transformations |= PNG_SHIFT;
 141              		.loc 1 91 4 is_stmt 1 view .LVU46
  92:fltk-1.3.4-1/png/pngtrans.c ****    png_ptr->shift = *true_bits;
 142              		.loc 1 92 19 is_stmt 0 view .LVU47
 143 0009 8B06     		movl	(%rsi), %eax
  91:fltk-1.3.4-1/png/pngtrans.c ****    png_ptr->shift = *true_bits;
 144              		.loc 1 91 29 view .LVU48
 145 000b 838F3401 		orl	$8, 308(%rdi)
 145      000008
 146              		.loc 1 92 4 is_stmt 1 view .LVU49
 147              		.loc 1 92 19 is_stmt 0 view .LVU50
 148 0012 8987ED02 		movl	%eax, 749(%rdi)
 148      0000
 149 0018 0FB64604 		movzbl	4(%rsi), %eax
 150 001c 8887F102 		movb	%al, 753(%rdi)
 150      0000
 151              	.L23:
  93:fltk-1.3.4-1/png/pngtrans.c **** }
 152              		.loc 1 93 1 view .LVU51
 153 0022 C3       		ret
 154              		.cfi_endproc
 155              	.LFE45:
 157              		.section	.text.png_set_interlace_handling,"ax",@progbits
 158              		.p2align 4
 159              		.globl	png_set_interlace_handling
 161              	png_set_interlace_handling:
 162              	.LVL5:
 163              	.LFB46:
  94:fltk-1.3.4-1/png/pngtrans.c **** #endif
  95:fltk-1.3.4-1/png/pngtrans.c **** 
  96:fltk-1.3.4-1/png/pngtrans.c **** #if defined(PNG_READ_INTERLACING_SUPPORTED) || \
  97:fltk-1.3.4-1/png/pngtrans.c ****     defined(PNG_WRITE_INTERLACING_SUPPORTED)
  98:fltk-1.3.4-1/png/pngtrans.c **** int PNGAPI
  99:fltk-1.3.4-1/png/pngtrans.c **** png_set_interlace_handling(png_structrp png_ptr)
 100:fltk-1.3.4-1/png/pngtrans.c **** {
 164              		.loc 1 100 1 is_stmt 1 view -0
 165              		.cfi_startproc
 166              		.loc 1 100 1 is_stmt 0 view .LVU53
 167 0000 F30F1EFA 		endbr64
 101:fltk-1.3.4-1/png/pngtrans.c ****    png_debug(1, "in png_set_interlace handling");
 168              		.loc 1 101 4 is_stmt 1 view .LVU54
 102:fltk-1.3.4-1/png/pngtrans.c **** 
 103:fltk-1.3.4-1/png/pngtrans.c ****    if (png_ptr != 0 && png_ptr->interlaced != 0)
 169              		.loc 1 103 4 view .LVU55
 104:fltk-1.3.4-1/png/pngtrans.c ****    {
 105:fltk-1.3.4-1/png/pngtrans.c ****       png_ptr->transformations |= PNG_INTERLACE;
 106:fltk-1.3.4-1/png/pngtrans.c ****       return (7);
 107:fltk-1.3.4-1/png/pngtrans.c ****    }
 108:fltk-1.3.4-1/png/pngtrans.c **** 
 109:fltk-1.3.4-1/png/pngtrans.c ****    return (1);
 170              		.loc 1 109 11 is_stmt 0 view .LVU56
 171 0004 B8010000 		movl	$1, %eax
 171      00
 103:fltk-1.3.4-1/png/pngtrans.c ****    {
 172              		.loc 1 103 7 view .LVU57
 173 0009 4885FF   		testq	%rdi, %rdi
 174 000c 7409     		je	.L28
 103:fltk-1.3.4-1/png/pngtrans.c ****    {
 175              		.loc 1 103 21 discriminator 1 view .LVU58
 176 000e 80BF7402 		cmpb	$0, 628(%rdi)
 176      000000
 177 0015 7509     		jne	.L33
 178              	.L28:
 110:fltk-1.3.4-1/png/pngtrans.c **** }
 179              		.loc 1 110 1 view .LVU59
 180 0017 C3       		ret
 181 0018 0F1F8400 		.p2align 4,,10
 181      00000000 
 182              		.p2align 3
 183              	.L33:
 105:fltk-1.3.4-1/png/pngtrans.c ****       return (7);
 184              		.loc 1 105 7 is_stmt 1 view .LVU60
 105:fltk-1.3.4-1/png/pngtrans.c ****       return (7);
 185              		.loc 1 105 32 is_stmt 0 view .LVU61
 186 0020 838F3401 		orl	$2, 308(%rdi)
 186      000002
 106:fltk-1.3.4-1/png/pngtrans.c ****    }
 187              		.loc 1 106 7 is_stmt 1 view .LVU62
 106:fltk-1.3.4-1/png/pngtrans.c ****    }
 188              		.loc 1 106 14 is_stmt 0 view .LVU63
 189 0027 B8070000 		movl	$7, %eax
 189      00
 190              		.loc 1 110 1 view .LVU64
 191 002c C3       		ret
 192              		.cfi_endproc
 193              	.LFE46:
 195              		.section	.rodata.png_set_filler.str1.8,"aMS",@progbits,1
 196              		.align 8
 197              	.LC0:
 198 0000 706E675F 		.string	"png_set_filler is invalid for low bit depth gray output"
 198      7365745F 
 198      66696C6C 
 198      65722069 
 198      7320696E 
 199              		.align 8
 200              	.LC1:
 201 0038 706E675F 		.string	"png_set_filler: inappropriate color type"
 201      7365745F 
 201      66696C6C 
 201      65723A20 
 201      696E6170 
 202              		.section	.text.png_set_filler,"ax",@progbits
 203              		.p2align 4
 204              		.globl	png_set_filler
 206              	png_set_filler:
 207              	.LVL6:
 208              	.LFB47:
 111:fltk-1.3.4-1/png/pngtrans.c **** #endif
 112:fltk-1.3.4-1/png/pngtrans.c **** 
 113:fltk-1.3.4-1/png/pngtrans.c **** #if defined(PNG_READ_FILLER_SUPPORTED) || defined(PNG_WRITE_FILLER_SUPPORTED)
 114:fltk-1.3.4-1/png/pngtrans.c **** /* Add a filler byte on read, or remove a filler or alpha byte on write.
 115:fltk-1.3.4-1/png/pngtrans.c ****  * The filler type has changed in v0.95 to allow future 2-byte fillers
 116:fltk-1.3.4-1/png/pngtrans.c ****  * for 48-bit input data, as well as to avoid problems with some compilers
 117:fltk-1.3.4-1/png/pngtrans.c ****  * that don't like bytes as parameters.
 118:fltk-1.3.4-1/png/pngtrans.c ****  */
 119:fltk-1.3.4-1/png/pngtrans.c **** void PNGAPI
 120:fltk-1.3.4-1/png/pngtrans.c **** png_set_filler(png_structrp png_ptr, png_uint_32 filler, int filler_loc)
 121:fltk-1.3.4-1/png/pngtrans.c **** {
 209              		.loc 1 121 1 is_stmt 1 view -0
 210              		.cfi_startproc
 211              		.loc 1 121 1 is_stmt 0 view .LVU66
 212 0000 F30F1EFA 		endbr64
 122:fltk-1.3.4-1/png/pngtrans.c ****    png_debug(1, "in png_set_filler");
 213              		.loc 1 122 4 is_stmt 1 view .LVU67
 123:fltk-1.3.4-1/png/pngtrans.c **** 
 124:fltk-1.3.4-1/png/pngtrans.c ****    if (png_ptr == NULL)
 214              		.loc 1 124 4 view .LVU68
 215              		.loc 1 124 7 is_stmt 0 view .LVU69
 216 0004 4885FF   		testq	%rdi, %rdi
 217 0007 7451     		je	.L34
 125:fltk-1.3.4-1/png/pngtrans.c ****       return;
 126:fltk-1.3.4-1/png/pngtrans.c **** 
 127:fltk-1.3.4-1/png/pngtrans.c ****    /* In libpng 1.6 it is possible to determine whether this is a read or write
 128:fltk-1.3.4-1/png/pngtrans.c ****     * operation and therefore to do more checking here for a valid call.
 129:fltk-1.3.4-1/png/pngtrans.c ****     */
 130:fltk-1.3.4-1/png/pngtrans.c ****    if ((png_ptr->mode & PNG_IS_READ_STRUCT) != 0)
 218              		.loc 1 130 4 is_stmt 1 view .LVU70
 219              		.loc 1 130 7 is_stmt 0 view .LVU71
 220 0009 F6872D01 		testb	$-128, 301(%rdi)
 220      000080
 221 0010 751E     		jne	.L45
 131:fltk-1.3.4-1/png/pngtrans.c ****    {
 132:fltk-1.3.4-1/png/pngtrans.c **** #     ifdef PNG_READ_FILLER_SUPPORTED
 133:fltk-1.3.4-1/png/pngtrans.c ****          /* On read png_set_filler is always valid, regardless of the base PNG
 134:fltk-1.3.4-1/png/pngtrans.c ****           * format, because other transformations can give a format where the
 135:fltk-1.3.4-1/png/pngtrans.c ****           * filler code can execute (basically an 8 or 16-bit component RGB or G
 136:fltk-1.3.4-1/png/pngtrans.c ****           * format.)
 137:fltk-1.3.4-1/png/pngtrans.c ****           *
 138:fltk-1.3.4-1/png/pngtrans.c ****           * NOTE: usr_channels is not used by the read code!  (This has led to
 139:fltk-1.3.4-1/png/pngtrans.c ****           * confusion in the past.)  The filler is only used in the read code.
 140:fltk-1.3.4-1/png/pngtrans.c ****           */
 141:fltk-1.3.4-1/png/pngtrans.c ****          png_ptr->filler = (png_uint_16)filler;
 142:fltk-1.3.4-1/png/pngtrans.c **** #     else
 143:fltk-1.3.4-1/png/pngtrans.c ****          png_app_error(png_ptr, "png_set_filler not supported on read");
 144:fltk-1.3.4-1/png/pngtrans.c ****          PNG_UNUSED(filler) /* not used in the write case */
 145:fltk-1.3.4-1/png/pngtrans.c ****          return;
 146:fltk-1.3.4-1/png/pngtrans.c **** #     endif
 147:fltk-1.3.4-1/png/pngtrans.c ****    }
 148:fltk-1.3.4-1/png/pngtrans.c **** 
 149:fltk-1.3.4-1/png/pngtrans.c ****    else /* write */
 150:fltk-1.3.4-1/png/pngtrans.c ****    {
 151:fltk-1.3.4-1/png/pngtrans.c **** #     ifdef PNG_WRITE_FILLER_SUPPORTED
 152:fltk-1.3.4-1/png/pngtrans.c ****          /* On write the usr_channels parameter must be set correctly at the
 153:fltk-1.3.4-1/png/pngtrans.c ****           * start to record the number of channels in the app-supplied data.
 154:fltk-1.3.4-1/png/pngtrans.c ****           */
 155:fltk-1.3.4-1/png/pngtrans.c ****          switch (png_ptr->color_type)
 222              		.loc 1 155 10 is_stmt 1 view .LVU72
 223              		.loc 1 155 25 is_stmt 0 view .LVU73
 224 0012 0FB68777 		movzbl	631(%rdi), %eax
 224      020000
 225              		.loc 1 155 10 view .LVU74
 226 0019 84C0     		testb	%al, %al
 227 001b 7443     		je	.L38
 228 001d 3C02     		cmpb	$2, %al
 229 001f 7557     		jne	.L39
 156:fltk-1.3.4-1/png/pngtrans.c ****          {
 157:fltk-1.3.4-1/png/pngtrans.c ****             case PNG_COLOR_TYPE_RGB:
 158:fltk-1.3.4-1/png/pngtrans.c ****                png_ptr->usr_channels = 4;
 230              		.loc 1 158 16 is_stmt 1 view .LVU75
 231              		.loc 1 158 38 is_stmt 0 view .LVU76
 232 0021 C6877C02 		movb	$4, 636(%rdi)
 232      000004
 159:fltk-1.3.4-1/png/pngtrans.c ****                break;
 233              		.loc 1 159 16 is_stmt 1 view .LVU77
 234 0028 EB0D     		jmp	.L37
 235 002a 660F1F44 		.p2align 4,,10
 235      0000
 236              		.p2align 3
 237              	.L45:
 141:fltk-1.3.4-1/png/pngtrans.c **** #     else
 238              		.loc 1 141 10 view .LVU78
 141:fltk-1.3.4-1/png/pngtrans.c **** #     else
 239              		.loc 1 141 28 is_stmt 0 view .LVU79
 240 0030 6689B780 		movw	%si, 640(%rdi)
 240      020000
 241              	.L37:
 242              	.LVL7:
 243              	.LBB4:
 244              	.LBI4:
 120:fltk-1.3.4-1/png/pngtrans.c **** {
 245              		.loc 1 120 1 is_stmt 1 view .LVU80
 246              	.LBB5:
 160:fltk-1.3.4-1/png/pngtrans.c **** 
 161:fltk-1.3.4-1/png/pngtrans.c ****             case PNG_COLOR_TYPE_GRAY:
 162:fltk-1.3.4-1/png/pngtrans.c ****                if (png_ptr->bit_depth >= 8)
 163:fltk-1.3.4-1/png/pngtrans.c ****                {
 164:fltk-1.3.4-1/png/pngtrans.c ****                   png_ptr->usr_channels = 2;
 165:fltk-1.3.4-1/png/pngtrans.c ****                   break;
 166:fltk-1.3.4-1/png/pngtrans.c ****                }
 167:fltk-1.3.4-1/png/pngtrans.c **** 
 168:fltk-1.3.4-1/png/pngtrans.c ****                else
 169:fltk-1.3.4-1/png/pngtrans.c ****                {
 170:fltk-1.3.4-1/png/pngtrans.c ****                   /* There simply isn't any code in libpng to strip out bits
 171:fltk-1.3.4-1/png/pngtrans.c ****                    * from bytes when the components are less than a byte in
 172:fltk-1.3.4-1/png/pngtrans.c ****                    * size!
 173:fltk-1.3.4-1/png/pngtrans.c ****                    */
 174:fltk-1.3.4-1/png/pngtrans.c ****                   png_app_error(png_ptr,
 175:fltk-1.3.4-1/png/pngtrans.c ****                      "png_set_filler is invalid for low bit depth gray output");
 176:fltk-1.3.4-1/png/pngtrans.c ****                   return;
 177:fltk-1.3.4-1/png/pngtrans.c ****                }
 178:fltk-1.3.4-1/png/pngtrans.c **** 
 179:fltk-1.3.4-1/png/pngtrans.c ****             default:
 180:fltk-1.3.4-1/png/pngtrans.c ****                png_app_error(png_ptr,
 181:fltk-1.3.4-1/png/pngtrans.c ****                   "png_set_filler: inappropriate color type");
 182:fltk-1.3.4-1/png/pngtrans.c ****                return;
 183:fltk-1.3.4-1/png/pngtrans.c ****          }
 184:fltk-1.3.4-1/png/pngtrans.c **** #     else
 185:fltk-1.3.4-1/png/pngtrans.c ****          png_app_error(png_ptr, "png_set_filler not supported on write");
 186:fltk-1.3.4-1/png/pngtrans.c ****          return;
 187:fltk-1.3.4-1/png/pngtrans.c **** #     endif
 188:fltk-1.3.4-1/png/pngtrans.c ****    }
 189:fltk-1.3.4-1/png/pngtrans.c **** 
 190:fltk-1.3.4-1/png/pngtrans.c ****    /* Here on success - libpng supports the operation, set the transformation
 191:fltk-1.3.4-1/png/pngtrans.c ****     * and the flag to say where the filler channel is.
 192:fltk-1.3.4-1/png/pngtrans.c ****     */
 193:fltk-1.3.4-1/png/pngtrans.c ****    png_ptr->transformations |= PNG_FILLER;
 247              		.loc 1 193 4 view .LVU81
 248              		.loc 1 193 29 is_stmt 0 view .LVU82
 249 0037 818F3401 		orl	$32768, 308(%rdi)
 249      00000080 
 249      0000
 194:fltk-1.3.4-1/png/pngtrans.c **** 
 195:fltk-1.3.4-1/png/pngtrans.c ****    if (filler_loc == PNG_FILLER_AFTER)
 250              		.loc 1 195 4 is_stmt 1 view .LVU83
 251 0041 8B873001 		movl	304(%rdi), %eax
 251      0000
 196:fltk-1.3.4-1/png/pngtrans.c ****       png_ptr->flags |= PNG_FLAG_FILLER_AFTER;
 252              		.loc 1 196 22 is_stmt 0 view .LVU84
 253 0047 89C1     		movl	%eax, %ecx
 254 0049 0C80     		orb	$-128, %al
 255 004b 80E17F   		andb	$127, %cl
 256 004e 83FA01   		cmpl	$1, %edx
 257 0051 0F45C1   		cmovne	%ecx, %eax
 258 0054 89873001 		movl	%eax, 304(%rdi)
 258      0000
 259              	.LVL8:
 260              	.L34:
 261              		.loc 1 196 22 view .LVU85
 262              	.LBE5:
 263              	.LBE4:
 197:fltk-1.3.4-1/png/pngtrans.c **** 
 198:fltk-1.3.4-1/png/pngtrans.c ****    else
 199:fltk-1.3.4-1/png/pngtrans.c ****       png_ptr->flags &= ~PNG_FLAG_FILLER_AFTER;
 200:fltk-1.3.4-1/png/pngtrans.c **** }
 264              		.loc 1 200 1 view .LVU86
 265 005a C3       		ret
 266 005b 0F1F4400 		.p2align 4,,10
 266      00
 267              		.p2align 3
 268              	.L38:
 162:fltk-1.3.4-1/png/pngtrans.c ****                {
 269              		.loc 1 162 16 is_stmt 1 view .LVU87
 162:fltk-1.3.4-1/png/pngtrans.c ****                {
 270              		.loc 1 162 19 is_stmt 0 view .LVU88
 271 0060 80BF7802 		cmpb	$7, 632(%rdi)
 271      000007
 272 0067 761F     		jbe	.L40
 164:fltk-1.3.4-1/png/pngtrans.c ****                   break;
 273              		.loc 1 164 19 is_stmt 1 view .LVU89
 164:fltk-1.3.4-1/png/pngtrans.c ****                   break;
 274              		.loc 1 164 41 is_stmt 0 view .LVU90
 275 0069 C6877C02 		movb	$2, 636(%rdi)
 275      000002
 165:fltk-1.3.4-1/png/pngtrans.c ****                }
 276              		.loc 1 165 19 is_stmt 1 view .LVU91
 277 0070 EBC5     		jmp	.L37
 278              		.p2align 4,,10
 279 0072 660F1F44 		.p2align 3
 279      0000
 280              	.L39:
 180:fltk-1.3.4-1/png/pngtrans.c ****                   "png_set_filler: inappropriate color type");
 281              		.loc 1 180 16 view .LVU92
 282 0078 488D3500 		leaq	.LC1(%rip), %rsi
 282      000000
 283              	.LVL9:
 180:fltk-1.3.4-1/png/pngtrans.c ****                   "png_set_filler: inappropriate color type");
 284              		.loc 1 180 16 is_stmt 0 view .LVU93
 285 007f E9000000 		jmp	png_app_error@PLT
 285      00
 286              	.LVL10:
 287              		.p2align 4,,10
 288 0084 0F1F4000 		.p2align 3
 289              	.L40:
 174:fltk-1.3.4-1/png/pngtrans.c ****                      "png_set_filler is invalid for low bit depth gray output");
 290              		.loc 1 174 19 is_stmt 1 view .LVU94
 291 0088 488D3500 		leaq	.LC0(%rip), %rsi
 291      000000
 292              	.LVL11:
 174:fltk-1.3.4-1/png/pngtrans.c ****                      "png_set_filler is invalid for low bit depth gray output");
 293              		.loc 1 174 19 is_stmt 0 view .LVU95
 294 008f E9000000 		jmp	png_app_error@PLT
 294      00
 295              	.LVL12:
 174:fltk-1.3.4-1/png/pngtrans.c ****                      "png_set_filler is invalid for low bit depth gray output");
 296              		.loc 1 174 19 view .LVU96
 297              		.cfi_endproc
 298              	.LFE47:
 300              		.section	.text.png_set_add_alpha,"ax",@progbits
 301              		.p2align 4
 302              		.globl	png_set_add_alpha
 304              	png_set_add_alpha:
 305              	.LVL13:
 306              	.LFB48:
 201:fltk-1.3.4-1/png/pngtrans.c **** 
 202:fltk-1.3.4-1/png/pngtrans.c **** /* Added to libpng-1.2.7 */
 203:fltk-1.3.4-1/png/pngtrans.c **** void PNGAPI
 204:fltk-1.3.4-1/png/pngtrans.c **** png_set_add_alpha(png_structrp png_ptr, png_uint_32 filler, int filler_loc)
 205:fltk-1.3.4-1/png/pngtrans.c **** {
 307              		.loc 1 205 1 is_stmt 1 view -0
 308              		.cfi_startproc
 309              		.loc 1 205 1 is_stmt 0 view .LVU98
 310 0000 F30F1EFA 		endbr64
 206:fltk-1.3.4-1/png/pngtrans.c ****    png_debug(1, "in png_set_add_alpha");
 311              		.loc 1 206 4 is_stmt 1 view .LVU99
 207:fltk-1.3.4-1/png/pngtrans.c **** 
 208:fltk-1.3.4-1/png/pngtrans.c ****    if (png_ptr == NULL)
 312              		.loc 1 208 4 view .LVU100
 313              		.loc 1 208 7 is_stmt 0 view .LVU101
 314 0004 4885FF   		testq	%rdi, %rdi
 315 0007 7427     		je	.L54
 205:fltk-1.3.4-1/png/pngtrans.c ****    png_debug(1, "in png_set_add_alpha");
 316              		.loc 1 205 1 view .LVU102
 317 0009 53       		pushq	%rbx
 318              		.cfi_def_cfa_offset 16
 319              		.cfi_offset 3, -16
 320 000a 4889FB   		movq	%rdi, %rbx
 209:fltk-1.3.4-1/png/pngtrans.c ****       return;
 210:fltk-1.3.4-1/png/pngtrans.c **** 
 211:fltk-1.3.4-1/png/pngtrans.c ****    png_set_filler(png_ptr, filler, filler_loc);
 321              		.loc 1 211 4 is_stmt 1 view .LVU103
 322 000d E8000000 		call	png_set_filler
 322      00
 323              	.LVL14:
 212:fltk-1.3.4-1/png/pngtrans.c ****    /* The above may fail to do anything. */
 213:fltk-1.3.4-1/png/pngtrans.c ****    if ((png_ptr->transformations & PNG_FILLER) != 0)
 324              		.loc 1 213 4 view .LVU104
 325              		.loc 1 213 16 is_stmt 0 view .LVU105
 326 0012 8B833401 		movl	308(%rbx), %eax
 326      0000
 327              		.loc 1 213 7 view .LVU106
 328 0018 F6C480   		testb	$-128, %ah
 329 001b 740B     		je	.L46
 214:fltk-1.3.4-1/png/pngtrans.c ****       png_ptr->transformations |= PNG_ADD_ALPHA;
 330              		.loc 1 214 7 is_stmt 1 view .LVU107
 331              		.loc 1 214 32 is_stmt 0 view .LVU108
 332 001d 0D000000 		orl	$16777216, %eax
 332      01
 333 0022 89833401 		movl	%eax, 308(%rbx)
 333      0000
 334              	.L46:
 215:fltk-1.3.4-1/png/pngtrans.c **** }
 335              		.loc 1 215 1 view .LVU109
 336 0028 5B       		popq	%rbx
 337              		.cfi_def_cfa_offset 8
 338              	.LVL15:
 339              		.loc 1 215 1 view .LVU110
 340 0029 C3       		ret
 341              	.LVL16:
 342 002a 660F1F44 		.p2align 4,,10
 342      0000
 343              		.p2align 3
 344              	.L54:
 345              		.cfi_restore 3
 346              		.loc 1 215 1 view .LVU111
 347 0030 C3       		ret
 348              		.cfi_endproc
 349              	.LFE48:
 351              		.section	.text.png_set_swap_alpha,"ax",@progbits
 352              		.p2align 4
 353              		.globl	png_set_swap_alpha
 355              	png_set_swap_alpha:
 356              	.LVL17:
 357              	.LFB49:
 216:fltk-1.3.4-1/png/pngtrans.c **** 
 217:fltk-1.3.4-1/png/pngtrans.c **** #endif
 218:fltk-1.3.4-1/png/pngtrans.c **** 
 219:fltk-1.3.4-1/png/pngtrans.c **** #if defined(PNG_READ_SWAP_ALPHA_SUPPORTED) || \
 220:fltk-1.3.4-1/png/pngtrans.c ****     defined(PNG_WRITE_SWAP_ALPHA_SUPPORTED)
 221:fltk-1.3.4-1/png/pngtrans.c **** void PNGAPI
 222:fltk-1.3.4-1/png/pngtrans.c **** png_set_swap_alpha(png_structrp png_ptr)
 223:fltk-1.3.4-1/png/pngtrans.c **** {
 358              		.loc 1 223 1 is_stmt 1 view -0
 359              		.cfi_startproc
 360              		.loc 1 223 1 is_stmt 0 view .LVU113
 361 0000 F30F1EFA 		endbr64
 224:fltk-1.3.4-1/png/pngtrans.c ****    png_debug(1, "in png_set_swap_alpha");
 362              		.loc 1 224 4 is_stmt 1 view .LVU114
 225:fltk-1.3.4-1/png/pngtrans.c **** 
 226:fltk-1.3.4-1/png/pngtrans.c ****    if (png_ptr == NULL)
 363              		.loc 1 226 4 view .LVU115
 364              		.loc 1 226 7 is_stmt 0 view .LVU116
 365 0004 4885FF   		testq	%rdi, %rdi
 366 0007 740A     		je	.L57
 227:fltk-1.3.4-1/png/pngtrans.c ****       return;
 228:fltk-1.3.4-1/png/pngtrans.c **** 
 229:fltk-1.3.4-1/png/pngtrans.c ****    png_ptr->transformations |= PNG_SWAP_ALPHA;
 367              		.loc 1 229 4 is_stmt 1 view .LVU117
 368              		.loc 1 229 29 is_stmt 0 view .LVU118
 369 0009 818F3401 		orl	$131072, 308(%rdi)
 369      00000000 
 369      0200
 370              	.L57:
 230:fltk-1.3.4-1/png/pngtrans.c **** }
 371              		.loc 1 230 1 view .LVU119
 372 0013 C3       		ret
 373              		.cfi_endproc
 374              	.LFE49:
 376              		.section	.text.png_set_invert_alpha,"ax",@progbits
 377              		.p2align 4
 378              		.globl	png_set_invert_alpha
 380              	png_set_invert_alpha:
 381              	.LVL18:
 382              	.LFB50:
 231:fltk-1.3.4-1/png/pngtrans.c **** #endif
 232:fltk-1.3.4-1/png/pngtrans.c **** 
 233:fltk-1.3.4-1/png/pngtrans.c **** #if defined(PNG_READ_INVERT_ALPHA_SUPPORTED) || \
 234:fltk-1.3.4-1/png/pngtrans.c ****     defined(PNG_WRITE_INVERT_ALPHA_SUPPORTED)
 235:fltk-1.3.4-1/png/pngtrans.c **** void PNGAPI
 236:fltk-1.3.4-1/png/pngtrans.c **** png_set_invert_alpha(png_structrp png_ptr)
 237:fltk-1.3.4-1/png/pngtrans.c **** {
 383              		.loc 1 237 1 is_stmt 1 view -0
 384              		.cfi_startproc
 385              		.loc 1 237 1 is_stmt 0 view .LVU121
 386 0000 F30F1EFA 		endbr64
 238:fltk-1.3.4-1/png/pngtrans.c ****    png_debug(1, "in png_set_invert_alpha");
 387              		.loc 1 238 4 is_stmt 1 view .LVU122
 239:fltk-1.3.4-1/png/pngtrans.c **** 
 240:fltk-1.3.4-1/png/pngtrans.c ****    if (png_ptr == NULL)
 388              		.loc 1 240 4 view .LVU123
 389              		.loc 1 240 7 is_stmt 0 view .LVU124
 390 0004 4885FF   		testq	%rdi, %rdi
 391 0007 740A     		je	.L62
 241:fltk-1.3.4-1/png/pngtrans.c ****       return;
 242:fltk-1.3.4-1/png/pngtrans.c **** 
 243:fltk-1.3.4-1/png/pngtrans.c ****    png_ptr->transformations |= PNG_INVERT_ALPHA;
 392              		.loc 1 243 4 is_stmt 1 view .LVU125
 393              		.loc 1 243 29 is_stmt 0 view .LVU126
 394 0009 818F3401 		orl	$524288, 308(%rdi)
 394      00000000 
 394      0800
 395              	.L62:
 244:fltk-1.3.4-1/png/pngtrans.c **** }
 396              		.loc 1 244 1 view .LVU127
 397 0013 C3       		ret
 398              		.cfi_endproc
 399              	.LFE50:
 401              		.section	.text.png_set_invert_mono,"ax",@progbits
 402              		.p2align 4
 403              		.globl	png_set_invert_mono
 405              	png_set_invert_mono:
 406              	.LVL19:
 407              	.LFB51:
 245:fltk-1.3.4-1/png/pngtrans.c **** #endif
 246:fltk-1.3.4-1/png/pngtrans.c **** 
 247:fltk-1.3.4-1/png/pngtrans.c **** #if defined(PNG_READ_INVERT_SUPPORTED) || defined(PNG_WRITE_INVERT_SUPPORTED)
 248:fltk-1.3.4-1/png/pngtrans.c **** void PNGAPI
 249:fltk-1.3.4-1/png/pngtrans.c **** png_set_invert_mono(png_structrp png_ptr)
 250:fltk-1.3.4-1/png/pngtrans.c **** {
 408              		.loc 1 250 1 is_stmt 1 view -0
 409              		.cfi_startproc
 410              		.loc 1 250 1 is_stmt 0 view .LVU129
 411 0000 F30F1EFA 		endbr64
 251:fltk-1.3.4-1/png/pngtrans.c ****    png_debug(1, "in png_set_invert_mono");
 412              		.loc 1 251 4 is_stmt 1 view .LVU130
 252:fltk-1.3.4-1/png/pngtrans.c **** 
 253:fltk-1.3.4-1/png/pngtrans.c ****    if (png_ptr == NULL)
 413              		.loc 1 253 4 view .LVU131
 414              		.loc 1 253 7 is_stmt 0 view .LVU132
 415 0004 4885FF   		testq	%rdi, %rdi
 416 0007 7407     		je	.L67
 254:fltk-1.3.4-1/png/pngtrans.c ****       return;
 255:fltk-1.3.4-1/png/pngtrans.c **** 
 256:fltk-1.3.4-1/png/pngtrans.c ****    png_ptr->transformations |= PNG_INVERT_MONO;
 417              		.loc 1 256 4 is_stmt 1 view .LVU133
 418              		.loc 1 256 29 is_stmt 0 view .LVU134
 419 0009 838F3401 		orl	$32, 308(%rdi)
 419      000020
 420              	.L67:
 257:fltk-1.3.4-1/png/pngtrans.c **** }
 421              		.loc 1 257 1 view .LVU135
 422 0010 C3       		ret
 423              		.cfi_endproc
 424              	.LFE51:
 426              		.section	.text.png_do_invert,"ax",@progbits
 427              		.p2align 4
 428              		.globl	png_do_invert
 430              	png_do_invert:
 431              	.LVL20:
 432              	.LFB52:
 258:fltk-1.3.4-1/png/pngtrans.c **** 
 259:fltk-1.3.4-1/png/pngtrans.c **** /* Invert monochrome grayscale data */
 260:fltk-1.3.4-1/png/pngtrans.c **** void /* PRIVATE */
 261:fltk-1.3.4-1/png/pngtrans.c **** png_do_invert(png_row_infop row_info, png_bytep row)
 262:fltk-1.3.4-1/png/pngtrans.c **** {
 433              		.loc 1 262 1 is_stmt 1 view -0
 434              		.cfi_startproc
 435              		.loc 1 262 1 is_stmt 0 view .LVU137
 436 0000 F30F1EFA 		endbr64
 263:fltk-1.3.4-1/png/pngtrans.c ****    png_debug(1, "in png_do_invert");
 437              		.loc 1 263 4 is_stmt 1 view .LVU138
 264:fltk-1.3.4-1/png/pngtrans.c **** 
 265:fltk-1.3.4-1/png/pngtrans.c ****   /* This test removed from libpng version 1.0.13 and 1.2.0:
 266:fltk-1.3.4-1/png/pngtrans.c ****    *   if (row_info->bit_depth == 1 &&
 267:fltk-1.3.4-1/png/pngtrans.c ****    */
 268:fltk-1.3.4-1/png/pngtrans.c ****    if (row_info->color_type == PNG_COLOR_TYPE_GRAY)
 438              		.loc 1 268 4 view .LVU139
 439              		.loc 1 268 7 is_stmt 0 view .LVU140
 440 0004 807F1000 		cmpb	$0, 16(%rdi)
 441 0008 7526     		jne	.L73
 442              	.LBB6:
 269:fltk-1.3.4-1/png/pngtrans.c ****    {
 270:fltk-1.3.4-1/png/pngtrans.c ****       png_bytep rp = row;
 443              		.loc 1 270 7 is_stmt 1 view .LVU141
 444              	.LVL21:
 271:fltk-1.3.4-1/png/pngtrans.c ****       png_size_t i;
 445              		.loc 1 271 7 view .LVU142
 272:fltk-1.3.4-1/png/pngtrans.c ****       png_size_t istop = row_info->rowbytes;
 446              		.loc 1 272 7 view .LVU143
 447              		.loc 1 272 18 is_stmt 0 view .LVU144
 448 000a 488B4708 		movq	8(%rdi), %rax
 449              	.LVL22:
 273:fltk-1.3.4-1/png/pngtrans.c **** 
 274:fltk-1.3.4-1/png/pngtrans.c ****       for (i = 0; i < istop; i++)
 450              		.loc 1 274 7 is_stmt 1 view .LVU145
 451              		.loc 1 274 19 view .LVU146
 452              		.loc 1 274 7 is_stmt 0 view .LVU147
 453 000e 4885C0   		testq	%rax, %rax
 454 0011 742D     		je	.L72
 455 0013 4801F0   		addq	%rsi, %rax
 456              	.LVL23:
 457 0016 662E0F1F 		.p2align 4,,10
 457      84000000 
 457      0000
 458              		.p2align 3
 459              	.L75:
 275:fltk-1.3.4-1/png/pngtrans.c ****       {
 276:fltk-1.3.4-1/png/pngtrans.c ****          *rp = (png_byte)(~(*rp));
 460              		.loc 1 276 10 is_stmt 1 discriminator 3 view .LVU148
 461              		.loc 1 276 16 is_stmt 0 discriminator 3 view .LVU149
 462 0020 F616     		notb	(%rsi)
 277:fltk-1.3.4-1/png/pngtrans.c ****          rp++;
 463              		.loc 1 277 10 is_stmt 1 discriminator 3 view .LVU150
 464              		.loc 1 277 12 is_stmt 0 discriminator 3 view .LVU151
 465 0022 4883C601 		addq	$1, %rsi
 466              	.LVL24:
 274:fltk-1.3.4-1/png/pngtrans.c ****       {
 467              		.loc 1 274 30 is_stmt 1 discriminator 3 view .LVU152
 274:fltk-1.3.4-1/png/pngtrans.c ****       {
 468              		.loc 1 274 19 discriminator 3 view .LVU153
 274:fltk-1.3.4-1/png/pngtrans.c ****       {
 469              		.loc 1 274 7 is_stmt 0 discriminator 3 view .LVU154
 470 0026 4839F0   		cmpq	%rsi, %rax
 471 0029 75F5     		jne	.L75
 472 002b C3       		ret
 473              	.LVL25:
 474 002c 0F1F4000 		.p2align 4,,10
 475              		.p2align 3
 476              	.L73:
 274:fltk-1.3.4-1/png/pngtrans.c ****       {
 477              		.loc 1 274 7 discriminator 3 view .LVU155
 478              	.LBE6:
 278:fltk-1.3.4-1/png/pngtrans.c ****       }
 279:fltk-1.3.4-1/png/pngtrans.c ****    }
 280:fltk-1.3.4-1/png/pngtrans.c **** 
 281:fltk-1.3.4-1/png/pngtrans.c ****    else if (row_info->color_type == PNG_COLOR_TYPE_GRAY_ALPHA &&
 479              		.loc 1 281 9 is_stmt 1 view .LVU156
 480              		.loc 1 281 63 is_stmt 0 view .LVU157
 481 0030 0FB74710 		movzwl	16(%rdi), %eax
 482              		.loc 1 281 12 view .LVU158
 483 0034 663D0408 		cmpw	$2052, %ax
 484 0038 740E     		je	.L91
 282:fltk-1.3.4-1/png/pngtrans.c ****       row_info->bit_depth == 8)
 283:fltk-1.3.4-1/png/pngtrans.c ****    {
 284:fltk-1.3.4-1/png/pngtrans.c ****       png_bytep rp = row;
 285:fltk-1.3.4-1/png/pngtrans.c ****       png_size_t i;
 286:fltk-1.3.4-1/png/pngtrans.c ****       png_size_t istop = row_info->rowbytes;
 287:fltk-1.3.4-1/png/pngtrans.c **** 
 288:fltk-1.3.4-1/png/pngtrans.c ****       for (i = 0; i < istop; i += 2)
 289:fltk-1.3.4-1/png/pngtrans.c ****       {
 290:fltk-1.3.4-1/png/pngtrans.c ****          *rp = (png_byte)(~(*rp));
 291:fltk-1.3.4-1/png/pngtrans.c ****          rp += 2;
 292:fltk-1.3.4-1/png/pngtrans.c ****       }
 293:fltk-1.3.4-1/png/pngtrans.c ****    }
 294:fltk-1.3.4-1/png/pngtrans.c **** 
 295:fltk-1.3.4-1/png/pngtrans.c **** #ifdef PNG_16BIT_SUPPORTED
 296:fltk-1.3.4-1/png/pngtrans.c ****    else if (row_info->color_type == PNG_COLOR_TYPE_GRAY_ALPHA &&
 485              		.loc 1 296 9 is_stmt 1 view .LVU159
 486              		.loc 1 296 12 is_stmt 0 view .LVU160
 487 003a 663D0410 		cmpw	$4100, %ax
 488 003e 7428     		je	.L92
 489              	.L72:
 297:fltk-1.3.4-1/png/pngtrans.c ****       row_info->bit_depth == 16)
 298:fltk-1.3.4-1/png/pngtrans.c ****    {
 299:fltk-1.3.4-1/png/pngtrans.c ****       png_bytep rp = row;
 300:fltk-1.3.4-1/png/pngtrans.c ****       png_size_t i;
 301:fltk-1.3.4-1/png/pngtrans.c ****       png_size_t istop = row_info->rowbytes;
 302:fltk-1.3.4-1/png/pngtrans.c **** 
 303:fltk-1.3.4-1/png/pngtrans.c ****       for (i = 0; i < istop; i += 4)
 304:fltk-1.3.4-1/png/pngtrans.c ****       {
 305:fltk-1.3.4-1/png/pngtrans.c ****          *rp = (png_byte)(~(*rp));
 306:fltk-1.3.4-1/png/pngtrans.c ****          *(rp + 1) = (png_byte)(~(*(rp + 1)));
 307:fltk-1.3.4-1/png/pngtrans.c ****          rp += 4;
 308:fltk-1.3.4-1/png/pngtrans.c ****       }
 309:fltk-1.3.4-1/png/pngtrans.c ****    }
 310:fltk-1.3.4-1/png/pngtrans.c **** #endif
 311:fltk-1.3.4-1/png/pngtrans.c **** }
 490              		.loc 1 311 1 view .LVU161
 491 0040 C3       		ret
 492              		.p2align 4,,10
 493 0041 0F1F8000 		.p2align 3
 493      000000
 494              	.L91:
 495              	.LBB7:
 284:fltk-1.3.4-1/png/pngtrans.c ****       png_size_t i;
 496              		.loc 1 284 7 is_stmt 1 view .LVU162
 497              	.LVL26:
 285:fltk-1.3.4-1/png/pngtrans.c ****       png_size_t istop = row_info->rowbytes;
 498              		.loc 1 285 7 view .LVU163
 286:fltk-1.3.4-1/png/pngtrans.c **** 
 499              		.loc 1 286 7 view .LVU164
 286:fltk-1.3.4-1/png/pngtrans.c **** 
 500              		.loc 1 286 18 is_stmt 0 view .LVU165
 501 0048 488B5708 		movq	8(%rdi), %rdx
 502              	.LVL27:
 288:fltk-1.3.4-1/png/pngtrans.c ****       {
 503              		.loc 1 288 7 is_stmt 1 view .LVU166
 288:fltk-1.3.4-1/png/pngtrans.c ****       {
 504              		.loc 1 288 19 view .LVU167
 288:fltk-1.3.4-1/png/pngtrans.c ****       {
 505              		.loc 1 288 7 is_stmt 0 view .LVU168
 506 004c 4885D2   		testq	%rdx, %rdx
 507 004f 74EF     		je	.L72
 288:fltk-1.3.4-1/png/pngtrans.c ****       {
 508              		.loc 1 288 14 view .LVU169
 509 0051 31C0     		xorl	%eax, %eax
 510              	.LVL28:
 511              		.p2align 4,,10
 512 0053 0F1F4400 		.p2align 3
 512      00
 513              	.L77:
 290:fltk-1.3.4-1/png/pngtrans.c ****          rp += 2;
 514              		.loc 1 290 10 is_stmt 1 discriminator 3 view .LVU170
 290:fltk-1.3.4-1/png/pngtrans.c ****          rp += 2;
 515              		.loc 1 290 16 is_stmt 0 discriminator 3 view .LVU171
 516 0058 F61406   		notb	(%rsi,%rax)
 291:fltk-1.3.4-1/png/pngtrans.c ****       }
 517              		.loc 1 291 10 is_stmt 1 discriminator 3 view .LVU172
 518              	.LVL29:
 288:fltk-1.3.4-1/png/pngtrans.c ****       {
 519              		.loc 1 288 30 discriminator 3 view .LVU173
 288:fltk-1.3.4-1/png/pngtrans.c ****       {
 520              		.loc 1 288 32 is_stmt 0 discriminator 3 view .LVU174
 521 005b 4883C002 		addq	$2, %rax
 522              	.LVL30:
 288:fltk-1.3.4-1/png/pngtrans.c ****       {
 523              		.loc 1 288 19 is_stmt 1 discriminator 3 view .LVU175
 288:fltk-1.3.4-1/png/pngtrans.c ****       {
 524              		.loc 1 288 7 is_stmt 0 discriminator 3 view .LVU176
 525 005f 4839C2   		cmpq	%rax, %rdx
 526 0062 77F4     		ja	.L77
 527 0064 C3       		ret
 528              	.LVL31:
 529              		.p2align 4,,10
 530 0065 0F1F00   		.p2align 3
 531              	.L92:
 288:fltk-1.3.4-1/png/pngtrans.c ****       {
 532              		.loc 1 288 7 discriminator 3 view .LVU177
 533              	.LBE7:
 534              	.LBB8:
 299:fltk-1.3.4-1/png/pngtrans.c ****       png_size_t i;
 535              		.loc 1 299 7 is_stmt 1 view .LVU178
 300:fltk-1.3.4-1/png/pngtrans.c ****       png_size_t istop = row_info->rowbytes;
 536              		.loc 1 300 7 view .LVU179
 301:fltk-1.3.4-1/png/pngtrans.c **** 
 537              		.loc 1 301 7 view .LVU180
 301:fltk-1.3.4-1/png/pngtrans.c **** 
 538              		.loc 1 301 18 is_stmt 0 view .LVU181
 539 0068 488B5708 		movq	8(%rdi), %rdx
 540              	.LVL32:
 303:fltk-1.3.4-1/png/pngtrans.c ****       {
 541              		.loc 1 303 7 is_stmt 1 view .LVU182
 303:fltk-1.3.4-1/png/pngtrans.c ****       {
 542              		.loc 1 303 19 view .LVU183
 303:fltk-1.3.4-1/png/pngtrans.c ****       {
 543              		.loc 1 303 7 is_stmt 0 view .LVU184
 544 006c 4885D2   		testq	%rdx, %rdx
 545 006f 74CF     		je	.L72
 303:fltk-1.3.4-1/png/pngtrans.c ****       {
 546              		.loc 1 303 14 view .LVU185
 547 0071 31C0     		xorl	%eax, %eax
 548              	.LVL33:
 549              		.p2align 4,,10
 550 0073 0F1F4400 		.p2align 3
 550      00
 551              	.L78:
 305:fltk-1.3.4-1/png/pngtrans.c ****          *(rp + 1) = (png_byte)(~(*(rp + 1)));
 552              		.loc 1 305 10 is_stmt 1 discriminator 3 view .LVU186
 305:fltk-1.3.4-1/png/pngtrans.c ****          *(rp + 1) = (png_byte)(~(*(rp + 1)));
 553              		.loc 1 305 16 is_stmt 0 discriminator 3 view .LVU187
 554 0078 F61406   		notb	(%rsi,%rax)
 306:fltk-1.3.4-1/png/pngtrans.c ****          rp += 4;
 555              		.loc 1 306 10 is_stmt 1 discriminator 3 view .LVU188
 306:fltk-1.3.4-1/png/pngtrans.c ****          rp += 4;
 556              		.loc 1 306 22 is_stmt 0 discriminator 3 view .LVU189
 557 007b F6540601 		notb	1(%rsi,%rax)
 307:fltk-1.3.4-1/png/pngtrans.c ****       }
 558              		.loc 1 307 10 is_stmt 1 discriminator 3 view .LVU190
 559              	.LVL34:
 303:fltk-1.3.4-1/png/pngtrans.c ****       {
 560              		.loc 1 303 30 discriminator 3 view .LVU191
 303:fltk-1.3.4-1/png/pngtrans.c ****       {
 561              		.loc 1 303 32 is_stmt 0 discriminator 3 view .LVU192
 562 007f 4883C004 		addq	$4, %rax
 563              	.LVL35:
 303:fltk-1.3.4-1/png/pngtrans.c ****       {
 564              		.loc 1 303 19 is_stmt 1 discriminator 3 view .LVU193
 303:fltk-1.3.4-1/png/pngtrans.c ****       {
 565              		.loc 1 303 7 is_stmt 0 discriminator 3 view .LVU194
 566 0083 4839C2   		cmpq	%rax, %rdx
 567 0086 77F0     		ja	.L78
 568              	.LBE8:
 569              		.loc 1 311 1 view .LVU195
 570 0088 C3       		ret
 571              		.cfi_endproc
 572              	.LFE52:
 574              		.section	.text.png_do_swap,"ax",@progbits
 575              		.p2align 4
 576              		.globl	png_do_swap
 578              	png_do_swap:
 579              	.LVL36:
 580              	.LFB53:
 312:fltk-1.3.4-1/png/pngtrans.c **** #endif
 313:fltk-1.3.4-1/png/pngtrans.c **** 
 314:fltk-1.3.4-1/png/pngtrans.c **** #ifdef PNG_16BIT_SUPPORTED
 315:fltk-1.3.4-1/png/pngtrans.c **** #if defined(PNG_READ_SWAP_SUPPORTED) || defined(PNG_WRITE_SWAP_SUPPORTED)
 316:fltk-1.3.4-1/png/pngtrans.c **** /* Swaps byte order on 16 bit depth images */
 317:fltk-1.3.4-1/png/pngtrans.c **** void /* PRIVATE */
 318:fltk-1.3.4-1/png/pngtrans.c **** png_do_swap(png_row_infop row_info, png_bytep row)
 319:fltk-1.3.4-1/png/pngtrans.c **** {
 581              		.loc 1 319 1 is_stmt 1 view -0
 582              		.cfi_startproc
 583              		.loc 1 319 1 is_stmt 0 view .LVU197
 584 0000 F30F1EFA 		endbr64
 320:fltk-1.3.4-1/png/pngtrans.c ****    png_debug(1, "in png_do_swap");
 585              		.loc 1 320 4 is_stmt 1 view .LVU198
 321:fltk-1.3.4-1/png/pngtrans.c **** 
 322:fltk-1.3.4-1/png/pngtrans.c ****    if (row_info->bit_depth == 16)
 586              		.loc 1 322 4 view .LVU199
 587              		.loc 1 322 7 is_stmt 0 view .LVU200
 588 0004 807F1110 		cmpb	$16, 17(%rdi)
 589 0008 7406     		je	.L100
 590              	.L93:
 323:fltk-1.3.4-1/png/pngtrans.c ****    {
 324:fltk-1.3.4-1/png/pngtrans.c ****       png_bytep rp = row;
 325:fltk-1.3.4-1/png/pngtrans.c ****       png_uint_32 i;
 326:fltk-1.3.4-1/png/pngtrans.c ****       png_uint_32 istop= row_info->width * row_info->channels;
 327:fltk-1.3.4-1/png/pngtrans.c **** 
 328:fltk-1.3.4-1/png/pngtrans.c ****       for (i = 0; i < istop; i++, rp += 2)
 329:fltk-1.3.4-1/png/pngtrans.c ****       {
 330:fltk-1.3.4-1/png/pngtrans.c **** #ifdef PNG_BUILTIN_BSWAP16_SUPPORTED
 331:fltk-1.3.4-1/png/pngtrans.c ****          /* Feature added to libpng-1.6.11 for testing purposes, not
 332:fltk-1.3.4-1/png/pngtrans.c ****           * enabled by default.
 333:fltk-1.3.4-1/png/pngtrans.c ****           */
 334:fltk-1.3.4-1/png/pngtrans.c ****          *(png_uint_16*)rp = __builtin_bswap16(*(png_uint_16*)rp);
 335:fltk-1.3.4-1/png/pngtrans.c **** #else
 336:fltk-1.3.4-1/png/pngtrans.c ****          png_byte t = *rp;
 337:fltk-1.3.4-1/png/pngtrans.c ****          *rp = *(rp + 1);
 338:fltk-1.3.4-1/png/pngtrans.c ****          *(rp + 1) = t;
 339:fltk-1.3.4-1/png/pngtrans.c **** #endif
 340:fltk-1.3.4-1/png/pngtrans.c ****       }
 341:fltk-1.3.4-1/png/pngtrans.c ****    }
 342:fltk-1.3.4-1/png/pngtrans.c **** }
 591              		.loc 1 342 1 view .LVU201
 592 000a C3       		ret
 593 000b 0F1F4400 		.p2align 4,,10
 593      00
 594              		.p2align 3
 595              	.L100:
 596              	.LBB9:
 324:fltk-1.3.4-1/png/pngtrans.c ****       png_uint_32 i;
 597              		.loc 1 324 7 is_stmt 1 view .LVU202
 598              	.LVL37:
 325:fltk-1.3.4-1/png/pngtrans.c ****       png_uint_32 istop= row_info->width * row_info->channels;
 599              		.loc 1 325 7 view .LVU203
 326:fltk-1.3.4-1/png/pngtrans.c **** 
 600              		.loc 1 326 7 view .LVU204
 326:fltk-1.3.4-1/png/pngtrans.c **** 
 601              		.loc 1 326 52 is_stmt 0 view .LVU205
 602 0010 0FB64712 		movzbl	18(%rdi), %eax
 326:fltk-1.3.4-1/png/pngtrans.c **** 
 603              		.loc 1 326 19 view .LVU206
 604 0014 0FAF07   		imull	(%rdi), %eax
 605              	.LVL38:
 328:fltk-1.3.4-1/png/pngtrans.c ****       {
 606              		.loc 1 328 7 is_stmt 1 view .LVU207
 328:fltk-1.3.4-1/png/pngtrans.c ****       {
 607              		.loc 1 328 19 view .LVU208
 328:fltk-1.3.4-1/png/pngtrans.c ****       {
 608              		.loc 1 328 7 is_stmt 0 view .LVU209
 609 0017 85C0     		testl	%eax, %eax
 610 0019 74EF     		je	.L93
 611 001b 83E801   		subl	$1, %eax
 612              	.LVL39:
 328:fltk-1.3.4-1/png/pngtrans.c ****       {
 613              		.loc 1 328 7 view .LVU210
 614 001e 488D4C46 		leaq	2(%rsi,%rax,2), %rcx
 614      02
 615              	.LVL40:
 616              		.p2align 4,,10
 617 0023 0F1F4400 		.p2align 3
 617      00
 618              	.L95:
 619              	.LBB10:
 336:fltk-1.3.4-1/png/pngtrans.c ****          *rp = *(rp + 1);
 620              		.loc 1 336 10 is_stmt 1 discriminator 3 view .LVU211
 336:fltk-1.3.4-1/png/pngtrans.c ****          *rp = *(rp + 1);
 621              		.loc 1 336 19 is_stmt 0 discriminator 3 view .LVU212
 622 0028 0FB606   		movzbl	(%rsi), %eax
 623              	.LVL41:
 337:fltk-1.3.4-1/png/pngtrans.c ****          *(rp + 1) = t;
 624              		.loc 1 337 10 is_stmt 1 discriminator 3 view .LVU213
 337:fltk-1.3.4-1/png/pngtrans.c ****          *(rp + 1) = t;
 625              		.loc 1 337 14 is_stmt 0 discriminator 3 view .LVU214
 626 002b 0FB65601 		movzbl	1(%rsi), %edx
 627              	.LBE10:
 328:fltk-1.3.4-1/png/pngtrans.c ****       {
 628              		.loc 1 328 38 discriminator 3 view .LVU215
 629 002f 4883C602 		addq	$2, %rsi
 630              	.LVL42:
 631              	.LBB11:
 337:fltk-1.3.4-1/png/pngtrans.c ****          *(rp + 1) = t;
 632              		.loc 1 337 14 discriminator 3 view .LVU216
 633 0033 8856FE   		movb	%dl, -2(%rsi)
 338:fltk-1.3.4-1/png/pngtrans.c **** #endif
 634              		.loc 1 338 10 is_stmt 1 discriminator 3 view .LVU217
 338:fltk-1.3.4-1/png/pngtrans.c **** #endif
 635              		.loc 1 338 20 is_stmt 0 discriminator 3 view .LVU218
 636 0036 8846FF   		movb	%al, -1(%rsi)
 637              	.LBE11:
 328:fltk-1.3.4-1/png/pngtrans.c ****       {
 638              		.loc 1 328 30 is_stmt 1 discriminator 3 view .LVU219
 639              	.LVL43:
 328:fltk-1.3.4-1/png/pngtrans.c ****       {
 640              		.loc 1 328 19 discriminator 3 view .LVU220
 328:fltk-1.3.4-1/png/pngtrans.c ****       {
 641              		.loc 1 328 7 is_stmt 0 discriminator 3 view .LVU221
 642 0039 4839CE   		cmpq	%rcx, %rsi
 643 003c 75EA     		jne	.L95
 644              	.LBE9:
 645              		.loc 1 342 1 view .LVU222
 646 003e C3       		ret
 647              		.cfi_endproc
 648              	.LFE53:
 650              		.section	.text.png_do_packswap,"ax",@progbits
 651              		.p2align 4
 652              		.globl	png_do_packswap
 654              	png_do_packswap:
 655              	.LVL44:
 656              	.LFB54:
 343:fltk-1.3.4-1/png/pngtrans.c **** #endif
 344:fltk-1.3.4-1/png/pngtrans.c **** #endif
 345:fltk-1.3.4-1/png/pngtrans.c **** 
 346:fltk-1.3.4-1/png/pngtrans.c **** #if defined(PNG_READ_PACKSWAP_SUPPORTED)||defined(PNG_WRITE_PACKSWAP_SUPPORTED)
 347:fltk-1.3.4-1/png/pngtrans.c **** static PNG_CONST png_byte onebppswaptable[256] = {
 348:fltk-1.3.4-1/png/pngtrans.c ****    0x00, 0x80, 0x40, 0xC0, 0x20, 0xA0, 0x60, 0xE0,
 349:fltk-1.3.4-1/png/pngtrans.c ****    0x10, 0x90, 0x50, 0xD0, 0x30, 0xB0, 0x70, 0xF0,
 350:fltk-1.3.4-1/png/pngtrans.c ****    0x08, 0x88, 0x48, 0xC8, 0x28, 0xA8, 0x68, 0xE8,
 351:fltk-1.3.4-1/png/pngtrans.c ****    0x18, 0x98, 0x58, 0xD8, 0x38, 0xB8, 0x78, 0xF8,
 352:fltk-1.3.4-1/png/pngtrans.c ****    0x04, 0x84, 0x44, 0xC4, 0x24, 0xA4, 0x64, 0xE4,
 353:fltk-1.3.4-1/png/pngtrans.c ****    0x14, 0x94, 0x54, 0xD4, 0x34, 0xB4, 0x74, 0xF4,
 354:fltk-1.3.4-1/png/pngtrans.c ****    0x0C, 0x8C, 0x4C, 0xCC, 0x2C, 0xAC, 0x6C, 0xEC,
 355:fltk-1.3.4-1/png/pngtrans.c ****    0x1C, 0x9C, 0x5C, 0xDC, 0x3C, 0xBC, 0x7C, 0xFC,
 356:fltk-1.3.4-1/png/pngtrans.c ****    0x02, 0x82, 0x42, 0xC2, 0x22, 0xA2, 0x62, 0xE2,
 357:fltk-1.3.4-1/png/pngtrans.c ****    0x12, 0x92, 0x52, 0xD2, 0x32, 0xB2, 0x72, 0xF2,
 358:fltk-1.3.4-1/png/pngtrans.c ****    0x0A, 0x8A, 0x4A, 0xCA, 0x2A, 0xAA, 0x6A, 0xEA,
 359:fltk-1.3.4-1/png/pngtrans.c ****    0x1A, 0x9A, 0x5A, 0xDA, 0x3A, 0xBA, 0x7A, 0xFA,
 360:fltk-1.3.4-1/png/pngtrans.c ****    0x06, 0x86, 0x46, 0xC6, 0x26, 0xA6, 0x66, 0xE6,
 361:fltk-1.3.4-1/png/pngtrans.c ****    0x16, 0x96, 0x56, 0xD6, 0x36, 0xB6, 0x76, 0xF6,
 362:fltk-1.3.4-1/png/pngtrans.c ****    0x0E, 0x8E, 0x4E, 0xCE, 0x2E, 0xAE, 0x6E, 0xEE,
 363:fltk-1.3.4-1/png/pngtrans.c ****    0x1E, 0x9E, 0x5E, 0xDE, 0x3E, 0xBE, 0x7E, 0xFE,
 364:fltk-1.3.4-1/png/pngtrans.c ****    0x01, 0x81, 0x41, 0xC1, 0x21, 0xA1, 0x61, 0xE1,
 365:fltk-1.3.4-1/png/pngtrans.c ****    0x11, 0x91, 0x51, 0xD1, 0x31, 0xB1, 0x71, 0xF1,
 366:fltk-1.3.4-1/png/pngtrans.c ****    0x09, 0x89, 0x49, 0xC9, 0x29, 0xA9, 0x69, 0xE9,
 367:fltk-1.3.4-1/png/pngtrans.c ****    0x19, 0x99, 0x59, 0xD9, 0x39, 0xB9, 0x79, 0xF9,
 368:fltk-1.3.4-1/png/pngtrans.c ****    0x05, 0x85, 0x45, 0xC5, 0x25, 0xA5, 0x65, 0xE5,
 369:fltk-1.3.4-1/png/pngtrans.c ****    0x15, 0x95, 0x55, 0xD5, 0x35, 0xB5, 0x75, 0xF5,
 370:fltk-1.3.4-1/png/pngtrans.c ****    0x0D, 0x8D, 0x4D, 0xCD, 0x2D, 0xAD, 0x6D, 0xED,
 371:fltk-1.3.4-1/png/pngtrans.c ****    0x1D, 0x9D, 0x5D, 0xDD, 0x3D, 0xBD, 0x7D, 0xFD,
 372:fltk-1.3.4-1/png/pngtrans.c ****    0x03, 0x83, 0x43, 0xC3, 0x23, 0xA3, 0x63, 0xE3,
 373:fltk-1.3.4-1/png/pngtrans.c ****    0x13, 0x93, 0x53, 0xD3, 0x33, 0xB3, 0x73, 0xF3,
 374:fltk-1.3.4-1/png/pngtrans.c ****    0x0B, 0x8B, 0x4B, 0xCB, 0x2B, 0xAB, 0x6B, 0xEB,
 375:fltk-1.3.4-1/png/pngtrans.c ****    0x1B, 0x9B, 0x5B, 0xDB, 0x3B, 0xBB, 0x7B, 0xFB,
 376:fltk-1.3.4-1/png/pngtrans.c ****    0x07, 0x87, 0x47, 0xC7, 0x27, 0xA7, 0x67, 0xE7,
 377:fltk-1.3.4-1/png/pngtrans.c ****    0x17, 0x97, 0x57, 0xD7, 0x37, 0xB7, 0x77, 0xF7,
 378:fltk-1.3.4-1/png/pngtrans.c ****    0x0F, 0x8F, 0x4F, 0xCF, 0x2F, 0xAF, 0x6F, 0xEF,
 379:fltk-1.3.4-1/png/pngtrans.c ****    0x1F, 0x9F, 0x5F, 0xDF, 0x3F, 0xBF, 0x7F, 0xFF
 380:fltk-1.3.4-1/png/pngtrans.c **** };
 381:fltk-1.3.4-1/png/pngtrans.c **** 
 382:fltk-1.3.4-1/png/pngtrans.c **** static PNG_CONST png_byte twobppswaptable[256] = {
 383:fltk-1.3.4-1/png/pngtrans.c ****    0x00, 0x40, 0x80, 0xC0, 0x10, 0x50, 0x90, 0xD0,
 384:fltk-1.3.4-1/png/pngtrans.c ****    0x20, 0x60, 0xA0, 0xE0, 0x30, 0x70, 0xB0, 0xF0,
 385:fltk-1.3.4-1/png/pngtrans.c ****    0x04, 0x44, 0x84, 0xC4, 0x14, 0x54, 0x94, 0xD4,
 386:fltk-1.3.4-1/png/pngtrans.c ****    0x24, 0x64, 0xA4, 0xE4, 0x34, 0x74, 0xB4, 0xF4,
 387:fltk-1.3.4-1/png/pngtrans.c ****    0x08, 0x48, 0x88, 0xC8, 0x18, 0x58, 0x98, 0xD8,
 388:fltk-1.3.4-1/png/pngtrans.c ****    0x28, 0x68, 0xA8, 0xE8, 0x38, 0x78, 0xB8, 0xF8,
 389:fltk-1.3.4-1/png/pngtrans.c ****    0x0C, 0x4C, 0x8C, 0xCC, 0x1C, 0x5C, 0x9C, 0xDC,
 390:fltk-1.3.4-1/png/pngtrans.c ****    0x2C, 0x6C, 0xAC, 0xEC, 0x3C, 0x7C, 0xBC, 0xFC,
 391:fltk-1.3.4-1/png/pngtrans.c ****    0x01, 0x41, 0x81, 0xC1, 0x11, 0x51, 0x91, 0xD1,
 392:fltk-1.3.4-1/png/pngtrans.c ****    0x21, 0x61, 0xA1, 0xE1, 0x31, 0x71, 0xB1, 0xF1,
 393:fltk-1.3.4-1/png/pngtrans.c ****    0x05, 0x45, 0x85, 0xC5, 0x15, 0x55, 0x95, 0xD5,
 394:fltk-1.3.4-1/png/pngtrans.c ****    0x25, 0x65, 0xA5, 0xE5, 0x35, 0x75, 0xB5, 0xF5,
 395:fltk-1.3.4-1/png/pngtrans.c ****    0x09, 0x49, 0x89, 0xC9, 0x19, 0x59, 0x99, 0xD9,
 396:fltk-1.3.4-1/png/pngtrans.c ****    0x29, 0x69, 0xA9, 0xE9, 0x39, 0x79, 0xB9, 0xF9,
 397:fltk-1.3.4-1/png/pngtrans.c ****    0x0D, 0x4D, 0x8D, 0xCD, 0x1D, 0x5D, 0x9D, 0xDD,
 398:fltk-1.3.4-1/png/pngtrans.c ****    0x2D, 0x6D, 0xAD, 0xED, 0x3D, 0x7D, 0xBD, 0xFD,
 399:fltk-1.3.4-1/png/pngtrans.c ****    0x02, 0x42, 0x82, 0xC2, 0x12, 0x52, 0x92, 0xD2,
 400:fltk-1.3.4-1/png/pngtrans.c ****    0x22, 0x62, 0xA2, 0xE2, 0x32, 0x72, 0xB2, 0xF2,
 401:fltk-1.3.4-1/png/pngtrans.c ****    0x06, 0x46, 0x86, 0xC6, 0x16, 0x56, 0x96, 0xD6,
 402:fltk-1.3.4-1/png/pngtrans.c ****    0x26, 0x66, 0xA6, 0xE6, 0x36, 0x76, 0xB6, 0xF6,
 403:fltk-1.3.4-1/png/pngtrans.c ****    0x0A, 0x4A, 0x8A, 0xCA, 0x1A, 0x5A, 0x9A, 0xDA,
 404:fltk-1.3.4-1/png/pngtrans.c ****    0x2A, 0x6A, 0xAA, 0xEA, 0x3A, 0x7A, 0xBA, 0xFA,
 405:fltk-1.3.4-1/png/pngtrans.c ****    0x0E, 0x4E, 0x8E, 0xCE, 0x1E, 0x5E, 0x9E, 0xDE,
 406:fltk-1.3.4-1/png/pngtrans.c ****    0x2E, 0x6E, 0xAE, 0xEE, 0x3E, 0x7E, 0xBE, 0xFE,
 407:fltk-1.3.4-1/png/pngtrans.c ****    0x03, 0x43, 0x83, 0xC3, 0x13, 0x53, 0x93, 0xD3,
 408:fltk-1.3.4-1/png/pngtrans.c ****    0x23, 0x63, 0xA3, 0xE3, 0x33, 0x73, 0xB3, 0xF3,
 409:fltk-1.3.4-1/png/pngtrans.c ****    0x07, 0x47, 0x87, 0xC7, 0x17, 0x57, 0x97, 0xD7,
 410:fltk-1.3.4-1/png/pngtrans.c ****    0x27, 0x67, 0xA7, 0xE7, 0x37, 0x77, 0xB7, 0xF7,
 411:fltk-1.3.4-1/png/pngtrans.c ****    0x0B, 0x4B, 0x8B, 0xCB, 0x1B, 0x5B, 0x9B, 0xDB,
 412:fltk-1.3.4-1/png/pngtrans.c ****    0x2B, 0x6B, 0xAB, 0xEB, 0x3B, 0x7B, 0xBB, 0xFB,
 413:fltk-1.3.4-1/png/pngtrans.c ****    0x0F, 0x4F, 0x8F, 0xCF, 0x1F, 0x5F, 0x9F, 0xDF,
 414:fltk-1.3.4-1/png/pngtrans.c ****    0x2F, 0x6F, 0xAF, 0xEF, 0x3F, 0x7F, 0xBF, 0xFF
 415:fltk-1.3.4-1/png/pngtrans.c **** };
 416:fltk-1.3.4-1/png/pngtrans.c **** 
 417:fltk-1.3.4-1/png/pngtrans.c **** static PNG_CONST png_byte fourbppswaptable[256] = {
 418:fltk-1.3.4-1/png/pngtrans.c ****    0x00, 0x10, 0x20, 0x30, 0x40, 0x50, 0x60, 0x70,
 419:fltk-1.3.4-1/png/pngtrans.c ****    0x80, 0x90, 0xA0, 0xB0, 0xC0, 0xD0, 0xE0, 0xF0,
 420:fltk-1.3.4-1/png/pngtrans.c ****    0x01, 0x11, 0x21, 0x31, 0x41, 0x51, 0x61, 0x71,
 421:fltk-1.3.4-1/png/pngtrans.c ****    0x81, 0x91, 0xA1, 0xB1, 0xC1, 0xD1, 0xE1, 0xF1,
 422:fltk-1.3.4-1/png/pngtrans.c ****    0x02, 0x12, 0x22, 0x32, 0x42, 0x52, 0x62, 0x72,
 423:fltk-1.3.4-1/png/pngtrans.c ****    0x82, 0x92, 0xA2, 0xB2, 0xC2, 0xD2, 0xE2, 0xF2,
 424:fltk-1.3.4-1/png/pngtrans.c ****    0x03, 0x13, 0x23, 0x33, 0x43, 0x53, 0x63, 0x73,
 425:fltk-1.3.4-1/png/pngtrans.c ****    0x83, 0x93, 0xA3, 0xB3, 0xC3, 0xD3, 0xE3, 0xF3,
 426:fltk-1.3.4-1/png/pngtrans.c ****    0x04, 0x14, 0x24, 0x34, 0x44, 0x54, 0x64, 0x74,
 427:fltk-1.3.4-1/png/pngtrans.c ****    0x84, 0x94, 0xA4, 0xB4, 0xC4, 0xD4, 0xE4, 0xF4,
 428:fltk-1.3.4-1/png/pngtrans.c ****    0x05, 0x15, 0x25, 0x35, 0x45, 0x55, 0x65, 0x75,
 429:fltk-1.3.4-1/png/pngtrans.c ****    0x85, 0x95, 0xA5, 0xB5, 0xC5, 0xD5, 0xE5, 0xF5,
 430:fltk-1.3.4-1/png/pngtrans.c ****    0x06, 0x16, 0x26, 0x36, 0x46, 0x56, 0x66, 0x76,
 431:fltk-1.3.4-1/png/pngtrans.c ****    0x86, 0x96, 0xA6, 0xB6, 0xC6, 0xD6, 0xE6, 0xF6,
 432:fltk-1.3.4-1/png/pngtrans.c ****    0x07, 0x17, 0x27, 0x37, 0x47, 0x57, 0x67, 0x77,
 433:fltk-1.3.4-1/png/pngtrans.c ****    0x87, 0x97, 0xA7, 0xB7, 0xC7, 0xD7, 0xE7, 0xF7,
 434:fltk-1.3.4-1/png/pngtrans.c ****    0x08, 0x18, 0x28, 0x38, 0x48, 0x58, 0x68, 0x78,
 435:fltk-1.3.4-1/png/pngtrans.c ****    0x88, 0x98, 0xA8, 0xB8, 0xC8, 0xD8, 0xE8, 0xF8,
 436:fltk-1.3.4-1/png/pngtrans.c ****    0x09, 0x19, 0x29, 0x39, 0x49, 0x59, 0x69, 0x79,
 437:fltk-1.3.4-1/png/pngtrans.c ****    0x89, 0x99, 0xA9, 0xB9, 0xC9, 0xD9, 0xE9, 0xF9,
 438:fltk-1.3.4-1/png/pngtrans.c ****    0x0A, 0x1A, 0x2A, 0x3A, 0x4A, 0x5A, 0x6A, 0x7A,
 439:fltk-1.3.4-1/png/pngtrans.c ****    0x8A, 0x9A, 0xAA, 0xBA, 0xCA, 0xDA, 0xEA, 0xFA,
 440:fltk-1.3.4-1/png/pngtrans.c ****    0x0B, 0x1B, 0x2B, 0x3B, 0x4B, 0x5B, 0x6B, 0x7B,
 441:fltk-1.3.4-1/png/pngtrans.c ****    0x8B, 0x9B, 0xAB, 0xBB, 0xCB, 0xDB, 0xEB, 0xFB,
 442:fltk-1.3.4-1/png/pngtrans.c ****    0x0C, 0x1C, 0x2C, 0x3C, 0x4C, 0x5C, 0x6C, 0x7C,
 443:fltk-1.3.4-1/png/pngtrans.c ****    0x8C, 0x9C, 0xAC, 0xBC, 0xCC, 0xDC, 0xEC, 0xFC,
 444:fltk-1.3.4-1/png/pngtrans.c ****    0x0D, 0x1D, 0x2D, 0x3D, 0x4D, 0x5D, 0x6D, 0x7D,
 445:fltk-1.3.4-1/png/pngtrans.c ****    0x8D, 0x9D, 0xAD, 0xBD, 0xCD, 0xDD, 0xED, 0xFD,
 446:fltk-1.3.4-1/png/pngtrans.c ****    0x0E, 0x1E, 0x2E, 0x3E, 0x4E, 0x5E, 0x6E, 0x7E,
 447:fltk-1.3.4-1/png/pngtrans.c ****    0x8E, 0x9E, 0xAE, 0xBE, 0xCE, 0xDE, 0xEE, 0xFE,
 448:fltk-1.3.4-1/png/pngtrans.c ****    0x0F, 0x1F, 0x2F, 0x3F, 0x4F, 0x5F, 0x6F, 0x7F,
 449:fltk-1.3.4-1/png/pngtrans.c ****    0x8F, 0x9F, 0xAF, 0xBF, 0xCF, 0xDF, 0xEF, 0xFF
 450:fltk-1.3.4-1/png/pngtrans.c **** };
 451:fltk-1.3.4-1/png/pngtrans.c **** 
 452:fltk-1.3.4-1/png/pngtrans.c **** /* Swaps pixel packing order within bytes */
 453:fltk-1.3.4-1/png/pngtrans.c **** void /* PRIVATE */
 454:fltk-1.3.4-1/png/pngtrans.c **** png_do_packswap(png_row_infop row_info, png_bytep row)
 455:fltk-1.3.4-1/png/pngtrans.c **** {
 657              		.loc 1 455 1 is_stmt 1 view -0
 658              		.cfi_startproc
 659              		.loc 1 455 1 is_stmt 0 view .LVU224
 660 0000 F30F1EFA 		endbr64
 456:fltk-1.3.4-1/png/pngtrans.c ****    png_debug(1, "in png_do_packswap");
 661              		.loc 1 456 4 is_stmt 1 view .LVU225
 457:fltk-1.3.4-1/png/pngtrans.c **** 
 458:fltk-1.3.4-1/png/pngtrans.c ****    if (row_info->bit_depth < 8)
 662              		.loc 1 458 4 view .LVU226
 663              		.loc 1 458 16 is_stmt 0 view .LVU227
 664 0004 0FB64711 		movzbl	17(%rdi), %eax
 665              		.loc 1 458 7 view .LVU228
 666 0008 3C07     		cmpb	$7, %al
 667 000a 7737     		ja	.L101
 668              	.LBB12:
 459:fltk-1.3.4-1/png/pngtrans.c ****    {
 460:fltk-1.3.4-1/png/pngtrans.c ****       png_bytep rp;
 669              		.loc 1 460 7 is_stmt 1 view .LVU229
 461:fltk-1.3.4-1/png/pngtrans.c ****       png_const_bytep end, table;
 670              		.loc 1 461 7 view .LVU230
 462:fltk-1.3.4-1/png/pngtrans.c **** 
 463:fltk-1.3.4-1/png/pngtrans.c ****       end = row + row_info->rowbytes;
 671              		.loc 1 463 7 view .LVU231
 672              		.loc 1 463 11 is_stmt 0 view .LVU232
 673 000c 488B5708 		movq	8(%rdi), %rdx
 674 0010 4801F2   		addq	%rsi, %rdx
 675              	.LVL45:
 464:fltk-1.3.4-1/png/pngtrans.c **** 
 465:fltk-1.3.4-1/png/pngtrans.c ****       if (row_info->bit_depth == 1)
 676              		.loc 1 465 7 is_stmt 1 view .LVU233
 677              		.loc 1 465 10 is_stmt 0 view .LVU234
 678 0013 3C01     		cmpb	$1, %al
 679 0015 7431     		je	.L105
 466:fltk-1.3.4-1/png/pngtrans.c ****          table = onebppswaptable;
 467:fltk-1.3.4-1/png/pngtrans.c **** 
 468:fltk-1.3.4-1/png/pngtrans.c ****       else if (row_info->bit_depth == 2)
 680              		.loc 1 468 12 is_stmt 1 view .LVU235
 681              		.loc 1 468 15 is_stmt 0 view .LVU236
 682 0017 3C02     		cmpb	$2, %al
 683 0019 743D     		je	.L106
 469:fltk-1.3.4-1/png/pngtrans.c ****          table = twobppswaptable;
 470:fltk-1.3.4-1/png/pngtrans.c **** 
 471:fltk-1.3.4-1/png/pngtrans.c ****       else if (row_info->bit_depth == 4)
 684              		.loc 1 471 12 is_stmt 1 view .LVU237
 472:fltk-1.3.4-1/png/pngtrans.c ****          table = fourbppswaptable;
 685              		.loc 1 472 16 is_stmt 0 view .LVU238
 686 001b 488D0D00 		leaq	fourbppswaptable(%rip), %rcx
 686      000000
 471:fltk-1.3.4-1/png/pngtrans.c ****          table = fourbppswaptable;
 687              		.loc 1 471 15 view .LVU239
 688 0022 3C04     		cmpb	$4, %al
 689 0024 751D     		jne	.L101
 690              	.L103:
 691              	.LVL46:
 473:fltk-1.3.4-1/png/pngtrans.c **** 
 474:fltk-1.3.4-1/png/pngtrans.c ****       else
 475:fltk-1.3.4-1/png/pngtrans.c ****          return;
 476:fltk-1.3.4-1/png/pngtrans.c **** 
 477:fltk-1.3.4-1/png/pngtrans.c ****       for (rp = row; rp < end; rp++)
 692              		.loc 1 477 7 is_stmt 1 view .LVU240
 693              		.loc 1 477 22 view .LVU241
 694              		.loc 1 477 7 is_stmt 0 view .LVU242
 695 0026 4839D6   		cmpq	%rdx, %rsi
 696 0029 7318     		jnb	.L101
 697              	.LVL47:
 698 002b 0F1F4400 		.p2align 4,,10
 698      00
 699              		.p2align 3
 700              	.L104:
 478:fltk-1.3.4-1/png/pngtrans.c ****          *rp = table[*rp];
 701              		.loc 1 478 10 is_stmt 1 discriminator 3 view .LVU243
 702              		.loc 1 478 22 is_stmt 0 discriminator 3 view .LVU244
 703 0030 0FB606   		movzbl	(%rsi), %eax
 477:fltk-1.3.4-1/png/pngtrans.c ****          *rp = table[*rp];
 704              		.loc 1 477 34 discriminator 3 view .LVU245
 705 0033 4883C601 		addq	$1, %rsi
 706              	.LVL48:
 707              		.loc 1 478 21 discriminator 3 view .LVU246
 708 0037 0FB60401 		movzbl	(%rcx,%rax), %eax
 709              		.loc 1 478 14 discriminator 3 view .LVU247
 710 003b 8846FF   		movb	%al, -1(%rsi)
 477:fltk-1.3.4-1/png/pngtrans.c ****          *rp = table[*rp];
 711              		.loc 1 477 32 is_stmt 1 discriminator 3 view .LVU248
 712              	.LVL49:
 477:fltk-1.3.4-1/png/pngtrans.c ****          *rp = table[*rp];
 713              		.loc 1 477 22 discriminator 3 view .LVU249
 477:fltk-1.3.4-1/png/pngtrans.c ****          *rp = table[*rp];
 714              		.loc 1 477 7 is_stmt 0 discriminator 3 view .LVU250
 715 003e 4839F2   		cmpq	%rsi, %rdx
 716 0041 75ED     		jne	.L104
 717              	.LVL50:
 718              	.L101:
 477:fltk-1.3.4-1/png/pngtrans.c ****          *rp = table[*rp];
 719              		.loc 1 477 7 discriminator 3 view .LVU251
 720              	.LBE12:
 479:fltk-1.3.4-1/png/pngtrans.c ****    }
 480:fltk-1.3.4-1/png/pngtrans.c **** }
 721              		.loc 1 480 1 view .LVU252
 722 0043 C3       		ret
 723              	.LVL51:
 724              		.p2align 4,,10
 725 0044 0F1F4000 		.p2align 3
 726              	.L105:
 727              	.LBB13:
 466:fltk-1.3.4-1/png/pngtrans.c **** 
 728              		.loc 1 466 16 view .LVU253
 729 0048 488D0D00 		leaq	onebppswaptable(%rip), %rcx
 729      000000
 730 004f EBD5     		jmp	.L103
 731              		.p2align 4,,10
 732 0051 0F1F8000 		.p2align 3
 732      000000
 733              	.L106:
 469:fltk-1.3.4-1/png/pngtrans.c **** 
 734              		.loc 1 469 16 view .LVU254
 735 0058 488D0D00 		leaq	twobppswaptable(%rip), %rcx
 735      000000
 736 005f EBC5     		jmp	.L103
 737              	.LBE13:
 738              		.cfi_endproc
 739              	.LFE54:
 741              		.section	.text.png_do_strip_channel,"ax",@progbits
 742              		.p2align 4
 743              		.globl	png_do_strip_channel
 745              	png_do_strip_channel:
 746              	.LVL52:
 747              	.LFB55:
 481:fltk-1.3.4-1/png/pngtrans.c **** #endif /* PACKSWAP || WRITE_PACKSWAP */
 482:fltk-1.3.4-1/png/pngtrans.c **** 
 483:fltk-1.3.4-1/png/pngtrans.c **** #if defined(PNG_WRITE_FILLER_SUPPORTED) || \
 484:fltk-1.3.4-1/png/pngtrans.c ****     defined(PNG_READ_STRIP_ALPHA_SUPPORTED)
 485:fltk-1.3.4-1/png/pngtrans.c **** /* Remove a channel - this used to be 'png_do_strip_filler' but it used a
 486:fltk-1.3.4-1/png/pngtrans.c ****  * somewhat weird combination of flags to determine what to do.  All the calls
 487:fltk-1.3.4-1/png/pngtrans.c ****  * to png_do_strip_filler are changed in 1.5.2 to call this instead with the
 488:fltk-1.3.4-1/png/pngtrans.c ****  * correct arguments.
 489:fltk-1.3.4-1/png/pngtrans.c ****  *
 490:fltk-1.3.4-1/png/pngtrans.c ****  * The routine isn't general - the channel must be the channel at the start or
 491:fltk-1.3.4-1/png/pngtrans.c ****  * end (not in the middle) of each pixel.
 492:fltk-1.3.4-1/png/pngtrans.c ****  */
 493:fltk-1.3.4-1/png/pngtrans.c **** void /* PRIVATE */
 494:fltk-1.3.4-1/png/pngtrans.c **** png_do_strip_channel(png_row_infop row_info, png_bytep row, int at_start)
 495:fltk-1.3.4-1/png/pngtrans.c **** {
 748              		.loc 1 495 1 is_stmt 1 view -0
 749              		.cfi_startproc
 750              		.loc 1 495 1 is_stmt 0 view .LVU256
 751 0000 F30F1EFA 		endbr64
 496:fltk-1.3.4-1/png/pngtrans.c ****    png_bytep sp = row; /* source pointer */
 752              		.loc 1 496 4 is_stmt 1 view .LVU257
 753              	.LVL53:
 497:fltk-1.3.4-1/png/pngtrans.c ****    png_bytep dp = row; /* destination pointer */
 754              		.loc 1 497 4 view .LVU258
 498:fltk-1.3.4-1/png/pngtrans.c ****    png_bytep ep = row + row_info->rowbytes; /* One beyond end of row */
 755              		.loc 1 498 4 view .LVU259
 756              		.loc 1 498 14 is_stmt 0 view .LVU260
 757 0004 488B4708 		movq	8(%rdi), %rax
 499:fltk-1.3.4-1/png/pngtrans.c **** 
 500:fltk-1.3.4-1/png/pngtrans.c ****    /* At the start sp will point to the first byte to copy and dp to where
 501:fltk-1.3.4-1/png/pngtrans.c ****     * it is copied to.  ep always points just beyond the end of the row, so
 502:fltk-1.3.4-1/png/pngtrans.c ****     * the loop simply copies (channels-1) channels until sp reaches ep.
 503:fltk-1.3.4-1/png/pngtrans.c ****     *
 504:fltk-1.3.4-1/png/pngtrans.c ****     * at_start:        0 -- convert AG, XG, ARGB, XRGB, AAGG, XXGG, etc.
 505:fltk-1.3.4-1/png/pngtrans.c ****     *            nonzero -- convert GA, GX, RGBA, RGBX, GGAA, RRGGBBXX, etc.
 506:fltk-1.3.4-1/png/pngtrans.c ****     */
 507:fltk-1.3.4-1/png/pngtrans.c **** 
 508:fltk-1.3.4-1/png/pngtrans.c ****    /* GA, GX, XG cases */
 509:fltk-1.3.4-1/png/pngtrans.c ****    if (row_info->channels == 2)
 758              		.loc 1 509 16 view .LVU261
 759 0008 0FB64F12 		movzbl	18(%rdi), %ecx
 498:fltk-1.3.4-1/png/pngtrans.c ****    png_bytep ep = row + row_info->rowbytes; /* One beyond end of row */
 760              		.loc 1 498 14 view .LVU262
 761 000c 4801F0   		addq	%rsi, %rax
 762              	.LVL54:
 763              		.loc 1 509 4 is_stmt 1 view .LVU263
 764              		.loc 1 509 7 is_stmt 0 view .LVU264
 765 000f 80F902   		cmpb	$2, %cl
 766 0012 0F84B800 		je	.L136
 766      0000
 510:fltk-1.3.4-1/png/pngtrans.c ****    {
 511:fltk-1.3.4-1/png/pngtrans.c ****       if (row_info->bit_depth == 8)
 512:fltk-1.3.4-1/png/pngtrans.c ****       {
 513:fltk-1.3.4-1/png/pngtrans.c ****          if (at_start != 0) /* Skip initial filler */
 514:fltk-1.3.4-1/png/pngtrans.c ****             ++sp;
 515:fltk-1.3.4-1/png/pngtrans.c ****          else          /* Skip initial channel and, for sp, the filler */
 516:fltk-1.3.4-1/png/pngtrans.c ****             sp += 2, ++dp;
 517:fltk-1.3.4-1/png/pngtrans.c **** 
 518:fltk-1.3.4-1/png/pngtrans.c ****          /* For a 1 pixel wide image there is nothing to do */
 519:fltk-1.3.4-1/png/pngtrans.c ****          while (sp < ep)
 520:fltk-1.3.4-1/png/pngtrans.c ****             *dp++ = *sp, sp += 2;
 521:fltk-1.3.4-1/png/pngtrans.c **** 
 522:fltk-1.3.4-1/png/pngtrans.c ****          row_info->pixel_depth = 8;
 523:fltk-1.3.4-1/png/pngtrans.c ****       }
 524:fltk-1.3.4-1/png/pngtrans.c **** 
 525:fltk-1.3.4-1/png/pngtrans.c ****       else if (row_info->bit_depth == 16)
 526:fltk-1.3.4-1/png/pngtrans.c ****       {
 527:fltk-1.3.4-1/png/pngtrans.c ****          if (at_start != 0) /* Skip initial filler */
 528:fltk-1.3.4-1/png/pngtrans.c ****             sp += 2;
 529:fltk-1.3.4-1/png/pngtrans.c ****          else          /* Skip initial channel and, for sp, the filler */
 530:fltk-1.3.4-1/png/pngtrans.c ****             sp += 4, dp += 2;
 531:fltk-1.3.4-1/png/pngtrans.c **** 
 532:fltk-1.3.4-1/png/pngtrans.c ****          while (sp < ep)
 533:fltk-1.3.4-1/png/pngtrans.c ****             *dp++ = *sp++, *dp++ = *sp, sp += 3;
 534:fltk-1.3.4-1/png/pngtrans.c **** 
 535:fltk-1.3.4-1/png/pngtrans.c ****          row_info->pixel_depth = 16;
 536:fltk-1.3.4-1/png/pngtrans.c ****       }
 537:fltk-1.3.4-1/png/pngtrans.c **** 
 538:fltk-1.3.4-1/png/pngtrans.c ****       else
 539:fltk-1.3.4-1/png/pngtrans.c ****          return; /* bad bit depth */
 540:fltk-1.3.4-1/png/pngtrans.c **** 
 541:fltk-1.3.4-1/png/pngtrans.c ****       row_info->channels = 1;
 542:fltk-1.3.4-1/png/pngtrans.c **** 
 543:fltk-1.3.4-1/png/pngtrans.c ****       /* Finally fix the color type if it records an alpha channel */
 544:fltk-1.3.4-1/png/pngtrans.c ****       if (row_info->color_type == PNG_COLOR_TYPE_GRAY_ALPHA)
 545:fltk-1.3.4-1/png/pngtrans.c ****          row_info->color_type = PNG_COLOR_TYPE_GRAY;
 546:fltk-1.3.4-1/png/pngtrans.c ****    }
 547:fltk-1.3.4-1/png/pngtrans.c **** 
 548:fltk-1.3.4-1/png/pngtrans.c ****    /* RGBA, RGBX, XRGB cases */
 549:fltk-1.3.4-1/png/pngtrans.c ****    else if (row_info->channels == 4)
 767              		.loc 1 549 9 is_stmt 1 view .LVU265
 768              		.loc 1 549 12 is_stmt 0 view .LVU266
 769 0018 80F904   		cmpb	$4, %cl
 770 001b 0F852601 		jne	.L108
 770      0000
 550:fltk-1.3.4-1/png/pngtrans.c ****    {
 551:fltk-1.3.4-1/png/pngtrans.c ****       if (row_info->bit_depth == 8)
 771              		.loc 1 551 7 is_stmt 1 view .LVU267
 772              		.loc 1 551 19 is_stmt 0 view .LVU268
 773 0021 0FB64F11 		movzbl	17(%rdi), %ecx
 774              		.loc 1 551 10 view .LVU269
 775 0025 80F908   		cmpb	$8, %cl
 776 0028 0F847201 		je	.L137
 776      0000
 552:fltk-1.3.4-1/png/pngtrans.c ****       {
 553:fltk-1.3.4-1/png/pngtrans.c ****          if (at_start != 0) /* Skip initial filler */
 554:fltk-1.3.4-1/png/pngtrans.c ****             ++sp;
 555:fltk-1.3.4-1/png/pngtrans.c ****          else          /* Skip initial channels and, for sp, the filler */
 556:fltk-1.3.4-1/png/pngtrans.c ****             sp += 4, dp += 3;
 557:fltk-1.3.4-1/png/pngtrans.c **** 
 558:fltk-1.3.4-1/png/pngtrans.c ****          /* Note that the loop adds 3 to dp and 4 to sp each time. */
 559:fltk-1.3.4-1/png/pngtrans.c ****          while (sp < ep)
 560:fltk-1.3.4-1/png/pngtrans.c ****             *dp++ = *sp++, *dp++ = *sp++, *dp++ = *sp, sp += 2;
 561:fltk-1.3.4-1/png/pngtrans.c **** 
 562:fltk-1.3.4-1/png/pngtrans.c ****          row_info->pixel_depth = 24;
 563:fltk-1.3.4-1/png/pngtrans.c ****       }
 564:fltk-1.3.4-1/png/pngtrans.c **** 
 565:fltk-1.3.4-1/png/pngtrans.c ****       else if (row_info->bit_depth == 16)
 777              		.loc 1 565 12 is_stmt 1 view .LVU270
 778              		.loc 1 565 15 is_stmt 0 view .LVU271
 779 002e 80F910   		cmpb	$16, %cl
 780 0031 0F851001 		jne	.L108
 780      0000
 566:fltk-1.3.4-1/png/pngtrans.c ****       {
 567:fltk-1.3.4-1/png/pngtrans.c ****          if (at_start != 0) /* Skip initial filler */
 781              		.loc 1 567 10 is_stmt 1 view .LVU272
 782              		.loc 1 567 13 is_stmt 0 view .LVU273
 783 0037 85D2     		testl	%edx, %edx
 784 0039 0F84D901 		je	.L126
 784      0000
 568:fltk-1.3.4-1/png/pngtrans.c ****             sp += 2;
 785              		.loc 1 568 13 is_stmt 1 view .LVU274
 786              		.loc 1 568 16 is_stmt 0 view .LVU275
 787 003f 4C8D5602 		leaq	2(%rsi), %r10
 788              	.LVL55:
 497:fltk-1.3.4-1/png/pngtrans.c ****    png_bytep ep = row + row_info->rowbytes; /* One beyond end of row */
 789              		.loc 1 497 14 view .LVU276
 790 0043 4989F0   		movq	%rsi, %r8
 791              	.LVL56:
 792              	.L127:
 569:fltk-1.3.4-1/png/pngtrans.c ****          else          /* Skip initial channels and, for sp, the filler */
 570:fltk-1.3.4-1/png/pngtrans.c ****             sp += 8, dp += 6;
 571:fltk-1.3.4-1/png/pngtrans.c **** 
 572:fltk-1.3.4-1/png/pngtrans.c ****          while (sp < ep)
 793              		.loc 1 572 16 is_stmt 1 view .LVU277
 794 0046 4C39D0   		cmpq	%r10, %rax
 795 0049 7663     		jbe	.L128
 796              		.loc 1 572 16 is_stmt 0 view .LVU278
 797 004b 4C89C1   		movq	%r8, %rcx
 798 004e 4C89D2   		movq	%r10, %rdx
 799              	.LVL57:
 800              		.p2align 4,,10
 801 0051 0F1F8000 		.p2align 3
 801      000000
 802              	.L129:
 573:fltk-1.3.4-1/png/pngtrans.c ****          {
 574:fltk-1.3.4-1/png/pngtrans.c ****             /* Copy 6 bytes, skip 2 */
 575:fltk-1.3.4-1/png/pngtrans.c ****             *dp++ = *sp++, *dp++ = *sp++;
 803              		.loc 1 575 13 is_stmt 1 view .LVU279
 804              		.loc 1 575 21 is_stmt 0 view .LVU280
 805 0058 440FB60A 		movzbl	(%rdx), %r9d
 806 005c 4883C106 		addq	$6, %rcx
 807              	.LVL58:
 808              		.loc 1 575 21 view .LVU281
 809 0060 4883C208 		addq	$8, %rdx
 810              	.LVL59:
 811              		.loc 1 575 19 view .LVU282
 812 0064 448849FA 		movb	%r9b, -6(%rcx)
 813              	.LVL60:
 814              		.loc 1 575 36 view .LVU283
 815 0068 440FB64A 		movzbl	-7(%rdx), %r9d
 815      F9
 816              		.loc 1 575 34 view .LVU284
 817 006d 448849FB 		movb	%r9b, -5(%rcx)
 576:fltk-1.3.4-1/png/pngtrans.c ****             *dp++ = *sp++, *dp++ = *sp++;
 818              		.loc 1 576 13 is_stmt 1 view .LVU285
 819              	.LVL61:
 820              		.loc 1 576 21 is_stmt 0 view .LVU286
 821 0071 440FB64A 		movzbl	-6(%rdx), %r9d
 821      FA
 822              		.loc 1 576 19 view .LVU287
 823 0076 448849FC 		movb	%r9b, -4(%rcx)
 824              	.LVL62:
 825              		.loc 1 576 36 view .LVU288
 826 007a 440FB64A 		movzbl	-5(%rdx), %r9d
 826      FB
 827              		.loc 1 576 34 view .LVU289
 828 007f 448849FD 		movb	%r9b, -3(%rcx)
 577:fltk-1.3.4-1/png/pngtrans.c ****             *dp++ = *sp++, *dp++ = *sp, sp += 3;
 829              		.loc 1 577 13 is_stmt 1 view .LVU290
 830              	.LVL63:
 831              		.loc 1 577 21 is_stmt 0 view .LVU291
 832 0083 440FB64A 		movzbl	-4(%rdx), %r9d
 832      FC
 833              		.loc 1 577 19 view .LVU292
 834 0088 448849FE 		movb	%r9b, -2(%rcx)
 835              	.LVL64:
 836              		.loc 1 577 36 view .LVU293
 837 008c 440FB64A 		movzbl	-3(%rdx), %r9d
 837      FD
 838              	.LVL65:
 572:fltk-1.3.4-1/png/pngtrans.c ****          {
 839              		.loc 1 572 16 is_stmt 1 view .LVU294
 840              		.loc 1 577 34 is_stmt 0 view .LVU295
 841 0091 448849FF 		movb	%r9b, -1(%rcx)
 572:fltk-1.3.4-1/png/pngtrans.c ****          {
 842              		.loc 1 572 16 view .LVU296
 843 0095 4839D0   		cmpq	%rdx, %rax
 844 0098 77BE     		ja	.L129
 845 009a 4883E801 		subq	$1, %rax
 846              	.LVL66:
 572:fltk-1.3.4-1/png/pngtrans.c ****          {
 847              		.loc 1 572 16 view .LVU297
 848 009e 4C29D0   		subq	%r10, %rax
 849              	.LVL67:
 572:fltk-1.3.4-1/png/pngtrans.c ****          {
 850              		.loc 1 572 16 view .LVU298
 851 00a1 48C1E803 		shrq	$3, %rax
 852 00a5 488D4440 		leaq	3(%rax,%rax,2), %rax
 852      03
 853 00aa 4D8D0440 		leaq	(%r8,%rax,2), %r8
 854              	.LVL68:
 855              	.L128:
 578:fltk-1.3.4-1/png/pngtrans.c ****          }
 579:fltk-1.3.4-1/png/pngtrans.c **** 
 580:fltk-1.3.4-1/png/pngtrans.c ****          row_info->pixel_depth = 48;
 856              		.loc 1 580 10 is_stmt 1 view .LVU299
 857              		.loc 1 580 32 is_stmt 0 view .LVU300
 858 00ae C6471330 		movb	$48, 19(%rdi)
 859              	.L125:
 860              	.LVL69:
 581:fltk-1.3.4-1/png/pngtrans.c ****       }
 582:fltk-1.3.4-1/png/pngtrans.c **** 
 583:fltk-1.3.4-1/png/pngtrans.c ****       else
 584:fltk-1.3.4-1/png/pngtrans.c ****          return; /* bad bit depth */
 585:fltk-1.3.4-1/png/pngtrans.c **** 
 586:fltk-1.3.4-1/png/pngtrans.c ****       row_info->channels = 3;
 861              		.loc 1 586 7 is_stmt 1 view .LVU301
 587:fltk-1.3.4-1/png/pngtrans.c **** 
 588:fltk-1.3.4-1/png/pngtrans.c ****       /* Finally fix the color type if it records an alpha channel */
 589:fltk-1.3.4-1/png/pngtrans.c ****       if (row_info->color_type == PNG_COLOR_TYPE_RGB_ALPHA)
 862              		.loc 1 589 10 is_stmt 0 view .LVU302
 863 00b2 807F1006 		cmpb	$6, 16(%rdi)
 586:fltk-1.3.4-1/png/pngtrans.c **** 
 864              		.loc 1 586 26 view .LVU303
 865 00b6 C6471203 		movb	$3, 18(%rdi)
 866              		.loc 1 589 7 is_stmt 1 view .LVU304
 867              		.loc 1 589 10 is_stmt 0 view .LVU305
 868 00ba 0F858000 		jne	.L119
 868      0000
 590:fltk-1.3.4-1/png/pngtrans.c ****          row_info->color_type = PNG_COLOR_TYPE_RGB;
 869              		.loc 1 590 10 is_stmt 1 view .LVU306
 870              		.loc 1 590 31 is_stmt 0 view .LVU307
 871 00c0 C6471002 		movb	$2, 16(%rdi)
 872 00c4 EB7A     		jmp	.L119
 873              	.LVL70:
 874 00c6 662E0F1F 		.p2align 4,,10
 874      84000000 
 874      0000
 875              		.p2align 3
 876              	.L136:
 511:fltk-1.3.4-1/png/pngtrans.c ****       {
 877              		.loc 1 511 7 is_stmt 1 view .LVU308
 511:fltk-1.3.4-1/png/pngtrans.c ****       {
 878              		.loc 1 511 19 is_stmt 0 view .LVU309
 879 00d0 0FB64F11 		movzbl	17(%rdi), %ecx
 511:fltk-1.3.4-1/png/pngtrans.c ****       {
 880              		.loc 1 511 10 view .LVU310
 881 00d4 80F908   		cmpb	$8, %cl
 882 00d7 7477     		je	.L138
 525:fltk-1.3.4-1/png/pngtrans.c ****       {
 883              		.loc 1 525 12 is_stmt 1 view .LVU311
 525:fltk-1.3.4-1/png/pngtrans.c ****       {
 884              		.loc 1 525 15 is_stmt 0 view .LVU312
 885 00d9 80F910   		cmpb	$16, %cl
 886 00dc 7569     		jne	.L108
 527:fltk-1.3.4-1/png/pngtrans.c ****             sp += 2;
 887              		.loc 1 527 10 is_stmt 1 view .LVU313
 888 00de 4C8D5602 		leaq	2(%rsi), %r10
 497:fltk-1.3.4-1/png/pngtrans.c ****    png_bytep ep = row + row_info->rowbytes; /* One beyond end of row */
 889              		.loc 1 497 14 is_stmt 0 view .LVU314
 890 00e2 4989F0   		movq	%rsi, %r8
 527:fltk-1.3.4-1/png/pngtrans.c ****             sp += 2;
 891              		.loc 1 527 13 view .LVU315
 892 00e5 85D2     		testl	%edx, %edx
 893 00e7 7507     		jne	.L116
 530:fltk-1.3.4-1/png/pngtrans.c **** 
 894              		.loc 1 530 13 is_stmt 1 view .LVU316
 895              	.LVL71:
 530:fltk-1.3.4-1/png/pngtrans.c **** 
 896              		.loc 1 530 25 is_stmt 0 view .LVU317
 897 00e9 4D89D0   		movq	%r10, %r8
 530:fltk-1.3.4-1/png/pngtrans.c **** 
 898              		.loc 1 530 16 view .LVU318
 899 00ec 4C8D5604 		leaq	4(%rsi), %r10
 900              	.LVL72:
 901              	.L116:
 532:fltk-1.3.4-1/png/pngtrans.c ****             *dp++ = *sp++, *dp++ = *sp, sp += 3;
 902              		.loc 1 532 16 is_stmt 1 view .LVU319
 903 00f0 4C39D0   		cmpq	%r10, %rax
 904 00f3 7639     		jbe	.L117
 532:fltk-1.3.4-1/png/pngtrans.c ****             *dp++ = *sp++, *dp++ = *sp, sp += 3;
 905              		.loc 1 532 16 is_stmt 0 view .LVU320
 906 00f5 4C89C1   		movq	%r8, %rcx
 907 00f8 4C89D2   		movq	%r10, %rdx
 908              	.LVL73:
 909 00fb 0F1F4400 		.p2align 4,,10
 909      00
 910              		.p2align 3
 911              	.L118:
 533:fltk-1.3.4-1/png/pngtrans.c **** 
 912              		.loc 1 533 13 is_stmt 1 view .LVU321
 533:fltk-1.3.4-1/png/pngtrans.c **** 
 913              		.loc 1 533 21 is_stmt 0 view .LVU322
 914 0100 440FB60A 		movzbl	(%rdx), %r9d
 915 0104 4883C102 		addq	$2, %rcx
 916              	.LVL74:
 533:fltk-1.3.4-1/png/pngtrans.c **** 
 917              		.loc 1 533 21 view .LVU323
 918 0108 4883C204 		addq	$4, %rdx
 919              	.LVL75:
 533:fltk-1.3.4-1/png/pngtrans.c **** 
 920              		.loc 1 533 19 view .LVU324
 921 010c 448849FE 		movb	%r9b, -2(%rcx)
 922              	.LVL76:
 533:fltk-1.3.4-1/png/pngtrans.c **** 
 923              		.loc 1 533 36 view .LVU325
 924 0110 440FB64A 		movzbl	-3(%rdx), %r9d
 924      FD
 925              	.LVL77:
 532:fltk-1.3.4-1/png/pngtrans.c ****             *dp++ = *sp++, *dp++ = *sp, sp += 3;
 926              		.loc 1 532 16 is_stmt 1 view .LVU326
 533:fltk-1.3.4-1/png/pngtrans.c **** 
 927              		.loc 1 533 34 is_stmt 0 view .LVU327
 928 0115 448849FF 		movb	%r9b, -1(%rcx)
 532:fltk-1.3.4-1/png/pngtrans.c ****             *dp++ = *sp++, *dp++ = *sp, sp += 3;
 929              		.loc 1 532 16 view .LVU328
 930 0119 4839D0   		cmpq	%rdx, %rax
 931 011c 77E2     		ja	.L118
 932 011e 4883E801 		subq	$1, %rax
 933              	.LVL78:
 532:fltk-1.3.4-1/png/pngtrans.c ****             *dp++ = *sp++, *dp++ = *sp, sp += 3;
 934              		.loc 1 532 16 view .LVU329
 935 0122 4C29D0   		subq	%r10, %rax
 936              	.LVL79:
 532:fltk-1.3.4-1/png/pngtrans.c ****             *dp++ = *sp++, *dp++ = *sp, sp += 3;
 937              		.loc 1 532 16 view .LVU330
 938 0125 48C1E802 		shrq	$2, %rax
 939 0129 4D8D4440 		leaq	2(%r8,%rax,2), %r8
 939      02
 940              	.LVL80:
 941              	.L117:
 535:fltk-1.3.4-1/png/pngtrans.c ****       }
 942              		.loc 1 535 10 is_stmt 1 view .LVU331
 535:fltk-1.3.4-1/png/pngtrans.c ****       }
 943              		.loc 1 535 32 is_stmt 0 view .LVU332
 944 012e C6471310 		movb	$16, 19(%rdi)
 945              	.L114:
 946              	.LVL81:
 541:fltk-1.3.4-1/png/pngtrans.c **** 
 947              		.loc 1 541 7 is_stmt 1 view .LVU333
 544:fltk-1.3.4-1/png/pngtrans.c ****          row_info->color_type = PNG_COLOR_TYPE_GRAY;
 948              		.loc 1 544 10 is_stmt 0 view .LVU334
 949 0132 807F1004 		cmpb	$4, 16(%rdi)
 541:fltk-1.3.4-1/png/pngtrans.c **** 
 950              		.loc 1 541 26 view .LVU335
 951 0136 C6471201 		movb	$1, 18(%rdi)
 544:fltk-1.3.4-1/png/pngtrans.c ****          row_info->color_type = PNG_COLOR_TYPE_GRAY;
 952              		.loc 1 544 7 is_stmt 1 view .LVU336
 544:fltk-1.3.4-1/png/pngtrans.c ****          row_info->color_type = PNG_COLOR_TYPE_GRAY;
 953              		.loc 1 544 10 is_stmt 0 view .LVU337
 954 013a 7504     		jne	.L119
 545:fltk-1.3.4-1/png/pngtrans.c ****    }
 955              		.loc 1 545 10 is_stmt 1 view .LVU338
 545:fltk-1.3.4-1/png/pngtrans.c ****    }
 956              		.loc 1 545 31 is_stmt 0 view .LVU339
 957 013c C6471000 		movb	$0, 16(%rdi)
 958              		.p2align 4,,10
 959              		.p2align 3
 960              	.L119:
 591:fltk-1.3.4-1/png/pngtrans.c ****    }
 592:fltk-1.3.4-1/png/pngtrans.c **** 
 593:fltk-1.3.4-1/png/pngtrans.c ****    else
 594:fltk-1.3.4-1/png/pngtrans.c ****       return; /* The filler channel has gone already */
 595:fltk-1.3.4-1/png/pngtrans.c **** 
 596:fltk-1.3.4-1/png/pngtrans.c ****    /* Fix the rowbytes value. */
 597:fltk-1.3.4-1/png/pngtrans.c ****    row_info->rowbytes = dp-row;
 961              		.loc 1 597 4 is_stmt 1 view .LVU340
 962              		.loc 1 597 27 is_stmt 0 view .LVU341
 963 0140 4929F0   		subq	%rsi, %r8
 964              	.LVL82:
 965              		.loc 1 597 27 view .LVU342
 966 0143 4C894708 		movq	%r8, 8(%rdi)
 967              	.L108:
 598:fltk-1.3.4-1/png/pngtrans.c **** }
 968              		.loc 1 598 1 view .LVU343
 969 0147 C3       		ret
 970              	.LVL83:
 971 0148 0F1F8400 		.p2align 4,,10
 971      00000000 
 972              		.p2align 3
 973              	.L138:
 513:fltk-1.3.4-1/png/pngtrans.c ****             ++sp;
 974              		.loc 1 513 10 is_stmt 1 view .LVU344
 975 0150 4C8D5601 		leaq	1(%rsi), %r10
 497:fltk-1.3.4-1/png/pngtrans.c ****    png_bytep ep = row + row_info->rowbytes; /* One beyond end of row */
 976              		.loc 1 497 14 is_stmt 0 view .LVU345
 977 0154 4989F0   		movq	%rsi, %r8
 513:fltk-1.3.4-1/png/pngtrans.c ****             ++sp;
 978              		.loc 1 513 13 view .LVU346
 979 0157 85D2     		testl	%edx, %edx
 980 0159 7507     		jne	.L111
 516:fltk-1.3.4-1/png/pngtrans.c **** 
 981              		.loc 1 516 13 is_stmt 1 view .LVU347
 982              	.LVL84:
 516:fltk-1.3.4-1/png/pngtrans.c **** 
 983              		.loc 1 516 22 is_stmt 0 view .LVU348
 984 015b 4D89D0   		movq	%r10, %r8
 516:fltk-1.3.4-1/png/pngtrans.c **** 
 985              		.loc 1 516 16 view .LVU349
 986 015e 4C8D5602 		leaq	2(%rsi), %r10
 987              	.LVL85:
 988              	.L111:
 519:fltk-1.3.4-1/png/pngtrans.c ****             *dp++ = *sp, sp += 2;
 989              		.loc 1 519 16 is_stmt 1 view .LVU350
 990 0162 4C39D0   		cmpq	%r10, %rax
 991 0165 762D     		jbe	.L112
 519:fltk-1.3.4-1/png/pngtrans.c ****             *dp++ = *sp, sp += 2;
 992              		.loc 1 519 16 is_stmt 0 view .LVU351
 993 0167 4C89C1   		movq	%r8, %rcx
 994 016a 4C89D2   		movq	%r10, %rdx
 995              	.LVL86:
 996 016d 0F1F00   		.p2align 4,,10
 997              		.p2align 3
 998              	.L113:
 520:fltk-1.3.4-1/png/pngtrans.c **** 
 999              		.loc 1 520 13 is_stmt 1 view .LVU352
 520:fltk-1.3.4-1/png/pngtrans.c **** 
 1000              		.loc 1 520 21 is_stmt 0 view .LVU353
 1001 0170 440FB60A 		movzbl	(%rdx), %r9d
 520:fltk-1.3.4-1/png/pngtrans.c **** 
 1002              		.loc 1 520 29 view .LVU354
 1003 0174 4883C202 		addq	$2, %rdx
 1004              	.LVL87:
 520:fltk-1.3.4-1/png/pngtrans.c **** 
 1005              		.loc 1 520 16 view .LVU355
 1006 0178 4883C101 		addq	$1, %rcx
 1007              	.LVL88:
 519:fltk-1.3.4-1/png/pngtrans.c ****             *dp++ = *sp, sp += 2;
 1008              		.loc 1 519 16 is_stmt 1 view .LVU356
 520:fltk-1.3.4-1/png/pngtrans.c **** 
 1009              		.loc 1 520 19 is_stmt 0 view .LVU357
 1010 017c 448849FF 		movb	%r9b, -1(%rcx)
 519:fltk-1.3.4-1/png/pngtrans.c ****             *dp++ = *sp, sp += 2;
 1011              		.loc 1 519 16 view .LVU358
 1012 0180 4839D0   		cmpq	%rdx, %rax
 1013 0183 77EB     		ja	.L113
 1014 0185 4883E801 		subq	$1, %rax
 1015              	.LVL89:
 519:fltk-1.3.4-1/png/pngtrans.c ****             *dp++ = *sp, sp += 2;
 1016              		.loc 1 519 16 view .LVU359
 1017 0189 4C29D0   		subq	%r10, %rax
 1018              	.LVL90:
 519:fltk-1.3.4-1/png/pngtrans.c ****             *dp++ = *sp, sp += 2;
 1019              		.loc 1 519 16 view .LVU360
 1020 018c 48D1E8   		shrq	%rax
 1021 018f 4D8D4400 		leaq	1(%r8,%rax), %r8
 1021      01
 1022              	.LVL91:
 1023              	.L112:
 522:fltk-1.3.4-1/png/pngtrans.c ****       }
 1024              		.loc 1 522 10 is_stmt 1 view .LVU361
 522:fltk-1.3.4-1/png/pngtrans.c ****       }
 1025              		.loc 1 522 32 is_stmt 0 view .LVU362
 1026 0194 C6471308 		movb	$8, 19(%rdi)
 1027 0198 EB98     		jmp	.L114
 1028              	.LVL92:
 1029 019a 660F1F44 		.p2align 4,,10
 1029      0000
 1030              		.p2align 3
 1031              	.L137:
 553:fltk-1.3.4-1/png/pngtrans.c ****             ++sp;
 1032              		.loc 1 553 10 is_stmt 1 view .LVU363
 553:fltk-1.3.4-1/png/pngtrans.c ****             ++sp;
 1033              		.loc 1 553 13 is_stmt 0 view .LVU364
 1034 01a0 85D2     		testl	%edx, %edx
 1035 01a2 7464     		je	.L121
 554:fltk-1.3.4-1/png/pngtrans.c ****          else          /* Skip initial channels and, for sp, the filler */
 1036              		.loc 1 554 13 is_stmt 1 view .LVU365
 1037 01a4 4C8D5601 		leaq	1(%rsi), %r10
 1038              	.LVL93:
 497:fltk-1.3.4-1/png/pngtrans.c ****    png_bytep ep = row + row_info->rowbytes; /* One beyond end of row */
 1039              		.loc 1 497 14 is_stmt 0 view .LVU366
 1040 01a8 4989F0   		movq	%rsi, %r8
 1041              	.LVL94:
 1042              	.L122:
 559:fltk-1.3.4-1/png/pngtrans.c ****             *dp++ = *sp++, *dp++ = *sp++, *dp++ = *sp, sp += 2;
 1043              		.loc 1 559 16 is_stmt 1 view .LVU367
 1044 01ab 4939C2   		cmpq	%rax, %r10
 1045 01ae 734A     		jnb	.L123
 559:fltk-1.3.4-1/png/pngtrans.c ****             *dp++ = *sp++, *dp++ = *sp++, *dp++ = *sp, sp += 2;
 1046              		.loc 1 559 16 is_stmt 0 view .LVU368
 1047 01b0 4C89C1   		movq	%r8, %rcx
 1048 01b3 4C89D2   		movq	%r10, %rdx
 1049              	.LVL95:
 1050 01b6 662E0F1F 		.p2align 4,,10
 1050      84000000 
 1050      0000
 1051              		.p2align 3
 1052              	.L124:
 560:fltk-1.3.4-1/png/pngtrans.c **** 
 1053              		.loc 1 560 13 is_stmt 1 view .LVU369
 560:fltk-1.3.4-1/png/pngtrans.c **** 
 1054              		.loc 1 560 21 is_stmt 0 view .LVU370
 1055 01c0 440FB60A 		movzbl	(%rdx), %r9d
 1056 01c4 4883C103 		addq	$3, %rcx
 1057              	.LVL96:
 560:fltk-1.3.4-1/png/pngtrans.c **** 
 1058              		.loc 1 560 21 view .LVU371
 1059 01c8 4883C204 		addq	$4, %rdx
 1060              	.LVL97:
 560:fltk-1.3.4-1/png/pngtrans.c **** 
 1061              		.loc 1 560 19 view .LVU372
 1062 01cc 448849FD 		movb	%r9b, -3(%rcx)
 1063              	.LVL98:
 560:fltk-1.3.4-1/png/pngtrans.c **** 
 1064              		.loc 1 560 36 view .LVU373
 1065 01d0 440FB64A 		movzbl	-3(%rdx), %r9d
 1065      FD
 560:fltk-1.3.4-1/png/pngtrans.c **** 
 1066              		.loc 1 560 34 view .LVU374
 1067 01d5 448849FE 		movb	%r9b, -2(%rcx)
 1068              	.LVL99:
 560:fltk-1.3.4-1/png/pngtrans.c **** 
 1069              		.loc 1 560 51 view .LVU375
 1070 01d9 440FB64A 		movzbl	-2(%rdx), %r9d
 1070      FE
 1071              	.LVL100:
 559:fltk-1.3.4-1/png/pngtrans.c ****             *dp++ = *sp++, *dp++ = *sp++, *dp++ = *sp, sp += 2;
 1072              		.loc 1 559 16 is_stmt 1 view .LVU376
 560:fltk-1.3.4-1/png/pngtrans.c **** 
 1073              		.loc 1 560 49 is_stmt 0 view .LVU377
 1074 01de 448849FF 		movb	%r9b, -1(%rcx)
 559:fltk-1.3.4-1/png/pngtrans.c ****             *dp++ = *sp++, *dp++ = *sp++, *dp++ = *sp, sp += 2;
 1075              		.loc 1 559 16 view .LVU378
 1076 01e2 4839D0   		cmpq	%rdx, %rax
 1077 01e5 77D9     		ja	.L124
 1078 01e7 4883E801 		subq	$1, %rax
 1079              	.LVL101:
 559:fltk-1.3.4-1/png/pngtrans.c ****             *dp++ = *sp++, *dp++ = *sp++, *dp++ = *sp, sp += 2;
 1080              		.loc 1 559 16 view .LVU379
 1081 01eb 4C29D0   		subq	%r10, %rax
 1082              	.LVL102:
 559:fltk-1.3.4-1/png/pngtrans.c ****             *dp++ = *sp++, *dp++ = *sp++, *dp++ = *sp, sp += 2;
 1083              		.loc 1 559 16 view .LVU380
 1084 01ee 48C1E802 		shrq	$2, %rax
 1085 01f2 488D4440 		leaq	3(%rax,%rax,2), %rax
 1085      03
 1086 01f7 4901C0   		addq	%rax, %r8
 1087              	.LVL103:
 1088              	.L123:
 562:fltk-1.3.4-1/png/pngtrans.c ****       }
 1089              		.loc 1 562 10 is_stmt 1 view .LVU381
 562:fltk-1.3.4-1/png/pngtrans.c ****       }
 1090              		.loc 1 562 32 is_stmt 0 view .LVU382
 1091 01fa C6471318 		movb	$24, 19(%rdi)
 1092 01fe E9AFFEFF 		jmp	.L125
 1092      FF
 1093              	.LVL104:
 1094              		.p2align 4,,10
 1095 0203 0F1F4400 		.p2align 3
 1095      00
 1096              	.L121:
 556:fltk-1.3.4-1/png/pngtrans.c **** 
 1097              		.loc 1 556 13 is_stmt 1 view .LVU383
 556:fltk-1.3.4-1/png/pngtrans.c **** 
 1098              		.loc 1 556 16 is_stmt 0 view .LVU384
 1099 0208 4C8D5604 		leaq	4(%rsi), %r10
 1100              	.LVL105:
 556:fltk-1.3.4-1/png/pngtrans.c **** 
 1101              		.loc 1 556 25 view .LVU385
 1102 020c 4C8D4603 		leaq	3(%rsi), %r8
 1103              	.LVL106:
 556:fltk-1.3.4-1/png/pngtrans.c **** 
 1104              		.loc 1 556 25 view .LVU386
 1105 0210 EB99     		jmp	.L122
 1106              	.LVL107:
 1107              		.p2align 4,,10
 1108 0212 660F1F44 		.p2align 3
 1108      0000
 1109              	.L126:
 570:fltk-1.3.4-1/png/pngtrans.c **** 
 1110              		.loc 1 570 13 is_stmt 1 view .LVU387
 570:fltk-1.3.4-1/png/pngtrans.c **** 
 1111              		.loc 1 570 16 is_stmt 0 view .LVU388
 1112 0218 4C8D5608 		leaq	8(%rsi), %r10
 1113              	.LVL108:
 570:fltk-1.3.4-1/png/pngtrans.c **** 
 1114              		.loc 1 570 25 view .LVU389
 1115 021c 4C8D4606 		leaq	6(%rsi), %r8
 1116              	.LVL109:
 570:fltk-1.3.4-1/png/pngtrans.c **** 
 1117              		.loc 1 570 25 view .LVU390
 1118 0220 E921FEFF 		jmp	.L127
 1118      FF
 1119              		.cfi_endproc
 1120              	.LFE55:
 1122              		.section	.text.png_do_bgr,"ax",@progbits
 1123              		.p2align 4
 1124              		.globl	png_do_bgr
 1126              	png_do_bgr:
 1127              	.LVL110:
 1128              	.LFB56:
 599:fltk-1.3.4-1/png/pngtrans.c **** #endif
 600:fltk-1.3.4-1/png/pngtrans.c **** 
 601:fltk-1.3.4-1/png/pngtrans.c **** #if defined(PNG_READ_BGR_SUPPORTED) || defined(PNG_WRITE_BGR_SUPPORTED)
 602:fltk-1.3.4-1/png/pngtrans.c **** /* Swaps red and blue bytes within a pixel */
 603:fltk-1.3.4-1/png/pngtrans.c **** void /* PRIVATE */
 604:fltk-1.3.4-1/png/pngtrans.c **** png_do_bgr(png_row_infop row_info, png_bytep row)
 605:fltk-1.3.4-1/png/pngtrans.c **** {
 1129              		.loc 1 605 1 is_stmt 1 view -0
 1130              		.cfi_startproc
 1131              		.loc 1 605 1 is_stmt 0 view .LVU392
 1132 0000 F30F1EFA 		endbr64
 606:fltk-1.3.4-1/png/pngtrans.c ****    png_debug(1, "in png_do_bgr");
 1133              		.loc 1 606 4 is_stmt 1 view .LVU393
 607:fltk-1.3.4-1/png/pngtrans.c **** 
 608:fltk-1.3.4-1/png/pngtrans.c ****    if ((row_info->color_type & PNG_COLOR_MASK_COLOR) != 0)
 1134              		.loc 1 608 4 view .LVU394
 1135              		.loc 1 608 17 is_stmt 0 view .LVU395
 1136 0004 0FB64710 		movzbl	16(%rdi), %eax
 1137              		.loc 1 608 7 view .LVU396
 1138 0008 A802     		testb	$2, %al
 1139 000a 7410     		je	.L139
 1140              	.LBB14:
 609:fltk-1.3.4-1/png/pngtrans.c ****    {
 610:fltk-1.3.4-1/png/pngtrans.c ****       png_uint_32 row_width = row_info->width;
 1141              		.loc 1 610 7 is_stmt 1 view .LVU397
 611:fltk-1.3.4-1/png/pngtrans.c ****       if (row_info->bit_depth == 8)
 1142              		.loc 1 611 19 is_stmt 0 view .LVU398
 1143 000c 0FB65711 		movzbl	17(%rdi), %edx
 610:fltk-1.3.4-1/png/pngtrans.c ****       if (row_info->bit_depth == 8)
 1144              		.loc 1 610 19 view .LVU399
 1145 0010 8B0F     		movl	(%rdi), %ecx
 1146              	.LVL111:
 1147              		.loc 1 611 7 is_stmt 1 view .LVU400
 1148              		.loc 1 611 10 is_stmt 0 view .LVU401
 1149 0012 80FA08   		cmpb	$8, %dl
 1150 0015 7409     		je	.L167
 612:fltk-1.3.4-1/png/pngtrans.c ****       {
 613:fltk-1.3.4-1/png/pngtrans.c ****          if (row_info->color_type == PNG_COLOR_TYPE_RGB)
 614:fltk-1.3.4-1/png/pngtrans.c ****          {
 615:fltk-1.3.4-1/png/pngtrans.c ****             png_bytep rp;
 616:fltk-1.3.4-1/png/pngtrans.c ****             png_uint_32 i;
 617:fltk-1.3.4-1/png/pngtrans.c **** 
 618:fltk-1.3.4-1/png/pngtrans.c ****             for (i = 0, rp = row; i < row_width; i++, rp += 3)
 619:fltk-1.3.4-1/png/pngtrans.c ****             {
 620:fltk-1.3.4-1/png/pngtrans.c ****                png_byte save = *rp;
 621:fltk-1.3.4-1/png/pngtrans.c ****                *rp = *(rp + 2);
 622:fltk-1.3.4-1/png/pngtrans.c ****                *(rp + 2) = save;
 623:fltk-1.3.4-1/png/pngtrans.c ****             }
 624:fltk-1.3.4-1/png/pngtrans.c ****          }
 625:fltk-1.3.4-1/png/pngtrans.c **** 
 626:fltk-1.3.4-1/png/pngtrans.c ****          else if (row_info->color_type == PNG_COLOR_TYPE_RGB_ALPHA)
 627:fltk-1.3.4-1/png/pngtrans.c ****          {
 628:fltk-1.3.4-1/png/pngtrans.c ****             png_bytep rp;
 629:fltk-1.3.4-1/png/pngtrans.c ****             png_uint_32 i;
 630:fltk-1.3.4-1/png/pngtrans.c **** 
 631:fltk-1.3.4-1/png/pngtrans.c ****             for (i = 0, rp = row; i < row_width; i++, rp += 4)
 632:fltk-1.3.4-1/png/pngtrans.c ****             {
 633:fltk-1.3.4-1/png/pngtrans.c ****                png_byte save = *rp;
 634:fltk-1.3.4-1/png/pngtrans.c ****                *rp = *(rp + 2);
 635:fltk-1.3.4-1/png/pngtrans.c ****                *(rp + 2) = save;
 636:fltk-1.3.4-1/png/pngtrans.c ****             }
 637:fltk-1.3.4-1/png/pngtrans.c ****          }
 638:fltk-1.3.4-1/png/pngtrans.c ****       }
 639:fltk-1.3.4-1/png/pngtrans.c **** 
 640:fltk-1.3.4-1/png/pngtrans.c **** #ifdef PNG_16BIT_SUPPORTED
 641:fltk-1.3.4-1/png/pngtrans.c ****       else if (row_info->bit_depth == 16)
 1151              		.loc 1 641 12 is_stmt 1 view .LVU402
 1152              		.loc 1 641 15 is_stmt 0 view .LVU403
 1153 0017 80FA10   		cmpb	$16, %dl
 1154 001a 7434     		je	.L168
 1155              	.LVL112:
 1156              	.L139:
 1157              		.loc 1 641 15 view .LVU404
 1158              	.LBE14:
 642:fltk-1.3.4-1/png/pngtrans.c ****       {
 643:fltk-1.3.4-1/png/pngtrans.c ****          if (row_info->color_type == PNG_COLOR_TYPE_RGB)
 644:fltk-1.3.4-1/png/pngtrans.c ****          {
 645:fltk-1.3.4-1/png/pngtrans.c ****             png_bytep rp;
 646:fltk-1.3.4-1/png/pngtrans.c ****             png_uint_32 i;
 647:fltk-1.3.4-1/png/pngtrans.c **** 
 648:fltk-1.3.4-1/png/pngtrans.c ****             for (i = 0, rp = row; i < row_width; i++, rp += 6)
 649:fltk-1.3.4-1/png/pngtrans.c ****             {
 650:fltk-1.3.4-1/png/pngtrans.c ****                png_byte save = *rp;
 651:fltk-1.3.4-1/png/pngtrans.c ****                *rp = *(rp + 4);
 652:fltk-1.3.4-1/png/pngtrans.c ****                *(rp + 4) = save;
 653:fltk-1.3.4-1/png/pngtrans.c ****                save = *(rp + 1);
 654:fltk-1.3.4-1/png/pngtrans.c ****                *(rp + 1) = *(rp + 5);
 655:fltk-1.3.4-1/png/pngtrans.c ****                *(rp + 5) = save;
 656:fltk-1.3.4-1/png/pngtrans.c ****             }
 657:fltk-1.3.4-1/png/pngtrans.c ****          }
 658:fltk-1.3.4-1/png/pngtrans.c **** 
 659:fltk-1.3.4-1/png/pngtrans.c ****          else if (row_info->color_type == PNG_COLOR_TYPE_RGB_ALPHA)
 660:fltk-1.3.4-1/png/pngtrans.c ****          {
 661:fltk-1.3.4-1/png/pngtrans.c ****             png_bytep rp;
 662:fltk-1.3.4-1/png/pngtrans.c ****             png_uint_32 i;
 663:fltk-1.3.4-1/png/pngtrans.c **** 
 664:fltk-1.3.4-1/png/pngtrans.c ****             for (i = 0, rp = row; i < row_width; i++, rp += 8)
 665:fltk-1.3.4-1/png/pngtrans.c ****             {
 666:fltk-1.3.4-1/png/pngtrans.c ****                png_byte save = *rp;
 667:fltk-1.3.4-1/png/pngtrans.c ****                *rp = *(rp + 4);
 668:fltk-1.3.4-1/png/pngtrans.c ****                *(rp + 4) = save;
 669:fltk-1.3.4-1/png/pngtrans.c ****                save = *(rp + 1);
 670:fltk-1.3.4-1/png/pngtrans.c ****                *(rp + 1) = *(rp + 5);
 671:fltk-1.3.4-1/png/pngtrans.c ****                *(rp + 5) = save;
 672:fltk-1.3.4-1/png/pngtrans.c ****             }
 673:fltk-1.3.4-1/png/pngtrans.c ****          }
 674:fltk-1.3.4-1/png/pngtrans.c ****       }
 675:fltk-1.3.4-1/png/pngtrans.c **** #endif
 676:fltk-1.3.4-1/png/pngtrans.c ****    }
 677:fltk-1.3.4-1/png/pngtrans.c **** }
 1159              		.loc 1 677 1 view .LVU405
 1160 001c C3       		ret
 1161              	.LVL113:
 1162 001d 0F1F00   		.p2align 4,,10
 1163              		.p2align 3
 1164              	.L167:
 1165              	.LBB27:
 613:fltk-1.3.4-1/png/pngtrans.c ****          {
 1166              		.loc 1 613 10 is_stmt 1 view .LVU406
 613:fltk-1.3.4-1/png/pngtrans.c ****          {
 1167              		.loc 1 613 13 is_stmt 0 view .LVU407
 1168 0020 3C02     		cmpb	$2, %al
 1169 0022 746C     		je	.L169
 626:fltk-1.3.4-1/png/pngtrans.c ****          {
 1170              		.loc 1 626 15 is_stmt 1 view .LVU408
 626:fltk-1.3.4-1/png/pngtrans.c ****          {
 1171              		.loc 1 626 18 is_stmt 0 view .LVU409
 1172 0024 3C06     		cmpb	$6, %al
 1173 0026 75F4     		jne	.L139
 1174              	.LVL114:
 1175              	.LBB15:
 631:fltk-1.3.4-1/png/pngtrans.c ****             {
 1176              		.loc 1 631 35 is_stmt 1 view .LVU410
 631:fltk-1.3.4-1/png/pngtrans.c ****             {
 1177              		.loc 1 631 13 is_stmt 0 view .LVU411
 1178 0028 85C9     		testl	%ecx, %ecx
 1179 002a 74F0     		je	.L139
 1180 002c 8D41FF   		leal	-1(%rcx), %eax
 1181 002f 488D4C86 		leaq	4(%rsi,%rax,4), %rcx
 1181      04
 1182              	.LVL115:
 1183              		.p2align 4,,10
 1184 0034 0F1F4000 		.p2align 3
 1185              	.L144:
 1186              	.LBB16:
 633:fltk-1.3.4-1/png/pngtrans.c ****                *rp = *(rp + 2);
 1187              		.loc 1 633 16 is_stmt 1 discriminator 3 view .LVU412
 633:fltk-1.3.4-1/png/pngtrans.c ****                *rp = *(rp + 2);
 1188              		.loc 1 633 25 is_stmt 0 discriminator 3 view .LVU413
 1189 0038 0FB606   		movzbl	(%rsi), %eax
 1190              	.LVL116:
 634:fltk-1.3.4-1/png/pngtrans.c ****                *(rp + 2) = save;
 1191              		.loc 1 634 16 is_stmt 1 discriminator 3 view .LVU414
 634:fltk-1.3.4-1/png/pngtrans.c ****                *(rp + 2) = save;
 1192              		.loc 1 634 20 is_stmt 0 discriminator 3 view .LVU415
 1193 003b 0FB65602 		movzbl	2(%rsi), %edx
 1194              	.LBE16:
 631:fltk-1.3.4-1/png/pngtrans.c ****             {
 1195              		.loc 1 631 58 discriminator 3 view .LVU416
 1196 003f 4883C604 		addq	$4, %rsi
 1197              	.LVL117:
 1198              	.LBB17:
 634:fltk-1.3.4-1/png/pngtrans.c ****                *(rp + 2) = save;
 1199              		.loc 1 634 20 discriminator 3 view .LVU417
 1200 0043 8856FC   		movb	%dl, -4(%rsi)
 635:fltk-1.3.4-1/png/pngtrans.c ****             }
 1201              		.loc 1 635 16 is_stmt 1 discriminator 3 view .LVU418
 635:fltk-1.3.4-1/png/pngtrans.c ****             }
 1202              		.loc 1 635 26 is_stmt 0 discriminator 3 view .LVU419
 1203 0046 8846FE   		movb	%al, -2(%rsi)
 1204              	.LBE17:
 631:fltk-1.3.4-1/png/pngtrans.c ****             {
 1205              		.loc 1 631 50 is_stmt 1 discriminator 3 view .LVU420
 1206              	.LVL118:
 631:fltk-1.3.4-1/png/pngtrans.c ****             {
 1207              		.loc 1 631 35 discriminator 3 view .LVU421
 631:fltk-1.3.4-1/png/pngtrans.c ****             {
 1208              		.loc 1 631 13 is_stmt 0 discriminator 3 view .LVU422
 1209 0049 4839F1   		cmpq	%rsi, %rcx
 1210 004c 75EA     		jne	.L144
 1211 004e C3       		ret
 1212              	.LVL119:
 1213 004f 90       		.p2align 4,,10
 1214              		.p2align 3
 1215              	.L168:
 631:fltk-1.3.4-1/png/pngtrans.c ****             {
 1216              		.loc 1 631 13 discriminator 3 view .LVU423
 1217              	.LBE15:
 643:fltk-1.3.4-1/png/pngtrans.c ****          {
 1218              		.loc 1 643 10 is_stmt 1 view .LVU424
 643:fltk-1.3.4-1/png/pngtrans.c ****          {
 1219              		.loc 1 643 13 is_stmt 0 view .LVU425
 1220 0050 3C02     		cmpb	$2, %al
 1221 0052 746C     		je	.L170
 659:fltk-1.3.4-1/png/pngtrans.c ****          {
 1222              		.loc 1 659 15 is_stmt 1 view .LVU426
 659:fltk-1.3.4-1/png/pngtrans.c ****          {
 1223              		.loc 1 659 18 is_stmt 0 view .LVU427
 1224 0054 3C06     		cmpb	$6, %al
 1225 0056 75C4     		jne	.L139
 1226              	.LVL120:
 1227              	.LBB18:
 664:fltk-1.3.4-1/png/pngtrans.c ****             {
 1228              		.loc 1 664 35 is_stmt 1 view .LVU428
 664:fltk-1.3.4-1/png/pngtrans.c ****             {
 1229              		.loc 1 664 13 is_stmt 0 view .LVU429
 1230 0058 85C9     		testl	%ecx, %ecx
 1231 005a 74C0     		je	.L139
 1232 005c 8D41FF   		leal	-1(%rcx), %eax
 1233 005f 488D4CC6 		leaq	8(%rsi,%rax,8), %rcx
 1233      08
 1234              	.LVL121:
 1235              		.p2align 4,,10
 1236 0064 0F1F4000 		.p2align 3
 1237              	.L147:
 1238              	.LBB19:
 666:fltk-1.3.4-1/png/pngtrans.c ****                *rp = *(rp + 4);
 1239              		.loc 1 666 16 is_stmt 1 discriminator 3 view .LVU430
 666:fltk-1.3.4-1/png/pngtrans.c ****                *rp = *(rp + 4);
 1240              		.loc 1 666 25 is_stmt 0 discriminator 3 view .LVU431
 1241 0068 0FB606   		movzbl	(%rsi), %eax
 1242              	.LVL122:
 667:fltk-1.3.4-1/png/pngtrans.c ****                *(rp + 4) = save;
 1243              		.loc 1 667 16 is_stmt 1 discriminator 3 view .LVU432
 667:fltk-1.3.4-1/png/pngtrans.c ****                *(rp + 4) = save;
 1244              		.loc 1 667 20 is_stmt 0 discriminator 3 view .LVU433
 1245 006b 0FB65604 		movzbl	4(%rsi), %edx
 1246              	.LBE19:
 664:fltk-1.3.4-1/png/pngtrans.c ****             {
 1247              		.loc 1 664 58 discriminator 3 view .LVU434
 1248 006f 4883C608 		addq	$8, %rsi
 1249              	.LVL123:
 1250              	.LBB20:
 667:fltk-1.3.4-1/png/pngtrans.c ****                *(rp + 4) = save;
 1251              		.loc 1 667 20 discriminator 3 view .LVU435
 1252 0073 8856F8   		movb	%dl, -8(%rsi)
 668:fltk-1.3.4-1/png/pngtrans.c ****                save = *(rp + 1);
 1253              		.loc 1 668 16 is_stmt 1 discriminator 3 view .LVU436
 670:fltk-1.3.4-1/png/pngtrans.c ****                *(rp + 5) = save;
 1254              		.loc 1 670 26 is_stmt 0 discriminator 3 view .LVU437
 1255 0076 0FB656FD 		movzbl	-3(%rsi), %edx
 668:fltk-1.3.4-1/png/pngtrans.c ****                save = *(rp + 1);
 1256              		.loc 1 668 26 discriminator 3 view .LVU438
 1257 007a 8846FC   		movb	%al, -4(%rsi)
 669:fltk-1.3.4-1/png/pngtrans.c ****                *(rp + 1) = *(rp + 5);
 1258              		.loc 1 669 16 is_stmt 1 discriminator 3 view .LVU439
 669:fltk-1.3.4-1/png/pngtrans.c ****                *(rp + 1) = *(rp + 5);
 1259              		.loc 1 669 21 is_stmt 0 discriminator 3 view .LVU440
 1260 007d 0FB646F9 		movzbl	-7(%rsi), %eax
 1261              	.LVL124:
 670:fltk-1.3.4-1/png/pngtrans.c ****                *(rp + 5) = save;
 1262              		.loc 1 670 16 is_stmt 1 discriminator 3 view .LVU441
 670:fltk-1.3.4-1/png/pngtrans.c ****                *(rp + 5) = save;
 1263              		.loc 1 670 26 is_stmt 0 discriminator 3 view .LVU442
 1264 0081 8856F9   		movb	%dl, -7(%rsi)
 671:fltk-1.3.4-1/png/pngtrans.c ****             }
 1265              		.loc 1 671 16 is_stmt 1 discriminator 3 view .LVU443
 671:fltk-1.3.4-1/png/pngtrans.c ****             }
 1266              		.loc 1 671 26 is_stmt 0 discriminator 3 view .LVU444
 1267 0084 8846FD   		movb	%al, -3(%rsi)
 1268              	.LBE20:
 664:fltk-1.3.4-1/png/pngtrans.c ****             {
 1269              		.loc 1 664 50 is_stmt 1 discriminator 3 view .LVU445
 1270              	.LVL125:
 664:fltk-1.3.4-1/png/pngtrans.c ****             {
 1271              		.loc 1 664 35 discriminator 3 view .LVU446
 664:fltk-1.3.4-1/png/pngtrans.c ****             {
 1272              		.loc 1 664 13 is_stmt 0 discriminator 3 view .LVU447
 1273 0087 4839CE   		cmpq	%rcx, %rsi
 1274 008a 75DC     		jne	.L147
 1275              	.LBE18:
 1276              	.LBE27:
 1277              		.loc 1 677 1 view .LVU448
 1278 008c C3       		ret
 1279              	.LVL126:
 1280 008d 0F1F00   		.p2align 4,,10
 1281              		.p2align 3
 1282              	.L169:
 1283              	.LBB28:
 1284              	.LBB21:
 618:fltk-1.3.4-1/png/pngtrans.c ****             {
 1285              		.loc 1 618 35 is_stmt 1 view .LVU449
 618:fltk-1.3.4-1/png/pngtrans.c ****             {
 1286              		.loc 1 618 13 is_stmt 0 view .LVU450
 1287 0090 85C9     		testl	%ecx, %ecx
 1288 0092 7488     		je	.L139
 1289 0094 8D41FF   		leal	-1(%rcx), %eax
 1290 0097 488D4C40 		leaq	3(%rax,%rax,2), %rcx
 1290      03
 1291              	.LVL127:
 618:fltk-1.3.4-1/png/pngtrans.c ****             {
 1292              		.loc 1 618 13 view .LVU451
 1293 009c 4801F1   		addq	%rsi, %rcx
 1294              	.LVL128:
 1295 009f 90       		.p2align 4,,10
 1296              		.p2align 3
 1297              	.L143:
 1298              	.LBB22:
 620:fltk-1.3.4-1/png/pngtrans.c ****                *rp = *(rp + 2);
 1299              		.loc 1 620 16 is_stmt 1 discriminator 3 view .LVU452
 620:fltk-1.3.4-1/png/pngtrans.c ****                *rp = *(rp + 2);
 1300              		.loc 1 620 25 is_stmt 0 discriminator 3 view .LVU453
 1301 00a0 0FB606   		movzbl	(%rsi), %eax
 1302              	.LVL129:
 621:fltk-1.3.4-1/png/pngtrans.c ****                *(rp + 2) = save;
 1303              		.loc 1 621 16 is_stmt 1 discriminator 3 view .LVU454
 621:fltk-1.3.4-1/png/pngtrans.c ****                *(rp + 2) = save;
 1304              		.loc 1 621 20 is_stmt 0 discriminator 3 view .LVU455
 1305 00a3 0FB65602 		movzbl	2(%rsi), %edx
 1306              	.LBE22:
 618:fltk-1.3.4-1/png/pngtrans.c ****             {
 1307              		.loc 1 618 58 discriminator 3 view .LVU456
 1308 00a7 4883C603 		addq	$3, %rsi
 1309              	.LVL130:
 1310              	.LBB23:
 621:fltk-1.3.4-1/png/pngtrans.c ****                *(rp + 2) = save;
 1311              		.loc 1 621 20 discriminator 3 view .LVU457
 1312 00ab 8856FD   		movb	%dl, -3(%rsi)
 622:fltk-1.3.4-1/png/pngtrans.c ****             }
 1313              		.loc 1 622 16 is_stmt 1 discriminator 3 view .LVU458
 622:fltk-1.3.4-1/png/pngtrans.c ****             }
 1314              		.loc 1 622 26 is_stmt 0 discriminator 3 view .LVU459
 1315 00ae 8846FF   		movb	%al, -1(%rsi)
 1316              	.LBE23:
 618:fltk-1.3.4-1/png/pngtrans.c ****             {
 1317              		.loc 1 618 50 is_stmt 1 discriminator 3 view .LVU460
 1318              	.LVL131:
 618:fltk-1.3.4-1/png/pngtrans.c ****             {
 1319              		.loc 1 618 35 discriminator 3 view .LVU461
 618:fltk-1.3.4-1/png/pngtrans.c ****             {
 1320              		.loc 1 618 13 is_stmt 0 discriminator 3 view .LVU462
 1321 00b1 4839CE   		cmpq	%rcx, %rsi
 1322 00b4 75EA     		jne	.L143
 1323 00b6 C3       		ret
 1324              	.LVL132:
 1325 00b7 660F1F84 		.p2align 4,,10
 1325      00000000 
 1325      00
 1326              		.p2align 3
 1327              	.L170:
 618:fltk-1.3.4-1/png/pngtrans.c ****             {
 1328              		.loc 1 618 13 discriminator 3 view .LVU463
 1329              	.LBE21:
 1330              	.LBB24:
 648:fltk-1.3.4-1/png/pngtrans.c ****             {
 1331              		.loc 1 648 35 is_stmt 1 view .LVU464
 648:fltk-1.3.4-1/png/pngtrans.c ****             {
 1332              		.loc 1 648 13 is_stmt 0 view .LVU465
 1333 00c0 85C9     		testl	%ecx, %ecx
 1334 00c2 0F8454FF 		je	.L139
 1334      FFFF
 1335 00c8 8D41FF   		leal	-1(%rcx), %eax
 1336 00cb 488D4440 		leaq	3(%rax,%rax,2), %rax
 1336      03
 1337 00d0 488D0C46 		leaq	(%rsi,%rax,2), %rcx
 1338              	.LVL133:
 1339              		.p2align 4,,10
 1340 00d4 0F1F4000 		.p2align 3
 1341              	.L146:
 1342              	.LBB25:
 650:fltk-1.3.4-1/png/pngtrans.c ****                *rp = *(rp + 4);
 1343              		.loc 1 650 16 is_stmt 1 discriminator 3 view .LVU466
 650:fltk-1.3.4-1/png/pngtrans.c ****                *rp = *(rp + 4);
 1344              		.loc 1 650 25 is_stmt 0 discriminator 3 view .LVU467
 1345 00d8 0FB606   		movzbl	(%rsi), %eax
 1346              	.LVL134:
 651:fltk-1.3.4-1/png/pngtrans.c ****                *(rp + 4) = save;
 1347              		.loc 1 651 16 is_stmt 1 discriminator 3 view .LVU468
 651:fltk-1.3.4-1/png/pngtrans.c ****                *(rp + 4) = save;
 1348              		.loc 1 651 20 is_stmt 0 discriminator 3 view .LVU469
 1349 00db 0FB65604 		movzbl	4(%rsi), %edx
 1350              	.LBE25:
 648:fltk-1.3.4-1/png/pngtrans.c ****             {
 1351              		.loc 1 648 58 discriminator 3 view .LVU470
 1352 00df 4883C606 		addq	$6, %rsi
 1353              	.LVL135:
 1354              	.LBB26:
 651:fltk-1.3.4-1/png/pngtrans.c ****                *(rp + 4) = save;
 1355              		.loc 1 651 20 discriminator 3 view .LVU471
 1356 00e3 8856FA   		movb	%dl, -6(%rsi)
 652:fltk-1.3.4-1/png/pngtrans.c ****                save = *(rp + 1);
 1357              		.loc 1 652 16 is_stmt 1 discriminator 3 view .LVU472
 654:fltk-1.3.4-1/png/pngtrans.c ****                *(rp + 5) = save;
 1358              		.loc 1 654 26 is_stmt 0 discriminator 3 view .LVU473
 1359 00e6 0FB656FF 		movzbl	-1(%rsi), %edx
 652:fltk-1.3.4-1/png/pngtrans.c ****                save = *(rp + 1);
 1360              		.loc 1 652 26 discriminator 3 view .LVU474
 1361 00ea 8846FE   		movb	%al, -2(%rsi)
 653:fltk-1.3.4-1/png/pngtrans.c ****                *(rp + 1) = *(rp + 5);
 1362              		.loc 1 653 16 is_stmt 1 discriminator 3 view .LVU475
 653:fltk-1.3.4-1/png/pngtrans.c ****                *(rp + 1) = *(rp + 5);
 1363              		.loc 1 653 21 is_stmt 0 discriminator 3 view .LVU476
 1364 00ed 0FB646FB 		movzbl	-5(%rsi), %eax
 1365              	.LVL136:
 654:fltk-1.3.4-1/png/pngtrans.c ****                *(rp + 5) = save;
 1366              		.loc 1 654 16 is_stmt 1 discriminator 3 view .LVU477
 654:fltk-1.3.4-1/png/pngtrans.c ****                *(rp + 5) = save;
 1367              		.loc 1 654 26 is_stmt 0 discriminator 3 view .LVU478
 1368 00f1 8856FB   		movb	%dl, -5(%rsi)
 655:fltk-1.3.4-1/png/pngtrans.c ****             }
 1369              		.loc 1 655 16 is_stmt 1 discriminator 3 view .LVU479
 655:fltk-1.3.4-1/png/pngtrans.c ****             }
 1370              		.loc 1 655 26 is_stmt 0 discriminator 3 view .LVU480
 1371 00f4 8846FF   		movb	%al, -1(%rsi)
 1372              	.LBE26:
 648:fltk-1.3.4-1/png/pngtrans.c ****             {
 1373              		.loc 1 648 50 is_stmt 1 discriminator 3 view .LVU481
 1374              	.LVL137:
 648:fltk-1.3.4-1/png/pngtrans.c ****             {
 1375              		.loc 1 648 35 discriminator 3 view .LVU482
 648:fltk-1.3.4-1/png/pngtrans.c ****             {
 1376              		.loc 1 648 13 is_stmt 0 discriminator 3 view .LVU483
 1377 00f7 4839F1   		cmpq	%rsi, %rcx
 1378 00fa 75DC     		jne	.L146
 1379 00fc C3       		ret
 1380              	.LBE24:
 1381              	.LBE28:
 1382              		.cfi_endproc
 1383              	.LFE56:
 1385              		.section	.text.png_do_check_palette_indexes,"ax",@progbits
 1386              		.p2align 4
 1387              		.globl	png_do_check_palette_indexes
 1389              	png_do_check_palette_indexes:
 1390              	.LVL138:
 1391              	.LFB57:
 678:fltk-1.3.4-1/png/pngtrans.c **** #endif /* READ_BGR || WRITE_BGR */
 679:fltk-1.3.4-1/png/pngtrans.c **** 
 680:fltk-1.3.4-1/png/pngtrans.c **** #if defined(PNG_READ_CHECK_FOR_INVALID_INDEX_SUPPORTED) || \
 681:fltk-1.3.4-1/png/pngtrans.c ****     defined(PNG_WRITE_CHECK_FOR_INVALID_INDEX_SUPPORTED)
 682:fltk-1.3.4-1/png/pngtrans.c **** /* Added at libpng-1.5.10 */
 683:fltk-1.3.4-1/png/pngtrans.c **** void /* PRIVATE */
 684:fltk-1.3.4-1/png/pngtrans.c **** png_do_check_palette_indexes(png_structrp png_ptr, png_row_infop row_info)
 685:fltk-1.3.4-1/png/pngtrans.c **** {
 1392              		.loc 1 685 1 is_stmt 1 view -0
 1393              		.cfi_startproc
 1394              		.loc 1 685 1 is_stmt 0 view .LVU485
 1395 0000 F30F1EFA 		endbr64
 686:fltk-1.3.4-1/png/pngtrans.c ****    if (png_ptr->num_palette < (1 << row_info->bit_depth) &&
 1396              		.loc 1 686 4 is_stmt 1 view .LVU486
 1397              		.loc 1 686 45 is_stmt 0 view .LVU487
 1398 0004 0FB64E11 		movzbl	17(%rsi), %ecx
 1399              		.loc 1 686 34 view .LVU488
 1400 0008 B8010000 		movl	$1, %eax
 1400      00
 1401              		.loc 1 686 15 view .LVU489
 1402 000d 440FB787 		movzwl	616(%rdi), %r8d
 1402      68020000 
 1403              		.loc 1 686 34 view .LVU490
 1404 0015 D3E0     		sall	%cl, %eax
 1405              		.loc 1 686 58 view .LVU491
 1406 0017 4139C0   		cmpl	%eax, %r8d
 1407 001a 7D06     		jge	.L171
 1408 001c 664585C0 		testw	%r8w, %r8w
 1409 0020 7506     		jne	.L205
 1410              	.L171:
 687:fltk-1.3.4-1/png/pngtrans.c ****       png_ptr->num_palette > 0) /* num_palette can be 0 in MNG files */
 688:fltk-1.3.4-1/png/pngtrans.c ****    {
 689:fltk-1.3.4-1/png/pngtrans.c ****       /* Calculations moved outside switch in an attempt to stop different
 690:fltk-1.3.4-1/png/pngtrans.c ****        * compiler warnings.  'padding' is in *bits* within the last byte, it is
 691:fltk-1.3.4-1/png/pngtrans.c ****        * an 'int' because pixel_depth becomes an 'int' in the expression below,
 692:fltk-1.3.4-1/png/pngtrans.c ****        * and this calculation is used because it avoids warnings that other
 693:fltk-1.3.4-1/png/pngtrans.c ****        * forms produced on either GCC or MSVC.
 694:fltk-1.3.4-1/png/pngtrans.c ****        */
 695:fltk-1.3.4-1/png/pngtrans.c ****       int padding = (-row_info->pixel_depth * row_info->width) & 7;
 696:fltk-1.3.4-1/png/pngtrans.c ****       png_bytep rp = png_ptr->row_buf + row_info->rowbytes;
 697:fltk-1.3.4-1/png/pngtrans.c **** 
 698:fltk-1.3.4-1/png/pngtrans.c ****       switch (row_info->bit_depth)
 699:fltk-1.3.4-1/png/pngtrans.c ****       {
 700:fltk-1.3.4-1/png/pngtrans.c ****          case 1:
 701:fltk-1.3.4-1/png/pngtrans.c ****          {
 702:fltk-1.3.4-1/png/pngtrans.c ****             /* in this case, all bytes must be 0 so we don't need
 703:fltk-1.3.4-1/png/pngtrans.c ****              * to unpack the pixels except for the rightmost one.
 704:fltk-1.3.4-1/png/pngtrans.c ****              */
 705:fltk-1.3.4-1/png/pngtrans.c ****             for (; rp > png_ptr->row_buf; rp--)
 706:fltk-1.3.4-1/png/pngtrans.c ****             {
 707:fltk-1.3.4-1/png/pngtrans.c ****               if (*rp >> padding != 0)
 708:fltk-1.3.4-1/png/pngtrans.c ****                  png_ptr->num_palette_max = 1;
 709:fltk-1.3.4-1/png/pngtrans.c ****               padding = 0;
 710:fltk-1.3.4-1/png/pngtrans.c ****             }
 711:fltk-1.3.4-1/png/pngtrans.c **** 
 712:fltk-1.3.4-1/png/pngtrans.c ****             break;
 713:fltk-1.3.4-1/png/pngtrans.c ****          }
 714:fltk-1.3.4-1/png/pngtrans.c **** 
 715:fltk-1.3.4-1/png/pngtrans.c ****          case 2:
 716:fltk-1.3.4-1/png/pngtrans.c ****          {
 717:fltk-1.3.4-1/png/pngtrans.c ****             for (; rp > png_ptr->row_buf; rp--)
 718:fltk-1.3.4-1/png/pngtrans.c ****             {
 719:fltk-1.3.4-1/png/pngtrans.c ****               int i = ((*rp >> padding) & 0x03);
 720:fltk-1.3.4-1/png/pngtrans.c **** 
 721:fltk-1.3.4-1/png/pngtrans.c ****               if (i > png_ptr->num_palette_max)
 722:fltk-1.3.4-1/png/pngtrans.c ****                  png_ptr->num_palette_max = i;
 723:fltk-1.3.4-1/png/pngtrans.c **** 
 724:fltk-1.3.4-1/png/pngtrans.c ****               i = (((*rp >> padding) >> 2) & 0x03);
 725:fltk-1.3.4-1/png/pngtrans.c **** 
 726:fltk-1.3.4-1/png/pngtrans.c ****               if (i > png_ptr->num_palette_max)
 727:fltk-1.3.4-1/png/pngtrans.c ****                  png_ptr->num_palette_max = i;
 728:fltk-1.3.4-1/png/pngtrans.c **** 
 729:fltk-1.3.4-1/png/pngtrans.c ****               i = (((*rp >> padding) >> 4) & 0x03);
 730:fltk-1.3.4-1/png/pngtrans.c **** 
 731:fltk-1.3.4-1/png/pngtrans.c ****               if (i > png_ptr->num_palette_max)
 732:fltk-1.3.4-1/png/pngtrans.c ****                  png_ptr->num_palette_max = i;
 733:fltk-1.3.4-1/png/pngtrans.c **** 
 734:fltk-1.3.4-1/png/pngtrans.c ****               i = (((*rp >> padding) >> 6) & 0x03);
 735:fltk-1.3.4-1/png/pngtrans.c **** 
 736:fltk-1.3.4-1/png/pngtrans.c ****               if (i > png_ptr->num_palette_max)
 737:fltk-1.3.4-1/png/pngtrans.c ****                  png_ptr->num_palette_max = i;
 738:fltk-1.3.4-1/png/pngtrans.c **** 
 739:fltk-1.3.4-1/png/pngtrans.c ****               padding = 0;
 740:fltk-1.3.4-1/png/pngtrans.c ****             }
 741:fltk-1.3.4-1/png/pngtrans.c **** 
 742:fltk-1.3.4-1/png/pngtrans.c ****             break;
 743:fltk-1.3.4-1/png/pngtrans.c ****          }
 744:fltk-1.3.4-1/png/pngtrans.c **** 
 745:fltk-1.3.4-1/png/pngtrans.c ****          case 4:
 746:fltk-1.3.4-1/png/pngtrans.c ****          {
 747:fltk-1.3.4-1/png/pngtrans.c ****             for (; rp > png_ptr->row_buf; rp--)
 748:fltk-1.3.4-1/png/pngtrans.c ****             {
 749:fltk-1.3.4-1/png/pngtrans.c ****               int i = ((*rp >> padding) & 0x0f);
 750:fltk-1.3.4-1/png/pngtrans.c **** 
 751:fltk-1.3.4-1/png/pngtrans.c ****               if (i > png_ptr->num_palette_max)
 752:fltk-1.3.4-1/png/pngtrans.c ****                  png_ptr->num_palette_max = i;
 753:fltk-1.3.4-1/png/pngtrans.c **** 
 754:fltk-1.3.4-1/png/pngtrans.c ****               i = (((*rp >> padding) >> 4) & 0x0f);
 755:fltk-1.3.4-1/png/pngtrans.c **** 
 756:fltk-1.3.4-1/png/pngtrans.c ****               if (i > png_ptr->num_palette_max)
 757:fltk-1.3.4-1/png/pngtrans.c ****                  png_ptr->num_palette_max = i;
 758:fltk-1.3.4-1/png/pngtrans.c **** 
 759:fltk-1.3.4-1/png/pngtrans.c ****               padding = 0;
 760:fltk-1.3.4-1/png/pngtrans.c ****             }
 761:fltk-1.3.4-1/png/pngtrans.c **** 
 762:fltk-1.3.4-1/png/pngtrans.c ****             break;
 763:fltk-1.3.4-1/png/pngtrans.c ****          }
 764:fltk-1.3.4-1/png/pngtrans.c **** 
 765:fltk-1.3.4-1/png/pngtrans.c ****          case 8:
 766:fltk-1.3.4-1/png/pngtrans.c ****          {
 767:fltk-1.3.4-1/png/pngtrans.c ****             for (; rp > png_ptr->row_buf; rp--)
 768:fltk-1.3.4-1/png/pngtrans.c ****             {
 769:fltk-1.3.4-1/png/pngtrans.c ****                if (*rp > png_ptr->num_palette_max)
 770:fltk-1.3.4-1/png/pngtrans.c ****                   png_ptr->num_palette_max = (int) *rp;
 771:fltk-1.3.4-1/png/pngtrans.c ****             }
 772:fltk-1.3.4-1/png/pngtrans.c **** 
 773:fltk-1.3.4-1/png/pngtrans.c ****             break;
 774:fltk-1.3.4-1/png/pngtrans.c ****          }
 775:fltk-1.3.4-1/png/pngtrans.c **** 
 776:fltk-1.3.4-1/png/pngtrans.c ****          default:
 777:fltk-1.3.4-1/png/pngtrans.c ****             break;
 778:fltk-1.3.4-1/png/pngtrans.c ****       }
 779:fltk-1.3.4-1/png/pngtrans.c ****    }
 780:fltk-1.3.4-1/png/pngtrans.c **** }
 1411              		.loc 1 780 1 view .LVU492
 1412 0022 C3       		ret
 1413              		.p2align 4,,10
 1414 0023 0F1F4400 		.p2align 3
 1414      00
 1415              	.L205:
 1416              	.LBB29:
 695:fltk-1.3.4-1/png/pngtrans.c ****       png_bytep rp = png_ptr->row_buf + row_info->rowbytes;
 1417              		.loc 1 695 7 is_stmt 1 view .LVU493
 695:fltk-1.3.4-1/png/pngtrans.c ****       png_bytep rp = png_ptr->row_buf + row_info->rowbytes;
 1418              		.loc 1 695 31 is_stmt 0 view .LVU494
 1419 0028 0FB65613 		movzbl	19(%rsi), %edx
 696:fltk-1.3.4-1/png/pngtrans.c **** 
 1420              		.loc 1 696 29 view .LVU495
 1421 002c 4C8B8728 		movq	552(%rdi), %r8
 1421      020000
 696:fltk-1.3.4-1/png/pngtrans.c **** 
 1422              		.loc 1 696 17 view .LVU496
 1423 0033 488B4608 		movq	8(%rsi), %rax
 695:fltk-1.3.4-1/png/pngtrans.c ****       png_bytep rp = png_ptr->row_buf + row_info->rowbytes;
 1424              		.loc 1 695 22 view .LVU497
 1425 0037 F7DA     		negl	%edx
 695:fltk-1.3.4-1/png/pngtrans.c ****       png_bytep rp = png_ptr->row_buf + row_info->rowbytes;
 1426              		.loc 1 695 45 view .LVU498
 1427 0039 0FAF16   		imull	(%rsi), %edx
 696:fltk-1.3.4-1/png/pngtrans.c **** 
 1428              		.loc 1 696 17 view .LVU499
 1429 003c 4C01C0   		addq	%r8, %rax
 695:fltk-1.3.4-1/png/pngtrans.c ****       png_bytep rp = png_ptr->row_buf + row_info->rowbytes;
 1430              		.loc 1 695 11 view .LVU500
 1431 003f 83E207   		andl	$7, %edx
 1432              	.LVL139:
 696:fltk-1.3.4-1/png/pngtrans.c **** 
 1433              		.loc 1 696 7 is_stmt 1 view .LVU501
 698:fltk-1.3.4-1/png/pngtrans.c ****       {
 1434              		.loc 1 698 7 view .LVU502
 1435 0042 80F904   		cmpb	$4, %cl
 1436 0045 0F84F500 		je	.L175
 1436      0000
 1437 004b 0F877F00 		ja	.L176
 1437      0000
 1438 0051 80F901   		cmpb	$1, %cl
 1439 0054 0F84AE00 		je	.L177
 1439      0000
 1440 005a 80F902   		cmpb	$2, %cl
 1441 005d 0F851F01 		jne	.L206
 1441      0000
 717:fltk-1.3.4-1/png/pngtrans.c ****             {
 1442              		.loc 1 717 20 view .LVU503
 717:fltk-1.3.4-1/png/pngtrans.c ****             {
 1443              		.loc 1 717 13 is_stmt 0 view .LVU504
 1444 0063 4939C0   		cmpq	%rax, %r8
 1445 0066 0F831401 		jnb	.L207
 1445      0000
 1446              	.LVL140:
 1447 006c 0F1F4000 		.p2align 4,,10
 1448              		.p2align 3
 1449              	.L182:
 1450              	.LBB30:
 719:fltk-1.3.4-1/png/pngtrans.c **** 
 1451              		.loc 1 719 15 is_stmt 1 view .LVU505
 719:fltk-1.3.4-1/png/pngtrans.c **** 
 1452              		.loc 1 719 25 is_stmt 0 view .LVU506
 1453 0070 0FB630   		movzbl	(%rax), %esi
 719:fltk-1.3.4-1/png/pngtrans.c **** 
 1454              		.loc 1 719 29 view .LVU507
 1455 0073 89D1     		movl	%edx, %ecx
 1456 0075 D3FE     		sarl	%cl, %esi
 721:fltk-1.3.4-1/png/pngtrans.c ****                  png_ptr->num_palette_max = i;
 1457              		.loc 1 721 30 view .LVU508
 1458 0077 8B8F6C02 		movl	620(%rdi), %ecx
 1458      0000
 719:fltk-1.3.4-1/png/pngtrans.c **** 
 1459              		.loc 1 719 29 view .LVU509
 1460 007d 89F2     		movl	%esi, %edx
 1461              	.LVL141:
 719:fltk-1.3.4-1/png/pngtrans.c **** 
 1462              		.loc 1 719 19 view .LVU510
 1463 007f 83E603   		andl	$3, %esi
 1464              	.LVL142:
 721:fltk-1.3.4-1/png/pngtrans.c ****                  png_ptr->num_palette_max = i;
 1465              		.loc 1 721 15 is_stmt 1 view .LVU511
 721:fltk-1.3.4-1/png/pngtrans.c ****                  png_ptr->num_palette_max = i;
 1466              		.loc 1 721 18 is_stmt 0 view .LVU512
 1467 0082 39F1     		cmpl	%esi, %ecx
 1468 0084 7D08     		jge	.L185
 722:fltk-1.3.4-1/png/pngtrans.c **** 
 1469              		.loc 1 722 18 is_stmt 1 view .LVU513
 722:fltk-1.3.4-1/png/pngtrans.c **** 
 1470              		.loc 1 722 43 is_stmt 0 view .LVU514
 1471 0086 89B76C02 		movl	%esi, 620(%rdi)
 1471      0000
 1472 008c 89F1     		movl	%esi, %ecx
 1473              	.L185:
 724:fltk-1.3.4-1/png/pngtrans.c **** 
 1474              		.loc 1 724 15 is_stmt 1 view .LVU515
 724:fltk-1.3.4-1/png/pngtrans.c **** 
 1475              		.loc 1 724 38 is_stmt 0 view .LVU516
 1476 008e 89D6     		movl	%edx, %esi
 1477              	.LVL143:
 724:fltk-1.3.4-1/png/pngtrans.c **** 
 1478              		.loc 1 724 38 view .LVU517
 1479 0090 C1FE02   		sarl	$2, %esi
 724:fltk-1.3.4-1/png/pngtrans.c **** 
 1480              		.loc 1 724 17 view .LVU518
 1481 0093 83E603   		andl	$3, %esi
 1482              	.LVL144:
 726:fltk-1.3.4-1/png/pngtrans.c ****                  png_ptr->num_palette_max = i;
 1483              		.loc 1 726 15 is_stmt 1 view .LVU519
 726:fltk-1.3.4-1/png/pngtrans.c ****                  png_ptr->num_palette_max = i;
 1484              		.loc 1 726 18 is_stmt 0 view .LVU520
 1485 0096 39F1     		cmpl	%esi, %ecx
 1486 0098 7D08     		jge	.L186
 727:fltk-1.3.4-1/png/pngtrans.c **** 
 1487              		.loc 1 727 18 is_stmt 1 view .LVU521
 727:fltk-1.3.4-1/png/pngtrans.c **** 
 1488              		.loc 1 727 43 is_stmt 0 view .LVU522
 1489 009a 89B76C02 		movl	%esi, 620(%rdi)
 1489      0000
 1490 00a0 89F1     		movl	%esi, %ecx
 1491              	.L186:
 729:fltk-1.3.4-1/png/pngtrans.c **** 
 1492              		.loc 1 729 15 is_stmt 1 view .LVU523
 729:fltk-1.3.4-1/png/pngtrans.c **** 
 1493              		.loc 1 729 38 is_stmt 0 view .LVU524
 1494 00a2 89D6     		movl	%edx, %esi
 1495              	.LVL145:
 729:fltk-1.3.4-1/png/pngtrans.c **** 
 1496              		.loc 1 729 38 view .LVU525
 1497 00a4 C1FE04   		sarl	$4, %esi
 729:fltk-1.3.4-1/png/pngtrans.c **** 
 1498              		.loc 1 729 17 view .LVU526
 1499 00a7 83E603   		andl	$3, %esi
 1500              	.LVL146:
 731:fltk-1.3.4-1/png/pngtrans.c ****                  png_ptr->num_palette_max = i;
 1501              		.loc 1 731 15 is_stmt 1 view .LVU527
 731:fltk-1.3.4-1/png/pngtrans.c ****                  png_ptr->num_palette_max = i;
 1502              		.loc 1 731 18 is_stmt 0 view .LVU528
 1503 00aa 39F1     		cmpl	%esi, %ecx
 1504 00ac 7D08     		jge	.L187
 732:fltk-1.3.4-1/png/pngtrans.c **** 
 1505              		.loc 1 732 18 is_stmt 1 view .LVU529
 732:fltk-1.3.4-1/png/pngtrans.c **** 
 1506              		.loc 1 732 43 is_stmt 0 view .LVU530
 1507 00ae 89B76C02 		movl	%esi, 620(%rdi)
 1507      0000
 1508 00b4 89F1     		movl	%esi, %ecx
 1509              	.L187:
 734:fltk-1.3.4-1/png/pngtrans.c **** 
 1510              		.loc 1 734 15 is_stmt 1 view .LVU531
 734:fltk-1.3.4-1/png/pngtrans.c **** 
 1511              		.loc 1 734 38 is_stmt 0 view .LVU532
 1512 00b6 C1FA06   		sarl	$6, %edx
 1513              	.LVL147:
 736:fltk-1.3.4-1/png/pngtrans.c ****                  png_ptr->num_palette_max = i;
 1514              		.loc 1 736 15 is_stmt 1 view .LVU533
 736:fltk-1.3.4-1/png/pngtrans.c ****                  png_ptr->num_palette_max = i;
 1515              		.loc 1 736 18 is_stmt 0 view .LVU534
 1516 00b9 39CA     		cmpl	%ecx, %edx
 1517 00bb 7E06     		jle	.L188
 737:fltk-1.3.4-1/png/pngtrans.c **** 
 1518              		.loc 1 737 18 is_stmt 1 view .LVU535
 737:fltk-1.3.4-1/png/pngtrans.c **** 
 1519              		.loc 1 737 43 is_stmt 0 view .LVU536
 1520 00bd 89976C02 		movl	%edx, 620(%rdi)
 1520      0000
 1521              	.L188:
 739:fltk-1.3.4-1/png/pngtrans.c ****             }
 1522              		.loc 1 739 15 is_stmt 1 view .LVU537
 1523              	.LVL148:
 739:fltk-1.3.4-1/png/pngtrans.c ****             }
 1524              		.loc 1 739 15 is_stmt 0 view .LVU538
 1525              	.LBE30:
 717:fltk-1.3.4-1/png/pngtrans.c ****             {
 1526              		.loc 1 717 43 is_stmt 1 view .LVU539
 717:fltk-1.3.4-1/png/pngtrans.c ****             {
 1527              		.loc 1 717 45 is_stmt 0 view .LVU540
 1528 00c3 4883E801 		subq	$1, %rax
 1529              	.LVL149:
 717:fltk-1.3.4-1/png/pngtrans.c ****             {
 1530              		.loc 1 717 20 is_stmt 1 view .LVU541
 1531              	.LBB31:
 739:fltk-1.3.4-1/png/pngtrans.c ****             }
 1532              		.loc 1 739 23 is_stmt 0 view .LVU542
 1533 00c7 31D2     		xorl	%edx, %edx
 1534              	.LVL150:
 739:fltk-1.3.4-1/png/pngtrans.c ****             }
 1535              		.loc 1 739 23 view .LVU543
 1536              	.LBE31:
 717:fltk-1.3.4-1/png/pngtrans.c ****             {
 1537              		.loc 1 717 13 view .LVU544
 1538 00c9 4939C0   		cmpq	%rax, %r8
 1539 00cc 75A2     		jne	.L182
 1540 00ce C3       		ret
 1541              	.LVL151:
 1542 00cf 90       		.p2align 4,,10
 1543              		.p2align 3
 1544              	.L176:
 698:fltk-1.3.4-1/png/pngtrans.c ****       {
 1545              		.loc 1 698 7 view .LVU545
 1546 00d0 80F908   		cmpb	$8, %cl
 1547 00d3 0F8549FF 		jne	.L171
 1547      FFFF
 767:fltk-1.3.4-1/png/pngtrans.c ****             {
 1548              		.loc 1 767 20 is_stmt 1 view .LVU546
 767:fltk-1.3.4-1/png/pngtrans.c ****             {
 1549              		.loc 1 767 13 is_stmt 0 view .LVU547
 1550 00d9 4939C0   		cmpq	%rax, %r8
 1551 00dc 0F839F00 		jnb	.L208
 1551      0000
 1552              	.LVL152:
 1553              		.p2align 4,,10
 1554 00e2 660F1F44 		.p2align 3
 1554      0000
 1555              	.L179:
 769:fltk-1.3.4-1/png/pngtrans.c ****                   png_ptr->num_palette_max = (int) *rp;
 1556              		.loc 1 769 16 is_stmt 1 view .LVU548
 769:fltk-1.3.4-1/png/pngtrans.c ****                   png_ptr->num_palette_max = (int) *rp;
 1557              		.loc 1 769 20 is_stmt 0 view .LVU549
 1558 00e8 0FB610   		movzbl	(%rax), %edx
 769:fltk-1.3.4-1/png/pngtrans.c ****                   png_ptr->num_palette_max = (int) *rp;
 1559              		.loc 1 769 19 view .LVU550
 1560 00eb 3B976C02 		cmpl	620(%rdi), %edx
 1560      0000
 1561 00f1 7E06     		jle	.L191
 770:fltk-1.3.4-1/png/pngtrans.c ****             }
 1562              		.loc 1 770 19 is_stmt 1 view .LVU551
 770:fltk-1.3.4-1/png/pngtrans.c ****             }
 1563              		.loc 1 770 44 is_stmt 0 view .LVU552
 1564 00f3 89976C02 		movl	%edx, 620(%rdi)
 1564      0000
 1565              	.L191:
 767:fltk-1.3.4-1/png/pngtrans.c ****             {
 1566              		.loc 1 767 43 is_stmt 1 view .LVU553
 767:fltk-1.3.4-1/png/pngtrans.c ****             {
 1567              		.loc 1 767 45 is_stmt 0 view .LVU554
 1568 00f9 4883E801 		subq	$1, %rax
 1569              	.LVL153:
 767:fltk-1.3.4-1/png/pngtrans.c ****             {
 1570              		.loc 1 767 20 is_stmt 1 view .LVU555
 767:fltk-1.3.4-1/png/pngtrans.c ****             {
 1571              		.loc 1 767 13 is_stmt 0 view .LVU556
 1572 00fd 4939C0   		cmpq	%rax, %r8
 1573 0100 75E6     		jne	.L179
 1574              	.LBE29:
 1575              		.loc 1 780 1 view .LVU557
 1576 0102 C3       		ret
 1577              	.LVL154:
 1578              		.p2align 4,,10
 1579 0103 0F1F4400 		.p2align 3
 1579      00
 1580              	.L177:
 1581              	.LBB34:
 705:fltk-1.3.4-1/png/pngtrans.c ****             {
 1582              		.loc 1 705 20 is_stmt 1 view .LVU558
 705:fltk-1.3.4-1/png/pngtrans.c ****             {
 1583              		.loc 1 705 13 is_stmt 0 view .LVU559
 1584 0108 4939C0   		cmpq	%rax, %r8
 1585 010b 0F8311FF 		jnb	.L171
 1585      FFFF
 1586              	.LVL155:
 1587              		.p2align 4,,10
 1588 0111 0F1F8000 		.p2align 3
 1588      000000
 1589              	.L184:
 707:fltk-1.3.4-1/png/pngtrans.c ****                  png_ptr->num_palette_max = 1;
 1590              		.loc 1 707 15 is_stmt 1 view .LVU560
 707:fltk-1.3.4-1/png/pngtrans.c ****                  png_ptr->num_palette_max = 1;
 1591              		.loc 1 707 19 is_stmt 0 view .LVU561
 1592 0118 0FB630   		movzbl	(%rax), %esi
 707:fltk-1.3.4-1/png/pngtrans.c ****                  png_ptr->num_palette_max = 1;
 1593              		.loc 1 707 23 view .LVU562
 1594 011b 89D1     		movl	%edx, %ecx
 1595 011d D3FE     		sarl	%cl, %esi
 707:fltk-1.3.4-1/png/pngtrans.c ****                  png_ptr->num_palette_max = 1;
 1596              		.loc 1 707 18 view .LVU563
 1597 011f 85F6     		testl	%esi, %esi
 1598 0121 740A     		je	.L183
 708:fltk-1.3.4-1/png/pngtrans.c ****               padding = 0;
 1599              		.loc 1 708 18 is_stmt 1 view .LVU564
 708:fltk-1.3.4-1/png/pngtrans.c ****               padding = 0;
 1600              		.loc 1 708 43 is_stmt 0 view .LVU565
 1601 0123 C7876C02 		movl	$1, 620(%rdi)
 1601      00000100 
 1601      0000
 1602              	.L183:
 709:fltk-1.3.4-1/png/pngtrans.c ****             }
 1603              		.loc 1 709 15 is_stmt 1 view .LVU566
 1604              	.LVL156:
 705:fltk-1.3.4-1/png/pngtrans.c ****             {
 1605              		.loc 1 705 43 view .LVU567
 705:fltk-1.3.4-1/png/pngtrans.c ****             {
 1606              		.loc 1 705 45 is_stmt 0 view .LVU568
 1607 012d 4883E801 		subq	$1, %rax
 1608              	.LVL157:
 705:fltk-1.3.4-1/png/pngtrans.c ****             {
 1609              		.loc 1 705 20 is_stmt 1 view .LVU569
 709:fltk-1.3.4-1/png/pngtrans.c ****             }
 1610              		.loc 1 709 23 is_stmt 0 view .LVU570
 1611 0131 31D2     		xorl	%edx, %edx
 705:fltk-1.3.4-1/png/pngtrans.c ****             {
 1612              		.loc 1 705 13 view .LVU571
 1613 0133 4939C0   		cmpq	%rax, %r8
 1614 0136 75E0     		jne	.L184
 1615 0138 C3       		ret
 1616              	.LVL158:
 1617 0139 0F1F8000 		.p2align 4,,10
 1617      000000
 1618              		.p2align 3
 1619              	.L175:
 747:fltk-1.3.4-1/png/pngtrans.c ****             {
 1620              		.loc 1 747 20 is_stmt 1 view .LVU572
 747:fltk-1.3.4-1/png/pngtrans.c ****             {
 1621              		.loc 1 747 13 is_stmt 0 view .LVU573
 1622 0140 4939C0   		cmpq	%rax, %r8
 1623 0143 733A     		jnb	.L209
 1624              	.LVL159:
 1625              		.p2align 4,,10
 1626 0145 0F1F00   		.p2align 3
 1627              	.L181:
 1628              	.LBB32:
 749:fltk-1.3.4-1/png/pngtrans.c **** 
 1629              		.loc 1 749 15 is_stmt 1 view .LVU574
 749:fltk-1.3.4-1/png/pngtrans.c **** 
 1630              		.loc 1 749 25 is_stmt 0 view .LVU575
 1631 0148 0FB630   		movzbl	(%rax), %esi
 749:fltk-1.3.4-1/png/pngtrans.c **** 
 1632              		.loc 1 749 29 view .LVU576
 1633 014b 89D1     		movl	%edx, %ecx
 1634 014d D3FE     		sarl	%cl, %esi
 751:fltk-1.3.4-1/png/pngtrans.c ****                  png_ptr->num_palette_max = i;
 1635              		.loc 1 751 30 view .LVU577
 1636 014f 8B8F6C02 		movl	620(%rdi), %ecx
 1636      0000
 749:fltk-1.3.4-1/png/pngtrans.c **** 
 1637              		.loc 1 749 29 view .LVU578
 1638 0155 89F2     		movl	%esi, %edx
 1639              	.LVL160:
 749:fltk-1.3.4-1/png/pngtrans.c **** 
 1640              		.loc 1 749 19 view .LVU579
 1641 0157 83E60F   		andl	$15, %esi
 1642              	.LVL161:
 751:fltk-1.3.4-1/png/pngtrans.c ****                  png_ptr->num_palette_max = i;
 1643              		.loc 1 751 15 is_stmt 1 view .LVU580
 751:fltk-1.3.4-1/png/pngtrans.c ****                  png_ptr->num_palette_max = i;
 1644              		.loc 1 751 18 is_stmt 0 view .LVU581
 1645 015a 39F1     		cmpl	%esi, %ecx
 1646 015c 7D08     		jge	.L189
 752:fltk-1.3.4-1/png/pngtrans.c **** 
 1647              		.loc 1 752 18 is_stmt 1 view .LVU582
 752:fltk-1.3.4-1/png/pngtrans.c **** 
 1648              		.loc 1 752 43 is_stmt 0 view .LVU583
 1649 015e 89B76C02 		movl	%esi, 620(%rdi)
 1649      0000
 1650 0164 89F1     		movl	%esi, %ecx
 1651              	.L189:
 754:fltk-1.3.4-1/png/pngtrans.c **** 
 1652              		.loc 1 754 15 is_stmt 1 view .LVU584
 754:fltk-1.3.4-1/png/pngtrans.c **** 
 1653              		.loc 1 754 38 is_stmt 0 view .LVU585
 1654 0166 C1FA04   		sarl	$4, %edx
 1655              	.LVL162:
 756:fltk-1.3.4-1/png/pngtrans.c ****                  png_ptr->num_palette_max = i;
 1656              		.loc 1 756 15 is_stmt 1 view .LVU586
 756:fltk-1.3.4-1/png/pngtrans.c ****                  png_ptr->num_palette_max = i;
 1657              		.loc 1 756 18 is_stmt 0 view .LVU587
 1658 0169 39CA     		cmpl	%ecx, %edx
 1659 016b 7E06     		jle	.L190
 757:fltk-1.3.4-1/png/pngtrans.c **** 
 1660              		.loc 1 757 18 is_stmt 1 view .LVU588
 757:fltk-1.3.4-1/png/pngtrans.c **** 
 1661              		.loc 1 757 43 is_stmt 0 view .LVU589
 1662 016d 89976C02 		movl	%edx, 620(%rdi)
 1662      0000
 1663              	.L190:
 759:fltk-1.3.4-1/png/pngtrans.c ****             }
 1664              		.loc 1 759 15 is_stmt 1 view .LVU590
 1665              	.LVL163:
 759:fltk-1.3.4-1/png/pngtrans.c ****             }
 1666              		.loc 1 759 15 is_stmt 0 view .LVU591
 1667              	.LBE32:
 747:fltk-1.3.4-1/png/pngtrans.c ****             {
 1668              		.loc 1 747 43 is_stmt 1 view .LVU592
 747:fltk-1.3.4-1/png/pngtrans.c ****             {
 1669              		.loc 1 747 45 is_stmt 0 view .LVU593
 1670 0173 4883E801 		subq	$1, %rax
 1671              	.LVL164:
 747:fltk-1.3.4-1/png/pngtrans.c ****             {
 1672              		.loc 1 747 20 is_stmt 1 view .LVU594
 1673              	.LBB33:
 759:fltk-1.3.4-1/png/pngtrans.c ****             }
 1674              		.loc 1 759 23 is_stmt 0 view .LVU595
 1675 0177 31D2     		xorl	%edx, %edx
 1676              	.LVL165:
 759:fltk-1.3.4-1/png/pngtrans.c ****             }
 1677              		.loc 1 759 23 view .LVU596
 1678              	.LBE33:
 747:fltk-1.3.4-1/png/pngtrans.c ****             {
 1679              		.loc 1 747 13 view .LVU597
 1680 0179 4939C0   		cmpq	%rax, %r8
 1681 017c 75CA     		jne	.L181
 1682 017e C3       		ret
 1683              	.LVL166:
 1684              	.L209:
 747:fltk-1.3.4-1/png/pngtrans.c ****             {
 1685              		.loc 1 747 13 view .LVU598
 1686 017f C3       		ret
 1687              	.L207:
 747:fltk-1.3.4-1/png/pngtrans.c ****             {
 1688              		.loc 1 747 13 view .LVU599
 1689 0180 C3       		ret
 1690              	.L208:
 747:fltk-1.3.4-1/png/pngtrans.c ****             {
 1691              		.loc 1 747 13 view .LVU600
 1692 0181 C3       		ret
 1693              	.L206:
 747:fltk-1.3.4-1/png/pngtrans.c ****             {
 1694              		.loc 1 747 13 view .LVU601
 1695 0182 C3       		ret
 1696              	.LBE34:
 1697              		.cfi_endproc
 1698              	.LFE57:
 1700              		.section	.rodata.png_set_user_transform_info.str1.8,"aMS",@progbits,1
 1701              		.align 8
 1702              	.LC2:
 1703 0000 696E666F 		.string	"info change after png_start_read_image or png_read_update_info"
 1703      20636861 
 1703      6E676520 
 1703      61667465 
 1703      7220706E 
 1704              		.section	.text.png_set_user_transform_info,"ax",@progbits
 1705              		.p2align 4
 1706              		.globl	png_set_user_transform_info
 1708              	png_set_user_transform_info:
 1709              	.LVL167:
 1710              	.LFB58:
 781:fltk-1.3.4-1/png/pngtrans.c **** #endif /* CHECK_FOR_INVALID_INDEX */
 782:fltk-1.3.4-1/png/pngtrans.c **** 
 783:fltk-1.3.4-1/png/pngtrans.c **** #if defined(PNG_READ_USER_TRANSFORM_SUPPORTED) || \
 784:fltk-1.3.4-1/png/pngtrans.c ****     defined(PNG_WRITE_USER_TRANSFORM_SUPPORTED)
 785:fltk-1.3.4-1/png/pngtrans.c **** #ifdef PNG_USER_TRANSFORM_PTR_SUPPORTED
 786:fltk-1.3.4-1/png/pngtrans.c **** void PNGAPI
 787:fltk-1.3.4-1/png/pngtrans.c **** png_set_user_transform_info(png_structrp png_ptr, png_voidp
 788:fltk-1.3.4-1/png/pngtrans.c ****    user_transform_ptr, int user_transform_depth, int user_transform_channels)
 789:fltk-1.3.4-1/png/pngtrans.c **** {
 1711              		.loc 1 789 1 is_stmt 1 view -0
 1712              		.cfi_startproc
 1713              		.loc 1 789 1 is_stmt 0 view .LVU603
 1714 0000 F30F1EFA 		endbr64
 790:fltk-1.3.4-1/png/pngtrans.c ****    png_debug(1, "in png_set_user_transform_info");
 1715              		.loc 1 790 4 is_stmt 1 view .LVU604
 791:fltk-1.3.4-1/png/pngtrans.c **** 
 792:fltk-1.3.4-1/png/pngtrans.c ****    if (png_ptr == NULL)
 1716              		.loc 1 792 4 view .LVU605
 1717              		.loc 1 792 7 is_stmt 0 view .LVU606
 1718 0004 4885FF   		testq	%rdi, %rdi
 1719 0007 7425     		je	.L210
 793:fltk-1.3.4-1/png/pngtrans.c ****       return;
 794:fltk-1.3.4-1/png/pngtrans.c **** 
 795:fltk-1.3.4-1/png/pngtrans.c **** #ifdef PNG_READ_USER_TRANSFORM_SUPPORTED
 796:fltk-1.3.4-1/png/pngtrans.c ****    if ((png_ptr->mode & PNG_IS_READ_STRUCT) != 0 &&
 1720              		.loc 1 796 4 is_stmt 1 view .LVU607
 1721              		.loc 1 796 7 is_stmt 0 view .LVU608
 1722 0009 F6872D01 		testb	$-128, 301(%rdi)
 1722      000080
 1723 0010 7409     		je	.L212
 1724              		.loc 1 796 50 discriminator 1 view .LVU609
 1725 0012 F6873001 		testb	$64, 304(%rdi)
 1725      000040
 1726 0019 7515     		jne	.L222
 1727              	.L212:
 797:fltk-1.3.4-1/png/pngtrans.c ****       (png_ptr->flags & PNG_FLAG_ROW_INIT) != 0)
 798:fltk-1.3.4-1/png/pngtrans.c ****    {
 799:fltk-1.3.4-1/png/pngtrans.c ****       png_app_error(png_ptr,
 800:fltk-1.3.4-1/png/pngtrans.c ****             "info change after png_start_read_image or png_read_update_info");
 801:fltk-1.3.4-1/png/pngtrans.c ****       return;
 802:fltk-1.3.4-1/png/pngtrans.c ****    }
 803:fltk-1.3.4-1/png/pngtrans.c **** #endif
 804:fltk-1.3.4-1/png/pngtrans.c **** 
 805:fltk-1.3.4-1/png/pngtrans.c ****    png_ptr->user_transform_ptr = user_transform_ptr;
 1728              		.loc 1 805 4 is_stmt 1 view .LVU610
 1729              		.loc 1 805 32 is_stmt 0 view .LVU611
 1730 001b 4889B720 		movq	%rsi, 288(%rdi)
 1730      010000
 806:fltk-1.3.4-1/png/pngtrans.c ****    png_ptr->user_transform_depth = (png_byte)user_transform_depth;
 1731              		.loc 1 806 4 is_stmt 1 view .LVU612
 1732              		.loc 1 806 36 is_stmt 0 view .LVU613
 1733 0022 88972801 		movb	%dl, 296(%rdi)
 1733      0000
 807:fltk-1.3.4-1/png/pngtrans.c ****    png_ptr->user_transform_channels = (png_byte)user_transform_channels;
 1734              		.loc 1 807 4 is_stmt 1 view .LVU614
 1735              		.loc 1 807 39 is_stmt 0 view .LVU615
 1736 0028 888F2901 		movb	%cl, 297(%rdi)
 1736      0000
 1737              	.L210:
 808:fltk-1.3.4-1/png/pngtrans.c **** }
 1738              		.loc 1 808 1 view .LVU616
 1739 002e C3       		ret
 1740 002f 90       		.p2align 4,,10
 1741              		.p2align 3
 1742              	.L222:
 799:fltk-1.3.4-1/png/pngtrans.c ****             "info change after png_start_read_image or png_read_update_info");
 1743              		.loc 1 799 7 is_stmt 1 view .LVU617
 1744 0030 488D3500 		leaq	.LC2(%rip), %rsi
 1744      000000
 1745              	.LVL168:
 799:fltk-1.3.4-1/png/pngtrans.c ****             "info change after png_start_read_image or png_read_update_info");
 1746              		.loc 1 799 7 is_stmt 0 view .LVU618
 1747 0037 E9000000 		jmp	png_app_error@PLT
 1747      00
 1748              	.LVL169:
 799:fltk-1.3.4-1/png/pngtrans.c ****             "info change after png_start_read_image or png_read_update_info");
 1749              		.loc 1 799 7 view .LVU619
 1750              		.cfi_endproc
 1751              	.LFE58:
 1753              		.section	.text.png_get_user_transform_ptr,"ax",@progbits
 1754              		.p2align 4
 1755              		.globl	png_get_user_transform_ptr
 1757              	png_get_user_transform_ptr:
 1758              	.LVL170:
 1759              	.LFB59:
 809:fltk-1.3.4-1/png/pngtrans.c **** #endif
 810:fltk-1.3.4-1/png/pngtrans.c **** 
 811:fltk-1.3.4-1/png/pngtrans.c **** /* This function returns a pointer to the user_transform_ptr associated with
 812:fltk-1.3.4-1/png/pngtrans.c ****  * the user transform functions.  The application should free any memory
 813:fltk-1.3.4-1/png/pngtrans.c ****  * associated with this pointer before png_write_destroy and png_read_destroy
 814:fltk-1.3.4-1/png/pngtrans.c ****  * are called.
 815:fltk-1.3.4-1/png/pngtrans.c ****  */
 816:fltk-1.3.4-1/png/pngtrans.c **** #ifdef PNG_USER_TRANSFORM_PTR_SUPPORTED
 817:fltk-1.3.4-1/png/pngtrans.c **** png_voidp PNGAPI
 818:fltk-1.3.4-1/png/pngtrans.c **** png_get_user_transform_ptr(png_const_structrp png_ptr)
 819:fltk-1.3.4-1/png/pngtrans.c **** {
 1760              		.loc 1 819 1 is_stmt 1 view -0
 1761              		.cfi_startproc
 1762              		.loc 1 819 1 is_stmt 0 view .LVU621
 1763 0000 F30F1EFA 		endbr64
 820:fltk-1.3.4-1/png/pngtrans.c ****    if (png_ptr == NULL)
 1764              		.loc 1 820 4 is_stmt 1 view .LVU622
 1765              		.loc 1 820 7 is_stmt 0 view .LVU623
 1766 0004 4885FF   		testq	%rdi, %rdi
 1767 0007 740F     		je	.L225
 821:fltk-1.3.4-1/png/pngtrans.c ****       return (NULL);
 822:fltk-1.3.4-1/png/pngtrans.c **** 
 823:fltk-1.3.4-1/png/pngtrans.c ****    return png_ptr->user_transform_ptr;
 1768              		.loc 1 823 4 is_stmt 1 view .LVU624
 1769              		.loc 1 823 18 is_stmt 0 view .LVU625
 1770 0009 488B8720 		movq	288(%rdi), %rax
 1770      010000
 1771 0010 C3       		ret
 1772              		.p2align 4,,10
 1773 0011 0F1F8000 		.p2align 3
 1773      000000
 1774              	.L225:
 821:fltk-1.3.4-1/png/pngtrans.c ****       return (NULL);
 1775              		.loc 1 821 14 view .LVU626
 1776 0018 31C0     		xorl	%eax, %eax
 824:fltk-1.3.4-1/png/pngtrans.c **** }
 1777              		.loc 1 824 1 view .LVU627
 1778 001a C3       		ret
 1779              		.cfi_endproc
 1780              	.LFE59:
 1782              		.section	.text.png_get_current_row_number,"ax",@progbits
 1783              		.p2align 4
 1784              		.globl	png_get_current_row_number
 1786              	png_get_current_row_number:
 1787              	.LVL171:
 1788              	.LFB60:
 825:fltk-1.3.4-1/png/pngtrans.c **** #endif
 826:fltk-1.3.4-1/png/pngtrans.c **** 
 827:fltk-1.3.4-1/png/pngtrans.c **** #ifdef PNG_USER_TRANSFORM_INFO_SUPPORTED
 828:fltk-1.3.4-1/png/pngtrans.c **** png_uint_32 PNGAPI
 829:fltk-1.3.4-1/png/pngtrans.c **** png_get_current_row_number(png_const_structrp png_ptr)
 830:fltk-1.3.4-1/png/pngtrans.c **** {
 1789              		.loc 1 830 1 is_stmt 1 view -0
 1790              		.cfi_startproc
 1791              		.loc 1 830 1 is_stmt 0 view .LVU629
 1792 0000 F30F1EFA 		endbr64
 831:fltk-1.3.4-1/png/pngtrans.c ****    /* See the comments in png.h - this is the sub-image row when reading an
 832:fltk-1.3.4-1/png/pngtrans.c ****     * interlaced image.
 833:fltk-1.3.4-1/png/pngtrans.c ****     */
 834:fltk-1.3.4-1/png/pngtrans.c ****    if (png_ptr != NULL)
 1793              		.loc 1 834 4 is_stmt 1 view .LVU630
 835:fltk-1.3.4-1/png/pngtrans.c ****       return png_ptr->row_number;
 836:fltk-1.3.4-1/png/pngtrans.c **** 
 837:fltk-1.3.4-1/png/pngtrans.c ****    return PNG_UINT_32_MAX; /* help the app not to fail silently */
 1794              		.loc 1 837 11 is_stmt 0 view .LVU631
 1795 0004 B8FFFFFF 		movl	$-1, %eax
 1795      FF
 834:fltk-1.3.4-1/png/pngtrans.c ****       return png_ptr->row_number;
 1796              		.loc 1 834 7 view .LVU632
 1797 0009 4885FF   		testq	%rdi, %rdi
 1798 000c 7406     		je	.L226
 835:fltk-1.3.4-1/png/pngtrans.c ****       return png_ptr->row_number;
 1799              		.loc 1 835 7 is_stmt 1 view .LVU633
 835:fltk-1.3.4-1/png/pngtrans.c ****       return png_ptr->row_number;
 1800              		.loc 1 835 21 is_stmt 0 view .LVU634
 1801 000e 8B871402 		movl	532(%rdi), %eax
 1801      0000
 1802              	.L226:
 838:fltk-1.3.4-1/png/pngtrans.c **** }
 1803              		.loc 1 838 1 view .LVU635
 1804 0014 C3       		ret
 1805              		.cfi_endproc
 1806              	.LFE60:
 1808              		.section	.text.png_get_current_pass_number,"ax",@progbits
 1809              		.p2align 4
 1810              		.globl	png_get_current_pass_number
 1812              	png_get_current_pass_number:
 1813              	.LVL172:
 1814              	.LFB61:
 839:fltk-1.3.4-1/png/pngtrans.c **** 
 840:fltk-1.3.4-1/png/pngtrans.c **** png_byte PNGAPI
 841:fltk-1.3.4-1/png/pngtrans.c **** png_get_current_pass_number(png_const_structrp png_ptr)
 842:fltk-1.3.4-1/png/pngtrans.c **** {
 1815              		.loc 1 842 1 is_stmt 1 view -0
 1816              		.cfi_startproc
 1817              		.loc 1 842 1 is_stmt 0 view .LVU637
 1818 0000 F30F1EFA 		endbr64
 843:fltk-1.3.4-1/png/pngtrans.c ****    if (png_ptr != NULL)
 1819              		.loc 1 843 4 is_stmt 1 view .LVU638
 844:fltk-1.3.4-1/png/pngtrans.c ****       return png_ptr->pass;
 845:fltk-1.3.4-1/png/pngtrans.c ****    return 8; /* invalid */
 1820              		.loc 1 845 11 is_stmt 0 view .LVU639
 1821 0004 B8080000 		movl	$8, %eax
 1821      00
 843:fltk-1.3.4-1/png/pngtrans.c ****    if (png_ptr != NULL)
 1822              		.loc 1 843 7 view .LVU640
 1823 0009 4885FF   		testq	%rdi, %rdi
 1824 000c 7407     		je	.L230
 844:fltk-1.3.4-1/png/pngtrans.c ****       return png_ptr->pass;
 1825              		.loc 1 844 7 is_stmt 1 view .LVU641
 844:fltk-1.3.4-1/png/pngtrans.c ****       return png_ptr->pass;
 1826              		.loc 1 844 21 is_stmt 0 view .LVU642
 1827 000e 0FB68775 		movzbl	629(%rdi), %eax
 1827      020000
 1828              	.L230:
 846:fltk-1.3.4-1/png/pngtrans.c **** }
 1829              		.loc 1 846 1 view .LVU643
 1830 0015 C3       		ret
 1831              		.cfi_endproc
 1832              	.LFE61:
 1834              		.section	.rodata.fourbppswaptable,"a"
 1835              		.align 32
 1838              	fourbppswaptable:
 1839 0000 00       		.string	""
 1840 0001 10203040 		.ascii	"\020 0@P`p\200\220\240\260\300\320\340\360\001\021!1AQaq\201"
 1840      50607080 
 1840      90A0B0C0 
 1840      D0E0F001 
 1840      11213141 
 1841 0019 91A1B1C1 		.ascii	"\221\241\261\301\321\341\361\002\022\"2BRbr\202\222\242\262\302"
 1841      D1E1F102 
 1841      12223242 
 1841      52627282 
 1841      92A2B2C2 
 1842 002d D2E2F203 		.ascii	"\322\342\362\003\023#3CScs\203\223\243\263\303\323\343\363\004"
 1842      13233343 
 1842      53637383 
 1842      93A3B3C3 
 1842      D3E3F304 
 1843 0041 14243444 		.ascii	"\024$4DTdt\204\224\244\264\304\324\344\364\005\025%5EUeu\205"
 1843      54647484 
 1843      94A4B4C4 
 1843      D4E4F405 
 1843      15253545 
 1844 0059 95A5B5C5 		.ascii	"\225\245\265\305\325\345\365\006\026&6FVfv\206\226\246\266\306"
 1844      D5E5F506 
 1844      16263646 
 1844      56667686 
 1844      96A6B6C6 
 1845 006d D6E6F607 		.ascii	"\326\346\366\007\027'7GWgw\207\227\247\267\307\327\347\367\b"
 1845      17273747 
 1845      57677787 
 1845      97A7B7C7 
 1845      D7E7F708 
 1846 0081 18283848 		.ascii	"\030(8HXhx\210\230\250\270\310\330\350\370\t\031)9IYiy\211\231"
 1846      58687888 
 1846      98A8B8C8 
 1846      D8E8F809 
 1846      19293949 
 1847 009a A9B9C9D9 		.ascii	"\251\271\311\331\351\371\n\032*:JZjz\212\232\252\272\312\332"
 1847      E9F90A1A 
 1847      2A3A4A5A 
 1847      6A7A8A9A 
 1847      AABACADA 
 1848 00ae EAFA0B1B 		.ascii	"\352\372\013\033+;K[k{\213\233\253\273\313\333\353\373\f\034"
 1848      2B3B4B5B 
 1848      6B7B8B9B 
 1848      ABBBCBDB 
 1848      EBFB0C1C 
 1849 00c2 2C3C4C5C 		.ascii	",<L\\l|\214\234\254\274\314\334\354\374\r\035-=M]m}\215\235\255"
 1849      6C7C8C9C 
 1849      ACBCCCDC 
 1849      ECFC0D1D 
 1849      2D3D4D5D 
 1850 00db BDCDDDED 		.ascii	"\275\315\335\355\375\016\036.>N^n~\216\236\256\276\316\336\356"
 1850      FD0E1E2E 
 1850      3E4E5E6E 
 1850      7E8E9EAE 
 1850      BECEDEEE 
 1851 00ef FE0F1F2F 		.ascii	"\376\017\037/?O_o\177\217\237\257\277\317\337\357\377"
 1851      3F4F5F6F 
 1851      7F8F9FAF 
 1851      BFCFDFEF 
 1851      FF
 1852              		.section	.rodata.twobppswaptable,"a"
 1853              		.align 32
 1856              	twobppswaptable:
 1857 0000 00       		.string	""
 1858 0001 4080C010 		.ascii	"@\200\300\020P\220\320 `\240\3400p\260\360\004D\204\304\024T"
 1858      5090D020 
 1858      60A0E030 
 1858      70B0F004 
 1858      4484C414 
 1859 0016 94D42464 		.ascii	"\224\324$d\244\3444t\264\364\bH\210\310\030X\230\330(h\250\350"
 1859      A4E43474 
 1859      B4F40848 
 1859      88C81858 
 1859      98D82868 
 1860 002c 3878B8F8 		.ascii	"8x\270\370\fL\214\314\034\\\234\334,l\254\354<|\274\374\001A"
 1860      0C4C8CCC 
 1860      1C5C9CDC 
 1860      2C6CACEC 
 1860      3C7CBCFC 
 1861 0042 81C11151 		.ascii	"\201\301\021Q\221\321!a\241\3411q\261\361\005E\205\305\025U\225"
 1861      91D12161 
 1861      A1E13171 
 1861      B1F10545 
 1861      85C51555 
 1862 0057 D52565A5 		.ascii	"\325%e\245\3455u\265\365\tI\211\311\031Y\231\331)i\251\3519y"
 1862      E53575B5 
 1862      F5094989 
 1862      C9195999 
 1862      D92969A9 
 1863 006e B9F90D4D 		.ascii	"\271\371\rM\215\315\035]\235\335-m\255\355=}\275\375\002B\202"
 1863      8DCD1D5D 
 1863      9DDD2D6D 
 1863      ADED3D7D 
 1863      BDFD0242 
 1864 0083 C2125292 		.ascii	"\302\022R\222\322\"b\242\3422r\262\362\006F\206\306\026V\226"
 1864      D22262A2 
 1864      E23272B2 
 1864      F2064686 
 1864      C6165696 
 1865 0097 D62666A6 		.ascii	"\326&f\246\3466v\266\366\nJ\212\312\032Z\232\332*j\252\352:z"
 1865      E63676B6 
 1865      F60A4A8A 
 1865      CA1A5A9A 
 1865      DA2A6AAA 
 1866 00ae BAFA0E4E 		.ascii	"\272\372\016N\216\316\036^\236\336.n\256\356>~\276\376\003C\203"
 1866      8ECE1E5E 
 1866      9EDE2E6E 
 1866      AEEE3E7E 
 1866      BEFE0343 
 1867 00c3 C3135393 		.ascii	"\303\023S\223\323#c\243\3433s\263\363\007G\207\307\027W\227\327"
 1867      D32363A3 
 1867      E33373B3 
 1867      F3074787 
 1867      C7175797 
 1868 00d8 2767A7E7 		.ascii	"'g\247\3477w\267\367\013K\213\313\033[\233\333+k\253\353;{\273"
 1868      3777B7F7 
 1868      0B4B8BCB 
 1868      1B5B9BDB 
 1868      2B6BABEB 
 1869 00ef FB0F4F8F 		.ascii	"\373\017O\217\317\037_\237\337/o\257\357?\177\277\377"
 1869      CF1F5F9F 
 1869      DF2F6FAF 
 1869      EF3F7FBF 
 1869      FF
 1870              		.section	.rodata.onebppswaptable,"a"
 1871              		.align 32
 1874              	onebppswaptable:
 1875 0000 00       		.string	""
 1876 0001 8040C020 		.ascii	"\200@\300 \240`\340\020\220P\3200\260p\360\b\210H\310(\250h\350"
 1876      A060E010 
 1876      9050D030 
 1876      B070F008 
 1876      8848C828 
 1877 0018 189858D8 		.ascii	"\030\230X\3308\270x\370\004\204D\304$\244d\344\024\224T\3244"
 1877      38B878F8 
 1877      048444C4 
 1877      24A464E4 
 1877      149454D4 
 1878 002d B474F40C 		.ascii	"\264t\364\f\214L\314,\254l\354\034\234\\\334<\274|\374\002\202"
 1878      8C4CCC2C 
 1878      AC6CEC1C 
 1878      9C5CDC3C 
 1878      BC7CFC02 
 1879 0042 42C222A2 		.ascii	"B\302\"\242b\342\022\222R\3222\262r\362\n\212J\312*\252j\352"
 1879      62E21292 
 1879      52D232B2 
 1879      72F20A8A 
 1879      4ACA2AAA 
 1880 0058 1A9A5ADA 		.ascii	"\032\232Z\332:\272z\372\006\206F\306&\246f\346\026\226V\3266"
 1880      3ABA7AFA 
 1880      068646C6 
 1880      26A666E6 
 1880      169656D6 
 1881 006d B676F60E 		.ascii	"\266v\366\016\216N\316.\256n\356\036\236^\336>\276~\376\001\201"
 1881      8E4ECE2E 
 1881      AE6EEE1E 
 1881      9E5EDE3E 
 1881      BE7EFE01 
 1882 0082 41C121A1 		.ascii	"A\301!\241a\341\021\221Q\3211\261q\361\t\211I\311)\251i\351\031"
 1882      61E11191 
 1882      51D131B1 
 1882      71F10989 
 1882      49C929A9 
 1883 0099 9959D939 		.ascii	"\231Y\3319\271y\371\005\205E\305%\245e\345\025\225U\3255\265"
 1883      B979F905 
 1883      8545C525 
 1883      A565E515 
 1883      9555D535 
 1884 00ae 75F50D8D 		.ascii	"u\365\r\215M\315-\255m\355\035\235]\335=\275}\375\003\203C\303"
 1884      4DCD2DAD 
 1884      6DED1D9D 
 1884      5DDD3DBD 
 1884      7DFD0383 
 1885 00c4 23A363E3 		.ascii	"#\243c\343\023\223S\3233\263s\363\013\213K\313+\253k\353\033"
 1885      139353D3 
 1885      33B373F3 
 1885      0B8B4BCB 
 1885      2BAB6BEB 
 1886 00d9 9B5BDB3B 		.ascii	"\233[\333;\273{\373\007\207G\307'\247g\347\027\227W\3277\267"
 1886      BB7BFB07 
 1886      8747C727 
 1886      A767E717 
 1886      9757D737 
 1887 00ee 77F70F8F 		.ascii	"w\367\017\217O\317/\257o\357\037\237_\337?\277\177\377"
 1887      4FCF2FAF 
 1887      6FEF1F9F 
 1887      5FDF3FBF 
 1887      7FFF
 1888              		.text
 1889              	.Letext0:
 1890              		.file 2 "/usr/lib/gcc/x86_64-linux-gnu/9/include/stddef.h"
 1891              		.file 3 "/usr/include/x86_64-linux-gnu/bits/types.h"
 1892              		.file 4 "/usr/include/x86_64-linux-gnu/bits/types/struct_FILE.h"
 1893              		.file 5 "/usr/include/x86_64-linux-gnu/bits/types/FILE.h"
 1894              		.file 6 "/usr/include/stdio.h"
 1895              		.file 7 "/usr/include/x86_64-linux-gnu/bits/setjmp.h"
 1896              		.file 8 "/usr/include/x86_64-linux-gnu/bits/types/__sigset_t.h"
 1897              		.file 9 "/usr/include/setjmp.h"
 1898              		.file 10 "/usr/include/time.h"
 1899              		.file 11 "fltk-1.3.4-1/png/pngconf.h"
 1900              		.file 12 "fltk-1.3.4-1/png/png.h"
 1901              		.file 13 "fltk-1.3.4-1/png/pngstruct.h"
 1902              		.file 14 "fltk-1.3.4-1/png/pnginfo.h"
 1903              		.file 15 "/usr/include/zconf.h"
 1904              		.file 16 "/usr/include/unistd.h"
 1905              		.file 17 "/usr/include/x86_64-linux-gnu/bits/getopt_core.h"
 1906              		.file 18 "/usr/include/zlib.h"
 1907              		.file 19 "fltk-1.3.4-1/png/pngpriv.h"
 22651              		.section	.note.gnu.property,"a"
 22652              		.align 8
 22653 0000 04000000 		.long	 1f - 0f
 22654 0004 10000000 		.long	 4f - 1f
 22655 0008 05000000 		.long	 5
 22656              	0:
 22657 000c 474E5500 		.string	 "GNU"
 22658              	1:
 22659              		.align 8
 22660 0010 020000C0 		.long	 0xc0000002
 22661 0014 04000000 		.long	 3f - 2f
 22662              	2:
 22663 0018 03000000 		.long	 0x3
 22664              	3:
 22665 001c 00000000 		.align 8
 22666              	4:
DEFINED SYMBOLS
                            *ABS*:0000000000000000 pngtrans.c
     /tmp/cczZiG2j.s:8      .text.png_set_bgr:0000000000000000 png_set_bgr
     /tmp/cczZiG2j.s:34     .text.png_set_swap:0000000000000000 png_set_swap
     /tmp/cczZiG2j.s:68     .text.png_set_packing:0000000000000000 png_set_packing
     /tmp/cczZiG2j.s:100    .text.png_set_packswap:0000000000000000 png_set_packswap
     /tmp/cczZiG2j.s:129    .text.png_set_shift:0000000000000000 png_set_shift
     /tmp/cczZiG2j.s:161    .text.png_set_interlace_handling:0000000000000000 png_set_interlace_handling
     /tmp/cczZiG2j.s:206    .text.png_set_filler:0000000000000000 png_set_filler
     /tmp/cczZiG2j.s:304    .text.png_set_add_alpha:0000000000000000 png_set_add_alpha
     /tmp/cczZiG2j.s:355    .text.png_set_swap_alpha:0000000000000000 png_set_swap_alpha
     /tmp/cczZiG2j.s:380    .text.png_set_invert_alpha:0000000000000000 png_set_invert_alpha
     /tmp/cczZiG2j.s:405    .text.png_set_invert_mono:0000000000000000 png_set_invert_mono
     /tmp/cczZiG2j.s:430    .text.png_do_invert:0000000000000000 png_do_invert
     /tmp/cczZiG2j.s:578    .text.png_do_swap:0000000000000000 png_do_swap
     /tmp/cczZiG2j.s:654    .text.png_do_packswap:0000000000000000 png_do_packswap
     /tmp/cczZiG2j.s:1838   .rodata.fourbppswaptable:0000000000000000 fourbppswaptable
     /tmp/cczZiG2j.s:1874   .rodata.onebppswaptable:0000000000000000 onebppswaptable
     /tmp/cczZiG2j.s:1856   .rodata.twobppswaptable:0000000000000000 twobppswaptable
     /tmp/cczZiG2j.s:745    .text.png_do_strip_channel:0000000000000000 png_do_strip_channel
     /tmp/cczZiG2j.s:1126   .text.png_do_bgr:0000000000000000 png_do_bgr
     /tmp/cczZiG2j.s:1389   .text.png_do_check_palette_indexes:0000000000000000 png_do_check_palette_indexes
     /tmp/cczZiG2j.s:1708   .text.png_set_user_transform_info:0000000000000000 png_set_user_transform_info
     /tmp/cczZiG2j.s:1757   .text.png_get_user_transform_ptr:0000000000000000 png_get_user_transform_ptr
     /tmp/cczZiG2j.s:1786   .text.png_get_current_row_number:0000000000000000 png_get_current_row_number
     /tmp/cczZiG2j.s:1812   .text.png_get_current_pass_number:0000000000000000 png_get_current_pass_number
     /tmp/cczZiG2j.s:200    .rodata.png_set_filler.str1.8:0000000000000038 .LC1
     /tmp/cczZiG2j.s:197    .rodata.png_set_filler.str1.8:0000000000000000 .LC0
     /tmp/cczZiG2j.s:1702   .rodata.png_set_user_transform_info.str1.8:0000000000000000 .LC2
                           .group:0000000000000000 wm4.0.a6b23a418548ac0bda5d8549c4a2ec91
                           .group:0000000000000000 wm4.stdcpredef.h.19.8dc41bed5d9037ff9622e015fb5f0ce3
                           .group:0000000000000000 wm4.pngpriv.h.26.ca3d1719773cd86007410b516123e125
                           .group:0000000000000000 wm4.features.h.19.320b3bf3f3d04eccd55afd968f1ea5b2
                           .group:0000000000000000 wm4.cdefs.h.19.98d80eddbb3f64f4f30cd9aee9c5593c
                           .group:0000000000000000 wm4.wordsize.h.4.baf119258a1e53d8dba67ceac44ab6bc
                           .group:0000000000000000 wm4.cdefs.h.475.fb75d2e4416aa349344e6f45f683bf28
                           .group:0000000000000000 wm4.stubs64.h.10.6ce4c34010988db072c080326a6b6319
                           .group:0000000000000000 wm4.libcheaderstart.h.37.d9274df4cc0172452960ad9644fa5579
                           .group:0000000000000000 wm4.stdlib.h.28.2cffa49d94c5d85f4538f55f7b59771d
                           .group:0000000000000000 wm4.stddef.h.181.13772e73e5434e8cc4fafaaddad2b5da
                           .group:0000000000000000 wm4.floatn.h.20.80c7cf8a8dfad237004b28d051d5afda
                           .group:0000000000000000 wm4.floatncommon.h.34.7e1840d7dfb19e9bdb51aeb077d76637
                           .group:0000000000000000 wm4.stdlib.h.71.39700ac5536cfafa1b6db501afc46864
                           .group:0000000000000000 wm4.string.h.23.93403f89af7dba8212345449bb14b09d
                           .group:0000000000000000 wm4.libcheaderstart.h.31.87b3c285aeba93fe355ad19123070832
                           .group:0000000000000000 wm4.string.h.31.e39a94e203ad4e1d978c0fc68ce016ee
                           .group:0000000000000000 wm4.stddef.h.231.8136eebbab3406dbf57a7ec475dd5d83
                           .group:0000000000000000 wm4.pnglibconf.h.15.30e2eea90e566ac06da4f4de487193d7
                           .group:0000000000000000 wm4.pngpriv.h.130.f65d93453b5b5837849611ffe82d627a
                           .group:0000000000000000 wm4.png.h.412.12a95b2193a7d0bc2282b72c70a28ce1
                           .group:0000000000000000 wm4.limits.h.23.3c23ae3e8f372a0298be6ce978307bc7
                           .group:0000000000000000 wm4.limits.h.32.6a1c51cbc8834927c9b529a347d7b23f
                           .group:0000000000000000 wm4.posix1_lim.h.32.858fce26e105c5c0f681b222378d5883
                           .group:0000000000000000 wm4.local_lim.h.25.97ee4129efb08ad296101237bcd3401b
                           .group:0000000000000000 wm4.limits.h.3.0a3ae0fffe30e22dfdd77ac2c1b1fbdd
                           .group:0000000000000000 wm4.local_lim.h.42.9dc3935e0e3b94e23cda247e4e39bd8b
                           .group:0000000000000000 wm4.posix2_lim.h.23.56b9c4f885cbac0b652f53ee56b244b1
                           .group:0000000000000000 wm4.limits.h.60.eb7066f861c8b8edc7a0a399744b0335
                           .group:0000000000000000 wm4.stddef.h.39.1bfffcccc3897d82880a055878218da6
                           .group:0000000000000000 wm4.stdio.h.24.5c1b97eef3c86b7a2549420f69f4f128
                           .group:0000000000000000 wm4.stdio.h.31.e39a94e203ad4e1d978c0fc68ce016ee
                           .group:0000000000000000 wm4.stddef.h.155.ba788add86a0e365f264484f110c3c29
                           .group:0000000000000000 wm4.stdarg.h.34.3a23a216c0c293b3d2ea2e89281481e6
                           .group:0000000000000000 wm4.types.h.109.56eb9ae966b255288cc544f18746a7ff
                           .group:0000000000000000 wm4.typesizes.h.24.2c64f817c0dc4b6fb2a2c619d717be26
                           .group:0000000000000000 wm4.time64.h.24.a8166ae916ec910dab0d8987098d42ee
                           .group:0000000000000000 wm4.struct_FILE.h.19.0888ac70396abe1031c03d393554032f
                           .group:0000000000000000 wm4.stdio.h.93.0122ffbd02ddfe34dfaf44a2e3561c5b
                           .group:0000000000000000 wm4.stdio_lim.h.19.86760ef34d2b7513aac6ce30cb73c6f8
                           .group:0000000000000000 wm4.stdio.h.141.d7a290e19ca077c9e4aa7c43ede17a73
                           .group:0000000000000000 wm4.stdio.h.20.38f8a7cea5a7dfe0d9ad992f7c8483f3
                           .group:0000000000000000 wm4.__sigset_t.h.2.6b1ab6ff3d7b8fd9c0c42b0d80afbd80
                           .group:0000000000000000 wm4.setjmp.h.62.5655e5632e7855e400222c83408ceb1d
                           .group:0000000000000000 wm4.time.h.23.18ede267f3a48794bef4705df80339de
                           .group:0000000000000000 wm4.time.h.24.57e6945634c11c9a0e367d020f81b7cf
                           .group:0000000000000000 wm4.endian.h.20.efabd1018df5d7b4052c27dc6bdd5ce5
                           .group:0000000000000000 wm4.endianness.h.2.2c6a211f7909f3af5e9e9cfa3b6b63c8
                           .group:0000000000000000 wm4.endian.h.40.9e5d395adda2f4eb53ae69b69b664084
                           .group:0000000000000000 wm4.pngconf.h.86.6636b2584cb7be1618479e118d71e58c
                           .group:0000000000000000 wm4.png.h.506.fa53b6434c0b20c8e63094b04d7940c5
                           .group:0000000000000000 wm4.pngpriv.h.298.dc2c896ce0eddc5cfadee24e76e3c417
                           .group:0000000000000000 wm4.float.h.29.cae0b78251c51e3ff449cb238a29ed5b
                           .group:0000000000000000 wm4.math.h.26.671af5ac9cd425a35e0730f7b6d7cde2
                           .group:0000000000000000 wm4.math.h.24.808d6e83a8b3b11b5fa9117392e0d6ca
                           .group:0000000000000000 wm4.libmsimddeclstubs.h.34.4541d7d9ef23fb8c722872ed06b4fd48
                           .group:0000000000000000 wm4.math.h.48.5dafc6157c80230c0414aa9de5e109ba
                           .group:0000000000000000 wm4.fplogb.h.23.f264b61801f4cf347bed2d0fad7232d9
                           .group:0000000000000000 wm4.math.h.193.2a53c39a04fb9ee53d2145d0dd51922b
                           .group:0000000000000000 wm4.math.h.262.a3ec711e4bc2a8e48d58e73f7b61f7e6
                           .group:0000000000000000 wm4.math.h.291.31c5ea429e9ba79c95bf28566b299669
                           .group:0000000000000000 wm4.math.h.308.057dcf159b5c763b6f753ad19bd78a7c
                           .group:0000000000000000 wm4.math.h.351.d4dfe6acabbee9531318a05b7f2a0ebb
                           .group:0000000000000000 wm4.math.h.425.dd23fd9bd1a8b67c9cdacb96d25aa4cb
                           .group:0000000000000000 wm4.math.h.30.7cada3efe024725df2da4c705b6566be
                           .group:0000000000000000 wm4.pngpriv.h.481.f98e7c29eaaa759546a3f9808bc25c74
                           .group:0000000000000000 wm4.pngstruct.h.22.7b9573417641055ab8f42438aa8afadf
                           .group:0000000000000000 wm4.zconf.h.9.5d696d5ff537aa9e4334014200af587a
                           .group:0000000000000000 wm4.zconf.h.252.d660ed3b0952e518b3e109403eef37af
                           .group:0000000000000000 wm4.zconf.h.420.b3ba5ae58b852c80eba061279e8960fb
                           .group:0000000000000000 wm4.types.h.23.ad09b9000f4b9223ee132237184eff7f
                           .group:0000000000000000 wm4.types.h.171.9aecc81dc8df45ffba0c25c0647ef29f
                           .group:0000000000000000 wm4.pthreadtypesarch.h.25.6063cba99664c916e22d3a912bcc348a
                           .group:0000000000000000 wm4.struct_mutex.h.20.ed51f515172b9be99e450ba83eb5dd99
                           .group:0000000000000000 wm4.struct_rwlock.h.21.0254880f2904e3833fb8ae683e0f0330
                           .group:0000000000000000 wm4.stdarg.h.31.250806951830a1b6a3066ee41cf22414
                           .group:0000000000000000 wm4.unistd.h.23.9eac1fbc6e0a9aafe6a69df62b992db8
                           .group:0000000000000000 wm4.posix_opt.h.20.25edad97e3613a63f1969894ab33449b
                           .group:0000000000000000 wm4.unistd.h.210.b40c6c15db1d0b653f8dce03f258da9c
                           .group:0000000000000000 wm4.unistd.h.281.99c6c81af9cf38eab36ea34a36ce096b
                           .group:0000000000000000 wm4.confname.h.27.6b00117a32f457cc72e5ac810a9adade
                           .group:0000000000000000 wm4.zconf.h.480.490915782eb343cae7cfb06f78d23c62
                           .group:0000000000000000 wm4.zlib.h.40.096e6fa45bd4a30b5bc135e17c50b44d
                           .group:0000000000000000 wm4.pngstruct.h.44.bc957704556ff8ddcb697678a008ffae
                           .group:0000000000000000 wm4.pngpriv.h.853.4585af3e74cfb155d8486c5333b94adf
                           .group:0000000000000000 wm4.pngdebug.h.36.e9c57d5f35e3128225fb629498ec6fc8

UNDEFINED SYMBOLS
_GLOBAL_OFFSET_TABLE_
png_app_error
