   1              		.file	"pngwutil.c"
   2              		.text
   3              	.Ltext0:
   4              		.section	.text.png_image_size,"ax",@progbits
   5              		.p2align 4
   7              	png_image_size:
   8              	.LVL0:
   9              	.LFB50:
  10              		.file 1 "fltk-1.3.4-1/png/pngwutil.c"
   1:fltk-1.3.4-1/png/pngwutil.c **** 
   2:fltk-1.3.4-1/png/pngwutil.c **** /* pngwutil.c - utilities to write a PNG file
   3:fltk-1.3.4-1/png/pngwutil.c ****  *
   4:fltk-1.3.4-1/png/pngwutil.c ****  * Last changed in libpng 1.6.15 [November 20, 2014]
   5:fltk-1.3.4-1/png/pngwutil.c ****  * Copyright (c) 1998-2014 Glenn Randers-Pehrson
   6:fltk-1.3.4-1/png/pngwutil.c ****  * (Version 0.96 Copyright (c) 1996, 1997 Andreas Dilger)
   7:fltk-1.3.4-1/png/pngwutil.c ****  * (Version 0.88 Copyright (c) 1995, 1996 Guy Eric Schalnat, Group 42, Inc.)
   8:fltk-1.3.4-1/png/pngwutil.c ****  *
   9:fltk-1.3.4-1/png/pngwutil.c ****  * This code is released under the libpng license.
  10:fltk-1.3.4-1/png/pngwutil.c ****  * For conditions of distribution and use, see the disclaimer
  11:fltk-1.3.4-1/png/pngwutil.c ****  * and license in png.h
  12:fltk-1.3.4-1/png/pngwutil.c ****  */
  13:fltk-1.3.4-1/png/pngwutil.c **** 
  14:fltk-1.3.4-1/png/pngwutil.c **** #include "pngpriv.h"
  15:fltk-1.3.4-1/png/pngwutil.c **** 
  16:fltk-1.3.4-1/png/pngwutil.c **** #ifdef PNG_WRITE_SUPPORTED
  17:fltk-1.3.4-1/png/pngwutil.c **** 
  18:fltk-1.3.4-1/png/pngwutil.c **** #ifdef PNG_WRITE_INT_FUNCTIONS_SUPPORTED
  19:fltk-1.3.4-1/png/pngwutil.c **** /* Place a 32-bit number into a buffer in PNG byte order.  We work
  20:fltk-1.3.4-1/png/pngwutil.c ****  * with unsigned numbers for convenience, although one supported
  21:fltk-1.3.4-1/png/pngwutil.c ****  * ancillary chunk uses signed (two's complement) numbers.
  22:fltk-1.3.4-1/png/pngwutil.c ****  */
  23:fltk-1.3.4-1/png/pngwutil.c **** void PNGAPI
  24:fltk-1.3.4-1/png/pngwutil.c **** png_save_uint_32(png_bytep buf, png_uint_32 i)
  25:fltk-1.3.4-1/png/pngwutil.c **** {
  26:fltk-1.3.4-1/png/pngwutil.c ****    buf[0] = (png_byte)((i >> 24) & 0xff);
  27:fltk-1.3.4-1/png/pngwutil.c ****    buf[1] = (png_byte)((i >> 16) & 0xff);
  28:fltk-1.3.4-1/png/pngwutil.c ****    buf[2] = (png_byte)((i >> 8) & 0xff);
  29:fltk-1.3.4-1/png/pngwutil.c ****    buf[3] = (png_byte)(i & 0xff);
  30:fltk-1.3.4-1/png/pngwutil.c **** }
  31:fltk-1.3.4-1/png/pngwutil.c **** 
  32:fltk-1.3.4-1/png/pngwutil.c **** /* Place a 16-bit number into a buffer in PNG byte order.
  33:fltk-1.3.4-1/png/pngwutil.c ****  * The parameter is declared unsigned int, not png_uint_16,
  34:fltk-1.3.4-1/png/pngwutil.c ****  * just to avoid potential problems on pre-ANSI C compilers.
  35:fltk-1.3.4-1/png/pngwutil.c ****  */
  36:fltk-1.3.4-1/png/pngwutil.c **** void PNGAPI
  37:fltk-1.3.4-1/png/pngwutil.c **** png_save_uint_16(png_bytep buf, unsigned int i)
  38:fltk-1.3.4-1/png/pngwutil.c **** {
  39:fltk-1.3.4-1/png/pngwutil.c ****    buf[0] = (png_byte)((i >> 8) & 0xff);
  40:fltk-1.3.4-1/png/pngwutil.c ****    buf[1] = (png_byte)(i & 0xff);
  41:fltk-1.3.4-1/png/pngwutil.c **** }
  42:fltk-1.3.4-1/png/pngwutil.c **** #endif
  43:fltk-1.3.4-1/png/pngwutil.c **** 
  44:fltk-1.3.4-1/png/pngwutil.c **** /* Simple function to write the signature.  If we have already written
  45:fltk-1.3.4-1/png/pngwutil.c ****  * the magic bytes of the signature, or more likely, the PNG stream is
  46:fltk-1.3.4-1/png/pngwutil.c ****  * being embedded into another stream and doesn't need its own signature,
  47:fltk-1.3.4-1/png/pngwutil.c ****  * we should call png_set_sig_bytes() to tell libpng how many of the
  48:fltk-1.3.4-1/png/pngwutil.c ****  * bytes have already been written.
  49:fltk-1.3.4-1/png/pngwutil.c ****  */
  50:fltk-1.3.4-1/png/pngwutil.c **** void PNGAPI
  51:fltk-1.3.4-1/png/pngwutil.c **** png_write_sig(png_structrp png_ptr)
  52:fltk-1.3.4-1/png/pngwutil.c **** {
  53:fltk-1.3.4-1/png/pngwutil.c ****    png_byte png_signature[8] = {137, 80, 78, 71, 13, 10, 26, 10};
  54:fltk-1.3.4-1/png/pngwutil.c **** 
  55:fltk-1.3.4-1/png/pngwutil.c **** #ifdef PNG_IO_STATE_SUPPORTED
  56:fltk-1.3.4-1/png/pngwutil.c ****    /* Inform the I/O callback that the signature is being written */
  57:fltk-1.3.4-1/png/pngwutil.c ****    png_ptr->io_state = PNG_IO_WRITING | PNG_IO_SIGNATURE;
  58:fltk-1.3.4-1/png/pngwutil.c **** #endif
  59:fltk-1.3.4-1/png/pngwutil.c **** 
  60:fltk-1.3.4-1/png/pngwutil.c ****    /* Write the rest of the 8 byte signature */
  61:fltk-1.3.4-1/png/pngwutil.c ****    png_write_data(png_ptr, &png_signature[png_ptr->sig_bytes],
  62:fltk-1.3.4-1/png/pngwutil.c ****       (png_size_t)(8 - png_ptr->sig_bytes));
  63:fltk-1.3.4-1/png/pngwutil.c **** 
  64:fltk-1.3.4-1/png/pngwutil.c ****    if (png_ptr->sig_bytes < 3)
  65:fltk-1.3.4-1/png/pngwutil.c ****       png_ptr->mode |= PNG_HAVE_PNG_SIGNATURE;
  66:fltk-1.3.4-1/png/pngwutil.c **** }
  67:fltk-1.3.4-1/png/pngwutil.c **** 
  68:fltk-1.3.4-1/png/pngwutil.c **** /* Write the start of a PNG chunk.  The type is the chunk type.
  69:fltk-1.3.4-1/png/pngwutil.c ****  * The total_length is the sum of the lengths of all the data you will be
  70:fltk-1.3.4-1/png/pngwutil.c ****  * passing in png_write_chunk_data().
  71:fltk-1.3.4-1/png/pngwutil.c ****  */
  72:fltk-1.3.4-1/png/pngwutil.c **** static void
  73:fltk-1.3.4-1/png/pngwutil.c **** png_write_chunk_header(png_structrp png_ptr, png_uint_32 chunk_name,
  74:fltk-1.3.4-1/png/pngwutil.c ****     png_uint_32 length)
  75:fltk-1.3.4-1/png/pngwutil.c **** {
  76:fltk-1.3.4-1/png/pngwutil.c ****    png_byte buf[8];
  77:fltk-1.3.4-1/png/pngwutil.c **** 
  78:fltk-1.3.4-1/png/pngwutil.c **** #if defined(PNG_DEBUG) && (PNG_DEBUG > 0)
  79:fltk-1.3.4-1/png/pngwutil.c ****    PNG_CSTRING_FROM_CHUNK(buf, chunk_name);
  80:fltk-1.3.4-1/png/pngwutil.c ****    png_debug2(0, "Writing %s chunk, length = %lu", buf, (unsigned long)length);
  81:fltk-1.3.4-1/png/pngwutil.c **** #endif
  82:fltk-1.3.4-1/png/pngwutil.c **** 
  83:fltk-1.3.4-1/png/pngwutil.c ****    if (png_ptr == NULL)
  84:fltk-1.3.4-1/png/pngwutil.c ****       return;
  85:fltk-1.3.4-1/png/pngwutil.c **** 
  86:fltk-1.3.4-1/png/pngwutil.c **** #ifdef PNG_IO_STATE_SUPPORTED
  87:fltk-1.3.4-1/png/pngwutil.c ****    /* Inform the I/O callback that the chunk header is being written.
  88:fltk-1.3.4-1/png/pngwutil.c ****     * PNG_IO_CHUNK_HDR requires a single I/O call.
  89:fltk-1.3.4-1/png/pngwutil.c ****     */
  90:fltk-1.3.4-1/png/pngwutil.c ****    png_ptr->io_state = PNG_IO_WRITING | PNG_IO_CHUNK_HDR;
  91:fltk-1.3.4-1/png/pngwutil.c **** #endif
  92:fltk-1.3.4-1/png/pngwutil.c **** 
  93:fltk-1.3.4-1/png/pngwutil.c ****    /* Write the length and the chunk name */
  94:fltk-1.3.4-1/png/pngwutil.c ****    png_save_uint_32(buf, length);
  95:fltk-1.3.4-1/png/pngwutil.c ****    png_save_uint_32(buf + 4, chunk_name);
  96:fltk-1.3.4-1/png/pngwutil.c ****    png_write_data(png_ptr, buf, 8);
  97:fltk-1.3.4-1/png/pngwutil.c **** 
  98:fltk-1.3.4-1/png/pngwutil.c ****    /* Put the chunk name into png_ptr->chunk_name */
  99:fltk-1.3.4-1/png/pngwutil.c ****    png_ptr->chunk_name = chunk_name;
 100:fltk-1.3.4-1/png/pngwutil.c **** 
 101:fltk-1.3.4-1/png/pngwutil.c ****    /* Reset the crc and run it over the chunk name */
 102:fltk-1.3.4-1/png/pngwutil.c ****    png_reset_crc(png_ptr);
 103:fltk-1.3.4-1/png/pngwutil.c **** 
 104:fltk-1.3.4-1/png/pngwutil.c ****    png_calculate_crc(png_ptr, buf + 4, 4);
 105:fltk-1.3.4-1/png/pngwutil.c **** 
 106:fltk-1.3.4-1/png/pngwutil.c **** #ifdef PNG_IO_STATE_SUPPORTED
 107:fltk-1.3.4-1/png/pngwutil.c ****    /* Inform the I/O callback that chunk data will (possibly) be written.
 108:fltk-1.3.4-1/png/pngwutil.c ****     * PNG_IO_CHUNK_DATA does NOT require a specific number of I/O calls.
 109:fltk-1.3.4-1/png/pngwutil.c ****     */
 110:fltk-1.3.4-1/png/pngwutil.c ****    png_ptr->io_state = PNG_IO_WRITING | PNG_IO_CHUNK_DATA;
 111:fltk-1.3.4-1/png/pngwutil.c **** #endif
 112:fltk-1.3.4-1/png/pngwutil.c **** }
 113:fltk-1.3.4-1/png/pngwutil.c **** 
 114:fltk-1.3.4-1/png/pngwutil.c **** void PNGAPI
 115:fltk-1.3.4-1/png/pngwutil.c **** png_write_chunk_start(png_structrp png_ptr, png_const_bytep chunk_string,
 116:fltk-1.3.4-1/png/pngwutil.c ****     png_uint_32 length)
 117:fltk-1.3.4-1/png/pngwutil.c **** {
 118:fltk-1.3.4-1/png/pngwutil.c ****    png_write_chunk_header(png_ptr, PNG_CHUNK_FROM_STRING(chunk_string), length);
 119:fltk-1.3.4-1/png/pngwutil.c **** }
 120:fltk-1.3.4-1/png/pngwutil.c **** 
 121:fltk-1.3.4-1/png/pngwutil.c **** /* Write the data of a PNG chunk started with png_write_chunk_header().
 122:fltk-1.3.4-1/png/pngwutil.c ****  * Note that multiple calls to this function are allowed, and that the
 123:fltk-1.3.4-1/png/pngwutil.c ****  * sum of the lengths from these calls *must* add up to the total_length
 124:fltk-1.3.4-1/png/pngwutil.c ****  * given to png_write_chunk_header().
 125:fltk-1.3.4-1/png/pngwutil.c ****  */
 126:fltk-1.3.4-1/png/pngwutil.c **** void PNGAPI
 127:fltk-1.3.4-1/png/pngwutil.c **** png_write_chunk_data(png_structrp png_ptr, png_const_bytep data,
 128:fltk-1.3.4-1/png/pngwutil.c ****     png_size_t length)
 129:fltk-1.3.4-1/png/pngwutil.c **** {
 130:fltk-1.3.4-1/png/pngwutil.c ****    /* Write the data, and run the CRC over it */
 131:fltk-1.3.4-1/png/pngwutil.c ****    if (png_ptr == NULL)
 132:fltk-1.3.4-1/png/pngwutil.c ****       return;
 133:fltk-1.3.4-1/png/pngwutil.c **** 
 134:fltk-1.3.4-1/png/pngwutil.c ****    if (data != NULL && length > 0)
 135:fltk-1.3.4-1/png/pngwutil.c ****    {
 136:fltk-1.3.4-1/png/pngwutil.c ****       png_write_data(png_ptr, data, length);
 137:fltk-1.3.4-1/png/pngwutil.c **** 
 138:fltk-1.3.4-1/png/pngwutil.c ****       /* Update the CRC after writing the data,
 139:fltk-1.3.4-1/png/pngwutil.c ****        * in case the user I/O routine alters it.
 140:fltk-1.3.4-1/png/pngwutil.c ****        */
 141:fltk-1.3.4-1/png/pngwutil.c ****       png_calculate_crc(png_ptr, data, length);
 142:fltk-1.3.4-1/png/pngwutil.c ****    }
 143:fltk-1.3.4-1/png/pngwutil.c **** }
 144:fltk-1.3.4-1/png/pngwutil.c **** 
 145:fltk-1.3.4-1/png/pngwutil.c **** /* Finish a chunk started with png_write_chunk_header(). */
 146:fltk-1.3.4-1/png/pngwutil.c **** void PNGAPI
 147:fltk-1.3.4-1/png/pngwutil.c **** png_write_chunk_end(png_structrp png_ptr)
 148:fltk-1.3.4-1/png/pngwutil.c **** {
 149:fltk-1.3.4-1/png/pngwutil.c ****    png_byte buf[4];
 150:fltk-1.3.4-1/png/pngwutil.c **** 
 151:fltk-1.3.4-1/png/pngwutil.c ****    if (png_ptr == NULL) return;
 152:fltk-1.3.4-1/png/pngwutil.c **** 
 153:fltk-1.3.4-1/png/pngwutil.c **** #ifdef PNG_IO_STATE_SUPPORTED
 154:fltk-1.3.4-1/png/pngwutil.c ****    /* Inform the I/O callback that the chunk CRC is being written.
 155:fltk-1.3.4-1/png/pngwutil.c ****     * PNG_IO_CHUNK_CRC requires a single I/O function call.
 156:fltk-1.3.4-1/png/pngwutil.c ****     */
 157:fltk-1.3.4-1/png/pngwutil.c ****    png_ptr->io_state = PNG_IO_WRITING | PNG_IO_CHUNK_CRC;
 158:fltk-1.3.4-1/png/pngwutil.c **** #endif
 159:fltk-1.3.4-1/png/pngwutil.c **** 
 160:fltk-1.3.4-1/png/pngwutil.c ****    /* Write the crc in a single operation */
 161:fltk-1.3.4-1/png/pngwutil.c ****    png_save_uint_32(buf, png_ptr->crc);
 162:fltk-1.3.4-1/png/pngwutil.c **** 
 163:fltk-1.3.4-1/png/pngwutil.c ****    png_write_data(png_ptr, buf, (png_size_t)4);
 164:fltk-1.3.4-1/png/pngwutil.c **** }
 165:fltk-1.3.4-1/png/pngwutil.c **** 
 166:fltk-1.3.4-1/png/pngwutil.c **** /* Write a PNG chunk all at once.  The type is an array of ASCII characters
 167:fltk-1.3.4-1/png/pngwutil.c ****  * representing the chunk name.  The array must be at least 4 bytes in
 168:fltk-1.3.4-1/png/pngwutil.c ****  * length, and does not need to be null terminated.  To be safe, pass the
 169:fltk-1.3.4-1/png/pngwutil.c ****  * pre-defined chunk names here, and if you need a new one, define it
 170:fltk-1.3.4-1/png/pngwutil.c ****  * where the others are defined.  The length is the length of the data.
 171:fltk-1.3.4-1/png/pngwutil.c ****  * All the data must be present.  If that is not possible, use the
 172:fltk-1.3.4-1/png/pngwutil.c ****  * png_write_chunk_start(), png_write_chunk_data(), and png_write_chunk_end()
 173:fltk-1.3.4-1/png/pngwutil.c ****  * functions instead.
 174:fltk-1.3.4-1/png/pngwutil.c ****  */
 175:fltk-1.3.4-1/png/pngwutil.c **** static void
 176:fltk-1.3.4-1/png/pngwutil.c **** png_write_complete_chunk(png_structrp png_ptr, png_uint_32 chunk_name,
 177:fltk-1.3.4-1/png/pngwutil.c ****    png_const_bytep data, png_size_t length)
 178:fltk-1.3.4-1/png/pngwutil.c **** {
 179:fltk-1.3.4-1/png/pngwutil.c ****    if (png_ptr == NULL)
 180:fltk-1.3.4-1/png/pngwutil.c ****       return;
 181:fltk-1.3.4-1/png/pngwutil.c **** 
 182:fltk-1.3.4-1/png/pngwutil.c ****    /* On 64 bit architectures 'length' may not fit in a png_uint_32. */
 183:fltk-1.3.4-1/png/pngwutil.c ****    if (length > PNG_UINT_31_MAX)
 184:fltk-1.3.4-1/png/pngwutil.c ****       png_error(png_ptr, "length exceeds PNG maximum");
 185:fltk-1.3.4-1/png/pngwutil.c **** 
 186:fltk-1.3.4-1/png/pngwutil.c ****    png_write_chunk_header(png_ptr, chunk_name, (png_uint_32)length);
 187:fltk-1.3.4-1/png/pngwutil.c ****    png_write_chunk_data(png_ptr, data, length);
 188:fltk-1.3.4-1/png/pngwutil.c ****    png_write_chunk_end(png_ptr);
 189:fltk-1.3.4-1/png/pngwutil.c **** }
 190:fltk-1.3.4-1/png/pngwutil.c **** 
 191:fltk-1.3.4-1/png/pngwutil.c **** /* This is the API that calls the internal function above. */
 192:fltk-1.3.4-1/png/pngwutil.c **** void PNGAPI
 193:fltk-1.3.4-1/png/pngwutil.c **** png_write_chunk(png_structrp png_ptr, png_const_bytep chunk_string,
 194:fltk-1.3.4-1/png/pngwutil.c ****    png_const_bytep data, png_size_t length)
 195:fltk-1.3.4-1/png/pngwutil.c **** {
 196:fltk-1.3.4-1/png/pngwutil.c ****    png_write_complete_chunk(png_ptr, PNG_CHUNK_FROM_STRING(chunk_string), data,
 197:fltk-1.3.4-1/png/pngwutil.c ****       length);
 198:fltk-1.3.4-1/png/pngwutil.c **** }
 199:fltk-1.3.4-1/png/pngwutil.c **** 
 200:fltk-1.3.4-1/png/pngwutil.c **** /* This is used below to find the size of an image to pass to png_deflate_claim,
 201:fltk-1.3.4-1/png/pngwutil.c ****  * so it only needs to be accurate if the size is less than 16384 bytes (the
 202:fltk-1.3.4-1/png/pngwutil.c ****  * point at which a lower LZ window size can be used.)
 203:fltk-1.3.4-1/png/pngwutil.c ****  */
 204:fltk-1.3.4-1/png/pngwutil.c **** static png_alloc_size_t
 205:fltk-1.3.4-1/png/pngwutil.c **** png_image_size(png_structrp png_ptr)
 206:fltk-1.3.4-1/png/pngwutil.c **** {
  11              		.loc 1 206 1 view -0
  12              		.cfi_startproc
 207:fltk-1.3.4-1/png/pngwutil.c ****    /* Only return sizes up to the maximum of a png_uint_32; do this by limiting
 208:fltk-1.3.4-1/png/pngwutil.c ****     * the width and height used to 15 bits.
 209:fltk-1.3.4-1/png/pngwutil.c ****     */
 210:fltk-1.3.4-1/png/pngwutil.c ****    png_uint_32 h = png_ptr->height;
  13              		.loc 1 210 4 view .LVU1
  14              		.loc 1 210 16 is_stmt 0 view .LVU2
  15 0000 448B8FFC 		movl	508(%rdi), %r9d
  15      010000
  16              	.LVL1:
 211:fltk-1.3.4-1/png/pngwutil.c **** 
 212:fltk-1.3.4-1/png/pngwutil.c ****    if (png_ptr->rowbytes < 32768 && h < 32768)
  17              		.loc 1 212 4 is_stmt 1 view .LVU3
  18              		.loc 1 212 15 is_stmt 0 view .LVU4
  19 0007 488B8708 		movq	520(%rdi), %rax
  19      020000
  20              		.loc 1 212 34 view .LVU5
  21 000e 4181F9FF 		cmpl	$32767, %r9d
  21      7F0000
  22 0015 0F873D01 		ja	.L12
  22      0000
  23 001b 483DFF7F 		cmpq	$32767, %rax
  23      0000
  24 0021 0F873101 		ja	.L12
  24      0000
 213:fltk-1.3.4-1/png/pngwutil.c ****    {
 214:fltk-1.3.4-1/png/pngwutil.c ****       if (png_ptr->interlaced != 0)
  25              		.loc 1 214 7 is_stmt 1 view .LVU6
  26              		.loc 1 214 10 is_stmt 0 view .LVU7
  27 0027 80BF7402 		cmpb	$0, 628(%rdi)
  27      000000
  28 002e 0F840401 		je	.L3
  28      0000
  29              	.LBB201:
 215:fltk-1.3.4-1/png/pngwutil.c ****       {
 216:fltk-1.3.4-1/png/pngwutil.c ****          /* Interlacing makes the image larger because of the replication of
 217:fltk-1.3.4-1/png/pngwutil.c ****           * both the filter byte and the padding to a byte boundary.
 218:fltk-1.3.4-1/png/pngwutil.c ****           */
 219:fltk-1.3.4-1/png/pngwutil.c ****          png_uint_32 w = png_ptr->width;
  30              		.loc 1 219 10 is_stmt 1 view .LVU8
  31              	.LBE201:
 206:fltk-1.3.4-1/png/pngwutil.c ****    /* Only return sizes up to the maximum of a png_uint_32; do this by limiting
  32              		.loc 1 206 1 is_stmt 0 view .LVU9
  33 0034 4157     		pushq	%r15
  34              		.cfi_def_cfa_offset 16
  35              		.cfi_offset 15, -16
  36              	.LBB210:
  37              	.LBB202:
 220:fltk-1.3.4-1/png/pngwutil.c ****          unsigned int pd = png_ptr->pixel_depth;
 221:fltk-1.3.4-1/png/pngwutil.c ****          png_alloc_size_t cb_base;
 222:fltk-1.3.4-1/png/pngwutil.c ****          int pass;
 223:fltk-1.3.4-1/png/pngwutil.c **** 
 224:fltk-1.3.4-1/png/pngwutil.c ****          for (cb_base=0, pass=0; pass<=6; ++pass)
 225:fltk-1.3.4-1/png/pngwutil.c ****          {
 226:fltk-1.3.4-1/png/pngwutil.c ****             png_uint_32 pw = PNG_PASS_COLS(w, pass);
 227:fltk-1.3.4-1/png/pngwutil.c **** 
 228:fltk-1.3.4-1/png/pngwutil.c ****             if (pw > 0)
 229:fltk-1.3.4-1/png/pngwutil.c ****                cb_base += (PNG_ROWBYTES(pd, pw)+1) * PNG_PASS_ROWS(h, pass);
  38              		.loc 1 229 28 view .LVU10
  39 0036 31F6     		xorl	%esi, %esi
  40 0038 41BB0300 		movl	$3, %r11d
  40      0000
  41              	.LBE202:
  42              	.LBE210:
 206:fltk-1.3.4-1/png/pngwutil.c ****    /* Only return sizes up to the maximum of a png_uint_32; do this by limiting
  43              		.loc 1 206 1 view .LVU11
  44 003e 4156     		pushq	%r14
  45              		.cfi_def_cfa_offset 24
  46              		.cfi_offset 14, -24
  47              	.LBB211:
  48              	.LBB203:
  49              		.loc 1 229 54 view .LVU12
  50 0040 41BE0800 		movl	$8, %r14d
  50      0000
  51              	.LBE203:
  52              	.LBE211:
 206:fltk-1.3.4-1/png/pngwutil.c ****    /* Only return sizes up to the maximum of a png_uint_32; do this by limiting
  53              		.loc 1 206 1 view .LVU13
  54 0046 4155     		pushq	%r13
  55              		.cfi_def_cfa_offset 32
  56              		.cfi_offset 13, -32
  57 0048 4154     		pushq	%r12
  58              		.cfi_def_cfa_offset 40
  59              		.cfi_offset 12, -40
  60              	.LBB212:
  61              	.LBB204:
 226:fltk-1.3.4-1/png/pngwutil.c **** 
  62              		.loc 1 226 30 view .LVU14
  63 004a 41BC0700 		movl	$7, %r12d
  63      0000
  64              	.LBE204:
  65              	.LBE212:
 206:fltk-1.3.4-1/png/pngwutil.c ****    /* Only return sizes up to the maximum of a png_uint_32; do this by limiting
  66              		.loc 1 206 1 view .LVU15
  67 0050 55       		pushq	%rbp
  68              		.cfi_def_cfa_offset 48
  69              		.cfi_offset 6, -48
  70 0051 53       		pushq	%rbx
  71              		.cfi_def_cfa_offset 56
  72              		.cfi_offset 3, -56
  73              	.LBB213:
 220:fltk-1.3.4-1/png/pngwutil.c ****          unsigned int pd = png_ptr->pixel_depth;
  74              		.loc 1 220 35 view .LVU16
  75 0052 440FB6AF 		movzbl	634(%rdi), %r13d
  75      7A020000 
  76              	.LBB205:
 226:fltk-1.3.4-1/png/pngwutil.c **** 
  77              		.loc 1 226 30 view .LVU17
  78 005a BB010000 		movl	$1, %ebx
  78      00
  79              	.LBE205:
 219:fltk-1.3.4-1/png/pngwutil.c ****          unsigned int pd = png_ptr->pixel_depth;
  80              		.loc 1 219 22 view .LVU18
  81 005f 8BAFF801 		movl	504(%rdi), %ebp
  81      0000
  82              	.LVL2:
 220:fltk-1.3.4-1/png/pngwutil.c ****          unsigned int pd = png_ptr->pixel_depth;
  83              		.loc 1 220 10 is_stmt 1 view .LVU19
 221:fltk-1.3.4-1/png/pngwutil.c ****          int pass;
  84              		.loc 1 221 10 view .LVU20
 222:fltk-1.3.4-1/png/pngwutil.c **** 
  85              		.loc 1 222 10 view .LVU21
 224:fltk-1.3.4-1/png/pngwutil.c ****          {
  86              		.loc 1 224 10 view .LVU22
 224:fltk-1.3.4-1/png/pngwutil.c ****          {
  87              		.loc 1 224 34 view .LVU23
  88              	.LBB206:
  89              		.loc 1 229 28 is_stmt 0 view .LVU24
  90 0065 4489E8   		movl	%r13d, %eax
  91 0068 410FB6FD 		movzbl	%r13b, %edi
  92              	.LVL3:
  93              		.loc 1 229 28 view .LVU25
  94 006c C1E803   		shrl	$3, %eax
  95 006f 48897C24 		movq	%rdi, -8(%rsp)
  95      F8
  96 0074 48894424 		movq	%rax, -16(%rsp)
  96      F0
  97              	.LBE206:
 224:fltk-1.3.4-1/png/pngwutil.c ****          {
  98              		.loc 1 224 22 view .LVU26
  99 0079 31C0     		xorl	%eax, %eax
 100 007b EB51     		jmp	.L9
 101              	.LVL4:
 102 007d 0F1F00   		.p2align 4,,10
 103              		.p2align 3
 104              	.L29:
 105              	.LBB207:
 106              		.loc 1 229 28 discriminator 1 view .LVU27
 107 0080 480FAF54 		imulq	-16(%rsp), %rdx
 107      24F0
 108              	.LVL5:
 109              		.loc 1 229 48 discriminator 1 view .LVU28
 110 0086 4883C201 		addq	$1, %rdx
 111              	.L7:
 112              		.loc 1 229 48 discriminator 1 view .LVU29
 113 008a 41D1F8   		sarl	%r8d
 114              	.LVL6:
 115              		.loc 1 229 48 discriminator 1 view .LVU30
 116 008d 4489D9   		movl	%r11d, %ecx
 117 0090 83F701   		xorl	$1, %edi
 118 0093 4429C1   		subl	%r8d, %ecx
 119 0096 D3E7     		sall	%cl, %edi
 120              		.loc 1 229 54 discriminator 4 view .LVU31
 121 0098 4183FA02 		cmpl	$2, %r10d
 122 009c 0F86BE00 		jbe	.L8
 122      0000
 123              		.loc 1 229 54 discriminator 5 view .LVU32
 124 00a2 4489F1   		movl	%r14d, %ecx
 125 00a5 4189D8   		movl	%ebx, %r8d
 126 00a8 83E707   		andl	$7, %edi
 127 00ab 4429D1   		subl	%r10d, %ecx
 128 00ae D1F9     		sarl	%ecx
 129 00b0 41D3E0   		sall	%cl, %r8d
 130 00b3 4183E801 		subl	$1, %r8d
 131 00b7 4129F8   		subl	%edi, %r8d
 132 00ba 4489C7   		movl	%r8d, %edi
 133 00bd 4401CF   		addl	%r9d, %edi
 134              	.L10:
 135              		.loc 1 229 54 discriminator 12 view .LVU33
 136 00c0 D3EF     		shrl	%cl, %edi
 137              		.loc 1 229 52 discriminator 12 view .LVU34
 138 00c2 480FAFD7 		imulq	%rdi, %rdx
 139              		.loc 1 229 24 discriminator 12 view .LVU35
 140 00c6 4801D0   		addq	%rdx, %rax
 141              	.LVL7:
 142              	.L5:
 143              		.loc 1 229 24 discriminator 12 view .LVU36
 144              	.LBE207:
 224:fltk-1.3.4-1/png/pngwutil.c ****          {
 145              		.loc 1 224 34 is_stmt 1 discriminator 1 view .LVU37
 224:fltk-1.3.4-1/png/pngwutil.c ****          {
 146              		.loc 1 224 10 is_stmt 0 discriminator 1 view .LVU38
 147 00c9 83FE07   		cmpl	$7, %esi
 148 00cc 747A     		je	.L28
 149              	.LVL8:
 150              	.L9:
 224:fltk-1.3.4-1/png/pngwutil.c ****          {
 151              		.loc 1 224 10 discriminator 1 view .LVU39
 152 00ce 89F7     		movl	%esi, %edi
 153 00d0 4189F0   		movl	%esi, %r8d
 154              	.LVL9:
 155              	.LBB208:
 226:fltk-1.3.4-1/png/pngwutil.c **** 
 156              		.loc 1 226 13 is_stmt 1 view .LVU40
 157 00d3 4189F2   		movl	%esi, %r10d
 158 00d6 83C601   		addl	$1, %esi
 159              	.LVL10:
 226:fltk-1.3.4-1/png/pngwutil.c **** 
 160              		.loc 1 226 13 is_stmt 0 view .LVU41
 161 00d9 89F2     		movl	%esi, %edx
 162 00db 83E701   		andl	$1, %edi
 163              	.LVL11:
 226:fltk-1.3.4-1/png/pngwutil.c **** 
 164              		.loc 1 226 13 view .LVU42
 165 00de 4489D9   		movl	%r11d, %ecx
 166 00e1 D1FA     		sarl	%edx
 167 00e3 4189FF   		movl	%edi, %r15d
 168 00e6 29D1     		subl	%edx, %ecx
 169 00e8 41D3E7   		sall	%cl, %r15d
 226:fltk-1.3.4-1/png/pngwutil.c **** 
 170              		.loc 1 226 30 view .LVU43
 171 00eb 4183F801 		cmpl	$1, %r8d
 172 00ef 0F868300 		jbe	.L4
 172      0000
 226:fltk-1.3.4-1/png/pngwutil.c **** 
 173              		.loc 1 226 30 discriminator 1 view .LVU44
 174 00f5 4489E1   		movl	%r12d, %ecx
 175 00f8 89DA     		movl	%ebx, %edx
 176 00fa 4183E707 		andl	$7, %r15d
 177 00fe 4429C1   		subl	%r8d, %ecx
 178 0101 D1F9     		sarl	%ecx
 179 0103 D3E2     		sall	%cl, %edx
 180 0105 83EA01   		subl	$1, %edx
 181 0108 4429FA   		subl	%r15d, %edx
 182 010b 01EA     		addl	%ebp, %edx
 183              	.L11:
 226:fltk-1.3.4-1/png/pngwutil.c **** 
 184              		.loc 1 226 25 discriminator 8 view .LVU45
 185 010d D3EA     		shrl	%cl, %edx
 186              	.LVL12:
 228:fltk-1.3.4-1/png/pngwutil.c ****                cb_base += (PNG_ROWBYTES(pd, pw)+1) * PNG_PASS_ROWS(h, pass);
 187              		.loc 1 228 13 is_stmt 1 discriminator 8 view .LVU46
 228:fltk-1.3.4-1/png/pngwutil.c ****                cb_base += (PNG_ROWBYTES(pd, pw)+1) * PNG_PASS_ROWS(h, pass);
 188              		.loc 1 228 16 is_stmt 0 discriminator 8 view .LVU47
 189 010f 85D2     		testl	%edx, %edx
 190 0111 74B6     		je	.L5
 191              		.loc 1 229 16 is_stmt 1 view .LVU48
 192              		.loc 1 229 48 is_stmt 0 view .LVU49
 193 0113 4183FD07 		cmpl	$7, %r13d
 194 0117 0F8763FF 		ja	.L29
 194      FFFF
 195              		.loc 1 229 28 discriminator 2 view .LVU50
 196 011d 480FAF54 		imulq	-8(%rsp), %rdx
 196      24F8
 197              	.LVL13:
 198              		.loc 1 229 28 discriminator 2 view .LVU51
 199 0123 4883C207 		addq	$7, %rdx
 200 0127 48C1EA03 		shrq	$3, %rdx
 201              		.loc 1 229 48 discriminator 2 view .LVU52
 202 012b 4883C201 		addq	$1, %rdx
 203 012f E956FFFF 		jmp	.L7
 203      FF
 204              	.LVL14:
 205              		.p2align 4,,10
 206 0134 0F1F4000 		.p2align 3
 207              	.L3:
 208              		.cfi_def_cfa_offset 8
 209              		.cfi_restore 3
 210              		.cfi_restore 6
 211              		.cfi_restore 12
 212              		.cfi_restore 13
 213              		.cfi_restore 14
 214              		.cfi_restore 15
 215              		.loc 1 229 48 discriminator 2 view .LVU53
 216              	.LBE208:
 217              	.LBE213:
 230:fltk-1.3.4-1/png/pngwutil.c ****          }
 231:fltk-1.3.4-1/png/pngwutil.c **** 
 232:fltk-1.3.4-1/png/pngwutil.c ****          return cb_base;
 233:fltk-1.3.4-1/png/pngwutil.c ****       }
 234:fltk-1.3.4-1/png/pngwutil.c **** 
 235:fltk-1.3.4-1/png/pngwutil.c ****       else
 236:fltk-1.3.4-1/png/pngwutil.c ****          return (png_ptr->rowbytes+1) * h;
 218              		.loc 1 236 10 is_stmt 1 view .LVU54
 219              		.loc 1 236 35 is_stmt 0 view .LVU55
 220 0138 488D5001 		leaq	1(%rax), %rdx
 221              		.loc 1 236 39 view .LVU56
 222 013c 4489C8   		movl	%r9d, %eax
 223 013f 480FAFC2 		imulq	%rdx, %rax
 224 0143 C3       		ret
 225              	.LVL15:
 226              		.p2align 4,,10
 227 0144 0F1F4000 		.p2align 3
 228              	.L28:
 229              		.cfi_def_cfa_offset 56
 230              		.cfi_offset 3, -56
 231              		.cfi_offset 6, -48
 232              		.cfi_offset 12, -40
 233              		.cfi_offset 13, -32
 234              		.cfi_offset 14, -24
 235              		.cfi_offset 15, -16
 237:fltk-1.3.4-1/png/pngwutil.c ****    }
 238:fltk-1.3.4-1/png/pngwutil.c **** 
 239:fltk-1.3.4-1/png/pngwutil.c ****    else
 240:fltk-1.3.4-1/png/pngwutil.c ****       return 0xffffffffU;
 241:fltk-1.3.4-1/png/pngwutil.c **** }
 236              		.loc 1 241 1 view .LVU57
 237 0148 5B       		popq	%rbx
 238              		.cfi_def_cfa_offset 48
 239 0149 5D       		popq	%rbp
 240              		.cfi_def_cfa_offset 40
 241              	.LVL16:
 242              		.loc 1 241 1 view .LVU58
 243 014a 415C     		popq	%r12
 244              		.cfi_def_cfa_offset 32
 245 014c 415D     		popq	%r13
 246              		.cfi_def_cfa_offset 24
 247              	.LVL17:
 248              		.loc 1 241 1 view .LVU59
 249 014e 415E     		popq	%r14
 250              		.cfi_def_cfa_offset 16
 251 0150 415F     		popq	%r15
 252              		.cfi_def_cfa_offset 8
 253 0152 C3       		ret
 254              	.LVL18:
 255              		.p2align 4,,10
 256 0153 0F1F4400 		.p2align 3
 256      00
 257              	.L12:
 258              		.cfi_restore 3
 259              		.cfi_restore 6
 260              		.cfi_restore 12
 261              		.cfi_restore 13
 262              		.cfi_restore 14
 263              		.cfi_restore 15
 240:fltk-1.3.4-1/png/pngwutil.c **** }
 264              		.loc 1 240 14 view .LVU60
 265 0158 B8FFFFFF 		movl	$4294967295, %eax
 265      FF
 266              		.loc 1 241 1 view .LVU61
 267 015d C3       		ret
 268              	.LVL19:
 269 015e 6690     		.p2align 4,,10
 270              		.p2align 3
 271              	.L8:
 272              		.cfi_def_cfa_offset 56
 273              		.cfi_offset 3, -56
 274              		.cfi_offset 6, -48
 275              		.cfi_offset 12, -40
 276              		.cfi_offset 13, -32
 277              		.cfi_offset 14, -24
 278              		.cfi_offset 15, -16
 279              	.LBB214:
 280              	.LBB209:
 229:fltk-1.3.4-1/png/pngwutil.c ****          }
 281              		.loc 1 229 54 view .LVU62
 282 0160 F7D7     		notl	%edi
 283 0162 B9030000 		movl	$3, %ecx
 283      00
 284 0167 83E707   		andl	$7, %edi
 285 016a 4401CF   		addl	%r9d, %edi
 286 016d E94EFFFF 		jmp	.L10
 286      FF
 287              	.LVL20:
 288              		.p2align 4,,10
 289 0172 660F1F44 		.p2align 3
 289      0000
 290              	.L4:
 226:fltk-1.3.4-1/png/pngwutil.c **** 
 291              		.loc 1 226 30 view .LVU63
 292 0178 41F7D7   		notl	%r15d
 293 017b B9030000 		movl	$3, %ecx
 293      00
 294 0180 4183E707 		andl	$7, %r15d
 295 0184 418D142F 		leal	(%r15,%rbp), %edx
 296 0188 E980FFFF 		jmp	.L11
 296      FF
 297              	.LBE209:
 298              	.LBE214:
 299              		.cfi_endproc
 300              	.LFE50:
 302              		.section	.rodata.png_deflate_claim.str1.1,"aMS",@progbits,1
 303              	.LC0:
 304 0000 20757369 		.string	" using zstream"
 304      6E67207A 
 304      73747265 
 304      616D00
 305              	.LC1:
 306 000f 696E2075 		.string	"in use by IDAT"
 306      73652062 
 306      79204944 
 306      415400
 307              	.LC2:
 308 001e 6465666C 		.string	"deflateEnd failed (ignored)"
 308      61746545 
 308      6E642066 
 308      61696C65 
 308      64202869 
 309              	.LC3:
 310 003a 312E322E 		.string	"1.2.11"
 310      313100
 311              		.section	.text.png_deflate_claim,"ax",@progbits
 312              		.p2align 4
 314              	png_deflate_claim:
 315              	.LVL21:
 316              	.LFB52:
 242:fltk-1.3.4-1/png/pngwutil.c **** 
 243:fltk-1.3.4-1/png/pngwutil.c **** #ifdef PNG_WRITE_OPTIMIZE_CMF_SUPPORTED
 244:fltk-1.3.4-1/png/pngwutil.c ****    /* This is the code to hack the first two bytes of the deflate stream (the
 245:fltk-1.3.4-1/png/pngwutil.c ****     * deflate header) to correct the windowBits value to match the actual data
 246:fltk-1.3.4-1/png/pngwutil.c ****     * size.  Note that the second argument is the *uncompressed* size but the
 247:fltk-1.3.4-1/png/pngwutil.c ****     * first argument is the *compressed* data (and it must be deflate
 248:fltk-1.3.4-1/png/pngwutil.c ****     * compressed.)
 249:fltk-1.3.4-1/png/pngwutil.c ****     */
 250:fltk-1.3.4-1/png/pngwutil.c **** static void
 251:fltk-1.3.4-1/png/pngwutil.c **** optimize_cmf(png_bytep data, png_alloc_size_t data_size)
 252:fltk-1.3.4-1/png/pngwutil.c **** {
 253:fltk-1.3.4-1/png/pngwutil.c ****    /* Optimize the CMF field in the zlib stream.  The resultant zlib stream is
 254:fltk-1.3.4-1/png/pngwutil.c ****     * still compliant to the stream specification.
 255:fltk-1.3.4-1/png/pngwutil.c ****     */
 256:fltk-1.3.4-1/png/pngwutil.c ****    if (data_size <= 16384) /* else windowBits must be 15 */
 257:fltk-1.3.4-1/png/pngwutil.c ****    {
 258:fltk-1.3.4-1/png/pngwutil.c ****       unsigned int z_cmf = data[0];  /* zlib compression method and flags */
 259:fltk-1.3.4-1/png/pngwutil.c **** 
 260:fltk-1.3.4-1/png/pngwutil.c ****       if ((z_cmf & 0x0f) == 8 && (z_cmf & 0xf0) <= 0x70)
 261:fltk-1.3.4-1/png/pngwutil.c ****       {
 262:fltk-1.3.4-1/png/pngwutil.c ****          unsigned int z_cinfo;
 263:fltk-1.3.4-1/png/pngwutil.c ****          unsigned int half_z_window_size;
 264:fltk-1.3.4-1/png/pngwutil.c **** 
 265:fltk-1.3.4-1/png/pngwutil.c ****          z_cinfo = z_cmf >> 4;
 266:fltk-1.3.4-1/png/pngwutil.c ****          half_z_window_size = 1U << (z_cinfo + 7);
 267:fltk-1.3.4-1/png/pngwutil.c **** 
 268:fltk-1.3.4-1/png/pngwutil.c ****          if (data_size <= half_z_window_size) /* else no change */
 269:fltk-1.3.4-1/png/pngwutil.c ****          {
 270:fltk-1.3.4-1/png/pngwutil.c ****             unsigned int tmp;
 271:fltk-1.3.4-1/png/pngwutil.c **** 
 272:fltk-1.3.4-1/png/pngwutil.c ****             do
 273:fltk-1.3.4-1/png/pngwutil.c ****             {
 274:fltk-1.3.4-1/png/pngwutil.c ****                half_z_window_size >>= 1;
 275:fltk-1.3.4-1/png/pngwutil.c ****                --z_cinfo;
 276:fltk-1.3.4-1/png/pngwutil.c ****             }
 277:fltk-1.3.4-1/png/pngwutil.c ****             while (z_cinfo > 0 && data_size <= half_z_window_size);
 278:fltk-1.3.4-1/png/pngwutil.c **** 
 279:fltk-1.3.4-1/png/pngwutil.c ****             z_cmf = (z_cmf & 0x0f) | (z_cinfo << 4);
 280:fltk-1.3.4-1/png/pngwutil.c **** 
 281:fltk-1.3.4-1/png/pngwutil.c ****             data[0] = (png_byte)z_cmf;
 282:fltk-1.3.4-1/png/pngwutil.c ****             tmp = data[1] & 0xe0;
 283:fltk-1.3.4-1/png/pngwutil.c ****             tmp += 0x1f - ((z_cmf << 8) + tmp) % 0x1f;
 284:fltk-1.3.4-1/png/pngwutil.c ****             data[1] = (png_byte)tmp;
 285:fltk-1.3.4-1/png/pngwutil.c ****          }
 286:fltk-1.3.4-1/png/pngwutil.c ****       }
 287:fltk-1.3.4-1/png/pngwutil.c ****    }
 288:fltk-1.3.4-1/png/pngwutil.c **** }
 289:fltk-1.3.4-1/png/pngwutil.c **** #endif /* WRITE_OPTIMIZE_CMF */
 290:fltk-1.3.4-1/png/pngwutil.c **** 
 291:fltk-1.3.4-1/png/pngwutil.c **** /* Initialize the compressor for the appropriate type of compression. */
 292:fltk-1.3.4-1/png/pngwutil.c **** static int
 293:fltk-1.3.4-1/png/pngwutil.c **** png_deflate_claim(png_structrp png_ptr, png_uint_32 owner,
 294:fltk-1.3.4-1/png/pngwutil.c ****    png_alloc_size_t data_size)
 295:fltk-1.3.4-1/png/pngwutil.c **** {
 317              		.loc 1 295 1 is_stmt 1 view -0
 318              		.cfi_startproc
 319              		.loc 1 295 1 is_stmt 0 view .LVU65
 320 0000 4157     		pushq	%r15
 321              		.cfi_def_cfa_offset 16
 322              		.cfi_offset 15, -16
 323 0002 4156     		pushq	%r14
 324              		.cfi_def_cfa_offset 24
 325              		.cfi_offset 14, -24
 326 0004 4155     		pushq	%r13
 327              		.cfi_def_cfa_offset 32
 328              		.cfi_offset 13, -32
 329 0006 4154     		pushq	%r12
 330              		.cfi_def_cfa_offset 40
 331              		.cfi_offset 12, -40
 332 0008 4189F4   		movl	%esi, %r12d
 333 000b 55       		pushq	%rbp
 334              		.cfi_def_cfa_offset 48
 335              		.cfi_offset 6, -48
 336 000c 4889FD   		movq	%rdi, %rbp
 337 000f 53       		pushq	%rbx
 338              		.cfi_def_cfa_offset 56
 339              		.cfi_offset 3, -56
 340 0010 4889D3   		movq	%rdx, %rbx
 341 0013 4883EC68 		subq	$104, %rsp
 342              		.cfi_def_cfa_offset 160
 343              		.loc 1 295 1 view .LVU66
 344 0017 64488B04 		movq	%fs:40, %rax
 344      25280000 
 344      00
 345 0020 48894424 		movq	%rax, 88(%rsp)
 345      58
 346 0025 31C0     		xorl	%eax, %eax
 296:fltk-1.3.4-1/png/pngwutil.c ****    if (png_ptr->zowner != 0)
 347              		.loc 1 296 4 is_stmt 1 view .LVU67
 348 0027 8B873801 		movl	312(%rdi), %eax
 348      0000
 349              		.loc 1 296 7 is_stmt 0 view .LVU68
 350 002d 8BBF3801 		movl	312(%rdi), %edi
 350      0000
 351              	.LVL22:
 352              		.loc 1 296 7 view .LVU69
 353 0033 85FF     		testl	%edi, %edi
 354 0035 0F858501 		jne	.L56
 354      0000
 355              	.LVL23:
 356              	.L31:
 357              	.LBB215:
 297:fltk-1.3.4-1/png/pngwutil.c ****    {
 298:fltk-1.3.4-1/png/pngwutil.c **** #if defined(PNG_WARNINGS_SUPPORTED) || defined(PNG_ERROR_TEXT_SUPPORTED)
 299:fltk-1.3.4-1/png/pngwutil.c ****       char msg[64];
 300:fltk-1.3.4-1/png/pngwutil.c **** 
 301:fltk-1.3.4-1/png/pngwutil.c ****       PNG_STRING_FROM_CHUNK(msg, owner);
 302:fltk-1.3.4-1/png/pngwutil.c ****       msg[4] = ':';
 303:fltk-1.3.4-1/png/pngwutil.c ****       msg[5] = ' ';
 304:fltk-1.3.4-1/png/pngwutil.c ****       PNG_STRING_FROM_CHUNK(msg+6, png_ptr->zowner);
 305:fltk-1.3.4-1/png/pngwutil.c ****       /* So the message that results is "<chunk> using zstream"; this is an
 306:fltk-1.3.4-1/png/pngwutil.c ****        * internal error, but is very useful for debugging.  i18n requirements
 307:fltk-1.3.4-1/png/pngwutil.c ****        * are minimal.
 308:fltk-1.3.4-1/png/pngwutil.c ****        */
 309:fltk-1.3.4-1/png/pngwutil.c ****       (void)png_safecat(msg, (sizeof msg), 10, " using zstream");
 310:fltk-1.3.4-1/png/pngwutil.c **** #endif
 311:fltk-1.3.4-1/png/pngwutil.c **** #if PNG_LIBPNG_BUILD_BASE_TYPE >= PNG_LIBPNG_BUILD_RC
 312:fltk-1.3.4-1/png/pngwutil.c ****          png_warning(png_ptr, msg);
 313:fltk-1.3.4-1/png/pngwutil.c **** 
 314:fltk-1.3.4-1/png/pngwutil.c ****          /* Attempt sane error recovery */
 315:fltk-1.3.4-1/png/pngwutil.c ****          if (png_ptr->zowner == png_IDAT) /* don't steal from IDAT */
 316:fltk-1.3.4-1/png/pngwutil.c ****          {
 317:fltk-1.3.4-1/png/pngwutil.c ****             png_ptr->zstream.msg = PNGZ_MSG_CAST("in use by IDAT");
 318:fltk-1.3.4-1/png/pngwutil.c ****             return Z_STREAM_ERROR;
 319:fltk-1.3.4-1/png/pngwutil.c ****          }
 320:fltk-1.3.4-1/png/pngwutil.c **** 
 321:fltk-1.3.4-1/png/pngwutil.c ****          png_ptr->zowner = 0;
 322:fltk-1.3.4-1/png/pngwutil.c **** #else
 323:fltk-1.3.4-1/png/pngwutil.c ****          png_error(png_ptr, msg);
 324:fltk-1.3.4-1/png/pngwutil.c **** #endif
 325:fltk-1.3.4-1/png/pngwutil.c ****    }
 326:fltk-1.3.4-1/png/pngwutil.c **** 
 327:fltk-1.3.4-1/png/pngwutil.c ****    {
 328:fltk-1.3.4-1/png/pngwutil.c ****       int level = png_ptr->zlib_level;
 358              		.loc 1 328 7 is_stmt 1 view .LVU70
 329:fltk-1.3.4-1/png/pngwutil.c ****       int method = png_ptr->zlib_method;
 359              		.loc 1 329 7 view .LVU71
 330:fltk-1.3.4-1/png/pngwutil.c ****       int windowBits = png_ptr->zlib_window_bits;
 360              		.loc 1 330 7 view .LVU72
 331:fltk-1.3.4-1/png/pngwutil.c ****       int memLevel = png_ptr->zlib_mem_level;
 361              		.loc 1 331 7 view .LVU73
 332:fltk-1.3.4-1/png/pngwutil.c ****       int strategy; /* set below */
 362              		.loc 1 332 7 view .LVU74
 333:fltk-1.3.4-1/png/pngwutil.c ****       int ret; /* zlib return code */
 363              		.loc 1 333 7 view .LVU75
 334:fltk-1.3.4-1/png/pngwutil.c **** 
 335:fltk-1.3.4-1/png/pngwutil.c ****       if (owner == png_IDAT)
 364              		.loc 1 335 7 view .LVU76
 365 003b 8BBD3001 		movl	304(%rbp), %edi
 365      0000
 366              		.loc 1 335 10 is_stmt 0 view .LVU77
 367 0041 4181FC54 		cmpl	$1229209940, %r12d
 367      414449
 368 0048 0F844201 		je	.L57
 368      0000
 336:fltk-1.3.4-1/png/pngwutil.c ****       {
 337:fltk-1.3.4-1/png/pngwutil.c ****          if ((png_ptr->flags & PNG_FLAG_ZLIB_CUSTOM_STRATEGY) != 0)
 338:fltk-1.3.4-1/png/pngwutil.c ****             strategy = png_ptr->zlib_strategy;
 339:fltk-1.3.4-1/png/pngwutil.c **** 
 340:fltk-1.3.4-1/png/pngwutil.c ****          else if (png_ptr->do_filter != PNG_FILTER_NONE)
 341:fltk-1.3.4-1/png/pngwutil.c ****             strategy = PNG_Z_DEFAULT_STRATEGY;
 342:fltk-1.3.4-1/png/pngwutil.c **** 
 343:fltk-1.3.4-1/png/pngwutil.c ****          else
 344:fltk-1.3.4-1/png/pngwutil.c ****             strategy = PNG_Z_DEFAULT_NOFILTER_STRATEGY;
 345:fltk-1.3.4-1/png/pngwutil.c ****       }
 346:fltk-1.3.4-1/png/pngwutil.c **** 
 347:fltk-1.3.4-1/png/pngwutil.c ****       else
 348:fltk-1.3.4-1/png/pngwutil.c ****       {
 349:fltk-1.3.4-1/png/pngwutil.c **** #ifdef PNG_WRITE_CUSTOMIZE_ZTXT_COMPRESSION_SUPPORTED
 350:fltk-1.3.4-1/png/pngwutil.c ****             level = png_ptr->zlib_text_level;
 369              		.loc 1 350 13 is_stmt 1 view .LVU78
 370              		.loc 1 350 19 is_stmt 0 view .LVU79
 371 004e 448BB5D0 		movl	464(%rbp), %r14d
 371      010000
 372              	.LVL24:
 351:fltk-1.3.4-1/png/pngwutil.c ****             method = png_ptr->zlib_text_method;
 373              		.loc 1 351 13 is_stmt 1 view .LVU80
 374              		.loc 1 351 20 is_stmt 0 view .LVU81
 375 0055 448BBDD4 		movl	468(%rbp), %r15d
 375      010000
 376              	.LVL25:
 352:fltk-1.3.4-1/png/pngwutil.c ****             windowBits = png_ptr->zlib_text_window_bits;
 377              		.loc 1 352 13 is_stmt 1 view .LVU82
 378              		.loc 1 352 24 is_stmt 0 view .LVU83
 379 005c 448BADD8 		movl	472(%rbp), %r13d
 379      010000
 380              	.LVL26:
 353:fltk-1.3.4-1/png/pngwutil.c ****             memLevel = png_ptr->zlib_text_mem_level;
 381              		.loc 1 353 13 is_stmt 1 view .LVU84
 382              		.loc 1 353 22 is_stmt 0 view .LVU85
 383 0063 448B85DC 		movl	476(%rbp), %r8d
 383      010000
 384              	.LVL27:
 354:fltk-1.3.4-1/png/pngwutil.c ****             strategy = png_ptr->zlib_text_strategy;
 385              		.loc 1 354 13 is_stmt 1 view .LVU86
 386              		.loc 1 354 22 is_stmt 0 view .LVU87
 387 006a 448B8DE0 		movl	480(%rbp), %r9d
 387      010000
 388              	.LVL28:
 389              	.L36:
 355:fltk-1.3.4-1/png/pngwutil.c **** #else
 356:fltk-1.3.4-1/png/pngwutil.c ****             /* If customization is not supported the values all come from the
 357:fltk-1.3.4-1/png/pngwutil.c ****              * IDAT values except for the strategy, which is fixed to the
 358:fltk-1.3.4-1/png/pngwutil.c ****              * default.  (This is the pre-1.6.0 behavior too, although it was
 359:fltk-1.3.4-1/png/pngwutil.c ****              * implemented in a very different way.)
 360:fltk-1.3.4-1/png/pngwutil.c ****              */
 361:fltk-1.3.4-1/png/pngwutil.c ****             strategy = Z_DEFAULT_STRATEGY;
 362:fltk-1.3.4-1/png/pngwutil.c **** #endif
 363:fltk-1.3.4-1/png/pngwutil.c ****       }
 364:fltk-1.3.4-1/png/pngwutil.c **** 
 365:fltk-1.3.4-1/png/pngwutil.c ****       /* Adjust 'windowBits' down if larger than 'data_size'; to stop this
 366:fltk-1.3.4-1/png/pngwutil.c ****        * happening just pass 32768 as the data_size parameter.  Notice that zlib
 367:fltk-1.3.4-1/png/pngwutil.c ****        * requires an extra 262 bytes in the window in addition to the data to be
 368:fltk-1.3.4-1/png/pngwutil.c ****        * able to see the whole of the data, so if data_size+262 takes us to the
 369:fltk-1.3.4-1/png/pngwutil.c ****        * next windowBits size we need to fix up the value later.  (Because even
 370:fltk-1.3.4-1/png/pngwutil.c ****        * though deflate needs the extra window, inflate does not!)
 371:fltk-1.3.4-1/png/pngwutil.c ****        */
 372:fltk-1.3.4-1/png/pngwutil.c ****       if (data_size <= 16384)
 390              		.loc 1 372 7 is_stmt 1 view .LVU88
 391              		.loc 1 372 10 is_stmt 0 view .LVU89
 392 0071 4881FB00 		cmpq	$16384, %rbx
 392      400000
 393 0078 772D     		ja	.L37
 394              	.LBB216:
 373:fltk-1.3.4-1/png/pngwutil.c ****       {
 374:fltk-1.3.4-1/png/pngwutil.c ****          /* IMPLEMENTATION NOTE: this 'half_window_size' stuff is only here to
 375:fltk-1.3.4-1/png/pngwutil.c ****           * work round a Microsoft Visual C misbehavior which, contrary to C-90,
 376:fltk-1.3.4-1/png/pngwutil.c ****           * widens the result of the following shift to 64-bits if (and,
 377:fltk-1.3.4-1/png/pngwutil.c ****           * apparently, only if) it is used in a test.
 378:fltk-1.3.4-1/png/pngwutil.c ****           */
 379:fltk-1.3.4-1/png/pngwutil.c ****          unsigned int half_window_size = 1U << (windowBits-1);
 395              		.loc 1 379 10 is_stmt 1 view .LVU90
 396              		.loc 1 379 59 is_stmt 0 view .LVU91
 397 007a 418D4DFF 		leal	-1(%r13), %ecx
 398              		.loc 1 379 23 view .LVU92
 399 007e B8010000 		movl	$1, %eax
 399      00
 380:fltk-1.3.4-1/png/pngwutil.c **** 
 381:fltk-1.3.4-1/png/pngwutil.c ****          while (data_size + 262 <= half_window_size)
 400              		.loc 1 381 27 view .LVU93
 401 0083 4881C306 		addq	$262, %rbx
 401      010000
 402              	.LVL29:
 379:fltk-1.3.4-1/png/pngwutil.c **** 
 403              		.loc 1 379 23 view .LVU94
 404 008a D3E0     		sall	%cl, %eax
 405              	.LVL30:
 406              		.loc 1 381 10 is_stmt 1 view .LVU95
 407              		.loc 1 381 16 view .LVU96
 408              		.loc 1 381 33 is_stmt 0 view .LVU97
 409 008c 89C2     		movl	%eax, %edx
 410              		.loc 1 381 16 view .LVU98
 411 008e 4839DA   		cmpq	%rbx, %rdx
 412 0091 7308     		jnb	.L38
 413              		.loc 1 381 16 view .LVU99
 414 0093 EB12     		jmp	.L37
 415              	.LVL31:
 416              		.p2align 4,,10
 417 0095 0F1F00   		.p2align 3
 418              	.L58:
 419              		.loc 1 381 16 view .LVU100
 420 0098 83E901   		subl	$1, %ecx
 421              	.LVL32:
 422              	.L38:
 382:fltk-1.3.4-1/png/pngwutil.c ****          {
 383:fltk-1.3.4-1/png/pngwutil.c ****             half_window_size >>= 1;
 423              		.loc 1 383 13 is_stmt 1 view .LVU101
 424              		.loc 1 383 30 is_stmt 0 view .LVU102
 425 009b D1E8     		shrl	%eax
 426              	.LVL33:
 384:fltk-1.3.4-1/png/pngwutil.c ****             --windowBits;
 427              		.loc 1 384 13 is_stmt 1 view .LVU103
 428              		.loc 1 384 13 is_stmt 0 view .LVU104
 429 009d 4189CD   		movl	%ecx, %r13d
 381:fltk-1.3.4-1/png/pngwutil.c ****          {
 430              		.loc 1 381 16 is_stmt 1 view .LVU105
 381:fltk-1.3.4-1/png/pngwutil.c ****          {
 431              		.loc 1 381 33 is_stmt 0 view .LVU106
 432 00a0 89C6     		movl	%eax, %esi
 381:fltk-1.3.4-1/png/pngwutil.c ****          {
 433              		.loc 1 381 16 view .LVU107
 434 00a2 4839DE   		cmpq	%rbx, %rsi
 435 00a5 73F1     		jnb	.L58
 436              	.LVL34:
 437              	.L37:
 381:fltk-1.3.4-1/png/pngwutil.c ****          {
 438              		.loc 1 381 16 view .LVU108
 439              	.LBE216:
 385:fltk-1.3.4-1/png/pngwutil.c ****          }
 386:fltk-1.3.4-1/png/pngwutil.c ****       }
 387:fltk-1.3.4-1/png/pngwutil.c **** 
 388:fltk-1.3.4-1/png/pngwutil.c ****       /* Check against the previous initialized values, if any. */
 389:fltk-1.3.4-1/png/pngwutil.c ****       if ((png_ptr->flags & PNG_FLAG_ZSTREAM_INITIALIZED) != 0 &&
 440              		.loc 1 389 7 is_stmt 1 view .LVU109
 441              		.loc 1 389 10 is_stmt 0 view .LVU110
 442 00a7 83E702   		andl	$2, %edi
 443 00aa 488D9D40 		leaq	320(%rbp), %rbx
 443      010000
 444 00b1 7441     		je	.L55
 445              		.loc 1 389 64 discriminator 1 view .LVU111
 446 00b3 4439B5E4 		cmpl	%r14d, 484(%rbp)
 446      010000
 447 00ba 750D     		jne	.L40
 390:fltk-1.3.4-1/png/pngwutil.c ****          (png_ptr->zlib_set_level != level ||
 448              		.loc 1 390 44 view .LVU112
 449 00bc 4439BDE8 		cmpl	%r15d, 488(%rbp)
 449      010000
 450 00c3 0F846F01 		je	.L59
 450      0000
 451              	.L40:
 391:fltk-1.3.4-1/png/pngwutil.c ****          png_ptr->zlib_set_method != method ||
 392:fltk-1.3.4-1/png/pngwutil.c ****          png_ptr->zlib_set_window_bits != windowBits ||
 393:fltk-1.3.4-1/png/pngwutil.c ****          png_ptr->zlib_set_mem_level != memLevel ||
 394:fltk-1.3.4-1/png/pngwutil.c ****          png_ptr->zlib_set_strategy != strategy))
 395:fltk-1.3.4-1/png/pngwutil.c ****       {
 396:fltk-1.3.4-1/png/pngwutil.c ****          if (deflateEnd(&png_ptr->zstream) != Z_OK)
 452              		.loc 1 396 14 view .LVU113
 453 00c9 4889DF   		movq	%rbx, %rdi
 454 00cc 44894C24 		movl	%r9d, 12(%rsp)
 454      0C
 455 00d1 44894424 		movl	%r8d, 8(%rsp)
 455      08
 456              		.loc 1 396 10 is_stmt 1 view .LVU114
 457              		.loc 1 396 14 is_stmt 0 view .LVU115
 458 00d6 E8000000 		call	deflateEnd@PLT
 458      00
 459              	.LVL35:
 460              		.loc 1 396 13 view .LVU116
 461 00db 448B4424 		movl	8(%rsp), %r8d
 461      08
 462 00e0 448B4C24 		movl	12(%rsp), %r9d
 462      0C
 463 00e5 85C0     		testl	%eax, %eax
 464 00e7 0F85B301 		jne	.L60
 464      0000
 465              	.L42:
 397:fltk-1.3.4-1/png/pngwutil.c ****             png_warning(png_ptr, "deflateEnd failed (ignored)");
 398:fltk-1.3.4-1/png/pngwutil.c **** 
 399:fltk-1.3.4-1/png/pngwutil.c ****          png_ptr->flags &= ~PNG_FLAG_ZSTREAM_INITIALIZED;
 466              		.loc 1 399 10 is_stmt 1 view .LVU117
 467              		.loc 1 399 25 is_stmt 0 view .LVU118
 468 00ed 83A53001 		andl	$-3, 304(%rbp)
 468      0000FD
 469              	.LVL36:
 470              	.L55:
 400:fltk-1.3.4-1/png/pngwutil.c ****       }
 401:fltk-1.3.4-1/png/pngwutil.c **** 
 402:fltk-1.3.4-1/png/pngwutil.c ****       /* For safety clear out the input and output pointers (currently zlib
 403:fltk-1.3.4-1/png/pngwutil.c ****        * doesn't use them on Init, but it might in the future).
 404:fltk-1.3.4-1/png/pngwutil.c ****        */
 405:fltk-1.3.4-1/png/pngwutil.c ****       png_ptr->zstream.next_in = NULL;
 471              		.loc 1 405 7 is_stmt 1 view .LVU119
 406:fltk-1.3.4-1/png/pngwutil.c ****       png_ptr->zstream.avail_in = 0;
 407:fltk-1.3.4-1/png/pngwutil.c ****       png_ptr->zstream.next_out = NULL;
 408:fltk-1.3.4-1/png/pngwutil.c ****       png_ptr->zstream.avail_out = 0;
 409:fltk-1.3.4-1/png/pngwutil.c **** 
 410:fltk-1.3.4-1/png/pngwutil.c ****       /* Now initialize if required, setting the new parameters, otherwise just
 411:fltk-1.3.4-1/png/pngwutil.c ****        * to a simple reset to the previous parameters.
 412:fltk-1.3.4-1/png/pngwutil.c ****        */
 413:fltk-1.3.4-1/png/pngwutil.c ****       if ((png_ptr->flags & PNG_FLAG_ZSTREAM_INITIALIZED) != 0)
 414:fltk-1.3.4-1/png/pngwutil.c ****          ret = deflateReset(&png_ptr->zstream);
 415:fltk-1.3.4-1/png/pngwutil.c **** 
 416:fltk-1.3.4-1/png/pngwutil.c ****       else
 417:fltk-1.3.4-1/png/pngwutil.c ****       {
 418:fltk-1.3.4-1/png/pngwutil.c ****          ret = deflateInit2(&png_ptr->zstream, level, method, windowBits,
 472              		.loc 1 418 16 is_stmt 0 view .LVU120
 473 00f4 488D0500 		leaq	.LC3(%rip), %rax
 473      000000
 474 00fb 6A70     		pushq	$112
 475              		.cfi_def_cfa_offset 168
 476 00fd 4489E9   		movl	%r13d, %ecx
 477 0100 4489FA   		movl	%r15d, %edx
 478 0103 50       		pushq	%rax
 479              		.cfi_def_cfa_offset 176
 480 0104 4489F6   		movl	%r14d, %esi
 481 0107 4889DF   		movq	%rbx, %rdi
 405:fltk-1.3.4-1/png/pngwutil.c ****       png_ptr->zstream.avail_in = 0;
 482              		.loc 1 405 32 view .LVU121
 483 010a 48C78540 		movq	$0, 320(%rbp)
 483      01000000 
 483      000000
 406:fltk-1.3.4-1/png/pngwutil.c ****       png_ptr->zstream.avail_in = 0;
 484              		.loc 1 406 7 is_stmt 1 view .LVU122
 406:fltk-1.3.4-1/png/pngwutil.c ****       png_ptr->zstream.avail_in = 0;
 485              		.loc 1 406 33 is_stmt 0 view .LVU123
 486 0115 C7854801 		movl	$0, 328(%rbp)
 486      00000000 
 486      0000
 407:fltk-1.3.4-1/png/pngwutil.c ****       png_ptr->zstream.avail_out = 0;
 487              		.loc 1 407 7 is_stmt 1 view .LVU124
 407:fltk-1.3.4-1/png/pngwutil.c ****       png_ptr->zstream.avail_out = 0;
 488              		.loc 1 407 33 is_stmt 0 view .LVU125
 489 011f 48C78558 		movq	$0, 344(%rbp)
 489      01000000 
 489      000000
 408:fltk-1.3.4-1/png/pngwutil.c **** 
 490              		.loc 1 408 7 is_stmt 1 view .LVU126
 408:fltk-1.3.4-1/png/pngwutil.c **** 
 491              		.loc 1 408 34 is_stmt 0 view .LVU127
 492 012a C7856001 		movl	$0, 352(%rbp)
 492      00000000 
 492      0000
 413:fltk-1.3.4-1/png/pngwutil.c ****          ret = deflateReset(&png_ptr->zstream);
 493              		.loc 1 413 7 is_stmt 1 view .LVU128
 494              		.loc 1 418 10 view .LVU129
 495              		.loc 1 418 16 is_stmt 0 view .LVU130
 496 0134 E8000000 		call	deflateInit2_@PLT
 496      00
 497              	.LVL37:
 419:fltk-1.3.4-1/png/pngwutil.c ****             memLevel, strategy);
 420:fltk-1.3.4-1/png/pngwutil.c **** 
 421:fltk-1.3.4-1/png/pngwutil.c ****          if (ret == Z_OK)
 498              		.loc 1 421 10 is_stmt 1 view .LVU131
 499              		.loc 1 421 13 is_stmt 0 view .LVU132
 500 0139 5A       		popq	%rdx
 501              		.cfi_def_cfa_offset 168
 502 013a 59       		popq	%rcx
 503              		.cfi_def_cfa_offset 160
 504 013b 85C0     		testl	%eax, %eax
 505 013d 7439     		je	.L61
 506              	.L43:
 422:fltk-1.3.4-1/png/pngwutil.c ****             png_ptr->flags |= PNG_FLAG_ZSTREAM_INITIALIZED;
 423:fltk-1.3.4-1/png/pngwutil.c ****       }
 424:fltk-1.3.4-1/png/pngwutil.c **** 
 425:fltk-1.3.4-1/png/pngwutil.c ****       /* The return code is from either deflateReset or deflateInit2; they have
 426:fltk-1.3.4-1/png/pngwutil.c ****        * pretty much the same set of error codes.
 427:fltk-1.3.4-1/png/pngwutil.c ****        */
 428:fltk-1.3.4-1/png/pngwutil.c ****       if (ret == Z_OK)
 429:fltk-1.3.4-1/png/pngwutil.c ****          png_ptr->zowner = owner;
 430:fltk-1.3.4-1/png/pngwutil.c **** 
 431:fltk-1.3.4-1/png/pngwutil.c ****       else
 432:fltk-1.3.4-1/png/pngwutil.c ****          png_zstream_error(png_ptr, ret);
 507              		.loc 1 432 10 is_stmt 1 view .LVU133
 508 013f 89C6     		movl	%eax, %esi
 509 0141 4889EF   		movq	%rbp, %rdi
 510 0144 89442408 		movl	%eax, 8(%rsp)
 511 0148 E8000000 		call	png_zstream_error@PLT
 511      00
 512              	.LVL38:
 513              		.loc 1 432 10 is_stmt 0 view .LVU134
 514 014d 8B442408 		movl	8(%rsp), %eax
 515              	.LVL39:
 516              	.L30:
 517              		.loc 1 432 10 view .LVU135
 518              	.LBE215:
 433:fltk-1.3.4-1/png/pngwutil.c **** 
 434:fltk-1.3.4-1/png/pngwutil.c ****       return ret;
 435:fltk-1.3.4-1/png/pngwutil.c ****    }
 436:fltk-1.3.4-1/png/pngwutil.c **** }
 519              		.loc 1 436 1 view .LVU136
 520 0151 488B5424 		movq	88(%rsp), %rdx
 520      58
 521 0156 64483314 		xorq	%fs:40, %rdx
 521      25280000 
 521      00
 522 015f 0F857101 		jne	.L62
 522      0000
 523 0165 4883C468 		addq	$104, %rsp
 524              		.cfi_remember_state
 525              		.cfi_def_cfa_offset 56
 526 0169 5B       		popq	%rbx
 527              		.cfi_def_cfa_offset 48
 528 016a 5D       		popq	%rbp
 529              		.cfi_def_cfa_offset 40
 530              	.LVL40:
 531              		.loc 1 436 1 view .LVU137
 532 016b 415C     		popq	%r12
 533              		.cfi_def_cfa_offset 32
 534              	.LVL41:
 535              		.loc 1 436 1 view .LVU138
 536 016d 415D     		popq	%r13
 537              		.cfi_def_cfa_offset 24
 538 016f 415E     		popq	%r14
 539              		.cfi_def_cfa_offset 16
 540 0171 415F     		popq	%r15
 541              		.cfi_def_cfa_offset 8
 542 0173 C3       		ret
 543              	.LVL42:
 544              		.p2align 4,,10
 545 0174 0F1F4000 		.p2align 3
 546              	.L61:
 547              		.cfi_restore_state
 548              	.LBB217:
 422:fltk-1.3.4-1/png/pngwutil.c ****             png_ptr->flags |= PNG_FLAG_ZSTREAM_INITIALIZED;
 549              		.loc 1 422 13 is_stmt 1 view .LVU139
 422:fltk-1.3.4-1/png/pngwutil.c ****             png_ptr->flags |= PNG_FLAG_ZSTREAM_INITIALIZED;
 550              		.loc 1 422 28 is_stmt 0 view .LVU140
 551 0178 838D3001 		orl	$2, 304(%rbp)
 551      000002
 552              	.LVL43:
 428:fltk-1.3.4-1/png/pngwutil.c ****          png_ptr->zowner = owner;
 553              		.loc 1 428 7 is_stmt 1 view .LVU141
 554              	.L44:
 429:fltk-1.3.4-1/png/pngwutil.c **** 
 555              		.loc 1 429 10 view .LVU142
 429:fltk-1.3.4-1/png/pngwutil.c **** 
 556              		.loc 1 429 26 is_stmt 0 view .LVU143
 557 017f 4489A538 		movl	%r12d, 312(%rbp)
 557      010000
 558 0186 31C0     		xorl	%eax, %eax
 559 0188 EBC7     		jmp	.L30
 560              	.LVL44:
 561 018a 660F1F44 		.p2align 4,,10
 561      0000
 562              		.p2align 3
 563              	.L57:
 328:fltk-1.3.4-1/png/pngwutil.c ****       int method = png_ptr->zlib_method;
 564              		.loc 1 328 11 view .LVU144
 565 0190 448BB5BC 		movl	444(%rbp), %r14d
 565      010000
 329:fltk-1.3.4-1/png/pngwutil.c ****       int windowBits = png_ptr->zlib_window_bits;
 566              		.loc 1 329 11 view .LVU145
 567 0197 448BBDC0 		movl	448(%rbp), %r15d
 567      010000
 330:fltk-1.3.4-1/png/pngwutil.c ****       int memLevel = png_ptr->zlib_mem_level;
 568              		.loc 1 330 11 view .LVU146
 569 019e 448BADC4 		movl	452(%rbp), %r13d
 569      010000
 331:fltk-1.3.4-1/png/pngwutil.c ****       int strategy; /* set below */
 570              		.loc 1 331 11 view .LVU147
 571 01a5 448B85C8 		movl	456(%rbp), %r8d
 571      010000
 337:fltk-1.3.4-1/png/pngwutil.c ****             strategy = png_ptr->zlib_strategy;
 572              		.loc 1 337 10 is_stmt 1 view .LVU148
 337:fltk-1.3.4-1/png/pngwutil.c ****             strategy = png_ptr->zlib_strategy;
 573              		.loc 1 337 13 is_stmt 0 view .LVU149
 574 01ac 40F6C701 		testb	$1, %dil
 575 01b0 746E     		je	.L35
 338:fltk-1.3.4-1/png/pngwutil.c **** 
 576              		.loc 1 338 13 is_stmt 1 view .LVU150
 338:fltk-1.3.4-1/png/pngwutil.c **** 
 577              		.loc 1 338 22 is_stmt 0 view .LVU151
 578 01b2 448B8DCC 		movl	460(%rbp), %r9d
 578      010000
 579              	.LVL45:
 338:fltk-1.3.4-1/png/pngwutil.c **** 
 580              		.loc 1 338 22 view .LVU152
 581 01b9 E9B3FEFF 		jmp	.L36
 581      FF
 582              	.LVL46:
 583 01be 6690     		.p2align 4,,10
 584              		.p2align 3
 585              	.L56:
 338:fltk-1.3.4-1/png/pngwutil.c **** 
 586              		.loc 1 338 22 view .LVU153
 587 01c0 89F2     		movl	%esi, %edx
 588              	.LVL47:
 338:fltk-1.3.4-1/png/pngwutil.c **** 
 589              		.loc 1 338 22 view .LVU154
 590              	.LBE217:
 591              	.LBB218:
 309:fltk-1.3.4-1/png/pngwutil.c **** #endif
 592              		.loc 1 309 13 view .LVU155
 593 01c2 4C8D6C24 		leaq	16(%rsp), %r13
 593      10
 302:fltk-1.3.4-1/png/pngwutil.c ****       msg[5] = ' ';
 594              		.loc 1 302 14 view .LVU156
 595 01c7 BE3A2000 		movl	$8250, %esi
 595      00
 596              	.LVL48:
 302:fltk-1.3.4-1/png/pngwutil.c ****       msg[5] = ' ';
 597              		.loc 1 302 14 view .LVU157
 598 01cc 0FC8     		bswap	%eax
 299:fltk-1.3.4-1/png/pngwutil.c **** 
 599              		.loc 1 299 7 is_stmt 1 view .LVU158
 301:fltk-1.3.4-1/png/pngwutil.c ****       msg[4] = ':';
 600              		.loc 1 301 7 view .LVU159
 309:fltk-1.3.4-1/png/pngwutil.c **** #endif
 601              		.loc 1 309 13 is_stmt 0 view .LVU160
 602 01ce 488D0D00 		leaq	.LC0(%rip), %rcx
 602      000000
 302:fltk-1.3.4-1/png/pngwutil.c ****       msg[5] = ' ';
 603              		.loc 1 302 14 view .LVU161
 604 01d5 66897424 		movw	%si, 20(%rsp)
 604      14
 309:fltk-1.3.4-1/png/pngwutil.c **** #endif
 605              		.loc 1 309 13 view .LVU162
 606 01da 4C89EF   		movq	%r13, %rdi
 607 01dd BE400000 		movl	$64, %esi
 607      00
 608 01e2 0FCA     		bswap	%edx
 301:fltk-1.3.4-1/png/pngwutil.c ****       msg[4] = ':';
 609              		.loc 1 301 7 view .LVU163
 610 01e4 89542410 		movl	%edx, 16(%rsp)
 302:fltk-1.3.4-1/png/pngwutil.c ****       msg[5] = ' ';
 611              		.loc 1 302 7 is_stmt 1 view .LVU164
 303:fltk-1.3.4-1/png/pngwutil.c ****       PNG_STRING_FROM_CHUNK(msg+6, png_ptr->zowner);
 612              		.loc 1 303 7 view .LVU165
 304:fltk-1.3.4-1/png/pngwutil.c ****       /* So the message that results is "<chunk> using zstream"; this is an
 613              		.loc 1 304 7 view .LVU166
 309:fltk-1.3.4-1/png/pngwutil.c **** #endif
 614              		.loc 1 309 13 is_stmt 0 view .LVU167
 615 01e8 BA0A0000 		movl	$10, %edx
 615      00
 304:fltk-1.3.4-1/png/pngwutil.c ****       /* So the message that results is "<chunk> using zstream"; this is an
 616              		.loc 1 304 7 view .LVU168
 617 01ed 89442416 		movl	%eax, 22(%rsp)
 309:fltk-1.3.4-1/png/pngwutil.c **** #endif
 618              		.loc 1 309 7 is_stmt 1 view .LVU169
 309:fltk-1.3.4-1/png/pngwutil.c **** #endif
 619              		.loc 1 309 13 is_stmt 0 view .LVU170
 620 01f1 E8000000 		call	png_safecat@PLT
 620      00
 621              	.LVL49:
 312:fltk-1.3.4-1/png/pngwutil.c **** 
 622              		.loc 1 312 10 is_stmt 1 view .LVU171
 623 01f6 4C89EE   		movq	%r13, %rsi
 624 01f9 4889EF   		movq	%rbp, %rdi
 625 01fc E8000000 		call	png_warning@PLT
 625      00
 626              	.LVL50:
 315:fltk-1.3.4-1/png/pngwutil.c ****          {
 627              		.loc 1 315 10 view .LVU172
 315:fltk-1.3.4-1/png/pngwutil.c ****          {
 628              		.loc 1 315 13 is_stmt 0 view .LVU173
 629 0201 81BD3801 		cmpl	$1229209940, 312(%rbp)
 629      00005441 
 629      4449
 630 020b 0F84AD00 		je	.L63
 630      0000
 321:fltk-1.3.4-1/png/pngwutil.c **** #else
 631              		.loc 1 321 10 is_stmt 1 view .LVU174
 321:fltk-1.3.4-1/png/pngwutil.c **** #else
 632              		.loc 1 321 26 is_stmt 0 view .LVU175
 633 0211 C7853801 		movl	$0, 312(%rbp)
 633      00000000 
 633      0000
 634 021b E91BFEFF 		jmp	.L31
 634      FF
 635              	.LVL51:
 636              		.p2align 4,,10
 637              		.p2align 3
 638              	.L35:
 321:fltk-1.3.4-1/png/pngwutil.c **** #else
 639              		.loc 1 321 26 view .LVU176
 640              	.LBE218:
 641              	.LBB219:
 340:fltk-1.3.4-1/png/pngwutil.c ****             strategy = PNG_Z_DEFAULT_STRATEGY;
 642              		.loc 1 340 15 is_stmt 1 view .LVU177
 340:fltk-1.3.4-1/png/pngwutil.c ****             strategy = PNG_Z_DEFAULT_STRATEGY;
 643              		.loc 1 340 18 is_stmt 0 view .LVU178
 644 0220 4531C9   		xorl	%r9d, %r9d
 645 0223 80BD7602 		cmpb	$8, 630(%rbp)
 645      000008
 646 022a 410F95C1 		setne	%r9b
 647 022e E93EFEFF 		jmp	.L36
 647      FF
 648              	.LVL52:
 649              		.p2align 4,,10
 650 0233 0F1F4400 		.p2align 3
 650      00
 651              	.L59:
 391:fltk-1.3.4-1/png/pngwutil.c ****          png_ptr->zlib_set_window_bits != windowBits ||
 652              		.loc 1 391 45 view .LVU179
 653 0238 4439ADEC 		cmpl	%r13d, 492(%rbp)
 653      010000
 654 023f 0F8584FE 		jne	.L40
 654      FFFF
 392:fltk-1.3.4-1/png/pngwutil.c ****          png_ptr->zlib_set_mem_level != memLevel ||
 655              		.loc 1 392 54 view .LVU180
 656 0245 443985F0 		cmpl	%r8d, 496(%rbp)
 656      010000
 657 024c 0F8577FE 		jne	.L40
 657      FFFF
 393:fltk-1.3.4-1/png/pngwutil.c ****          png_ptr->zlib_set_strategy != strategy))
 658              		.loc 1 393 50 view .LVU181
 659 0252 44398DF4 		cmpl	%r9d, 500(%rbp)
 659      010000
 660 0259 0F856AFE 		jne	.L40
 660      FFFF
 405:fltk-1.3.4-1/png/pngwutil.c ****       png_ptr->zstream.avail_in = 0;
 661              		.loc 1 405 7 is_stmt 1 view .LVU182
 405:fltk-1.3.4-1/png/pngwutil.c ****       png_ptr->zstream.avail_in = 0;
 662              		.loc 1 405 32 is_stmt 0 view .LVU183
 663 025f 48C78540 		movq	$0, 320(%rbp)
 663      01000000 
 663      000000
 406:fltk-1.3.4-1/png/pngwutil.c ****       png_ptr->zstream.next_out = NULL;
 664              		.loc 1 406 7 is_stmt 1 view .LVU184
 414:fltk-1.3.4-1/png/pngwutil.c **** 
 665              		.loc 1 414 16 is_stmt 0 view .LVU185
 666 026a 4889DF   		movq	%rbx, %rdi
 406:fltk-1.3.4-1/png/pngwutil.c ****       png_ptr->zstream.next_out = NULL;
 667              		.loc 1 406 33 view .LVU186
 668 026d C7854801 		movl	$0, 328(%rbp)
 668      00000000 
 668      0000
 407:fltk-1.3.4-1/png/pngwutil.c ****       png_ptr->zstream.avail_out = 0;
 669              		.loc 1 407 7 is_stmt 1 view .LVU187
 407:fltk-1.3.4-1/png/pngwutil.c ****       png_ptr->zstream.avail_out = 0;
 670              		.loc 1 407 33 is_stmt 0 view .LVU188
 671 0277 48C78558 		movq	$0, 344(%rbp)
 671      01000000 
 671      000000
 408:fltk-1.3.4-1/png/pngwutil.c **** 
 672              		.loc 1 408 7 is_stmt 1 view .LVU189
 408:fltk-1.3.4-1/png/pngwutil.c **** 
 673              		.loc 1 408 34 is_stmt 0 view .LVU190
 674 0282 C7856001 		movl	$0, 352(%rbp)
 674      00000000 
 674      0000
 413:fltk-1.3.4-1/png/pngwutil.c ****          ret = deflateReset(&png_ptr->zstream);
 675              		.loc 1 413 7 is_stmt 1 view .LVU191
 414:fltk-1.3.4-1/png/pngwutil.c **** 
 676              		.loc 1 414 10 view .LVU192
 414:fltk-1.3.4-1/png/pngwutil.c **** 
 677              		.loc 1 414 16 is_stmt 0 view .LVU193
 678 028c E8000000 		call	deflateReset@PLT
 678      00
 679              	.LVL53:
 428:fltk-1.3.4-1/png/pngwutil.c ****          png_ptr->zowner = owner;
 680              		.loc 1 428 7 is_stmt 1 view .LVU194
 428:fltk-1.3.4-1/png/pngwutil.c ****          png_ptr->zowner = owner;
 681              		.loc 1 428 10 is_stmt 0 view .LVU195
 682 0291 85C0     		testl	%eax, %eax
 683 0293 0F84E6FE 		je	.L44
 683      FFFF
 684 0299 E9A1FEFF 		jmp	.L43
 684      FF
 685              	.LVL54:
 686 029e 6690     		.p2align 4,,10
 687              		.p2align 3
 688              	.L60:
 397:fltk-1.3.4-1/png/pngwutil.c **** 
 689              		.loc 1 397 13 is_stmt 1 view .LVU196
 690 02a0 488D3500 		leaq	.LC2(%rip), %rsi
 690      000000
 691 02a7 4889EF   		movq	%rbp, %rdi
 692 02aa E8000000 		call	png_warning@PLT
 692      00
 693              	.LVL55:
 694 02af 448B4C24 		movl	12(%rsp), %r9d
 694      0C
 695 02b4 448B4424 		movl	8(%rsp), %r8d
 695      08
 696 02b9 E92FFEFF 		jmp	.L42
 696      FF
 697              	.LVL56:
 698              	.L63:
 397:fltk-1.3.4-1/png/pngwutil.c **** 
 699              		.loc 1 397 13 is_stmt 0 view .LVU197
 700              	.LBE219:
 701              	.LBB220:
 317:fltk-1.3.4-1/png/pngwutil.c ****             return Z_STREAM_ERROR;
 702              		.loc 1 317 13 is_stmt 1 view .LVU198
 317:fltk-1.3.4-1/png/pngwutil.c ****             return Z_STREAM_ERROR;
 703              		.loc 1 317 34 is_stmt 0 view .LVU199
 704 02be 488D0500 		leaq	.LC1(%rip), %rax
 704      000000
 705 02c5 48898570 		movq	%rax, 368(%rbp)
 705      010000
 318:fltk-1.3.4-1/png/pngwutil.c ****          }
 706              		.loc 1 318 13 is_stmt 1 view .LVU200
 318:fltk-1.3.4-1/png/pngwutil.c ****          }
 707              		.loc 1 318 20 is_stmt 0 view .LVU201
 708 02cc B8FEFFFF 		movl	$-2, %eax
 708      FF
 709 02d1 E97BFEFF 		jmp	.L30
 709      FF
 710              	.LVL57:
 711              	.L62:
 318:fltk-1.3.4-1/png/pngwutil.c ****          }
 712              		.loc 1 318 20 view .LVU202
 713              	.LBE220:
 714              		.loc 1 436 1 view .LVU203
 715 02d6 E8000000 		call	__stack_chk_fail@PLT
 715      00
 716              	.LVL58:
 717              		.cfi_endproc
 718              	.LFE52:
 720              		.section	.text.optimize_cmf.part.0,"ax",@progbits
 721              		.p2align 4
 723              	optimize_cmf.part.0:
 724              	.LVL59:
 725              	.LFB84:
 251:fltk-1.3.4-1/png/pngwutil.c **** {
 726              		.loc 1 251 1 is_stmt 1 view -0
 727              		.cfi_startproc
 728              	.LBB221:
 258:fltk-1.3.4-1/png/pngwutil.c **** 
 729              		.loc 1 258 7 view .LVU205
 258:fltk-1.3.4-1/png/pngwutil.c **** 
 730              		.loc 1 258 32 is_stmt 0 view .LVU206
 731 0000 0FB607   		movzbl	(%rdi), %eax
 732              	.LVL60:
 260:fltk-1.3.4-1/png/pngwutil.c ****       {
 733              		.loc 1 260 7 is_stmt 1 view .LVU207
 734 0003 4189C0   		movl	%eax, %r8d
 735 0006 4183E00F 		andl	$15, %r8d
 260:fltk-1.3.4-1/png/pngwutil.c ****       {
 736              		.loc 1 260 10 is_stmt 0 view .LVU208
 737 000a 4180F808 		cmpb	$8, %r8b
 738 000e 7408     		je	.L70
 739              	.LVL61:
 740              	.L64:
 260:fltk-1.3.4-1/png/pngwutil.c ****       {
 741              		.loc 1 260 10 view .LVU209
 742              	.LBE221:
 288:fltk-1.3.4-1/png/pngwutil.c **** #endif /* WRITE_OPTIMIZE_CMF */
 743              		.loc 1 288 1 view .LVU210
 744 0010 C3       		ret
 745              	.LVL62:
 746              		.p2align 4,,10
 747 0011 0F1F8000 		.p2align 3
 747      000000
 748              	.L70:
 749              	.LBB224:
 260:fltk-1.3.4-1/png/pngwutil.c ****       {
 750              		.loc 1 260 31 view .LVU211
 751 0018 89C2     		movl	%eax, %edx
 752 001a 83E2F0   		andl	$-16, %edx
 753 001d 80FA70   		cmpb	$112, %dl
 754 0020 77EE     		ja	.L64
 755              	.LBB222:
 262:fltk-1.3.4-1/png/pngwutil.c ****          unsigned int half_z_window_size;
 756              		.loc 1 262 10 is_stmt 1 view .LVU212
 263:fltk-1.3.4-1/png/pngwutil.c **** 
 757              		.loc 1 263 10 view .LVU213
 265:fltk-1.3.4-1/png/pngwutil.c ****          half_z_window_size = 1U << (z_cinfo + 7);
 758              		.loc 1 265 10 view .LVU214
 265:fltk-1.3.4-1/png/pngwutil.c ****          half_z_window_size = 1U << (z_cinfo + 7);
 759              		.loc 1 265 18 is_stmt 0 view .LVU215
 760 0022 C1E804   		shrl	$4, %eax
 761              	.LVL63:
 266:fltk-1.3.4-1/png/pngwutil.c **** 
 762              		.loc 1 266 10 is_stmt 1 view .LVU216
 266:fltk-1.3.4-1/png/pngwutil.c **** 
 763              		.loc 1 266 29 is_stmt 0 view .LVU217
 764 0025 BA010000 		movl	$1, %edx
 764      00
 266:fltk-1.3.4-1/png/pngwutil.c **** 
 765              		.loc 1 266 46 view .LVU218
 766 002a 8D4807   		leal	7(%rax), %ecx
 266:fltk-1.3.4-1/png/pngwutil.c **** 
 767              		.loc 1 266 29 view .LVU219
 768 002d D3E2     		sall	%cl, %edx
 769              	.LVL64:
 268:fltk-1.3.4-1/png/pngwutil.c ****          {
 770              		.loc 1 268 10 is_stmt 1 view .LVU220
 268:fltk-1.3.4-1/png/pngwutil.c ****          {
 771              		.loc 1 268 24 is_stmt 0 view .LVU221
 772 002f 89D1     		movl	%edx, %ecx
 268:fltk-1.3.4-1/png/pngwutil.c ****          {
 773              		.loc 1 268 13 view .LVU222
 774 0031 4839F1   		cmpq	%rsi, %rcx
 775 0034 72DA     		jb	.L64
 776 0036 EB0F     		jmp	.L67
 777 0038 0F1F8400 		.p2align 4,,10
 777      00000000 
 778              		.p2align 3
 779              	.L72:
 780              	.LBB223:
 277:fltk-1.3.4-1/png/pngwutil.c **** 
 781              		.loc 1 277 45 view .LVU223
 782 0040 89D1     		movl	%edx, %ecx
 277:fltk-1.3.4-1/png/pngwutil.c **** 
 783              		.loc 1 277 32 view .LVU224
 784 0042 4839CE   		cmpq	%rcx, %rsi
 785 0045 7749     		ja	.L71
 786              	.L67:
 270:fltk-1.3.4-1/png/pngwutil.c **** 
 787              		.loc 1 270 13 is_stmt 1 view .LVU225
 272:fltk-1.3.4-1/png/pngwutil.c ****             {
 788              		.loc 1 272 13 view .LVU226
 274:fltk-1.3.4-1/png/pngwutil.c ****                --z_cinfo;
 789              		.loc 1 274 16 view .LVU227
 274:fltk-1.3.4-1/png/pngwutil.c ****                --z_cinfo;
 790              		.loc 1 274 35 is_stmt 0 view .LVU228
 791 0047 D1EA     		shrl	%edx
 792              	.LVL65:
 275:fltk-1.3.4-1/png/pngwutil.c ****             }
 793              		.loc 1 275 16 is_stmt 1 view .LVU229
 277:fltk-1.3.4-1/png/pngwutil.c **** 
 794              		.loc 1 277 19 view .LVU230
 277:fltk-1.3.4-1/png/pngwutil.c **** 
 795              		.loc 1 277 13 is_stmt 0 view .LVU231
 796 0049 83E801   		subl	$1, %eax
 797              	.LVL66:
 277:fltk-1.3.4-1/png/pngwutil.c **** 
 798              		.loc 1 277 13 view .LVU232
 799 004c 75F2     		jne	.L72
 800 004e B8000800 		movl	$2048, %eax
 800      00
 801              	.LVL67:
 802              	.L66:
 279:fltk-1.3.4-1/png/pngwutil.c **** 
 803              		.loc 1 279 13 is_stmt 1 view .LVU233
 281:fltk-1.3.4-1/png/pngwutil.c ****             tmp = data[1] & 0xe0;
 804              		.loc 1 281 13 view .LVU234
 282:fltk-1.3.4-1/png/pngwutil.c ****             tmp += 0x1f - ((z_cmf << 8) + tmp) % 0x1f;
 805              		.loc 1 282 17 is_stmt 0 view .LVU235
 806 0053 0FB64F01 		movzbl	1(%rdi), %ecx
 281:fltk-1.3.4-1/png/pngwutil.c ****             tmp = data[1] & 0xe0;
 807              		.loc 1 281 21 view .LVU236
 808 0057 448807   		movb	%r8b, (%rdi)
 282:fltk-1.3.4-1/png/pngwutil.c ****             tmp += 0x1f - ((z_cmf << 8) + tmp) % 0x1f;
 809              		.loc 1 282 13 is_stmt 1 view .LVU237
 282:fltk-1.3.4-1/png/pngwutil.c ****             tmp += 0x1f - ((z_cmf << 8) + tmp) % 0x1f;
 810              		.loc 1 282 17 is_stmt 0 view .LVU238
 811 005a 81E1E000 		andl	$224, %ecx
 811      0000
 812              	.LVL68:
 283:fltk-1.3.4-1/png/pngwutil.c ****             data[1] = (png_byte)tmp;
 813              		.loc 1 283 13 is_stmt 1 view .LVU239
 283:fltk-1.3.4-1/png/pngwutil.c ****             data[1] = (png_byte)tmp;
 814              		.loc 1 283 41 is_stmt 0 view .LVU240
 815 0060 8D1408   		leal	(%rax,%rcx), %edx
 816              	.LVL69:
 283:fltk-1.3.4-1/png/pngwutil.c ****             data[1] = (png_byte)tmp;
 817              		.loc 1 283 41 view .LVU241
 818 0063 4889D0   		movq	%rdx, %rax
 283:fltk-1.3.4-1/png/pngwutil.c ****             data[1] = (png_byte)tmp;
 819              		.loc 1 283 48 view .LVU242
 820 0066 4869D285 		imulq	$138547333, %rdx, %rdx
 820      104208
 821 006d 29C1     		subl	%eax, %ecx
 822              	.LVL70:
 283:fltk-1.3.4-1/png/pngwutil.c ****             data[1] = (png_byte)tmp;
 823              		.loc 1 283 48 view .LVU243
 824 006f 48C1EA20 		shrq	$32, %rdx
 825 0073 4889D6   		movq	%rdx, %rsi
 826              	.LVL71:
 283:fltk-1.3.4-1/png/pngwutil.c ****             data[1] = (png_byte)tmp;
 827              		.loc 1 283 48 view .LVU244
 828 0076 89C2     		movl	%eax, %edx
 829 0078 29F2     		subl	%esi, %edx
 830 007a D1EA     		shrl	%edx
 831 007c 01F2     		addl	%esi, %edx
 832 007e C1EA04   		shrl	$4, %edx
 833 0081 89D6     		movl	%edx, %esi
 834 0083 C1E605   		sall	$5, %esi
 835 0086 29D6     		subl	%edx, %esi
 284:fltk-1.3.4-1/png/pngwutil.c ****          }
 836              		.loc 1 284 13 is_stmt 1 view .LVU245
 283:fltk-1.3.4-1/png/pngwutil.c ****             data[1] = (png_byte)tmp;
 837              		.loc 1 283 17 is_stmt 0 view .LVU246
 838 0088 8D44311F 		leal	31(%rcx,%rsi), %eax
 284:fltk-1.3.4-1/png/pngwutil.c ****          }
 839              		.loc 1 284 23 view .LVU247
 840 008c 884701   		movb	%al, 1(%rdi)
 841              	.LBE223:
 842              	.LBE222:
 843              	.LBE224:
 288:fltk-1.3.4-1/png/pngwutil.c **** #endif /* WRITE_OPTIMIZE_CMF */
 844              		.loc 1 288 1 view .LVU248
 845 008f C3       		ret
 846              	.LVL72:
 847              		.p2align 4,,10
 848              		.p2align 3
 849              	.L71:
 288:fltk-1.3.4-1/png/pngwutil.c **** #endif /* WRITE_OPTIMIZE_CMF */
 850              		.loc 1 288 1 view .LVU249
 851 0090 C1E004   		sall	$4, %eax
 852              	.LVL73:
 288:fltk-1.3.4-1/png/pngwutil.c **** #endif /* WRITE_OPTIMIZE_CMF */
 853              		.loc 1 288 1 view .LVU250
 854 0093 83C808   		orl	$8, %eax
 855 0096 4189C0   		movl	%eax, %r8d
 856 0099 C1E008   		sall	$8, %eax
 857 009c EBB5     		jmp	.L66
 858              		.cfi_endproc
 859              	.LFE84:
 861              		.section	.rodata.png_check_keyword.part.0.str1.1,"aMS",@progbits,1
 862              	.LC4:
 863 0000 6B657977 		.string	"keyword truncated"
 863      6F726420 
 863      7472756E 
 863      63617465 
 863      6400
 864              		.section	.rodata.png_check_keyword.part.0.str1.8,"aMS",@progbits,1
 865              		.align 8
 866              	.LC5:
 867 0000 6B657977 		.string	"keyword \"@1\": bad character '0x@2'"
 867      6F726420 
 867      22403122 
 867      3A206261 
 867      64206368 
 868              		.section	.text.png_check_keyword.part.0,"ax",@progbits
 869              		.p2align 4
 871              	png_check_keyword.part.0:
 872              	.LVL74:
 873              	.LFB85:
 437:fltk-1.3.4-1/png/pngwutil.c **** 
 438:fltk-1.3.4-1/png/pngwutil.c **** /* Clean up (or trim) a linked list of compression buffers. */
 439:fltk-1.3.4-1/png/pngwutil.c **** void /* PRIVATE */
 440:fltk-1.3.4-1/png/pngwutil.c **** png_free_buffer_list(png_structrp png_ptr, png_compression_bufferp *listp)
 441:fltk-1.3.4-1/png/pngwutil.c **** {
 442:fltk-1.3.4-1/png/pngwutil.c ****    png_compression_bufferp list = *listp;
 443:fltk-1.3.4-1/png/pngwutil.c **** 
 444:fltk-1.3.4-1/png/pngwutil.c ****    if (list != NULL)
 445:fltk-1.3.4-1/png/pngwutil.c ****    {
 446:fltk-1.3.4-1/png/pngwutil.c ****       *listp = NULL;
 447:fltk-1.3.4-1/png/pngwutil.c **** 
 448:fltk-1.3.4-1/png/pngwutil.c ****       do
 449:fltk-1.3.4-1/png/pngwutil.c ****       {
 450:fltk-1.3.4-1/png/pngwutil.c ****          png_compression_bufferp next = list->next;
 451:fltk-1.3.4-1/png/pngwutil.c **** 
 452:fltk-1.3.4-1/png/pngwutil.c ****          png_free(png_ptr, list);
 453:fltk-1.3.4-1/png/pngwutil.c ****          list = next;
 454:fltk-1.3.4-1/png/pngwutil.c ****       }
 455:fltk-1.3.4-1/png/pngwutil.c ****       while (list != NULL);
 456:fltk-1.3.4-1/png/pngwutil.c ****    }
 457:fltk-1.3.4-1/png/pngwutil.c **** }
 458:fltk-1.3.4-1/png/pngwutil.c **** 
 459:fltk-1.3.4-1/png/pngwutil.c **** #ifdef PNG_WRITE_COMPRESSED_TEXT_SUPPORTED
 460:fltk-1.3.4-1/png/pngwutil.c **** /* This pair of functions encapsulates the operation of (a) compressing a
 461:fltk-1.3.4-1/png/pngwutil.c ****  * text string, and (b) issuing it later as a series of chunk data writes.
 462:fltk-1.3.4-1/png/pngwutil.c ****  * The compression_state structure is shared context for these functions
 463:fltk-1.3.4-1/png/pngwutil.c ****  * set up by the caller to allow access to the relevant local variables.
 464:fltk-1.3.4-1/png/pngwutil.c ****  *
 465:fltk-1.3.4-1/png/pngwutil.c ****  * compression_buffer (new in 1.6.0) is just a linked list of zbuffer_size
 466:fltk-1.3.4-1/png/pngwutil.c ****  * temporary buffers.  From 1.6.0 it is retained in png_struct so that it will
 467:fltk-1.3.4-1/png/pngwutil.c ****  * be correctly freed in the event of a write error (previous implementations
 468:fltk-1.3.4-1/png/pngwutil.c ****  * just leaked memory.)
 469:fltk-1.3.4-1/png/pngwutil.c ****  */
 470:fltk-1.3.4-1/png/pngwutil.c **** typedef struct
 471:fltk-1.3.4-1/png/pngwutil.c **** {
 472:fltk-1.3.4-1/png/pngwutil.c ****    png_const_bytep      input;        /* The uncompressed input data */
 473:fltk-1.3.4-1/png/pngwutil.c ****    png_alloc_size_t     input_len;    /* Its length */
 474:fltk-1.3.4-1/png/pngwutil.c ****    png_uint_32          output_len;   /* Final compressed length */
 475:fltk-1.3.4-1/png/pngwutil.c ****    png_byte             output[1024]; /* First block of output */
 476:fltk-1.3.4-1/png/pngwutil.c **** } compression_state;
 477:fltk-1.3.4-1/png/pngwutil.c **** 
 478:fltk-1.3.4-1/png/pngwutil.c **** static void
 479:fltk-1.3.4-1/png/pngwutil.c **** png_text_compress_init(compression_state *comp, png_const_bytep input,
 480:fltk-1.3.4-1/png/pngwutil.c ****    png_alloc_size_t input_len)
 481:fltk-1.3.4-1/png/pngwutil.c **** {
 482:fltk-1.3.4-1/png/pngwutil.c ****    comp->input = input;
 483:fltk-1.3.4-1/png/pngwutil.c ****    comp->input_len = input_len;
 484:fltk-1.3.4-1/png/pngwutil.c ****    comp->output_len = 0;
 485:fltk-1.3.4-1/png/pngwutil.c **** }
 486:fltk-1.3.4-1/png/pngwutil.c **** 
 487:fltk-1.3.4-1/png/pngwutil.c **** /* Compress the data in the compression state input */
 488:fltk-1.3.4-1/png/pngwutil.c **** static int
 489:fltk-1.3.4-1/png/pngwutil.c **** png_text_compress(png_structrp png_ptr, png_uint_32 chunk_name,
 490:fltk-1.3.4-1/png/pngwutil.c ****    compression_state *comp, png_uint_32 prefix_len)
 491:fltk-1.3.4-1/png/pngwutil.c **** {
 492:fltk-1.3.4-1/png/pngwutil.c ****    int ret;
 493:fltk-1.3.4-1/png/pngwutil.c **** 
 494:fltk-1.3.4-1/png/pngwutil.c ****    /* To find the length of the output it is necessary to first compress the
 495:fltk-1.3.4-1/png/pngwutil.c ****     * input. The result is buffered rather than using the two-pass algorithm
 496:fltk-1.3.4-1/png/pngwutil.c ****     * that is used on the inflate side; deflate is assumed to be slower and a
 497:fltk-1.3.4-1/png/pngwutil.c ****     * PNG writer is assumed to have more memory available than a PNG reader.
 498:fltk-1.3.4-1/png/pngwutil.c ****     *
 499:fltk-1.3.4-1/png/pngwutil.c ****     * IMPLEMENTATION NOTE: the zlib API deflateBound() can be used to find an
 500:fltk-1.3.4-1/png/pngwutil.c ****     * upper limit on the output size, but it is always bigger than the input
 501:fltk-1.3.4-1/png/pngwutil.c ****     * size so it is likely to be more efficient to use this linked-list
 502:fltk-1.3.4-1/png/pngwutil.c ****     * approach.
 503:fltk-1.3.4-1/png/pngwutil.c ****     */
 504:fltk-1.3.4-1/png/pngwutil.c ****    ret = png_deflate_claim(png_ptr, chunk_name, comp->input_len);
 505:fltk-1.3.4-1/png/pngwutil.c **** 
 506:fltk-1.3.4-1/png/pngwutil.c ****    if (ret != Z_OK)
 507:fltk-1.3.4-1/png/pngwutil.c ****       return ret;
 508:fltk-1.3.4-1/png/pngwutil.c **** 
 509:fltk-1.3.4-1/png/pngwutil.c ****    /* Set up the compression buffers, we need a loop here to avoid overflowing a
 510:fltk-1.3.4-1/png/pngwutil.c ****     * uInt.  Use ZLIB_IO_MAX to limit the input.  The output is always limited
 511:fltk-1.3.4-1/png/pngwutil.c ****     * by the output buffer size, so there is no need to check that.  Since this
 512:fltk-1.3.4-1/png/pngwutil.c ****     * is ANSI-C we know that an 'int', hence a uInt, is always at least 16 bits
 513:fltk-1.3.4-1/png/pngwutil.c ****     * in size.
 514:fltk-1.3.4-1/png/pngwutil.c ****     */
 515:fltk-1.3.4-1/png/pngwutil.c ****    {
 516:fltk-1.3.4-1/png/pngwutil.c ****       png_compression_bufferp *end = &png_ptr->zbuffer_list;
 517:fltk-1.3.4-1/png/pngwutil.c ****       png_alloc_size_t input_len = comp->input_len; /* may be zero! */
 518:fltk-1.3.4-1/png/pngwutil.c ****       png_uint_32 output_len;
 519:fltk-1.3.4-1/png/pngwutil.c **** 
 520:fltk-1.3.4-1/png/pngwutil.c ****       /* zlib updates these for us: */
 521:fltk-1.3.4-1/png/pngwutil.c ****       png_ptr->zstream.next_in = PNGZ_INPUT_CAST(comp->input);
 522:fltk-1.3.4-1/png/pngwutil.c ****       png_ptr->zstream.avail_in = 0; /* Set below */
 523:fltk-1.3.4-1/png/pngwutil.c ****       png_ptr->zstream.next_out = comp->output;
 524:fltk-1.3.4-1/png/pngwutil.c ****       png_ptr->zstream.avail_out = (sizeof comp->output);
 525:fltk-1.3.4-1/png/pngwutil.c **** 
 526:fltk-1.3.4-1/png/pngwutil.c ****       output_len = png_ptr->zstream.avail_out;
 527:fltk-1.3.4-1/png/pngwutil.c **** 
 528:fltk-1.3.4-1/png/pngwutil.c ****       do
 529:fltk-1.3.4-1/png/pngwutil.c ****       {
 530:fltk-1.3.4-1/png/pngwutil.c ****          uInt avail_in = ZLIB_IO_MAX;
 531:fltk-1.3.4-1/png/pngwutil.c **** 
 532:fltk-1.3.4-1/png/pngwutil.c ****          if (avail_in > input_len)
 533:fltk-1.3.4-1/png/pngwutil.c ****             avail_in = (uInt)input_len;
 534:fltk-1.3.4-1/png/pngwutil.c **** 
 535:fltk-1.3.4-1/png/pngwutil.c ****          input_len -= avail_in;
 536:fltk-1.3.4-1/png/pngwutil.c **** 
 537:fltk-1.3.4-1/png/pngwutil.c ****          png_ptr->zstream.avail_in = avail_in;
 538:fltk-1.3.4-1/png/pngwutil.c **** 
 539:fltk-1.3.4-1/png/pngwutil.c ****          if (png_ptr->zstream.avail_out == 0)
 540:fltk-1.3.4-1/png/pngwutil.c ****          {
 541:fltk-1.3.4-1/png/pngwutil.c ****             png_compression_buffer *next;
 542:fltk-1.3.4-1/png/pngwutil.c **** 
 543:fltk-1.3.4-1/png/pngwutil.c ****             /* Chunk data is limited to 2^31 bytes in length, so the prefix
 544:fltk-1.3.4-1/png/pngwutil.c ****              * length must be counted here.
 545:fltk-1.3.4-1/png/pngwutil.c ****              */
 546:fltk-1.3.4-1/png/pngwutil.c ****             if (output_len + prefix_len > PNG_UINT_31_MAX)
 547:fltk-1.3.4-1/png/pngwutil.c ****             {
 548:fltk-1.3.4-1/png/pngwutil.c ****                ret = Z_MEM_ERROR;
 549:fltk-1.3.4-1/png/pngwutil.c ****                break;
 550:fltk-1.3.4-1/png/pngwutil.c ****             }
 551:fltk-1.3.4-1/png/pngwutil.c **** 
 552:fltk-1.3.4-1/png/pngwutil.c ****             /* Need a new (malloc'ed) buffer, but there may be one present
 553:fltk-1.3.4-1/png/pngwutil.c ****              * already.
 554:fltk-1.3.4-1/png/pngwutil.c ****              */
 555:fltk-1.3.4-1/png/pngwutil.c ****             next = *end;
 556:fltk-1.3.4-1/png/pngwutil.c ****             if (next == NULL)
 557:fltk-1.3.4-1/png/pngwutil.c ****             {
 558:fltk-1.3.4-1/png/pngwutil.c ****                next = png_voidcast(png_compression_bufferp, png_malloc_base
 559:fltk-1.3.4-1/png/pngwutil.c ****                   (png_ptr, PNG_COMPRESSION_BUFFER_SIZE(png_ptr)));
 560:fltk-1.3.4-1/png/pngwutil.c **** 
 561:fltk-1.3.4-1/png/pngwutil.c ****                if (next == NULL)
 562:fltk-1.3.4-1/png/pngwutil.c ****                {
 563:fltk-1.3.4-1/png/pngwutil.c ****                   ret = Z_MEM_ERROR;
 564:fltk-1.3.4-1/png/pngwutil.c ****                   break;
 565:fltk-1.3.4-1/png/pngwutil.c ****                }
 566:fltk-1.3.4-1/png/pngwutil.c **** 
 567:fltk-1.3.4-1/png/pngwutil.c ****                /* Link in this buffer (so that it will be freed later) */
 568:fltk-1.3.4-1/png/pngwutil.c ****                next->next = NULL;
 569:fltk-1.3.4-1/png/pngwutil.c ****                *end = next;
 570:fltk-1.3.4-1/png/pngwutil.c ****             }
 571:fltk-1.3.4-1/png/pngwutil.c **** 
 572:fltk-1.3.4-1/png/pngwutil.c ****             png_ptr->zstream.next_out = next->output;
 573:fltk-1.3.4-1/png/pngwutil.c ****             png_ptr->zstream.avail_out = png_ptr->zbuffer_size;
 574:fltk-1.3.4-1/png/pngwutil.c ****             output_len += png_ptr->zstream.avail_out;
 575:fltk-1.3.4-1/png/pngwutil.c **** 
 576:fltk-1.3.4-1/png/pngwutil.c ****             /* Move 'end' to the next buffer pointer. */
 577:fltk-1.3.4-1/png/pngwutil.c ****             end = &next->next;
 578:fltk-1.3.4-1/png/pngwutil.c ****          }
 579:fltk-1.3.4-1/png/pngwutil.c **** 
 580:fltk-1.3.4-1/png/pngwutil.c ****          /* Compress the data */
 581:fltk-1.3.4-1/png/pngwutil.c ****          ret = deflate(&png_ptr->zstream,
 582:fltk-1.3.4-1/png/pngwutil.c ****             input_len > 0 ? Z_NO_FLUSH : Z_FINISH);
 583:fltk-1.3.4-1/png/pngwutil.c **** 
 584:fltk-1.3.4-1/png/pngwutil.c ****          /* Claw back input data that was not consumed (because avail_in is
 585:fltk-1.3.4-1/png/pngwutil.c ****           * reset above every time round the loop).
 586:fltk-1.3.4-1/png/pngwutil.c ****           */
 587:fltk-1.3.4-1/png/pngwutil.c ****          input_len += png_ptr->zstream.avail_in;
 588:fltk-1.3.4-1/png/pngwutil.c ****          png_ptr->zstream.avail_in = 0; /* safety */
 589:fltk-1.3.4-1/png/pngwutil.c ****       }
 590:fltk-1.3.4-1/png/pngwutil.c ****       while (ret == Z_OK);
 591:fltk-1.3.4-1/png/pngwutil.c **** 
 592:fltk-1.3.4-1/png/pngwutil.c ****       /* There may be some space left in the last output buffer. This needs to
 593:fltk-1.3.4-1/png/pngwutil.c ****        * be subtracted from output_len.
 594:fltk-1.3.4-1/png/pngwutil.c ****        */
 595:fltk-1.3.4-1/png/pngwutil.c ****       output_len -= png_ptr->zstream.avail_out;
 596:fltk-1.3.4-1/png/pngwutil.c ****       png_ptr->zstream.avail_out = 0; /* safety */
 597:fltk-1.3.4-1/png/pngwutil.c ****       comp->output_len = output_len;
 598:fltk-1.3.4-1/png/pngwutil.c **** 
 599:fltk-1.3.4-1/png/pngwutil.c ****       /* Now double check the output length, put in a custom message if it is
 600:fltk-1.3.4-1/png/pngwutil.c ****        * too long.  Otherwise ensure the z_stream::msg pointer is set to
 601:fltk-1.3.4-1/png/pngwutil.c ****        * something.
 602:fltk-1.3.4-1/png/pngwutil.c ****        */
 603:fltk-1.3.4-1/png/pngwutil.c ****       if (output_len + prefix_len >= PNG_UINT_31_MAX)
 604:fltk-1.3.4-1/png/pngwutil.c ****       {
 605:fltk-1.3.4-1/png/pngwutil.c ****          png_ptr->zstream.msg = PNGZ_MSG_CAST("compressed data too long");
 606:fltk-1.3.4-1/png/pngwutil.c ****          ret = Z_MEM_ERROR;
 607:fltk-1.3.4-1/png/pngwutil.c ****       }
 608:fltk-1.3.4-1/png/pngwutil.c **** 
 609:fltk-1.3.4-1/png/pngwutil.c ****       else
 610:fltk-1.3.4-1/png/pngwutil.c ****          png_zstream_error(png_ptr, ret);
 611:fltk-1.3.4-1/png/pngwutil.c **** 
 612:fltk-1.3.4-1/png/pngwutil.c ****       /* Reset zlib for another zTXt/iTXt or image data */
 613:fltk-1.3.4-1/png/pngwutil.c ****       png_ptr->zowner = 0;
 614:fltk-1.3.4-1/png/pngwutil.c **** 
 615:fltk-1.3.4-1/png/pngwutil.c ****       /* The only success case is Z_STREAM_END, input_len must be 0; if not this
 616:fltk-1.3.4-1/png/pngwutil.c ****        * is an internal error.
 617:fltk-1.3.4-1/png/pngwutil.c ****        */
 618:fltk-1.3.4-1/png/pngwutil.c ****       if (ret == Z_STREAM_END && input_len == 0)
 619:fltk-1.3.4-1/png/pngwutil.c ****       {
 620:fltk-1.3.4-1/png/pngwutil.c **** #ifdef PNG_WRITE_OPTIMIZE_CMF_SUPPORTED
 621:fltk-1.3.4-1/png/pngwutil.c ****          /* Fix up the deflate header, if required */
 622:fltk-1.3.4-1/png/pngwutil.c ****          optimize_cmf(comp->output, comp->input_len);
 623:fltk-1.3.4-1/png/pngwutil.c **** #endif
 624:fltk-1.3.4-1/png/pngwutil.c ****          /* But Z_OK is returned, not Z_STREAM_END; this allows the claim
 625:fltk-1.3.4-1/png/pngwutil.c ****           * function above to return Z_STREAM_END on an error (though it never
 626:fltk-1.3.4-1/png/pngwutil.c ****           * does in the current versions of zlib.)
 627:fltk-1.3.4-1/png/pngwutil.c ****           */
 628:fltk-1.3.4-1/png/pngwutil.c ****          return Z_OK;
 629:fltk-1.3.4-1/png/pngwutil.c ****       }
 630:fltk-1.3.4-1/png/pngwutil.c **** 
 631:fltk-1.3.4-1/png/pngwutil.c ****       else
 632:fltk-1.3.4-1/png/pngwutil.c ****          return ret;
 633:fltk-1.3.4-1/png/pngwutil.c ****    }
 634:fltk-1.3.4-1/png/pngwutil.c **** }
 635:fltk-1.3.4-1/png/pngwutil.c **** 
 636:fltk-1.3.4-1/png/pngwutil.c **** /* Ship the compressed text out via chunk writes */
 637:fltk-1.3.4-1/png/pngwutil.c **** static void
 638:fltk-1.3.4-1/png/pngwutil.c **** png_write_compressed_data_out(png_structrp png_ptr, compression_state *comp)
 639:fltk-1.3.4-1/png/pngwutil.c **** {
 640:fltk-1.3.4-1/png/pngwutil.c ****    png_uint_32 output_len = comp->output_len;
 641:fltk-1.3.4-1/png/pngwutil.c ****    png_const_bytep output = comp->output;
 642:fltk-1.3.4-1/png/pngwutil.c ****    png_uint_32 avail = (sizeof comp->output);
 643:fltk-1.3.4-1/png/pngwutil.c ****    png_compression_buffer *next = png_ptr->zbuffer_list;
 644:fltk-1.3.4-1/png/pngwutil.c **** 
 645:fltk-1.3.4-1/png/pngwutil.c ****    for (;;)
 646:fltk-1.3.4-1/png/pngwutil.c ****    {
 647:fltk-1.3.4-1/png/pngwutil.c ****       if (avail > output_len)
 648:fltk-1.3.4-1/png/pngwutil.c ****          avail = output_len;
 649:fltk-1.3.4-1/png/pngwutil.c **** 
 650:fltk-1.3.4-1/png/pngwutil.c ****       png_write_chunk_data(png_ptr, output, avail);
 651:fltk-1.3.4-1/png/pngwutil.c **** 
 652:fltk-1.3.4-1/png/pngwutil.c ****       output_len -= avail;
 653:fltk-1.3.4-1/png/pngwutil.c **** 
 654:fltk-1.3.4-1/png/pngwutil.c ****       if (output_len == 0 || next == NULL)
 655:fltk-1.3.4-1/png/pngwutil.c ****          break;
 656:fltk-1.3.4-1/png/pngwutil.c **** 
 657:fltk-1.3.4-1/png/pngwutil.c ****       avail = png_ptr->zbuffer_size;
 658:fltk-1.3.4-1/png/pngwutil.c ****       output = next->output;
 659:fltk-1.3.4-1/png/pngwutil.c ****       next = next->next;
 660:fltk-1.3.4-1/png/pngwutil.c ****    }
 661:fltk-1.3.4-1/png/pngwutil.c **** 
 662:fltk-1.3.4-1/png/pngwutil.c ****    /* This is an internal error; 'next' must have been NULL! */
 663:fltk-1.3.4-1/png/pngwutil.c ****    if (output_len > 0)
 664:fltk-1.3.4-1/png/pngwutil.c ****       png_error(png_ptr, "error writing ancillary chunked compressed data");
 665:fltk-1.3.4-1/png/pngwutil.c **** }
 666:fltk-1.3.4-1/png/pngwutil.c **** #endif /* WRITE_COMPRESSED_TEXT */
 667:fltk-1.3.4-1/png/pngwutil.c **** 
 668:fltk-1.3.4-1/png/pngwutil.c **** #if defined(PNG_WRITE_TEXT_SUPPORTED) || defined(PNG_WRITE_pCAL_SUPPORTED) || \
 669:fltk-1.3.4-1/png/pngwutil.c ****     defined(PNG_WRITE_iCCP_SUPPORTED) || defined(PNG_WRITE_sPLT_SUPPORTED)
 670:fltk-1.3.4-1/png/pngwutil.c **** /* Check that the tEXt or zTXt keyword is valid per PNG 1.0 specification,
 671:fltk-1.3.4-1/png/pngwutil.c ****  * and if invalid, correct the keyword rather than discarding the entire
 672:fltk-1.3.4-1/png/pngwutil.c ****  * chunk.  The PNG 1.0 specification requires keywords 1-79 characters in
 673:fltk-1.3.4-1/png/pngwutil.c ****  * length, forbids leading or trailing whitespace, multiple internal spaces,
 674:fltk-1.3.4-1/png/pngwutil.c ****  * and the non-break space (0x80) from ISO 8859-1.  Returns keyword length.
 675:fltk-1.3.4-1/png/pngwutil.c ****  *
 676:fltk-1.3.4-1/png/pngwutil.c ****  * The 'new_key' buffer must be 80 characters in size (for the keyword plus a
 677:fltk-1.3.4-1/png/pngwutil.c ****  * trailing '\0').  If this routine returns 0 then there was no keyword, or a
 678:fltk-1.3.4-1/png/pngwutil.c ****  * valid one could not be generated, and the caller must png_error.
 679:fltk-1.3.4-1/png/pngwutil.c ****  */
 680:fltk-1.3.4-1/png/pngwutil.c **** static png_uint_32
 681:fltk-1.3.4-1/png/pngwutil.c **** png_check_keyword(png_structrp png_ptr, png_const_charp key, png_bytep new_key)
 874              		.loc 1 681 1 is_stmt 1 view -0
 875              		.cfi_startproc
 876              		.loc 1 681 1 is_stmt 0 view .LVU252
 877 0000 4156     		pushq	%r14
 878              		.cfi_def_cfa_offset 16
 879              		.cfi_offset 14, -16
 880 0002 4155     		pushq	%r13
 881              		.cfi_def_cfa_offset 24
 882              		.cfi_offset 13, -24
 883 0004 4154     		pushq	%r12
 884              		.cfi_def_cfa_offset 32
 885              		.cfi_offset 12, -32
 886 0006 55       		pushq	%rbp
 887              		.cfi_def_cfa_offset 40
 888              		.cfi_offset 6, -40
 889 0007 4881EC18 		subq	$280, %rsp
 889      010000
 890              		.cfi_def_cfa_offset 320
 891              		.loc 1 681 1 view .LVU253
 892 000e 64488B04 		movq	%fs:40, %rax
 892      25280000 
 892      00
 893 0017 48898424 		movq	%rax, 264(%rsp)
 893      08010000 
 894 001f 31C0     		xorl	%eax, %eax
 895              	.LVL75:
 682:fltk-1.3.4-1/png/pngwutil.c **** {
 683:fltk-1.3.4-1/png/pngwutil.c ****    png_const_charp orig_key = key;
 684:fltk-1.3.4-1/png/pngwutil.c ****    png_uint_32 key_len = 0;
 685:fltk-1.3.4-1/png/pngwutil.c ****    int bad_character = 0;
 686:fltk-1.3.4-1/png/pngwutil.c ****    int space = 1;
 687:fltk-1.3.4-1/png/pngwutil.c **** 
 688:fltk-1.3.4-1/png/pngwutil.c ****    png_debug(1, "in png_check_keyword");
 689:fltk-1.3.4-1/png/pngwutil.c **** 
 690:fltk-1.3.4-1/png/pngwutil.c ****    if (key == NULL)
 691:fltk-1.3.4-1/png/pngwutil.c ****    {
 692:fltk-1.3.4-1/png/pngwutil.c ****       *new_key = 0;
 693:fltk-1.3.4-1/png/pngwutil.c ****       return 0;
 694:fltk-1.3.4-1/png/pngwutil.c ****    }
 695:fltk-1.3.4-1/png/pngwutil.c **** 
 696:fltk-1.3.4-1/png/pngwutil.c ****    while (*key && key_len < 79)
 896              		.loc 1 696 10 is_stmt 1 view .LVU254
 897              		.loc 1 696 11 is_stmt 0 view .LVU255
 898 0021 0FB606   		movzbl	(%rsi), %eax
 899              		.loc 1 696 16 view .LVU256
 900 0024 84C0     		testb	%al, %al
 901 0026 0F845401 		je	.L105
 901      0000
 902 002c 4889FD   		movq	%rdi, %rbp
 903 002f 4889F1   		movq	%rsi, %rcx
 685:fltk-1.3.4-1/png/pngwutil.c ****    int space = 1;
 904              		.loc 1 685 8 view .LVU257
 905 0032 4531ED   		xorl	%r13d, %r13d
 686:fltk-1.3.4-1/png/pngwutil.c **** 
 906              		.loc 1 686 8 view .LVU258
 907 0035 41B80100 		movl	$1, %r8d
 907      0000
 684:fltk-1.3.4-1/png/pngwutil.c ****    int bad_character = 0;
 908              		.loc 1 684 16 view .LVU259
 909 003b 4531E4   		xorl	%r12d, %r12d
 910 003e EB36     		jmp	.L74
 911              	.LVL76:
 912              		.p2align 4,,10
 913              		.p2align 3
 914              	.L76:
 915              	.LBB225:
 697:fltk-1.3.4-1/png/pngwutil.c ****    {
 698:fltk-1.3.4-1/png/pngwutil.c ****       png_byte ch = (png_byte)(0xff & *key++);
 699:fltk-1.3.4-1/png/pngwutil.c **** 
 700:fltk-1.3.4-1/png/pngwutil.c ****       if ((ch > 32 && ch <= 126) || (ch >= 161 /*&& ch <= 255*/))
 701:fltk-1.3.4-1/png/pngwutil.c ****          *new_key++ = ch, ++key_len, space = 0;
 702:fltk-1.3.4-1/png/pngwutil.c **** 
 703:fltk-1.3.4-1/png/pngwutil.c ****       else if (space == 0)
 916              		.loc 1 703 12 is_stmt 1 view .LVU260
 917              		.loc 1 703 15 is_stmt 0 view .LVU261
 918 0040 4585C0   		testl	%r8d, %r8d
 919 0043 0F85AF00 		jne	.L79
 919      0000
 704:fltk-1.3.4-1/png/pngwutil.c ****       {
 705:fltk-1.3.4-1/png/pngwutil.c ****          /* A space or an invalid character when one wasn't seen immediately
 706:fltk-1.3.4-1/png/pngwutil.c ****           * before; output just a space.
 707:fltk-1.3.4-1/png/pngwutil.c ****           */
 708:fltk-1.3.4-1/png/pngwutil.c ****          *new_key++ = 32, ++key_len, space = 1;
 920              		.loc 1 708 10 is_stmt 1 view .LVU262
 921              		.loc 1 708 21 is_stmt 0 view .LVU263
 922 0049 C60220   		movb	$32, (%rdx)
 923              		.loc 1 708 18 view .LVU264
 924 004c 488D7A01 		leaq	1(%rdx), %rdi
 925              	.LVL77:
 926              		.loc 1 708 27 view .LVU265
 927 0050 4183C401 		addl	$1, %r12d
 928              	.LVL78:
 709:fltk-1.3.4-1/png/pngwutil.c **** 
 710:fltk-1.3.4-1/png/pngwutil.c ****          /* If the character was not a space then it is invalid. */
 711:fltk-1.3.4-1/png/pngwutil.c ****          if (ch != 32)
 929              		.loc 1 711 10 is_stmt 1 view .LVU266
 930              		.loc 1 711 13 is_stmt 0 view .LVU267
 931 0054 3C20     		cmpb	$32, %al
 932 0056 0F84AC00 		je	.L85
 932      0000
 712:fltk-1.3.4-1/png/pngwutil.c ****             bad_character = ch;
 933              		.loc 1 712 13 is_stmt 1 view .LVU268
 934              		.loc 1 712 27 is_stmt 0 view .LVU269
 935 005c 440FB6E8 		movzbl	%al, %r13d
 936              	.LVL79:
 708:fltk-1.3.4-1/png/pngwutil.c **** 
 937              		.loc 1 708 18 view .LVU270
 938 0060 4889FA   		movq	%rdi, %rdx
 708:fltk-1.3.4-1/png/pngwutil.c **** 
 939              		.loc 1 708 44 view .LVU271
 940 0063 41B80100 		movl	$1, %r8d
 940      0000
 941              	.LVL80:
 942              	.L78:
 708:fltk-1.3.4-1/png/pngwutil.c **** 
 943              		.loc 1 708 44 view .LVU272
 944              	.LBE225:
 696:fltk-1.3.4-1/png/pngwutil.c ****    {
 945              		.loc 1 696 10 is_stmt 1 view .LVU273
 696:fltk-1.3.4-1/png/pngwutil.c ****    {
 946              		.loc 1 696 11 is_stmt 0 view .LVU274
 947 0069 0FB601   		movzbl	(%rcx), %eax
 948              	.LVL81:
 696:fltk-1.3.4-1/png/pngwutil.c ****    {
 949              		.loc 1 696 16 view .LVU275
 950 006c 84C0     		testb	%al, %al
 951 006e 742B     		je	.L87
 952              	.L106:
 696:fltk-1.3.4-1/png/pngwutil.c ****    {
 953              		.loc 1 696 16 view .LVU276
 954 0070 4183FC4E 		cmpl	$78, %r12d
 955 0074 7725     		ja	.L87
 956              	.LVL82:
 957              	.L74:
 958              	.LBB226:
 698:fltk-1.3.4-1/png/pngwutil.c **** 
 959              		.loc 1 698 7 is_stmt 1 view .LVU277
 700:fltk-1.3.4-1/png/pngwutil.c ****          *new_key++ = ch, ++key_len, space = 0;
 960              		.loc 1 700 20 is_stmt 0 view .LVU278
 961 0076 8D78DF   		leal	-33(%rax), %edi
 698:fltk-1.3.4-1/png/pngwutil.c **** 
 962              		.loc 1 698 43 view .LVU279
 963 0079 4883C101 		addq	$1, %rcx
 964              	.LVL83:
 700:fltk-1.3.4-1/png/pngwutil.c ****          *new_key++ = ch, ++key_len, space = 0;
 965              		.loc 1 700 7 is_stmt 1 view .LVU280
 700:fltk-1.3.4-1/png/pngwutil.c ****          *new_key++ = ch, ++key_len, space = 0;
 966              		.loc 1 700 10 is_stmt 0 view .LVU281
 967 007d 4080FF5D 		cmpb	$93, %dil
 968 0081 7604     		jbe	.L86
 700:fltk-1.3.4-1/png/pngwutil.c ****          *new_key++ = ch, ++key_len, space = 0;
 969              		.loc 1 700 10 view .LVU282
 970 0083 3CA0     		cmpb	$-96, %al
 971 0085 76B9     		jbe	.L76
 972              	.L86:
 701:fltk-1.3.4-1/png/pngwutil.c **** 
 973              		.loc 1 701 10 is_stmt 1 view .LVU283
 974              	.LVL84:
 701:fltk-1.3.4-1/png/pngwutil.c **** 
 975              		.loc 1 701 21 is_stmt 0 view .LVU284
 976 0087 8802     		movb	%al, (%rdx)
 977              	.LBE226:
 696:fltk-1.3.4-1/png/pngwutil.c ****    {
 978              		.loc 1 696 11 view .LVU285
 979 0089 0FB601   		movzbl	(%rcx), %eax
 980              	.LVL85:
 981              	.LBB227:
 701:fltk-1.3.4-1/png/pngwutil.c **** 
 982              		.loc 1 701 27 view .LVU286
 983 008c 4183C401 		addl	$1, %r12d
 984              	.LVL86:
 701:fltk-1.3.4-1/png/pngwutil.c **** 
 985              		.loc 1 701 18 view .LVU287
 986 0090 4883C201 		addq	$1, %rdx
 987              	.LVL87:
 701:fltk-1.3.4-1/png/pngwutil.c **** 
 988              		.loc 1 701 44 view .LVU288
 989 0094 4531C0   		xorl	%r8d, %r8d
 990              	.LVL88:
 701:fltk-1.3.4-1/png/pngwutil.c **** 
 991              		.loc 1 701 44 view .LVU289
 992              	.LBE227:
 696:fltk-1.3.4-1/png/pngwutil.c ****    {
 993              		.loc 1 696 10 is_stmt 1 view .LVU290
 696:fltk-1.3.4-1/png/pngwutil.c ****    {
 994              		.loc 1 696 16 is_stmt 0 view .LVU291
 995 0097 84C0     		testb	%al, %al
 996 0099 75D5     		jne	.L106
 997              	.LVL89:
 998              	.L87:
 713:fltk-1.3.4-1/png/pngwutil.c ****       }
 714:fltk-1.3.4-1/png/pngwutil.c **** 
 715:fltk-1.3.4-1/png/pngwutil.c ****       else if (bad_character == 0)
 716:fltk-1.3.4-1/png/pngwutil.c ****          bad_character = ch; /* just skip it, record the first error */
 717:fltk-1.3.4-1/png/pngwutil.c ****    }
 718:fltk-1.3.4-1/png/pngwutil.c **** 
 719:fltk-1.3.4-1/png/pngwutil.c ****    if (key_len > 0 && space != 0) /* trailing space */
 999              		.loc 1 719 4 is_stmt 1 view .LVU292
 1000              		.loc 1 719 7 is_stmt 0 view .LVU293
 1001 009b 4585E4   		testl	%r12d, %r12d
 1002 009e 7419     		je	.L81
 1003              		.loc 1 719 7 view .LVU294
 1004 00a0 4585C0   		testl	%r8d, %r8d
 1005 00a3 7414     		je	.L81
 720:fltk-1.3.4-1/png/pngwutil.c ****    {
 721:fltk-1.3.4-1/png/pngwutil.c ****       --key_len, --new_key;
 1006              		.loc 1 721 7 is_stmt 1 view .LVU295
 1007 00a5 4183EC01 		subl	$1, %r12d
 1008              	.LVL90:
 1009              		.loc 1 721 18 is_stmt 0 view .LVU296
 1010 00a9 4883EA01 		subq	$1, %rdx
 1011              	.LVL91:
 722:fltk-1.3.4-1/png/pngwutil.c ****       if (bad_character == 0)
 1012              		.loc 1 722 7 is_stmt 1 view .LVU297
 723:fltk-1.3.4-1/png/pngwutil.c ****          bad_character = 32;
 1013              		.loc 1 723 24 is_stmt 0 view .LVU298
 1014 00ad B8200000 		movl	$32, %eax
 1014      00
 1015 00b2 4585ED   		testl	%r13d, %r13d
 1016 00b5 440F44E8 		cmove	%eax, %r13d
 1017              	.LVL92:
 1018              	.L81:
 724:fltk-1.3.4-1/png/pngwutil.c ****    }
 725:fltk-1.3.4-1/png/pngwutil.c **** 
 726:fltk-1.3.4-1/png/pngwutil.c ****    /* Terminate the keyword */
 727:fltk-1.3.4-1/png/pngwutil.c ****    *new_key = 0;
 1019              		.loc 1 727 4 is_stmt 1 view .LVU299
 1020              		.loc 1 727 13 is_stmt 0 view .LVU300
 1021 00b9 C60200   		movb	$0, (%rdx)
 728:fltk-1.3.4-1/png/pngwutil.c **** 
 729:fltk-1.3.4-1/png/pngwutil.c ****    if (key_len == 0)
 1022              		.loc 1 729 4 is_stmt 1 view .LVU301
 1023              		.loc 1 729 7 is_stmt 0 view .LVU302
 1024 00bc 4585E4   		testl	%r12d, %r12d
 1025 00bf 740A     		je	.L73
 730:fltk-1.3.4-1/png/pngwutil.c ****       return 0;
 731:fltk-1.3.4-1/png/pngwutil.c **** 
 732:fltk-1.3.4-1/png/pngwutil.c **** #ifdef PNG_WARNINGS_SUPPORTED
 733:fltk-1.3.4-1/png/pngwutil.c ****    /* Try to only output one warning per keyword: */
 734:fltk-1.3.4-1/png/pngwutil.c ****    if (*key != 0) /* keyword too long */
 1026              		.loc 1 734 4 is_stmt 1 view .LVU303
 1027              		.loc 1 734 7 is_stmt 0 view .LVU304
 1028 00c1 803900   		cmpb	$0, (%rcx)
 1029 00c4 755A     		jne	.L107
 735:fltk-1.3.4-1/png/pngwutil.c ****       png_warning(png_ptr, "keyword truncated");
 736:fltk-1.3.4-1/png/pngwutil.c **** 
 737:fltk-1.3.4-1/png/pngwutil.c ****    else if (bad_character != 0)
 1030              		.loc 1 737 9 is_stmt 1 view .LVU305
 1031              		.loc 1 737 12 is_stmt 0 view .LVU306
 1032 00c6 4585ED   		testl	%r13d, %r13d
 1033 00c9 756D     		jne	.L108
 1034              	.LVL93:
 1035              	.L73:
 738:fltk-1.3.4-1/png/pngwutil.c ****    {
 739:fltk-1.3.4-1/png/pngwutil.c ****       PNG_WARNING_PARAMETERS(p)
 740:fltk-1.3.4-1/png/pngwutil.c **** 
 741:fltk-1.3.4-1/png/pngwutil.c ****       png_warning_parameter(p, 1, orig_key);
 742:fltk-1.3.4-1/png/pngwutil.c ****       png_warning_parameter_signed(p, 2, PNG_NUMBER_FORMAT_02x, bad_character);
 743:fltk-1.3.4-1/png/pngwutil.c **** 
 744:fltk-1.3.4-1/png/pngwutil.c ****       png_formatted_warning(png_ptr, p, "keyword \"@1\": bad character '0x@2'");
 745:fltk-1.3.4-1/png/pngwutil.c ****    }
 746:fltk-1.3.4-1/png/pngwutil.c **** #endif /* WARNINGS */
 747:fltk-1.3.4-1/png/pngwutil.c **** 
 748:fltk-1.3.4-1/png/pngwutil.c ****    return key_len;
 749:fltk-1.3.4-1/png/pngwutil.c **** }
 1036              		.loc 1 749 1 view .LVU307
 1037 00cb 488B8424 		movq	264(%rsp), %rax
 1037      08010000 
 1038 00d3 64483304 		xorq	%fs:40, %rax
 1038      25280000 
 1038      00
 1039 00dc 0F85A900 		jne	.L109
 1039      0000
 1040 00e2 4881C418 		addq	$280, %rsp
 1040      010000
 1041              		.cfi_remember_state
 1042              		.cfi_def_cfa_offset 40
 1043 00e9 4489E0   		movl	%r12d, %eax
 1044 00ec 5D       		popq	%rbp
 1045              		.cfi_def_cfa_offset 32
 1046 00ed 415C     		popq	%r12
 1047              		.cfi_def_cfa_offset 24
 1048 00ef 415D     		popq	%r13
 1049              		.cfi_def_cfa_offset 16
 1050 00f1 415E     		popq	%r14
 1051              		.cfi_def_cfa_offset 8
 1052 00f3 C3       		ret
 1053              	.LVL94:
 1054              		.p2align 4,,10
 1055 00f4 0F1F4000 		.p2align 3
 1056              	.L79:
 1057              		.cfi_restore_state
 1058              	.LBB228:
 715:fltk-1.3.4-1/png/pngwutil.c ****          bad_character = ch; /* just skip it, record the first error */
 1059              		.loc 1 715 12 is_stmt 1 view .LVU308
 716:fltk-1.3.4-1/png/pngwutil.c ****    }
 1060              		.loc 1 716 24 is_stmt 0 view .LVU309
 1061 00f8 4585ED   		testl	%r13d, %r13d
 1062 00fb 440F44E8 		cmove	%eax, %r13d
 1063              	.LVL95:
 716:fltk-1.3.4-1/png/pngwutil.c ****    }
 1064              		.loc 1 716 24 view .LVU310
 1065 00ff E965FFFF 		jmp	.L78
 1065      FF
 1066              	.LVL96:
 1067              		.p2align 4,,10
 1068 0104 0F1F4000 		.p2align 3
 1069              	.L85:
 708:fltk-1.3.4-1/png/pngwutil.c **** 
 1070              		.loc 1 708 18 view .LVU311
 1071 0108 4889FA   		movq	%rdi, %rdx
 708:fltk-1.3.4-1/png/pngwutil.c **** 
 1072              		.loc 1 708 44 view .LVU312
 1073 010b 41B80100 		movl	$1, %r8d
 1073      0000
 1074 0111 E953FFFF 		jmp	.L78
 1074      FF
 1075              	.LVL97:
 1076 0116 662E0F1F 		.p2align 4,,10
 1076      84000000 
 1076      0000
 1077              		.p2align 3
 1078              	.L107:
 708:fltk-1.3.4-1/png/pngwutil.c **** 
 1079              		.loc 1 708 44 view .LVU313
 1080              	.LBE228:
 735:fltk-1.3.4-1/png/pngwutil.c **** 
 1081              		.loc 1 735 7 is_stmt 1 view .LVU314
 1082 0120 488D3500 		leaq	.LC4(%rip), %rsi
 1082      000000
 1083 0127 4889EF   		movq	%rbp, %rdi
 1084 012a E8000000 		call	png_warning@PLT
 1084      00
 1085              	.LVL98:
 735:fltk-1.3.4-1/png/pngwutil.c **** 
 1086              		.loc 1 735 7 is_stmt 0 view .LVU315
 1087 012f EB9A     		jmp	.L73
 1088              	.LVL99:
 1089              		.p2align 4,,10
 1090 0131 0F1F8000 		.p2align 3
 1090      000000
 1091              	.L108:
 1092              	.LBB229:
 739:fltk-1.3.4-1/png/pngwutil.c **** 
 1093              		.loc 1 739 7 is_stmt 1 view .LVU316
 741:fltk-1.3.4-1/png/pngwutil.c ****       png_warning_parameter_signed(p, 2, PNG_NUMBER_FORMAT_02x, bad_character);
 1094              		.loc 1 741 7 view .LVU317
 1095 0138 4989E6   		movq	%rsp, %r14
 1096 013b 4889F2   		movq	%rsi, %rdx
 1097              	.LVL100:
 741:fltk-1.3.4-1/png/pngwutil.c ****       png_warning_parameter_signed(p, 2, PNG_NUMBER_FORMAT_02x, bad_character);
 1098              		.loc 1 741 7 is_stmt 0 view .LVU318
 1099 013e BE010000 		movl	$1, %esi
 1099      00
 1100 0143 4C89F7   		movq	%r14, %rdi
 1101 0146 E8000000 		call	png_warning_parameter@PLT
 1101      00
 1102              	.LVL101:
 742:fltk-1.3.4-1/png/pngwutil.c **** 
 1103              		.loc 1 742 7 is_stmt 1 view .LVU319
 1104 014b 4C89F7   		movq	%r14, %rdi
 1105 014e 4489E9   		movl	%r13d, %ecx
 1106 0151 BA040000 		movl	$4, %edx
 1106      00
 1107 0156 BE020000 		movl	$2, %esi
 1107      00
 1108 015b E8000000 		call	png_warning_parameter_signed@PLT
 1108      00
 1109              	.LVL102:
 744:fltk-1.3.4-1/png/pngwutil.c ****    }
 1110              		.loc 1 744 7 view .LVU320
 1111 0160 488D1500 		leaq	.LC5(%rip), %rdx
 1111      000000
 1112 0167 4C89F6   		movq	%r14, %rsi
 1113 016a 4889EF   		movq	%rbp, %rdi
 1114 016d E8000000 		call	png_formatted_warning@PLT
 1114      00
 1115              	.LVL103:
 1116 0172 E954FFFF 		jmp	.L73
 1116      FF
 1117              	.LVL104:
 1118 0177 660F1F84 		.p2align 4,,10
 1118      00000000 
 1118      00
 1119              		.p2align 3
 1120              	.L105:
 744:fltk-1.3.4-1/png/pngwutil.c ****    }
 1121              		.loc 1 744 7 is_stmt 0 view .LVU321
 1122              	.LBE229:
 727:fltk-1.3.4-1/png/pngwutil.c **** 
 1123              		.loc 1 727 4 is_stmt 1 view .LVU322
 727:fltk-1.3.4-1/png/pngwutil.c **** 
 1124              		.loc 1 727 13 is_stmt 0 view .LVU323
 1125 0180 C60200   		movb	$0, (%rdx)
 729:fltk-1.3.4-1/png/pngwutil.c ****       return 0;
 1126              		.loc 1 729 4 is_stmt 1 view .LVU324
 730:fltk-1.3.4-1/png/pngwutil.c **** 
 1127              		.loc 1 730 14 is_stmt 0 view .LVU325
 1128 0183 4531E4   		xorl	%r12d, %r12d
 1129 0186 E940FFFF 		jmp	.L73
 1129      FF
 1130              	.LVL105:
 1131              	.L109:
 1132              		.loc 1 749 1 view .LVU326
 1133 018b E8000000 		call	__stack_chk_fail@PLT
 1133      00
 1134              	.LVL106:
 1135              		.cfi_endproc
 1136              	.LFE85:
 1138              		.section	.rodata.png_text_compress.str1.1,"aMS",@progbits,1
 1139              	.LC6:
 1140 0000 636F6D70 		.string	"compressed data too long"
 1140      72657373 
 1140      65642064 
 1140      61746120 
 1140      746F6F20 
 1141              		.section	.text.png_text_compress,"ax",@progbits
 1142              		.p2align 4
 1144              	png_text_compress:
 1145              	.LVL107:
 1146              	.LFB55:
 491:fltk-1.3.4-1/png/pngwutil.c ****    int ret;
 1147              		.loc 1 491 1 is_stmt 1 view -0
 1148              		.cfi_startproc
 491:fltk-1.3.4-1/png/pngwutil.c ****    int ret;
 1149              		.loc 1 491 1 is_stmt 0 view .LVU328
 1150 0000 4157     		pushq	%r15
 1151              		.cfi_def_cfa_offset 16
 1152              		.cfi_offset 15, -16
 1153 0002 4989FF   		movq	%rdi, %r15
 492:fltk-1.3.4-1/png/pngwutil.c **** 
 1154              		.loc 1 492 4 is_stmt 1 view .LVU329
 504:fltk-1.3.4-1/png/pngwutil.c **** 
 1155              		.loc 1 504 4 view .LVU330
 491:fltk-1.3.4-1/png/pngwutil.c ****    int ret;
 1156              		.loc 1 491 1 is_stmt 0 view .LVU331
 1157 0005 4156     		pushq	%r14
 1158              		.cfi_def_cfa_offset 24
 1159              		.cfi_offset 14, -24
 1160 0007 4155     		pushq	%r13
 1161              		.cfi_def_cfa_offset 32
 1162              		.cfi_offset 13, -32
 1163 0009 4154     		pushq	%r12
 1164              		.cfi_def_cfa_offset 40
 1165              		.cfi_offset 12, -40
 1166 000b 55       		pushq	%rbp
 1167              		.cfi_def_cfa_offset 48
 1168              		.cfi_offset 6, -48
 1169 000c 53       		pushq	%rbx
 1170              		.cfi_def_cfa_offset 56
 1171              		.cfi_offset 3, -56
 1172 000d 4889D3   		movq	%rdx, %rbx
 1173 0010 4883EC28 		subq	$40, %rsp
 1174              		.cfi_def_cfa_offset 96
 491:fltk-1.3.4-1/png/pngwutil.c ****    int ret;
 1175              		.loc 1 491 1 view .LVU332
 1176 0014 48895424 		movq	%rdx, 8(%rsp)
 1176      08
 504:fltk-1.3.4-1/png/pngwutil.c **** 
 1177              		.loc 1 504 10 view .LVU333
 1178 0019 488B5208 		movq	8(%rdx), %rdx
 1179              	.LVL108:
 491:fltk-1.3.4-1/png/pngwutil.c ****    int ret;
 1180              		.loc 1 491 1 view .LVU334
 1181 001d 890C24   		movl	%ecx, (%rsp)
 504:fltk-1.3.4-1/png/pngwutil.c **** 
 1182              		.loc 1 504 10 view .LVU335
 1183 0020 E8000000 		call	png_deflate_claim
 1183      00
 1184              	.LVL109:
 504:fltk-1.3.4-1/png/pngwutil.c **** 
 1185              		.loc 1 504 10 view .LVU336
 1186 0025 89442404 		movl	%eax, 4(%rsp)
 1187              	.LVL110:
 506:fltk-1.3.4-1/png/pngwutil.c ****       return ret;
 1188              		.loc 1 506 4 is_stmt 1 view .LVU337
 506:fltk-1.3.4-1/png/pngwutil.c ****       return ret;
 1189              		.loc 1 506 7 is_stmt 0 view .LVU338
 1190 0029 85C0     		testl	%eax, %eax
 1191 002b 0F859B01 		jne	.L110
 1191      0000
 1192              	.LVL111:
 1193              	.LBB239:
 1194              	.LBI239:
 489:fltk-1.3.4-1/png/pngwutil.c ****    compression_state *comp, png_uint_32 prefix_len)
 1195              		.loc 1 489 1 is_stmt 1 view .LVU339
 1196              	.LBB240:
 1197              	.LBB241:
 516:fltk-1.3.4-1/png/pngwutil.c ****       png_alloc_size_t input_len = comp->input_len; /* may be zero! */
 1198              		.loc 1 516 7 view .LVU340
 521:fltk-1.3.4-1/png/pngwutil.c ****       png_ptr->zstream.avail_in = 0; /* Set below */
 1199              		.loc 1 521 32 is_stmt 0 view .LVU341
 1200 0031 488B03   		movq	(%rbx), %rax
 1201              	.LVL112:
 517:fltk-1.3.4-1/png/pngwutil.c ****       png_uint_32 output_len;
 1202              		.loc 1 517 24 view .LVU342
 1203 0034 488B5308 		movq	8(%rbx), %rdx
 524:fltk-1.3.4-1/png/pngwutil.c **** 
 1204              		.loc 1 524 34 view .LVU343
 1205 0038 41C78760 		movl	$1024, 352(%r15)
 1205      01000000 
 1205      040000
 516:fltk-1.3.4-1/png/pngwutil.c ****       png_alloc_size_t input_len = comp->input_len; /* may be zero! */
 1206              		.loc 1 516 32 view .LVU344
 1207 0043 498DAFB0 		leaq	432(%r15), %rbp
 1207      010000
 1208              	.LVL113:
 517:fltk-1.3.4-1/png/pngwutil.c ****       png_uint_32 output_len;
 1209              		.loc 1 517 7 is_stmt 1 view .LVU345
 518:fltk-1.3.4-1/png/pngwutil.c **** 
 1210              		.loc 1 518 7 view .LVU346
 521:fltk-1.3.4-1/png/pngwutil.c ****       png_ptr->zstream.avail_in = 0; /* Set below */
 1211              		.loc 1 521 7 view .LVU347
 1212              	.LBB242:
 532:fltk-1.3.4-1/png/pngwutil.c ****             avail_in = (uInt)input_len;
 1213              		.loc 1 532 13 is_stmt 0 view .LVU348
 1214 004a 41BCFEFF 		movl	$4294967294, %r12d
 1214      FFFF
 581:fltk-1.3.4-1/png/pngwutil.c ****             input_len > 0 ? Z_NO_FLUSH : Z_FINISH);
 1215              		.loc 1 581 16 view .LVU349
 1216 0050 4D8DAF40 		leaq	320(%r15), %r13
 1216      010000
 1217              	.LBE242:
 521:fltk-1.3.4-1/png/pngwutil.c ****       png_ptr->zstream.avail_in = 0; /* Set below */
 1218              		.loc 1 521 32 view .LVU350
 1219 0057 49898740 		movq	%rax, 320(%r15)
 1219      010000
 522:fltk-1.3.4-1/png/pngwutil.c ****       png_ptr->zstream.next_out = comp->output;
 1220              		.loc 1 522 7 is_stmt 1 view .LVU351
 523:fltk-1.3.4-1/png/pngwutil.c ****       png_ptr->zstream.avail_out = (sizeof comp->output);
 1221              		.loc 1 523 7 view .LVU352
 523:fltk-1.3.4-1/png/pngwutil.c ****       png_ptr->zstream.avail_out = (sizeof comp->output);
 1222              		.loc 1 523 35 is_stmt 0 view .LVU353
 1223 005e 488D4314 		leaq	20(%rbx), %rax
 526:fltk-1.3.4-1/png/pngwutil.c **** 
 1224              		.loc 1 526 18 view .LVU354
 1225 0062 BB000400 		movl	$1024, %ebx
 1225      00
 1226              	.LVL114:
 523:fltk-1.3.4-1/png/pngwutil.c ****       png_ptr->zstream.avail_out = (sizeof comp->output);
 1227              		.loc 1 523 35 view .LVU355
 1228 0067 48894424 		movq	%rax, 16(%rsp)
 1228      10
 523:fltk-1.3.4-1/png/pngwutil.c ****       png_ptr->zstream.avail_out = (sizeof comp->output);
 1229              		.loc 1 523 33 view .LVU356
 1230 006c 49898758 		movq	%rax, 344(%r15)
 1230      010000
 524:fltk-1.3.4-1/png/pngwutil.c **** 
 1231              		.loc 1 524 7 is_stmt 1 view .LVU357
 526:fltk-1.3.4-1/png/pngwutil.c **** 
 1232              		.loc 1 526 7 view .LVU358
 1233              	.LVL115:
 524:fltk-1.3.4-1/png/pngwutil.c **** 
 1234              		.loc 1 524 34 is_stmt 0 view .LVU359
 1235 0073 B8000400 		movl	$1024, %eax
 1235      00
 1236 0078 E9870000 		jmp	.L119
 1236      00
 1237              	.LVL116:
 1238 007d 0F1F00   		.p2align 4,,10
 1239              		.p2align 3
 1240              	.L137:
 1241              	.LBB246:
 535:fltk-1.3.4-1/png/pngwutil.c **** 
 1242              		.loc 1 535 10 is_stmt 1 view .LVU360
 535:fltk-1.3.4-1/png/pngwutil.c **** 
 1243              		.loc 1 535 20 is_stmt 0 view .LVU361
 1244 0080 48BF0100 		movabsq	$-4294967295, %rdi
 1244      0000FFFF 
 1244      FFFF
 537:fltk-1.3.4-1/png/pngwutil.c **** 
 1245              		.loc 1 537 36 view .LVU362
 1246 008a 41C78748 		movl	$-1, 328(%r15)
 1246      010000FF 
 1246      FFFFFF
 535:fltk-1.3.4-1/png/pngwutil.c **** 
 1247              		.loc 1 535 20 view .LVU363
 1248 0095 4C8D343A 		leaq	(%rdx,%rdi), %r14
 1249              	.LVL117:
 537:fltk-1.3.4-1/png/pngwutil.c **** 
 1250              		.loc 1 537 10 is_stmt 1 view .LVU364
 539:fltk-1.3.4-1/png/pngwutil.c ****          {
 1251              		.loc 1 539 10 view .LVU365
 539:fltk-1.3.4-1/png/pngwutil.c ****          {
 1252              		.loc 1 539 13 is_stmt 0 view .LVU366
 1253 0099 85C0     		testl	%eax, %eax
 1254 009b 7532     		jne	.L113
 1255              	.LVL118:
 1256              	.L121:
 1257              	.LBB243:
 541:fltk-1.3.4-1/png/pngwutil.c **** 
 1258              		.loc 1 541 13 is_stmt 1 view .LVU367
 546:fltk-1.3.4-1/png/pngwutil.c ****             {
 1259              		.loc 1 546 13 view .LVU368
 546:fltk-1.3.4-1/png/pngwutil.c ****             {
 1260              		.loc 1 546 16 is_stmt 0 view .LVU369
 1261 009d 8B0424   		movl	(%rsp), %eax
 1262 00a0 01D8     		addl	%ebx, %eax
 1263 00a2 0F883801 		js	.L124
 1263      0000
 555:fltk-1.3.4-1/png/pngwutil.c ****             if (next == NULL)
 1264              		.loc 1 555 13 is_stmt 1 view .LVU370
 555:fltk-1.3.4-1/png/pngwutil.c ****             if (next == NULL)
 1265              		.loc 1 555 18 is_stmt 0 view .LVU371
 1266 00a8 488B4500 		movq	0(%rbp), %rax
 1267              	.LVL119:
 556:fltk-1.3.4-1/png/pngwutil.c ****             {
 1268              		.loc 1 556 13 is_stmt 1 view .LVU372
 1269 00ac 418BB7B8 		movl	440(%r15), %esi
 1269      010000
 556:fltk-1.3.4-1/png/pngwutil.c ****             {
 1270              		.loc 1 556 16 is_stmt 0 view .LVU373
 1271 00b3 4885C0   		testq	%rax, %rax
 1272 00b6 7470     		je	.L136
 1273              	.L115:
 572:fltk-1.3.4-1/png/pngwutil.c ****             png_ptr->zstream.avail_out = png_ptr->zbuffer_size;
 1274              		.loc 1 572 13 is_stmt 1 view .LVU374
 572:fltk-1.3.4-1/png/pngwutil.c ****             png_ptr->zstream.avail_out = png_ptr->zbuffer_size;
 1275              		.loc 1 572 41 is_stmt 0 view .LVU375
 1276 00b8 488D4808 		leaq	8(%rax), %rcx
 573:fltk-1.3.4-1/png/pngwutil.c ****             output_len += png_ptr->zstream.avail_out;
 1277              		.loc 1 573 40 view .LVU376
 1278 00bc 4189B760 		movl	%esi, 352(%r15)
 1278      010000
 574:fltk-1.3.4-1/png/pngwutil.c **** 
 1279              		.loc 1 574 24 view .LVU377
 1280 00c3 01F3     		addl	%esi, %ebx
 1281              	.LVL120:
 577:fltk-1.3.4-1/png/pngwutil.c ****          }
 1282              		.loc 1 577 17 view .LVU378
 1283 00c5 4889C5   		movq	%rax, %rbp
 1284              	.LVL121:
 572:fltk-1.3.4-1/png/pngwutil.c ****             png_ptr->zstream.avail_out = png_ptr->zbuffer_size;
 1285              		.loc 1 572 41 view .LVU379
 1286 00c8 49898F58 		movq	%rcx, 344(%r15)
 1286      010000
 573:fltk-1.3.4-1/png/pngwutil.c ****             output_len += png_ptr->zstream.avail_out;
 1287              		.loc 1 573 13 is_stmt 1 view .LVU380
 574:fltk-1.3.4-1/png/pngwutil.c **** 
 1288              		.loc 1 574 13 view .LVU381
 1289              	.LVL122:
 577:fltk-1.3.4-1/png/pngwutil.c ****          }
 1290              		.loc 1 577 13 view .LVU382
 1291              	.L113:
 577:fltk-1.3.4-1/png/pngwutil.c ****          }
 1292              		.loc 1 577 13 is_stmt 0 view .LVU383
 1293              	.LBE243:
 581:fltk-1.3.4-1/png/pngwutil.c ****             input_len > 0 ? Z_NO_FLUSH : Z_FINISH);
 1294              		.loc 1 581 10 is_stmt 1 view .LVU384
 581:fltk-1.3.4-1/png/pngwutil.c ****             input_len > 0 ? Z_NO_FLUSH : Z_FINISH);
 1295              		.loc 1 581 16 is_stmt 0 view .LVU385
 1296 00cf 31F6     		xorl	%esi, %esi
 1297 00d1 4D85F6   		testq	%r14, %r14
 1298 00d4 400F94C6 		sete	%sil
 1299 00d8 C1E602   		sall	$2, %esi
 1300              	.L117:
 1301              	.LVL123:
 581:fltk-1.3.4-1/png/pngwutil.c ****             input_len > 0 ? Z_NO_FLUSH : Z_FINISH);
 1302              		.loc 1 581 16 view .LVU386
 1303 00db 4C89EF   		movq	%r13, %rdi
 1304 00de E8000000 		call	deflate@PLT
 1304      00
 1305              	.LVL124:
 587:fltk-1.3.4-1/png/pngwutil.c ****          png_ptr->zstream.avail_in = 0; /* safety */
 1306              		.loc 1 587 10 is_stmt 1 view .LVU387
 587:fltk-1.3.4-1/png/pngwutil.c ****          png_ptr->zstream.avail_in = 0; /* safety */
 1307              		.loc 1 587 39 is_stmt 0 view .LVU388
 1308 00e3 418B8F48 		movl	328(%r15), %ecx
 1308      010000
 588:fltk-1.3.4-1/png/pngwutil.c ****       }
 1309              		.loc 1 588 36 view .LVU389
 1310 00ea 41C78748 		movl	$0, 328(%r15)
 1310      01000000 
 1310      000000
 587:fltk-1.3.4-1/png/pngwutil.c ****          png_ptr->zstream.avail_in = 0; /* safety */
 1311              		.loc 1 587 20 view .LVU390
 1312 00f5 4A8D1431 		leaq	(%rcx,%r14), %rdx
 1313              	.LVL125:
 588:fltk-1.3.4-1/png/pngwutil.c ****       }
 1314              		.loc 1 588 10 is_stmt 1 view .LVU391
 1315              	.LBE246:
 590:fltk-1.3.4-1/png/pngwutil.c **** 
 1316              		.loc 1 590 13 view .LVU392
 590:fltk-1.3.4-1/png/pngwutil.c **** 
 1317              		.loc 1 590 7 is_stmt 0 view .LVU393
 1318 00f9 85C0     		testl	%eax, %eax
 1319 00fb 755B     		jne	.L118
 1320 00fd 418B8760 		movl	352(%r15), %eax
 1320      010000
 1321              	.LVL126:
 1322              	.L119:
 528:fltk-1.3.4-1/png/pngwutil.c ****       {
 1323              		.loc 1 528 7 is_stmt 1 view .LVU394
 1324              	.LBB247:
 530:fltk-1.3.4-1/png/pngwutil.c **** 
 1325              		.loc 1 530 10 view .LVU395
 532:fltk-1.3.4-1/png/pngwutil.c ****             avail_in = (uInt)input_len;
 1326              		.loc 1 532 10 view .LVU396
 532:fltk-1.3.4-1/png/pngwutil.c ****             avail_in = (uInt)input_len;
 1327              		.loc 1 532 13 is_stmt 0 view .LVU397
 1328 0104 4C39E2   		cmpq	%r12, %rdx
 1329 0107 0F8773FF 		ja	.L137
 1329      FFFF
 533:fltk-1.3.4-1/png/pngwutil.c **** 
 1330              		.loc 1 533 13 is_stmt 1 view .LVU398
 1331              	.LVL127:
 535:fltk-1.3.4-1/png/pngwutil.c **** 
 1332              		.loc 1 535 10 view .LVU399
 537:fltk-1.3.4-1/png/pngwutil.c **** 
 1333              		.loc 1 537 10 view .LVU400
 537:fltk-1.3.4-1/png/pngwutil.c **** 
 1334              		.loc 1 537 36 is_stmt 0 view .LVU401
 1335 010d 41899748 		movl	%edx, 328(%r15)
 1335      010000
 539:fltk-1.3.4-1/png/pngwutil.c ****          {
 1336              		.loc 1 539 10 is_stmt 1 view .LVU402
 535:fltk-1.3.4-1/png/pngwutil.c **** 
 1337              		.loc 1 535 20 is_stmt 0 view .LVU403
 1338 0114 4531F6   		xorl	%r14d, %r14d
 581:fltk-1.3.4-1/png/pngwutil.c ****             input_len > 0 ? Z_NO_FLUSH : Z_FINISH);
 1339              		.loc 1 581 16 view .LVU404
 1340 0117 BE040000 		movl	$4, %esi
 1340      00
 539:fltk-1.3.4-1/png/pngwutil.c ****          {
 1341              		.loc 1 539 13 view .LVU405
 1342 011c 85C0     		testl	%eax, %eax
 1343 011e 75BB     		jne	.L117
 1344 0120 E978FFFF 		jmp	.L121
 1344      FF
 1345              	.LVL128:
 1346              		.p2align 4,,10
 1347 0125 0F1F00   		.p2align 3
 1348              	.L136:
 1349              	.LBB244:
 558:fltk-1.3.4-1/png/pngwutil.c ****                   (png_ptr, PNG_COMPRESSION_BUFFER_SIZE(png_ptr)));
 1350              		.loc 1 558 16 is_stmt 1 view .LVU406
 558:fltk-1.3.4-1/png/pngwutil.c ****                   (png_ptr, PNG_COMPRESSION_BUFFER_SIZE(png_ptr)));
 1351              		.loc 1 558 23 is_stmt 0 view .LVU407
 1352 0128 4883C608 		addq	$8, %rsi
 1353 012c 4C89FF   		movq	%r15, %rdi
 1354 012f E8000000 		call	png_malloc_base@PLT
 1354      00
 1355              	.LVL129:
 561:fltk-1.3.4-1/png/pngwutil.c ****                {
 1356              		.loc 1 561 16 is_stmt 1 view .LVU408
 561:fltk-1.3.4-1/png/pngwutil.c ****                {
 1357              		.loc 1 561 19 is_stmt 0 view .LVU409
 1358 0134 4885C0   		testq	%rax, %rax
 1359 0137 0F841301 		je	.L138
 1359      0000
 568:fltk-1.3.4-1/png/pngwutil.c ****                *end = next;
 1360              		.loc 1 568 16 is_stmt 1 view .LVU410
 568:fltk-1.3.4-1/png/pngwutil.c ****                *end = next;
 1361              		.loc 1 568 27 is_stmt 0 view .LVU411
 1362 013d 48C70000 		movq	$0, (%rax)
 1362      000000
 569:fltk-1.3.4-1/png/pngwutil.c ****             }
 1363              		.loc 1 569 16 is_stmt 1 view .LVU412
 569:fltk-1.3.4-1/png/pngwutil.c ****             }
 1364              		.loc 1 569 21 is_stmt 0 view .LVU413
 1365 0144 48894500 		movq	%rax, 0(%rbp)
 1366 0148 418BB7B8 		movl	440(%r15), %esi
 1366      010000
 1367 014f E964FFFF 		jmp	.L115
 1367      FF
 1368              	.LVL130:
 1369              		.p2align 4,,10
 1370 0154 0F1F4000 		.p2align 3
 1371              	.L118:
 569:fltk-1.3.4-1/png/pngwutil.c ****             }
 1372              		.loc 1 569 21 view .LVU414
 1373              	.LBE244:
 1374              	.LBE247:
 595:fltk-1.3.4-1/png/pngwutil.c ****       png_ptr->zstream.avail_out = 0; /* safety */
 1375              		.loc 1 595 7 is_stmt 1 view .LVU415
 597:fltk-1.3.4-1/png/pngwutil.c **** 
 1376              		.loc 1 597 24 is_stmt 0 view .LVU416
 1377 0158 488B7C24 		movq	8(%rsp), %rdi
 1377      08
 595:fltk-1.3.4-1/png/pngwutil.c ****       png_ptr->zstream.avail_out = 0; /* safety */
 1378              		.loc 1 595 18 view .LVU417
 1379 015d 412B9F60 		subl	352(%r15), %ebx
 1379      010000
 1380              	.LVL131:
 596:fltk-1.3.4-1/png/pngwutil.c ****       comp->output_len = output_len;
 1381              		.loc 1 596 7 is_stmt 1 view .LVU418
 596:fltk-1.3.4-1/png/pngwutil.c ****       comp->output_len = output_len;
 1382              		.loc 1 596 34 is_stmt 0 view .LVU419
 1383 0164 41C78760 		movl	$0, 352(%r15)
 1383      01000000 
 1383      000000
 597:fltk-1.3.4-1/png/pngwutil.c **** 
 1384              		.loc 1 597 7 is_stmt 1 view .LVU420
 597:fltk-1.3.4-1/png/pngwutil.c **** 
 1385              		.loc 1 597 24 is_stmt 0 view .LVU421
 1386 016f 895F10   		movl	%ebx, 16(%rdi)
 603:fltk-1.3.4-1/png/pngwutil.c ****       {
 1387              		.loc 1 603 7 is_stmt 1 view .LVU422
 603:fltk-1.3.4-1/png/pngwutil.c ****       {
 1388              		.loc 1 603 22 is_stmt 0 view .LVU423
 1389 0172 031C24   		addl	(%rsp), %ebx
 1390              	.LVL132:
 603:fltk-1.3.4-1/png/pngwutil.c ****       {
 1391              		.loc 1 603 10 view .LVU424
 1392 0175 81FBFEFF 		cmpl	$2147483646, %ebx
 1392      FF7F
 1393 017b 0F878100 		ja	.L122
 1393      0000
 610:fltk-1.3.4-1/png/pngwutil.c **** 
 1394              		.loc 1 610 10 view .LVU425
 1395 0181 89C6     		movl	%eax, %esi
 1396 0183 4C89FF   		movq	%r15, %rdi
 1397              	.LVL133:
 610:fltk-1.3.4-1/png/pngwutil.c **** 
 1398              		.loc 1 610 10 view .LVU426
 1399 0186 890424   		movl	%eax, (%rsp)
 1400              	.LVL134:
 610:fltk-1.3.4-1/png/pngwutil.c **** 
 1401              		.loc 1 610 10 view .LVU427
 1402 0189 48895424 		movq	%rdx, 24(%rsp)
 1402      18
 610:fltk-1.3.4-1/png/pngwutil.c **** 
 1403              		.loc 1 610 10 is_stmt 1 view .LVU428
 1404 018e E8000000 		call	png_zstream_error@PLT
 1404      00
 1405              	.LVL135:
 613:fltk-1.3.4-1/png/pngwutil.c **** 
 1406              		.loc 1 613 7 view .LVU429
 618:fltk-1.3.4-1/png/pngwutil.c ****       {
 1407              		.loc 1 618 10 is_stmt 0 view .LVU430
 1408 0193 8B0424   		movl	(%rsp), %eax
 613:fltk-1.3.4-1/png/pngwutil.c **** 
 1409              		.loc 1 613 23 view .LVU431
 1410 0196 41C78738 		movl	$0, 312(%r15)
 1410      01000000 
 1410      000000
 618:fltk-1.3.4-1/png/pngwutil.c ****       {
 1411              		.loc 1 618 7 is_stmt 1 view .LVU432
 618:fltk-1.3.4-1/png/pngwutil.c ****       {
 1412              		.loc 1 618 10 is_stmt 0 view .LVU433
 1413 01a1 83F801   		cmpl	$1, %eax
 1414 01a4 757F     		jne	.L126
 618:fltk-1.3.4-1/png/pngwutil.c ****       {
 1415              		.loc 1 618 10 view .LVU434
 1416 01a6 488B5424 		movq	24(%rsp), %rdx
 1416      18
 1417 01ab 4885D2   		testq	%rdx, %rdx
 1418 01ae 7575     		jne	.L126
 622:fltk-1.3.4-1/png/pngwutil.c **** #endif
 1419              		.loc 1 622 10 is_stmt 1 view .LVU435
 1420 01b0 488B4424 		movq	8(%rsp), %rax
 1420      08
 1421 01b5 488B7008 		movq	8(%rax), %rsi
 1422              	.LVL136:
 1423              	.LBB248:
 1424              	.LBI248:
 251:fltk-1.3.4-1/png/pngwutil.c **** {
 1425              		.loc 1 251 1 view .LVU436
 1426              	.LBB249:
 256:fltk-1.3.4-1/png/pngwutil.c ****    {
 1427              		.loc 1 256 4 view .LVU437
 256:fltk-1.3.4-1/png/pngwutil.c ****    {
 1428              		.loc 1 256 7 is_stmt 0 view .LVU438
 1429 01b9 4881FE00 		cmpq	$16384, %rsi
 1429      400000
 1430 01c0 770A     		ja	.L110
 1431 01c2 488B7C24 		movq	16(%rsp), %rdi
 1431      10
 1432 01c7 E8000000 		call	optimize_cmf.part.0
 1432      00
 1433              	.LVL137:
 1434              	.L110:
 256:fltk-1.3.4-1/png/pngwutil.c ****    {
 1435              		.loc 1 256 7 view .LVU439
 1436              	.LBE249:
 1437              	.LBE248:
 1438              	.LBE241:
 1439              	.LBE240:
 1440              	.LBE239:
 634:fltk-1.3.4-1/png/pngwutil.c **** 
 1441              		.loc 1 634 1 view .LVU440
 1442 01cc 8B442404 		movl	4(%rsp), %eax
 1443 01d0 4883C428 		addq	$40, %rsp
 1444              		.cfi_remember_state
 1445              		.cfi_def_cfa_offset 56
 1446 01d4 5B       		popq	%rbx
 1447              		.cfi_def_cfa_offset 48
 1448 01d5 5D       		popq	%rbp
 1449              		.cfi_def_cfa_offset 40
 1450 01d6 415C     		popq	%r12
 1451              		.cfi_def_cfa_offset 32
 1452 01d8 415D     		popq	%r13
 1453              		.cfi_def_cfa_offset 24
 1454 01da 415E     		popq	%r14
 1455              		.cfi_def_cfa_offset 16
 1456 01dc 415F     		popq	%r15
 1457              		.cfi_def_cfa_offset 8
 1458              	.LVL138:
 634:fltk-1.3.4-1/png/pngwutil.c **** 
 1459              		.loc 1 634 1 view .LVU441
 1460 01de C3       		ret
 1461              	.LVL139:
 1462 01df 90       		.p2align 4,,10
 1463              		.p2align 3
 1464              	.L124:
 1465              		.cfi_restore_state
 1466              	.LBB253:
 1467              	.LBB252:
 1468              	.LBB251:
 1469              	.LBB250:
 1470              	.LBB245:
 634:fltk-1.3.4-1/png/pngwutil.c **** 
 1471              		.loc 1 634 1 view .LVU442
 1472 01e0 31C0     		xorl	%eax, %eax
 1473              	.L114:
 1474              	.LVL140:
 634:fltk-1.3.4-1/png/pngwutil.c **** 
 1475              		.loc 1 634 1 view .LVU443
 1476              	.LBE245:
 1477              	.LBE250:
 595:fltk-1.3.4-1/png/pngwutil.c ****       png_ptr->zstream.avail_out = 0; /* safety */
 1478              		.loc 1 595 7 is_stmt 1 view .LVU444
 596:fltk-1.3.4-1/png/pngwutil.c ****       comp->output_len = output_len;
 1479              		.loc 1 596 34 is_stmt 0 view .LVU445
 1480 01e2 41C78760 		movl	$0, 352(%r15)
 1480      01000000 
 1480      000000
 595:fltk-1.3.4-1/png/pngwutil.c ****       png_ptr->zstream.avail_out = 0; /* safety */
 1481              		.loc 1 595 18 view .LVU446
 1482 01ed 29C3     		subl	%eax, %ebx
 1483              	.LVL141:
 596:fltk-1.3.4-1/png/pngwutil.c ****       comp->output_len = output_len;
 1484              		.loc 1 596 7 is_stmt 1 view .LVU447
 597:fltk-1.3.4-1/png/pngwutil.c **** 
 1485              		.loc 1 597 7 view .LVU448
 597:fltk-1.3.4-1/png/pngwutil.c **** 
 1486              		.loc 1 597 24 is_stmt 0 view .LVU449
 1487 01ef 488B4424 		movq	8(%rsp), %rax
 1487      08
 1488 01f4 895810   		movl	%ebx, 16(%rax)
 603:fltk-1.3.4-1/png/pngwutil.c ****       {
 1489              		.loc 1 603 7 is_stmt 1 view .LVU450
 603:fltk-1.3.4-1/png/pngwutil.c ****       {
 1490              		.loc 1 603 22 is_stmt 0 view .LVU451
 1491 01f7 031C24   		addl	(%rsp), %ebx
 1492              	.LVL142:
 603:fltk-1.3.4-1/png/pngwutil.c ****       {
 1493              		.loc 1 603 10 view .LVU452
 1494 01fa 81FBFEFF 		cmpl	$2147483646, %ebx
 1494      FF7F
 1495 0200 7629     		jbe	.L139
 1496              	.LVL143:
 1497              	.L122:
 605:fltk-1.3.4-1/png/pngwutil.c ****          ret = Z_MEM_ERROR;
 1498              		.loc 1 605 10 is_stmt 1 view .LVU453
 605:fltk-1.3.4-1/png/pngwutil.c ****          ret = Z_MEM_ERROR;
 1499              		.loc 1 605 31 is_stmt 0 view .LVU454
 1500 0202 488D0500 		leaq	.LC6(%rip), %rax
 1500      000000
 606:fltk-1.3.4-1/png/pngwutil.c ****       }
 1501              		.loc 1 606 14 view .LVU455
 1502 0209 C7442404 		movl	$-4, 4(%rsp)
 1502      FCFFFFFF 
 1503              	.LVL144:
 605:fltk-1.3.4-1/png/pngwutil.c ****          ret = Z_MEM_ERROR;
 1504              		.loc 1 605 31 view .LVU456
 1505 0211 49898770 		movq	%rax, 368(%r15)
 1505      010000
 606:fltk-1.3.4-1/png/pngwutil.c ****       }
 1506              		.loc 1 606 10 is_stmt 1 view .LVU457
 1507              	.LVL145:
 613:fltk-1.3.4-1/png/pngwutil.c **** 
 1508              		.loc 1 613 7 view .LVU458
 613:fltk-1.3.4-1/png/pngwutil.c **** 
 1509              		.loc 1 613 23 is_stmt 0 view .LVU459
 1510 0218 41C78738 		movl	$0, 312(%r15)
 1510      01000000 
 1510      000000
 618:fltk-1.3.4-1/png/pngwutil.c ****       {
 1511              		.loc 1 618 7 is_stmt 1 view .LVU460
 1512 0223 EBA7     		jmp	.L110
 1513              	.LVL146:
 1514              	.L126:
 618:fltk-1.3.4-1/png/pngwutil.c ****       {
 1515              		.loc 1 618 7 is_stmt 0 view .LVU461
 1516 0225 89442404 		movl	%eax, 4(%rsp)
 1517              	.LVL147:
 618:fltk-1.3.4-1/png/pngwutil.c ****       {
 1518              		.loc 1 618 7 view .LVU462
 1519 0229 EBA1     		jmp	.L110
 1520              	.LVL148:
 1521              	.L139:
 610:fltk-1.3.4-1/png/pngwutil.c **** 
 1522              		.loc 1 610 10 is_stmt 1 view .LVU463
 1523 022b BEFCFFFF 		movl	$-4, %esi
 1523      FF
 1524 0230 4C89FF   		movq	%r15, %rdi
 1525 0233 E8000000 		call	png_zstream_error@PLT
 1525      00
 1526              	.LVL149:
 613:fltk-1.3.4-1/png/pngwutil.c **** 
 1527              		.loc 1 613 7 view .LVU464
 613:fltk-1.3.4-1/png/pngwutil.c **** 
 1528              		.loc 1 613 23 is_stmt 0 view .LVU465
 1529 0238 C7442404 		movl	$-4, 4(%rsp)
 1529      FCFFFFFF 
 1530              	.LVL150:
 613:fltk-1.3.4-1/png/pngwutil.c **** 
 1531              		.loc 1 613 23 view .LVU466
 1532 0240 41C78738 		movl	$0, 312(%r15)
 1532      01000000 
 1532      000000
 618:fltk-1.3.4-1/png/pngwutil.c ****       {
 1533              		.loc 1 618 7 is_stmt 1 view .LVU467
 1534 024b E97CFFFF 		jmp	.L110
 1534      FF
 1535              	.LVL151:
 1536              	.L138:
 618:fltk-1.3.4-1/png/pngwutil.c ****       {
 1537              		.loc 1 618 7 is_stmt 0 view .LVU468
 1538 0250 418B8760 		movl	352(%r15), %eax
 1538      010000
 1539              	.LVL152:
 618:fltk-1.3.4-1/png/pngwutil.c ****       {
 1540              		.loc 1 618 7 view .LVU469
 1541 0257 EB89     		jmp	.L114
 1542              	.LBE251:
 1543              	.LBE252:
 1544              	.LBE253:
 1545              		.cfi_endproc
 1546              	.LFE55:
 1548              		.section	.text.png_write_chunk_header.part.0,"ax",@progbits
 1549              		.p2align 4
 1551              	png_write_chunk_header.part.0:
 1552              	.LVL153:
 1553              	.LFB87:
  73:fltk-1.3.4-1/png/pngwutil.c ****     png_uint_32 length)
 1554              		.loc 1 73 1 is_stmt 1 view -0
 1555              		.cfi_startproc
  73:fltk-1.3.4-1/png/pngwutil.c ****     png_uint_32 length)
 1556              		.loc 1 73 1 is_stmt 0 view .LVU471
 1557 0000 55       		pushq	%rbp
 1558              		.cfi_def_cfa_offset 16
 1559              		.cfi_offset 6, -16
 1560 0001 0FCA     		bswap	%edx
 1561              	.LVL154:
  73:fltk-1.3.4-1/png/pngwutil.c ****     png_uint_32 length)
 1562              		.loc 1 73 1 view .LVU472
 1563 0003 89F5     		movl	%esi, %ebp
 1564 0005 53       		pushq	%rbx
 1565              		.cfi_def_cfa_offset 24
 1566              		.cfi_offset 3, -24
 1567 0006 4889FB   		movq	%rdi, %rbx
 1568 0009 4883EC18 		subq	$24, %rsp
 1569              		.cfi_def_cfa_offset 48
  73:fltk-1.3.4-1/png/pngwutil.c ****     png_uint_32 length)
 1570              		.loc 1 73 1 view .LVU473
 1571 000d 64488B04 		movq	%fs:40, %rax
 1571      25280000 
 1571      00
 1572 0016 48894424 		movq	%rax, 8(%rsp)
 1572      08
 1573 001b 31C0     		xorl	%eax, %eax
  90:fltk-1.3.4-1/png/pngwutil.c **** #endif
 1574              		.loc 1 90 4 is_stmt 1 view .LVU474
 1575              	.LBB254:
 1576              	.LBB255:
  26:fltk-1.3.4-1/png/pngwutil.c ****    buf[1] = (png_byte)((i >> 16) & 0xff);
 1577              		.loc 1 26 11 is_stmt 0 view .LVU475
 1578 001d 891424   		movl	%edx, (%rsp)
 1579 0020 89F0     		movl	%esi, %eax
 1580              	.LBE255:
 1581              	.LBE254:
  96:fltk-1.3.4-1/png/pngwutil.c **** 
 1582              		.loc 1 96 4 view .LVU476
 1583 0022 BA080000 		movl	$8, %edx
 1583      00
  90:fltk-1.3.4-1/png/pngwutil.c **** #endif
 1584              		.loc 1 90 22 view .LVU477
 1585 0027 C787AC04 		movl	$34, 1196(%rdi)
 1585      00002200 
 1585      0000
  94:fltk-1.3.4-1/png/pngwutil.c ****    png_save_uint_32(buf + 4, chunk_name);
 1586              		.loc 1 94 4 is_stmt 1 view .LVU478
 1587              	.LVL155:
 1588              	.LBB257:
 1589              	.LBI254:
  24:fltk-1.3.4-1/png/pngwutil.c **** {
 1590              		.loc 1 24 1 view .LVU479
 1591              	.LBB256:
  26:fltk-1.3.4-1/png/pngwutil.c ****    buf[1] = (png_byte)((i >> 16) & 0xff);
 1592              		.loc 1 26 4 view .LVU480
  27:fltk-1.3.4-1/png/pngwutil.c ****    buf[2] = (png_byte)((i >> 8) & 0xff);
 1593              		.loc 1 27 4 view .LVU481
  28:fltk-1.3.4-1/png/pngwutil.c ****    buf[3] = (png_byte)(i & 0xff);
 1594              		.loc 1 28 4 view .LVU482
  29:fltk-1.3.4-1/png/pngwutil.c **** }
 1595              		.loc 1 29 4 view .LVU483
  29:fltk-1.3.4-1/png/pngwutil.c **** }
 1596              		.loc 1 29 4 is_stmt 0 view .LVU484
 1597              	.LBE256:
 1598              	.LBE257:
  95:fltk-1.3.4-1/png/pngwutil.c ****    png_write_data(png_ptr, buf, 8);
 1599              		.loc 1 95 4 is_stmt 1 view .LVU485
 1600              	.LBB258:
 1601              	.LBI258:
  24:fltk-1.3.4-1/png/pngwutil.c **** {
 1602              		.loc 1 24 1 view .LVU486
 1603              	.LBB259:
  26:fltk-1.3.4-1/png/pngwutil.c ****    buf[1] = (png_byte)((i >> 16) & 0xff);
 1604              		.loc 1 26 4 view .LVU487
  27:fltk-1.3.4-1/png/pngwutil.c ****    buf[2] = (png_byte)((i >> 8) & 0xff);
 1605              		.loc 1 27 4 view .LVU488
  28:fltk-1.3.4-1/png/pngwutil.c ****    buf[3] = (png_byte)(i & 0xff);
 1606              		.loc 1 28 4 view .LVU489
  29:fltk-1.3.4-1/png/pngwutil.c **** }
 1607              		.loc 1 29 4 view .LVU490
 1608              	.LBE259:
 1609              	.LBE258:
  96:fltk-1.3.4-1/png/pngwutil.c **** 
 1610              		.loc 1 96 4 is_stmt 0 view .LVU491
 1611 0031 4889E6   		movq	%rsp, %rsi
 1612              	.LVL156:
  96:fltk-1.3.4-1/png/pngwutil.c **** 
 1613              		.loc 1 96 4 view .LVU492
 1614 0034 0FC8     		bswap	%eax
 1615              	.LVL157:
 1616              	.LBB261:
 1617              	.LBB260:
  26:fltk-1.3.4-1/png/pngwutil.c ****    buf[1] = (png_byte)((i >> 16) & 0xff);
 1618              		.loc 1 26 11 view .LVU493
 1619 0036 89442404 		movl	%eax, 4(%rsp)
 1620              	.LVL158:
  26:fltk-1.3.4-1/png/pngwutil.c ****    buf[1] = (png_byte)((i >> 16) & 0xff);
 1621              		.loc 1 26 11 view .LVU494
 1622              	.LBE260:
 1623              	.LBE261:
  96:fltk-1.3.4-1/png/pngwutil.c **** 
 1624              		.loc 1 96 4 is_stmt 1 view .LVU495
 1625 003a E8000000 		call	png_write_data@PLT
 1625      00
 1626              	.LVL159:
  99:fltk-1.3.4-1/png/pngwutil.c **** 
 1627              		.loc 1 99 4 view .LVU496
  99:fltk-1.3.4-1/png/pngwutil.c **** 
 1628              		.loc 1 99 24 is_stmt 0 view .LVU497
 1629 003f 89AB1802 		movl	%ebp, 536(%rbx)
 1629      0000
 102:fltk-1.3.4-1/png/pngwutil.c **** 
 1630              		.loc 1 102 4 is_stmt 1 view .LVU498
 1631 0045 4889DF   		movq	%rbx, %rdi
 1632 0048 E8000000 		call	png_reset_crc@PLT
 1632      00
 1633              	.LVL160:
 104:fltk-1.3.4-1/png/pngwutil.c **** 
 1634              		.loc 1 104 4 view .LVU499
 1635 004d 488D7424 		leaq	4(%rsp), %rsi
 1635      04
 1636 0052 BA040000 		movl	$4, %edx
 1636      00
 1637 0057 4889DF   		movq	%rbx, %rdi
 1638 005a E8000000 		call	png_calculate_crc@PLT
 1638      00
 1639              	.LVL161:
 110:fltk-1.3.4-1/png/pngwutil.c **** #endif
 1640              		.loc 1 110 4 view .LVU500
 110:fltk-1.3.4-1/png/pngwutil.c **** #endif
 1641              		.loc 1 110 22 is_stmt 0 view .LVU501
 1642 005f C783AC04 		movl	$66, 1196(%rbx)
 1642      00004200 
 1642      0000
 112:fltk-1.3.4-1/png/pngwutil.c **** 
 1643              		.loc 1 112 1 view .LVU502
 1644 0069 488B4424 		movq	8(%rsp), %rax
 1644      08
 1645 006e 64483304 		xorq	%fs:40, %rax
 1645      25280000 
 1645      00
 1646 0077 7507     		jne	.L143
 1647 0079 4883C418 		addq	$24, %rsp
 1648              		.cfi_remember_state
 1649              		.cfi_def_cfa_offset 24
 1650 007d 5B       		popq	%rbx
 1651              		.cfi_def_cfa_offset 16
 1652              	.LVL162:
 112:fltk-1.3.4-1/png/pngwutil.c **** 
 1653              		.loc 1 112 1 view .LVU503
 1654 007e 5D       		popq	%rbp
 1655              		.cfi_def_cfa_offset 8
 1656              	.LVL163:
 112:fltk-1.3.4-1/png/pngwutil.c **** 
 1657              		.loc 1 112 1 view .LVU504
 1658 007f C3       		ret
 1659              	.LVL164:
 1660              	.L143:
 1661              		.cfi_restore_state
 112:fltk-1.3.4-1/png/pngwutil.c **** 
 1662              		.loc 1 112 1 view .LVU505
 1663 0080 E8000000 		call	__stack_chk_fail@PLT
 1663      00
 1664              	.LVL165:
 1665              		.cfi_endproc
 1666              	.LFE87:
 1668              		.section	.text.png_write_chunk_data.part.0,"ax",@progbits
 1669              		.p2align 4
 1671              	png_write_chunk_data.part.0:
 1672              	.LVL166:
 1673              	.LFB88:
 127:fltk-1.3.4-1/png/pngwutil.c ****     png_size_t length)
 1674              		.loc 1 127 1 is_stmt 1 view -0
 1675              		.cfi_startproc
 136:fltk-1.3.4-1/png/pngwutil.c **** 
 1676              		.loc 1 136 7 view .LVU507
 127:fltk-1.3.4-1/png/pngwutil.c ****     png_size_t length)
 1677              		.loc 1 127 1 is_stmt 0 view .LVU508
 1678 0000 4155     		pushq	%r13
 1679              		.cfi_def_cfa_offset 16
 1680              		.cfi_offset 13, -16
 1681 0002 4989D5   		movq	%rdx, %r13
 1682 0005 4154     		pushq	%r12
 1683              		.cfi_def_cfa_offset 24
 1684              		.cfi_offset 12, -24
 1685 0007 4989F4   		movq	%rsi, %r12
 1686 000a 55       		pushq	%rbp
 1687              		.cfi_def_cfa_offset 32
 1688              		.cfi_offset 6, -32
 127:fltk-1.3.4-1/png/pngwutil.c ****     png_size_t length)
 1689              		.loc 1 127 1 view .LVU509
 1690 000b 4889FD   		movq	%rdi, %rbp
 136:fltk-1.3.4-1/png/pngwutil.c **** 
 1691              		.loc 1 136 7 view .LVU510
 1692 000e E8000000 		call	png_write_data@PLT
 1692      00
 1693              	.LVL167:
 141:fltk-1.3.4-1/png/pngwutil.c ****    }
 1694              		.loc 1 141 7 is_stmt 1 view .LVU511
 1695 0013 4C89EA   		movq	%r13, %rdx
 1696 0016 4C89E6   		movq	%r12, %rsi
 1697 0019 4889EF   		movq	%rbp, %rdi
 143:fltk-1.3.4-1/png/pngwutil.c **** 
 1698              		.loc 1 143 1 is_stmt 0 view .LVU512
 1699 001c 5D       		popq	%rbp
 1700              		.cfi_def_cfa_offset 24
 1701              	.LVL168:
 143:fltk-1.3.4-1/png/pngwutil.c **** 
 1702              		.loc 1 143 1 view .LVU513
 1703 001d 415C     		popq	%r12
 1704              		.cfi_def_cfa_offset 16
 1705              	.LVL169:
 143:fltk-1.3.4-1/png/pngwutil.c **** 
 1706              		.loc 1 143 1 view .LVU514
 1707 001f 415D     		popq	%r13
 1708              		.cfi_def_cfa_offset 8
 1709              	.LVL170:
 141:fltk-1.3.4-1/png/pngwutil.c ****    }
 1710              		.loc 1 141 7 view .LVU515
 1711 0021 E9000000 		jmp	png_calculate_crc@PLT
 1711      00
 1712              	.LVL171:
 141:fltk-1.3.4-1/png/pngwutil.c ****    }
 1713              		.loc 1 141 7 view .LVU516
 1714              		.cfi_endproc
 1715              	.LFE88:
 1717              		.section	.rodata.png_write_compressed_data_out.str1.8,"aMS",@progbits,1
 1718              		.align 8
 1719              	.LC7:
 1720 0000 6572726F 		.string	"error writing ancillary chunked compressed data"
 1720      72207772 
 1720      6974696E 
 1720      6720616E 
 1720      63696C6C 
 1721              		.section	.text.png_write_compressed_data_out,"ax",@progbits
 1722              		.p2align 4
 1724              	png_write_compressed_data_out:
 1725              	.LVL172:
 1726              	.LFB56:
 639:fltk-1.3.4-1/png/pngwutil.c ****    png_uint_32 output_len = comp->output_len;
 1727              		.loc 1 639 1 is_stmt 1 view -0
 1728              		.cfi_startproc
 640:fltk-1.3.4-1/png/pngwutil.c ****    png_const_bytep output = comp->output;
 1729              		.loc 1 640 4 view .LVU518
 639:fltk-1.3.4-1/png/pngwutil.c ****    png_uint_32 output_len = comp->output_len;
 1730              		.loc 1 639 1 is_stmt 0 view .LVU519
 1731 0000 4155     		pushq	%r13
 1732              		.cfi_def_cfa_offset 16
 1733              		.cfi_offset 13, -16
 641:fltk-1.3.4-1/png/pngwutil.c ****    png_uint_32 avail = (sizeof comp->output);
 1734              		.loc 1 641 20 view .LVU520
 1735 0002 4883C614 		addq	$20, %rsi
 1736              	.LVL173:
 639:fltk-1.3.4-1/png/pngwutil.c ****    png_uint_32 output_len = comp->output_len;
 1737              		.loc 1 639 1 view .LVU521
 1738 0006 4989FD   		movq	%rdi, %r13
 1739 0009 4154     		pushq	%r12
 1740              		.cfi_def_cfa_offset 24
 1741              		.cfi_offset 12, -24
 1742 000b 55       		pushq	%rbp
 1743              		.cfi_def_cfa_offset 32
 1744              		.cfi_offset 6, -32
 1745 000c 53       		pushq	%rbx
 1746              		.cfi_def_cfa_offset 40
 1747              		.cfi_offset 3, -40
 642:fltk-1.3.4-1/png/pngwutil.c ****    png_compression_buffer *next = png_ptr->zbuffer_list;
 1748              		.loc 1 642 16 view .LVU522
 1749 000d BB000400 		movl	$1024, %ebx
 1749      00
 639:fltk-1.3.4-1/png/pngwutil.c ****    png_uint_32 output_len = comp->output_len;
 1750              		.loc 1 639 1 view .LVU523
 1751 0012 4883EC08 		subq	$8, %rsp
 1752              		.cfi_def_cfa_offset 48
 640:fltk-1.3.4-1/png/pngwutil.c ****    png_const_bytep output = comp->output;
 1753              		.loc 1 640 16 view .LVU524
 1754 0016 8B6EFC   		movl	-4(%rsi), %ebp
 1755              	.LVL174:
 641:fltk-1.3.4-1/png/pngwutil.c ****    png_uint_32 avail = (sizeof comp->output);
 1756              		.loc 1 641 4 is_stmt 1 view .LVU525
 642:fltk-1.3.4-1/png/pngwutil.c ****    png_compression_buffer *next = png_ptr->zbuffer_list;
 1757              		.loc 1 642 4 view .LVU526
 643:fltk-1.3.4-1/png/pngwutil.c **** 
 1758              		.loc 1 643 4 view .LVU527
 643:fltk-1.3.4-1/png/pngwutil.c **** 
 1759              		.loc 1 643 28 is_stmt 0 view .LVU528
 1760 0019 4C8BA7B0 		movq	432(%rdi), %r12
 1760      010000
 1761              	.LVL175:
 643:fltk-1.3.4-1/png/pngwutil.c **** 
 1762              		.loc 1 643 28 view .LVU529
 1763 0020 EB1F     		jmp	.L149
 1764              	.LVL176:
 1765              		.p2align 4,,10
 1766 0022 660F1F44 		.p2align 3
 1766      0000
 1767              	.L147:
 652:fltk-1.3.4-1/png/pngwutil.c **** 
 1768              		.loc 1 652 7 is_stmt 1 view .LVU530
 654:fltk-1.3.4-1/png/pngwutil.c ****          break;
 1769              		.loc 1 654 7 view .LVU531
 654:fltk-1.3.4-1/png/pngwutil.c ****          break;
 1770              		.loc 1 654 10 is_stmt 0 view .LVU532
 1771 0028 29DD     		subl	%ebx, %ebp
 1772              	.LVL177:
 654:fltk-1.3.4-1/png/pngwutil.c ****          break;
 1773              		.loc 1 654 10 view .LVU533
 1774 002a 7434     		je	.L148
 1775              	.LVL178:
 1776              	.L155:
 654:fltk-1.3.4-1/png/pngwutil.c ****          break;
 1777              		.loc 1 654 10 view .LVU534
 1778 002c 4D85E4   		testq	%r12, %r12
 1779 002f 742F     		je	.L148
 657:fltk-1.3.4-1/png/pngwutil.c ****       output = next->output;
 1780              		.loc 1 657 7 is_stmt 1 view .LVU535
 658:fltk-1.3.4-1/png/pngwutil.c ****       next = next->next;
 1781              		.loc 1 658 14 is_stmt 0 view .LVU536
 1782 0031 498D7424 		leaq	8(%r12), %rsi
 1782      08
 657:fltk-1.3.4-1/png/pngwutil.c ****       output = next->output;
 1783              		.loc 1 657 13 view .LVU537
 1784 0036 418B9DB8 		movl	440(%r13), %ebx
 1784      010000
 1785              	.LVL179:
 658:fltk-1.3.4-1/png/pngwutil.c ****       next = next->next;
 1786              		.loc 1 658 7 is_stmt 1 view .LVU538
 659:fltk-1.3.4-1/png/pngwutil.c ****    }
 1787              		.loc 1 659 7 view .LVU539
 659:fltk-1.3.4-1/png/pngwutil.c ****    }
 1788              		.loc 1 659 12 is_stmt 0 view .LVU540
 1789 003d 4D8B2424 		movq	(%r12), %r12
 1790              	.LVL180:
 645:fltk-1.3.4-1/png/pngwutil.c ****    {
 1791              		.loc 1 645 10 is_stmt 1 view .LVU541
 1792              	.L149:
 645:fltk-1.3.4-1/png/pngwutil.c ****    {
 1793              		.loc 1 645 4 view .LVU542
 647:fltk-1.3.4-1/png/pngwutil.c ****          avail = output_len;
 1794              		.loc 1 647 7 view .LVU543
 1795 0041 39DD     		cmpl	%ebx, %ebp
 1796 0043 0F46DD   		cmovbe	%ebp, %ebx
 1797              	.LVL181:
 650:fltk-1.3.4-1/png/pngwutil.c **** 
 1798              		.loc 1 650 7 view .LVU544
 1799 0046 89DA     		movl	%ebx, %edx
 1800              	.LVL182:
 1801              	.LBB262:
 1802              	.LBI262:
 127:fltk-1.3.4-1/png/pngwutil.c ****     png_size_t length)
 1803              		.loc 1 127 1 view .LVU545
 1804              	.LBB263:
 131:fltk-1.3.4-1/png/pngwutil.c ****       return;
 1805              		.loc 1 131 4 view .LVU546
 134:fltk-1.3.4-1/png/pngwutil.c ****    {
 1806              		.loc 1 134 4 view .LVU547
 134:fltk-1.3.4-1/png/pngwutil.c ****    {
 1807              		.loc 1 134 7 is_stmt 0 view .LVU548
 1808 0048 85DB     		testl	%ebx, %ebx
 1809 004a 74DC     		je	.L147
 134:fltk-1.3.4-1/png/pngwutil.c ****    {
 1810              		.loc 1 134 7 view .LVU549
 1811 004c 4C89EF   		movq	%r13, %rdi
 1812 004f E8000000 		call	png_write_chunk_data.part.0
 1812      00
 1813              	.LVL183:
 134:fltk-1.3.4-1/png/pngwutil.c ****    {
 1814              		.loc 1 134 7 view .LVU550
 1815              	.LBE263:
 1816              	.LBE262:
 652:fltk-1.3.4-1/png/pngwutil.c **** 
 1817              		.loc 1 652 7 is_stmt 1 view .LVU551
 654:fltk-1.3.4-1/png/pngwutil.c ****          break;
 1818              		.loc 1 654 7 view .LVU552
 654:fltk-1.3.4-1/png/pngwutil.c ****          break;
 1819              		.loc 1 654 10 is_stmt 0 view .LVU553
 1820 0054 29DD     		subl	%ebx, %ebp
 1821              	.LVL184:
 654:fltk-1.3.4-1/png/pngwutil.c ****          break;
 1822              		.loc 1 654 10 view .LVU554
 1823 0056 75D4     		jne	.L155
 1824 0058 0F1F8400 		.p2align 4,,10
 1824      00000000 
 1825              		.p2align 3
 1826              	.L148:
 663:fltk-1.3.4-1/png/pngwutil.c ****       png_error(png_ptr, "error writing ancillary chunked compressed data");
 1827              		.loc 1 663 4 is_stmt 1 view .LVU555
 663:fltk-1.3.4-1/png/pngwutil.c ****       png_error(png_ptr, "error writing ancillary chunked compressed data");
 1828              		.loc 1 663 7 is_stmt 0 view .LVU556
 1829 0060 85ED     		testl	%ebp, %ebp
 1830 0062 750B     		jne	.L156
 665:fltk-1.3.4-1/png/pngwutil.c **** #endif /* WRITE_COMPRESSED_TEXT */
 1831              		.loc 1 665 1 view .LVU557
 1832 0064 4883C408 		addq	$8, %rsp
 1833              		.cfi_remember_state
 1834              		.cfi_def_cfa_offset 40
 1835 0068 5B       		popq	%rbx
 1836              		.cfi_def_cfa_offset 32
 1837              	.LVL185:
 665:fltk-1.3.4-1/png/pngwutil.c **** #endif /* WRITE_COMPRESSED_TEXT */
 1838              		.loc 1 665 1 view .LVU558
 1839 0069 5D       		popq	%rbp
 1840              		.cfi_def_cfa_offset 24
 1841              	.LVL186:
 665:fltk-1.3.4-1/png/pngwutil.c **** #endif /* WRITE_COMPRESSED_TEXT */
 1842              		.loc 1 665 1 view .LVU559
 1843 006a 415C     		popq	%r12
 1844              		.cfi_def_cfa_offset 16
 1845              	.LVL187:
 665:fltk-1.3.4-1/png/pngwutil.c **** #endif /* WRITE_COMPRESSED_TEXT */
 1846              		.loc 1 665 1 view .LVU560
 1847 006c 415D     		popq	%r13
 1848              		.cfi_def_cfa_offset 8
 1849              	.LVL188:
 665:fltk-1.3.4-1/png/pngwutil.c **** #endif /* WRITE_COMPRESSED_TEXT */
 1850              		.loc 1 665 1 view .LVU561
 1851 006e C3       		ret
 1852              	.LVL189:
 1853              	.L156:
 1854              		.cfi_restore_state
 664:fltk-1.3.4-1/png/pngwutil.c **** }
 1855              		.loc 1 664 7 is_stmt 1 view .LVU562
 1856 006f 488D3500 		leaq	.LC7(%rip), %rsi
 1856      000000
 1857 0076 4C89EF   		movq	%r13, %rdi
 1858 0079 E8000000 		call	png_error@PLT
 1858      00
 1859              	.LVL190:
 1860              		.cfi_endproc
 1861              	.LFE56:
 1863              		.section	.text.png_write_chunk_end.part.0,"ax",@progbits
 1864              		.p2align 4
 1866              	png_write_chunk_end.part.0:
 1867              	.LVL191:
 1868              	.LFB89:
 147:fltk-1.3.4-1/png/pngwutil.c **** {
 1869              		.loc 1 147 1 view -0
 1870              		.cfi_startproc
 147:fltk-1.3.4-1/png/pngwutil.c **** {
 1871              		.loc 1 147 1 is_stmt 0 view .LVU564
 1872 0000 4883EC18 		subq	$24, %rsp
 1873              		.cfi_def_cfa_offset 32
 163:fltk-1.3.4-1/png/pngwutil.c **** }
 1874              		.loc 1 163 4 view .LVU565
 1875 0004 BA040000 		movl	$4, %edx
 1875      00
 147:fltk-1.3.4-1/png/pngwutil.c **** {
 1876              		.loc 1 147 1 view .LVU566
 1877 0009 64488B04 		movq	%fs:40, %rax
 1877      25280000 
 1877      00
 1878 0012 48894424 		movq	%rax, 8(%rsp)
 1878      08
 1879 0017 31C0     		xorl	%eax, %eax
 157:fltk-1.3.4-1/png/pngwutil.c **** #endif
 1880              		.loc 1 157 4 is_stmt 1 view .LVU567
 1881 0019 8B875C02 		movl	604(%rdi), %eax
 1881      0000
 163:fltk-1.3.4-1/png/pngwutil.c **** }
 1882              		.loc 1 163 4 is_stmt 0 view .LVU568
 1883 001f 488D7424 		leaq	4(%rsp), %rsi
 1883      04
 157:fltk-1.3.4-1/png/pngwutil.c **** #endif
 1884              		.loc 1 157 22 view .LVU569
 1885 0024 C787AC04 		movl	$130, 1196(%rdi)
 1885      00008200 
 1885      0000
 161:fltk-1.3.4-1/png/pngwutil.c **** 
 1886              		.loc 1 161 4 is_stmt 1 view .LVU570
 1887 002e 0FC8     		bswap	%eax
 1888              	.LVL192:
 1889              	.LBB264:
 1890              	.LBI264:
  24:fltk-1.3.4-1/png/pngwutil.c **** {
 1891              		.loc 1 24 1 view .LVU571
 1892              	.LBB265:
  26:fltk-1.3.4-1/png/pngwutil.c ****    buf[1] = (png_byte)((i >> 16) & 0xff);
 1893              		.loc 1 26 4 view .LVU572
  27:fltk-1.3.4-1/png/pngwutil.c ****    buf[2] = (png_byte)((i >> 8) & 0xff);
 1894              		.loc 1 27 4 view .LVU573
  28:fltk-1.3.4-1/png/pngwutil.c ****    buf[3] = (png_byte)(i & 0xff);
 1895              		.loc 1 28 4 view .LVU574
  29:fltk-1.3.4-1/png/pngwutil.c **** }
 1896              		.loc 1 29 4 view .LVU575
  26:fltk-1.3.4-1/png/pngwutil.c ****    buf[1] = (png_byte)((i >> 16) & 0xff);
 1897              		.loc 1 26 11 is_stmt 0 view .LVU576
 1898 0030 89442404 		movl	%eax, 4(%rsp)
 1899              	.LVL193:
  26:fltk-1.3.4-1/png/pngwutil.c ****    buf[1] = (png_byte)((i >> 16) & 0xff);
 1900              		.loc 1 26 11 view .LVU577
 1901              	.LBE265:
 1902              	.LBE264:
 163:fltk-1.3.4-1/png/pngwutil.c **** }
 1903              		.loc 1 163 4 is_stmt 1 view .LVU578
 1904 0034 E8000000 		call	png_write_data@PLT
 1904      00
 1905              	.LVL194:
 164:fltk-1.3.4-1/png/pngwutil.c **** 
 1906              		.loc 1 164 1 is_stmt 0 view .LVU579
 1907 0039 488B4424 		movq	8(%rsp), %rax
 1907      08
 1908 003e 64483304 		xorq	%fs:40, %rax
 1908      25280000 
 1908      00
 1909 0047 7505     		jne	.L160
 1910 0049 4883C418 		addq	$24, %rsp
 1911              		.cfi_remember_state
 1912              		.cfi_def_cfa_offset 8
 1913 004d C3       		ret
 1914              	.L160:
 1915              		.cfi_restore_state
 1916 004e E8000000 		call	__stack_chk_fail@PLT
 1916      00
 1917              	.LVL195:
 1918              		.cfi_endproc
 1919              	.LFE89:
 1921              		.section	.rodata.png_write_complete_chunk.str1.1,"aMS",@progbits,1
 1922              	.LC8:
 1923 0000 6C656E67 		.string	"length exceeds PNG maximum"
 1923      74682065 
 1923      78636565 
 1923      64732050 
 1923      4E47206D 
 1924              		.section	.text.png_write_complete_chunk,"ax",@progbits
 1925              		.p2align 4
 1927              	png_write_complete_chunk:
 1928              	.LVL196:
 1929              	.LFB48:
 178:fltk-1.3.4-1/png/pngwutil.c ****    if (png_ptr == NULL)
 1930              		.loc 1 178 1 is_stmt 1 view -0
 1931              		.cfi_startproc
 179:fltk-1.3.4-1/png/pngwutil.c ****       return;
 1932              		.loc 1 179 4 view .LVU581
 179:fltk-1.3.4-1/png/pngwutil.c ****       return;
 1933              		.loc 1 179 7 is_stmt 0 view .LVU582
 1934 0000 4885FF   		testq	%rdi, %rdi
 1935 0003 745B     		je	.L161
 178:fltk-1.3.4-1/png/pngwutil.c ****    if (png_ptr == NULL)
 1936              		.loc 1 178 1 view .LVU583
 1937 0005 4155     		pushq	%r13
 1938              		.cfi_def_cfa_offset 16
 1939              		.cfi_offset 13, -16
 1940 0007 4154     		pushq	%r12
 1941              		.cfi_def_cfa_offset 24
 1942              		.cfi_offset 12, -24
 1943 0009 4989CC   		movq	%rcx, %r12
 183:fltk-1.3.4-1/png/pngwutil.c ****       png_error(png_ptr, "length exceeds PNG maximum");
 1944              		.loc 1 183 4 is_stmt 1 view .LVU584
 178:fltk-1.3.4-1/png/pngwutil.c ****    if (png_ptr == NULL)
 1945              		.loc 1 178 1 is_stmt 0 view .LVU585
 1946 000c 55       		pushq	%rbp
 1947              		.cfi_def_cfa_offset 32
 1948              		.cfi_offset 6, -32
 1949 000d 4889FD   		movq	%rdi, %rbp
 183:fltk-1.3.4-1/png/pngwutil.c ****       png_error(png_ptr, "length exceeds PNG maximum");
 1950              		.loc 1 183 7 view .LVU586
 1951 0010 4881F9FF 		cmpq	$2147483647, %rcx
 1951      FFFF7F
 1952 0017 7748     		ja	.L174
 1953 0019 4989D5   		movq	%rdx, %r13
 186:fltk-1.3.4-1/png/pngwutil.c ****    png_write_chunk_data(png_ptr, data, length);
 1954              		.loc 1 186 4 is_stmt 1 view .LVU587
 1955              	.LVL197:
 1956              	.LBB266:
 1957              	.LBI266:
  73:fltk-1.3.4-1/png/pngwutil.c ****     png_uint_32 length)
 1958              		.loc 1 73 1 view .LVU588
 1959              	.LBB267:
  76:fltk-1.3.4-1/png/pngwutil.c **** 
 1960              		.loc 1 76 4 view .LVU589
  83:fltk-1.3.4-1/png/pngwutil.c ****       return;
 1961              		.loc 1 83 4 view .LVU590
 1962 001c 89CA     		movl	%ecx, %edx
 1963              	.LVL198:
  83:fltk-1.3.4-1/png/pngwutil.c ****       return;
 1964              		.loc 1 83 4 is_stmt 0 view .LVU591
 1965 001e E8000000 		call	png_write_chunk_header.part.0
 1965      00
 1966              	.LVL199:
  83:fltk-1.3.4-1/png/pngwutil.c ****       return;
 1967              		.loc 1 83 4 view .LVU592
 1968              	.LBE267:
 1969              	.LBE266:
 187:fltk-1.3.4-1/png/pngwutil.c ****    png_write_chunk_end(png_ptr);
 1970              		.loc 1 187 4 is_stmt 1 view .LVU593
 1971              	.LBB268:
 1972              	.LBI268:
 127:fltk-1.3.4-1/png/pngwutil.c ****     png_size_t length)
 1973              		.loc 1 127 1 view .LVU594
 1974              	.LBB269:
 131:fltk-1.3.4-1/png/pngwutil.c ****       return;
 1975              		.loc 1 131 4 view .LVU595
 134:fltk-1.3.4-1/png/pngwutil.c ****    {
 1976              		.loc 1 134 4 view .LVU596
 134:fltk-1.3.4-1/png/pngwutil.c ****    {
 1977              		.loc 1 134 7 is_stmt 0 view .LVU597
 1978 0023 4D85ED   		testq	%r13, %r13
 1979 0026 7405     		je	.L164
 1980 0028 4D85E4   		testq	%r12, %r12
 1981 002b 7513     		jne	.L175
 1982              	.L164:
 1983              	.LVL200:
 134:fltk-1.3.4-1/png/pngwutil.c ****    {
 1984              		.loc 1 134 7 view .LVU598
 1985              	.LBE269:
 1986              	.LBE268:
 188:fltk-1.3.4-1/png/pngwutil.c **** }
 1987              		.loc 1 188 4 is_stmt 1 view .LVU599
 1988              	.LBB271:
 1989              	.LBI271:
 147:fltk-1.3.4-1/png/pngwutil.c **** {
 1990              		.loc 1 147 1 view .LVU600
 1991              	.LBB272:
 149:fltk-1.3.4-1/png/pngwutil.c **** 
 1992              		.loc 1 149 4 view .LVU601
 151:fltk-1.3.4-1/png/pngwutil.c **** 
 1993              		.loc 1 151 4 view .LVU602
 1994 002d 4889EF   		movq	%rbp, %rdi
 1995              	.LBE272:
 1996              	.LBE271:
 189:fltk-1.3.4-1/png/pngwutil.c **** 
 1997              		.loc 1 189 1 is_stmt 0 view .LVU603
 1998 0030 5D       		popq	%rbp
 1999              		.cfi_remember_state
 2000              		.cfi_restore 6
 2001              		.cfi_def_cfa_offset 24
 2002              	.LVL201:
 189:fltk-1.3.4-1/png/pngwutil.c **** 
 2003              		.loc 1 189 1 view .LVU604
 2004 0031 415C     		popq	%r12
 2005              		.cfi_restore 12
 2006              		.cfi_def_cfa_offset 16
 2007              	.LVL202:
 189:fltk-1.3.4-1/png/pngwutil.c **** 
 2008              		.loc 1 189 1 view .LVU605
 2009 0033 415D     		popq	%r13
 2010              		.cfi_restore 13
 2011              		.cfi_def_cfa_offset 8
 2012              	.LVL203:
 2013              	.LBB276:
 2014              	.LBB273:
 189:fltk-1.3.4-1/png/pngwutil.c **** 
 2015              		.loc 1 189 1 view .LVU606
 2016 0035 E9000000 		jmp	png_write_chunk_end.part.0
 2016      00
 2017              	.LVL204:
 2018 003a 660F1F44 		.p2align 4,,10
 2018      0000
 2019              		.p2align 3
 2020              	.L175:
 2021              		.cfi_restore_state
 189:fltk-1.3.4-1/png/pngwutil.c **** 
 2022              		.loc 1 189 1 view .LVU607
 2023              	.LBE273:
 2024              	.LBE276:
 2025              	.LBB277:
 2026              	.LBB270:
 2027 0040 4889EF   		movq	%rbp, %rdi
 2028 0043 4C89E2   		movq	%r12, %rdx
 2029 0046 4C89EE   		movq	%r13, %rsi
 2030 0049 E8000000 		call	png_write_chunk_data.part.0
 2030      00
 2031              	.LVL205:
 189:fltk-1.3.4-1/png/pngwutil.c **** 
 2032              		.loc 1 189 1 view .LVU608
 2033              	.LBE270:
 2034              	.LBE277:
 188:fltk-1.3.4-1/png/pngwutil.c **** }
 2035              		.loc 1 188 4 is_stmt 1 view .LVU609
 2036              	.LBB278:
 147:fltk-1.3.4-1/png/pngwutil.c **** {
 2037              		.loc 1 147 1 view .LVU610
 2038              	.LBB274:
 149:fltk-1.3.4-1/png/pngwutil.c **** 
 2039              		.loc 1 149 4 view .LVU611
 151:fltk-1.3.4-1/png/pngwutil.c **** 
 2040              		.loc 1 151 4 view .LVU612
 2041 004e 4889EF   		movq	%rbp, %rdi
 2042              	.LBE274:
 2043              	.LBE278:
 189:fltk-1.3.4-1/png/pngwutil.c **** 
 2044              		.loc 1 189 1 is_stmt 0 view .LVU613
 2045 0051 5D       		popq	%rbp
 2046              		.cfi_restore 6
 2047              		.cfi_def_cfa_offset 24
 2048              	.LVL206:
 189:fltk-1.3.4-1/png/pngwutil.c **** 
 2049              		.loc 1 189 1 view .LVU614
 2050 0052 415C     		popq	%r12
 2051              		.cfi_restore 12
 2052              		.cfi_def_cfa_offset 16
 2053              	.LVL207:
 189:fltk-1.3.4-1/png/pngwutil.c **** 
 2054              		.loc 1 189 1 view .LVU615
 2055 0054 415D     		popq	%r13
 2056              		.cfi_restore 13
 2057              		.cfi_def_cfa_offset 8
 2058              	.LVL208:
 2059              	.LBB279:
 2060              	.LBB275:
 189:fltk-1.3.4-1/png/pngwutil.c **** 
 2061              		.loc 1 189 1 view .LVU616
 2062 0056 E9000000 		jmp	png_write_chunk_end.part.0
 2062      00
 2063              	.LVL209:
 2064 005b 0F1F4400 		.p2align 4,,10
 2064      00
 2065              		.p2align 3
 2066              	.L161:
 189:fltk-1.3.4-1/png/pngwutil.c **** 
 2067              		.loc 1 189 1 view .LVU617
 2068 0060 C3       		ret
 2069              	.L174:
 2070              		.cfi_def_cfa_offset 32
 2071              		.cfi_offset 6, -32
 2072              		.cfi_offset 12, -24
 2073              		.cfi_offset 13, -16
 189:fltk-1.3.4-1/png/pngwutil.c **** 
 2074              		.loc 1 189 1 view .LVU618
 2075              	.LBE275:
 2076              	.LBE279:
 184:fltk-1.3.4-1/png/pngwutil.c **** 
 2077              		.loc 1 184 7 is_stmt 1 view .LVU619
 2078 0061 488D3500 		leaq	.LC8(%rip), %rsi
 2078      000000
 2079              	.LVL210:
 184:fltk-1.3.4-1/png/pngwutil.c **** 
 2080              		.loc 1 184 7 is_stmt 0 view .LVU620
 2081 0068 E8000000 		call	png_error@PLT
 2081      00
 2082              	.LVL211:
 184:fltk-1.3.4-1/png/pngwutil.c **** 
 2083              		.loc 1 184 7 view .LVU621
 2084              		.cfi_endproc
 2085              	.LFE48:
 2087              		.section	.text.png_save_uint_32,"ax",@progbits
 2088              		.p2align 4
 2089              		.globl	png_save_uint_32
 2091              	png_save_uint_32:
 2092              	.LVL212:
 2093              	.LFB41:
  25:fltk-1.3.4-1/png/pngwutil.c ****    buf[0] = (png_byte)((i >> 24) & 0xff);
 2094              		.loc 1 25 1 is_stmt 1 view -0
 2095              		.cfi_startproc
  25:fltk-1.3.4-1/png/pngwutil.c ****    buf[0] = (png_byte)((i >> 24) & 0xff);
 2096              		.loc 1 25 1 is_stmt 0 view .LVU623
 2097 0000 F30F1EFA 		endbr64
  26:fltk-1.3.4-1/png/pngwutil.c ****    buf[1] = (png_byte)((i >> 16) & 0xff);
 2098              		.loc 1 26 4 is_stmt 1 view .LVU624
  27:fltk-1.3.4-1/png/pngwutil.c ****    buf[2] = (png_byte)((i >> 8) & 0xff);
 2099              		.loc 1 27 4 view .LVU625
  28:fltk-1.3.4-1/png/pngwutil.c ****    buf[3] = (png_byte)(i & 0xff);
 2100              		.loc 1 28 4 view .LVU626
  29:fltk-1.3.4-1/png/pngwutil.c **** }
 2101              		.loc 1 29 4 view .LVU627
 2102 0004 0FCE     		bswap	%esi
 2103              	.LVL213:
  26:fltk-1.3.4-1/png/pngwutil.c ****    buf[1] = (png_byte)((i >> 16) & 0xff);
 2104              		.loc 1 26 11 is_stmt 0 view .LVU628
 2105 0006 8937     		movl	%esi, (%rdi)
  30:fltk-1.3.4-1/png/pngwutil.c **** 
 2106              		.loc 1 30 1 view .LVU629
 2107 0008 C3       		ret
 2108              		.cfi_endproc
 2109              	.LFE41:
 2111              		.section	.text.png_save_uint_16,"ax",@progbits
 2112              		.p2align 4
 2113              		.globl	png_save_uint_16
 2115              	png_save_uint_16:
 2116              	.LVL214:
 2117              	.LFB42:
  38:fltk-1.3.4-1/png/pngwutil.c ****    buf[0] = (png_byte)((i >> 8) & 0xff);
 2118              		.loc 1 38 1 is_stmt 1 view -0
 2119              		.cfi_startproc
  38:fltk-1.3.4-1/png/pngwutil.c ****    buf[0] = (png_byte)((i >> 8) & 0xff);
 2120              		.loc 1 38 1 is_stmt 0 view .LVU631
 2121 0000 F30F1EFA 		endbr64
  39:fltk-1.3.4-1/png/pngwutil.c ****    buf[1] = (png_byte)(i & 0xff);
 2122              		.loc 1 39 4 is_stmt 1 view .LVU632
  40:fltk-1.3.4-1/png/pngwutil.c **** }
 2123              		.loc 1 40 4 view .LVU633
  39:fltk-1.3.4-1/png/pngwutil.c ****    buf[1] = (png_byte)(i & 0xff);
 2124              		.loc 1 39 11 is_stmt 0 view .LVU634
 2125 0004 66C1C608 		rolw	$8, %si
 2126              	.LVL215:
  39:fltk-1.3.4-1/png/pngwutil.c ****    buf[1] = (png_byte)(i & 0xff);
 2127              		.loc 1 39 11 view .LVU635
 2128 0008 668937   		movw	%si, (%rdi)
  41:fltk-1.3.4-1/png/pngwutil.c **** #endif
 2129              		.loc 1 41 1 view .LVU636
 2130 000b C3       		ret
 2131              		.cfi_endproc
 2132              	.LFE42:
 2134              		.section	.text.png_write_sig,"ax",@progbits
 2135              		.p2align 4
 2136              		.globl	png_write_sig
 2138              	png_write_sig:
 2139              	.LVL216:
 2140              	.LFB43:
  52:fltk-1.3.4-1/png/pngwutil.c ****    png_byte png_signature[8] = {137, 80, 78, 71, 13, 10, 26, 10};
 2141              		.loc 1 52 1 is_stmt 1 view -0
 2142              		.cfi_startproc
  52:fltk-1.3.4-1/png/pngwutil.c ****    png_byte png_signature[8] = {137, 80, 78, 71, 13, 10, 26, 10};
 2143              		.loc 1 52 1 is_stmt 0 view .LVU638
 2144 0000 F30F1EFA 		endbr64
 2145 0004 53       		pushq	%rbx
 2146              		.cfi_def_cfa_offset 16
 2147              		.cfi_offset 3, -16
  62:fltk-1.3.4-1/png/pngwutil.c **** 
 2148              		.loc 1 62 22 view .LVU639
 2149 0005 BA080000 		movl	$8, %edx
 2149      00
  52:fltk-1.3.4-1/png/pngwutil.c ****    png_byte png_signature[8] = {137, 80, 78, 71, 13, 10, 26, 10};
 2150              		.loc 1 52 1 view .LVU640
 2151 000a 4889FB   		movq	%rdi, %rbx
 2152 000d 4883EC10 		subq	$16, %rsp
 2153              		.cfi_def_cfa_offset 32
  62:fltk-1.3.4-1/png/pngwutil.c **** 
 2154              		.loc 1 62 31 view .LVU641
 2155 0011 0FB68F7D 		movzbl	637(%rdi), %ecx
 2155      020000
  52:fltk-1.3.4-1/png/pngwutil.c ****    png_byte png_signature[8] = {137, 80, 78, 71, 13, 10, 26, 10};
 2156              		.loc 1 52 1 view .LVU642
 2157 0018 64488B04 		movq	%fs:40, %rax
 2157      25280000 
 2157      00
 2158 0021 48894424 		movq	%rax, 8(%rsp)
 2158      08
 2159 0026 31C0     		xorl	%eax, %eax
  53:fltk-1.3.4-1/png/pngwutil.c **** 
 2160              		.loc 1 53 4 is_stmt 1 view .LVU643
  57:fltk-1.3.4-1/png/pngwutil.c **** #endif
 2161              		.loc 1 57 22 is_stmt 0 view .LVU644
 2162 0028 C787AC04 		movl	$18, 1196(%rdi)
 2162      00001200 
 2162      0000
  53:fltk-1.3.4-1/png/pngwutil.c **** 
 2163              		.loc 1 53 13 view .LVU645
 2164 0032 48B88950 		movabsq	$727905341920923785, %rax
 2164      4E470D0A 
 2164      1A0A
  62:fltk-1.3.4-1/png/pngwutil.c **** 
 2165              		.loc 1 62 22 view .LVU646
 2166 003c 29CA     		subl	%ecx, %edx
  61:fltk-1.3.4-1/png/pngwutil.c ****       (png_size_t)(8 - png_ptr->sig_bytes));
 2167              		.loc 1 61 28 view .LVU647
 2168 003e 488D340C 		leaq	(%rsp,%rcx), %rsi
  53:fltk-1.3.4-1/png/pngwutil.c **** 
 2169              		.loc 1 53 13 view .LVU648
 2170 0042 48890424 		movq	%rax, (%rsp)
  57:fltk-1.3.4-1/png/pngwutil.c **** #endif
 2171              		.loc 1 57 4 is_stmt 1 view .LVU649
  61:fltk-1.3.4-1/png/pngwutil.c ****       (png_size_t)(8 - png_ptr->sig_bytes));
 2172              		.loc 1 61 4 view .LVU650
 2173 0046 4863D2   		movslq	%edx, %rdx
 2174 0049 E8000000 		call	png_write_data@PLT
 2174      00
 2175              	.LVL217:
  64:fltk-1.3.4-1/png/pngwutil.c ****       png_ptr->mode |= PNG_HAVE_PNG_SIGNATURE;
 2176              		.loc 1 64 4 view .LVU651
  64:fltk-1.3.4-1/png/pngwutil.c ****       png_ptr->mode |= PNG_HAVE_PNG_SIGNATURE;
 2177              		.loc 1 64 7 is_stmt 0 view .LVU652
 2178 004e 80BB7D02 		cmpb	$2, 637(%rbx)
 2178      000002
 2179 0055 770A     		ja	.L178
  65:fltk-1.3.4-1/png/pngwutil.c **** }
 2180              		.loc 1 65 7 is_stmt 1 view .LVU653
  65:fltk-1.3.4-1/png/pngwutil.c **** }
 2181              		.loc 1 65 21 is_stmt 0 view .LVU654
 2182 0057 818B2C01 		orl	$4096, 300(%rbx)
 2182      00000010 
 2182      0000
 2183              	.L178:
  66:fltk-1.3.4-1/png/pngwutil.c **** 
 2184              		.loc 1 66 1 view .LVU655
 2185 0061 488B4424 		movq	8(%rsp), %rax
 2185      08
 2186 0066 64483304 		xorq	%fs:40, %rax
 2186      25280000 
 2186      00
 2187 006f 7506     		jne	.L182
 2188 0071 4883C410 		addq	$16, %rsp
 2189              		.cfi_remember_state
 2190              		.cfi_def_cfa_offset 16
 2191 0075 5B       		popq	%rbx
 2192              		.cfi_def_cfa_offset 8
 2193              	.LVL218:
  66:fltk-1.3.4-1/png/pngwutil.c **** 
 2194              		.loc 1 66 1 view .LVU656
 2195 0076 C3       		ret
 2196              	.LVL219:
 2197              	.L182:
 2198              		.cfi_restore_state
  66:fltk-1.3.4-1/png/pngwutil.c **** 
 2199              		.loc 1 66 1 view .LVU657
 2200 0077 E8000000 		call	__stack_chk_fail@PLT
 2200      00
 2201              	.LVL220:
 2202              		.cfi_endproc
 2203              	.LFE43:
 2205              		.section	.text.png_write_chunk_start,"ax",@progbits
 2206              		.p2align 4
 2207              		.globl	png_write_chunk_start
 2209              	png_write_chunk_start:
 2210              	.LVL221:
 2211              	.LFB45:
 117:fltk-1.3.4-1/png/pngwutil.c ****    png_write_chunk_header(png_ptr, PNG_CHUNK_FROM_STRING(chunk_string), length);
 2212              		.loc 1 117 1 is_stmt 1 view -0
 2213              		.cfi_startproc
 117:fltk-1.3.4-1/png/pngwutil.c ****    png_write_chunk_header(png_ptr, PNG_CHUNK_FROM_STRING(chunk_string), length);
 2214              		.loc 1 117 1 is_stmt 0 view .LVU659
 2215 0000 F30F1EFA 		endbr64
 118:fltk-1.3.4-1/png/pngwutil.c **** }
 2216              		.loc 1 118 4 is_stmt 1 view .LVU660
 2217              	.LVL222:
 2218              	.LBB280:
 2219              	.LBI280:
  73:fltk-1.3.4-1/png/pngwutil.c ****     png_uint_32 length)
 2220              		.loc 1 73 1 view .LVU661
 2221              	.LBB281:
  76:fltk-1.3.4-1/png/pngwutil.c **** 
 2222              		.loc 1 76 4 view .LVU662
  83:fltk-1.3.4-1/png/pngwutil.c ****       return;
 2223              		.loc 1 83 4 view .LVU663
  83:fltk-1.3.4-1/png/pngwutil.c ****       return;
 2224              		.loc 1 83 7 is_stmt 0 view .LVU664
 2225 0004 4885FF   		testq	%rdi, %rdi
 2226 0007 740F     		je	.L183
 2227 0009 8B36     		movl	(%rsi), %esi
 2228              	.LVL223:
  83:fltk-1.3.4-1/png/pngwutil.c ****       return;
 2229              		.loc 1 83 7 view .LVU665
 2230 000b 0FCE     		bswap	%esi
 2231 000d E9000000 		jmp	png_write_chunk_header.part.0
 2231      00
 2232              	.LVL224:
 2233              		.p2align 4,,10
 2234 0012 660F1F44 		.p2align 3
 2234      0000
 2235              	.L183:
  83:fltk-1.3.4-1/png/pngwutil.c ****       return;
 2236              		.loc 1 83 7 view .LVU666
 2237              	.LBE281:
 2238              	.LBE280:
 119:fltk-1.3.4-1/png/pngwutil.c **** 
 2239              		.loc 1 119 1 view .LVU667
 2240 0018 C3       		ret
 2241              		.cfi_endproc
 2242              	.LFE45:
 2244              		.section	.text.png_write_chunk_data,"ax",@progbits
 2245              		.p2align 4
 2246              		.globl	png_write_chunk_data
 2248              	png_write_chunk_data:
 2249              	.LVL225:
 2250              	.LFB46:
 129:fltk-1.3.4-1/png/pngwutil.c ****    /* Write the data, and run the CRC over it */
 2251              		.loc 1 129 1 is_stmt 1 view -0
 2252              		.cfi_startproc
 129:fltk-1.3.4-1/png/pngwutil.c ****    /* Write the data, and run the CRC over it */
 2253              		.loc 1 129 1 is_stmt 0 view .LVU669
 2254 0000 F30F1EFA 		endbr64
 131:fltk-1.3.4-1/png/pngwutil.c ****       return;
 2255              		.loc 1 131 4 is_stmt 1 view .LVU670
 131:fltk-1.3.4-1/png/pngwutil.c ****       return;
 2256              		.loc 1 131 7 is_stmt 0 view .LVU671
 2257 0004 4885FF   		testq	%rdi, %rdi
 2258 0007 740A     		je	.L185
 134:fltk-1.3.4-1/png/pngwutil.c ****    {
 2259              		.loc 1 134 4 is_stmt 1 view .LVU672
 134:fltk-1.3.4-1/png/pngwutil.c ****    {
 2260              		.loc 1 134 7 is_stmt 0 view .LVU673
 2261 0009 4885F6   		testq	%rsi, %rsi
 2262 000c 7405     		je	.L185
 2263 000e 4885D2   		testq	%rdx, %rdx
 2264 0011 7505     		jne	.L196
 2265              	.L185:
 143:fltk-1.3.4-1/png/pngwutil.c **** 
 2266              		.loc 1 143 1 view .LVU674
 2267 0013 C3       		ret
 2268              		.p2align 4,,10
 2269 0014 0F1F4000 		.p2align 3
 2270              	.L196:
 2271 0018 E9000000 		jmp	png_write_chunk_data.part.0
 2271      00
 2272              	.LVL226:
 143:fltk-1.3.4-1/png/pngwutil.c **** 
 2273              		.loc 1 143 1 view .LVU675
 2274              		.cfi_endproc
 2275              	.LFE46:
 2277              		.section	.text.png_write_chunk_end,"ax",@progbits
 2278              		.p2align 4
 2279              		.globl	png_write_chunk_end
 2281              	png_write_chunk_end:
 2282              	.LVL227:
 2283              	.LFB47:
 148:fltk-1.3.4-1/png/pngwutil.c ****    png_byte buf[4];
 2284              		.loc 1 148 1 is_stmt 1 view -0
 2285              		.cfi_startproc
 148:fltk-1.3.4-1/png/pngwutil.c ****    png_byte buf[4];
 2286              		.loc 1 148 1 is_stmt 0 view .LVU677
 2287 0000 F30F1EFA 		endbr64
 149:fltk-1.3.4-1/png/pngwutil.c **** 
 2288              		.loc 1 149 4 is_stmt 1 view .LVU678
 151:fltk-1.3.4-1/png/pngwutil.c **** 
 2289              		.loc 1 151 4 view .LVU679
 151:fltk-1.3.4-1/png/pngwutil.c **** 
 2290              		.loc 1 151 7 is_stmt 0 view .LVU680
 2291 0004 4885FF   		testq	%rdi, %rdi
 2292 0007 7407     		je	.L197
 2293 0009 E9000000 		jmp	png_write_chunk_end.part.0
 2293      00
 2294              	.LVL228:
 2295 000e 6690     		.p2align 4,,10
 2296              		.p2align 3
 2297              	.L197:
 164:fltk-1.3.4-1/png/pngwutil.c **** 
 2298              		.loc 1 164 1 view .LVU681
 2299 0010 C3       		ret
 2300              		.cfi_endproc
 2301              	.LFE47:
 2303              		.section	.text.png_write_chunk,"ax",@progbits
 2304              		.p2align 4
 2305              		.globl	png_write_chunk
 2307              	png_write_chunk:
 2308              	.LVL229:
 2309              	.LFB49:
 195:fltk-1.3.4-1/png/pngwutil.c ****    png_write_complete_chunk(png_ptr, PNG_CHUNK_FROM_STRING(chunk_string), data,
 2310              		.loc 1 195 1 is_stmt 1 view -0
 2311              		.cfi_startproc
 195:fltk-1.3.4-1/png/pngwutil.c ****    png_write_complete_chunk(png_ptr, PNG_CHUNK_FROM_STRING(chunk_string), data,
 2312              		.loc 1 195 1 is_stmt 0 view .LVU683
 2313 0000 F30F1EFA 		endbr64
 196:fltk-1.3.4-1/png/pngwutil.c ****       length);
 2314              		.loc 1 196 4 is_stmt 1 view .LVU684
 2315 0004 8B36     		movl	(%rsi), %esi
 2316              	.LVL230:
 196:fltk-1.3.4-1/png/pngwutil.c ****       length);
 2317              		.loc 1 196 4 is_stmt 0 view .LVU685
 2318 0006 0FCE     		bswap	%esi
 2319 0008 E9000000 		jmp	png_write_complete_chunk
 2319      00
 2320              	.LVL231:
 196:fltk-1.3.4-1/png/pngwutil.c ****       length);
 2321              		.loc 1 196 4 view .LVU686
 2322              		.cfi_endproc
 2323              	.LFE49:
 2325              		.section	.text.png_free_buffer_list,"ax",@progbits
 2326              		.p2align 4
 2327              		.globl	png_free_buffer_list
 2329              	png_free_buffer_list:
 2330              	.LVL232:
 2331              	.LFB53:
 441:fltk-1.3.4-1/png/pngwutil.c ****    png_compression_bufferp list = *listp;
 2332              		.loc 1 441 1 is_stmt 1 view -0
 2333              		.cfi_startproc
 441:fltk-1.3.4-1/png/pngwutil.c ****    png_compression_bufferp list = *listp;
 2334              		.loc 1 441 1 is_stmt 0 view .LVU688
 2335 0000 F30F1EFA 		endbr64
 442:fltk-1.3.4-1/png/pngwutil.c **** 
 2336              		.loc 1 442 4 is_stmt 1 view .LVU689
 441:fltk-1.3.4-1/png/pngwutil.c ****    png_compression_bufferp list = *listp;
 2337              		.loc 1 441 1 is_stmt 0 view .LVU690
 2338 0004 55       		pushq	%rbp
 2339              		.cfi_def_cfa_offset 16
 2340              		.cfi_offset 6, -16
 2341 0005 53       		pushq	%rbx
 2342              		.cfi_def_cfa_offset 24
 2343              		.cfi_offset 3, -24
 2344 0006 4883EC08 		subq	$8, %rsp
 2345              		.cfi_def_cfa_offset 32
 442:fltk-1.3.4-1/png/pngwutil.c **** 
 2346              		.loc 1 442 28 view .LVU691
 2347 000a 488B1E   		movq	(%rsi), %rbx
 2348              	.LVL233:
 444:fltk-1.3.4-1/png/pngwutil.c ****    {
 2349              		.loc 1 444 4 is_stmt 1 view .LVU692
 444:fltk-1.3.4-1/png/pngwutil.c ****    {
 2350              		.loc 1 444 7 is_stmt 0 view .LVU693
 2351 000d 4885DB   		testq	%rbx, %rbx
 2352 0010 7421     		je	.L200
 446:fltk-1.3.4-1/png/pngwutil.c **** 
 2353              		.loc 1 446 14 view .LVU694
 2354 0012 48C70600 		movq	$0, (%rsi)
 2354      000000
 2355 0019 4889FD   		movq	%rdi, %rbp
 446:fltk-1.3.4-1/png/pngwutil.c **** 
 2356              		.loc 1 446 7 is_stmt 1 view .LVU695
 2357              	.LVL234:
 2358 001c 0F1F4000 		.p2align 4,,10
 2359              		.p2align 3
 2360              	.L202:
 448:fltk-1.3.4-1/png/pngwutil.c ****       {
 2361              		.loc 1 448 7 discriminator 1 view .LVU696
 2362              	.LBB282:
 450:fltk-1.3.4-1/png/pngwutil.c **** 
 2363              		.loc 1 450 10 discriminator 1 view .LVU697
 2364 0020 4889DE   		movq	%rbx, %rsi
 450:fltk-1.3.4-1/png/pngwutil.c **** 
 2365              		.loc 1 450 34 is_stmt 0 discriminator 1 view .LVU698
 2366 0023 488B1B   		movq	(%rbx), %rbx
 2367              	.LVL235:
 452:fltk-1.3.4-1/png/pngwutil.c ****          list = next;
 2368              		.loc 1 452 10 is_stmt 1 discriminator 1 view .LVU699
 2369 0026 4889EF   		movq	%rbp, %rdi
 2370 0029 E8000000 		call	png_free@PLT
 2370      00
 2371              	.LVL236:
 453:fltk-1.3.4-1/png/pngwutil.c ****       }
 2372              		.loc 1 453 10 discriminator 1 view .LVU700
 453:fltk-1.3.4-1/png/pngwutil.c ****       }
 2373              		.loc 1 453 10 is_stmt 0 discriminator 1 view .LVU701
 2374              	.LBE282:
 455:fltk-1.3.4-1/png/pngwutil.c ****    }
 2375              		.loc 1 455 13 is_stmt 1 discriminator 1 view .LVU702
 455:fltk-1.3.4-1/png/pngwutil.c ****    }
 2376              		.loc 1 455 7 is_stmt 0 discriminator 1 view .LVU703
 2377 002e 4885DB   		testq	%rbx, %rbx
 2378 0031 75ED     		jne	.L202
 2379              	.LVL237:
 2380              	.L200:
 457:fltk-1.3.4-1/png/pngwutil.c **** 
 2381              		.loc 1 457 1 view .LVU704
 2382 0033 4883C408 		addq	$8, %rsp
 2383              		.cfi_def_cfa_offset 24
 2384 0037 5B       		popq	%rbx
 2385              		.cfi_def_cfa_offset 16
 2386              	.LVL238:
 457:fltk-1.3.4-1/png/pngwutil.c **** 
 2387              		.loc 1 457 1 view .LVU705
 2388 0038 5D       		popq	%rbp
 2389              		.cfi_def_cfa_offset 8
 2390 0039 C3       		ret
 2391              		.cfi_endproc
 2392              	.LFE53:
 2394              		.section	.rodata.png_write_IHDR.str1.8,"aMS",@progbits,1
 2395              		.align 8
 2396              	.LC9:
 2397 0000 496E7661 		.string	"Invalid bit depth for grayscale image"
 2397      6C696420 
 2397      62697420 
 2397      64657074 
 2397      6820666F 
 2398 0026 0000     		.align 8
 2399              	.LC10:
 2400 0028 496E7661 		.string	"Invalid bit depth for RGB image"
 2400      6C696420 
 2400      62697420 
 2400      64657074 
 2400      6820666F 
 2401              		.align 8
 2402              	.LC11:
 2403 0048 496E7661 		.string	"Invalid bit depth for paletted image"
 2403      6C696420 
 2403      62697420 
 2403      64657074 
 2403      6820666F 
 2404 006d 000000   		.align 8
 2405              	.LC12:
 2406 0070 496E7661 		.string	"Invalid bit depth for grayscale+alpha image"
 2406      6C696420 
 2406      62697420 
 2406      64657074 
 2406      6820666F 
 2407 009c 00000000 		.align 8
 2408              	.LC13:
 2409 00a0 496E7661 		.string	"Invalid bit depth for RGBA image"
 2409      6C696420 
 2409      62697420 
 2409      64657074 
 2409      6820666F 
 2410 00c1 00000000 		.align 8
 2410      000000
 2411              	.LC14:
 2412 00c8 496E7661 		.string	"Invalid image color type specified"
 2412      6C696420 
 2412      696D6167 
 2412      6520636F 
 2412      6C6F7220 
 2413 00eb 00000000 		.align 8
 2413      00
 2414              	.LC15:
 2415 00f0 496E7661 		.string	"Invalid compression type specified"
 2415      6C696420 
 2415      636F6D70 
 2415      72657373 
 2415      696F6E20 
 2416              		.section	.rodata.png_write_IHDR.str1.1,"aMS",@progbits,1
 2417              	.LC16:
 2418 0000 496E7661 		.string	"Invalid filter type specified"
 2418      6C696420 
 2418      66696C74 
 2418      65722074 
 2418      79706520 
 2419              		.section	.rodata.png_write_IHDR.str1.8
 2420 0113 00000000 		.align 8
 2420      00
 2421              	.LC17:
 2422 0118 496E7661 		.string	"Invalid interlace type specified"
 2422      6C696420 
 2422      696E7465 
 2422      726C6163 
 2422      65207479 
 2423              		.section	.text.png_write_IHDR,"ax",@progbits
 2424              		.p2align 4
 2425              		.globl	png_write_IHDR
 2427              	png_write_IHDR:
 2428              	.LVL239:
 2429              	.LFB58:
 750:fltk-1.3.4-1/png/pngwutil.c **** #endif /* WRITE_TEXT || WRITE_pCAL || WRITE_iCCP || WRITE_sPLT */
 751:fltk-1.3.4-1/png/pngwutil.c **** 
 752:fltk-1.3.4-1/png/pngwutil.c **** /* Write the IHDR chunk, and update the png_struct with the necessary
 753:fltk-1.3.4-1/png/pngwutil.c ****  * information.  Note that the rest of this code depends upon this
 754:fltk-1.3.4-1/png/pngwutil.c ****  * information being correct.
 755:fltk-1.3.4-1/png/pngwutil.c ****  */
 756:fltk-1.3.4-1/png/pngwutil.c **** void /* PRIVATE */
 757:fltk-1.3.4-1/png/pngwutil.c **** png_write_IHDR(png_structrp png_ptr, png_uint_32 width, png_uint_32 height,
 758:fltk-1.3.4-1/png/pngwutil.c ****     int bit_depth, int color_type, int compression_type, int filter_type,
 759:fltk-1.3.4-1/png/pngwutil.c ****     int interlace_type)
 760:fltk-1.3.4-1/png/pngwutil.c **** {
 2430              		.loc 1 760 1 is_stmt 1 view -0
 2431              		.cfi_startproc
 2432              		.loc 1 760 1 is_stmt 0 view .LVU707
 2433 0000 F30F1EFA 		endbr64
 2434 0004 4157     		pushq	%r15
 2435              		.cfi_def_cfa_offset 16
 2436              		.cfi_offset 15, -16
 2437 0006 4156     		pushq	%r14
 2438              		.cfi_def_cfa_offset 24
 2439              		.cfi_offset 14, -24
 2440 0008 4155     		pushq	%r13
 2441              		.cfi_def_cfa_offset 32
 2442              		.cfi_offset 13, -32
 2443 000a 4154     		pushq	%r12
 2444              		.cfi_def_cfa_offset 40
 2445              		.cfi_offset 12, -40
 2446 000c 55       		pushq	%rbp
 2447              		.cfi_def_cfa_offset 48
 2448              		.cfi_offset 6, -48
 2449 000d 4889FD   		movq	%rdi, %rbp
 2450 0010 53       		pushq	%rbx
 2451              		.cfi_def_cfa_offset 56
 2452              		.cfi_offset 3, -56
 2453 0011 4883EC28 		subq	$40, %rsp
 2454              		.cfi_def_cfa_offset 96
 2455              		.loc 1 760 1 view .LVU708
 2456 0015 64488B04 		movq	%fs:40, %rax
 2456      25280000 
 2456      00
 2457 001e 48894424 		movq	%rax, 24(%rsp)
 2457      18
 2458 0023 31C0     		xorl	%eax, %eax
 761:fltk-1.3.4-1/png/pngwutil.c ****    png_byte buf[13]; /* Buffer to store the IHDR info */
 2459              		.loc 1 761 4 is_stmt 1 view .LVU709
 762:fltk-1.3.4-1/png/pngwutil.c **** 
 763:fltk-1.3.4-1/png/pngwutil.c ****    png_debug(1, "in png_write_IHDR");
 2460              		.loc 1 763 4 view .LVU710
 764:fltk-1.3.4-1/png/pngwutil.c **** 
 765:fltk-1.3.4-1/png/pngwutil.c ****    /* Check that we have valid input data from the application info */
 766:fltk-1.3.4-1/png/pngwutil.c ****    switch (color_type)
 2461              		.loc 1 766 4 view .LVU711
 2462 0025 4183F806 		cmpl	$6, %r8d
 2463 0029 0F879502 		ja	.L209
 2463      0000
 2464 002f 4189D5   		movl	%edx, %r13d
 2465 0032 89CB     		movl	%ecx, %ebx
 2466 0034 4489C2   		movl	%r8d, %edx
 2467              	.LVL240:
 2468              		.loc 1 766 4 is_stmt 0 view .LVU712
 2469 0037 4189F4   		movl	%esi, %r12d
 2470 003a 488D0D00 		leaq	.L211(%rip), %rcx
 2470      000000
 2471              	.LVL241:
 2472              		.loc 1 766 4 view .LVU713
 2473 0041 4589C6   		movl	%r8d, %r14d
 2474 0044 48630491 		movslq	(%rcx,%rdx,4), %rax
 2475 0048 4801C8   		addq	%rcx, %rax
 2476 004b 3EFFE0   		notrack jmp	*%rax
 2477              		.section	.rodata.png_write_IHDR,"a",@progbits
 2478              		.align 4
 2479              		.align 4
 2480              	.L211:
 2481 0000 00000000 		.long	.L215-.L211
 2482 0004 00000000 		.long	.L209-.L211
 2483 0008 00000000 		.long	.L214-.L211
 2484 000c 00000000 		.long	.L213-.L211
 2485 0010 00000000 		.long	.L212-.L211
 2486 0014 00000000 		.long	.L209-.L211
 2487 0018 00000000 		.long	.L210-.L211
 2488              		.section	.text.png_write_IHDR
 2489 004e 6690     		.p2align 4,,10
 2490              		.p2align 3
 2491              	.L213:
 767:fltk-1.3.4-1/png/pngwutil.c ****    {
 768:fltk-1.3.4-1/png/pngwutil.c ****       case PNG_COLOR_TYPE_GRAY:
 769:fltk-1.3.4-1/png/pngwutil.c ****          switch (bit_depth)
 770:fltk-1.3.4-1/png/pngwutil.c ****          {
 771:fltk-1.3.4-1/png/pngwutil.c ****             case 1:
 772:fltk-1.3.4-1/png/pngwutil.c ****             case 2:
 773:fltk-1.3.4-1/png/pngwutil.c ****             case 4:
 774:fltk-1.3.4-1/png/pngwutil.c ****             case 8:
 775:fltk-1.3.4-1/png/pngwutil.c **** #ifdef PNG_WRITE_16BIT_SUPPORTED
 776:fltk-1.3.4-1/png/pngwutil.c ****             case 16:
 777:fltk-1.3.4-1/png/pngwutil.c **** #endif
 778:fltk-1.3.4-1/png/pngwutil.c ****                png_ptr->channels = 1; break;
 779:fltk-1.3.4-1/png/pngwutil.c **** 
 780:fltk-1.3.4-1/png/pngwutil.c ****             default:
 781:fltk-1.3.4-1/png/pngwutil.c ****                png_error(png_ptr,
 782:fltk-1.3.4-1/png/pngwutil.c ****                    "Invalid bit depth for grayscale image");
 783:fltk-1.3.4-1/png/pngwutil.c ****          }
 784:fltk-1.3.4-1/png/pngwutil.c ****          break;
 785:fltk-1.3.4-1/png/pngwutil.c **** 
 786:fltk-1.3.4-1/png/pngwutil.c ****       case PNG_COLOR_TYPE_RGB:
 787:fltk-1.3.4-1/png/pngwutil.c **** #ifdef PNG_WRITE_16BIT_SUPPORTED
 788:fltk-1.3.4-1/png/pngwutil.c ****          if (bit_depth != 8 && bit_depth != 16)
 789:fltk-1.3.4-1/png/pngwutil.c **** #else
 790:fltk-1.3.4-1/png/pngwutil.c ****          if (bit_depth != 8)
 791:fltk-1.3.4-1/png/pngwutil.c **** #endif
 792:fltk-1.3.4-1/png/pngwutil.c ****             png_error(png_ptr, "Invalid bit depth for RGB image");
 793:fltk-1.3.4-1/png/pngwutil.c **** 
 794:fltk-1.3.4-1/png/pngwutil.c ****          png_ptr->channels = 3;
 795:fltk-1.3.4-1/png/pngwutil.c ****          break;
 796:fltk-1.3.4-1/png/pngwutil.c **** 
 797:fltk-1.3.4-1/png/pngwutil.c ****       case PNG_COLOR_TYPE_PALETTE:
 798:fltk-1.3.4-1/png/pngwutil.c ****          switch (bit_depth)
 2492              		.loc 1 798 10 is_stmt 1 view .LVU714
 2493 0050 83FB08   		cmpl	$8, %ebx
 2494 0053 7711     		ja	.L219
 2495 0055 B8010000 		movl	$1, %eax
 2495      00
 2496 005a 89D9     		movl	%ebx, %ecx
 2497 005c 48D3E0   		salq	%cl, %rax
 2498 005f A9160100 		testl	$278, %eax
 2498      00
 2499 0064 7537     		jne	.L220
 2500              	.L219:
 799:fltk-1.3.4-1/png/pngwutil.c ****          {
 800:fltk-1.3.4-1/png/pngwutil.c ****             case 1:
 801:fltk-1.3.4-1/png/pngwutil.c ****             case 2:
 802:fltk-1.3.4-1/png/pngwutil.c ****             case 4:
 803:fltk-1.3.4-1/png/pngwutil.c ****             case 8:
 804:fltk-1.3.4-1/png/pngwutil.c ****                png_ptr->channels = 1;
 805:fltk-1.3.4-1/png/pngwutil.c ****                break;
 806:fltk-1.3.4-1/png/pngwutil.c **** 
 807:fltk-1.3.4-1/png/pngwutil.c ****             default:
 808:fltk-1.3.4-1/png/pngwutil.c ****                png_error(png_ptr, "Invalid bit depth for paletted image");
 2501              		.loc 1 808 16 view .LVU715
 2502 0066 488D3500 		leaq	.LC11(%rip), %rsi
 2502      000000
 2503              	.LVL242:
 2504              		.loc 1 808 16 is_stmt 0 view .LVU716
 2505 006d 4889EF   		movq	%rbp, %rdi
 2506              	.LVL243:
 2507              		.loc 1 808 16 view .LVU717
 2508 0070 E8000000 		call	png_error@PLT
 2508      00
 2509              	.LVL244:
 2510              		.p2align 4,,10
 2511 0075 0F1F00   		.p2align 3
 2512              	.L215:
 769:fltk-1.3.4-1/png/pngwutil.c ****          {
 2513              		.loc 1 769 10 is_stmt 1 view .LVU718
 2514 0078 83FB10   		cmpl	$16, %ebx
 2515 007b 7711     		ja	.L216
 2516 007d B8010000 		movl	$1, %eax
 2516      00
 2517 0082 89D9     		movl	%ebx, %ecx
 2518 0084 48D3E0   		salq	%cl, %rax
 2519 0087 A9160101 		testl	$65814, %eax
 2519      00
 2520 008c 750F     		jne	.L220
 2521              	.L216:
 781:fltk-1.3.4-1/png/pngwutil.c ****                    "Invalid bit depth for grayscale image");
 2522              		.loc 1 781 16 view .LVU719
 2523 008e 488D3500 		leaq	.LC9(%rip), %rsi
 2523      000000
 2524              	.LVL245:
 781:fltk-1.3.4-1/png/pngwutil.c ****                    "Invalid bit depth for grayscale image");
 2525              		.loc 1 781 16 is_stmt 0 view .LVU720
 2526 0095 4889EF   		movq	%rbp, %rdi
 2527              	.LVL246:
 781:fltk-1.3.4-1/png/pngwutil.c ****                    "Invalid bit depth for grayscale image");
 2528              		.loc 1 781 16 view .LVU721
 2529 0098 E8000000 		call	png_error@PLT
 2529      00
 2530              	.LVL247:
 2531              	.L220:
 778:fltk-1.3.4-1/png/pngwutil.c **** 
 2532              		.loc 1 778 16 is_stmt 1 view .LVU722
 778:fltk-1.3.4-1/png/pngwutil.c **** 
 2533              		.loc 1 778 34 is_stmt 0 view .LVU723
 2534 009d C6857B02 		movb	$1, 635(%rbp)
 2534      000001
 778:fltk-1.3.4-1/png/pngwutil.c **** 
 2535              		.loc 1 778 39 is_stmt 1 view .LVU724
 784:fltk-1.3.4-1/png/pngwutil.c **** 
 2536              		.loc 1 784 10 view .LVU725
 2537              	.L217:
 809:fltk-1.3.4-1/png/pngwutil.c ****          }
 810:fltk-1.3.4-1/png/pngwutil.c ****          break;
 811:fltk-1.3.4-1/png/pngwutil.c **** 
 812:fltk-1.3.4-1/png/pngwutil.c ****       case PNG_COLOR_TYPE_GRAY_ALPHA:
 813:fltk-1.3.4-1/png/pngwutil.c ****          if (bit_depth != 8 && bit_depth != 16)
 814:fltk-1.3.4-1/png/pngwutil.c ****             png_error(png_ptr, "Invalid bit depth for grayscale+alpha image");
 815:fltk-1.3.4-1/png/pngwutil.c **** 
 816:fltk-1.3.4-1/png/pngwutil.c ****          png_ptr->channels = 2;
 817:fltk-1.3.4-1/png/pngwutil.c ****          break;
 818:fltk-1.3.4-1/png/pngwutil.c **** 
 819:fltk-1.3.4-1/png/pngwutil.c ****       case PNG_COLOR_TYPE_RGB_ALPHA:
 820:fltk-1.3.4-1/png/pngwutil.c **** #ifdef PNG_WRITE_16BIT_SUPPORTED
 821:fltk-1.3.4-1/png/pngwutil.c ****          if (bit_depth != 8 && bit_depth != 16)
 822:fltk-1.3.4-1/png/pngwutil.c **** #else
 823:fltk-1.3.4-1/png/pngwutil.c ****          if (bit_depth != 8)
 824:fltk-1.3.4-1/png/pngwutil.c **** #endif
 825:fltk-1.3.4-1/png/pngwutil.c ****             png_error(png_ptr, "Invalid bit depth for RGBA image");
 826:fltk-1.3.4-1/png/pngwutil.c **** 
 827:fltk-1.3.4-1/png/pngwutil.c ****          png_ptr->channels = 4;
 828:fltk-1.3.4-1/png/pngwutil.c ****          break;
 829:fltk-1.3.4-1/png/pngwutil.c **** 
 830:fltk-1.3.4-1/png/pngwutil.c ****       default:
 831:fltk-1.3.4-1/png/pngwutil.c ****          png_error(png_ptr, "Invalid image color type specified");
 832:fltk-1.3.4-1/png/pngwutil.c ****    }
 833:fltk-1.3.4-1/png/pngwutil.c **** 
 834:fltk-1.3.4-1/png/pngwutil.c ****    if (compression_type != PNG_COMPRESSION_TYPE_BASE)
 2538              		.loc 1 834 4 view .LVU726
 2539              		.loc 1 834 7 is_stmt 0 view .LVU727
 2540 00a4 4585C9   		testl	%r9d, %r9d
 2541 00a7 0F859301 		jne	.L249
 2541      0000
 2542              	.LVL248:
 2543              	.L223:
 835:fltk-1.3.4-1/png/pngwutil.c ****    {
 836:fltk-1.3.4-1/png/pngwutil.c ****       png_warning(png_ptr, "Invalid compression type specified");
 837:fltk-1.3.4-1/png/pngwutil.c ****       compression_type = PNG_COMPRESSION_TYPE_BASE;
 838:fltk-1.3.4-1/png/pngwutil.c ****    }
 839:fltk-1.3.4-1/png/pngwutil.c **** 
 840:fltk-1.3.4-1/png/pngwutil.c ****    /* Write filter_method 64 (intrapixel differencing) only if
 841:fltk-1.3.4-1/png/pngwutil.c ****     * 1. Libpng was compiled with PNG_MNG_FEATURES_SUPPORTED and
 842:fltk-1.3.4-1/png/pngwutil.c ****     * 2. Libpng did not write a PNG signature (this filter_method is only
 843:fltk-1.3.4-1/png/pngwutil.c ****     *    used in PNG datastreams that are embedded in MNG datastreams) and
 844:fltk-1.3.4-1/png/pngwutil.c ****     * 3. The application called png_permit_mng_features with a mask that
 845:fltk-1.3.4-1/png/pngwutil.c ****     *    included PNG_FLAG_MNG_FILTER_64 and
 846:fltk-1.3.4-1/png/pngwutil.c ****     * 4. The filter_method is 64 and
 847:fltk-1.3.4-1/png/pngwutil.c ****     * 5. The color_type is RGB or RGBA
 848:fltk-1.3.4-1/png/pngwutil.c ****     */
 849:fltk-1.3.4-1/png/pngwutil.c ****    if (
 2544              		.loc 1 849 4 is_stmt 1 view .LVU728
 2545              		.loc 1 849 7 is_stmt 0 view .LVU729
 2546 00ad F6851804 		testb	$4, 1048(%rbp)
 2546      000004
 2547 00b4 742A     		je	.L224
 850:fltk-1.3.4-1/png/pngwutil.c **** #ifdef PNG_MNG_FEATURES_SUPPORTED
 851:fltk-1.3.4-1/png/pngwutil.c ****        !((png_ptr->mng_features_permitted & PNG_FLAG_MNG_FILTER_64) != 0 &&
 2548              		.loc 1 851 74 view .LVU730
 2549 00b6 F6852D01 		testb	$16, 301(%rbp)
 2549      000010
 2550 00bd 7521     		jne	.L224
 852:fltk-1.3.4-1/png/pngwutil.c ****        ((png_ptr->mode & PNG_HAVE_PNG_SIGNATURE) == 0) &&
 853:fltk-1.3.4-1/png/pngwutil.c ****        (color_type == PNG_COLOR_TYPE_RGB ||
 2551              		.loc 1 853 20 view .LVU731
 2552 00bf 4489F0   		movl	%r14d, %eax
 2553 00c2 83E0FB   		andl	$-5, %eax
 851:fltk-1.3.4-1/png/pngwutil.c ****        ((png_ptr->mode & PNG_HAVE_PNG_SIGNATURE) == 0) &&
 2554              		.loc 1 851 8 view .LVU732
 2555 00c5 83F802   		cmpl	$2, %eax
 2556 00c8 7516     		jne	.L224
 2557 00ca 837C2460 		cmpl	$64, 96(%rsp)
 2557      40
 2558 00cf 41BF4000 		movl	$64, %r15d
 2558      0000
 2559 00d5 7418     		je	.L225
 2560 00d7 660F1F84 		.p2align 4,,10
 2560      00000000 
 2560      00
 2561              		.p2align 3
 2562              	.L224:
 854:fltk-1.3.4-1/png/pngwutil.c ****         color_type == PNG_COLOR_TYPE_RGB_ALPHA) &&
 855:fltk-1.3.4-1/png/pngwutil.c ****        (filter_type == PNG_INTRAPIXEL_DIFFERENCING)) &&
 2563              		.loc 1 855 54 view .LVU733
 2564 00e0 8B442460 		movl	96(%rsp), %eax
 2565 00e4 4531FF   		xorl	%r15d, %r15d
 2566 00e7 85C0     		testl	%eax, %eax
 2567 00e9 0F856901 		jne	.L250
 2567      0000
 2568              	.LVL249:
 2569              	.L225:
 856:fltk-1.3.4-1/png/pngwutil.c **** #endif
 857:fltk-1.3.4-1/png/pngwutil.c ****        filter_type != PNG_FILTER_TYPE_BASE)
 858:fltk-1.3.4-1/png/pngwutil.c ****    {
 859:fltk-1.3.4-1/png/pngwutil.c ****       png_warning(png_ptr, "Invalid filter type specified");
 860:fltk-1.3.4-1/png/pngwutil.c ****       filter_type = PNG_FILTER_TYPE_BASE;
 861:fltk-1.3.4-1/png/pngwutil.c ****    }
 862:fltk-1.3.4-1/png/pngwutil.c **** 
 863:fltk-1.3.4-1/png/pngwutil.c **** #ifdef PNG_WRITE_INTERLACING_SUPPORTED
 864:fltk-1.3.4-1/png/pngwutil.c ****    if (interlace_type != PNG_INTERLACE_NONE &&
 2570              		.loc 1 864 4 is_stmt 1 view .LVU734
 2571              		.loc 1 864 7 is_stmt 0 view .LVU735
 2572 00ef 837C2468 		cmpl	$1, 104(%rsp)
 2572      01
 2573 00f4 0F872601 		ja	.L227
 2573      0000
 2574 00fa 0FB67C24 		movzbl	104(%rsp), %edi
 2574      68
 2575              	.LVL250:
 2576              	.L228:
 865:fltk-1.3.4-1/png/pngwutil.c ****        interlace_type != PNG_INTERLACE_ADAM7)
 866:fltk-1.3.4-1/png/pngwutil.c ****    {
 867:fltk-1.3.4-1/png/pngwutil.c ****       png_warning(png_ptr, "Invalid interlace type specified");
 868:fltk-1.3.4-1/png/pngwutil.c ****       interlace_type = PNG_INTERLACE_ADAM7;
 869:fltk-1.3.4-1/png/pngwutil.c ****    }
 870:fltk-1.3.4-1/png/pngwutil.c **** #else
 871:fltk-1.3.4-1/png/pngwutil.c ****    interlace_type=PNG_INTERLACE_NONE;
 872:fltk-1.3.4-1/png/pngwutil.c **** #endif
 873:fltk-1.3.4-1/png/pngwutil.c **** 
 874:fltk-1.3.4-1/png/pngwutil.c ****    /* Save the relevent information */
 875:fltk-1.3.4-1/png/pngwutil.c ****    png_ptr->bit_depth = (png_byte)bit_depth;
 2577              		.loc 1 875 4 is_stmt 1 view .LVU736
 876:fltk-1.3.4-1/png/pngwutil.c ****    png_ptr->color_type = (png_byte)color_type;
 877:fltk-1.3.4-1/png/pngwutil.c ****    png_ptr->interlaced = (png_byte)interlace_type;
 878:fltk-1.3.4-1/png/pngwutil.c **** #ifdef PNG_MNG_FEATURES_SUPPORTED
 879:fltk-1.3.4-1/png/pngwutil.c ****    png_ptr->filter_type = (png_byte)filter_type;
 880:fltk-1.3.4-1/png/pngwutil.c **** #endif
 881:fltk-1.3.4-1/png/pngwutil.c ****    png_ptr->compression_type = (png_byte)compression_type;
 882:fltk-1.3.4-1/png/pngwutil.c ****    png_ptr->width = width;
 883:fltk-1.3.4-1/png/pngwutil.c ****    png_ptr->height = height;
 884:fltk-1.3.4-1/png/pngwutil.c **** 
 885:fltk-1.3.4-1/png/pngwutil.c ****    png_ptr->pixel_depth = (png_byte)(bit_depth * png_ptr->channels);
 2578              		.loc 1 885 57 is_stmt 0 view .LVU737
 2579 00ff 0FB6957B 		movzbl	635(%rbp), %edx
 2579      020000
 875:fltk-1.3.4-1/png/pngwutil.c ****    png_ptr->color_type = (png_byte)color_type;
 2580              		.loc 1 875 23 view .LVU738
 2581 0106 889D7802 		movb	%bl, 632(%rbp)
 2581      0000
 876:fltk-1.3.4-1/png/pngwutil.c ****    png_ptr->color_type = (png_byte)color_type;
 2582              		.loc 1 876 4 is_stmt 1 view .LVU739
 2583 010c 4489E6   		movl	%r12d, %esi
 876:fltk-1.3.4-1/png/pngwutil.c ****    png_ptr->color_type = (png_byte)color_type;
 2584              		.loc 1 876 24 is_stmt 0 view .LVU740
 2585 010f 4488B577 		movb	%r14b, 631(%rbp)
 2585      020000
 877:fltk-1.3.4-1/png/pngwutil.c **** #ifdef PNG_MNG_FEATURES_SUPPORTED
 2586              		.loc 1 877 4 is_stmt 1 view .LVU741
 2587              		.loc 1 885 27 is_stmt 0 view .LVU742
 2588 0116 89D0     		movl	%edx, %eax
 877:fltk-1.3.4-1/png/pngwutil.c **** #ifdef PNG_MNG_FEATURES_SUPPORTED
 2589              		.loc 1 877 24 view .LVU743
 2590 0118 4088BD74 		movb	%dil, 628(%rbp)
 2590      020000
 879:fltk-1.3.4-1/png/pngwutil.c **** #endif
 2591              		.loc 1 879 4 is_stmt 1 view .LVU744
 2592              		.loc 1 885 27 is_stmt 0 view .LVU745
 2593 011f 0FAFC3   		imull	%ebx, %eax
 879:fltk-1.3.4-1/png/pngwutil.c **** #endif
 2594              		.loc 1 879 25 view .LVU746
 2595 0122 4488BD1C 		movb	%r15b, 1052(%rbp)
 2595      040000
 881:fltk-1.3.4-1/png/pngwutil.c ****    png_ptr->width = width;
 2596              		.loc 1 881 4 is_stmt 1 view .LVU747
 881:fltk-1.3.4-1/png/pngwutil.c ****    png_ptr->width = width;
 2597              		.loc 1 881 30 is_stmt 0 view .LVU748
 2598 0129 C6855804 		movb	$0, 1112(%rbp)
 2598      000000
 882:fltk-1.3.4-1/png/pngwutil.c ****    png_ptr->height = height;
 2599              		.loc 1 882 4 is_stmt 1 view .LVU749
 882:fltk-1.3.4-1/png/pngwutil.c ****    png_ptr->height = height;
 2600              		.loc 1 882 19 is_stmt 0 view .LVU750
 2601 0130 4489A5F8 		movl	%r12d, 504(%rbp)
 2601      010000
 883:fltk-1.3.4-1/png/pngwutil.c **** 
 2602              		.loc 1 883 4 is_stmt 1 view .LVU751
 883:fltk-1.3.4-1/png/pngwutil.c **** 
 2603              		.loc 1 883 20 is_stmt 0 view .LVU752
 2604 0137 4489ADFC 		movl	%r13d, 508(%rbp)
 2604      010000
 2605              		.loc 1 885 4 is_stmt 1 view .LVU753
 2606              		.loc 1 885 25 is_stmt 0 view .LVU754
 2607 013e 88857A02 		movb	%al, 634(%rbp)
 2607      0000
 886:fltk-1.3.4-1/png/pngwutil.c ****    png_ptr->rowbytes = PNG_ROWBYTES(png_ptr->pixel_depth, width);
 2608              		.loc 1 886 4 is_stmt 1 view .LVU755
 2609              		.loc 1 886 24 is_stmt 0 view .LVU756
 2610 0144 3C07     		cmpb	$7, %al
 2611 0146 0F86BC00 		jbe	.L229
 2611      0000
 2612              		.loc 1 886 24 discriminator 1 view .LVU757
 2613 014c C0E803   		shrb	$3, %al
 2614 014f 0FB6C0   		movzbl	%al, %eax
 2615 0152 480FAFC6 		imulq	%rsi, %rax
 2616              	.L230:
 887:fltk-1.3.4-1/png/pngwutil.c ****    /* Set the usr info, so any transformations can modify it */
 888:fltk-1.3.4-1/png/pngwutil.c ****    png_ptr->usr_width = png_ptr->width;
 2617              		.loc 1 888 23 discriminator 4 view .LVU758
 2618 0156 4489A504 		movl	%r12d, 516(%rbp)
 2618      020000
 889:fltk-1.3.4-1/png/pngwutil.c ****    png_ptr->usr_bit_depth = png_ptr->bit_depth;
 890:fltk-1.3.4-1/png/pngwutil.c ****    png_ptr->usr_channels = png_ptr->channels;
 891:fltk-1.3.4-1/png/pngwutil.c **** 
 892:fltk-1.3.4-1/png/pngwutil.c ****    /* Pack the header information into the buffer */
 893:fltk-1.3.4-1/png/pngwutil.c ****    png_save_uint_32(buf, width);
 894:fltk-1.3.4-1/png/pngwutil.c ****    png_save_uint_32(buf + 4, height);
 895:fltk-1.3.4-1/png/pngwutil.c ****    buf[8] = (png_byte)bit_depth;
 896:fltk-1.3.4-1/png/pngwutil.c ****    buf[9] = (png_byte)color_type;
 897:fltk-1.3.4-1/png/pngwutil.c ****    buf[10] = (png_byte)compression_type;
 898:fltk-1.3.4-1/png/pngwutil.c ****    buf[11] = (png_byte)filter_type;
 899:fltk-1.3.4-1/png/pngwutil.c ****    buf[12] = (png_byte)interlace_type;
 900:fltk-1.3.4-1/png/pngwutil.c **** 
 901:fltk-1.3.4-1/png/pngwutil.c ****    /* Write the chunk */
 902:fltk-1.3.4-1/png/pngwutil.c ****    png_write_complete_chunk(png_ptr, png_IHDR, buf, (png_size_t)13);
 2619              		.loc 1 902 4 discriminator 4 view .LVU759
 2620 015d B90D0000 		movl	$13, %ecx
 2620      00
 2621 0162 410FCC   		bswap	%r12d
 2622              	.LVL251:
 2623              		.loc 1 902 4 discriminator 4 view .LVU760
 2624 0165 410FCD   		bswap	%r13d
 2625              	.LVL252:
 890:fltk-1.3.4-1/png/pngwutil.c **** 
 2626              		.loc 1 890 26 discriminator 4 view .LVU761
 2627 0168 88957C02 		movb	%dl, 636(%rbp)
 2627      0000
 2628              		.loc 1 902 4 discriminator 4 view .LVU762
 2629 016e BE524448 		movl	$1229472850, %esi
 2629      49
 2630 0173 488D5424 		leaq	11(%rsp), %rdx
 2630      0B
 886:fltk-1.3.4-1/png/pngwutil.c ****    /* Set the usr info, so any transformations can modify it */
 2631              		.loc 1 886 22 discriminator 4 view .LVU763
 2632 0178 48898508 		movq	%rax, 520(%rbp)
 2632      020000
 888:fltk-1.3.4-1/png/pngwutil.c ****    png_ptr->usr_bit_depth = png_ptr->bit_depth;
 2633              		.loc 1 888 4 is_stmt 1 discriminator 4 view .LVU764
 889:fltk-1.3.4-1/png/pngwutil.c ****    png_ptr->usr_channels = png_ptr->channels;
 2634              		.loc 1 889 4 discriminator 4 view .LVU765
 889:fltk-1.3.4-1/png/pngwutil.c ****    png_ptr->usr_channels = png_ptr->channels;
 2635              		.loc 1 889 27 is_stmt 0 discriminator 4 view .LVU766
 2636 017f 889D7902 		movb	%bl, 633(%rbp)
 2636      0000
 890:fltk-1.3.4-1/png/pngwutil.c **** 
 2637              		.loc 1 890 4 is_stmt 1 discriminator 4 view .LVU767
 893:fltk-1.3.4-1/png/pngwutil.c ****    png_save_uint_32(buf + 4, height);
 2638              		.loc 1 893 4 discriminator 4 view .LVU768
 2639              	.LVL253:
 2640              	.LBB283:
 2641              	.LBI283:
  24:fltk-1.3.4-1/png/pngwutil.c **** {
 2642              		.loc 1 24 1 discriminator 4 view .LVU769
 2643              	.LBB284:
  26:fltk-1.3.4-1/png/pngwutil.c ****    buf[1] = (png_byte)((i >> 16) & 0xff);
 2644              		.loc 1 26 4 discriminator 4 view .LVU770
  27:fltk-1.3.4-1/png/pngwutil.c ****    buf[2] = (png_byte)((i >> 8) & 0xff);
 2645              		.loc 1 27 4 discriminator 4 view .LVU771
  28:fltk-1.3.4-1/png/pngwutil.c ****    buf[3] = (png_byte)(i & 0xff);
 2646              		.loc 1 28 4 discriminator 4 view .LVU772
  29:fltk-1.3.4-1/png/pngwutil.c **** }
 2647              		.loc 1 29 4 discriminator 4 view .LVU773
 2648              	.LBE284:
 2649              	.LBE283:
 899:fltk-1.3.4-1/png/pngwutil.c **** 
 2650              		.loc 1 899 12 is_stmt 0 discriminator 4 view .LVU774
 2651 0185 40887C24 		movb	%dil, 23(%rsp)
 2651      17
 2652              		.loc 1 902 4 discriminator 4 view .LVU775
 2653 018a 4889EF   		movq	%rbp, %rdi
 2654              	.LBB286:
 2655              	.LBB285:
  26:fltk-1.3.4-1/png/pngwutil.c ****    buf[1] = (png_byte)((i >> 16) & 0xff);
 2656              		.loc 1 26 11 discriminator 4 view .LVU776
 2657 018d 44896424 		movl	%r12d, 11(%rsp)
 2657      0B
 2658              	.LVL254:
  26:fltk-1.3.4-1/png/pngwutil.c ****    buf[1] = (png_byte)((i >> 16) & 0xff);
 2659              		.loc 1 26 11 discriminator 4 view .LVU777
 2660              	.LBE285:
 2661              	.LBE286:
 894:fltk-1.3.4-1/png/pngwutil.c ****    buf[8] = (png_byte)bit_depth;
 2662              		.loc 1 894 4 is_stmt 1 discriminator 4 view .LVU778
 2663              	.LBB287:
 2664              	.LBI287:
  24:fltk-1.3.4-1/png/pngwutil.c **** {
 2665              		.loc 1 24 1 discriminator 4 view .LVU779
 2666              	.LBB288:
  26:fltk-1.3.4-1/png/pngwutil.c ****    buf[1] = (png_byte)((i >> 16) & 0xff);
 2667              		.loc 1 26 4 discriminator 4 view .LVU780
  27:fltk-1.3.4-1/png/pngwutil.c ****    buf[2] = (png_byte)((i >> 8) & 0xff);
 2668              		.loc 1 27 4 discriminator 4 view .LVU781
  28:fltk-1.3.4-1/png/pngwutil.c ****    buf[3] = (png_byte)(i & 0xff);
 2669              		.loc 1 28 4 discriminator 4 view .LVU782
  29:fltk-1.3.4-1/png/pngwutil.c **** }
 2670              		.loc 1 29 4 discriminator 4 view .LVU783
  26:fltk-1.3.4-1/png/pngwutil.c ****    buf[1] = (png_byte)((i >> 16) & 0xff);
 2671              		.loc 1 26 11 is_stmt 0 discriminator 4 view .LVU784
 2672 0192 44896C24 		movl	%r13d, 15(%rsp)
 2672      0F
 2673              	.LVL255:
  26:fltk-1.3.4-1/png/pngwutil.c ****    buf[1] = (png_byte)((i >> 16) & 0xff);
 2674              		.loc 1 26 11 discriminator 4 view .LVU785
 2675              	.LBE288:
 2676              	.LBE287:
 895:fltk-1.3.4-1/png/pngwutil.c ****    buf[9] = (png_byte)color_type;
 2677              		.loc 1 895 4 is_stmt 1 discriminator 4 view .LVU786
 895:fltk-1.3.4-1/png/pngwutil.c ****    buf[9] = (png_byte)color_type;
 2678              		.loc 1 895 11 is_stmt 0 discriminator 4 view .LVU787
 2679 0197 885C2413 		movb	%bl, 19(%rsp)
 896:fltk-1.3.4-1/png/pngwutil.c ****    buf[10] = (png_byte)compression_type;
 2680              		.loc 1 896 4 is_stmt 1 discriminator 4 view .LVU788
 896:fltk-1.3.4-1/png/pngwutil.c ****    buf[10] = (png_byte)compression_type;
 2681              		.loc 1 896 11 is_stmt 0 discriminator 4 view .LVU789
 2682 019b 44887424 		movb	%r14b, 20(%rsp)
 2682      14
 897:fltk-1.3.4-1/png/pngwutil.c ****    buf[11] = (png_byte)filter_type;
 2683              		.loc 1 897 4 is_stmt 1 discriminator 4 view .LVU790
 897:fltk-1.3.4-1/png/pngwutil.c ****    buf[11] = (png_byte)filter_type;
 2684              		.loc 1 897 12 is_stmt 0 discriminator 4 view .LVU791
 2685 01a0 C6442415 		movb	$0, 21(%rsp)
 2685      00
 898:fltk-1.3.4-1/png/pngwutil.c ****    buf[12] = (png_byte)interlace_type;
 2686              		.loc 1 898 4 is_stmt 1 discriminator 4 view .LVU792
 898:fltk-1.3.4-1/png/pngwutil.c ****    buf[12] = (png_byte)interlace_type;
 2687              		.loc 1 898 12 is_stmt 0 discriminator 4 view .LVU793
 2688 01a5 44887C24 		movb	%r15b, 22(%rsp)
 2688      16
 899:fltk-1.3.4-1/png/pngwutil.c **** 
 2689              		.loc 1 899 4 is_stmt 1 discriminator 4 view .LVU794
 2690              		.loc 1 902 4 discriminator 4 view .LVU795
 2691 01aa E8000000 		call	png_write_complete_chunk
 2691      00
 2692              	.LVL256:
 903:fltk-1.3.4-1/png/pngwutil.c **** 
 904:fltk-1.3.4-1/png/pngwutil.c ****    if ((png_ptr->do_filter) == PNG_NO_FILTERS)
 2693              		.loc 1 904 4 discriminator 4 view .LVU796
 2694              		.loc 1 904 7 is_stmt 0 discriminator 4 view .LVU797
 2695 01af 80BD7602 		cmpb	$0, 630(%rbp)
 2695      000000
 2696 01b6 751D     		jne	.L231
 905:fltk-1.3.4-1/png/pngwutil.c ****    {
 906:fltk-1.3.4-1/png/pngwutil.c ****       if (png_ptr->color_type == PNG_COLOR_TYPE_PALETTE ||
 2697              		.loc 1 906 7 is_stmt 1 view .LVU798
 2698              		.loc 1 906 10 is_stmt 0 view .LVU799
 2699 01b8 80BD7702 		cmpb	$3, 631(%rbp)
 2699      000003
 2700 01bf 740D     		je	.L232
 2701              		.loc 1 906 57 discriminator 1 view .LVU800
 2702 01c1 80BD7802 		cmpb	$7, 632(%rbp)
 2702      000007
 2703 01c8 0F87A200 		ja	.L233
 2703      0000
 2704              	.L232:
 907:fltk-1.3.4-1/png/pngwutil.c ****           png_ptr->bit_depth < 8)
 908:fltk-1.3.4-1/png/pngwutil.c ****          png_ptr->do_filter = PNG_FILTER_NONE;
 2705              		.loc 1 908 10 is_stmt 1 view .LVU801
 2706              		.loc 1 908 29 is_stmt 0 view .LVU802
 2707 01ce C6857602 		movb	$8, 630(%rbp)
 2707      000008
 2708              	.L231:
 909:fltk-1.3.4-1/png/pngwutil.c **** 
 910:fltk-1.3.4-1/png/pngwutil.c ****       else
 911:fltk-1.3.4-1/png/pngwutil.c ****          png_ptr->do_filter = PNG_ALL_FILTERS;
 912:fltk-1.3.4-1/png/pngwutil.c ****    }
 913:fltk-1.3.4-1/png/pngwutil.c **** 
 914:fltk-1.3.4-1/png/pngwutil.c ****    png_ptr->mode = PNG_HAVE_IHDR; /* not READY_FOR_ZTXT */
 2709              		.loc 1 914 4 is_stmt 1 view .LVU803
 2710              		.loc 1 914 18 is_stmt 0 view .LVU804
 2711 01d5 C7852C01 		movl	$1, 300(%rbp)
 2711      00000100 
 2711      0000
 915:fltk-1.3.4-1/png/pngwutil.c **** }
 2712              		.loc 1 915 1 view .LVU805
 2713 01df 488B4424 		movq	24(%rsp), %rax
 2713      18
 2714 01e4 64483304 		xorq	%fs:40, %rax
 2714      25280000 
 2714      00
 2715 01ed 0F85E000 		jne	.L251
 2715      0000
 2716 01f3 4883C428 		addq	$40, %rsp
 2717              		.cfi_remember_state
 2718              		.cfi_def_cfa_offset 56
 2719 01f7 5B       		popq	%rbx
 2720              		.cfi_def_cfa_offset 48
 2721              	.LVL257:
 2722              		.loc 1 915 1 view .LVU806
 2723 01f8 5D       		popq	%rbp
 2724              		.cfi_def_cfa_offset 40
 2725              	.LVL258:
 2726              		.loc 1 915 1 view .LVU807
 2727 01f9 415C     		popq	%r12
 2728              		.cfi_def_cfa_offset 32
 2729 01fb 415D     		popq	%r13
 2730              		.cfi_def_cfa_offset 24
 2731 01fd 415E     		popq	%r14
 2732              		.cfi_def_cfa_offset 16
 2733              	.LVL259:
 2734              		.loc 1 915 1 view .LVU808
 2735 01ff 415F     		popq	%r15
 2736              		.cfi_def_cfa_offset 8
 2737 0201 C3       		ret
 2738              	.LVL260:
 2739              		.p2align 4,,10
 2740 0202 660F1F44 		.p2align 3
 2740      0000
 2741              	.L229:
 2742              		.cfi_restore_state
 886:fltk-1.3.4-1/png/pngwutil.c ****    /* Set the usr info, so any transformations can modify it */
 2743              		.loc 1 886 24 discriminator 2 view .LVU809
 2744 0208 0FB6C0   		movzbl	%al, %eax
 2745 020b 480FAFC6 		imulq	%rsi, %rax
 2746 020f 4883C007 		addq	$7, %rax
 2747 0213 48C1E803 		shrq	$3, %rax
 2748 0217 E93AFFFF 		jmp	.L230
 2748      FF
 2749              	.LVL261:
 2750 021c 0F1F4000 		.p2align 4,,10
 2751              		.p2align 3
 2752              	.L227:
 867:fltk-1.3.4-1/png/pngwutil.c ****       interlace_type = PNG_INTERLACE_ADAM7;
 2753              		.loc 1 867 7 is_stmt 1 view .LVU810
 2754 0220 4889EF   		movq	%rbp, %rdi
 2755 0223 488D3500 		leaq	.LC17(%rip), %rsi
 2755      000000
 2756 022a E8000000 		call	png_warning@PLT
 2756      00
 2757              	.LVL262:
 868:fltk-1.3.4-1/png/pngwutil.c ****    }
 2758              		.loc 1 868 7 view .LVU811
 867:fltk-1.3.4-1/png/pngwutil.c ****       interlace_type = PNG_INTERLACE_ADAM7;
 2759              		.loc 1 867 7 is_stmt 0 view .LVU812
 2760 022f BF010000 		movl	$1, %edi
 2760      00
 2761 0234 E9C6FEFF 		jmp	.L228
 2761      FF
 2762              	.LVL263:
 2763 0239 0F1F8000 		.p2align 4,,10
 2763      000000
 2764              		.p2align 3
 2765              	.L249:
 836:fltk-1.3.4-1/png/pngwutil.c ****       compression_type = PNG_COMPRESSION_TYPE_BASE;
 2766              		.loc 1 836 7 is_stmt 1 view .LVU813
 2767 0240 488D3500 		leaq	.LC15(%rip), %rsi
 2767      000000
 2768              	.LVL264:
 836:fltk-1.3.4-1/png/pngwutil.c ****       compression_type = PNG_COMPRESSION_TYPE_BASE;
 2769              		.loc 1 836 7 is_stmt 0 view .LVU814
 2770 0247 4889EF   		movq	%rbp, %rdi
 2771              	.LVL265:
 836:fltk-1.3.4-1/png/pngwutil.c ****       compression_type = PNG_COMPRESSION_TYPE_BASE;
 2772              		.loc 1 836 7 view .LVU815
 2773 024a E8000000 		call	png_warning@PLT
 2773      00
 2774              	.LVL266:
 837:fltk-1.3.4-1/png/pngwutil.c ****    }
 2775              		.loc 1 837 7 is_stmt 1 view .LVU816
 837:fltk-1.3.4-1/png/pngwutil.c ****    }
 2776              		.loc 1 837 7 is_stmt 0 view .LVU817
 2777 024f E959FEFF 		jmp	.L223
 2777      FF
 2778              		.p2align 4,,10
 2779 0254 0F1F4000 		.p2align 3
 2780              	.L250:
 859:fltk-1.3.4-1/png/pngwutil.c ****       filter_type = PNG_FILTER_TYPE_BASE;
 2781              		.loc 1 859 7 is_stmt 1 view .LVU818
 2782 0258 488D3500 		leaq	.LC16(%rip), %rsi
 2782      000000
 2783 025f 4889EF   		movq	%rbp, %rdi
 2784 0262 E8000000 		call	png_warning@PLT
 2784      00
 2785              	.LVL267:
 860:fltk-1.3.4-1/png/pngwutil.c ****    }
 2786              		.loc 1 860 7 view .LVU819
 860:fltk-1.3.4-1/png/pngwutil.c ****    }
 2787              		.loc 1 860 7 is_stmt 0 view .LVU820
 2788 0267 E983FEFF 		jmp	.L225
 2788      FF
 2789              	.LVL268:
 2790 026c 0F1F4000 		.p2align 4,,10
 2791              		.p2align 3
 2792              	.L233:
 911:fltk-1.3.4-1/png/pngwutil.c ****    }
 2793              		.loc 1 911 10 is_stmt 1 view .LVU821
 911:fltk-1.3.4-1/png/pngwutil.c ****    }
 2794              		.loc 1 911 29 is_stmt 0 view .LVU822
 2795 0270 C6857602 		movb	$-8, 630(%rbp)
 2795      0000F8
 2796 0277 E959FFFF 		jmp	.L231
 2796      FF
 2797              	.LVL269:
 2798 027c 0F1F4000 		.p2align 4,,10
 2799              		.p2align 3
 2800              	.L212:
 813:fltk-1.3.4-1/png/pngwutil.c ****             png_error(png_ptr, "Invalid bit depth for grayscale+alpha image");
 2801              		.loc 1 813 10 is_stmt 1 view .LVU823
 813:fltk-1.3.4-1/png/pngwutil.c ****             png_error(png_ptr, "Invalid bit depth for grayscale+alpha image");
 2802              		.loc 1 813 24 is_stmt 0 view .LVU824
 2803 0280 8D43F8   		leal	-8(%rbx), %eax
 813:fltk-1.3.4-1/png/pngwutil.c ****             png_error(png_ptr, "Invalid bit depth for grayscale+alpha image");
 2804              		.loc 1 813 13 view .LVU825
 2805 0283 83E0F7   		andl	$-9, %eax
 2806 0286 7550     		jne	.L252
 816:fltk-1.3.4-1/png/pngwutil.c ****          break;
 2807              		.loc 1 816 10 is_stmt 1 view .LVU826
 816:fltk-1.3.4-1/png/pngwutil.c ****          break;
 2808              		.loc 1 816 28 is_stmt 0 view .LVU827
 2809 0288 C6877B02 		movb	$2, 635(%rdi)
 2809      000002
 817:fltk-1.3.4-1/png/pngwutil.c **** 
 2810              		.loc 1 817 10 is_stmt 1 view .LVU828
 2811 028f E910FEFF 		jmp	.L217
 2811      FF
 2812              		.p2align 4,,10
 2813 0294 0F1F4000 		.p2align 3
 2814              	.L214:
 788:fltk-1.3.4-1/png/pngwutil.c **** #else
 2815              		.loc 1 788 10 view .LVU829
 788:fltk-1.3.4-1/png/pngwutil.c **** #else
 2816              		.loc 1 788 24 is_stmt 0 view .LVU830
 2817 0298 8D43F8   		leal	-8(%rbx), %eax
 788:fltk-1.3.4-1/png/pngwutil.c **** #else
 2818              		.loc 1 788 13 view .LVU831
 2819 029b 83E0F7   		andl	$-9, %eax
 2820 029e 7550     		jne	.L253
 794:fltk-1.3.4-1/png/pngwutil.c ****          break;
 2821              		.loc 1 794 10 is_stmt 1 view .LVU832
 794:fltk-1.3.4-1/png/pngwutil.c ****          break;
 2822              		.loc 1 794 28 is_stmt 0 view .LVU833
 2823 02a0 C6877B02 		movb	$3, 635(%rdi)
 2823      000003
 795:fltk-1.3.4-1/png/pngwutil.c **** 
 2824              		.loc 1 795 10 is_stmt 1 view .LVU834
 2825 02a7 E9F8FDFF 		jmp	.L217
 2825      FF
 2826 02ac 0F1F4000 		.p2align 4,,10
 2827              		.p2align 3
 2828              	.L210:
 821:fltk-1.3.4-1/png/pngwutil.c **** #else
 2829              		.loc 1 821 10 view .LVU835
 821:fltk-1.3.4-1/png/pngwutil.c **** #else
 2830              		.loc 1 821 24 is_stmt 0 view .LVU836
 2831 02b0 8D43F8   		leal	-8(%rbx), %eax
 821:fltk-1.3.4-1/png/pngwutil.c **** #else
 2832              		.loc 1 821 13 view .LVU837
 2833 02b3 83E0F7   		andl	$-9, %eax
 2834 02b6 752C     		jne	.L254
 827:fltk-1.3.4-1/png/pngwutil.c ****          break;
 2835              		.loc 1 827 10 is_stmt 1 view .LVU838
 827:fltk-1.3.4-1/png/pngwutil.c ****          break;
 2836              		.loc 1 827 28 is_stmt 0 view .LVU839
 2837 02b8 C6877B02 		movb	$4, 635(%rdi)
 2837      000004
 828:fltk-1.3.4-1/png/pngwutil.c **** 
 2838              		.loc 1 828 10 is_stmt 1 view .LVU840
 2839 02bf E9E0FDFF 		jmp	.L217
 2839      FF
 2840              	.LVL270:
 2841              	.L209:
 831:fltk-1.3.4-1/png/pngwutil.c ****    }
 2842              		.loc 1 831 10 view .LVU841
 2843 02c4 488D3500 		leaq	.LC14(%rip), %rsi
 2843      000000
 2844              	.LVL271:
 831:fltk-1.3.4-1/png/pngwutil.c ****    }
 2845              		.loc 1 831 10 is_stmt 0 view .LVU842
 2846 02cb 4889EF   		movq	%rbp, %rdi
 2847              	.LVL272:
 831:fltk-1.3.4-1/png/pngwutil.c ****    }
 2848              		.loc 1 831 10 view .LVU843
 2849 02ce E8000000 		call	png_error@PLT
 2849      00
 2850              	.LVL273:
 2851              	.L251:
 2852              		.loc 1 915 1 view .LVU844
 2853 02d3 E8000000 		call	__stack_chk_fail@PLT
 2853      00
 2854              	.LVL274:
 2855              	.L252:
 814:fltk-1.3.4-1/png/pngwutil.c **** 
 2856              		.loc 1 814 13 is_stmt 1 view .LVU845
 2857 02d8 488D3500 		leaq	.LC12(%rip), %rsi
 2857      000000
 2858              	.LVL275:
 814:fltk-1.3.4-1/png/pngwutil.c **** 
 2859              		.loc 1 814 13 is_stmt 0 view .LVU846
 2860 02df E8000000 		call	png_error@PLT
 2860      00
 2861              	.LVL276:
 2862              	.L254:
 825:fltk-1.3.4-1/png/pngwutil.c **** 
 2863              		.loc 1 825 13 is_stmt 1 view .LVU847
 2864 02e4 488D3500 		leaq	.LC13(%rip), %rsi
 2864      000000
 2865              	.LVL277:
 825:fltk-1.3.4-1/png/pngwutil.c **** 
 2866              		.loc 1 825 13 is_stmt 0 view .LVU848
 2867 02eb E8000000 		call	png_error@PLT
 2867      00
 2868              	.LVL278:
 2869              	.L253:
 792:fltk-1.3.4-1/png/pngwutil.c **** 
 2870              		.loc 1 792 13 is_stmt 1 view .LVU849
 2871 02f0 488D3500 		leaq	.LC10(%rip), %rsi
 2871      000000
 2872              	.LVL279:
 792:fltk-1.3.4-1/png/pngwutil.c **** 
 2873              		.loc 1 792 13 is_stmt 0 view .LVU850
 2874 02f7 E8000000 		call	png_error@PLT
 2874      00
 2875              	.LVL280:
 792:fltk-1.3.4-1/png/pngwutil.c **** 
 2876              		.loc 1 792 13 view .LVU851
 2877              		.cfi_endproc
 2878              	.LFE58:
 2880              		.section	.rodata.png_write_PLTE.str1.8,"aMS",@progbits,1
 2881              		.align 8
 2882              	.LC18:
 2883 0000 496E7661 		.string	"Invalid number of colors in palette"
 2883      6C696420 
 2883      6E756D62 
 2883      6572206F 
 2883      6620636F 
 2884 0024 00000000 		.align 8
 2885              	.LC19:
 2886 0028 49676E6F 		.string	"Ignoring request to write a PLTE chunk in grayscale PNG"
 2886      72696E67 
 2886      20726571 
 2886      75657374 
 2886      20746F20 
 2887              		.section	.text.png_write_PLTE,"ax",@progbits
 2888              		.p2align 4
 2889              		.globl	png_write_PLTE
 2891              	png_write_PLTE:
 2892              	.LVL281:
 2893              	.LFB59:
 916:fltk-1.3.4-1/png/pngwutil.c **** 
 917:fltk-1.3.4-1/png/pngwutil.c **** /* Write the palette.  We are careful not to trust png_color to be in the
 918:fltk-1.3.4-1/png/pngwutil.c ****  * correct order for PNG, so people can redefine it to any convenient
 919:fltk-1.3.4-1/png/pngwutil.c ****  * structure.
 920:fltk-1.3.4-1/png/pngwutil.c ****  */
 921:fltk-1.3.4-1/png/pngwutil.c **** void /* PRIVATE */
 922:fltk-1.3.4-1/png/pngwutil.c **** png_write_PLTE(png_structrp png_ptr, png_const_colorp palette,
 923:fltk-1.3.4-1/png/pngwutil.c ****     png_uint_32 num_pal)
 924:fltk-1.3.4-1/png/pngwutil.c **** {
 2894              		.loc 1 924 1 is_stmt 1 view -0
 2895              		.cfi_startproc
 2896              		.loc 1 924 1 is_stmt 0 view .LVU853
 2897 0000 F30F1EFA 		endbr64
 2898 0004 4155     		pushq	%r13
 2899              		.cfi_def_cfa_offset 16
 2900              		.cfi_offset 13, -16
 2901 0006 4154     		pushq	%r12
 2902              		.cfi_def_cfa_offset 24
 2903              		.cfi_offset 12, -24
 2904 0008 4189D4   		movl	%edx, %r12d
 2905 000b 55       		pushq	%rbp
 2906              		.cfi_def_cfa_offset 32
 2907              		.cfi_offset 6, -32
 2908 000c 4889FD   		movq	%rdi, %rbp
 2909 000f 53       		pushq	%rbx
 2910              		.cfi_def_cfa_offset 40
 2911              		.cfi_offset 3, -40
 2912 0010 4883EC18 		subq	$24, %rsp
 2913              		.cfi_def_cfa_offset 64
 2914 0014 0FB69777 		movzbl	631(%rdi), %edx
 2914      020000
 2915              	.LVL282:
 2916              		.loc 1 924 1 view .LVU854
 2917 001b 64488B04 		movq	%fs:40, %rax
 2917      25280000 
 2917      00
 2918 0024 48894424 		movq	%rax, 8(%rsp)
 2918      08
 2919 0029 31C0     		xorl	%eax, %eax
 925:fltk-1.3.4-1/png/pngwutil.c ****    png_uint_32 i;
 2920              		.loc 1 925 4 is_stmt 1 view .LVU855
 926:fltk-1.3.4-1/png/pngwutil.c ****    png_const_colorp pal_ptr;
 2921              		.loc 1 926 4 view .LVU856
 927:fltk-1.3.4-1/png/pngwutil.c ****    png_byte buf[3];
 2922              		.loc 1 927 4 view .LVU857
 928:fltk-1.3.4-1/png/pngwutil.c **** 
 929:fltk-1.3.4-1/png/pngwutil.c ****    png_debug(1, "in png_write_PLTE");
 2923              		.loc 1 929 4 view .LVU858
 930:fltk-1.3.4-1/png/pngwutil.c **** 
 931:fltk-1.3.4-1/png/pngwutil.c ****    if ((
 2924              		.loc 1 931 4 view .LVU859
 932:fltk-1.3.4-1/png/pngwutil.c **** #ifdef PNG_MNG_FEATURES_SUPPORTED
 933:fltk-1.3.4-1/png/pngwutil.c ****        (png_ptr->mng_features_permitted & PNG_FLAG_MNG_EMPTY_PLTE) == 0 &&
 2925              		.loc 1 933 41 is_stmt 0 view .LVU860
 2926 002b 8B871804 		movl	1048(%rdi), %eax
 2926      0000
 2927 0031 83E001   		andl	$1, %eax
 934:fltk-1.3.4-1/png/pngwutil.c **** #endif
 935:fltk-1.3.4-1/png/pngwutil.c ****        num_pal == 0) || num_pal > 256)
 2928              		.loc 1 935 22 view .LVU861
 2929 0034 4409E0   		orl	%r12d, %eax
 2930 0037 7409     		je	.L266
 2931 0039 4181FC00 		cmpl	$256, %r12d
 2931      010000
 2932 0040 763E     		jbe	.L256
 2933              	.L266:
 936:fltk-1.3.4-1/png/pngwutil.c ****    {
 937:fltk-1.3.4-1/png/pngwutil.c ****       if (png_ptr->color_type == PNG_COLOR_TYPE_PALETTE)
 2934              		.loc 1 937 7 is_stmt 1 view .LVU862
 938:fltk-1.3.4-1/png/pngwutil.c ****       {
 939:fltk-1.3.4-1/png/pngwutil.c ****          png_error(png_ptr, "Invalid number of colors in palette");
 2935              		.loc 1 939 10 is_stmt 0 view .LVU863
 2936 0042 488D3500 		leaq	.LC18(%rip), %rsi
 2936      000000
 2937              	.LVL283:
 2938              		.loc 1 939 10 view .LVU864
 2939 0049 4889EF   		movq	%rbp, %rdi
 2940              	.LVL284:
 937:fltk-1.3.4-1/png/pngwutil.c ****       {
 2941              		.loc 1 937 10 view .LVU865
 2942 004c 80FA03   		cmpb	$3, %dl
 2943 004f 0F84BC00 		je	.L270
 2943      0000
 2944              	.LVL285:
 2945              	.L269:
 940:fltk-1.3.4-1/png/pngwutil.c ****       }
 941:fltk-1.3.4-1/png/pngwutil.c **** 
 942:fltk-1.3.4-1/png/pngwutil.c ****       else
 943:fltk-1.3.4-1/png/pngwutil.c ****       {
 944:fltk-1.3.4-1/png/pngwutil.c ****          png_warning(png_ptr, "Invalid number of colors in palette");
 945:fltk-1.3.4-1/png/pngwutil.c ****          return;
 946:fltk-1.3.4-1/png/pngwutil.c ****       }
 947:fltk-1.3.4-1/png/pngwutil.c ****    }
 948:fltk-1.3.4-1/png/pngwutil.c **** 
 949:fltk-1.3.4-1/png/pngwutil.c ****    if ((png_ptr->color_type & PNG_COLOR_MASK_COLOR) == 0)
 950:fltk-1.3.4-1/png/pngwutil.c ****    {
 951:fltk-1.3.4-1/png/pngwutil.c ****       png_warning(png_ptr,
 2946              		.loc 1 951 7 view .LVU866
 2947 0055 E8000000 		call	png_warning@PLT
 2947      00
 2948              	.LVL286:
 952:fltk-1.3.4-1/png/pngwutil.c ****           "Ignoring request to write a PLTE chunk in grayscale PNG");
 953:fltk-1.3.4-1/png/pngwutil.c **** 
 954:fltk-1.3.4-1/png/pngwutil.c ****       return;
 2949              		.loc 1 954 7 is_stmt 1 view .LVU867
 2950              	.L255:
 955:fltk-1.3.4-1/png/pngwutil.c ****    }
 956:fltk-1.3.4-1/png/pngwutil.c **** 
 957:fltk-1.3.4-1/png/pngwutil.c ****    png_ptr->num_palette = (png_uint_16)num_pal;
 958:fltk-1.3.4-1/png/pngwutil.c ****    png_debug1(3, "num_palette = %d", png_ptr->num_palette);
 959:fltk-1.3.4-1/png/pngwutil.c **** 
 960:fltk-1.3.4-1/png/pngwutil.c ****    png_write_chunk_header(png_ptr, png_PLTE, (png_uint_32)(num_pal * 3));
 961:fltk-1.3.4-1/png/pngwutil.c **** #ifdef PNG_POINTER_INDEXING_SUPPORTED
 962:fltk-1.3.4-1/png/pngwutil.c **** 
 963:fltk-1.3.4-1/png/pngwutil.c ****    for (i = 0, pal_ptr = palette; i < num_pal; i++, pal_ptr++)
 964:fltk-1.3.4-1/png/pngwutil.c ****    {
 965:fltk-1.3.4-1/png/pngwutil.c ****       buf[0] = pal_ptr->red;
 966:fltk-1.3.4-1/png/pngwutil.c ****       buf[1] = pal_ptr->green;
 967:fltk-1.3.4-1/png/pngwutil.c ****       buf[2] = pal_ptr->blue;
 968:fltk-1.3.4-1/png/pngwutil.c ****       png_write_chunk_data(png_ptr, buf, (png_size_t)3);
 969:fltk-1.3.4-1/png/pngwutil.c ****    }
 970:fltk-1.3.4-1/png/pngwutil.c **** 
 971:fltk-1.3.4-1/png/pngwutil.c **** #else
 972:fltk-1.3.4-1/png/pngwutil.c ****    /* This is a little slower but some buggy compilers need to do this
 973:fltk-1.3.4-1/png/pngwutil.c ****     * instead
 974:fltk-1.3.4-1/png/pngwutil.c ****     */
 975:fltk-1.3.4-1/png/pngwutil.c ****    pal_ptr=palette;
 976:fltk-1.3.4-1/png/pngwutil.c **** 
 977:fltk-1.3.4-1/png/pngwutil.c ****    for (i = 0; i < num_pal; i++)
 978:fltk-1.3.4-1/png/pngwutil.c ****    {
 979:fltk-1.3.4-1/png/pngwutil.c ****       buf[0] = pal_ptr[i].red;
 980:fltk-1.3.4-1/png/pngwutil.c ****       buf[1] = pal_ptr[i].green;
 981:fltk-1.3.4-1/png/pngwutil.c ****       buf[2] = pal_ptr[i].blue;
 982:fltk-1.3.4-1/png/pngwutil.c ****       png_write_chunk_data(png_ptr, buf, (png_size_t)3);
 983:fltk-1.3.4-1/png/pngwutil.c ****    }
 984:fltk-1.3.4-1/png/pngwutil.c **** 
 985:fltk-1.3.4-1/png/pngwutil.c **** #endif
 986:fltk-1.3.4-1/png/pngwutil.c ****    png_write_chunk_end(png_ptr);
 987:fltk-1.3.4-1/png/pngwutil.c ****    png_ptr->mode |= PNG_HAVE_PLTE;
 988:fltk-1.3.4-1/png/pngwutil.c **** }
 2951              		.loc 1 988 1 is_stmt 0 view .LVU868
 2952 005a 488B4424 		movq	8(%rsp), %rax
 2952      08
 2953 005f 64483304 		xorq	%fs:40, %rax
 2953      25280000 
 2953      00
 2954 0068 0F859E00 		jne	.L271
 2954      0000
 2955 006e 4883C418 		addq	$24, %rsp
 2956              		.cfi_remember_state
 2957              		.cfi_def_cfa_offset 40
 2958 0072 5B       		popq	%rbx
 2959              		.cfi_def_cfa_offset 32
 2960 0073 5D       		popq	%rbp
 2961              		.cfi_def_cfa_offset 24
 2962              	.LVL287:
 2963              		.loc 1 988 1 view .LVU869
 2964 0074 415C     		popq	%r12
 2965              		.cfi_def_cfa_offset 16
 2966 0076 415D     		popq	%r13
 2967              		.cfi_def_cfa_offset 8
 2968 0078 C3       		ret
 2969              	.LVL288:
 2970 0079 0F1F8000 		.p2align 4,,10
 2970      000000
 2971              		.p2align 3
 2972              	.L256:
 2973              		.cfi_restore_state
 949:fltk-1.3.4-1/png/pngwutil.c ****    {
 2974              		.loc 1 949 4 is_stmt 1 view .LVU870
 949:fltk-1.3.4-1/png/pngwutil.c ****    {
 2975              		.loc 1 949 7 is_stmt 0 view .LVU871
 2976 0080 83E202   		andl	$2, %edx
 2977 0083 747B     		je	.L272
 957:fltk-1.3.4-1/png/pngwutil.c ****    png_debug1(3, "num_palette = %d", png_ptr->num_palette);
 2978              		.loc 1 957 27 view .LVU872
 2979 0085 664489A7 		movw	%r12w, 616(%rdi)
 2979      68020000 
 2980 008d 4889F3   		movq	%rsi, %rbx
 957:fltk-1.3.4-1/png/pngwutil.c ****    png_debug1(3, "num_palette = %d", png_ptr->num_palette);
 2981              		.loc 1 957 4 is_stmt 1 view .LVU873
 958:fltk-1.3.4-1/png/pngwutil.c **** 
 2982              		.loc 1 958 4 view .LVU874
 960:fltk-1.3.4-1/png/pngwutil.c **** #ifdef PNG_POINTER_INDEXING_SUPPORTED
 2983              		.loc 1 960 4 view .LVU875
 2984              	.LVL289:
 2985              	.LBB289:
 2986              	.LBI289:
  73:fltk-1.3.4-1/png/pngwutil.c ****     png_uint_32 length)
 2987              		.loc 1 73 1 view .LVU876
 2988              	.LBB290:
  76:fltk-1.3.4-1/png/pngwutil.c **** 
 2989              		.loc 1 76 4 view .LVU877
  83:fltk-1.3.4-1/png/pngwutil.c ****       return;
 2990              		.loc 1 83 4 view .LVU878
 2991              	.LBE290:
 2992              	.LBE289:
 960:fltk-1.3.4-1/png/pngwutil.c **** #ifdef PNG_POINTER_INDEXING_SUPPORTED
 2993              		.loc 1 960 68 is_stmt 0 view .LVU879
 2994 0090 438D1464 		leal	(%r12,%r12,2), %edx
 2995              	.LBB292:
 2996              	.LBB291:
 2997 0094 BE45544C 		movl	$1347179589, %esi
 2997      50
 2998              	.LVL290:
 960:fltk-1.3.4-1/png/pngwutil.c **** #ifdef PNG_POINTER_INDEXING_SUPPORTED
 2999              		.loc 1 960 68 view .LVU880
 3000 0099 E8000000 		call	png_write_chunk_header.part.0
 3000      00
 3001              	.LVL291:
 960:fltk-1.3.4-1/png/pngwutil.c **** #ifdef PNG_POINTER_INDEXING_SUPPORTED
 3002              		.loc 1 960 68 view .LVU881
 3003              	.LBE291:
 3004              	.LBE292:
 963:fltk-1.3.4-1/png/pngwutil.c ****    {
 3005              		.loc 1 963 4 is_stmt 1 view .LVU882
 963:fltk-1.3.4-1/png/pngwutil.c ****    {
 3006              		.loc 1 963 35 view .LVU883
 963:fltk-1.3.4-1/png/pngwutil.c ****    {
 3007              		.loc 1 963 4 is_stmt 0 view .LVU884
 3008 009e 4585E4   		testl	%r12d, %r12d
 3009 00a1 7445     		je	.L264
 963:fltk-1.3.4-1/png/pngwutil.c ****    {
 3010              		.loc 1 963 4 view .LVU885
 3011 00a3 418D4424 		leal	-1(%r12), %eax
 3011      FF
 3012 00a8 4C8D6C24 		leaq	5(%rsp), %r13
 3012      05
 3013 00ad 4C8D6440 		leaq	3(%rax,%rax,2), %r12
 3013      03
 3014              	.LVL292:
 963:fltk-1.3.4-1/png/pngwutil.c ****    {
 3015              		.loc 1 963 4 view .LVU886
 3016 00b2 4901DC   		addq	%rbx, %r12
 3017              	.LVL293:
 3018              		.p2align 4,,10
 3019 00b5 0F1F00   		.p2align 3
 3020              	.L263:
 965:fltk-1.3.4-1/png/pngwutil.c ****       buf[1] = pal_ptr->green;
 3021              		.loc 1 965 7 is_stmt 1 discriminator 3 view .LVU887
 965:fltk-1.3.4-1/png/pngwutil.c ****       buf[1] = pal_ptr->green;
 3022              		.loc 1 965 14 is_stmt 0 discriminator 3 view .LVU888
 3023 00b8 0FB603   		movzbl	(%rbx), %eax
 3024              	.LBB293:
 3025              	.LBB294:
 3026 00bb BA030000 		movl	$3, %edx
 3026      00
 3027 00c0 4C89EE   		movq	%r13, %rsi
 3028 00c3 4889EF   		movq	%rbp, %rdi
 3029              	.LBE294:
 3030              	.LBE293:
 963:fltk-1.3.4-1/png/pngwutil.c ****    {
 3031              		.loc 1 963 60 discriminator 3 view .LVU889
 3032 00c6 4883C303 		addq	$3, %rbx
 3033              	.LVL294:
 965:fltk-1.3.4-1/png/pngwutil.c ****       buf[1] = pal_ptr->green;
 3034              		.loc 1 965 14 discriminator 3 view .LVU890
 3035 00ca 88442405 		movb	%al, 5(%rsp)
 966:fltk-1.3.4-1/png/pngwutil.c ****       buf[2] = pal_ptr->blue;
 3036              		.loc 1 966 7 is_stmt 1 discriminator 3 view .LVU891
 966:fltk-1.3.4-1/png/pngwutil.c ****       buf[2] = pal_ptr->blue;
 3037              		.loc 1 966 14 is_stmt 0 discriminator 3 view .LVU892
 3038 00ce 0FB643FE 		movzbl	-2(%rbx), %eax
 3039 00d2 88442406 		movb	%al, 6(%rsp)
 967:fltk-1.3.4-1/png/pngwutil.c ****       png_write_chunk_data(png_ptr, buf, (png_size_t)3);
 3040              		.loc 1 967 7 is_stmt 1 discriminator 3 view .LVU893
 967:fltk-1.3.4-1/png/pngwutil.c ****       png_write_chunk_data(png_ptr, buf, (png_size_t)3);
 3041              		.loc 1 967 14 is_stmt 0 discriminator 3 view .LVU894
 3042 00d6 0FB643FF 		movzbl	-1(%rbx), %eax
 3043 00da 88442407 		movb	%al, 7(%rsp)
 968:fltk-1.3.4-1/png/pngwutil.c ****    }
 3044              		.loc 1 968 7 is_stmt 1 discriminator 3 view .LVU895
 3045              	.LVL295:
 3046              	.LBB296:
 3047              	.LBI293:
 127:fltk-1.3.4-1/png/pngwutil.c ****     png_size_t length)
 3048              		.loc 1 127 1 discriminator 3 view .LVU896
 3049              	.LBB295:
 131:fltk-1.3.4-1/png/pngwutil.c ****       return;
 3050              		.loc 1 131 4 discriminator 3 view .LVU897
 134:fltk-1.3.4-1/png/pngwutil.c ****    {
 3051              		.loc 1 134 4 discriminator 3 view .LVU898
 3052 00de E8000000 		call	png_write_chunk_data.part.0
 3052      00
 3053              	.LVL296:
 134:fltk-1.3.4-1/png/pngwutil.c ****    {
 3054              		.loc 1 134 4 is_stmt 0 discriminator 3 view .LVU899
 3055              	.LBE295:
 3056              	.LBE296:
 963:fltk-1.3.4-1/png/pngwutil.c ****    {
 3057              		.loc 1 963 48 is_stmt 1 discriminator 3 view .LVU900
 963:fltk-1.3.4-1/png/pngwutil.c ****    {
 3058              		.loc 1 963 35 discriminator 3 view .LVU901
 963:fltk-1.3.4-1/png/pngwutil.c ****    {
 3059              		.loc 1 963 4 is_stmt 0 discriminator 3 view .LVU902
 3060 00e3 4C39E3   		cmpq	%r12, %rbx
 3061 00e6 75D0     		jne	.L263
 3062              	.L264:
 986:fltk-1.3.4-1/png/pngwutil.c ****    png_ptr->mode |= PNG_HAVE_PLTE;
 3063              		.loc 1 986 4 is_stmt 1 view .LVU903
 3064              	.LVL297:
 3065              	.LBB297:
 3066              	.LBI297:
 147:fltk-1.3.4-1/png/pngwutil.c **** {
 3067              		.loc 1 147 1 view .LVU904
 3068              	.LBB298:
 149:fltk-1.3.4-1/png/pngwutil.c **** 
 3069              		.loc 1 149 4 view .LVU905
 151:fltk-1.3.4-1/png/pngwutil.c **** 
 3070              		.loc 1 151 4 view .LVU906
 3071 00e8 4889EF   		movq	%rbp, %rdi
 3072 00eb E8000000 		call	png_write_chunk_end.part.0
 3072      00
 3073              	.LVL298:
 151:fltk-1.3.4-1/png/pngwutil.c **** 
 3074              		.loc 1 151 4 is_stmt 0 view .LVU907
 3075              	.LBE298:
 3076              	.LBE297:
 987:fltk-1.3.4-1/png/pngwutil.c **** }
 3077              		.loc 1 987 4 is_stmt 1 view .LVU908
 987:fltk-1.3.4-1/png/pngwutil.c **** }
 3078              		.loc 1 987 18 is_stmt 0 view .LVU909
 3079 00f0 838D2C01 		orl	$2, 300(%rbp)
 3079      000002
 3080 00f7 E95EFFFF 		jmp	.L255
 3080      FF
 3081              	.LVL299:
 3082 00fc 0F1F4000 		.p2align 4,,10
 3083              		.p2align 3
 3084              	.L272:
 951:fltk-1.3.4-1/png/pngwutil.c ****           "Ignoring request to write a PLTE chunk in grayscale PNG");
 3085              		.loc 1 951 7 is_stmt 1 view .LVU910
 3086 0100 488D3500 		leaq	.LC19(%rip), %rsi
 3086      000000
 3087              	.LVL300:
 951:fltk-1.3.4-1/png/pngwutil.c ****           "Ignoring request to write a PLTE chunk in grayscale PNG");
 3088              		.loc 1 951 7 is_stmt 0 view .LVU911
 3089 0107 E949FFFF 		jmp	.L269
 3089      FF
 3090              	.LVL301:
 3091              	.L271:
 3092              		.loc 1 988 1 view .LVU912
 3093 010c E8000000 		call	__stack_chk_fail@PLT
 3093      00
 3094              	.LVL302:
 3095              	.L270:
 939:fltk-1.3.4-1/png/pngwutil.c ****       }
 3096              		.loc 1 939 10 is_stmt 1 view .LVU913
 3097 0111 E8000000 		call	png_error@PLT
 3097      00
 3098              	.LVL303:
 939:fltk-1.3.4-1/png/pngwutil.c ****       }
 3099              		.loc 1 939 10 is_stmt 0 view .LVU914
 3100              		.cfi_endproc
 3101              	.LFE59:
 3103              		.section	.rodata.png_compress_IDAT.str1.8,"aMS",@progbits,1
 3104              		.align 8
 3105              	.LC20:
 3106 0000 5A5F4F4B 		.string	"Z_OK on Z_FINISH with output space"
 3106      206F6E20 
 3106      5A5F4649 
 3106      4E495348 
 3106      20776974 
 3107              		.section	.text.png_compress_IDAT,"ax",@progbits
 3108              		.p2align 4
 3109              		.globl	png_compress_IDAT
 3111              	png_compress_IDAT:
 3112              	.LVL304:
 3113              	.LFB60:
 989:fltk-1.3.4-1/png/pngwutil.c **** 
 990:fltk-1.3.4-1/png/pngwutil.c **** /* This is similar to png_text_compress, above, except that it does not require
 991:fltk-1.3.4-1/png/pngwutil.c ****  * all of the data at once and, instead of buffering the compressed result,
 992:fltk-1.3.4-1/png/pngwutil.c ****  * writes it as IDAT chunks.  Unlike png_text_compress it *can* png_error out
 993:fltk-1.3.4-1/png/pngwutil.c ****  * because it calls the write interface.  As a result it does its own error
 994:fltk-1.3.4-1/png/pngwutil.c ****  * reporting and does not return an error code.  In the event of error it will
 995:fltk-1.3.4-1/png/pngwutil.c ****  * just call png_error.  The input data length may exceed 32-bits.  The 'flush'
 996:fltk-1.3.4-1/png/pngwutil.c ****  * parameter is exactly the same as that to deflate, with the following
 997:fltk-1.3.4-1/png/pngwutil.c ****  * meanings:
 998:fltk-1.3.4-1/png/pngwutil.c ****  *
 999:fltk-1.3.4-1/png/pngwutil.c ****  * Z_NO_FLUSH: normal incremental output of compressed data
1000:fltk-1.3.4-1/png/pngwutil.c ****  * Z_SYNC_FLUSH: do a SYNC_FLUSH, used by png_write_flush
1001:fltk-1.3.4-1/png/pngwutil.c ****  * Z_FINISH: this is the end of the input, do a Z_FINISH and clean up
1002:fltk-1.3.4-1/png/pngwutil.c ****  *
1003:fltk-1.3.4-1/png/pngwutil.c ****  * The routine manages the acquire and release of the png_ptr->zstream by
1004:fltk-1.3.4-1/png/pngwutil.c ****  * checking and (at the end) clearing png_ptr->zowner; it does some sanity
1005:fltk-1.3.4-1/png/pngwutil.c ****  * checks on the 'mode' flags while doing this.
1006:fltk-1.3.4-1/png/pngwutil.c ****  */
1007:fltk-1.3.4-1/png/pngwutil.c **** void /* PRIVATE */
1008:fltk-1.3.4-1/png/pngwutil.c **** png_compress_IDAT(png_structrp png_ptr, png_const_bytep input,
1009:fltk-1.3.4-1/png/pngwutil.c ****    png_alloc_size_t input_len, int flush)
1010:fltk-1.3.4-1/png/pngwutil.c **** {
 3114              		.loc 1 1010 1 is_stmt 1 view -0
 3115              		.cfi_startproc
 3116              		.loc 1 1010 1 is_stmt 0 view .LVU916
 3117 0000 F30F1EFA 		endbr64
1011:fltk-1.3.4-1/png/pngwutil.c ****    if (png_ptr->zowner != png_IDAT)
 3118              		.loc 1 1011 4 is_stmt 1 view .LVU917
1010:fltk-1.3.4-1/png/pngwutil.c ****    if (png_ptr->zowner != png_IDAT)
 3119              		.loc 1 1010 1 is_stmt 0 view .LVU918
 3120 0004 4157     		pushq	%r15
 3121              		.cfi_def_cfa_offset 16
 3122              		.cfi_offset 15, -16
 3123 0006 4156     		pushq	%r14
 3124              		.cfi_def_cfa_offset 24
 3125              		.cfi_offset 14, -24
 3126 0008 4989F6   		movq	%rsi, %r14
 3127 000b 4155     		pushq	%r13
 3128              		.cfi_def_cfa_offset 32
 3129              		.cfi_offset 13, -32
 3130 000d 4154     		pushq	%r12
 3131              		.cfi_def_cfa_offset 40
 3132              		.cfi_offset 12, -40
 3133 000f 55       		pushq	%rbp
 3134              		.cfi_def_cfa_offset 48
 3135              		.cfi_offset 6, -48
 3136 0010 4889FD   		movq	%rdi, %rbp
 3137 0013 53       		pushq	%rbx
 3138              		.cfi_def_cfa_offset 56
 3139              		.cfi_offset 3, -56
 3140 0014 4889D3   		movq	%rdx, %rbx
 3141 0017 4883EC18 		subq	$24, %rsp
 3142              		.cfi_def_cfa_offset 80
 3143              		.loc 1 1011 7 view .LVU919
 3144 001b 81BF3801 		cmpl	$1229209940, 312(%rdi)
 3144      00005441 
 3144      4449
1010:fltk-1.3.4-1/png/pngwutil.c ****    if (png_ptr->zowner != png_IDAT)
 3145              		.loc 1 1010 1 view .LVU920
 3146 0025 894C240C 		movl	%ecx, 12(%rsp)
 3147              		.loc 1 1011 7 view .LVU921
 3148 0029 7477     		je	.L274
1012:fltk-1.3.4-1/png/pngwutil.c ****    {
1013:fltk-1.3.4-1/png/pngwutil.c ****       /* First time.   Ensure we have a temporary buffer for compression and
1014:fltk-1.3.4-1/png/pngwutil.c ****        * trim the buffer list if it has more than one entry to free memory.
1015:fltk-1.3.4-1/png/pngwutil.c ****        * If 'WRITE_COMPRESSED_TEXT' is not set the list will never have been
1016:fltk-1.3.4-1/png/pngwutil.c ****        * created at this point, but the check here is quick and safe.
1017:fltk-1.3.4-1/png/pngwutil.c ****        */
1018:fltk-1.3.4-1/png/pngwutil.c ****       if (png_ptr->zbuffer_list == NULL)
 3149              		.loc 1 1018 7 is_stmt 1 view .LVU922
 3150              		.loc 1 1018 18 is_stmt 0 view .LVU923
 3151 002b 488B87B0 		movq	432(%rdi), %rax
 3151      010000
 3152              		.loc 1 1018 10 view .LVU924
 3153 0032 4885C0   		testq	%rax, %rax
 3154 0035 0F844502 		je	.L308
 3154      0000
1019:fltk-1.3.4-1/png/pngwutil.c ****       {
1020:fltk-1.3.4-1/png/pngwutil.c ****          png_ptr->zbuffer_list = png_voidcast(png_compression_bufferp,
1021:fltk-1.3.4-1/png/pngwutil.c ****             png_malloc(png_ptr, PNG_COMPRESSION_BUFFER_SIZE(png_ptr)));
1022:fltk-1.3.4-1/png/pngwutil.c ****          png_ptr->zbuffer_list->next = NULL;
1023:fltk-1.3.4-1/png/pngwutil.c ****       }
1024:fltk-1.3.4-1/png/pngwutil.c **** 
1025:fltk-1.3.4-1/png/pngwutil.c ****       else
1026:fltk-1.3.4-1/png/pngwutil.c ****          png_free_buffer_list(png_ptr, &png_ptr->zbuffer_list->next);
 3155              		.loc 1 1026 10 is_stmt 1 view .LVU925
 3156              	.LVL305:
 3157              	.LBB299:
 3158              	.LBI299:
 440:fltk-1.3.4-1/png/pngwutil.c **** {
 3159              		.loc 1 440 1 view .LVU926
 3160              	.LBB300:
 442:fltk-1.3.4-1/png/pngwutil.c **** 
 3161              		.loc 1 442 4 view .LVU927
 442:fltk-1.3.4-1/png/pngwutil.c **** 
 3162              		.loc 1 442 28 is_stmt 0 view .LVU928
 3163 003b 4C8B28   		movq	(%rax), %r13
 3164              	.LVL306:
 444:fltk-1.3.4-1/png/pngwutil.c ****    {
 3165              		.loc 1 444 4 is_stmt 1 view .LVU929
 444:fltk-1.3.4-1/png/pngwutil.c ****    {
 3166              		.loc 1 444 7 is_stmt 0 view .LVU930
 3167 003e 4D85ED   		testq	%r13, %r13
 3168 0041 7421     		je	.L276
 446:fltk-1.3.4-1/png/pngwutil.c **** 
 3169              		.loc 1 446 7 is_stmt 1 view .LVU931
 446:fltk-1.3.4-1/png/pngwutil.c **** 
 3170              		.loc 1 446 14 is_stmt 0 view .LVU932
 3171 0043 48C70000 		movq	$0, (%rax)
 3171      000000
 3172              	.LVL307:
 3173 004a 660F1F44 		.p2align 4,,10
 3173      0000
 3174              		.p2align 3
 3175              	.L278:
 448:fltk-1.3.4-1/png/pngwutil.c ****       {
 3176              		.loc 1 448 7 is_stmt 1 view .LVU933
 3177              	.LBB301:
 450:fltk-1.3.4-1/png/pngwutil.c **** 
 3178              		.loc 1 450 10 view .LVU934
 3179 0050 4C89EE   		movq	%r13, %rsi
 450:fltk-1.3.4-1/png/pngwutil.c **** 
 3180              		.loc 1 450 34 is_stmt 0 view .LVU935
 3181 0053 4D8B6D00 		movq	0(%r13), %r13
 3182              	.LVL308:
 452:fltk-1.3.4-1/png/pngwutil.c ****          list = next;
 3183              		.loc 1 452 10 is_stmt 1 view .LVU936
 3184 0057 4889EF   		movq	%rbp, %rdi
 3185 005a E8000000 		call	png_free@PLT
 3185      00
 3186              	.LVL309:
 453:fltk-1.3.4-1/png/pngwutil.c ****       }
 3187              		.loc 1 453 10 view .LVU937
 453:fltk-1.3.4-1/png/pngwutil.c ****       }
 3188              		.loc 1 453 10 is_stmt 0 view .LVU938
 3189              	.LBE301:
 455:fltk-1.3.4-1/png/pngwutil.c ****    }
 3190              		.loc 1 455 13 is_stmt 1 view .LVU939
 455:fltk-1.3.4-1/png/pngwutil.c ****    }
 3191              		.loc 1 455 7 is_stmt 0 view .LVU940
 3192 005f 4D85ED   		testq	%r13, %r13
 3193 0062 75EC     		jne	.L278
 3194              	.LVL310:
 3195              	.L276:
 455:fltk-1.3.4-1/png/pngwutil.c ****    }
 3196              		.loc 1 455 7 view .LVU941
 3197              	.LBE300:
 3198              	.LBE299:
1027:fltk-1.3.4-1/png/pngwutil.c **** 
1028:fltk-1.3.4-1/png/pngwutil.c ****       /* It is a terminal error if we can't claim the zstream. */
1029:fltk-1.3.4-1/png/pngwutil.c ****       if (png_deflate_claim(png_ptr, png_IDAT, png_image_size(png_ptr)) != Z_OK)
 3199              		.loc 1 1029 7 is_stmt 1 view .LVU942
 3200              		.loc 1 1029 11 is_stmt 0 view .LVU943
 3201 0064 4889EF   		movq	%rbp, %rdi
 3202 0067 E8000000 		call	png_image_size
 3202      00
 3203              	.LVL311:
 3204 006c BE544144 		movl	$1229209940, %esi
 3204      49
 3205 0071 4889EF   		movq	%rbp, %rdi
 3206 0074 4889C2   		movq	%rax, %rdx
 3207 0077 E8000000 		call	png_deflate_claim
 3207      00
 3208              	.LVL312:
 3209              		.loc 1 1029 10 view .LVU944
 3210 007c 85C0     		testl	%eax, %eax
 3211 007e 0F852902 		jne	.L307
 3211      0000
1030:fltk-1.3.4-1/png/pngwutil.c ****          png_error(png_ptr, png_ptr->zstream.msg);
1031:fltk-1.3.4-1/png/pngwutil.c **** 
1032:fltk-1.3.4-1/png/pngwutil.c ****       /* The output state is maintained in png_ptr->zstream, so it must be
1033:fltk-1.3.4-1/png/pngwutil.c ****        * initialized here after the claim.
1034:fltk-1.3.4-1/png/pngwutil.c ****        */
1035:fltk-1.3.4-1/png/pngwutil.c ****       png_ptr->zstream.next_out = png_ptr->zbuffer_list->output;
 3212              		.loc 1 1035 7 is_stmt 1 view .LVU945
 3213              		.loc 1 1035 35 is_stmt 0 view .LVU946
 3214 0084 488B85B0 		movq	432(%rbp), %rax
 3214      010000
 3215 008b 4883C008 		addq	$8, %rax
 3216              		.loc 1 1035 33 view .LVU947
 3217 008f 48898558 		movq	%rax, 344(%rbp)
 3217      010000
1036:fltk-1.3.4-1/png/pngwutil.c ****       png_ptr->zstream.avail_out = png_ptr->zbuffer_size;
 3218              		.loc 1 1036 7 is_stmt 1 view .LVU948
 3219              		.loc 1 1036 34 is_stmt 0 view .LVU949
 3220 0096 8B85B801 		movl	440(%rbp), %eax
 3220      0000
 3221 009c 89856001 		movl	%eax, 352(%rbp)
 3221      0000
 3222              	.L274:
1037:fltk-1.3.4-1/png/pngwutil.c ****    }
1038:fltk-1.3.4-1/png/pngwutil.c **** 
1039:fltk-1.3.4-1/png/pngwutil.c ****    /* Now loop reading and writing until all the input is consumed or an error
1040:fltk-1.3.4-1/png/pngwutil.c ****     * terminates the operation.  The _out values are maintained across calls to
1041:fltk-1.3.4-1/png/pngwutil.c ****     * this function, but the input must be reset each time.
1042:fltk-1.3.4-1/png/pngwutil.c ****     */
1043:fltk-1.3.4-1/png/pngwutil.c ****    png_ptr->zstream.next_in = PNGZ_INPUT_CAST(input);
 3223              		.loc 1 1043 4 is_stmt 1 view .LVU950
 3224              		.loc 1 1043 29 is_stmt 0 view .LVU951
 3225 00a2 4C89B540 		movq	%r14, 320(%rbp)
 3225      010000
1044:fltk-1.3.4-1/png/pngwutil.c ****    png_ptr->zstream.avail_in = 0; /* set below */
 3226              		.loc 1 1044 4 is_stmt 1 view .LVU952
 3227 00a9 4C8DBD40 		leaq	320(%rbp), %r15
 3227      010000
 3228              	.LVL313:
 3229              		.p2align 4,,10
 3230              		.p2align 3
 3231              	.L281:
1045:fltk-1.3.4-1/png/pngwutil.c ****    for (;;)
 3232              		.loc 1 1045 4 view .LVU953
 3233              	.LBB302:
1046:fltk-1.3.4-1/png/pngwutil.c ****    {
1047:fltk-1.3.4-1/png/pngwutil.c ****       int ret;
 3234              		.loc 1 1047 7 view .LVU954
1048:fltk-1.3.4-1/png/pngwutil.c **** 
1049:fltk-1.3.4-1/png/pngwutil.c ****       /* INPUT: from the row data */
1050:fltk-1.3.4-1/png/pngwutil.c ****       uInt avail = ZLIB_IO_MAX;
 3235              		.loc 1 1050 7 view .LVU955
1051:fltk-1.3.4-1/png/pngwutil.c **** 
1052:fltk-1.3.4-1/png/pngwutil.c ****       if (avail > input_len)
 3236              		.loc 1 1052 7 view .LVU956
 3237              		.loc 1 1052 10 is_stmt 0 view .LVU957
 3238 00b0 B8FEFFFF 		movl	$4294967294, %eax
 3238      FF
 3239 00b5 4839C3   		cmpq	%rax, %rbx
 3240 00b8 0F86FA00 		jbe	.L282
 3240      0000
1053:fltk-1.3.4-1/png/pngwutil.c ****          avail = (uInt)input_len; /* safe because of the check */
1054:fltk-1.3.4-1/png/pngwutil.c **** 
1055:fltk-1.3.4-1/png/pngwutil.c ****       png_ptr->zstream.avail_in = avail;
 3241              		.loc 1 1055 7 is_stmt 1 view .LVU958
1056:fltk-1.3.4-1/png/pngwutil.c ****       input_len -= avail;
1057:fltk-1.3.4-1/png/pngwutil.c **** 
1058:fltk-1.3.4-1/png/pngwutil.c ****       ret = deflate(&png_ptr->zstream, input_len > 0 ? Z_NO_FLUSH : flush);
 3242              		.loc 1 1058 13 is_stmt 0 view .LVU959
 3243 00be 48B80100 		movabsq	$-4294967295, %rax
 3243      0000FFFF 
 3243      FFFF
 3244 00c8 BE000000 		movl	$0, %esi
 3244      00
1055:fltk-1.3.4-1/png/pngwutil.c ****       input_len -= avail;
 3245              		.loc 1 1055 33 view .LVU960
 3246 00cd C7854801 		movl	$-1, 328(%rbp)
 3246      0000FFFF 
 3246      FFFF
1056:fltk-1.3.4-1/png/pngwutil.c ****       input_len -= avail;
 3247              		.loc 1 1056 7 is_stmt 1 view .LVU961
 3248              	.LVL314:
 3249              		.loc 1 1058 7 view .LVU962
 3250              		.loc 1 1058 13 is_stmt 0 view .LVU963
 3251 00d7 4801C3   		addq	%rax, %rbx
 3252              	.LVL315:
 3253              		.loc 1 1058 13 view .LVU964
 3254 00da 0F447424 		cmove	12(%rsp), %esi
 3254      0C
 3255              	.LVL316:
 3256              	.L283:
 3257              		.loc 1 1058 13 discriminator 4 view .LVU965
 3258 00df 4C89FF   		movq	%r15, %rdi
 3259 00e2 E8000000 		call	deflate@PLT
 3259      00
 3260              	.LVL317:
1059:fltk-1.3.4-1/png/pngwutil.c **** 
1060:fltk-1.3.4-1/png/pngwutil.c ****       /* Include as-yet unconsumed input */
1061:fltk-1.3.4-1/png/pngwutil.c ****       input_len += png_ptr->zstream.avail_in;
 3261              		.loc 1 1061 36 discriminator 4 view .LVU966
 3262 00e7 8B954801 		movl	328(%rbp), %edx
 3262      0000
1062:fltk-1.3.4-1/png/pngwutil.c ****       png_ptr->zstream.avail_in = 0;
 3263              		.loc 1 1062 33 discriminator 4 view .LVU967
 3264 00ed C7854801 		movl	$0, 328(%rbp)
 3264      00000000 
 3264      0000
1058:fltk-1.3.4-1/png/pngwutil.c **** 
 3265              		.loc 1 1058 13 discriminator 4 view .LVU968
 3266 00f7 4189C5   		movl	%eax, %r13d
 3267              	.LVL318:
1061:fltk-1.3.4-1/png/pngwutil.c ****       png_ptr->zstream.avail_in = 0;
 3268              		.loc 1 1061 7 is_stmt 1 discriminator 4 view .LVU969
1061:fltk-1.3.4-1/png/pngwutil.c ****       png_ptr->zstream.avail_in = 0;
 3269              		.loc 1 1061 17 is_stmt 0 discriminator 4 view .LVU970
 3270 00fa 4801D3   		addq	%rdx, %rbx
 3271              	.LVL319:
 3272              		.loc 1 1062 7 is_stmt 1 discriminator 4 view .LVU971
1063:fltk-1.3.4-1/png/pngwutil.c **** 
1064:fltk-1.3.4-1/png/pngwutil.c ****       /* OUTPUT: write complete IDAT chunks when avail_out drops to zero. Note
1065:fltk-1.3.4-1/png/pngwutil.c ****        * that these two zstream fields are preserved across the calls, therefore
1066:fltk-1.3.4-1/png/pngwutil.c ****        * there is no need to set these up on entry to the loop.
1067:fltk-1.3.4-1/png/pngwutil.c ****        */
1068:fltk-1.3.4-1/png/pngwutil.c ****       if (png_ptr->zstream.avail_out == 0)
 3273              		.loc 1 1068 7 discriminator 4 view .LVU972
 3274              		.loc 1 1068 10 is_stmt 0 discriminator 4 view .LVU973
 3275 00fd 8B956001 		movl	352(%rbp), %edx
 3275      0000
 3276 0103 85D2     		testl	%edx, %edx
 3277 0105 0F857E00 		jne	.L290
 3277      0000
 3278              	.LBB303:
1069:fltk-1.3.4-1/png/pngwutil.c ****       {
1070:fltk-1.3.4-1/png/pngwutil.c ****          png_bytep data = png_ptr->zbuffer_list->output;
 3279              		.loc 1 1070 10 is_stmt 1 view .LVU974
 3280              		.loc 1 1070 20 is_stmt 0 view .LVU975
 3281 010b 488B85B0 		movq	432(%rbp), %rax
 3281      010000
 3282              	.LVL320:
1071:fltk-1.3.4-1/png/pngwutil.c ****          uInt size = png_ptr->zbuffer_size;
 3283              		.loc 1 1071 15 view .LVU976
 3284 0112 448BB5B8 		movl	440(%rbp), %r14d
 3284      010000
1070:fltk-1.3.4-1/png/pngwutil.c ****          uInt size = png_ptr->zbuffer_size;
 3285              		.loc 1 1070 20 view .LVU977
 3286 0119 4C8D6008 		leaq	8(%rax), %r12
 3287              	.LVL321:
 3288              		.loc 1 1071 10 is_stmt 1 view .LVU978
1072:fltk-1.3.4-1/png/pngwutil.c **** 
1073:fltk-1.3.4-1/png/pngwutil.c ****          /* Write an IDAT containing the data then reset the buffer.  The
1074:fltk-1.3.4-1/png/pngwutil.c ****           * first IDAT may need deflate header optimization.
1075:fltk-1.3.4-1/png/pngwutil.c ****           */
1076:fltk-1.3.4-1/png/pngwutil.c **** #ifdef PNG_WRITE_OPTIMIZE_CMF_SUPPORTED
1077:fltk-1.3.4-1/png/pngwutil.c ****             if ((png_ptr->mode & PNG_HAVE_IDAT) == 0 &&
 3289              		.loc 1 1077 13 view .LVU979
 3290              		.loc 1 1077 16 is_stmt 0 view .LVU980
 3291 011d F6852C01 		testb	$4, 300(%rbp)
 3291      000004
 3292 0124 752A     		jne	.L287
 3293              		.loc 1 1077 54 discriminator 1 view .LVU981
 3294 0126 80BD5804 		cmpb	$0, 1112(%rbp)
 3294      000000
 3295 012d 7521     		jne	.L287
1078:fltk-1.3.4-1/png/pngwutil.c ****                 png_ptr->compression_type == PNG_COMPRESSION_TYPE_BASE)
1079:fltk-1.3.4-1/png/pngwutil.c ****                optimize_cmf(data, png_image_size(png_ptr));
 3296              		.loc 1 1079 16 is_stmt 1 view .LVU982
 3297 012f 4889EF   		movq	%rbp, %rdi
 3298 0132 E8000000 		call	png_image_size
 3298      00
 3299              	.LVL322:
 3300 0137 4889C6   		movq	%rax, %rsi
 3301              	.LVL323:
 3302              	.LBB304:
 3303              	.LBI304:
 251:fltk-1.3.4-1/png/pngwutil.c **** {
 3304              		.loc 1 251 1 view .LVU983
 3305              	.LBB305:
 256:fltk-1.3.4-1/png/pngwutil.c ****    {
 3306              		.loc 1 256 4 view .LVU984
 256:fltk-1.3.4-1/png/pngwutil.c ****    {
 3307              		.loc 1 256 7 is_stmt 0 view .LVU985
 3308 013a 483D0040 		cmpq	$16384, %rax
 3308      0000
 3309 0140 770E     		ja	.L287
 3310 0142 4C89E7   		movq	%r12, %rdi
 3311 0145 E8000000 		call	optimize_cmf.part.0
 3311      00
 3312              	.LVL324:
 3313 014a 660F1F44 		.p2align 4,,10
 3313      0000
 3314              		.p2align 3
 3315              	.L287:
 256:fltk-1.3.4-1/png/pngwutil.c ****    {
 3316              		.loc 1 256 7 view .LVU986
 3317              	.LBE305:
 3318              	.LBE304:
1080:fltk-1.3.4-1/png/pngwutil.c **** #endif
1081:fltk-1.3.4-1/png/pngwutil.c **** 
1082:fltk-1.3.4-1/png/pngwutil.c ****          png_write_complete_chunk(png_ptr, png_IDAT, data, size);
 3319              		.loc 1 1082 10 is_stmt 1 view .LVU987
 3320 0150 4489F1   		movl	%r14d, %ecx
 3321 0153 4C89E2   		movq	%r12, %rdx
 3322 0156 BE544144 		movl	$1229209940, %esi
 3322      49
 3323 015b 4889EF   		movq	%rbp, %rdi
 3324 015e E8000000 		call	png_write_complete_chunk
 3324      00
 3325              	.LVL325:
1083:fltk-1.3.4-1/png/pngwutil.c ****          png_ptr->mode |= PNG_HAVE_IDAT;
 3326              		.loc 1 1083 10 view .LVU988
 3327              		.loc 1 1083 24 is_stmt 0 view .LVU989
 3328 0163 838D2C01 		orl	$4, 300(%rbp)
 3328      000004
1084:fltk-1.3.4-1/png/pngwutil.c **** 
1085:fltk-1.3.4-1/png/pngwutil.c ****          png_ptr->zstream.next_out = data;
 3329              		.loc 1 1085 10 is_stmt 1 view .LVU990
 3330              		.loc 1 1085 36 is_stmt 0 view .LVU991
 3331 016a 4C89A558 		movq	%r12, 344(%rbp)
 3331      010000
1086:fltk-1.3.4-1/png/pngwutil.c ****          png_ptr->zstream.avail_out = size;
 3332              		.loc 1 1086 10 is_stmt 1 view .LVU992
 3333              		.loc 1 1086 37 is_stmt 0 view .LVU993
 3334 0171 4489B560 		movl	%r14d, 352(%rbp)
 3334      010000
1087:fltk-1.3.4-1/png/pngwutil.c **** 
1088:fltk-1.3.4-1/png/pngwutil.c ****          /* For SYNC_FLUSH or FINISH it is essential to keep calling zlib with
1089:fltk-1.3.4-1/png/pngwutil.c ****           * the same flush parameter until it has finished output, for NO_FLUSH
1090:fltk-1.3.4-1/png/pngwutil.c ****           * it doesn't matter.
1091:fltk-1.3.4-1/png/pngwutil.c ****           */
1092:fltk-1.3.4-1/png/pngwutil.c ****          if (ret == Z_OK && flush != Z_NO_FLUSH)
 3335              		.loc 1 1092 10 is_stmt 1 view .LVU994
 3336              		.loc 1 1092 13 is_stmt 0 view .LVU995
 3337 0178 4585ED   		testl	%r13d, %r13d
 3338 017b 7553     		jne	.L305
 3339              		.loc 1 1092 13 view .LVU996
 3340 017d 8B44240C 		movl	12(%rsp), %eax
 3341 0181 85C0     		testl	%eax, %eax
 3342 0183 0F8527FF 		jne	.L281
 3342      FFFF
 3343              	.LVL326:
 3344              	.L290:
 3345              		.loc 1 1092 13 view .LVU997
 3346              	.LBE303:
1093:fltk-1.3.4-1/png/pngwutil.c ****             continue;
1094:fltk-1.3.4-1/png/pngwutil.c ****       }
1095:fltk-1.3.4-1/png/pngwutil.c **** 
1096:fltk-1.3.4-1/png/pngwutil.c ****       /* The order of these checks doesn't matter much; it just affects which
1097:fltk-1.3.4-1/png/pngwutil.c ****        * possible error might be detected if multiple things go wrong at once.
1098:fltk-1.3.4-1/png/pngwutil.c ****        */
1099:fltk-1.3.4-1/png/pngwutil.c ****       if (ret == Z_OK) /* most likely return code! */
 3347              		.loc 1 1099 7 is_stmt 1 view .LVU998
 3348              		.loc 1 1099 10 is_stmt 0 view .LVU999
 3349 0189 4585ED   		testl	%r13d, %r13d
 3350 018c 7542     		jne	.L305
1100:fltk-1.3.4-1/png/pngwutil.c ****       {
1101:fltk-1.3.4-1/png/pngwutil.c ****          /* If all the input has been consumed then just return.  If Z_FINISH
1102:fltk-1.3.4-1/png/pngwutil.c ****           * was used as the flush parameter something has gone wrong if we get
1103:fltk-1.3.4-1/png/pngwutil.c ****           * here.
1104:fltk-1.3.4-1/png/pngwutil.c ****           */
1105:fltk-1.3.4-1/png/pngwutil.c ****          if (input_len == 0)
 3351              		.loc 1 1105 10 is_stmt 1 view .LVU1000
 3352              		.loc 1 1105 13 is_stmt 0 view .LVU1001
 3353 018e 4885DB   		testq	%rbx, %rbx
 3354 0191 0F8519FF 		jne	.L281
 3354      FFFF
1106:fltk-1.3.4-1/png/pngwutil.c ****          {
1107:fltk-1.3.4-1/png/pngwutil.c ****             if (flush == Z_FINISH)
 3355              		.loc 1 1107 13 is_stmt 1 view .LVU1002
 3356              		.loc 1 1107 16 is_stmt 0 view .LVU1003
 3357 0197 837C240C 		cmpl	$4, 12(%rsp)
 3357      04
 3358 019c 0F859B00 		jne	.L273
 3358      0000
1108:fltk-1.3.4-1/png/pngwutil.c ****                png_error(png_ptr, "Z_OK on Z_FINISH with output space");
 3359              		.loc 1 1108 16 is_stmt 1 view .LVU1004
 3360 01a2 488D3500 		leaq	.LC20(%rip), %rsi
 3360      000000
 3361 01a9 4889EF   		movq	%rbp, %rdi
 3362 01ac E8000000 		call	png_error@PLT
 3362      00
 3363              	.LVL327:
 3364              		.p2align 4,,10
 3365 01b1 0F1F8000 		.p2align 3
 3365      000000
 3366              	.L282:
1053:fltk-1.3.4-1/png/pngwutil.c **** 
 3367              		.loc 1 1053 10 view .LVU1005
1055:fltk-1.3.4-1/png/pngwutil.c ****       input_len -= avail;
 3368              		.loc 1 1055 7 view .LVU1006
1055:fltk-1.3.4-1/png/pngwutil.c ****       input_len -= avail;
 3369              		.loc 1 1055 33 is_stmt 0 view .LVU1007
 3370 01b8 899D4801 		movl	%ebx, 328(%rbp)
 3370      0000
1056:fltk-1.3.4-1/png/pngwutil.c **** 
 3371              		.loc 1 1056 7 is_stmt 1 view .LVU1008
 3372              	.LVL328:
1058:fltk-1.3.4-1/png/pngwutil.c **** 
 3373              		.loc 1 1058 7 view .LVU1009
1058:fltk-1.3.4-1/png/pngwutil.c **** 
 3374              		.loc 1 1058 13 is_stmt 0 view .LVU1010
 3375 01be 8B74240C 		movl	12(%rsp), %esi
1056:fltk-1.3.4-1/png/pngwutil.c **** 
 3376              		.loc 1 1056 17 view .LVU1011
 3377 01c2 31DB     		xorl	%ebx, %ebx
 3378              	.LVL329:
1056:fltk-1.3.4-1/png/pngwutil.c **** 
 3379              		.loc 1 1056 17 view .LVU1012
 3380 01c4 E916FFFF 		jmp	.L283
 3380      FF
 3381              	.LVL330:
 3382 01c9 0F1F8000 		.p2align 4,,10
 3382      000000
 3383              		.p2align 3
 3384              	.L305:
1109:fltk-1.3.4-1/png/pngwutil.c **** 
1110:fltk-1.3.4-1/png/pngwutil.c ****             return;
1111:fltk-1.3.4-1/png/pngwutil.c ****          }
1112:fltk-1.3.4-1/png/pngwutil.c ****       }
1113:fltk-1.3.4-1/png/pngwutil.c **** 
1114:fltk-1.3.4-1/png/pngwutil.c ****       else if (ret == Z_STREAM_END && flush == Z_FINISH)
 3385              		.loc 1 1114 12 is_stmt 1 view .LVU1013
 3386              		.loc 1 1114 15 is_stmt 0 view .LVU1014
 3387 01d0 4183FD01 		cmpl	$1, %r13d
 3388 01d4 0F85C800 		jne	.L292
 3388      0000
 3389 01da 837C240C 		cmpl	$4, 12(%rsp)
 3389      04
 3390 01df 0F85BD00 		jne	.L292
 3390      0000
 3391              	.LBB306:
1115:fltk-1.3.4-1/png/pngwutil.c ****       {
1116:fltk-1.3.4-1/png/pngwutil.c ****          /* This is the end of the IDAT data; any pending output must be
1117:fltk-1.3.4-1/png/pngwutil.c ****           * flushed.  For small PNG files we may still be at the beginning.
1118:fltk-1.3.4-1/png/pngwutil.c ****           */
1119:fltk-1.3.4-1/png/pngwutil.c ****          png_bytep data = png_ptr->zbuffer_list->output;
 3392              		.loc 1 1119 10 is_stmt 1 view .LVU1015
 3393              		.loc 1 1119 20 is_stmt 0 view .LVU1016
 3394 01e5 488B85B0 		movq	432(%rbp), %rax
 3394      010000
1120:fltk-1.3.4-1/png/pngwutil.c ****          uInt size = png_ptr->zbuffer_size - png_ptr->zstream.avail_out;
 3395              		.loc 1 1120 15 view .LVU1017
 3396 01ec 8B9DB801 		movl	440(%rbp), %ebx
 3396      0000
 3397              	.LVL331:
 3398              		.loc 1 1120 15 view .LVU1018
 3399 01f2 2B9D6001 		subl	352(%rbp), %ebx
 3399      0000
1119:fltk-1.3.4-1/png/pngwutil.c ****          uInt size = png_ptr->zbuffer_size - png_ptr->zstream.avail_out;
 3400              		.loc 1 1119 20 view .LVU1019
 3401 01f8 4C8D6008 		leaq	8(%rax), %r12
 3402              	.LVL332:
 3403              		.loc 1 1120 10 is_stmt 1 view .LVU1020
1121:fltk-1.3.4-1/png/pngwutil.c **** 
1122:fltk-1.3.4-1/png/pngwutil.c **** #ifdef PNG_WRITE_OPTIMIZE_CMF_SUPPORTED
1123:fltk-1.3.4-1/png/pngwutil.c ****          if ((png_ptr->mode & PNG_HAVE_IDAT) == 0 &&
 3404              		.loc 1 1123 10 view .LVU1021
 3405              		.loc 1 1123 13 is_stmt 0 view .LVU1022
 3406 01fc F6852C01 		testb	$4, 300(%rbp)
 3406      000004
 3407 0203 744B     		je	.L309
 3408              	.L293:
1124:fltk-1.3.4-1/png/pngwutil.c ****              png_ptr->compression_type == PNG_COMPRESSION_TYPE_BASE)
1125:fltk-1.3.4-1/png/pngwutil.c ****             optimize_cmf(data, png_image_size(png_ptr));
1126:fltk-1.3.4-1/png/pngwutil.c **** #endif
1127:fltk-1.3.4-1/png/pngwutil.c **** 
1128:fltk-1.3.4-1/png/pngwutil.c ****          png_write_complete_chunk(png_ptr, png_IDAT, data, size);
 3409              		.loc 1 1128 10 is_stmt 1 view .LVU1023
 3410 0205 89D9     		movl	%ebx, %ecx
 3411 0207 4C89E2   		movq	%r12, %rdx
 3412 020a BE544144 		movl	$1229209940, %esi
 3412      49
 3413 020f 4889EF   		movq	%rbp, %rdi
 3414 0212 E8000000 		call	png_write_complete_chunk
 3414      00
 3415              	.LVL333:
1129:fltk-1.3.4-1/png/pngwutil.c ****          png_ptr->zstream.avail_out = 0;
 3416              		.loc 1 1129 10 view .LVU1024
1130:fltk-1.3.4-1/png/pngwutil.c ****          png_ptr->zstream.next_out = NULL;
1131:fltk-1.3.4-1/png/pngwutil.c ****          png_ptr->mode |= PNG_HAVE_IDAT | PNG_AFTER_IDAT;
 3417              		.loc 1 1131 24 is_stmt 0 view .LVU1025
 3418 0217 838D2C01 		orl	$12, 300(%rbp)
 3418      00000C
1129:fltk-1.3.4-1/png/pngwutil.c ****          png_ptr->zstream.avail_out = 0;
 3419              		.loc 1 1129 37 view .LVU1026
 3420 021e C7856001 		movl	$0, 352(%rbp)
 3420      00000000 
 3420      0000
1130:fltk-1.3.4-1/png/pngwutil.c ****          png_ptr->zstream.next_out = NULL;
 3421              		.loc 1 1130 10 is_stmt 1 view .LVU1027
1130:fltk-1.3.4-1/png/pngwutil.c ****          png_ptr->zstream.next_out = NULL;
 3422              		.loc 1 1130 36 is_stmt 0 view .LVU1028
 3423 0228 48C78558 		movq	$0, 344(%rbp)
 3423      01000000 
 3423      000000
 3424              		.loc 1 1131 10 is_stmt 1 view .LVU1029
1132:fltk-1.3.4-1/png/pngwutil.c **** 
1133:fltk-1.3.4-1/png/pngwutil.c ****          png_ptr->zowner = 0; /* Release the stream */
 3425              		.loc 1 1133 10 view .LVU1030
 3426              		.loc 1 1133 26 is_stmt 0 view .LVU1031
 3427 0233 C7853801 		movl	$0, 312(%rbp)
 3427      00000000 
 3427      0000
1134:fltk-1.3.4-1/png/pngwutil.c ****          return;
 3428              		.loc 1 1134 10 is_stmt 1 view .LVU1032
 3429              	.LVL334:
 3430              	.L273:
 3431              		.loc 1 1134 10 is_stmt 0 view .LVU1033
 3432              	.LBE306:
 3433              	.LBE302:
1135:fltk-1.3.4-1/png/pngwutil.c ****       }
1136:fltk-1.3.4-1/png/pngwutil.c **** 
1137:fltk-1.3.4-1/png/pngwutil.c ****       else
1138:fltk-1.3.4-1/png/pngwutil.c ****       {
1139:fltk-1.3.4-1/png/pngwutil.c ****          /* This is an error condition. */
1140:fltk-1.3.4-1/png/pngwutil.c ****          png_zstream_error(png_ptr, ret);
1141:fltk-1.3.4-1/png/pngwutil.c ****          png_error(png_ptr, png_ptr->zstream.msg);
1142:fltk-1.3.4-1/png/pngwutil.c ****       }
1143:fltk-1.3.4-1/png/pngwutil.c ****    }
1144:fltk-1.3.4-1/png/pngwutil.c **** }
 3434              		.loc 1 1144 1 view .LVU1034
 3435 023d 4883C418 		addq	$24, %rsp
 3436              		.cfi_remember_state
 3437              		.cfi_def_cfa_offset 56
 3438 0241 5B       		popq	%rbx
 3439              		.cfi_def_cfa_offset 48
 3440 0242 5D       		popq	%rbp
 3441              		.cfi_def_cfa_offset 40
 3442              	.LVL335:
 3443              		.loc 1 1144 1 view .LVU1035
 3444 0243 415C     		popq	%r12
 3445              		.cfi_def_cfa_offset 32
 3446 0245 415D     		popq	%r13
 3447              		.cfi_def_cfa_offset 24
 3448              	.LVL336:
 3449              		.loc 1 1144 1 view .LVU1036
 3450 0247 415E     		popq	%r14
 3451              		.cfi_def_cfa_offset 16
 3452 0249 415F     		popq	%r15
 3453              		.cfi_def_cfa_offset 8
 3454              	.LVL337:
 3455              		.loc 1 1144 1 view .LVU1037
 3456 024b C3       		ret
 3457              	.LVL338:
 3458 024c 0F1F4000 		.p2align 4,,10
 3459              		.p2align 3
 3460              	.L309:
 3461              		.cfi_restore_state
 3462              	.LBB310:
 3463              	.LBB309:
1123:fltk-1.3.4-1/png/pngwutil.c ****              png_ptr->compression_type == PNG_COMPRESSION_TYPE_BASE)
 3464              		.loc 1 1123 51 discriminator 1 view .LVU1038
 3465 0250 80BD5804 		cmpb	$0, 1112(%rbp)
 3465      000000
 3466 0257 75AC     		jne	.L293
1125:fltk-1.3.4-1/png/pngwutil.c **** #endif
 3467              		.loc 1 1125 13 is_stmt 1 view .LVU1039
 3468 0259 4889EF   		movq	%rbp, %rdi
 3469 025c E8000000 		call	png_image_size
 3469      00
 3470              	.LVL339:
 3471 0261 4889C6   		movq	%rax, %rsi
 3472              	.LVL340:
 3473              	.LBB307:
 3474              	.LBI307:
 251:fltk-1.3.4-1/png/pngwutil.c **** {
 3475              		.loc 1 251 1 view .LVU1040
 3476              	.LBB308:
 256:fltk-1.3.4-1/png/pngwutil.c ****    {
 3477              		.loc 1 256 4 view .LVU1041
 256:fltk-1.3.4-1/png/pngwutil.c ****    {
 3478              		.loc 1 256 7 is_stmt 0 view .LVU1042
 3479 0264 483D0040 		cmpq	$16384, %rax
 3479      0000
 3480 026a 7799     		ja	.L293
 3481 026c 4C89E7   		movq	%r12, %rdi
 3482 026f E8000000 		call	optimize_cmf.part.0
 3482      00
 3483              	.LVL341:
 256:fltk-1.3.4-1/png/pngwutil.c ****    {
 3484              		.loc 1 256 7 view .LVU1043
 3485 0274 EB8F     		jmp	.L293
 3486              	.LVL342:
 3487 0276 662E0F1F 		.p2align 4,,10
 3487      84000000 
 3487      0000
 3488              		.p2align 3
 3489              	.L308:
 256:fltk-1.3.4-1/png/pngwutil.c ****    {
 3490              		.loc 1 256 7 view .LVU1044
 3491              	.LBE308:
 3492              	.LBE307:
 3493              	.LBE309:
 3494              	.LBE310:
1020:fltk-1.3.4-1/png/pngwutil.c ****             png_malloc(png_ptr, PNG_COMPRESSION_BUFFER_SIZE(png_ptr)));
 3495              		.loc 1 1020 10 is_stmt 1 view .LVU1045
1020:fltk-1.3.4-1/png/pngwutil.c ****             png_malloc(png_ptr, PNG_COMPRESSION_BUFFER_SIZE(png_ptr)));
 3496              		.loc 1 1020 34 is_stmt 0 view .LVU1046
 3497 0280 8BB7B801 		movl	440(%rdi), %esi
 3497      0000
 3498              	.LVL343:
1020:fltk-1.3.4-1/png/pngwutil.c ****             png_malloc(png_ptr, PNG_COMPRESSION_BUFFER_SIZE(png_ptr)));
 3499              		.loc 1 1020 34 view .LVU1047
 3500 0286 4883C608 		addq	$8, %rsi
 3501 028a E8000000 		call	png_malloc@PLT
 3501      00
 3502              	.LVL344:
1020:fltk-1.3.4-1/png/pngwutil.c ****             png_malloc(png_ptr, PNG_COMPRESSION_BUFFER_SIZE(png_ptr)));
 3503              		.loc 1 1020 32 view .LVU1048
 3504 028f 488985B0 		movq	%rax, 432(%rbp)
 3504      010000
1022:fltk-1.3.4-1/png/pngwutil.c ****       }
 3505              		.loc 1 1022 10 is_stmt 1 view .LVU1049
1022:fltk-1.3.4-1/png/pngwutil.c ****       }
 3506              		.loc 1 1022 38 is_stmt 0 view .LVU1050
 3507 0296 48C70000 		movq	$0, (%rax)
 3507      000000
 3508 029d E9C2FDFF 		jmp	.L276
 3508      FF
 3509              	.LVL345:
 3510              	.L292:
 3511              	.LBB311:
1140:fltk-1.3.4-1/png/pngwutil.c ****          png_error(png_ptr, png_ptr->zstream.msg);
 3512              		.loc 1 1140 10 is_stmt 1 view .LVU1051
 3513 02a2 4489EE   		movl	%r13d, %esi
 3514 02a5 4889EF   		movq	%rbp, %rdi
 3515 02a8 E8000000 		call	png_zstream_error@PLT
 3515      00
 3516              	.LVL346:
 3517              	.L307:
1141:fltk-1.3.4-1/png/pngwutil.c ****       }
 3518              		.loc 1 1141 10 view .LVU1052
 3519 02ad 488BB570 		movq	368(%rbp), %rsi
 3519      010000
 3520 02b4 4889EF   		movq	%rbp, %rdi
 3521 02b7 E8000000 		call	png_error@PLT
 3521      00
 3522              	.LVL347:
 3523              	.LBE311:
 3524              		.cfi_endproc
 3525              	.LFE60:
 3527              		.section	.text.png_write_finish_row.part.0,"ax",@progbits
 3528              		.p2align 4
 3530              	png_write_finish_row.part.0:
 3531              	.LVL348:
 3532              	.LFB90:
1145:fltk-1.3.4-1/png/pngwutil.c **** 
1146:fltk-1.3.4-1/png/pngwutil.c **** /* Write an IEND chunk */
1147:fltk-1.3.4-1/png/pngwutil.c **** void /* PRIVATE */
1148:fltk-1.3.4-1/png/pngwutil.c **** png_write_IEND(png_structrp png_ptr)
1149:fltk-1.3.4-1/png/pngwutil.c **** {
1150:fltk-1.3.4-1/png/pngwutil.c ****    png_debug(1, "in png_write_IEND");
1151:fltk-1.3.4-1/png/pngwutil.c **** 
1152:fltk-1.3.4-1/png/pngwutil.c ****    png_write_complete_chunk(png_ptr, png_IEND, NULL, (png_size_t)0);
1153:fltk-1.3.4-1/png/pngwutil.c ****    png_ptr->mode |= PNG_HAVE_IEND;
1154:fltk-1.3.4-1/png/pngwutil.c **** }
1155:fltk-1.3.4-1/png/pngwutil.c **** 
1156:fltk-1.3.4-1/png/pngwutil.c **** #ifdef PNG_WRITE_gAMA_SUPPORTED
1157:fltk-1.3.4-1/png/pngwutil.c **** /* Write a gAMA chunk */
1158:fltk-1.3.4-1/png/pngwutil.c **** void /* PRIVATE */
1159:fltk-1.3.4-1/png/pngwutil.c **** png_write_gAMA_fixed(png_structrp png_ptr, png_fixed_point file_gamma)
1160:fltk-1.3.4-1/png/pngwutil.c **** {
1161:fltk-1.3.4-1/png/pngwutil.c ****    png_byte buf[4];
1162:fltk-1.3.4-1/png/pngwutil.c **** 
1163:fltk-1.3.4-1/png/pngwutil.c ****    png_debug(1, "in png_write_gAMA");
1164:fltk-1.3.4-1/png/pngwutil.c **** 
1165:fltk-1.3.4-1/png/pngwutil.c ****    /* file_gamma is saved in 1/100,000ths */
1166:fltk-1.3.4-1/png/pngwutil.c ****    png_save_uint_32(buf, (png_uint_32)file_gamma);
1167:fltk-1.3.4-1/png/pngwutil.c ****    png_write_complete_chunk(png_ptr, png_gAMA, buf, (png_size_t)4);
1168:fltk-1.3.4-1/png/pngwutil.c **** }
1169:fltk-1.3.4-1/png/pngwutil.c **** #endif
1170:fltk-1.3.4-1/png/pngwutil.c **** 
1171:fltk-1.3.4-1/png/pngwutil.c **** #ifdef PNG_WRITE_sRGB_SUPPORTED
1172:fltk-1.3.4-1/png/pngwutil.c **** /* Write a sRGB chunk */
1173:fltk-1.3.4-1/png/pngwutil.c **** void /* PRIVATE */
1174:fltk-1.3.4-1/png/pngwutil.c **** png_write_sRGB(png_structrp png_ptr, int srgb_intent)
1175:fltk-1.3.4-1/png/pngwutil.c **** {
1176:fltk-1.3.4-1/png/pngwutil.c ****    png_byte buf[1];
1177:fltk-1.3.4-1/png/pngwutil.c **** 
1178:fltk-1.3.4-1/png/pngwutil.c ****    png_debug(1, "in png_write_sRGB");
1179:fltk-1.3.4-1/png/pngwutil.c **** 
1180:fltk-1.3.4-1/png/pngwutil.c ****    if (srgb_intent >= PNG_sRGB_INTENT_LAST)
1181:fltk-1.3.4-1/png/pngwutil.c ****       png_warning(png_ptr,
1182:fltk-1.3.4-1/png/pngwutil.c ****           "Invalid sRGB rendering intent specified");
1183:fltk-1.3.4-1/png/pngwutil.c **** 
1184:fltk-1.3.4-1/png/pngwutil.c ****    buf[0]=(png_byte)srgb_intent;
1185:fltk-1.3.4-1/png/pngwutil.c ****    png_write_complete_chunk(png_ptr, png_sRGB, buf, (png_size_t)1);
1186:fltk-1.3.4-1/png/pngwutil.c **** }
1187:fltk-1.3.4-1/png/pngwutil.c **** #endif
1188:fltk-1.3.4-1/png/pngwutil.c **** 
1189:fltk-1.3.4-1/png/pngwutil.c **** #ifdef PNG_WRITE_iCCP_SUPPORTED
1190:fltk-1.3.4-1/png/pngwutil.c **** /* Write an iCCP chunk */
1191:fltk-1.3.4-1/png/pngwutil.c **** void /* PRIVATE */
1192:fltk-1.3.4-1/png/pngwutil.c **** png_write_iCCP(png_structrp png_ptr, png_const_charp name,
1193:fltk-1.3.4-1/png/pngwutil.c ****     png_const_bytep profile)
1194:fltk-1.3.4-1/png/pngwutil.c **** {
1195:fltk-1.3.4-1/png/pngwutil.c ****    png_uint_32 name_len;
1196:fltk-1.3.4-1/png/pngwutil.c ****    png_uint_32 profile_len;
1197:fltk-1.3.4-1/png/pngwutil.c ****    png_byte new_name[81]; /* 1 byte for the compression byte */
1198:fltk-1.3.4-1/png/pngwutil.c ****    compression_state comp;
1199:fltk-1.3.4-1/png/pngwutil.c ****    png_uint_32 temp;
1200:fltk-1.3.4-1/png/pngwutil.c **** 
1201:fltk-1.3.4-1/png/pngwutil.c ****    png_debug(1, "in png_write_iCCP");
1202:fltk-1.3.4-1/png/pngwutil.c **** 
1203:fltk-1.3.4-1/png/pngwutil.c ****    /* These are all internal problems: the profile should have been checked
1204:fltk-1.3.4-1/png/pngwutil.c ****     * before when it was stored.
1205:fltk-1.3.4-1/png/pngwutil.c ****     */
1206:fltk-1.3.4-1/png/pngwutil.c ****    if (profile == NULL)
1207:fltk-1.3.4-1/png/pngwutil.c ****       png_error(png_ptr, "No profile for iCCP chunk"); /* internal error */
1208:fltk-1.3.4-1/png/pngwutil.c **** 
1209:fltk-1.3.4-1/png/pngwutil.c ****    profile_len = png_get_uint_32(profile);
1210:fltk-1.3.4-1/png/pngwutil.c **** 
1211:fltk-1.3.4-1/png/pngwutil.c ****    if (profile_len < 132)
1212:fltk-1.3.4-1/png/pngwutil.c ****       png_error(png_ptr, "ICC profile too short");
1213:fltk-1.3.4-1/png/pngwutil.c **** 
1214:fltk-1.3.4-1/png/pngwutil.c ****    temp = (png_uint_32) (*(profile+8));
1215:fltk-1.3.4-1/png/pngwutil.c ****    if (temp > 3 && (profile_len & 0x03))
1216:fltk-1.3.4-1/png/pngwutil.c ****       png_error(png_ptr, "ICC profile length invalid (not a multiple of 4)");
1217:fltk-1.3.4-1/png/pngwutil.c **** 
1218:fltk-1.3.4-1/png/pngwutil.c ****    {
1219:fltk-1.3.4-1/png/pngwutil.c ****       png_uint_32 embedded_profile_len = png_get_uint_32(profile);
1220:fltk-1.3.4-1/png/pngwutil.c **** 
1221:fltk-1.3.4-1/png/pngwutil.c ****       if (profile_len != embedded_profile_len)
1222:fltk-1.3.4-1/png/pngwutil.c ****          png_error(png_ptr, "Profile length does not match profile");
1223:fltk-1.3.4-1/png/pngwutil.c ****    }
1224:fltk-1.3.4-1/png/pngwutil.c **** 
1225:fltk-1.3.4-1/png/pngwutil.c ****    name_len = png_check_keyword(png_ptr, name, new_name);
1226:fltk-1.3.4-1/png/pngwutil.c **** 
1227:fltk-1.3.4-1/png/pngwutil.c ****    if (name_len == 0)
1228:fltk-1.3.4-1/png/pngwutil.c ****       png_error(png_ptr, "iCCP: invalid keyword");
1229:fltk-1.3.4-1/png/pngwutil.c **** 
1230:fltk-1.3.4-1/png/pngwutil.c ****    new_name[++name_len] = PNG_COMPRESSION_TYPE_BASE;
1231:fltk-1.3.4-1/png/pngwutil.c **** 
1232:fltk-1.3.4-1/png/pngwutil.c ****    /* Make sure we include the NULL after the name and the compression type */
1233:fltk-1.3.4-1/png/pngwutil.c ****    ++name_len;
1234:fltk-1.3.4-1/png/pngwutil.c **** 
1235:fltk-1.3.4-1/png/pngwutil.c ****    png_text_compress_init(&comp, profile, profile_len);
1236:fltk-1.3.4-1/png/pngwutil.c **** 
1237:fltk-1.3.4-1/png/pngwutil.c ****    /* Allow for keyword terminator and compression byte */
1238:fltk-1.3.4-1/png/pngwutil.c ****    if (png_text_compress(png_ptr, png_iCCP, &comp, name_len) != Z_OK)
1239:fltk-1.3.4-1/png/pngwutil.c ****       png_error(png_ptr, png_ptr->zstream.msg);
1240:fltk-1.3.4-1/png/pngwutil.c **** 
1241:fltk-1.3.4-1/png/pngwutil.c ****    png_write_chunk_header(png_ptr, png_iCCP, name_len + comp.output_len);
1242:fltk-1.3.4-1/png/pngwutil.c **** 
1243:fltk-1.3.4-1/png/pngwutil.c ****    png_write_chunk_data(png_ptr, new_name, name_len);
1244:fltk-1.3.4-1/png/pngwutil.c **** 
1245:fltk-1.3.4-1/png/pngwutil.c ****    png_write_compressed_data_out(png_ptr, &comp);
1246:fltk-1.3.4-1/png/pngwutil.c **** 
1247:fltk-1.3.4-1/png/pngwutil.c ****    png_write_chunk_end(png_ptr);
1248:fltk-1.3.4-1/png/pngwutil.c **** }
1249:fltk-1.3.4-1/png/pngwutil.c **** #endif
1250:fltk-1.3.4-1/png/pngwutil.c **** 
1251:fltk-1.3.4-1/png/pngwutil.c **** #ifdef PNG_WRITE_sPLT_SUPPORTED
1252:fltk-1.3.4-1/png/pngwutil.c **** /* Write a sPLT chunk */
1253:fltk-1.3.4-1/png/pngwutil.c **** void /* PRIVATE */
1254:fltk-1.3.4-1/png/pngwutil.c **** png_write_sPLT(png_structrp png_ptr, png_const_sPLT_tp spalette)
1255:fltk-1.3.4-1/png/pngwutil.c **** {
1256:fltk-1.3.4-1/png/pngwutil.c ****    png_uint_32 name_len;
1257:fltk-1.3.4-1/png/pngwutil.c ****    png_byte new_name[80];
1258:fltk-1.3.4-1/png/pngwutil.c ****    png_byte entrybuf[10];
1259:fltk-1.3.4-1/png/pngwutil.c ****    png_size_t entry_size = (spalette->depth == 8 ? 6 : 10);
1260:fltk-1.3.4-1/png/pngwutil.c ****    png_size_t palette_size = entry_size * spalette->nentries;
1261:fltk-1.3.4-1/png/pngwutil.c ****    png_sPLT_entryp ep;
1262:fltk-1.3.4-1/png/pngwutil.c **** #ifndef PNG_POINTER_INDEXING_SUPPORTED
1263:fltk-1.3.4-1/png/pngwutil.c ****    int i;
1264:fltk-1.3.4-1/png/pngwutil.c **** #endif
1265:fltk-1.3.4-1/png/pngwutil.c **** 
1266:fltk-1.3.4-1/png/pngwutil.c ****    png_debug(1, "in png_write_sPLT");
1267:fltk-1.3.4-1/png/pngwutil.c **** 
1268:fltk-1.3.4-1/png/pngwutil.c ****    name_len = png_check_keyword(png_ptr, spalette->name, new_name);
1269:fltk-1.3.4-1/png/pngwutil.c **** 
1270:fltk-1.3.4-1/png/pngwutil.c ****    if (name_len == 0)
1271:fltk-1.3.4-1/png/pngwutil.c ****       png_error(png_ptr, "sPLT: invalid keyword");
1272:fltk-1.3.4-1/png/pngwutil.c **** 
1273:fltk-1.3.4-1/png/pngwutil.c ****    /* Make sure we include the NULL after the name */
1274:fltk-1.3.4-1/png/pngwutil.c ****    png_write_chunk_header(png_ptr, png_sPLT,
1275:fltk-1.3.4-1/png/pngwutil.c ****        (png_uint_32)(name_len + 2 + palette_size));
1276:fltk-1.3.4-1/png/pngwutil.c **** 
1277:fltk-1.3.4-1/png/pngwutil.c ****    png_write_chunk_data(png_ptr, (png_bytep)new_name,
1278:fltk-1.3.4-1/png/pngwutil.c ****        (png_size_t)(name_len + 1));
1279:fltk-1.3.4-1/png/pngwutil.c **** 
1280:fltk-1.3.4-1/png/pngwutil.c ****    png_write_chunk_data(png_ptr, &spalette->depth, (png_size_t)1);
1281:fltk-1.3.4-1/png/pngwutil.c **** 
1282:fltk-1.3.4-1/png/pngwutil.c ****    /* Loop through each palette entry, writing appropriately */
1283:fltk-1.3.4-1/png/pngwutil.c **** #ifdef PNG_POINTER_INDEXING_SUPPORTED
1284:fltk-1.3.4-1/png/pngwutil.c ****    for (ep = spalette->entries; ep<spalette->entries + spalette->nentries; ep++)
1285:fltk-1.3.4-1/png/pngwutil.c ****    {
1286:fltk-1.3.4-1/png/pngwutil.c ****       if (spalette->depth == 8)
1287:fltk-1.3.4-1/png/pngwutil.c ****       {
1288:fltk-1.3.4-1/png/pngwutil.c ****          entrybuf[0] = (png_byte)ep->red;
1289:fltk-1.3.4-1/png/pngwutil.c ****          entrybuf[1] = (png_byte)ep->green;
1290:fltk-1.3.4-1/png/pngwutil.c ****          entrybuf[2] = (png_byte)ep->blue;
1291:fltk-1.3.4-1/png/pngwutil.c ****          entrybuf[3] = (png_byte)ep->alpha;
1292:fltk-1.3.4-1/png/pngwutil.c ****          png_save_uint_16(entrybuf + 4, ep->frequency);
1293:fltk-1.3.4-1/png/pngwutil.c ****       }
1294:fltk-1.3.4-1/png/pngwutil.c **** 
1295:fltk-1.3.4-1/png/pngwutil.c ****       else
1296:fltk-1.3.4-1/png/pngwutil.c ****       {
1297:fltk-1.3.4-1/png/pngwutil.c ****          png_save_uint_16(entrybuf + 0, ep->red);
1298:fltk-1.3.4-1/png/pngwutil.c ****          png_save_uint_16(entrybuf + 2, ep->green);
1299:fltk-1.3.4-1/png/pngwutil.c ****          png_save_uint_16(entrybuf + 4, ep->blue);
1300:fltk-1.3.4-1/png/pngwutil.c ****          png_save_uint_16(entrybuf + 6, ep->alpha);
1301:fltk-1.3.4-1/png/pngwutil.c ****          png_save_uint_16(entrybuf + 8, ep->frequency);
1302:fltk-1.3.4-1/png/pngwutil.c ****       }
1303:fltk-1.3.4-1/png/pngwutil.c **** 
1304:fltk-1.3.4-1/png/pngwutil.c ****       png_write_chunk_data(png_ptr, entrybuf, entry_size);
1305:fltk-1.3.4-1/png/pngwutil.c ****    }
1306:fltk-1.3.4-1/png/pngwutil.c **** #else
1307:fltk-1.3.4-1/png/pngwutil.c ****    ep=spalette->entries;
1308:fltk-1.3.4-1/png/pngwutil.c ****    for (i = 0; i>spalette->nentries; i++)
1309:fltk-1.3.4-1/png/pngwutil.c ****    {
1310:fltk-1.3.4-1/png/pngwutil.c ****       if (spalette->depth == 8)
1311:fltk-1.3.4-1/png/pngwutil.c ****       {
1312:fltk-1.3.4-1/png/pngwutil.c ****          entrybuf[0] = (png_byte)ep[i].red;
1313:fltk-1.3.4-1/png/pngwutil.c ****          entrybuf[1] = (png_byte)ep[i].green;
1314:fltk-1.3.4-1/png/pngwutil.c ****          entrybuf[2] = (png_byte)ep[i].blue;
1315:fltk-1.3.4-1/png/pngwutil.c ****          entrybuf[3] = (png_byte)ep[i].alpha;
1316:fltk-1.3.4-1/png/pngwutil.c ****          png_save_uint_16(entrybuf + 4, ep[i].frequency);
1317:fltk-1.3.4-1/png/pngwutil.c ****       }
1318:fltk-1.3.4-1/png/pngwutil.c **** 
1319:fltk-1.3.4-1/png/pngwutil.c ****       else
1320:fltk-1.3.4-1/png/pngwutil.c ****       {
1321:fltk-1.3.4-1/png/pngwutil.c ****          png_save_uint_16(entrybuf + 0, ep[i].red);
1322:fltk-1.3.4-1/png/pngwutil.c ****          png_save_uint_16(entrybuf + 2, ep[i].green);
1323:fltk-1.3.4-1/png/pngwutil.c ****          png_save_uint_16(entrybuf + 4, ep[i].blue);
1324:fltk-1.3.4-1/png/pngwutil.c ****          png_save_uint_16(entrybuf + 6, ep[i].alpha);
1325:fltk-1.3.4-1/png/pngwutil.c ****          png_save_uint_16(entrybuf + 8, ep[i].frequency);
1326:fltk-1.3.4-1/png/pngwutil.c ****       }
1327:fltk-1.3.4-1/png/pngwutil.c **** 
1328:fltk-1.3.4-1/png/pngwutil.c ****       png_write_chunk_data(png_ptr, entrybuf, entry_size);
1329:fltk-1.3.4-1/png/pngwutil.c ****    }
1330:fltk-1.3.4-1/png/pngwutil.c **** #endif
1331:fltk-1.3.4-1/png/pngwutil.c **** 
1332:fltk-1.3.4-1/png/pngwutil.c ****    png_write_chunk_end(png_ptr);
1333:fltk-1.3.4-1/png/pngwutil.c **** }
1334:fltk-1.3.4-1/png/pngwutil.c **** #endif
1335:fltk-1.3.4-1/png/pngwutil.c **** 
1336:fltk-1.3.4-1/png/pngwutil.c **** #ifdef PNG_WRITE_sBIT_SUPPORTED
1337:fltk-1.3.4-1/png/pngwutil.c **** /* Write the sBIT chunk */
1338:fltk-1.3.4-1/png/pngwutil.c **** void /* PRIVATE */
1339:fltk-1.3.4-1/png/pngwutil.c **** png_write_sBIT(png_structrp png_ptr, png_const_color_8p sbit, int color_type)
1340:fltk-1.3.4-1/png/pngwutil.c **** {
1341:fltk-1.3.4-1/png/pngwutil.c ****    png_byte buf[4];
1342:fltk-1.3.4-1/png/pngwutil.c ****    png_size_t size;
1343:fltk-1.3.4-1/png/pngwutil.c **** 
1344:fltk-1.3.4-1/png/pngwutil.c ****    png_debug(1, "in png_write_sBIT");
1345:fltk-1.3.4-1/png/pngwutil.c **** 
1346:fltk-1.3.4-1/png/pngwutil.c ****    /* Make sure we don't depend upon the order of PNG_COLOR_8 */
1347:fltk-1.3.4-1/png/pngwutil.c ****    if ((color_type & PNG_COLOR_MASK_COLOR) != 0)
1348:fltk-1.3.4-1/png/pngwutil.c ****    {
1349:fltk-1.3.4-1/png/pngwutil.c ****       png_byte maxbits;
1350:fltk-1.3.4-1/png/pngwutil.c **** 
1351:fltk-1.3.4-1/png/pngwutil.c ****       maxbits = (png_byte)(color_type==PNG_COLOR_TYPE_PALETTE ? 8 :
1352:fltk-1.3.4-1/png/pngwutil.c ****           png_ptr->usr_bit_depth);
1353:fltk-1.3.4-1/png/pngwutil.c **** 
1354:fltk-1.3.4-1/png/pngwutil.c ****       if (sbit->red == 0 || sbit->red > maxbits ||
1355:fltk-1.3.4-1/png/pngwutil.c ****           sbit->green == 0 || sbit->green > maxbits ||
1356:fltk-1.3.4-1/png/pngwutil.c ****           sbit->blue == 0 || sbit->blue > maxbits)
1357:fltk-1.3.4-1/png/pngwutil.c ****       {
1358:fltk-1.3.4-1/png/pngwutil.c ****          png_warning(png_ptr, "Invalid sBIT depth specified");
1359:fltk-1.3.4-1/png/pngwutil.c ****          return;
1360:fltk-1.3.4-1/png/pngwutil.c ****       }
1361:fltk-1.3.4-1/png/pngwutil.c **** 
1362:fltk-1.3.4-1/png/pngwutil.c ****       buf[0] = sbit->red;
1363:fltk-1.3.4-1/png/pngwutil.c ****       buf[1] = sbit->green;
1364:fltk-1.3.4-1/png/pngwutil.c ****       buf[2] = sbit->blue;
1365:fltk-1.3.4-1/png/pngwutil.c ****       size = 3;
1366:fltk-1.3.4-1/png/pngwutil.c ****    }
1367:fltk-1.3.4-1/png/pngwutil.c **** 
1368:fltk-1.3.4-1/png/pngwutil.c ****    else
1369:fltk-1.3.4-1/png/pngwutil.c ****    {
1370:fltk-1.3.4-1/png/pngwutil.c ****       if (sbit->gray == 0 || sbit->gray > png_ptr->usr_bit_depth)
1371:fltk-1.3.4-1/png/pngwutil.c ****       {
1372:fltk-1.3.4-1/png/pngwutil.c ****          png_warning(png_ptr, "Invalid sBIT depth specified");
1373:fltk-1.3.4-1/png/pngwutil.c ****          return;
1374:fltk-1.3.4-1/png/pngwutil.c ****       }
1375:fltk-1.3.4-1/png/pngwutil.c **** 
1376:fltk-1.3.4-1/png/pngwutil.c ****       buf[0] = sbit->gray;
1377:fltk-1.3.4-1/png/pngwutil.c ****       size = 1;
1378:fltk-1.3.4-1/png/pngwutil.c ****    }
1379:fltk-1.3.4-1/png/pngwutil.c **** 
1380:fltk-1.3.4-1/png/pngwutil.c ****    if ((color_type & PNG_COLOR_MASK_ALPHA) != 0)
1381:fltk-1.3.4-1/png/pngwutil.c ****    {
1382:fltk-1.3.4-1/png/pngwutil.c ****       if (sbit->alpha == 0 || sbit->alpha > png_ptr->usr_bit_depth)
1383:fltk-1.3.4-1/png/pngwutil.c ****       {
1384:fltk-1.3.4-1/png/pngwutil.c ****          png_warning(png_ptr, "Invalid sBIT depth specified");
1385:fltk-1.3.4-1/png/pngwutil.c ****          return;
1386:fltk-1.3.4-1/png/pngwutil.c ****       }
1387:fltk-1.3.4-1/png/pngwutil.c **** 
1388:fltk-1.3.4-1/png/pngwutil.c ****       buf[size++] = sbit->alpha;
1389:fltk-1.3.4-1/png/pngwutil.c ****    }
1390:fltk-1.3.4-1/png/pngwutil.c **** 
1391:fltk-1.3.4-1/png/pngwutil.c ****    png_write_complete_chunk(png_ptr, png_sBIT, buf, size);
1392:fltk-1.3.4-1/png/pngwutil.c **** }
1393:fltk-1.3.4-1/png/pngwutil.c **** #endif
1394:fltk-1.3.4-1/png/pngwutil.c **** 
1395:fltk-1.3.4-1/png/pngwutil.c **** #ifdef PNG_WRITE_cHRM_SUPPORTED
1396:fltk-1.3.4-1/png/pngwutil.c **** /* Write the cHRM chunk */
1397:fltk-1.3.4-1/png/pngwutil.c **** void /* PRIVATE */
1398:fltk-1.3.4-1/png/pngwutil.c **** png_write_cHRM_fixed(png_structrp png_ptr, const png_xy *xy)
1399:fltk-1.3.4-1/png/pngwutil.c **** {
1400:fltk-1.3.4-1/png/pngwutil.c ****    png_byte buf[32];
1401:fltk-1.3.4-1/png/pngwutil.c **** 
1402:fltk-1.3.4-1/png/pngwutil.c ****    png_debug(1, "in png_write_cHRM");
1403:fltk-1.3.4-1/png/pngwutil.c **** 
1404:fltk-1.3.4-1/png/pngwutil.c ****    /* Each value is saved in 1/100,000ths */
1405:fltk-1.3.4-1/png/pngwutil.c ****    png_save_int_32(buf,      xy->whitex);
1406:fltk-1.3.4-1/png/pngwutil.c ****    png_save_int_32(buf +  4, xy->whitey);
1407:fltk-1.3.4-1/png/pngwutil.c **** 
1408:fltk-1.3.4-1/png/pngwutil.c ****    png_save_int_32(buf +  8, xy->redx);
1409:fltk-1.3.4-1/png/pngwutil.c ****    png_save_int_32(buf + 12, xy->redy);
1410:fltk-1.3.4-1/png/pngwutil.c **** 
1411:fltk-1.3.4-1/png/pngwutil.c ****    png_save_int_32(buf + 16, xy->greenx);
1412:fltk-1.3.4-1/png/pngwutil.c ****    png_save_int_32(buf + 20, xy->greeny);
1413:fltk-1.3.4-1/png/pngwutil.c **** 
1414:fltk-1.3.4-1/png/pngwutil.c ****    png_save_int_32(buf + 24, xy->bluex);
1415:fltk-1.3.4-1/png/pngwutil.c ****    png_save_int_32(buf + 28, xy->bluey);
1416:fltk-1.3.4-1/png/pngwutil.c **** 
1417:fltk-1.3.4-1/png/pngwutil.c ****    png_write_complete_chunk(png_ptr, png_cHRM, buf, 32);
1418:fltk-1.3.4-1/png/pngwutil.c **** }
1419:fltk-1.3.4-1/png/pngwutil.c **** #endif
1420:fltk-1.3.4-1/png/pngwutil.c **** 
1421:fltk-1.3.4-1/png/pngwutil.c **** #ifdef PNG_WRITE_tRNS_SUPPORTED
1422:fltk-1.3.4-1/png/pngwutil.c **** /* Write the tRNS chunk */
1423:fltk-1.3.4-1/png/pngwutil.c **** void /* PRIVATE */
1424:fltk-1.3.4-1/png/pngwutil.c **** png_write_tRNS(png_structrp png_ptr, png_const_bytep trans_alpha,
1425:fltk-1.3.4-1/png/pngwutil.c ****     png_const_color_16p tran, int num_trans, int color_type)
1426:fltk-1.3.4-1/png/pngwutil.c **** {
1427:fltk-1.3.4-1/png/pngwutil.c ****    png_byte buf[6];
1428:fltk-1.3.4-1/png/pngwutil.c **** 
1429:fltk-1.3.4-1/png/pngwutil.c ****    png_debug(1, "in png_write_tRNS");
1430:fltk-1.3.4-1/png/pngwutil.c **** 
1431:fltk-1.3.4-1/png/pngwutil.c ****    if (color_type == PNG_COLOR_TYPE_PALETTE)
1432:fltk-1.3.4-1/png/pngwutil.c ****    {
1433:fltk-1.3.4-1/png/pngwutil.c ****       if (num_trans <= 0 || num_trans > (int)png_ptr->num_palette)
1434:fltk-1.3.4-1/png/pngwutil.c ****       {
1435:fltk-1.3.4-1/png/pngwutil.c ****          png_app_warning(png_ptr,
1436:fltk-1.3.4-1/png/pngwutil.c ****              "Invalid number of transparent colors specified");
1437:fltk-1.3.4-1/png/pngwutil.c ****          return;
1438:fltk-1.3.4-1/png/pngwutil.c ****       }
1439:fltk-1.3.4-1/png/pngwutil.c **** 
1440:fltk-1.3.4-1/png/pngwutil.c ****       /* Write the chunk out as it is */
1441:fltk-1.3.4-1/png/pngwutil.c ****       png_write_complete_chunk(png_ptr, png_tRNS, trans_alpha,
1442:fltk-1.3.4-1/png/pngwutil.c ****          (png_size_t)num_trans);
1443:fltk-1.3.4-1/png/pngwutil.c ****    }
1444:fltk-1.3.4-1/png/pngwutil.c **** 
1445:fltk-1.3.4-1/png/pngwutil.c ****    else if (color_type == PNG_COLOR_TYPE_GRAY)
1446:fltk-1.3.4-1/png/pngwutil.c ****    {
1447:fltk-1.3.4-1/png/pngwutil.c ****       /* One 16 bit value */
1448:fltk-1.3.4-1/png/pngwutil.c ****       if (tran->gray >= (1 << png_ptr->bit_depth))
1449:fltk-1.3.4-1/png/pngwutil.c ****       {
1450:fltk-1.3.4-1/png/pngwutil.c ****          png_app_warning(png_ptr,
1451:fltk-1.3.4-1/png/pngwutil.c ****              "Ignoring attempt to write tRNS chunk out-of-range for bit_depth");
1452:fltk-1.3.4-1/png/pngwutil.c **** 
1453:fltk-1.3.4-1/png/pngwutil.c ****          return;
1454:fltk-1.3.4-1/png/pngwutil.c ****       }
1455:fltk-1.3.4-1/png/pngwutil.c **** 
1456:fltk-1.3.4-1/png/pngwutil.c ****       png_save_uint_16(buf, tran->gray);
1457:fltk-1.3.4-1/png/pngwutil.c ****       png_write_complete_chunk(png_ptr, png_tRNS, buf, (png_size_t)2);
1458:fltk-1.3.4-1/png/pngwutil.c ****    }
1459:fltk-1.3.4-1/png/pngwutil.c **** 
1460:fltk-1.3.4-1/png/pngwutil.c ****    else if (color_type == PNG_COLOR_TYPE_RGB)
1461:fltk-1.3.4-1/png/pngwutil.c ****    {
1462:fltk-1.3.4-1/png/pngwutil.c ****       /* Three 16 bit values */
1463:fltk-1.3.4-1/png/pngwutil.c ****       png_save_uint_16(buf, tran->red);
1464:fltk-1.3.4-1/png/pngwutil.c ****       png_save_uint_16(buf + 2, tran->green);
1465:fltk-1.3.4-1/png/pngwutil.c ****       png_save_uint_16(buf + 4, tran->blue);
1466:fltk-1.3.4-1/png/pngwutil.c **** #ifdef PNG_WRITE_16BIT_SUPPORTED
1467:fltk-1.3.4-1/png/pngwutil.c ****       if (png_ptr->bit_depth == 8 && (buf[0] | buf[2] | buf[4]) != 0)
1468:fltk-1.3.4-1/png/pngwutil.c **** #else
1469:fltk-1.3.4-1/png/pngwutil.c ****       if ((buf[0] | buf[2] | buf[4]) != 0)
1470:fltk-1.3.4-1/png/pngwutil.c **** #endif
1471:fltk-1.3.4-1/png/pngwutil.c ****       {
1472:fltk-1.3.4-1/png/pngwutil.c ****          png_app_warning(png_ptr,
1473:fltk-1.3.4-1/png/pngwutil.c ****            "Ignoring attempt to write 16-bit tRNS chunk when bit_depth is 8");
1474:fltk-1.3.4-1/png/pngwutil.c ****          return;
1475:fltk-1.3.4-1/png/pngwutil.c ****       }
1476:fltk-1.3.4-1/png/pngwutil.c **** 
1477:fltk-1.3.4-1/png/pngwutil.c ****       png_write_complete_chunk(png_ptr, png_tRNS, buf, (png_size_t)6);
1478:fltk-1.3.4-1/png/pngwutil.c ****    }
1479:fltk-1.3.4-1/png/pngwutil.c **** 
1480:fltk-1.3.4-1/png/pngwutil.c ****    else
1481:fltk-1.3.4-1/png/pngwutil.c ****    {
1482:fltk-1.3.4-1/png/pngwutil.c ****       png_app_warning(png_ptr, "Can't write tRNS with an alpha channel");
1483:fltk-1.3.4-1/png/pngwutil.c ****    }
1484:fltk-1.3.4-1/png/pngwutil.c **** }
1485:fltk-1.3.4-1/png/pngwutil.c **** #endif
1486:fltk-1.3.4-1/png/pngwutil.c **** 
1487:fltk-1.3.4-1/png/pngwutil.c **** #ifdef PNG_WRITE_bKGD_SUPPORTED
1488:fltk-1.3.4-1/png/pngwutil.c **** /* Write the background chunk */
1489:fltk-1.3.4-1/png/pngwutil.c **** void /* PRIVATE */
1490:fltk-1.3.4-1/png/pngwutil.c **** png_write_bKGD(png_structrp png_ptr, png_const_color_16p back, int color_type)
1491:fltk-1.3.4-1/png/pngwutil.c **** {
1492:fltk-1.3.4-1/png/pngwutil.c ****    png_byte buf[6];
1493:fltk-1.3.4-1/png/pngwutil.c **** 
1494:fltk-1.3.4-1/png/pngwutil.c ****    png_debug(1, "in png_write_bKGD");
1495:fltk-1.3.4-1/png/pngwutil.c **** 
1496:fltk-1.3.4-1/png/pngwutil.c ****    if (color_type == PNG_COLOR_TYPE_PALETTE)
1497:fltk-1.3.4-1/png/pngwutil.c ****    {
1498:fltk-1.3.4-1/png/pngwutil.c ****       if (
1499:fltk-1.3.4-1/png/pngwutil.c **** #ifdef PNG_MNG_FEATURES_SUPPORTED
1500:fltk-1.3.4-1/png/pngwutil.c ****           (png_ptr->num_palette != 0 ||
1501:fltk-1.3.4-1/png/pngwutil.c ****           (png_ptr->mng_features_permitted & PNG_FLAG_MNG_EMPTY_PLTE) == 0) &&
1502:fltk-1.3.4-1/png/pngwutil.c **** #endif
1503:fltk-1.3.4-1/png/pngwutil.c ****          back->index >= png_ptr->num_palette)
1504:fltk-1.3.4-1/png/pngwutil.c ****       {
1505:fltk-1.3.4-1/png/pngwutil.c ****          png_warning(png_ptr, "Invalid background palette index");
1506:fltk-1.3.4-1/png/pngwutil.c ****          return;
1507:fltk-1.3.4-1/png/pngwutil.c ****       }
1508:fltk-1.3.4-1/png/pngwutil.c **** 
1509:fltk-1.3.4-1/png/pngwutil.c ****       buf[0] = back->index;
1510:fltk-1.3.4-1/png/pngwutil.c ****       png_write_complete_chunk(png_ptr, png_bKGD, buf, (png_size_t)1);
1511:fltk-1.3.4-1/png/pngwutil.c ****    }
1512:fltk-1.3.4-1/png/pngwutil.c **** 
1513:fltk-1.3.4-1/png/pngwutil.c ****    else if ((color_type & PNG_COLOR_MASK_COLOR) != 0)
1514:fltk-1.3.4-1/png/pngwutil.c ****    {
1515:fltk-1.3.4-1/png/pngwutil.c ****       png_save_uint_16(buf, back->red);
1516:fltk-1.3.4-1/png/pngwutil.c ****       png_save_uint_16(buf + 2, back->green);
1517:fltk-1.3.4-1/png/pngwutil.c ****       png_save_uint_16(buf + 4, back->blue);
1518:fltk-1.3.4-1/png/pngwutil.c **** #ifdef PNG_WRITE_16BIT_SUPPORTED
1519:fltk-1.3.4-1/png/pngwutil.c ****       if (png_ptr->bit_depth == 8 && (buf[0] | buf[2] | buf[4]) != 0)
1520:fltk-1.3.4-1/png/pngwutil.c **** #else
1521:fltk-1.3.4-1/png/pngwutil.c ****       if ((buf[0] | buf[2] | buf[4]) != 0)
1522:fltk-1.3.4-1/png/pngwutil.c **** #endif
1523:fltk-1.3.4-1/png/pngwutil.c ****       {
1524:fltk-1.3.4-1/png/pngwutil.c ****          png_warning(png_ptr,
1525:fltk-1.3.4-1/png/pngwutil.c ****              "Ignoring attempt to write 16-bit bKGD chunk when bit_depth is 8");
1526:fltk-1.3.4-1/png/pngwutil.c **** 
1527:fltk-1.3.4-1/png/pngwutil.c ****          return;
1528:fltk-1.3.4-1/png/pngwutil.c ****       }
1529:fltk-1.3.4-1/png/pngwutil.c **** 
1530:fltk-1.3.4-1/png/pngwutil.c ****       png_write_complete_chunk(png_ptr, png_bKGD, buf, (png_size_t)6);
1531:fltk-1.3.4-1/png/pngwutil.c ****    }
1532:fltk-1.3.4-1/png/pngwutil.c **** 
1533:fltk-1.3.4-1/png/pngwutil.c ****    else
1534:fltk-1.3.4-1/png/pngwutil.c ****    {
1535:fltk-1.3.4-1/png/pngwutil.c ****       if (back->gray >= (1 << png_ptr->bit_depth))
1536:fltk-1.3.4-1/png/pngwutil.c ****       {
1537:fltk-1.3.4-1/png/pngwutil.c ****          png_warning(png_ptr,
1538:fltk-1.3.4-1/png/pngwutil.c ****              "Ignoring attempt to write bKGD chunk out-of-range for bit_depth");
1539:fltk-1.3.4-1/png/pngwutil.c **** 
1540:fltk-1.3.4-1/png/pngwutil.c ****          return;
1541:fltk-1.3.4-1/png/pngwutil.c ****       }
1542:fltk-1.3.4-1/png/pngwutil.c **** 
1543:fltk-1.3.4-1/png/pngwutil.c ****       png_save_uint_16(buf, back->gray);
1544:fltk-1.3.4-1/png/pngwutil.c ****       png_write_complete_chunk(png_ptr, png_bKGD, buf, (png_size_t)2);
1545:fltk-1.3.4-1/png/pngwutil.c ****    }
1546:fltk-1.3.4-1/png/pngwutil.c **** }
1547:fltk-1.3.4-1/png/pngwutil.c **** #endif
1548:fltk-1.3.4-1/png/pngwutil.c **** 
1549:fltk-1.3.4-1/png/pngwutil.c **** #ifdef PNG_WRITE_hIST_SUPPORTED
1550:fltk-1.3.4-1/png/pngwutil.c **** /* Write the histogram */
1551:fltk-1.3.4-1/png/pngwutil.c **** void /* PRIVATE */
1552:fltk-1.3.4-1/png/pngwutil.c **** png_write_hIST(png_structrp png_ptr, png_const_uint_16p hist, int num_hist)
1553:fltk-1.3.4-1/png/pngwutil.c **** {
1554:fltk-1.3.4-1/png/pngwutil.c ****    int i;
1555:fltk-1.3.4-1/png/pngwutil.c ****    png_byte buf[3];
1556:fltk-1.3.4-1/png/pngwutil.c **** 
1557:fltk-1.3.4-1/png/pngwutil.c ****    png_debug(1, "in png_write_hIST");
1558:fltk-1.3.4-1/png/pngwutil.c **** 
1559:fltk-1.3.4-1/png/pngwutil.c ****    if (num_hist > (int)png_ptr->num_palette)
1560:fltk-1.3.4-1/png/pngwutil.c ****    {
1561:fltk-1.3.4-1/png/pngwutil.c ****       png_debug2(3, "num_hist = %d, num_palette = %d", num_hist,
1562:fltk-1.3.4-1/png/pngwutil.c ****           png_ptr->num_palette);
1563:fltk-1.3.4-1/png/pngwutil.c **** 
1564:fltk-1.3.4-1/png/pngwutil.c ****       png_warning(png_ptr, "Invalid number of histogram entries specified");
1565:fltk-1.3.4-1/png/pngwutil.c ****       return;
1566:fltk-1.3.4-1/png/pngwutil.c ****    }
1567:fltk-1.3.4-1/png/pngwutil.c **** 
1568:fltk-1.3.4-1/png/pngwutil.c ****    png_write_chunk_header(png_ptr, png_hIST, (png_uint_32)(num_hist * 2));
1569:fltk-1.3.4-1/png/pngwutil.c **** 
1570:fltk-1.3.4-1/png/pngwutil.c ****    for (i = 0; i < num_hist; i++)
1571:fltk-1.3.4-1/png/pngwutil.c ****    {
1572:fltk-1.3.4-1/png/pngwutil.c ****       png_save_uint_16(buf, hist[i]);
1573:fltk-1.3.4-1/png/pngwutil.c ****       png_write_chunk_data(png_ptr, buf, (png_size_t)2);
1574:fltk-1.3.4-1/png/pngwutil.c ****    }
1575:fltk-1.3.4-1/png/pngwutil.c **** 
1576:fltk-1.3.4-1/png/pngwutil.c ****    png_write_chunk_end(png_ptr);
1577:fltk-1.3.4-1/png/pngwutil.c **** }
1578:fltk-1.3.4-1/png/pngwutil.c **** #endif
1579:fltk-1.3.4-1/png/pngwutil.c **** 
1580:fltk-1.3.4-1/png/pngwutil.c **** #ifdef PNG_WRITE_tEXt_SUPPORTED
1581:fltk-1.3.4-1/png/pngwutil.c **** /* Write a tEXt chunk */
1582:fltk-1.3.4-1/png/pngwutil.c **** void /* PRIVATE */
1583:fltk-1.3.4-1/png/pngwutil.c **** png_write_tEXt(png_structrp png_ptr, png_const_charp key, png_const_charp text,
1584:fltk-1.3.4-1/png/pngwutil.c ****     png_size_t text_len)
1585:fltk-1.3.4-1/png/pngwutil.c **** {
1586:fltk-1.3.4-1/png/pngwutil.c ****    png_uint_32 key_len;
1587:fltk-1.3.4-1/png/pngwutil.c ****    png_byte new_key[80];
1588:fltk-1.3.4-1/png/pngwutil.c **** 
1589:fltk-1.3.4-1/png/pngwutil.c ****    png_debug(1, "in png_write_tEXt");
1590:fltk-1.3.4-1/png/pngwutil.c **** 
1591:fltk-1.3.4-1/png/pngwutil.c ****    key_len = png_check_keyword(png_ptr, key, new_key);
1592:fltk-1.3.4-1/png/pngwutil.c **** 
1593:fltk-1.3.4-1/png/pngwutil.c ****    if (key_len == 0)
1594:fltk-1.3.4-1/png/pngwutil.c ****       png_error(png_ptr, "tEXt: invalid keyword");
1595:fltk-1.3.4-1/png/pngwutil.c **** 
1596:fltk-1.3.4-1/png/pngwutil.c ****    if (text == NULL || *text == '\0')
1597:fltk-1.3.4-1/png/pngwutil.c ****       text_len = 0;
1598:fltk-1.3.4-1/png/pngwutil.c **** 
1599:fltk-1.3.4-1/png/pngwutil.c ****    else
1600:fltk-1.3.4-1/png/pngwutil.c ****       text_len = strlen(text);
1601:fltk-1.3.4-1/png/pngwutil.c **** 
1602:fltk-1.3.4-1/png/pngwutil.c ****    if (text_len > PNG_UINT_31_MAX - (key_len+1))
1603:fltk-1.3.4-1/png/pngwutil.c ****       png_error(png_ptr, "tEXt: text too long");
1604:fltk-1.3.4-1/png/pngwutil.c **** 
1605:fltk-1.3.4-1/png/pngwutil.c ****    /* Make sure we include the 0 after the key */
1606:fltk-1.3.4-1/png/pngwutil.c ****    png_write_chunk_header(png_ptr, png_tEXt,
1607:fltk-1.3.4-1/png/pngwutil.c ****        (png_uint_32)/*checked above*/(key_len + text_len + 1));
1608:fltk-1.3.4-1/png/pngwutil.c ****    /*
1609:fltk-1.3.4-1/png/pngwutil.c ****     * We leave it to the application to meet PNG-1.0 requirements on the
1610:fltk-1.3.4-1/png/pngwutil.c ****     * contents of the text.  PNG-1.0 through PNG-1.2 discourage the use of
1611:fltk-1.3.4-1/png/pngwutil.c ****     * any non-Latin-1 characters except for NEWLINE.  ISO PNG will forbid them.
1612:fltk-1.3.4-1/png/pngwutil.c ****     * The NUL character is forbidden by PNG-1.0 through PNG-1.2 and ISO PNG.
1613:fltk-1.3.4-1/png/pngwutil.c ****     */
1614:fltk-1.3.4-1/png/pngwutil.c ****    png_write_chunk_data(png_ptr, new_key, key_len + 1);
1615:fltk-1.3.4-1/png/pngwutil.c **** 
1616:fltk-1.3.4-1/png/pngwutil.c ****    if (text_len != 0)
1617:fltk-1.3.4-1/png/pngwutil.c ****       png_write_chunk_data(png_ptr, (png_const_bytep)text, text_len);
1618:fltk-1.3.4-1/png/pngwutil.c **** 
1619:fltk-1.3.4-1/png/pngwutil.c ****    png_write_chunk_end(png_ptr);
1620:fltk-1.3.4-1/png/pngwutil.c **** }
1621:fltk-1.3.4-1/png/pngwutil.c **** #endif
1622:fltk-1.3.4-1/png/pngwutil.c **** 
1623:fltk-1.3.4-1/png/pngwutil.c **** #ifdef PNG_WRITE_zTXt_SUPPORTED
1624:fltk-1.3.4-1/png/pngwutil.c **** /* Write a compressed text chunk */
1625:fltk-1.3.4-1/png/pngwutil.c **** void /* PRIVATE */
1626:fltk-1.3.4-1/png/pngwutil.c **** png_write_zTXt(png_structrp png_ptr, png_const_charp key, png_const_charp text,
1627:fltk-1.3.4-1/png/pngwutil.c ****     int compression)
1628:fltk-1.3.4-1/png/pngwutil.c **** {
1629:fltk-1.3.4-1/png/pngwutil.c ****    png_uint_32 key_len;
1630:fltk-1.3.4-1/png/pngwutil.c ****    png_byte new_key[81];
1631:fltk-1.3.4-1/png/pngwutil.c ****    compression_state comp;
1632:fltk-1.3.4-1/png/pngwutil.c **** 
1633:fltk-1.3.4-1/png/pngwutil.c ****    png_debug(1, "in png_write_zTXt");
1634:fltk-1.3.4-1/png/pngwutil.c **** 
1635:fltk-1.3.4-1/png/pngwutil.c ****    if (compression == PNG_TEXT_COMPRESSION_NONE)
1636:fltk-1.3.4-1/png/pngwutil.c ****    {
1637:fltk-1.3.4-1/png/pngwutil.c ****       png_write_tEXt(png_ptr, key, text, 0);
1638:fltk-1.3.4-1/png/pngwutil.c ****       return;
1639:fltk-1.3.4-1/png/pngwutil.c ****    }
1640:fltk-1.3.4-1/png/pngwutil.c **** 
1641:fltk-1.3.4-1/png/pngwutil.c ****    if (compression != PNG_TEXT_COMPRESSION_zTXt)
1642:fltk-1.3.4-1/png/pngwutil.c ****       png_error(png_ptr, "zTXt: invalid compression type");
1643:fltk-1.3.4-1/png/pngwutil.c **** 
1644:fltk-1.3.4-1/png/pngwutil.c ****    key_len = png_check_keyword(png_ptr, key, new_key);
1645:fltk-1.3.4-1/png/pngwutil.c **** 
1646:fltk-1.3.4-1/png/pngwutil.c ****    if (key_len == 0)
1647:fltk-1.3.4-1/png/pngwutil.c ****       png_error(png_ptr, "zTXt: invalid keyword");
1648:fltk-1.3.4-1/png/pngwutil.c **** 
1649:fltk-1.3.4-1/png/pngwutil.c ****    /* Add the compression method and 1 for the keyword separator. */
1650:fltk-1.3.4-1/png/pngwutil.c ****    new_key[++key_len] = PNG_COMPRESSION_TYPE_BASE;
1651:fltk-1.3.4-1/png/pngwutil.c ****    ++key_len;
1652:fltk-1.3.4-1/png/pngwutil.c **** 
1653:fltk-1.3.4-1/png/pngwutil.c ****    /* Compute the compressed data; do it now for the length */
1654:fltk-1.3.4-1/png/pngwutil.c ****    png_text_compress_init(&comp, (png_const_bytep)text,
1655:fltk-1.3.4-1/png/pngwutil.c ****       text == NULL ? 0 : strlen(text));
1656:fltk-1.3.4-1/png/pngwutil.c **** 
1657:fltk-1.3.4-1/png/pngwutil.c ****    if (png_text_compress(png_ptr, png_zTXt, &comp, key_len) != Z_OK)
1658:fltk-1.3.4-1/png/pngwutil.c ****       png_error(png_ptr, png_ptr->zstream.msg);
1659:fltk-1.3.4-1/png/pngwutil.c **** 
1660:fltk-1.3.4-1/png/pngwutil.c ****    /* Write start of chunk */
1661:fltk-1.3.4-1/png/pngwutil.c ****    png_write_chunk_header(png_ptr, png_zTXt, key_len + comp.output_len);
1662:fltk-1.3.4-1/png/pngwutil.c **** 
1663:fltk-1.3.4-1/png/pngwutil.c ****    /* Write key */
1664:fltk-1.3.4-1/png/pngwutil.c ****    png_write_chunk_data(png_ptr, new_key, key_len);
1665:fltk-1.3.4-1/png/pngwutil.c **** 
1666:fltk-1.3.4-1/png/pngwutil.c ****    /* Write the compressed data */
1667:fltk-1.3.4-1/png/pngwutil.c ****    png_write_compressed_data_out(png_ptr, &comp);
1668:fltk-1.3.4-1/png/pngwutil.c **** 
1669:fltk-1.3.4-1/png/pngwutil.c ****    /* Close the chunk */
1670:fltk-1.3.4-1/png/pngwutil.c ****    png_write_chunk_end(png_ptr);
1671:fltk-1.3.4-1/png/pngwutil.c **** }
1672:fltk-1.3.4-1/png/pngwutil.c **** #endif
1673:fltk-1.3.4-1/png/pngwutil.c **** 
1674:fltk-1.3.4-1/png/pngwutil.c **** #ifdef PNG_WRITE_iTXt_SUPPORTED
1675:fltk-1.3.4-1/png/pngwutil.c **** /* Write an iTXt chunk */
1676:fltk-1.3.4-1/png/pngwutil.c **** void /* PRIVATE */
1677:fltk-1.3.4-1/png/pngwutil.c **** png_write_iTXt(png_structrp png_ptr, int compression, png_const_charp key,
1678:fltk-1.3.4-1/png/pngwutil.c ****     png_const_charp lang, png_const_charp lang_key, png_const_charp text)
1679:fltk-1.3.4-1/png/pngwutil.c **** {
1680:fltk-1.3.4-1/png/pngwutil.c ****    png_uint_32 key_len, prefix_len;
1681:fltk-1.3.4-1/png/pngwutil.c ****    png_size_t lang_len, lang_key_len;
1682:fltk-1.3.4-1/png/pngwutil.c ****    png_byte new_key[82];
1683:fltk-1.3.4-1/png/pngwutil.c ****    compression_state comp;
1684:fltk-1.3.4-1/png/pngwutil.c **** 
1685:fltk-1.3.4-1/png/pngwutil.c ****    png_debug(1, "in png_write_iTXt");
1686:fltk-1.3.4-1/png/pngwutil.c **** 
1687:fltk-1.3.4-1/png/pngwutil.c ****    key_len = png_check_keyword(png_ptr, key, new_key);
1688:fltk-1.3.4-1/png/pngwutil.c **** 
1689:fltk-1.3.4-1/png/pngwutil.c ****    if (key_len == 0)
1690:fltk-1.3.4-1/png/pngwutil.c ****       png_error(png_ptr, "iTXt: invalid keyword");
1691:fltk-1.3.4-1/png/pngwutil.c **** 
1692:fltk-1.3.4-1/png/pngwutil.c ****    /* Set the compression flag */
1693:fltk-1.3.4-1/png/pngwutil.c ****    switch (compression)
1694:fltk-1.3.4-1/png/pngwutil.c ****    {
1695:fltk-1.3.4-1/png/pngwutil.c ****       case PNG_ITXT_COMPRESSION_NONE:
1696:fltk-1.3.4-1/png/pngwutil.c ****       case PNG_TEXT_COMPRESSION_NONE:
1697:fltk-1.3.4-1/png/pngwutil.c ****          compression = new_key[++key_len] = 0; /* no compression */
1698:fltk-1.3.4-1/png/pngwutil.c ****          break;
1699:fltk-1.3.4-1/png/pngwutil.c **** 
1700:fltk-1.3.4-1/png/pngwutil.c ****       case PNG_TEXT_COMPRESSION_zTXt:
1701:fltk-1.3.4-1/png/pngwutil.c ****       case PNG_ITXT_COMPRESSION_zTXt:
1702:fltk-1.3.4-1/png/pngwutil.c ****          compression = new_key[++key_len] = 1; /* compressed */
1703:fltk-1.3.4-1/png/pngwutil.c ****          break;
1704:fltk-1.3.4-1/png/pngwutil.c **** 
1705:fltk-1.3.4-1/png/pngwutil.c ****       default:
1706:fltk-1.3.4-1/png/pngwutil.c ****          png_error(png_ptr, "iTXt: invalid compression");
1707:fltk-1.3.4-1/png/pngwutil.c ****    }
1708:fltk-1.3.4-1/png/pngwutil.c **** 
1709:fltk-1.3.4-1/png/pngwutil.c ****    new_key[++key_len] = PNG_COMPRESSION_TYPE_BASE;
1710:fltk-1.3.4-1/png/pngwutil.c ****    ++key_len; /* for the keywod separator */
1711:fltk-1.3.4-1/png/pngwutil.c **** 
1712:fltk-1.3.4-1/png/pngwutil.c ****    /* We leave it to the application to meet PNG-1.0 requirements on the
1713:fltk-1.3.4-1/png/pngwutil.c ****     * contents of the text.  PNG-1.0 through PNG-1.2 discourage the use of
1714:fltk-1.3.4-1/png/pngwutil.c ****     * any non-Latin-1 characters except for NEWLINE.  ISO PNG, however,
1715:fltk-1.3.4-1/png/pngwutil.c ****     * specifies that the text is UTF-8 and this really doesn't require any
1716:fltk-1.3.4-1/png/pngwutil.c ****     * checking.
1717:fltk-1.3.4-1/png/pngwutil.c ****     *
1718:fltk-1.3.4-1/png/pngwutil.c ****     * The NUL character is forbidden by PNG-1.0 through PNG-1.2 and ISO PNG.
1719:fltk-1.3.4-1/png/pngwutil.c ****     *
1720:fltk-1.3.4-1/png/pngwutil.c ****     * TODO: validate the language tag correctly (see the spec.)
1721:fltk-1.3.4-1/png/pngwutil.c ****     */
1722:fltk-1.3.4-1/png/pngwutil.c ****    if (lang == NULL) lang = ""; /* empty language is valid */
1723:fltk-1.3.4-1/png/pngwutil.c ****    lang_len = strlen(lang)+1;
1724:fltk-1.3.4-1/png/pngwutil.c ****    if (lang_key == NULL) lang_key = ""; /* may be empty */
1725:fltk-1.3.4-1/png/pngwutil.c ****    lang_key_len = strlen(lang_key)+1;
1726:fltk-1.3.4-1/png/pngwutil.c ****    if (text == NULL) text = ""; /* may be empty */
1727:fltk-1.3.4-1/png/pngwutil.c **** 
1728:fltk-1.3.4-1/png/pngwutil.c ****    prefix_len = key_len;
1729:fltk-1.3.4-1/png/pngwutil.c ****    if (lang_len > PNG_UINT_31_MAX-prefix_len)
1730:fltk-1.3.4-1/png/pngwutil.c ****       prefix_len = PNG_UINT_31_MAX;
1731:fltk-1.3.4-1/png/pngwutil.c ****    else
1732:fltk-1.3.4-1/png/pngwutil.c ****       prefix_len = (png_uint_32)(prefix_len + lang_len);
1733:fltk-1.3.4-1/png/pngwutil.c **** 
1734:fltk-1.3.4-1/png/pngwutil.c ****    if (lang_key_len > PNG_UINT_31_MAX-prefix_len)
1735:fltk-1.3.4-1/png/pngwutil.c ****       prefix_len = PNG_UINT_31_MAX;
1736:fltk-1.3.4-1/png/pngwutil.c ****    else
1737:fltk-1.3.4-1/png/pngwutil.c ****       prefix_len = (png_uint_32)(prefix_len + lang_key_len);
1738:fltk-1.3.4-1/png/pngwutil.c **** 
1739:fltk-1.3.4-1/png/pngwutil.c ****    png_text_compress_init(&comp, (png_const_bytep)text, strlen(text));
1740:fltk-1.3.4-1/png/pngwutil.c **** 
1741:fltk-1.3.4-1/png/pngwutil.c ****    if (compression != 0)
1742:fltk-1.3.4-1/png/pngwutil.c ****    {
1743:fltk-1.3.4-1/png/pngwutil.c ****       if (png_text_compress(png_ptr, png_iTXt, &comp, prefix_len) != Z_OK)
1744:fltk-1.3.4-1/png/pngwutil.c ****          png_error(png_ptr, png_ptr->zstream.msg);
1745:fltk-1.3.4-1/png/pngwutil.c ****    }
1746:fltk-1.3.4-1/png/pngwutil.c **** 
1747:fltk-1.3.4-1/png/pngwutil.c ****    else
1748:fltk-1.3.4-1/png/pngwutil.c ****    {
1749:fltk-1.3.4-1/png/pngwutil.c ****       if (comp.input_len > PNG_UINT_31_MAX-prefix_len)
1750:fltk-1.3.4-1/png/pngwutil.c ****          png_error(png_ptr, "iTXt: uncompressed text too long");
1751:fltk-1.3.4-1/png/pngwutil.c **** 
1752:fltk-1.3.4-1/png/pngwutil.c ****       /* So the string will fit in a chunk: */
1753:fltk-1.3.4-1/png/pngwutil.c ****       comp.output_len = (png_uint_32)/*SAFE*/comp.input_len;
1754:fltk-1.3.4-1/png/pngwutil.c ****    }
1755:fltk-1.3.4-1/png/pngwutil.c **** 
1756:fltk-1.3.4-1/png/pngwutil.c ****    png_write_chunk_header(png_ptr, png_iTXt, comp.output_len + prefix_len);
1757:fltk-1.3.4-1/png/pngwutil.c **** 
1758:fltk-1.3.4-1/png/pngwutil.c ****    png_write_chunk_data(png_ptr, new_key, key_len);
1759:fltk-1.3.4-1/png/pngwutil.c **** 
1760:fltk-1.3.4-1/png/pngwutil.c ****    png_write_chunk_data(png_ptr, (png_const_bytep)lang, lang_len);
1761:fltk-1.3.4-1/png/pngwutil.c **** 
1762:fltk-1.3.4-1/png/pngwutil.c ****    png_write_chunk_data(png_ptr, (png_const_bytep)lang_key, lang_key_len);
1763:fltk-1.3.4-1/png/pngwutil.c **** 
1764:fltk-1.3.4-1/png/pngwutil.c ****    if (compression != 0)
1765:fltk-1.3.4-1/png/pngwutil.c ****       png_write_compressed_data_out(png_ptr, &comp);
1766:fltk-1.3.4-1/png/pngwutil.c **** 
1767:fltk-1.3.4-1/png/pngwutil.c ****    else
1768:fltk-1.3.4-1/png/pngwutil.c ****       png_write_chunk_data(png_ptr, (png_const_bytep)text, comp.input_len);
1769:fltk-1.3.4-1/png/pngwutil.c **** 
1770:fltk-1.3.4-1/png/pngwutil.c ****    png_write_chunk_end(png_ptr);
1771:fltk-1.3.4-1/png/pngwutil.c **** }
1772:fltk-1.3.4-1/png/pngwutil.c **** #endif
1773:fltk-1.3.4-1/png/pngwutil.c **** 
1774:fltk-1.3.4-1/png/pngwutil.c **** #ifdef PNG_WRITE_oFFs_SUPPORTED
1775:fltk-1.3.4-1/png/pngwutil.c **** /* Write the oFFs chunk */
1776:fltk-1.3.4-1/png/pngwutil.c **** void /* PRIVATE */
1777:fltk-1.3.4-1/png/pngwutil.c **** png_write_oFFs(png_structrp png_ptr, png_int_32 x_offset, png_int_32 y_offset,
1778:fltk-1.3.4-1/png/pngwutil.c ****     int unit_type)
1779:fltk-1.3.4-1/png/pngwutil.c **** {
1780:fltk-1.3.4-1/png/pngwutil.c ****    png_byte buf[9];
1781:fltk-1.3.4-1/png/pngwutil.c **** 
1782:fltk-1.3.4-1/png/pngwutil.c ****    png_debug(1, "in png_write_oFFs");
1783:fltk-1.3.4-1/png/pngwutil.c **** 
1784:fltk-1.3.4-1/png/pngwutil.c ****    if (unit_type >= PNG_OFFSET_LAST)
1785:fltk-1.3.4-1/png/pngwutil.c ****       png_warning(png_ptr, "Unrecognized unit type for oFFs chunk");
1786:fltk-1.3.4-1/png/pngwutil.c **** 
1787:fltk-1.3.4-1/png/pngwutil.c ****    png_save_int_32(buf, x_offset);
1788:fltk-1.3.4-1/png/pngwutil.c ****    png_save_int_32(buf + 4, y_offset);
1789:fltk-1.3.4-1/png/pngwutil.c ****    buf[8] = (png_byte)unit_type;
1790:fltk-1.3.4-1/png/pngwutil.c **** 
1791:fltk-1.3.4-1/png/pngwutil.c ****    png_write_complete_chunk(png_ptr, png_oFFs, buf, (png_size_t)9);
1792:fltk-1.3.4-1/png/pngwutil.c **** }
1793:fltk-1.3.4-1/png/pngwutil.c **** #endif
1794:fltk-1.3.4-1/png/pngwutil.c **** #ifdef PNG_WRITE_pCAL_SUPPORTED
1795:fltk-1.3.4-1/png/pngwutil.c **** /* Write the pCAL chunk (described in the PNG extensions document) */
1796:fltk-1.3.4-1/png/pngwutil.c **** void /* PRIVATE */
1797:fltk-1.3.4-1/png/pngwutil.c **** png_write_pCAL(png_structrp png_ptr, png_charp purpose, png_int_32 X0,
1798:fltk-1.3.4-1/png/pngwutil.c ****     png_int_32 X1, int type, int nparams, png_const_charp units,
1799:fltk-1.3.4-1/png/pngwutil.c ****     png_charpp params)
1800:fltk-1.3.4-1/png/pngwutil.c **** {
1801:fltk-1.3.4-1/png/pngwutil.c ****    png_uint_32 purpose_len;
1802:fltk-1.3.4-1/png/pngwutil.c ****    png_size_t units_len, total_len;
1803:fltk-1.3.4-1/png/pngwutil.c ****    png_size_tp params_len;
1804:fltk-1.3.4-1/png/pngwutil.c ****    png_byte buf[10];
1805:fltk-1.3.4-1/png/pngwutil.c ****    png_byte new_purpose[80];
1806:fltk-1.3.4-1/png/pngwutil.c ****    int i;
1807:fltk-1.3.4-1/png/pngwutil.c **** 
1808:fltk-1.3.4-1/png/pngwutil.c ****    png_debug1(1, "in png_write_pCAL (%d parameters)", nparams);
1809:fltk-1.3.4-1/png/pngwutil.c **** 
1810:fltk-1.3.4-1/png/pngwutil.c ****    if (type >= PNG_EQUATION_LAST)
1811:fltk-1.3.4-1/png/pngwutil.c ****       png_error(png_ptr, "Unrecognized equation type for pCAL chunk");
1812:fltk-1.3.4-1/png/pngwutil.c **** 
1813:fltk-1.3.4-1/png/pngwutil.c ****    purpose_len = png_check_keyword(png_ptr, purpose, new_purpose);
1814:fltk-1.3.4-1/png/pngwutil.c **** 
1815:fltk-1.3.4-1/png/pngwutil.c ****    if (purpose_len == 0)
1816:fltk-1.3.4-1/png/pngwutil.c ****       png_error(png_ptr, "pCAL: invalid keyword");
1817:fltk-1.3.4-1/png/pngwutil.c **** 
1818:fltk-1.3.4-1/png/pngwutil.c ****    ++purpose_len; /* terminator */
1819:fltk-1.3.4-1/png/pngwutil.c **** 
1820:fltk-1.3.4-1/png/pngwutil.c ****    png_debug1(3, "pCAL purpose length = %d", (int)purpose_len);
1821:fltk-1.3.4-1/png/pngwutil.c ****    units_len = strlen(units) + (nparams == 0 ? 0 : 1);
1822:fltk-1.3.4-1/png/pngwutil.c ****    png_debug1(3, "pCAL units length = %d", (int)units_len);
1823:fltk-1.3.4-1/png/pngwutil.c ****    total_len = purpose_len + units_len + 10;
1824:fltk-1.3.4-1/png/pngwutil.c **** 
1825:fltk-1.3.4-1/png/pngwutil.c ****    params_len = (png_size_tp)png_malloc(png_ptr,
1826:fltk-1.3.4-1/png/pngwutil.c ****        (png_alloc_size_t)(nparams * (sizeof (png_size_t))));
1827:fltk-1.3.4-1/png/pngwutil.c **** 
1828:fltk-1.3.4-1/png/pngwutil.c ****    /* Find the length of each parameter, making sure we don't count the
1829:fltk-1.3.4-1/png/pngwutil.c ****     * null terminator for the last parameter.
1830:fltk-1.3.4-1/png/pngwutil.c ****     */
1831:fltk-1.3.4-1/png/pngwutil.c ****    for (i = 0; i < nparams; i++)
1832:fltk-1.3.4-1/png/pngwutil.c ****    {
1833:fltk-1.3.4-1/png/pngwutil.c ****       params_len[i] = strlen(params[i]) + (i == nparams - 1 ? 0 : 1);
1834:fltk-1.3.4-1/png/pngwutil.c ****       png_debug2(3, "pCAL parameter %d length = %lu", i,
1835:fltk-1.3.4-1/png/pngwutil.c ****           (unsigned long)params_len[i]);
1836:fltk-1.3.4-1/png/pngwutil.c ****       total_len += params_len[i];
1837:fltk-1.3.4-1/png/pngwutil.c ****    }
1838:fltk-1.3.4-1/png/pngwutil.c **** 
1839:fltk-1.3.4-1/png/pngwutil.c ****    png_debug1(3, "pCAL total length = %d", (int)total_len);
1840:fltk-1.3.4-1/png/pngwutil.c ****    png_write_chunk_header(png_ptr, png_pCAL, (png_uint_32)total_len);
1841:fltk-1.3.4-1/png/pngwutil.c ****    png_write_chunk_data(png_ptr, new_purpose, purpose_len);
1842:fltk-1.3.4-1/png/pngwutil.c ****    png_save_int_32(buf, X0);
1843:fltk-1.3.4-1/png/pngwutil.c ****    png_save_int_32(buf + 4, X1);
1844:fltk-1.3.4-1/png/pngwutil.c ****    buf[8] = (png_byte)type;
1845:fltk-1.3.4-1/png/pngwutil.c ****    buf[9] = (png_byte)nparams;
1846:fltk-1.3.4-1/png/pngwutil.c ****    png_write_chunk_data(png_ptr, buf, (png_size_t)10);
1847:fltk-1.3.4-1/png/pngwutil.c ****    png_write_chunk_data(png_ptr, (png_const_bytep)units, (png_size_t)units_len);
1848:fltk-1.3.4-1/png/pngwutil.c **** 
1849:fltk-1.3.4-1/png/pngwutil.c ****    for (i = 0; i < nparams; i++)
1850:fltk-1.3.4-1/png/pngwutil.c ****    {
1851:fltk-1.3.4-1/png/pngwutil.c ****       png_write_chunk_data(png_ptr, (png_const_bytep)params[i], params_len[i]);
1852:fltk-1.3.4-1/png/pngwutil.c ****    }
1853:fltk-1.3.4-1/png/pngwutil.c **** 
1854:fltk-1.3.4-1/png/pngwutil.c ****    png_free(png_ptr, params_len);
1855:fltk-1.3.4-1/png/pngwutil.c ****    png_write_chunk_end(png_ptr);
1856:fltk-1.3.4-1/png/pngwutil.c **** }
1857:fltk-1.3.4-1/png/pngwutil.c **** #endif
1858:fltk-1.3.4-1/png/pngwutil.c **** 
1859:fltk-1.3.4-1/png/pngwutil.c **** #ifdef PNG_WRITE_sCAL_SUPPORTED
1860:fltk-1.3.4-1/png/pngwutil.c **** /* Write the sCAL chunk */
1861:fltk-1.3.4-1/png/pngwutil.c **** void /* PRIVATE */
1862:fltk-1.3.4-1/png/pngwutil.c **** png_write_sCAL_s(png_structrp png_ptr, int unit, png_const_charp width,
1863:fltk-1.3.4-1/png/pngwutil.c ****     png_const_charp height)
1864:fltk-1.3.4-1/png/pngwutil.c **** {
1865:fltk-1.3.4-1/png/pngwutil.c ****    png_byte buf[64];
1866:fltk-1.3.4-1/png/pngwutil.c ****    png_size_t wlen, hlen, total_len;
1867:fltk-1.3.4-1/png/pngwutil.c **** 
1868:fltk-1.3.4-1/png/pngwutil.c ****    png_debug(1, "in png_write_sCAL_s");
1869:fltk-1.3.4-1/png/pngwutil.c **** 
1870:fltk-1.3.4-1/png/pngwutil.c ****    wlen = strlen(width);
1871:fltk-1.3.4-1/png/pngwutil.c ****    hlen = strlen(height);
1872:fltk-1.3.4-1/png/pngwutil.c ****    total_len = wlen + hlen + 2;
1873:fltk-1.3.4-1/png/pngwutil.c **** 
1874:fltk-1.3.4-1/png/pngwutil.c ****    if (total_len > 64)
1875:fltk-1.3.4-1/png/pngwutil.c ****    {
1876:fltk-1.3.4-1/png/pngwutil.c ****       png_warning(png_ptr, "Can't write sCAL (buffer too small)");
1877:fltk-1.3.4-1/png/pngwutil.c ****       return;
1878:fltk-1.3.4-1/png/pngwutil.c ****    }
1879:fltk-1.3.4-1/png/pngwutil.c **** 
1880:fltk-1.3.4-1/png/pngwutil.c ****    buf[0] = (png_byte)unit;
1881:fltk-1.3.4-1/png/pngwutil.c ****    memcpy(buf + 1, width, wlen + 1);      /* Append the '\0' here */
1882:fltk-1.3.4-1/png/pngwutil.c ****    memcpy(buf + wlen + 2, height, hlen);  /* Do NOT append the '\0' here */
1883:fltk-1.3.4-1/png/pngwutil.c **** 
1884:fltk-1.3.4-1/png/pngwutil.c ****    png_debug1(3, "sCAL total length = %u", (unsigned int)total_len);
1885:fltk-1.3.4-1/png/pngwutil.c ****    png_write_complete_chunk(png_ptr, png_sCAL, buf, total_len);
1886:fltk-1.3.4-1/png/pngwutil.c **** }
1887:fltk-1.3.4-1/png/pngwutil.c **** #endif
1888:fltk-1.3.4-1/png/pngwutil.c **** 
1889:fltk-1.3.4-1/png/pngwutil.c **** #ifdef PNG_WRITE_pHYs_SUPPORTED
1890:fltk-1.3.4-1/png/pngwutil.c **** /* Write the pHYs chunk */
1891:fltk-1.3.4-1/png/pngwutil.c **** void /* PRIVATE */
1892:fltk-1.3.4-1/png/pngwutil.c **** png_write_pHYs(png_structrp png_ptr, png_uint_32 x_pixels_per_unit,
1893:fltk-1.3.4-1/png/pngwutil.c ****     png_uint_32 y_pixels_per_unit,
1894:fltk-1.3.4-1/png/pngwutil.c ****     int unit_type)
1895:fltk-1.3.4-1/png/pngwutil.c **** {
1896:fltk-1.3.4-1/png/pngwutil.c ****    png_byte buf[9];
1897:fltk-1.3.4-1/png/pngwutil.c **** 
1898:fltk-1.3.4-1/png/pngwutil.c ****    png_debug(1, "in png_write_pHYs");
1899:fltk-1.3.4-1/png/pngwutil.c **** 
1900:fltk-1.3.4-1/png/pngwutil.c ****    if (unit_type >= PNG_RESOLUTION_LAST)
1901:fltk-1.3.4-1/png/pngwutil.c ****       png_warning(png_ptr, "Unrecognized unit type for pHYs chunk");
1902:fltk-1.3.4-1/png/pngwutil.c **** 
1903:fltk-1.3.4-1/png/pngwutil.c ****    png_save_uint_32(buf, x_pixels_per_unit);
1904:fltk-1.3.4-1/png/pngwutil.c ****    png_save_uint_32(buf + 4, y_pixels_per_unit);
1905:fltk-1.3.4-1/png/pngwutil.c ****    buf[8] = (png_byte)unit_type;
1906:fltk-1.3.4-1/png/pngwutil.c **** 
1907:fltk-1.3.4-1/png/pngwutil.c ****    png_write_complete_chunk(png_ptr, png_pHYs, buf, (png_size_t)9);
1908:fltk-1.3.4-1/png/pngwutil.c **** }
1909:fltk-1.3.4-1/png/pngwutil.c **** #endif
1910:fltk-1.3.4-1/png/pngwutil.c **** 
1911:fltk-1.3.4-1/png/pngwutil.c **** #ifdef PNG_WRITE_tIME_SUPPORTED
1912:fltk-1.3.4-1/png/pngwutil.c **** /* Write the tIME chunk.  Use either png_convert_from_struct_tm()
1913:fltk-1.3.4-1/png/pngwutil.c ****  * or png_convert_from_time_t(), or fill in the structure yourself.
1914:fltk-1.3.4-1/png/pngwutil.c ****  */
1915:fltk-1.3.4-1/png/pngwutil.c **** void /* PRIVATE */
1916:fltk-1.3.4-1/png/pngwutil.c **** png_write_tIME(png_structrp png_ptr, png_const_timep mod_time)
1917:fltk-1.3.4-1/png/pngwutil.c **** {
1918:fltk-1.3.4-1/png/pngwutil.c ****    png_byte buf[7];
1919:fltk-1.3.4-1/png/pngwutil.c **** 
1920:fltk-1.3.4-1/png/pngwutil.c ****    png_debug(1, "in png_write_tIME");
1921:fltk-1.3.4-1/png/pngwutil.c **** 
1922:fltk-1.3.4-1/png/pngwutil.c ****    if (mod_time->month  > 12 || mod_time->month  < 1 ||
1923:fltk-1.3.4-1/png/pngwutil.c ****        mod_time->day    > 31 || mod_time->day    < 1 ||
1924:fltk-1.3.4-1/png/pngwutil.c ****        mod_time->hour   > 23 || mod_time->second > 60)
1925:fltk-1.3.4-1/png/pngwutil.c ****    {
1926:fltk-1.3.4-1/png/pngwutil.c ****       png_warning(png_ptr, "Invalid time specified for tIME chunk");
1927:fltk-1.3.4-1/png/pngwutil.c ****       return;
1928:fltk-1.3.4-1/png/pngwutil.c ****    }
1929:fltk-1.3.4-1/png/pngwutil.c **** 
1930:fltk-1.3.4-1/png/pngwutil.c ****    png_save_uint_16(buf, mod_time->year);
1931:fltk-1.3.4-1/png/pngwutil.c ****    buf[2] = mod_time->month;
1932:fltk-1.3.4-1/png/pngwutil.c ****    buf[3] = mod_time->day;
1933:fltk-1.3.4-1/png/pngwutil.c ****    buf[4] = mod_time->hour;
1934:fltk-1.3.4-1/png/pngwutil.c ****    buf[5] = mod_time->minute;
1935:fltk-1.3.4-1/png/pngwutil.c ****    buf[6] = mod_time->second;
1936:fltk-1.3.4-1/png/pngwutil.c **** 
1937:fltk-1.3.4-1/png/pngwutil.c ****    png_write_complete_chunk(png_ptr, png_tIME, buf, (png_size_t)7);
1938:fltk-1.3.4-1/png/pngwutil.c **** }
1939:fltk-1.3.4-1/png/pngwutil.c **** #endif
1940:fltk-1.3.4-1/png/pngwutil.c **** 
1941:fltk-1.3.4-1/png/pngwutil.c **** /* Initializes the row writing capability of libpng */
1942:fltk-1.3.4-1/png/pngwutil.c **** void /* PRIVATE */
1943:fltk-1.3.4-1/png/pngwutil.c **** png_write_start_row(png_structrp png_ptr)
1944:fltk-1.3.4-1/png/pngwutil.c **** {
1945:fltk-1.3.4-1/png/pngwutil.c **** #ifdef PNG_WRITE_INTERLACING_SUPPORTED
1946:fltk-1.3.4-1/png/pngwutil.c ****    /* Arrays to facilitate easy interlacing - use pass (0 - 6) as index */
1947:fltk-1.3.4-1/png/pngwutil.c **** 
1948:fltk-1.3.4-1/png/pngwutil.c ****    /* Start of interlace block */
1949:fltk-1.3.4-1/png/pngwutil.c ****    static PNG_CONST png_byte png_pass_start[7] = {0, 4, 0, 2, 0, 1, 0};
1950:fltk-1.3.4-1/png/pngwutil.c **** 
1951:fltk-1.3.4-1/png/pngwutil.c ****    /* Offset to next interlace block */
1952:fltk-1.3.4-1/png/pngwutil.c ****    static PNG_CONST png_byte png_pass_inc[7] = {8, 8, 4, 4, 2, 2, 1};
1953:fltk-1.3.4-1/png/pngwutil.c **** 
1954:fltk-1.3.4-1/png/pngwutil.c ****    /* Start of interlace block in the y direction */
1955:fltk-1.3.4-1/png/pngwutil.c ****    static PNG_CONST png_byte png_pass_ystart[7] = {0, 0, 4, 0, 2, 0, 1};
1956:fltk-1.3.4-1/png/pngwutil.c **** 
1957:fltk-1.3.4-1/png/pngwutil.c ****    /* Offset to next interlace block in the y direction */
1958:fltk-1.3.4-1/png/pngwutil.c ****    static PNG_CONST png_byte png_pass_yinc[7] = {8, 8, 8, 4, 4, 2, 2};
1959:fltk-1.3.4-1/png/pngwutil.c **** #endif
1960:fltk-1.3.4-1/png/pngwutil.c **** 
1961:fltk-1.3.4-1/png/pngwutil.c ****    png_alloc_size_t buf_size;
1962:fltk-1.3.4-1/png/pngwutil.c ****    int usr_pixel_depth;
1963:fltk-1.3.4-1/png/pngwutil.c **** 
1964:fltk-1.3.4-1/png/pngwutil.c ****    png_debug(1, "in png_write_start_row");
1965:fltk-1.3.4-1/png/pngwutil.c **** 
1966:fltk-1.3.4-1/png/pngwutil.c ****    usr_pixel_depth = png_ptr->usr_channels * png_ptr->usr_bit_depth;
1967:fltk-1.3.4-1/png/pngwutil.c ****    buf_size = PNG_ROWBYTES(usr_pixel_depth, png_ptr->width) + 1;
1968:fltk-1.3.4-1/png/pngwutil.c **** 
1969:fltk-1.3.4-1/png/pngwutil.c ****    /* 1.5.6: added to allow checking in the row write code. */
1970:fltk-1.3.4-1/png/pngwutil.c ****    png_ptr->transformed_pixel_depth = png_ptr->pixel_depth;
1971:fltk-1.3.4-1/png/pngwutil.c ****    png_ptr->maximum_pixel_depth = (png_byte)usr_pixel_depth;
1972:fltk-1.3.4-1/png/pngwutil.c **** 
1973:fltk-1.3.4-1/png/pngwutil.c ****    /* Set up row buffer */
1974:fltk-1.3.4-1/png/pngwutil.c ****    png_ptr->row_buf = (png_bytep)png_malloc(png_ptr, buf_size);
1975:fltk-1.3.4-1/png/pngwutil.c **** 
1976:fltk-1.3.4-1/png/pngwutil.c ****    png_ptr->row_buf[0] = PNG_FILTER_VALUE_NONE;
1977:fltk-1.3.4-1/png/pngwutil.c **** 
1978:fltk-1.3.4-1/png/pngwutil.c **** #ifdef PNG_WRITE_FILTER_SUPPORTED
1979:fltk-1.3.4-1/png/pngwutil.c ****    /* Set up filtering buffer, if using this filter */
1980:fltk-1.3.4-1/png/pngwutil.c ****    if (png_ptr->do_filter & PNG_FILTER_SUB)
1981:fltk-1.3.4-1/png/pngwutil.c ****    {
1982:fltk-1.3.4-1/png/pngwutil.c ****       png_ptr->sub_row = (png_bytep)png_malloc(png_ptr, png_ptr->rowbytes + 1);
1983:fltk-1.3.4-1/png/pngwutil.c **** 
1984:fltk-1.3.4-1/png/pngwutil.c ****       png_ptr->sub_row[0] = PNG_FILTER_VALUE_SUB;
1985:fltk-1.3.4-1/png/pngwutil.c ****    }
1986:fltk-1.3.4-1/png/pngwutil.c **** 
1987:fltk-1.3.4-1/png/pngwutil.c ****    /* We only need to keep the previous row if we are using one of these. */
1988:fltk-1.3.4-1/png/pngwutil.c ****    if ((png_ptr->do_filter &
1989:fltk-1.3.4-1/png/pngwutil.c ****       (PNG_FILTER_AVG | PNG_FILTER_UP | PNG_FILTER_PAETH)) != 0)
1990:fltk-1.3.4-1/png/pngwutil.c ****    {
1991:fltk-1.3.4-1/png/pngwutil.c ****       /* Set up previous row buffer */
1992:fltk-1.3.4-1/png/pngwutil.c ****       png_ptr->prev_row = (png_bytep)png_calloc(png_ptr, buf_size);
1993:fltk-1.3.4-1/png/pngwutil.c **** 
1994:fltk-1.3.4-1/png/pngwutil.c ****       if ((png_ptr->do_filter & PNG_FILTER_UP) != 0)
1995:fltk-1.3.4-1/png/pngwutil.c ****       {
1996:fltk-1.3.4-1/png/pngwutil.c ****          png_ptr->up_row = (png_bytep)png_malloc(png_ptr,
1997:fltk-1.3.4-1/png/pngwutil.c ****             png_ptr->rowbytes + 1);
1998:fltk-1.3.4-1/png/pngwutil.c **** 
1999:fltk-1.3.4-1/png/pngwutil.c ****          png_ptr->up_row[0] = PNG_FILTER_VALUE_UP;
2000:fltk-1.3.4-1/png/pngwutil.c ****       }
2001:fltk-1.3.4-1/png/pngwutil.c **** 
2002:fltk-1.3.4-1/png/pngwutil.c ****       if ((png_ptr->do_filter & PNG_FILTER_AVG) != 0)
2003:fltk-1.3.4-1/png/pngwutil.c ****       {
2004:fltk-1.3.4-1/png/pngwutil.c ****          png_ptr->avg_row = (png_bytep)png_malloc(png_ptr,
2005:fltk-1.3.4-1/png/pngwutil.c ****              png_ptr->rowbytes + 1);
2006:fltk-1.3.4-1/png/pngwutil.c **** 
2007:fltk-1.3.4-1/png/pngwutil.c ****          png_ptr->avg_row[0] = PNG_FILTER_VALUE_AVG;
2008:fltk-1.3.4-1/png/pngwutil.c ****       }
2009:fltk-1.3.4-1/png/pngwutil.c **** 
2010:fltk-1.3.4-1/png/pngwutil.c ****       if ((png_ptr->do_filter & PNG_FILTER_PAETH) != 0)
2011:fltk-1.3.4-1/png/pngwutil.c ****       {
2012:fltk-1.3.4-1/png/pngwutil.c ****          png_ptr->paeth_row = (png_bytep)png_malloc(png_ptr,
2013:fltk-1.3.4-1/png/pngwutil.c ****              png_ptr->rowbytes + 1);
2014:fltk-1.3.4-1/png/pngwutil.c **** 
2015:fltk-1.3.4-1/png/pngwutil.c ****          png_ptr->paeth_row[0] = PNG_FILTER_VALUE_PAETH;
2016:fltk-1.3.4-1/png/pngwutil.c ****       }
2017:fltk-1.3.4-1/png/pngwutil.c ****    }
2018:fltk-1.3.4-1/png/pngwutil.c **** #endif /* WRITE_FILTER */
2019:fltk-1.3.4-1/png/pngwutil.c **** 
2020:fltk-1.3.4-1/png/pngwutil.c **** #ifdef PNG_WRITE_INTERLACING_SUPPORTED
2021:fltk-1.3.4-1/png/pngwutil.c ****    /* If interlaced, we need to set up width and height of pass */
2022:fltk-1.3.4-1/png/pngwutil.c ****    if (png_ptr->interlaced != 0)
2023:fltk-1.3.4-1/png/pngwutil.c ****    {
2024:fltk-1.3.4-1/png/pngwutil.c ****       if ((png_ptr->transformations & PNG_INTERLACE) == 0)
2025:fltk-1.3.4-1/png/pngwutil.c ****       {
2026:fltk-1.3.4-1/png/pngwutil.c ****          png_ptr->num_rows = (png_ptr->height + png_pass_yinc[0] - 1 -
2027:fltk-1.3.4-1/png/pngwutil.c ****              png_pass_ystart[0]) / png_pass_yinc[0];
2028:fltk-1.3.4-1/png/pngwutil.c **** 
2029:fltk-1.3.4-1/png/pngwutil.c ****          png_ptr->usr_width = (png_ptr->width + png_pass_inc[0] - 1 -
2030:fltk-1.3.4-1/png/pngwutil.c ****              png_pass_start[0]) / png_pass_inc[0];
2031:fltk-1.3.4-1/png/pngwutil.c ****       }
2032:fltk-1.3.4-1/png/pngwutil.c **** 
2033:fltk-1.3.4-1/png/pngwutil.c ****       else
2034:fltk-1.3.4-1/png/pngwutil.c ****       {
2035:fltk-1.3.4-1/png/pngwutil.c ****          png_ptr->num_rows = png_ptr->height;
2036:fltk-1.3.4-1/png/pngwutil.c ****          png_ptr->usr_width = png_ptr->width;
2037:fltk-1.3.4-1/png/pngwutil.c ****       }
2038:fltk-1.3.4-1/png/pngwutil.c ****    }
2039:fltk-1.3.4-1/png/pngwutil.c **** 
2040:fltk-1.3.4-1/png/pngwutil.c ****    else
2041:fltk-1.3.4-1/png/pngwutil.c **** #endif
2042:fltk-1.3.4-1/png/pngwutil.c ****    {
2043:fltk-1.3.4-1/png/pngwutil.c ****       png_ptr->num_rows = png_ptr->height;
2044:fltk-1.3.4-1/png/pngwutil.c ****       png_ptr->usr_width = png_ptr->width;
2045:fltk-1.3.4-1/png/pngwutil.c ****    }
2046:fltk-1.3.4-1/png/pngwutil.c **** }
2047:fltk-1.3.4-1/png/pngwutil.c **** 
2048:fltk-1.3.4-1/png/pngwutil.c **** /* Internal use only.  Called when finished processing a row of data. */
2049:fltk-1.3.4-1/png/pngwutil.c **** void /* PRIVATE */
2050:fltk-1.3.4-1/png/pngwutil.c **** png_write_finish_row(png_structrp png_ptr)
 3533              		.loc 1 2050 1 view -0
 3534              		.cfi_startproc
2051:fltk-1.3.4-1/png/pngwutil.c **** {
2052:fltk-1.3.4-1/png/pngwutil.c **** #ifdef PNG_WRITE_INTERLACING_SUPPORTED
2053:fltk-1.3.4-1/png/pngwutil.c ****    /* Arrays to facilitate easy interlacing - use pass (0 - 6) as index */
2054:fltk-1.3.4-1/png/pngwutil.c **** 
2055:fltk-1.3.4-1/png/pngwutil.c ****    /* Start of interlace block */
2056:fltk-1.3.4-1/png/pngwutil.c ****    static PNG_CONST png_byte png_pass_start[7] = {0, 4, 0, 2, 0, 1, 0};
2057:fltk-1.3.4-1/png/pngwutil.c **** 
2058:fltk-1.3.4-1/png/pngwutil.c ****    /* Offset to next interlace block */
2059:fltk-1.3.4-1/png/pngwutil.c ****    static PNG_CONST png_byte png_pass_inc[7] = {8, 8, 4, 4, 2, 2, 1};
2060:fltk-1.3.4-1/png/pngwutil.c **** 
2061:fltk-1.3.4-1/png/pngwutil.c ****    /* Start of interlace block in the y direction */
2062:fltk-1.3.4-1/png/pngwutil.c ****    static PNG_CONST png_byte png_pass_ystart[7] = {0, 0, 4, 0, 2, 0, 1};
2063:fltk-1.3.4-1/png/pngwutil.c **** 
2064:fltk-1.3.4-1/png/pngwutil.c ****    /* Offset to next interlace block in the y direction */
2065:fltk-1.3.4-1/png/pngwutil.c ****    static PNG_CONST png_byte png_pass_yinc[7] = {8, 8, 8, 4, 4, 2, 2};
2066:fltk-1.3.4-1/png/pngwutil.c **** #endif
2067:fltk-1.3.4-1/png/pngwutil.c **** 
2068:fltk-1.3.4-1/png/pngwutil.c ****    png_debug(1, "in png_write_finish_row");
2069:fltk-1.3.4-1/png/pngwutil.c **** 
2070:fltk-1.3.4-1/png/pngwutil.c ****    /* Next row */
2071:fltk-1.3.4-1/png/pngwutil.c ****    png_ptr->row_number++;
2072:fltk-1.3.4-1/png/pngwutil.c **** 
2073:fltk-1.3.4-1/png/pngwutil.c ****    /* See if we are done */
2074:fltk-1.3.4-1/png/pngwutil.c ****    if (png_ptr->row_number < png_ptr->num_rows)
2075:fltk-1.3.4-1/png/pngwutil.c ****       return;
2076:fltk-1.3.4-1/png/pngwutil.c **** 
2077:fltk-1.3.4-1/png/pngwutil.c **** #ifdef PNG_WRITE_INTERLACING_SUPPORTED
2078:fltk-1.3.4-1/png/pngwutil.c ****    /* If interlaced, go to next pass */
2079:fltk-1.3.4-1/png/pngwutil.c ****    if (png_ptr->interlaced != 0)
 3535              		.loc 1 2079 4 view .LVU1054
2050:fltk-1.3.4-1/png/pngwutil.c **** {
 3536              		.loc 1 2050 1 is_stmt 0 view .LVU1055
 3537 0000 4155     		pushq	%r13
 3538              		.cfi_def_cfa_offset 16
 3539              		.cfi_offset 13, -16
 3540 0002 4154     		pushq	%r12
 3541              		.cfi_def_cfa_offset 24
 3542              		.cfi_offset 12, -24
 3543 0004 55       		pushq	%rbp
 3544              		.cfi_def_cfa_offset 32
 3545              		.cfi_offset 6, -32
 3546 0005 53       		pushq	%rbx
 3547              		.cfi_def_cfa_offset 40
 3548              		.cfi_offset 3, -40
 3549              		.loc 1 2079 7 view .LVU1056
 3550 0006 80BF7402 		cmpb	$0, 628(%rdi)
 3550      000000
 3551 000d 0F840301 		je	.L312
 3551      0000
2080:fltk-1.3.4-1/png/pngwutil.c ****    {
2081:fltk-1.3.4-1/png/pngwutil.c ****       png_ptr->row_number = 0;
 3552              		.loc 1 2081 7 is_stmt 1 view .LVU1057
 3553 0013 0FB68F75 		movzbl	629(%rdi), %ecx
 3553      020000
 3554              		.loc 1 2081 27 is_stmt 0 view .LVU1058
 3555 001a C7871402 		movl	$0, 532(%rdi)
 3555      00000000 
 3555      0000
2082:fltk-1.3.4-1/png/pngwutil.c ****       if ((png_ptr->transformations & PNG_INTERLACE) != 0)
 3556              		.loc 1 2082 7 is_stmt 1 view .LVU1059
 3557 0024 83C101   		addl	$1, %ecx
 3558              		.loc 1 2082 10 is_stmt 0 view .LVU1060
 3559 0027 F6873401 		testb	$2, 308(%rdi)
 3559      000002
 3560 002e 0F85FC00 		jne	.L323
 3560      0000
 3561 0034 0FB6C9   		movzbl	%cl, %ecx
2083:fltk-1.3.4-1/png/pngwutil.c ****       {
2084:fltk-1.3.4-1/png/pngwutil.c ****          png_ptr->pass++;
2085:fltk-1.3.4-1/png/pngwutil.c ****       }
2086:fltk-1.3.4-1/png/pngwutil.c **** 
2087:fltk-1.3.4-1/png/pngwutil.c ****       else
2088:fltk-1.3.4-1/png/pngwutil.c ****       {
2089:fltk-1.3.4-1/png/pngwutil.c ****          /* Loop until we find a non-zero width or height pass */
2090:fltk-1.3.4-1/png/pngwutil.c ****          do
2091:fltk-1.3.4-1/png/pngwutil.c ****          {
2092:fltk-1.3.4-1/png/pngwutil.c ****             png_ptr->pass++;
2093:fltk-1.3.4-1/png/pngwutil.c **** 
2094:fltk-1.3.4-1/png/pngwutil.c ****             if (png_ptr->pass >= 7)
2095:fltk-1.3.4-1/png/pngwutil.c ****                break;
2096:fltk-1.3.4-1/png/pngwutil.c **** 
2097:fltk-1.3.4-1/png/pngwutil.c ****             png_ptr->usr_width = (png_ptr->width +
2098:fltk-1.3.4-1/png/pngwutil.c ****                 png_pass_inc[png_ptr->pass] - 1 -
 3562              		.loc 1 2098 29 view .LVU1061
 3563 0037 4C8D2D00 		leaq	png_pass_inc.7171(%rip), %r13
 3563      000000
2099:fltk-1.3.4-1/png/pngwutil.c ****                 png_pass_start[png_ptr->pass]) /
 3564              		.loc 1 2099 31 view .LVU1062
 3565 003e 4C8D2500 		leaq	png_pass_start.7170(%rip), %r12
 3565      000000
2100:fltk-1.3.4-1/png/pngwutil.c ****                 png_pass_inc[png_ptr->pass];
2101:fltk-1.3.4-1/png/pngwutil.c **** 
2102:fltk-1.3.4-1/png/pngwutil.c ****             png_ptr->num_rows = (png_ptr->height +
2103:fltk-1.3.4-1/png/pngwutil.c ****                 png_pass_yinc[png_ptr->pass] - 1 -
 3566              		.loc 1 2103 30 view .LVU1063
 3567 0045 488D2D00 		leaq	png_pass_yinc.7173(%rip), %rbp
 3567      000000
2104:fltk-1.3.4-1/png/pngwutil.c ****                 png_pass_ystart[png_ptr->pass]) /
 3568              		.loc 1 2104 32 view .LVU1064
 3569 004c 488D1D00 		leaq	png_pass_ystart.7172(%rip), %rbx
 3569      000000
 3570              		.p2align 4,,10
 3571 0053 0F1F4400 		.p2align 3
 3571      00
 3572              	.L321:
2090:fltk-1.3.4-1/png/pngwutil.c ****          {
 3573              		.loc 1 2090 10 is_stmt 1 view .LVU1065
2092:fltk-1.3.4-1/png/pngwutil.c **** 
 3574              		.loc 1 2092 13 view .LVU1066
 3575 0058 4189CB   		movl	%ecx, %r11d
2094:fltk-1.3.4-1/png/pngwutil.c ****                break;
 3576              		.loc 1 2094 13 view .LVU1067
2094:fltk-1.3.4-1/png/pngwutil.c ****                break;
 3577              		.loc 1 2094 16 is_stmt 0 view .LVU1068
 3578 005b 80F906   		cmpb	$6, %cl
 3579 005e 0F87AC00 		ja	.L316
 3579      0000
2097:fltk-1.3.4-1/png/pngwutil.c ****                 png_pass_inc[png_ptr->pass] - 1 -
 3580              		.loc 1 2097 13 is_stmt 1 view .LVU1069
2098:fltk-1.3.4-1/png/pngwutil.c ****                 png_pass_start[png_ptr->pass]) /
 3581              		.loc 1 2098 29 is_stmt 0 view .LVU1070
 3582 0064 450FB654 		movzbl	0(%r13,%rcx), %r10d
 3582      0D00
2098:fltk-1.3.4-1/png/pngwutil.c ****                 png_pass_start[png_ptr->pass]) /
 3583              		.loc 1 2098 49 view .LVU1071
 3584 006a 8B87F801 		movl	504(%rdi), %eax
 3584      0000
2099:fltk-1.3.4-1/png/pngwutil.c ****                 png_pass_inc[png_ptr->pass];
 3585              		.loc 1 2099 48 view .LVU1072
 3586 0070 31D2     		xorl	%edx, %edx
2103:fltk-1.3.4-1/png/pngwutil.c ****                 png_pass_ystart[png_ptr->pass]) /
 3587              		.loc 1 2103 30 view .LVU1073
 3588 0072 440FB64C 		movzbl	0(%rbp,%rcx), %r9d
 3588      0D00
2098:fltk-1.3.4-1/png/pngwutil.c ****                 png_pass_start[png_ptr->pass]) /
 3589              		.loc 1 2098 49 view .LVU1074
 3590 0078 458D4402 		leal	-1(%r10,%rax), %r8d
 3590      FF
2099:fltk-1.3.4-1/png/pngwutil.c ****                 png_pass_inc[png_ptr->pass];
 3591              		.loc 1 2099 31 view .LVU1075
 3592 007d 410FB604 		movzbl	(%r12,%rcx), %eax
 3592      0C
2098:fltk-1.3.4-1/png/pngwutil.c ****                 png_pass_start[png_ptr->pass]) /
 3593              		.loc 1 2098 49 view .LVU1076
 3594 0082 4129C0   		subl	%eax, %r8d
2099:fltk-1.3.4-1/png/pngwutil.c ****                 png_pass_inc[png_ptr->pass];
 3595              		.loc 1 2099 48 view .LVU1077
 3596 0085 4489C0   		movl	%r8d, %eax
 3597 0088 41F7F2   		divl	%r10d
 3598              		.loc 1 2104 49 view .LVU1078
 3599 008b 31D2     		xorl	%edx, %edx
2097:fltk-1.3.4-1/png/pngwutil.c ****                 png_pass_inc[png_ptr->pass] - 1 -
 3600              		.loc 1 2097 32 view .LVU1079
 3601 008d 89870402 		movl	%eax, 516(%rdi)
 3601      0000
2102:fltk-1.3.4-1/png/pngwutil.c ****                 png_pass_yinc[png_ptr->pass] - 1 -
 3602              		.loc 1 2102 13 is_stmt 1 view .LVU1080
2103:fltk-1.3.4-1/png/pngwutil.c ****                 png_pass_ystart[png_ptr->pass]) /
 3603              		.loc 1 2103 50 is_stmt 0 view .LVU1081
 3604 0093 8B87FC01 		movl	508(%rdi), %eax
 3604      0000
 3605 0099 418D7401 		leal	-1(%r9,%rax), %esi
 3605      FF
 3606              		.loc 1 2104 32 view .LVU1082
 3607 009e 0FB6040B 		movzbl	(%rbx,%rcx), %eax
 3608 00a2 4883C101 		addq	$1, %rcx
2103:fltk-1.3.4-1/png/pngwutil.c ****                 png_pass_ystart[png_ptr->pass]) /
 3609              		.loc 1 2103 50 view .LVU1083
 3610 00a6 29C6     		subl	%eax, %esi
 3611              		.loc 1 2104 49 view .LVU1084
 3612 00a8 89F0     		movl	%esi, %eax
 3613 00aa 41F7F1   		divl	%r9d
2102:fltk-1.3.4-1/png/pngwutil.c ****                 png_pass_yinc[png_ptr->pass] - 1 -
 3614              		.loc 1 2102 31 view .LVU1085
 3615 00ad 89870002 		movl	%eax, 512(%rdi)
 3615      0000
2105:fltk-1.3.4-1/png/pngwutil.c ****                 png_pass_yinc[png_ptr->pass];
2106:fltk-1.3.4-1/png/pngwutil.c **** 
2107:fltk-1.3.4-1/png/pngwutil.c ****             if ((png_ptr->transformations & PNG_INTERLACE) != 0)
 3616              		.loc 1 2107 13 is_stmt 1 view .LVU1086
2108:fltk-1.3.4-1/png/pngwutil.c ****                break;
2109:fltk-1.3.4-1/png/pngwutil.c **** 
2110:fltk-1.3.4-1/png/pngwutil.c ****          } while (png_ptr->usr_width == 0 || png_ptr->num_rows == 0);
 3617              		.loc 1 2110 18 view .LVU1087
 3618              		.loc 1 2110 43 is_stmt 0 view .LVU1088
 3619 00b3 4139F1   		cmpl	%esi, %r9d
 3620 00b6 77A0     		ja	.L321
 3621 00b8 4539C2   		cmpl	%r8d, %r10d
 3622 00bb 779B     		ja	.L321
 3623 00bd 44889F75 		movb	%r11b, 629(%rdi)
 3623      020000
 3624              	.L314:
2111:fltk-1.3.4-1/png/pngwutil.c **** 
2112:fltk-1.3.4-1/png/pngwutil.c ****       }
2113:fltk-1.3.4-1/png/pngwutil.c **** 
2114:fltk-1.3.4-1/png/pngwutil.c ****       /* Reset the row above the image for the next pass */
2115:fltk-1.3.4-1/png/pngwutil.c ****       if (png_ptr->pass < 7)
2116:fltk-1.3.4-1/png/pngwutil.c ****       {
2117:fltk-1.3.4-1/png/pngwutil.c ****          if (png_ptr->prev_row != NULL)
 3625              		.loc 1 2117 10 is_stmt 1 view .LVU1089
 3626              		.loc 1 2117 21 is_stmt 0 view .LVU1090
 3627 00c4 4C8B8720 		movq	544(%rdi), %r8
 3627      020000
 3628              		.loc 1 2117 13 view .LVU1091
 3629 00cb 4D85C0   		testq	%r8, %r8
 3630 00ce 7470     		je	.L310
2118:fltk-1.3.4-1/png/pngwutil.c ****             memset(png_ptr->prev_row, 0,
 3631              		.loc 1 2118 13 is_stmt 1 view .LVU1092
2119:fltk-1.3.4-1/png/pngwutil.c ****                 (png_size_t)(PNG_ROWBYTES(png_ptr->usr_channels*
 3632              		.loc 1 2119 30 is_stmt 0 view .LVU1093
 3633 00d0 0FB68779 		movzbl	633(%rdi), %eax
 3633      020000
 3634 00d7 0FB68F7C 		movzbl	636(%rdi), %ecx
 3634      020000
 3635 00de 0FAFC8   		imull	%eax, %ecx
 3636 00e1 8B87F801 		movl	504(%rdi), %eax
 3636      0000
 3637 00e7 4863D1   		movslq	%ecx, %rdx
2118:fltk-1.3.4-1/png/pngwutil.c ****             memset(png_ptr->prev_row, 0,
 3638              		.loc 1 2118 13 view .LVU1094
 3639 00ea 83F907   		cmpl	$7, %ecx
 3640 00ed 7E61     		jle	.L319
 3641              		.loc 1 2119 30 view .LVU1095
 3642 00ef 48C1EA03 		shrq	$3, %rdx
 3643 00f3 480FAFC2 		imulq	%rdx, %rax
2118:fltk-1.3.4-1/png/pngwutil.c ****             memset(png_ptr->prev_row, 0,
 3644              		.loc 1 2118 13 view .LVU1096
 3645 00f7 488D5001 		leaq	1(%rax), %rdx
 3646              	.L320:
 3647              	.LVL349:
 3648              	.LBB312:
 3649              	.LBI312:
 3650              		.file 2 "/usr/include/x86_64-linux-gnu/bits/string_fortified.h"
   1:/usr/include/x86_64-linux-gnu/bits/string_fortified.h **** /* Copyright (C) 2004-2020 Free Software Foundation, Inc.
   2:/usr/include/x86_64-linux-gnu/bits/string_fortified.h ****    This file is part of the GNU C Library.
   3:/usr/include/x86_64-linux-gnu/bits/string_fortified.h **** 
   4:/usr/include/x86_64-linux-gnu/bits/string_fortified.h ****    The GNU C Library is free software; you can redistribute it and/or
   5:/usr/include/x86_64-linux-gnu/bits/string_fortified.h ****    modify it under the terms of the GNU Lesser General Public
   6:/usr/include/x86_64-linux-gnu/bits/string_fortified.h ****    License as published by the Free Software Foundation; either
   7:/usr/include/x86_64-linux-gnu/bits/string_fortified.h ****    version 2.1 of the License, or (at your option) any later version.
   8:/usr/include/x86_64-linux-gnu/bits/string_fortified.h **** 
   9:/usr/include/x86_64-linux-gnu/bits/string_fortified.h ****    The GNU C Library is distributed in the hope that it will be useful,
  10:/usr/include/x86_64-linux-gnu/bits/string_fortified.h ****    but WITHOUT ANY WARRANTY; without even the implied warranty of
  11:/usr/include/x86_64-linux-gnu/bits/string_fortified.h ****    MERCHANTABILITY or FITNESS FOR A PARTICULAR PURPOSE.  See the GNU
  12:/usr/include/x86_64-linux-gnu/bits/string_fortified.h ****    Lesser General Public License for more details.
  13:/usr/include/x86_64-linux-gnu/bits/string_fortified.h **** 
  14:/usr/include/x86_64-linux-gnu/bits/string_fortified.h ****    You should have received a copy of the GNU Lesser General Public
  15:/usr/include/x86_64-linux-gnu/bits/string_fortified.h ****    License along with the GNU C Library; if not, see
  16:/usr/include/x86_64-linux-gnu/bits/string_fortified.h ****    <https://www.gnu.org/licenses/>.  */
  17:/usr/include/x86_64-linux-gnu/bits/string_fortified.h **** 
  18:/usr/include/x86_64-linux-gnu/bits/string_fortified.h **** #ifndef _BITS_STRING_FORTIFIED_H
  19:/usr/include/x86_64-linux-gnu/bits/string_fortified.h **** #define _BITS_STRING_FORTIFIED_H 1
  20:/usr/include/x86_64-linux-gnu/bits/string_fortified.h **** 
  21:/usr/include/x86_64-linux-gnu/bits/string_fortified.h **** #ifndef _STRING_H
  22:/usr/include/x86_64-linux-gnu/bits/string_fortified.h **** # error "Never use <bits/string_fortified.h> directly; include <string.h> instead."
  23:/usr/include/x86_64-linux-gnu/bits/string_fortified.h **** #endif
  24:/usr/include/x86_64-linux-gnu/bits/string_fortified.h **** 
  25:/usr/include/x86_64-linux-gnu/bits/string_fortified.h **** #if !__GNUC_PREREQ (5,0)
  26:/usr/include/x86_64-linux-gnu/bits/string_fortified.h **** __warndecl (__warn_memset_zero_len,
  27:/usr/include/x86_64-linux-gnu/bits/string_fortified.h **** 	    "memset used with constant zero length parameter; this could be due to transposed parameters")
  28:/usr/include/x86_64-linux-gnu/bits/string_fortified.h **** #endif
  29:/usr/include/x86_64-linux-gnu/bits/string_fortified.h **** 
  30:/usr/include/x86_64-linux-gnu/bits/string_fortified.h **** __fortify_function void *
  31:/usr/include/x86_64-linux-gnu/bits/string_fortified.h **** __NTH (memcpy (void *__restrict __dest, const void *__restrict __src,
  32:/usr/include/x86_64-linux-gnu/bits/string_fortified.h **** 	       size_t __len))
  33:/usr/include/x86_64-linux-gnu/bits/string_fortified.h **** {
  34:/usr/include/x86_64-linux-gnu/bits/string_fortified.h ****   return __builtin___memcpy_chk (__dest, __src, __len, __bos0 (__dest));
  35:/usr/include/x86_64-linux-gnu/bits/string_fortified.h **** }
  36:/usr/include/x86_64-linux-gnu/bits/string_fortified.h **** 
  37:/usr/include/x86_64-linux-gnu/bits/string_fortified.h **** __fortify_function void *
  38:/usr/include/x86_64-linux-gnu/bits/string_fortified.h **** __NTH (memmove (void *__dest, const void *__src, size_t __len))
  39:/usr/include/x86_64-linux-gnu/bits/string_fortified.h **** {
  40:/usr/include/x86_64-linux-gnu/bits/string_fortified.h ****   return __builtin___memmove_chk (__dest, __src, __len, __bos0 (__dest));
  41:/usr/include/x86_64-linux-gnu/bits/string_fortified.h **** }
  42:/usr/include/x86_64-linux-gnu/bits/string_fortified.h **** 
  43:/usr/include/x86_64-linux-gnu/bits/string_fortified.h **** #ifdef __USE_GNU
  44:/usr/include/x86_64-linux-gnu/bits/string_fortified.h **** __fortify_function void *
  45:/usr/include/x86_64-linux-gnu/bits/string_fortified.h **** __NTH (mempcpy (void *__restrict __dest, const void *__restrict __src,
  46:/usr/include/x86_64-linux-gnu/bits/string_fortified.h **** 		size_t __len))
  47:/usr/include/x86_64-linux-gnu/bits/string_fortified.h **** {
  48:/usr/include/x86_64-linux-gnu/bits/string_fortified.h ****   return __builtin___mempcpy_chk (__dest, __src, __len, __bos0 (__dest));
  49:/usr/include/x86_64-linux-gnu/bits/string_fortified.h **** }
  50:/usr/include/x86_64-linux-gnu/bits/string_fortified.h **** #endif
  51:/usr/include/x86_64-linux-gnu/bits/string_fortified.h **** 
  52:/usr/include/x86_64-linux-gnu/bits/string_fortified.h **** 
  53:/usr/include/x86_64-linux-gnu/bits/string_fortified.h **** /* The first two tests here help to catch a somewhat common problem
  54:/usr/include/x86_64-linux-gnu/bits/string_fortified.h ****    where the second and third parameter are transposed.  This is
  55:/usr/include/x86_64-linux-gnu/bits/string_fortified.h ****    especially problematic if the intended fill value is zero.  In this
  56:/usr/include/x86_64-linux-gnu/bits/string_fortified.h ****    case no work is done at all.  We detect these problems by referring
  57:/usr/include/x86_64-linux-gnu/bits/string_fortified.h ****    non-existing functions.  */
  58:/usr/include/x86_64-linux-gnu/bits/string_fortified.h **** __fortify_function void *
  59:/usr/include/x86_64-linux-gnu/bits/string_fortified.h **** __NTH (memset (void *__dest, int __ch, size_t __len))
 3651              		.loc 2 59 1 is_stmt 1 view .LVU1097
 3652              	.LBB313:
  60:/usr/include/x86_64-linux-gnu/bits/string_fortified.h **** {
  61:/usr/include/x86_64-linux-gnu/bits/string_fortified.h ****   /* GCC-5.0 and newer implements these checks in the compiler, so we don't
  62:/usr/include/x86_64-linux-gnu/bits/string_fortified.h ****      need them here.  */
  63:/usr/include/x86_64-linux-gnu/bits/string_fortified.h **** #if !__GNUC_PREREQ (5,0)
  64:/usr/include/x86_64-linux-gnu/bits/string_fortified.h ****   if (__builtin_constant_p (__len) && __len == 0
  65:/usr/include/x86_64-linux-gnu/bits/string_fortified.h ****       && (!__builtin_constant_p (__ch) || __ch != 0))
  66:/usr/include/x86_64-linux-gnu/bits/string_fortified.h ****     {
  67:/usr/include/x86_64-linux-gnu/bits/string_fortified.h ****       __warn_memset_zero_len ();
  68:/usr/include/x86_64-linux-gnu/bits/string_fortified.h ****       return __dest;
  69:/usr/include/x86_64-linux-gnu/bits/string_fortified.h ****     }
  70:/usr/include/x86_64-linux-gnu/bits/string_fortified.h **** #endif
  71:/usr/include/x86_64-linux-gnu/bits/string_fortified.h ****   return __builtin___memset_chk (__dest, __ch, __len, __bos0 (__dest));
 3653              		.loc 2 71 3 view .LVU1098
 3654              	.LBE313:
 3655              	.LBE312:
2120:fltk-1.3.4-1/png/pngwutil.c ****                 png_ptr->usr_bit_depth, png_ptr->width)) + 1);
2121:fltk-1.3.4-1/png/pngwutil.c **** 
2122:fltk-1.3.4-1/png/pngwutil.c ****          return;
2123:fltk-1.3.4-1/png/pngwutil.c ****       }
2124:fltk-1.3.4-1/png/pngwutil.c ****    }
2125:fltk-1.3.4-1/png/pngwutil.c **** #endif
2126:fltk-1.3.4-1/png/pngwutil.c **** 
2127:fltk-1.3.4-1/png/pngwutil.c ****    /* If we get here, we've just written the last row, so we need
2128:fltk-1.3.4-1/png/pngwutil.c ****       to flush the compressor */
2129:fltk-1.3.4-1/png/pngwutil.c ****    png_compress_IDAT(png_ptr, NULL, 0, Z_FINISH);
2130:fltk-1.3.4-1/png/pngwutil.c **** }
 3656              		.loc 1 2130 1 is_stmt 0 view .LVU1099
 3657 00fb 5B       		popq	%rbx
 3658              		.cfi_remember_state
 3659              		.cfi_def_cfa_offset 32
 3660              	.LBB317:
 3661              	.LBB314:
 3662              		.loc 2 71 10 view .LVU1100
 3663 00fc 31F6     		xorl	%esi, %esi
 3664              	.LBE314:
 3665              	.LBE317:
 3666              		.loc 1 2130 1 view .LVU1101
 3667 00fe 5D       		popq	%rbp
 3668              		.cfi_def_cfa_offset 24
 3669              	.LBB318:
 3670              	.LBB315:
 3671              		.loc 2 71 10 view .LVU1102
 3672 00ff 4C89C7   		movq	%r8, %rdi
 3673              	.LVL350:
 3674              		.loc 2 71 10 view .LVU1103
 3675              	.LBE315:
 3676              	.LBE318:
 3677              		.loc 1 2130 1 view .LVU1104
 3678 0102 415C     		popq	%r12
 3679              		.cfi_def_cfa_offset 16
 3680 0104 415D     		popq	%r13
 3681              		.cfi_def_cfa_offset 8
 3682              	.LBB319:
 3683              	.LBB316:
 3684              		.loc 2 71 10 view .LVU1105
 3685 0106 E9000000 		jmp	memset@PLT
 3685      00
 3686              	.LVL351:
 3687 010b 0F1F4400 		.p2align 4,,10
 3687      00
 3688              		.p2align 3
 3689              	.L316:
 3690              		.cfi_restore_state
 3691              		.loc 2 71 10 view .LVU1106
 3692 0110 888F7502 		movb	%cl, 629(%rdi)
 3692      0000
 3693              	.L312:
 3694              		.loc 2 71 10 view .LVU1107
 3695              	.LBE316:
 3696              	.LBE319:
2129:fltk-1.3.4-1/png/pngwutil.c **** }
 3697              		.loc 1 2129 4 is_stmt 1 view .LVU1108
 3698              		.loc 1 2130 1 is_stmt 0 view .LVU1109
 3699 0116 5B       		popq	%rbx
 3700              		.cfi_remember_state
 3701              		.cfi_def_cfa_offset 32
2129:fltk-1.3.4-1/png/pngwutil.c **** }
 3702              		.loc 1 2129 4 view .LVU1110
 3703 0117 B9040000 		movl	$4, %ecx
 3703      00
 3704              		.loc 1 2130 1 view .LVU1111
 3705 011c 5D       		popq	%rbp
 3706              		.cfi_def_cfa_offset 24
2129:fltk-1.3.4-1/png/pngwutil.c **** }
 3707              		.loc 1 2129 4 view .LVU1112
 3708 011d 31D2     		xorl	%edx, %edx
 3709              		.loc 1 2130 1 view .LVU1113
 3710 011f 415C     		popq	%r12
 3711              		.cfi_def_cfa_offset 16
2129:fltk-1.3.4-1/png/pngwutil.c **** }
 3712              		.loc 1 2129 4 view .LVU1114
 3713 0121 31F6     		xorl	%esi, %esi
 3714              		.loc 1 2130 1 view .LVU1115
 3715 0123 415D     		popq	%r13
 3716              		.cfi_def_cfa_offset 8
2129:fltk-1.3.4-1/png/pngwutil.c **** }
 3717              		.loc 1 2129 4 view .LVU1116
 3718 0125 E9000000 		jmp	png_compress_IDAT
 3718      00
 3719              	.LVL352:
 3720 012a 660F1F44 		.p2align 4,,10
 3720      0000
 3721              		.p2align 3
 3722              	.L323:
 3723              		.cfi_restore_state
2084:fltk-1.3.4-1/png/pngwutil.c ****       }
 3724              		.loc 1 2084 10 is_stmt 1 view .LVU1117
2084:fltk-1.3.4-1/png/pngwutil.c ****       }
 3725              		.loc 1 2084 23 is_stmt 0 view .LVU1118
 3726 0130 888F7502 		movb	%cl, 629(%rdi)
 3726      0000
2115:fltk-1.3.4-1/png/pngwutil.c ****       {
 3727              		.loc 1 2115 7 is_stmt 1 view .LVU1119
2115:fltk-1.3.4-1/png/pngwutil.c ****       {
 3728              		.loc 1 2115 10 is_stmt 0 view .LVU1120
 3729 0136 80F906   		cmpb	$6, %cl
 3730 0139 77DB     		ja	.L312
 3731 013b EB87     		jmp	.L314
 3732 013d 0F1F00   		.p2align 4,,10
 3733              		.p2align 3
 3734              	.L310:
 3735              		.loc 1 2130 1 view .LVU1121
 3736 0140 5B       		popq	%rbx
 3737              		.cfi_remember_state
 3738              		.cfi_def_cfa_offset 32
 3739 0141 5D       		popq	%rbp
 3740              		.cfi_def_cfa_offset 24
 3741 0142 415C     		popq	%r12
 3742              		.cfi_def_cfa_offset 16
 3743 0144 415D     		popq	%r13
 3744              		.cfi_def_cfa_offset 8
 3745 0146 C3       		ret
 3746 0147 660F1F84 		.p2align 4,,10
 3746      00000000 
 3746      00
 3747              		.p2align 3
 3748              	.L319:
 3749              		.cfi_restore_state
2119:fltk-1.3.4-1/png/pngwutil.c ****                 png_ptr->usr_bit_depth, png_ptr->width)) + 1);
 3750              		.loc 1 2119 30 view .LVU1122
 3751 0150 480FAFC2 		imulq	%rdx, %rax
 3752 0154 488D5007 		leaq	7(%rax), %rdx
 3753 0158 48C1EA03 		shrq	$3, %rdx
2118:fltk-1.3.4-1/png/pngwutil.c ****                 (png_size_t)(PNG_ROWBYTES(png_ptr->usr_channels*
 3754              		.loc 1 2118 13 view .LVU1123
 3755 015c 4883C201 		addq	$1, %rdx
 3756 0160 EB99     		jmp	.L320
 3757              		.cfi_endproc
 3758              	.LFE90:
 3760              		.section	.text.png_write_IEND,"ax",@progbits
 3761              		.p2align 4
 3762              		.globl	png_write_IEND
 3764              	png_write_IEND:
 3765              	.LVL353:
 3766              	.LFB61:
1149:fltk-1.3.4-1/png/pngwutil.c ****    png_debug(1, "in png_write_IEND");
 3767              		.loc 1 1149 1 is_stmt 1 view -0
 3768              		.cfi_startproc
1149:fltk-1.3.4-1/png/pngwutil.c ****    png_debug(1, "in png_write_IEND");
 3769              		.loc 1 1149 1 is_stmt 0 view .LVU1125
 3770 0000 F30F1EFA 		endbr64
1150:fltk-1.3.4-1/png/pngwutil.c **** 
 3771              		.loc 1 1150 4 is_stmt 1 view .LVU1126
1152:fltk-1.3.4-1/png/pngwutil.c ****    png_ptr->mode |= PNG_HAVE_IEND;
 3772              		.loc 1 1152 4 view .LVU1127
1149:fltk-1.3.4-1/png/pngwutil.c ****    png_debug(1, "in png_write_IEND");
 3773              		.loc 1 1149 1 is_stmt 0 view .LVU1128
 3774 0004 53       		pushq	%rbx
 3775              		.cfi_def_cfa_offset 16
 3776              		.cfi_offset 3, -16
1152:fltk-1.3.4-1/png/pngwutil.c ****    png_ptr->mode |= PNG_HAVE_IEND;
 3777              		.loc 1 1152 4 view .LVU1129
 3778 0005 31C9     		xorl	%ecx, %ecx
1149:fltk-1.3.4-1/png/pngwutil.c ****    png_debug(1, "in png_write_IEND");
 3779              		.loc 1 1149 1 view .LVU1130
 3780 0007 4889FB   		movq	%rdi, %rbx
1152:fltk-1.3.4-1/png/pngwutil.c ****    png_ptr->mode |= PNG_HAVE_IEND;
 3781              		.loc 1 1152 4 view .LVU1131
 3782 000a 31D2     		xorl	%edx, %edx
 3783 000c BE444E45 		movl	$1229278788, %esi
 3783      49
 3784 0011 E8000000 		call	png_write_complete_chunk
 3784      00
 3785              	.LVL354:
1153:fltk-1.3.4-1/png/pngwutil.c **** }
 3786              		.loc 1 1153 4 is_stmt 1 view .LVU1132
1153:fltk-1.3.4-1/png/pngwutil.c **** }
 3787              		.loc 1 1153 18 is_stmt 0 view .LVU1133
 3788 0016 838B2C01 		orl	$16, 300(%rbx)
 3788      000010
1154:fltk-1.3.4-1/png/pngwutil.c **** 
 3789              		.loc 1 1154 1 view .LVU1134
 3790 001d 5B       		popq	%rbx
 3791              		.cfi_def_cfa_offset 8
 3792              	.LVL355:
1154:fltk-1.3.4-1/png/pngwutil.c **** 
 3793              		.loc 1 1154 1 view .LVU1135
 3794 001e C3       		ret
 3795              		.cfi_endproc
 3796              	.LFE61:
 3798              		.section	.text.png_write_gAMA_fixed,"ax",@progbits
 3799              		.p2align 4
 3800              		.globl	png_write_gAMA_fixed
 3802              	png_write_gAMA_fixed:
 3803              	.LVL356:
 3804              	.LFB62:
1160:fltk-1.3.4-1/png/pngwutil.c ****    png_byte buf[4];
 3805              		.loc 1 1160 1 is_stmt 1 view -0
 3806              		.cfi_startproc
1160:fltk-1.3.4-1/png/pngwutil.c ****    png_byte buf[4];
 3807              		.loc 1 1160 1 is_stmt 0 view .LVU1137
 3808 0000 F30F1EFA 		endbr64
 3809 0004 4883EC18 		subq	$24, %rsp
 3810              		.cfi_def_cfa_offset 32
 3811 0008 0FCE     		bswap	%esi
 3812              	.LVL357:
1167:fltk-1.3.4-1/png/pngwutil.c **** }
 3813              		.loc 1 1167 4 view .LVU1138
 3814 000a B9040000 		movl	$4, %ecx
 3814      00
1160:fltk-1.3.4-1/png/pngwutil.c ****    png_byte buf[4];
 3815              		.loc 1 1160 1 view .LVU1139
 3816 000f 64488B04 		movq	%fs:40, %rax
 3816      25280000 
 3816      00
 3817 0018 48894424 		movq	%rax, 8(%rsp)
 3817      08
 3818 001d 31C0     		xorl	%eax, %eax
1161:fltk-1.3.4-1/png/pngwutil.c **** 
 3819              		.loc 1 1161 4 is_stmt 1 view .LVU1140
1163:fltk-1.3.4-1/png/pngwutil.c **** 
 3820              		.loc 1 1163 4 view .LVU1141
1166:fltk-1.3.4-1/png/pngwutil.c ****    png_write_complete_chunk(png_ptr, png_gAMA, buf, (png_size_t)4);
 3821              		.loc 1 1166 4 view .LVU1142
 3822              	.LVL358:
 3823              	.LBB320:
 3824              	.LBI320:
  24:fltk-1.3.4-1/png/pngwutil.c **** {
 3825              		.loc 1 24 1 view .LVU1143
 3826              	.LBB321:
  26:fltk-1.3.4-1/png/pngwutil.c ****    buf[1] = (png_byte)((i >> 16) & 0xff);
 3827              		.loc 1 26 4 view .LVU1144
  27:fltk-1.3.4-1/png/pngwutil.c ****    buf[2] = (png_byte)((i >> 8) & 0xff);
 3828              		.loc 1 27 4 view .LVU1145
  28:fltk-1.3.4-1/png/pngwutil.c ****    buf[3] = (png_byte)(i & 0xff);
 3829              		.loc 1 28 4 view .LVU1146
  29:fltk-1.3.4-1/png/pngwutil.c **** }
 3830              		.loc 1 29 4 view .LVU1147
 3831              	.LBE321:
 3832              	.LBE320:
1167:fltk-1.3.4-1/png/pngwutil.c **** }
 3833              		.loc 1 1167 4 is_stmt 0 view .LVU1148
 3834 001f 488D5424 		leaq	4(%rsp), %rdx
 3834      04
 3835              	.LVL359:
 3836              	.LBB323:
 3837              	.LBB322:
  26:fltk-1.3.4-1/png/pngwutil.c ****    buf[1] = (png_byte)((i >> 16) & 0xff);
 3838              		.loc 1 26 11 view .LVU1149
 3839 0024 89742404 		movl	%esi, 4(%rsp)
 3840              	.LVL360:
  26:fltk-1.3.4-1/png/pngwutil.c ****    buf[1] = (png_byte)((i >> 16) & 0xff);
 3841              		.loc 1 26 11 view .LVU1150
 3842              	.LBE322:
 3843              	.LBE323:
1167:fltk-1.3.4-1/png/pngwutil.c **** }
 3844              		.loc 1 1167 4 is_stmt 1 view .LVU1151
 3845 0028 BE414D41 		movl	$1732332865, %esi
 3845      67
 3846 002d E8000000 		call	png_write_complete_chunk
 3846      00
 3847              	.LVL361:
1168:fltk-1.3.4-1/png/pngwutil.c **** #endif
 3848              		.loc 1 1168 1 is_stmt 0 view .LVU1152
 3849 0032 488B4424 		movq	8(%rsp), %rax
 3849      08
 3850 0037 64483304 		xorq	%fs:40, %rax
 3850      25280000 
 3850      00
 3851 0040 7505     		jne	.L329
 3852 0042 4883C418 		addq	$24, %rsp
 3853              		.cfi_remember_state
 3854              		.cfi_def_cfa_offset 8
 3855 0046 C3       		ret
 3856              	.L329:
 3857              		.cfi_restore_state
 3858 0047 E8000000 		call	__stack_chk_fail@PLT
 3858      00
 3859              	.LVL362:
 3860              		.cfi_endproc
 3861              	.LFE62:
 3863              		.section	.rodata.png_write_sRGB.str1.8,"aMS",@progbits,1
 3864              		.align 8
 3865              	.LC21:
 3866 0000 496E7661 		.string	"Invalid sRGB rendering intent specified"
 3866      6C696420 
 3866      73524742 
 3866      2072656E 
 3866      64657269 
 3867              		.section	.text.png_write_sRGB,"ax",@progbits
 3868              		.p2align 4
 3869              		.globl	png_write_sRGB
 3871              	png_write_sRGB:
 3872              	.LVL363:
 3873              	.LFB63:
1175:fltk-1.3.4-1/png/pngwutil.c ****    png_byte buf[1];
 3874              		.loc 1 1175 1 is_stmt 1 view -0
 3875              		.cfi_startproc
1175:fltk-1.3.4-1/png/pngwutil.c ****    png_byte buf[1];
 3876              		.loc 1 1175 1 is_stmt 0 view .LVU1154
 3877 0000 F30F1EFA 		endbr64
 3878 0004 53       		pushq	%rbx
 3879              		.cfi_def_cfa_offset 16
 3880              		.cfi_offset 3, -16
 3881 0005 89F3     		movl	%esi, %ebx
 3882 0007 4883EC20 		subq	$32, %rsp
 3883              		.cfi_def_cfa_offset 48
1175:fltk-1.3.4-1/png/pngwutil.c ****    png_byte buf[1];
 3884              		.loc 1 1175 1 view .LVU1155
 3885 000b 64488B04 		movq	%fs:40, %rax
 3885      25280000 
 3885      00
 3886 0014 48894424 		movq	%rax, 24(%rsp)
 3886      18
 3887 0019 31C0     		xorl	%eax, %eax
1176:fltk-1.3.4-1/png/pngwutil.c **** 
 3888              		.loc 1 1176 4 is_stmt 1 view .LVU1156
1178:fltk-1.3.4-1/png/pngwutil.c **** 
 3889              		.loc 1 1178 4 view .LVU1157
1180:fltk-1.3.4-1/png/pngwutil.c ****       png_warning(png_ptr,
 3890              		.loc 1 1180 4 view .LVU1158
1180:fltk-1.3.4-1/png/pngwutil.c ****       png_warning(png_ptr,
 3891              		.loc 1 1180 7 is_stmt 0 view .LVU1159
 3892 001b 83FE03   		cmpl	$3, %esi
 3893 001e 7F30     		jg	.L334
 3894              	.LVL364:
 3895              	.L331:
1184:fltk-1.3.4-1/png/pngwutil.c ****    png_write_complete_chunk(png_ptr, png_sRGB, buf, (png_size_t)1);
 3896              		.loc 1 1184 4 is_stmt 1 view .LVU1160
1185:fltk-1.3.4-1/png/pngwutil.c **** }
 3897              		.loc 1 1185 4 is_stmt 0 view .LVU1161
 3898 0020 488D5424 		leaq	23(%rsp), %rdx
 3898      17
 3899 0025 B9010000 		movl	$1, %ecx
 3899      00
 3900 002a BE424752 		movl	$1934772034, %esi
 3900      73
1184:fltk-1.3.4-1/png/pngwutil.c ****    png_write_complete_chunk(png_ptr, png_sRGB, buf, (png_size_t)1);
 3901              		.loc 1 1184 11 view .LVU1162
 3902 002f 885C2417 		movb	%bl, 23(%rsp)
1185:fltk-1.3.4-1/png/pngwutil.c **** }
 3903              		.loc 1 1185 4 is_stmt 1 view .LVU1163
 3904 0033 E8000000 		call	png_write_complete_chunk
 3904      00
 3905              	.LVL365:
1186:fltk-1.3.4-1/png/pngwutil.c **** #endif
 3906              		.loc 1 1186 1 is_stmt 0 view .LVU1164
 3907 0038 488B4424 		movq	24(%rsp), %rax
 3907      18
 3908 003d 64483304 		xorq	%fs:40, %rax
 3908      25280000 
 3908      00
 3909 0046 7520     		jne	.L335
 3910 0048 4883C420 		addq	$32, %rsp
 3911              		.cfi_remember_state
 3912              		.cfi_def_cfa_offset 16
 3913 004c 5B       		popq	%rbx
 3914              		.cfi_def_cfa_offset 8
 3915              	.LVL366:
1186:fltk-1.3.4-1/png/pngwutil.c **** #endif
 3916              		.loc 1 1186 1 view .LVU1165
 3917 004d C3       		ret
 3918              	.LVL367:
 3919 004e 6690     		.p2align 4,,10
 3920              		.p2align 3
 3921              	.L334:
 3922              		.cfi_restore_state
1181:fltk-1.3.4-1/png/pngwutil.c ****           "Invalid sRGB rendering intent specified");
 3923              		.loc 1 1181 7 is_stmt 1 view .LVU1166
 3924 0050 488D3500 		leaq	.LC21(%rip), %rsi
 3924      000000
 3925 0057 48897C24 		movq	%rdi, 8(%rsp)
 3925      08
 3926 005c E8000000 		call	png_warning@PLT
 3926      00
 3927              	.LVL368:
1181:fltk-1.3.4-1/png/pngwutil.c ****           "Invalid sRGB rendering intent specified");
 3928              		.loc 1 1181 7 is_stmt 0 view .LVU1167
 3929 0061 488B7C24 		movq	8(%rsp), %rdi
 3929      08
 3930 0066 EBB8     		jmp	.L331
 3931              	.LVL369:
 3932              	.L335:
1186:fltk-1.3.4-1/png/pngwutil.c **** #endif
 3933              		.loc 1 1186 1 view .LVU1168
 3934 0068 E8000000 		call	__stack_chk_fail@PLT
 3934      00
 3935              	.LVL370:
 3936              		.cfi_endproc
 3937              	.LFE63:
 3939              		.section	.rodata.png_write_iCCP.str1.1,"aMS",@progbits,1
 3940              	.LC22:
 3941 0000 4E6F2070 		.string	"No profile for iCCP chunk"
 3941      726F6669 
 3941      6C652066 
 3941      6F722069 
 3941      43435020 
 3942              	.LC23:
 3943 001a 49434320 		.string	"ICC profile too short"
 3943      70726F66 
 3943      696C6520 
 3943      746F6F20 
 3943      73686F72 
 3944              		.section	.rodata.png_write_iCCP.str1.8,"aMS",@progbits,1
 3945              		.align 8
 3946              	.LC24:
 3947 0000 49434320 		.string	"ICC profile length invalid (not a multiple of 4)"
 3947      70726F66 
 3947      696C6520 
 3947      6C656E67 
 3947      74682069 
 3948              		.section	.rodata.png_write_iCCP.str1.1
 3949              	.LC25:
 3950 0030 69434350 		.string	"iCCP: invalid keyword"
 3950      3A20696E 
 3950      76616C69 
 3950      64206B65 
 3950      79776F72 
 3951              		.section	.text.png_write_iCCP,"ax",@progbits
 3952              		.p2align 4
 3953              		.globl	png_write_iCCP
 3955              	png_write_iCCP:
 3956              	.LVL371:
 3957              	.LFB64:
1194:fltk-1.3.4-1/png/pngwutil.c ****    png_uint_32 name_len;
 3958              		.loc 1 1194 1 is_stmt 1 view -0
 3959              		.cfi_startproc
1194:fltk-1.3.4-1/png/pngwutil.c ****    png_uint_32 name_len;
 3960              		.loc 1 1194 1 is_stmt 0 view .LVU1170
 3961 0000 F30F1EFA 		endbr64
 3962 0004 4156     		pushq	%r14
 3963              		.cfi_def_cfa_offset 16
 3964              		.cfi_offset 14, -16
 3965 0006 4989FE   		movq	%rdi, %r14
 3966 0009 4155     		pushq	%r13
 3967              		.cfi_def_cfa_offset 24
 3968              		.cfi_offset 13, -24
 3969 000b 4154     		pushq	%r12
 3970              		.cfi_def_cfa_offset 32
 3971              		.cfi_offset 12, -32
 3972 000d 55       		pushq	%rbp
 3973              		.cfi_def_cfa_offset 40
 3974              		.cfi_offset 6, -40
 3975 000e 53       		pushq	%rbx
 3976              		.cfi_def_cfa_offset 48
 3977              		.cfi_offset 3, -48
 3978 000f 4881EC80 		subq	$1152, %rsp
 3978      040000
 3979              		.cfi_def_cfa_offset 1200
1194:fltk-1.3.4-1/png/pngwutil.c ****    png_uint_32 name_len;
 3980              		.loc 1 1194 1 view .LVU1171
 3981 0016 64488B04 		movq	%fs:40, %rax
 3981      25280000 
 3981      00
 3982 001f 48898424 		movq	%rax, 1144(%rsp)
 3982      78040000 
 3983 0027 31C0     		xorl	%eax, %eax
1195:fltk-1.3.4-1/png/pngwutil.c ****    png_uint_32 profile_len;
 3984              		.loc 1 1195 4 is_stmt 1 view .LVU1172
1196:fltk-1.3.4-1/png/pngwutil.c ****    png_byte new_name[81]; /* 1 byte for the compression byte */
 3985              		.loc 1 1196 4 view .LVU1173
1197:fltk-1.3.4-1/png/pngwutil.c ****    compression_state comp;
 3986              		.loc 1 1197 4 view .LVU1174
1198:fltk-1.3.4-1/png/pngwutil.c ****    png_uint_32 temp;
 3987              		.loc 1 1198 4 view .LVU1175
1199:fltk-1.3.4-1/png/pngwutil.c **** 
 3988              		.loc 1 1199 4 view .LVU1176
1201:fltk-1.3.4-1/png/pngwutil.c **** 
 3989              		.loc 1 1201 4 view .LVU1177
1206:fltk-1.3.4-1/png/pngwutil.c ****       png_error(png_ptr, "No profile for iCCP chunk"); /* internal error */
 3990              		.loc 1 1206 4 view .LVU1178
1206:fltk-1.3.4-1/png/pngwutil.c ****       png_error(png_ptr, "No profile for iCCP chunk"); /* internal error */
 3991              		.loc 1 1206 7 is_stmt 0 view .LVU1179
 3992 0029 4885D2   		testq	%rdx, %rdx
 3993 002c 0F844A01 		je	.L355
 3993      0000
1209:fltk-1.3.4-1/png/pngwutil.c **** 
 3994              		.loc 1 1209 18 view .LVU1180
 3995 0032 0FB61A   		movzbl	(%rdx), %ebx
 3996 0035 4889D5   		movq	%rdx, %rbp
1209:fltk-1.3.4-1/png/pngwutil.c **** 
 3997              		.loc 1 1209 4 is_stmt 1 view .LVU1181
1209:fltk-1.3.4-1/png/pngwutil.c **** 
 3998              		.loc 1 1209 18 is_stmt 0 view .LVU1182
 3999 0038 0FB64503 		movzbl	3(%rbp), %eax
 4000 003c 89DA     		movl	%ebx, %edx
 4001              	.LVL372:
1209:fltk-1.3.4-1/png/pngwutil.c **** 
 4002              		.loc 1 1209 18 view .LVU1183
 4003 003e 0FB65D01 		movzbl	1(%rbp), %ebx
 4004 0042 C1E218   		sall	$24, %edx
 4005 0045 C1E310   		sall	$16, %ebx
 4006 0048 01D3     		addl	%edx, %ebx
1209:fltk-1.3.4-1/png/pngwutil.c **** 
 4007              		.loc 1 1209 16 view .LVU1184
 4008 004a 01D8     		addl	%ebx, %eax
1209:fltk-1.3.4-1/png/pngwutil.c **** 
 4009              		.loc 1 1209 18 view .LVU1185
 4010 004c 0FB65D02 		movzbl	2(%rbp), %ebx
 4011 0050 C1E308   		sall	$8, %ebx
1209:fltk-1.3.4-1/png/pngwutil.c **** 
 4012              		.loc 1 1209 16 view .LVU1186
 4013 0053 01C3     		addl	%eax, %ebx
 4014              	.LVL373:
1211:fltk-1.3.4-1/png/pngwutil.c ****       png_error(png_ptr, "ICC profile too short");
 4015              		.loc 1 1211 4 is_stmt 1 view .LVU1187
1211:fltk-1.3.4-1/png/pngwutil.c ****       png_error(png_ptr, "ICC profile too short");
 4016              		.loc 1 1211 7 is_stmt 0 view .LVU1188
 4017 0055 81FB8300 		cmpl	$131, %ebx
 4017      0000
 4018 005b 0F862701 		jbe	.L356
 4018      0000
1214:fltk-1.3.4-1/png/pngwutil.c ****    if (temp > 3 && (profile_len & 0x03))
 4019              		.loc 1 1214 4 is_stmt 1 view .LVU1189
 4020              	.LVL374:
1215:fltk-1.3.4-1/png/pngwutil.c ****       png_error(png_ptr, "ICC profile length invalid (not a multiple of 4)");
 4021              		.loc 1 1215 4 view .LVU1190
1215:fltk-1.3.4-1/png/pngwutil.c ****       png_error(png_ptr, "ICC profile length invalid (not a multiple of 4)");
 4022              		.loc 1 1215 7 is_stmt 0 view .LVU1191
 4023 0061 807D0803 		cmpb	$3, 8(%rbp)
 4024 0065 0F87C500 		ja	.L357
 4024      0000
 4025              	.L339:
1219:fltk-1.3.4-1/png/pngwutil.c **** 
 4026              		.loc 1 1219 7 is_stmt 1 view .LVU1192
 4027              	.LVL375:
1221:fltk-1.3.4-1/png/pngwutil.c ****          png_error(png_ptr, "Profile length does not match profile");
 4028              		.loc 1 1221 7 view .LVU1193
1225:fltk-1.3.4-1/png/pngwutil.c **** 
 4029              		.loc 1 1225 4 view .LVU1194
 4030              	.LBB324:
 4031              	.LBI324:
 681:fltk-1.3.4-1/png/pngwutil.c **** {
 4032              		.loc 1 681 1 view .LVU1195
 4033              	.LBB325:
 683:fltk-1.3.4-1/png/pngwutil.c ****    png_uint_32 key_len = 0;
 4034              		.loc 1 683 4 view .LVU1196
 684:fltk-1.3.4-1/png/pngwutil.c ****    int bad_character = 0;
 4035              		.loc 1 684 4 view .LVU1197
 685:fltk-1.3.4-1/png/pngwutil.c ****    int space = 1;
 4036              		.loc 1 685 4 view .LVU1198
 686:fltk-1.3.4-1/png/pngwutil.c **** 
 4037              		.loc 1 686 4 view .LVU1199
 688:fltk-1.3.4-1/png/pngwutil.c **** 
 4038              		.loc 1 688 4 view .LVU1200
 690:fltk-1.3.4-1/png/pngwutil.c ****    {
 4039              		.loc 1 690 4 view .LVU1201
 690:fltk-1.3.4-1/png/pngwutil.c ****    {
 4040              		.loc 1 690 7 is_stmt 0 view .LVU1202
 4041 006b 4885F6   		testq	%rsi, %rsi
 4042 006e 0F84E400 		je	.L358
 4042      0000
 4043 0074 4C8DAC24 		leaq	1056(%rsp), %r13
 4043      20040000 
 4044              	.LVL376:
 690:fltk-1.3.4-1/png/pngwutil.c ****    {
 4045              		.loc 1 690 7 view .LVU1203
 4046 007c 4C89F7   		movq	%r14, %rdi
 4047              	.LVL377:
 690:fltk-1.3.4-1/png/pngwutil.c ****    {
 4048              		.loc 1 690 7 view .LVU1204
 4049 007f 4C89EA   		movq	%r13, %rdx
 4050 0082 E8000000 		call	png_check_keyword.part.0
 4050      00
 4051              	.LVL378:
 690:fltk-1.3.4-1/png/pngwutil.c ****    {
 4052              		.loc 1 690 7 view .LVU1205
 4053              	.LBE325:
 4054              	.LBE324:
1227:fltk-1.3.4-1/png/pngwutil.c ****       png_error(png_ptr, "iCCP: invalid keyword");
 4055              		.loc 1 1227 4 is_stmt 1 view .LVU1206
1227:fltk-1.3.4-1/png/pngwutil.c ****       png_error(png_ptr, "iCCP: invalid keyword");
 4056              		.loc 1 1227 7 is_stmt 0 view .LVU1207
 4057 0087 85C0     		testl	%eax, %eax
 4058 0089 0F84D100 		je	.L341
 4058      0000
1230:fltk-1.3.4-1/png/pngwutil.c **** 
 4059              		.loc 1 1230 4 is_stmt 1 view .LVU1208
 4060              	.LVL379:
1230:fltk-1.3.4-1/png/pngwutil.c **** 
 4061              		.loc 1 1230 25 is_stmt 0 view .LVU1209
 4062 008f 8D5001   		leal	1(%rax), %edx
1233:fltk-1.3.4-1/png/pngwutil.c **** 
 4063              		.loc 1 1233 4 view .LVU1210
 4064 0092 448D6002 		leal	2(%rax), %r12d
 4065              	.LBB327:
 4066              	.LBB328:
 482:fltk-1.3.4-1/png/pngwutil.c ****    comp->input_len = input_len;
 4067              		.loc 1 482 16 view .LVU1211
 4068 0096 48892C24 		movq	%rbp, (%rsp)
 4069              	.LBE328:
 4070              	.LBE327:
1238:fltk-1.3.4-1/png/pngwutil.c ****       png_error(png_ptr, png_ptr->zstream.msg);
 4071              		.loc 1 1238 8 view .LVU1212
 4072 009a 4889E5   		movq	%rsp, %rbp
 4073              	.LVL380:
1230:fltk-1.3.4-1/png/pngwutil.c **** 
 4074              		.loc 1 1230 25 view .LVU1213
 4075 009d C6841420 		movb	$0, 1056(%rsp,%rdx)
 4075      04000000 
1233:fltk-1.3.4-1/png/pngwutil.c **** 
 4076              		.loc 1 1233 4 is_stmt 1 view .LVU1214
 4077              	.LVL381:
1235:fltk-1.3.4-1/png/pngwutil.c **** 
 4078              		.loc 1 1235 4 view .LVU1215
 4079              	.LBB331:
 4080              	.LBI327:
 479:fltk-1.3.4-1/png/pngwutil.c ****    png_alloc_size_t input_len)
 4081              		.loc 1 479 1 view .LVU1216
 4082              	.LBB329:
 482:fltk-1.3.4-1/png/pngwutil.c ****    comp->input_len = input_len;
 4083              		.loc 1 482 4 view .LVU1217
 483:fltk-1.3.4-1/png/pngwutil.c ****    comp->output_len = 0;
 4084              		.loc 1 483 4 view .LVU1218
 4085              	.LBE329:
 4086              	.LBE331:
1235:fltk-1.3.4-1/png/pngwutil.c **** 
 4087              		.loc 1 1235 4 is_stmt 0 view .LVU1219
 4088 00a5 89D8     		movl	%ebx, %eax
 4089              	.LVL382:
1238:fltk-1.3.4-1/png/pngwutil.c ****       png_error(png_ptr, png_ptr->zstream.msg);
 4090              		.loc 1 1238 8 view .LVU1220
 4091 00a7 4489E1   		movl	%r12d, %ecx
 4092 00aa 4889EA   		movq	%rbp, %rdx
 4093 00ad BE504343 		movl	$1766015824, %esi
 4093      69
 4094 00b2 4C89F7   		movq	%r14, %rdi
1235:fltk-1.3.4-1/png/pngwutil.c **** 
 4095              		.loc 1 1235 4 view .LVU1221
 4096 00b5 48894424 		movq	%rax, 8(%rsp)
 4096      08
 4097              	.LBB332:
 4098              	.LBB330:
 484:fltk-1.3.4-1/png/pngwutil.c **** }
 4099              		.loc 1 484 4 is_stmt 1 view .LVU1222
 484:fltk-1.3.4-1/png/pngwutil.c **** }
 4100              		.loc 1 484 21 is_stmt 0 view .LVU1223
 4101 00ba C7442410 		movl	$0, 16(%rsp)
 4101      00000000 
 4102              	.LVL383:
 484:fltk-1.3.4-1/png/pngwutil.c **** }
 4103              		.loc 1 484 21 view .LVU1224
 4104              	.LBE330:
 4105              	.LBE332:
1238:fltk-1.3.4-1/png/pngwutil.c ****       png_error(png_ptr, png_ptr->zstream.msg);
 4106              		.loc 1 1238 4 is_stmt 1 view .LVU1225
1238:fltk-1.3.4-1/png/pngwutil.c ****       png_error(png_ptr, png_ptr->zstream.msg);
 4107              		.loc 1 1238 8 is_stmt 0 view .LVU1226
 4108 00c2 E8000000 		call	png_text_compress
 4108      00
 4109              	.LVL384:
1238:fltk-1.3.4-1/png/pngwutil.c ****       png_error(png_ptr, png_ptr->zstream.msg);
 4110              		.loc 1 1238 7 view .LVU1227
 4111 00c7 85C0     		testl	%eax, %eax
 4112 00c9 0F85CA00 		jne	.L359
 4112      0000
1241:fltk-1.3.4-1/png/pngwutil.c **** 
 4113              		.loc 1 1241 4 is_stmt 1 view .LVU1228
 4114 00cf 8B542410 		movl	16(%rsp), %edx
 4115 00d3 4401E2   		addl	%r12d, %edx
 4116              	.LVL385:
 4117              	.LBB333:
 4118              	.LBI333:
  73:fltk-1.3.4-1/png/pngwutil.c ****     png_uint_32 length)
 4119              		.loc 1 73 1 view .LVU1229
 4120              	.LBB334:
  76:fltk-1.3.4-1/png/pngwutil.c **** 
 4121              		.loc 1 76 4 view .LVU1230
  83:fltk-1.3.4-1/png/pngwutil.c ****       return;
 4122              		.loc 1 83 4 view .LVU1231
  83:fltk-1.3.4-1/png/pngwutil.c ****       return;
 4123              		.loc 1 83 7 is_stmt 0 view .LVU1232
 4124 00d6 4D85F6   		testq	%r14, %r14
 4125 00d9 0F849100 		je	.L344
 4125      0000
 4126 00df BE504343 		movl	$1766015824, %esi
 4126      69
 4127 00e4 4C89F7   		movq	%r14, %rdi
 4128 00e7 E8000000 		call	png_write_chunk_header.part.0
 4128      00
 4129              	.LVL386:
  83:fltk-1.3.4-1/png/pngwutil.c ****       return;
 4130              		.loc 1 83 7 view .LVU1233
 4131              	.LBE334:
 4132              	.LBE333:
1243:fltk-1.3.4-1/png/pngwutil.c **** 
 4133              		.loc 1 1243 4 is_stmt 1 view .LVU1234
 4134 00ec 4489E2   		movl	%r12d, %edx
 4135              	.LVL387:
 4136              	.LBB335:
 4137              	.LBI335:
 127:fltk-1.3.4-1/png/pngwutil.c ****     png_size_t length)
 4138              		.loc 1 127 1 view .LVU1235
 4139              	.LBB336:
 131:fltk-1.3.4-1/png/pngwutil.c ****       return;
 4140              		.loc 1 131 4 view .LVU1236
 134:fltk-1.3.4-1/png/pngwutil.c ****    {
 4141              		.loc 1 134 4 view .LVU1237
 134:fltk-1.3.4-1/png/pngwutil.c ****    {
 4142              		.loc 1 134 7 is_stmt 0 view .LVU1238
 4143 00ef 4885D2   		testq	%rdx, %rdx
 4144 00f2 7554     		jne	.L360
 4145              	.LVL388:
 4146              	.L345:
 134:fltk-1.3.4-1/png/pngwutil.c ****    {
 4147              		.loc 1 134 7 view .LVU1239
 4148              	.LBE336:
 4149              	.LBE335:
1245:fltk-1.3.4-1/png/pngwutil.c **** 
 4150              		.loc 1 1245 4 is_stmt 1 view .LVU1240
 4151 00f4 4C89F7   		movq	%r14, %rdi
 4152 00f7 4889EE   		movq	%rbp, %rsi
 4153 00fa E8000000 		call	png_write_compressed_data_out
 4153      00
 4154              	.LVL389:
1247:fltk-1.3.4-1/png/pngwutil.c **** }
 4155              		.loc 1 1247 4 view .LVU1241
 4156              	.LBB339:
 4157              	.LBI339:
 147:fltk-1.3.4-1/png/pngwutil.c **** {
 4158              		.loc 1 147 1 view .LVU1242
 4159              	.LBB340:
 149:fltk-1.3.4-1/png/pngwutil.c **** 
 4160              		.loc 1 149 4 view .LVU1243
 151:fltk-1.3.4-1/png/pngwutil.c **** 
 4161              		.loc 1 151 4 view .LVU1244
 151:fltk-1.3.4-1/png/pngwutil.c **** 
 4162              		.loc 1 151 4 is_stmt 0 view .LVU1245
 4163 00ff 4C89F7   		movq	%r14, %rdi
 4164 0102 E8000000 		call	png_write_chunk_end.part.0
 4164      00
 4165              	.LVL390:
 4166              	.L336:
 151:fltk-1.3.4-1/png/pngwutil.c **** 
 4167              		.loc 1 151 4 view .LVU1246
 4168              	.LBE340:
 4169              	.LBE339:
1248:fltk-1.3.4-1/png/pngwutil.c **** #endif
 4170              		.loc 1 1248 1 view .LVU1247
 4171 0107 488B8424 		movq	1144(%rsp), %rax
 4171      78040000 
 4172 010f 64483304 		xorq	%fs:40, %rax
 4172      25280000 
 4172      00
 4173 0118 757A     		jne	.L361
 4174 011a 4881C480 		addq	$1152, %rsp
 4174      040000
 4175              		.cfi_remember_state
 4176              		.cfi_def_cfa_offset 48
 4177 0121 5B       		popq	%rbx
 4178              		.cfi_def_cfa_offset 40
 4179              	.LVL391:
1248:fltk-1.3.4-1/png/pngwutil.c **** #endif
 4180              		.loc 1 1248 1 view .LVU1248
 4181 0122 5D       		popq	%rbp
 4182              		.cfi_def_cfa_offset 32
 4183 0123 415C     		popq	%r12
 4184              		.cfi_def_cfa_offset 24
 4185              	.LVL392:
1248:fltk-1.3.4-1/png/pngwutil.c **** #endif
 4186              		.loc 1 1248 1 view .LVU1249
 4187 0125 415D     		popq	%r13
 4188              		.cfi_def_cfa_offset 16
 4189 0127 415E     		popq	%r14
 4190              		.cfi_def_cfa_offset 8
 4191              	.LVL393:
1248:fltk-1.3.4-1/png/pngwutil.c **** #endif
 4192              		.loc 1 1248 1 view .LVU1250
 4193 0129 C3       		ret
 4194              	.LVL394:
 4195 012a 660F1F44 		.p2align 4,,10
 4195      0000
 4196              		.p2align 3
 4197              	.L357:
 4198              		.cfi_restore_state
1215:fltk-1.3.4-1/png/pngwutil.c ****       png_error(png_ptr, "ICC profile length invalid (not a multiple of 4)");
 4199              		.loc 1 1215 17 discriminator 1 view .LVU1251
 4200 0130 F6C303   		testb	$3, %bl
 4201 0133 0F8432FF 		je	.L339
 4201      FFFF
1216:fltk-1.3.4-1/png/pngwutil.c **** 
 4202              		.loc 1 1216 7 is_stmt 1 view .LVU1252
 4203 0139 488D3500 		leaq	.LC24(%rip), %rsi
 4203      000000
 4204              	.LVL395:
1216:fltk-1.3.4-1/png/pngwutil.c **** 
 4205              		.loc 1 1216 7 is_stmt 0 view .LVU1253
 4206 0140 E8000000 		call	png_error@PLT
 4206      00
 4207              	.LVL396:
 4208              		.p2align 4,,10
 4209 0145 0F1F00   		.p2align 3
 4210              	.L360:
 4211              	.LBB342:
 4212              	.LBB337:
1216:fltk-1.3.4-1/png/pngwutil.c **** 
 4213              		.loc 1 1216 7 view .LVU1254
 4214 0148 4C89EE   		movq	%r13, %rsi
 4215 014b 4C89F7   		movq	%r14, %rdi
 4216 014e E8000000 		call	png_write_chunk_data.part.0
 4216      00
 4217              	.LVL397:
1216:fltk-1.3.4-1/png/pngwutil.c **** 
 4218              		.loc 1 1216 7 view .LVU1255
 4219 0153 EB9F     		jmp	.L345
 4220              	.LVL398:
 4221              		.p2align 4,,10
 4222 0155 0F1F00   		.p2align 3
 4223              	.L358:
1216:fltk-1.3.4-1/png/pngwutil.c **** 
 4224              		.loc 1 1216 7 view .LVU1256
 4225              	.LBE337:
 4226              	.LBE342:
 4227              	.LBB343:
 4228              	.LBB326:
 692:fltk-1.3.4-1/png/pngwutil.c ****       return 0;
 4229              		.loc 1 692 7 is_stmt 1 view .LVU1257
 692:fltk-1.3.4-1/png/pngwutil.c ****       return 0;
 4230              		.loc 1 692 16 is_stmt 0 view .LVU1258
 4231 0158 C6842420 		movb	$0, 1056(%rsp)
 4231      04000000 
 693:fltk-1.3.4-1/png/pngwutil.c ****    }
 4232              		.loc 1 693 7 is_stmt 1 view .LVU1259
 4233              	.LVL399:
 693:fltk-1.3.4-1/png/pngwutil.c ****    }
 4234              		.loc 1 693 7 is_stmt 0 view .LVU1260
 4235              	.LBE326:
 4236              	.LBE343:
1227:fltk-1.3.4-1/png/pngwutil.c ****       png_error(png_ptr, "iCCP: invalid keyword");
 4237              		.loc 1 1227 4 is_stmt 1 view .LVU1261
 4238              	.L341:
1228:fltk-1.3.4-1/png/pngwutil.c **** 
 4239              		.loc 1 1228 7 view .LVU1262
 4240 0160 488D3500 		leaq	.LC25(%rip), %rsi
 4240      000000
 4241 0167 4C89F7   		movq	%r14, %rdi
 4242 016a E8000000 		call	png_error@PLT
 4242      00
 4243              	.LVL400:
 4244 016f 90       		.p2align 4,,10
 4245              		.p2align 3
 4246              	.L344:
1243:fltk-1.3.4-1/png/pngwutil.c **** 
 4247              		.loc 1 1243 4 view .LVU1263
 4248              	.LBB344:
 127:fltk-1.3.4-1/png/pngwutil.c ****     png_size_t length)
 4249              		.loc 1 127 1 view .LVU1264
 4250              	.LBB338:
 131:fltk-1.3.4-1/png/pngwutil.c ****       return;
 4251              		.loc 1 131 4 view .LVU1265
 131:fltk-1.3.4-1/png/pngwutil.c ****       return;
 4252              		.loc 1 131 4 is_stmt 0 view .LVU1266
 4253              	.LBE338:
 4254              	.LBE344:
1245:fltk-1.3.4-1/png/pngwutil.c **** 
 4255              		.loc 1 1245 4 is_stmt 1 view .LVU1267
 4256 0170 4889EE   		movq	%rbp, %rsi
 4257 0173 31FF     		xorl	%edi, %edi
 4258 0175 E8000000 		call	png_write_compressed_data_out
 4258      00
 4259              	.LVL401:
1247:fltk-1.3.4-1/png/pngwutil.c **** }
 4260              		.loc 1 1247 4 view .LVU1268
 4261              	.LBB345:
 147:fltk-1.3.4-1/png/pngwutil.c **** {
 4262              		.loc 1 147 1 view .LVU1269
 4263              	.LBB341:
 149:fltk-1.3.4-1/png/pngwutil.c **** 
 4264              		.loc 1 149 4 view .LVU1270
 151:fltk-1.3.4-1/png/pngwutil.c **** 
 4265              		.loc 1 151 4 view .LVU1271
 4266 017a EB8B     		jmp	.L336
 4267              	.LVL402:
 4268              	.L355:
 151:fltk-1.3.4-1/png/pngwutil.c **** 
 4269              		.loc 1 151 4 is_stmt 0 view .LVU1272
 4270              	.LBE341:
 4271              	.LBE345:
1207:fltk-1.3.4-1/png/pngwutil.c **** 
 4272              		.loc 1 1207 7 is_stmt 1 view .LVU1273
 4273 017c 488D3500 		leaq	.LC22(%rip), %rsi
 4273      000000
 4274              	.LVL403:
1207:fltk-1.3.4-1/png/pngwutil.c **** 
 4275              		.loc 1 1207 7 is_stmt 0 view .LVU1274
 4276 0183 E8000000 		call	png_error@PLT
 4276      00
 4277              	.LVL404:
 4278              	.L356:
1212:fltk-1.3.4-1/png/pngwutil.c **** 
 4279              		.loc 1 1212 7 is_stmt 1 view .LVU1275
 4280 0188 488D3500 		leaq	.LC23(%rip), %rsi
 4280      000000
 4281              	.LVL405:
1212:fltk-1.3.4-1/png/pngwutil.c **** 
 4282              		.loc 1 1212 7 is_stmt 0 view .LVU1276
 4283 018f E8000000 		call	png_error@PLT
 4283      00
 4284              	.LVL406:
 4285              	.L361:
1248:fltk-1.3.4-1/png/pngwutil.c **** #endif
 4286              		.loc 1 1248 1 view .LVU1277
 4287 0194 E8000000 		call	__stack_chk_fail@PLT
 4287      00
 4288              	.LVL407:
 4289              	.L359:
1239:fltk-1.3.4-1/png/pngwutil.c **** 
 4290              		.loc 1 1239 7 is_stmt 1 view .LVU1278
 4291 0199 498BB670 		movq	368(%r14), %rsi
 4291      010000
 4292 01a0 4C89F7   		movq	%r14, %rdi
 4293 01a3 E8000000 		call	png_error@PLT
 4293      00
 4294              	.LVL408:
 4295              		.cfi_endproc
 4296              	.LFE64:
 4298              		.section	.rodata.png_write_sPLT.str1.1,"aMS",@progbits,1
 4299              	.LC26:
 4300 0000 73504C54 		.string	"sPLT: invalid keyword"
 4300      3A20696E 
 4300      76616C69 
 4300      64206B65 
 4300      79776F72 
 4301              		.section	.text.png_write_sPLT,"ax",@progbits
 4302              		.p2align 4
 4303              		.globl	png_write_sPLT
 4305              	png_write_sPLT:
 4306              	.LVL409:
 4307              	.LFB65:
1255:fltk-1.3.4-1/png/pngwutil.c ****    png_uint_32 name_len;
 4308              		.loc 1 1255 1 view -0
 4309              		.cfi_startproc
1255:fltk-1.3.4-1/png/pngwutil.c ****    png_uint_32 name_len;
 4310              		.loc 1 1255 1 is_stmt 0 view .LVU1280
 4311 0000 F30F1EFA 		endbr64
 4312 0004 4157     		pushq	%r15
 4313              		.cfi_def_cfa_offset 16
 4314              		.cfi_offset 15, -16
 4315 0006 4156     		pushq	%r14
 4316              		.cfi_def_cfa_offset 24
 4317              		.cfi_offset 14, -24
 4318 0008 4989FE   		movq	%rdi, %r14
 4319 000b 4155     		pushq	%r13
 4320              		.cfi_def_cfa_offset 32
 4321              		.cfi_offset 13, -32
 4322 000d 4154     		pushq	%r12
 4323              		.cfi_def_cfa_offset 40
 4324              		.cfi_offset 12, -40
1259:fltk-1.3.4-1/png/pngwutil.c ****    png_size_t palette_size = entry_size * spalette->nentries;
 4325              		.loc 1 1259 54 view .LVU1281
 4326 000f 4531E4   		xorl	%r12d, %r12d
1255:fltk-1.3.4-1/png/pngwutil.c ****    png_uint_32 name_len;
 4327              		.loc 1 1255 1 view .LVU1282
 4328 0012 55       		pushq	%rbp
 4329              		.cfi_def_cfa_offset 48
 4330              		.cfi_offset 6, -48
 4331 0013 4889F5   		movq	%rsi, %rbp
 4332 0016 53       		pushq	%rbx
 4333              		.cfi_def_cfa_offset 56
 4334              		.cfi_offset 3, -56
 4335 0017 4883EC78 		subq	$120, %rsp
 4336              		.cfi_def_cfa_offset 176
1255:fltk-1.3.4-1/png/pngwutil.c ****    png_uint_32 name_len;
 4337              		.loc 1 1255 1 view .LVU1283
 4338 001b 64488B04 		movq	%fs:40, %rax
 4338      25280000 
 4338      00
 4339 0024 48894424 		movq	%rax, 104(%rsp)
 4339      68
 4340 0029 31C0     		xorl	%eax, %eax
1256:fltk-1.3.4-1/png/pngwutil.c ****    png_byte new_name[80];
 4341              		.loc 1 1256 4 is_stmt 1 view .LVU1284
1257:fltk-1.3.4-1/png/pngwutil.c ****    png_byte entrybuf[10];
 4342              		.loc 1 1257 4 view .LVU1285
1258:fltk-1.3.4-1/png/pngwutil.c ****    png_size_t entry_size = (spalette->depth == 8 ? 6 : 10);
 4343              		.loc 1 1258 4 view .LVU1286
1259:fltk-1.3.4-1/png/pngwutil.c ****    png_size_t palette_size = entry_size * spalette->nentries;
 4344              		.loc 1 1259 4 view .LVU1287
1259:fltk-1.3.4-1/png/pngwutil.c ****    png_size_t palette_size = entry_size * spalette->nentries;
 4345              		.loc 1 1259 54 is_stmt 0 view .LVU1288
 4346 002b 807E0808 		cmpb	$8, 8(%rsi)
1260:fltk-1.3.4-1/png/pngwutil.c ****    png_sPLT_entryp ep;
 4347              		.loc 1 1260 51 view .LVU1289
 4348 002f 48634618 		movslq	24(%rsi), %rax
1259:fltk-1.3.4-1/png/pngwutil.c ****    png_size_t palette_size = entry_size * spalette->nentries;
 4349              		.loc 1 1259 54 view .LVU1290
 4350 0033 410F95C4 		setne	%r12b
1268:fltk-1.3.4-1/png/pngwutil.c **** 
 4351              		.loc 1 1268 50 view .LVU1291
 4352 0037 488B36   		movq	(%rsi), %rsi
 4353              	.LVL410:
1259:fltk-1.3.4-1/png/pngwutil.c ****    png_size_t palette_size = entry_size * spalette->nentries;
 4354              		.loc 1 1259 54 view .LVU1292
 4355 003a 4E8D24A5 		leaq	6(,%r12,4), %r12
 4355      06000000 
 4356              	.LVL411:
1260:fltk-1.3.4-1/png/pngwutil.c ****    png_sPLT_entryp ep;
 4357              		.loc 1 1260 4 is_stmt 1 view .LVU1293
1260:fltk-1.3.4-1/png/pngwutil.c ****    png_sPLT_entryp ep;
 4358              		.loc 1 1260 15 is_stmt 0 view .LVU1294
 4359 0042 490FAFC4 		imulq	%r12, %rax
 4360              	.LVL412:
1261:fltk-1.3.4-1/png/pngwutil.c **** #ifndef PNG_POINTER_INDEXING_SUPPORTED
 4361              		.loc 1 1261 4 is_stmt 1 view .LVU1295
1266:fltk-1.3.4-1/png/pngwutil.c **** 
 4362              		.loc 1 1266 4 view .LVU1296
1268:fltk-1.3.4-1/png/pngwutil.c **** 
 4363              		.loc 1 1268 4 view .LVU1297
 4364              	.LBB346:
 4365              	.LBI346:
 681:fltk-1.3.4-1/png/pngwutil.c **** {
 4366              		.loc 1 681 1 view .LVU1298
 4367              	.LBB347:
 683:fltk-1.3.4-1/png/pngwutil.c ****    png_uint_32 key_len = 0;
 4368              		.loc 1 683 4 view .LVU1299
 684:fltk-1.3.4-1/png/pngwutil.c ****    int bad_character = 0;
 4369              		.loc 1 684 4 view .LVU1300
 685:fltk-1.3.4-1/png/pngwutil.c ****    int space = 1;
 4370              		.loc 1 685 4 view .LVU1301
 686:fltk-1.3.4-1/png/pngwutil.c **** 
 4371              		.loc 1 686 4 view .LVU1302
 688:fltk-1.3.4-1/png/pngwutil.c **** 
 4372              		.loc 1 688 4 view .LVU1303
 690:fltk-1.3.4-1/png/pngwutil.c ****    {
 4373              		.loc 1 690 4 view .LVU1304
 690:fltk-1.3.4-1/png/pngwutil.c ****    {
 4374              		.loc 1 690 7 is_stmt 0 view .LVU1305
 4375 0046 4885F6   		testq	%rsi, %rsi
 4376 0049 0F848901 		je	.L387
 4376      0000
 4377 004f 4C8D6C24 		leaq	16(%rsp), %r13
 4377      10
 4378              	.LVL413:
 690:fltk-1.3.4-1/png/pngwutil.c ****    {
 4379              		.loc 1 690 7 view .LVU1306
 4380 0054 4989C7   		movq	%rax, %r15
 4381 0057 4C89EA   		movq	%r13, %rdx
 4382 005a E8000000 		call	png_check_keyword.part.0
 4382      00
 4383              	.LVL414:
 690:fltk-1.3.4-1/png/pngwutil.c ****    {
 4384              		.loc 1 690 7 view .LVU1307
 4385 005f 89C3     		movl	%eax, %ebx
 4386              	.LVL415:
 690:fltk-1.3.4-1/png/pngwutil.c ****    {
 4387              		.loc 1 690 7 view .LVU1308
 4388              	.LBE347:
 4389              	.LBE346:
1270:fltk-1.3.4-1/png/pngwutil.c ****       png_error(png_ptr, "sPLT: invalid keyword");
 4390              		.loc 1 1270 4 is_stmt 1 view .LVU1309
1270:fltk-1.3.4-1/png/pngwutil.c ****       png_error(png_ptr, "sPLT: invalid keyword");
 4391              		.loc 1 1270 7 is_stmt 0 view .LVU1310
 4392 0061 85C0     		testl	%eax, %eax
 4393 0063 0F847401 		je	.L365
 4393      0000
1274:fltk-1.3.4-1/png/pngwutil.c ****        (png_uint_32)(name_len + 2 + palette_size));
 4394              		.loc 1 1274 4 is_stmt 1 view .LVU1311
 4395 0069 428D5438 		leal	2(%rax,%r15), %edx
 4395      02
 4396              	.LVL416:
 4397              	.LBB349:
 4398              	.LBI349:
  73:fltk-1.3.4-1/png/pngwutil.c ****     png_uint_32 length)
 4399              		.loc 1 73 1 view .LVU1312
 4400              	.LBB350:
  76:fltk-1.3.4-1/png/pngwutil.c **** 
 4401              		.loc 1 76 4 view .LVU1313
  83:fltk-1.3.4-1/png/pngwutil.c ****       return;
 4402              		.loc 1 83 4 view .LVU1314
  83:fltk-1.3.4-1/png/pngwutil.c ****       return;
 4403              		.loc 1 83 7 is_stmt 0 view .LVU1315
 4404 006e 4D85F6   		testq	%r14, %r14
 4405 0071 0F843901 		je	.L367
 4405      0000
 4406 0077 BE544C50 		movl	$1934642260, %esi
 4406      73
 4407 007c 4C89F7   		movq	%r14, %rdi
 4408 007f E8000000 		call	png_write_chunk_header.part.0
 4408      00
 4409              	.LVL417:
  83:fltk-1.3.4-1/png/pngwutil.c ****       return;
 4410              		.loc 1 83 7 view .LVU1316
 4411              	.LBE350:
 4412              	.LBE349:
1277:fltk-1.3.4-1/png/pngwutil.c ****        (png_size_t)(name_len + 1));
 4413              		.loc 1 1277 4 is_stmt 1 view .LVU1317
 4414 0084 8D5301   		leal	1(%rbx), %edx
 4415              	.LVL418:
 4416              	.LBB351:
 4417              	.LBI351:
 127:fltk-1.3.4-1/png/pngwutil.c ****     png_size_t length)
 4418              		.loc 1 127 1 view .LVU1318
 4419              	.LBB352:
 131:fltk-1.3.4-1/png/pngwutil.c ****       return;
 4420              		.loc 1 131 4 view .LVU1319
 134:fltk-1.3.4-1/png/pngwutil.c ****    {
 4421              		.loc 1 134 4 view .LVU1320
 134:fltk-1.3.4-1/png/pngwutil.c ****    {
 4422              		.loc 1 134 7 is_stmt 0 view .LVU1321
 4423 0087 4885D2   		testq	%rdx, %rdx
 4424 008a 0F850801 		jne	.L388
 4424      0000
 4425              	.LVL419:
 4426              	.L368:
 134:fltk-1.3.4-1/png/pngwutil.c ****    {
 4427              		.loc 1 134 7 view .LVU1322
 4428              	.LBE352:
 4429              	.LBE351:
1280:fltk-1.3.4-1/png/pngwutil.c **** 
 4430              		.loc 1 1280 4 is_stmt 1 view .LVU1323
 4431              	.LBB354:
 4432              	.LBI354:
 127:fltk-1.3.4-1/png/pngwutil.c ****     png_size_t length)
 4433              		.loc 1 127 1 view .LVU1324
 4434              	.LBB355:
 131:fltk-1.3.4-1/png/pngwutil.c ****       return;
 4435              		.loc 1 131 4 view .LVU1325
 134:fltk-1.3.4-1/png/pngwutil.c ****    {
 4436              		.loc 1 134 4 view .LVU1326
 4437 0090 4C89F7   		movq	%r14, %rdi
 4438              	.LBE355:
 4439              	.LBE354:
1280:fltk-1.3.4-1/png/pngwutil.c **** 
 4440              		.loc 1 1280 4 is_stmt 0 view .LVU1327
 4441 0093 488D7508 		leaq	8(%rbp), %rsi
 4442              	.LVL420:
 4443              	.LBB357:
 4444              	.LBB356:
1280:fltk-1.3.4-1/png/pngwutil.c **** 
 4445              		.loc 1 1280 4 view .LVU1328
 4446 0097 BA010000 		movl	$1, %edx
 4446      00
 4447 009c E8000000 		call	png_write_chunk_data.part.0
 4447      00
 4448              	.LVL421:
1280:fltk-1.3.4-1/png/pngwutil.c **** 
 4449              		.loc 1 1280 4 view .LVU1329
 4450              	.LBE356:
 4451              	.LBE357:
1284:fltk-1.3.4-1/png/pngwutil.c ****    {
 4452              		.loc 1 1284 4 is_stmt 1 view .LVU1330
1284:fltk-1.3.4-1/png/pngwutil.c ****    {
 4453              		.loc 1 1284 64 is_stmt 0 view .LVU1331
 4454 00a1 48634518 		movslq	24(%rbp), %rax
1284:fltk-1.3.4-1/png/pngwutil.c ****    {
 4455              		.loc 1 1284 12 view .LVU1332
 4456 00a5 488B7D10 		movq	16(%rbp), %rdi
1284:fltk-1.3.4-1/png/pngwutil.c ****    {
 4457              		.loc 1 1284 64 view .LVU1333
 4458 00a9 4989C0   		movq	%rax, %r8
1284:fltk-1.3.4-1/png/pngwutil.c ****    {
 4459              		.loc 1 1284 54 view .LVU1334
 4460 00ac 488D0480 		leaq	(%rax,%rax,4), %rax
1284:fltk-1.3.4-1/png/pngwutil.c ****    {
 4461              		.loc 1 1284 12 view .LVU1335
 4462 00b0 4889FB   		movq	%rdi, %rbx
 4463              	.LVL422:
1284:fltk-1.3.4-1/png/pngwutil.c ****    {
 4464              		.loc 1 1284 33 is_stmt 1 view .LVU1336
1284:fltk-1.3.4-1/png/pngwutil.c ****    {
 4465              		.loc 1 1284 54 is_stmt 0 view .LVU1337
 4466 00b3 488D0447 		leaq	(%rdi,%rax,2), %rax
1284:fltk-1.3.4-1/png/pngwutil.c ****    {
 4467              		.loc 1 1284 4 view .LVU1338
 4468 00b7 4839C7   		cmpq	%rax, %rdi
 4469 00ba 0F83AD00 		jnb	.L373
 4469      0000
 4470              	.L375:
 4471              	.LBB358:
 4472              	.LBB359:
1284:fltk-1.3.4-1/png/pngwutil.c ****    {
 4473              		.loc 1 1284 4 view .LVU1339
 4474 00c0 4C8D6C24 		leaq	6(%rsp), %r13
 4474      06
 4475 00c5 EB67     		jmp	.L372
 4476 00c7 660F1F84 		.p2align 4,,10
 4476      00000000 
 4476      00
 4477              		.p2align 3
 4478              	.L369:
1284:fltk-1.3.4-1/png/pngwutil.c ****    {
 4479              		.loc 1 1284 4 view .LVU1340
 4480              	.LBE359:
 4481              	.LBE358:
1297:fltk-1.3.4-1/png/pngwutil.c ****          png_save_uint_16(entrybuf + 2, ep->green);
 4482              		.loc 1 1297 10 is_stmt 1 view .LVU1341
 4483              	.LVL423:
 4484              	.LBB361:
 4485              	.LBI361:
  37:fltk-1.3.4-1/png/pngwutil.c **** {
 4486              		.loc 1 37 1 view .LVU1342
 4487              	.LBB362:
  39:fltk-1.3.4-1/png/pngwutil.c ****    buf[1] = (png_byte)(i & 0xff);
 4488              		.loc 1 39 4 view .LVU1343
  40:fltk-1.3.4-1/png/pngwutil.c **** }
 4489              		.loc 1 40 4 view .LVU1344
  39:fltk-1.3.4-1/png/pngwutil.c ****    buf[1] = (png_byte)(i & 0xff);
 4490              		.loc 1 39 11 is_stmt 0 view .LVU1345
 4491 00d0 6641C1C1 		rolw	$8, %r9w
 4491      08
 4492              	.LVL424:
  39:fltk-1.3.4-1/png/pngwutil.c ****    buf[1] = (png_byte)(i & 0xff);
 4493              		.loc 1 39 11 view .LVU1346
 4494              	.LBE362:
 4495              	.LBE361:
 4496              	.LBB364:
 4497              	.LBB365:
 4498 00d5 66C1C608 		rolw	$8, %si
 4499              	.LBE365:
 4500              	.LBE364:
 4501              	.LBB368:
 4502              	.LBB369:
 4503 00d9 66C1C108 		rolw	$8, %cx
 4504              	.LBE369:
 4505              	.LBE368:
 4506              	.LBB371:
 4507              	.LBB372:
 4508 00dd 66C1C208 		rolw	$8, %dx
 4509              	.LBE372:
 4510              	.LBE371:
 4511              	.LBB374:
 4512              	.LBB366:
 4513 00e1 66897424 		movw	%si, 8(%rsp)
 4513      08
 4514              	.LVL425:
  39:fltk-1.3.4-1/png/pngwutil.c ****    buf[1] = (png_byte)(i & 0xff);
 4515              		.loc 1 39 11 view .LVU1347
 4516              	.LBE366:
 4517              	.LBE374:
 4518              	.LBB375:
 4519              	.LBB376:
 4520 00e6 66C1C008 		rolw	$8, %ax
 4521              	.LBE376:
 4522              	.LBE375:
 4523              	.LBB378:
 4524              	.LBB363:
 4525 00ea 6644894C 		movw	%r9w, 6(%rsp)
 4525      2406
 4526              	.LVL426:
  39:fltk-1.3.4-1/png/pngwutil.c ****    buf[1] = (png_byte)(i & 0xff);
 4527              		.loc 1 39 11 view .LVU1348
 4528              	.LBE363:
 4529              	.LBE378:
1298:fltk-1.3.4-1/png/pngwutil.c ****          png_save_uint_16(entrybuf + 4, ep->blue);
 4530              		.loc 1 1298 10 is_stmt 1 view .LVU1349
 4531              	.LBB379:
 4532              	.LBI364:
  37:fltk-1.3.4-1/png/pngwutil.c **** {
 4533              		.loc 1 37 1 view .LVU1350
 4534              	.LBB367:
  39:fltk-1.3.4-1/png/pngwutil.c ****    buf[1] = (png_byte)(i & 0xff);
 4535              		.loc 1 39 4 view .LVU1351
  40:fltk-1.3.4-1/png/pngwutil.c **** }
 4536              		.loc 1 40 4 view .LVU1352
  40:fltk-1.3.4-1/png/pngwutil.c **** }
 4537              		.loc 1 40 4 is_stmt 0 view .LVU1353
 4538              	.LBE367:
 4539              	.LBE379:
1299:fltk-1.3.4-1/png/pngwutil.c ****          png_save_uint_16(entrybuf + 6, ep->alpha);
 4540              		.loc 1 1299 10 is_stmt 1 view .LVU1354
 4541              	.LBB380:
 4542              	.LBI368:
  37:fltk-1.3.4-1/png/pngwutil.c **** {
 4543              		.loc 1 37 1 view .LVU1355
 4544              	.LBB370:
  39:fltk-1.3.4-1/png/pngwutil.c ****    buf[1] = (png_byte)(i & 0xff);
 4545              		.loc 1 39 4 view .LVU1356
  40:fltk-1.3.4-1/png/pngwutil.c **** }
 4546              		.loc 1 40 4 view .LVU1357
  39:fltk-1.3.4-1/png/pngwutil.c ****    buf[1] = (png_byte)(i & 0xff);
 4547              		.loc 1 39 11 is_stmt 0 view .LVU1358
 4548 00f0 66894C24 		movw	%cx, 10(%rsp)
 4548      0A
 4549              	.LVL427:
  39:fltk-1.3.4-1/png/pngwutil.c ****    buf[1] = (png_byte)(i & 0xff);
 4550              		.loc 1 39 11 view .LVU1359
 4551              	.LBE370:
 4552              	.LBE380:
1300:fltk-1.3.4-1/png/pngwutil.c ****          png_save_uint_16(entrybuf + 8, ep->frequency);
 4553              		.loc 1 1300 10 is_stmt 1 view .LVU1360
 4554              	.LBB381:
 4555              	.LBI371:
  37:fltk-1.3.4-1/png/pngwutil.c **** {
 4556              		.loc 1 37 1 view .LVU1361
 4557              	.LBB373:
  39:fltk-1.3.4-1/png/pngwutil.c ****    buf[1] = (png_byte)(i & 0xff);
 4558              		.loc 1 39 4 view .LVU1362
  40:fltk-1.3.4-1/png/pngwutil.c **** }
 4559              		.loc 1 40 4 view .LVU1363
  39:fltk-1.3.4-1/png/pngwutil.c ****    buf[1] = (png_byte)(i & 0xff);
 4560              		.loc 1 39 11 is_stmt 0 view .LVU1364
 4561 00f5 66895424 		movw	%dx, 12(%rsp)
 4561      0C
 4562              	.LVL428:
  39:fltk-1.3.4-1/png/pngwutil.c ****    buf[1] = (png_byte)(i & 0xff);
 4563              		.loc 1 39 11 view .LVU1365
 4564              	.LBE373:
 4565              	.LBE381:
1301:fltk-1.3.4-1/png/pngwutil.c ****       }
 4566              		.loc 1 1301 10 is_stmt 1 view .LVU1366
 4567              	.LBB382:
 4568              	.LBI375:
  37:fltk-1.3.4-1/png/pngwutil.c **** {
 4569              		.loc 1 37 1 view .LVU1367
 4570              	.LBB377:
  39:fltk-1.3.4-1/png/pngwutil.c ****    buf[1] = (png_byte)(i & 0xff);
 4571              		.loc 1 39 4 view .LVU1368
  40:fltk-1.3.4-1/png/pngwutil.c **** }
 4572              		.loc 1 40 4 view .LVU1369
  39:fltk-1.3.4-1/png/pngwutil.c ****    buf[1] = (png_byte)(i & 0xff);
 4573              		.loc 1 39 11 is_stmt 0 view .LVU1370
 4574 00fa 66894424 		movw	%ax, 14(%rsp)
 4574      0E
 4575              	.LVL429:
 4576              	.L370:
  39:fltk-1.3.4-1/png/pngwutil.c ****    buf[1] = (png_byte)(i & 0xff);
 4577              		.loc 1 39 11 view .LVU1371
 4578              	.LBE377:
 4579              	.LBE382:
1304:fltk-1.3.4-1/png/pngwutil.c ****    }
 4580              		.loc 1 1304 7 is_stmt 1 discriminator 2 view .LVU1372
 4581              	.LBB383:
 4582              	.LBI358:
 127:fltk-1.3.4-1/png/pngwutil.c ****     png_size_t length)
 4583              		.loc 1 127 1 discriminator 2 view .LVU1373
 4584              	.LBB360:
 131:fltk-1.3.4-1/png/pngwutil.c ****       return;
 4585              		.loc 1 131 4 discriminator 2 view .LVU1374
 131:fltk-1.3.4-1/png/pngwutil.c ****       return;
 4586              		.loc 1 131 7 is_stmt 0 discriminator 2 view .LVU1375
 4587 00ff 4D85F6   		testq	%r14, %r14
 4588 0102 7416     		je	.L371
 134:fltk-1.3.4-1/png/pngwutil.c ****    {
 4589              		.loc 1 134 4 is_stmt 1 view .LVU1376
 4590 0104 4C89F7   		movq	%r14, %rdi
 4591 0107 4C89E2   		movq	%r12, %rdx
 4592 010a 4C89EE   		movq	%r13, %rsi
 4593 010d E8000000 		call	png_write_chunk_data.part.0
 4593      00
 4594              	.LVL430:
 4595 0112 448B4518 		movl	24(%rbp), %r8d
 4596 0116 488B7D10 		movq	16(%rbp), %rdi
 4597              	.L371:
 4598              	.LVL431:
 134:fltk-1.3.4-1/png/pngwutil.c ****    {
 4599              		.loc 1 134 4 is_stmt 0 view .LVU1377
 4600              	.LBE360:
 4601              	.LBE383:
1284:fltk-1.3.4-1/png/pngwutil.c ****    {
 4602              		.loc 1 1284 76 is_stmt 1 view .LVU1378
1284:fltk-1.3.4-1/png/pngwutil.c ****    {
 4603              		.loc 1 1284 64 is_stmt 0 view .LVU1379
 4604 011a 4963C0   		movslq	%r8d, %rax
1284:fltk-1.3.4-1/png/pngwutil.c ****    {
 4605              		.loc 1 1284 78 view .LVU1380
 4606 011d 4883C30A 		addq	$10, %rbx
 4607              	.LVL432:
1284:fltk-1.3.4-1/png/pngwutil.c ****    {
 4608              		.loc 1 1284 33 is_stmt 1 view .LVU1381
1284:fltk-1.3.4-1/png/pngwutil.c ****    {
 4609              		.loc 1 1284 54 is_stmt 0 view .LVU1382
 4610 0121 488D0480 		leaq	(%rax,%rax,4), %rax
 4611 0125 488D0447 		leaq	(%rdi,%rax,2), %rax
1284:fltk-1.3.4-1/png/pngwutil.c ****    {
 4612              		.loc 1 1284 4 view .LVU1383
 4613 0129 4839C3   		cmpq	%rax, %rbx
 4614 012c 733A     		jnb	.L389
 4615              	.L372:
1286:fltk-1.3.4-1/png/pngwutil.c ****       {
 4616              		.loc 1 1286 7 is_stmt 1 view .LVU1384
1286:fltk-1.3.4-1/png/pngwutil.c ****       {
 4617              		.loc 1 1286 10 is_stmt 0 view .LVU1385
 4618 012e 807D0808 		cmpb	$8, 8(%rbp)
 4619 0132 440FB70B 		movzwl	(%rbx), %r9d
 4620 0136 0FB77302 		movzwl	2(%rbx), %esi
 4621 013a 0FB74B04 		movzwl	4(%rbx), %ecx
 4622 013e 0FB75306 		movzwl	6(%rbx), %edx
 4623 0142 0FB74308 		movzwl	8(%rbx), %eax
 4624 0146 7588     		jne	.L369
1288:fltk-1.3.4-1/png/pngwutil.c ****          entrybuf[1] = (png_byte)ep->green;
 4625              		.loc 1 1288 10 is_stmt 1 view .LVU1386
 4626              	.LBB384:
 4627              	.LBB385:
  39:fltk-1.3.4-1/png/pngwutil.c ****    buf[1] = (png_byte)(i & 0xff);
 4628              		.loc 1 39 11 is_stmt 0 view .LVU1387
 4629 0148 66C1C008 		rolw	$8, %ax
 4630              	.LBE385:
 4631              	.LBE384:
1288:fltk-1.3.4-1/png/pngwutil.c ****          entrybuf[1] = (png_byte)ep->green;
 4632              		.loc 1 1288 22 view .LVU1388
 4633 014c 44884C24 		movb	%r9b, 6(%rsp)
 4633      06
1289:fltk-1.3.4-1/png/pngwutil.c ****          entrybuf[2] = (png_byte)ep->blue;
 4634              		.loc 1 1289 10 is_stmt 1 view .LVU1389
1289:fltk-1.3.4-1/png/pngwutil.c ****          entrybuf[2] = (png_byte)ep->blue;
 4635              		.loc 1 1289 22 is_stmt 0 view .LVU1390
 4636 0151 40887424 		movb	%sil, 7(%rsp)
 4636      07
1290:fltk-1.3.4-1/png/pngwutil.c ****          entrybuf[3] = (png_byte)ep->alpha;
 4637              		.loc 1 1290 10 is_stmt 1 view .LVU1391
1290:fltk-1.3.4-1/png/pngwutil.c ****          entrybuf[3] = (png_byte)ep->alpha;
 4638              		.loc 1 1290 22 is_stmt 0 view .LVU1392
 4639 0156 884C2408 		movb	%cl, 8(%rsp)
1291:fltk-1.3.4-1/png/pngwutil.c ****          png_save_uint_16(entrybuf + 4, ep->frequency);
 4640              		.loc 1 1291 10 is_stmt 1 view .LVU1393
1291:fltk-1.3.4-1/png/pngwutil.c ****          png_save_uint_16(entrybuf + 4, ep->frequency);
 4641              		.loc 1 1291 22 is_stmt 0 view .LVU1394
 4642 015a 88542409 		movb	%dl, 9(%rsp)
1292:fltk-1.3.4-1/png/pngwutil.c ****       }
 4643              		.loc 1 1292 10 is_stmt 1 view .LVU1395
 4644              	.LVL433:
 4645              	.LBB387:
 4646              	.LBI384:
  37:fltk-1.3.4-1/png/pngwutil.c **** {
 4647              		.loc 1 37 1 view .LVU1396
 4648              	.LBB386:
  39:fltk-1.3.4-1/png/pngwutil.c ****    buf[1] = (png_byte)(i & 0xff);
 4649              		.loc 1 39 4 view .LVU1397
  40:fltk-1.3.4-1/png/pngwutil.c **** }
 4650              		.loc 1 40 4 view .LVU1398
  39:fltk-1.3.4-1/png/pngwutil.c ****    buf[1] = (png_byte)(i & 0xff);
 4651              		.loc 1 39 11 is_stmt 0 view .LVU1399
 4652 015e 66894424 		movw	%ax, 10(%rsp)
 4652      0A
  41:fltk-1.3.4-1/png/pngwutil.c **** #endif
 4653              		.loc 1 41 1 view .LVU1400
 4654 0163 EB9A     		jmp	.L370
 4655              	.LVL434:
 4656              		.p2align 4,,10
 4657 0165 0F1F00   		.p2align 3
 4658              	.L389:
  41:fltk-1.3.4-1/png/pngwutil.c **** #endif
 4659              		.loc 1 41 1 view .LVU1401
 4660              	.LBE386:
 4661              	.LBE387:
1332:fltk-1.3.4-1/png/pngwutil.c **** }
 4662              		.loc 1 1332 4 is_stmt 1 view .LVU1402
 4663              	.LBB388:
 4664              	.LBI388:
 147:fltk-1.3.4-1/png/pngwutil.c **** {
 4665              		.loc 1 147 1 view .LVU1403
 4666              	.LBB389:
 149:fltk-1.3.4-1/png/pngwutil.c **** 
 4667              		.loc 1 149 4 view .LVU1404
 151:fltk-1.3.4-1/png/pngwutil.c **** 
 4668              		.loc 1 151 4 view .LVU1405
 151:fltk-1.3.4-1/png/pngwutil.c **** 
 4669              		.loc 1 151 7 is_stmt 0 view .LVU1406
 4670 0168 4D85F6   		testq	%r14, %r14
 4671 016b 7408     		je	.L362
 4672              	.LVL435:
 4673              	.L373:
 151:fltk-1.3.4-1/png/pngwutil.c **** 
 4674              		.loc 1 151 7 view .LVU1407
 4675 016d 4C89F7   		movq	%r14, %rdi
 4676 0170 E8000000 		call	png_write_chunk_end.part.0
 4676      00
 4677              	.LVL436:
 4678              	.L362:
 151:fltk-1.3.4-1/png/pngwutil.c **** 
 4679              		.loc 1 151 7 view .LVU1408
 4680              	.LBE389:
 4681              	.LBE388:
1333:fltk-1.3.4-1/png/pngwutil.c **** #endif
 4682              		.loc 1 1333 1 view .LVU1409
 4683 0175 488B4424 		movq	104(%rsp), %rax
 4683      68
 4684 017a 64483304 		xorq	%fs:40, %rax
 4684      25280000 
 4684      00
 4685 0183 7567     		jne	.L390
 4686 0185 4883C478 		addq	$120, %rsp
 4687              		.cfi_remember_state
 4688              		.cfi_def_cfa_offset 56
 4689 0189 5B       		popq	%rbx
 4690              		.cfi_def_cfa_offset 48
 4691              	.LVL437:
1333:fltk-1.3.4-1/png/pngwutil.c **** #endif
 4692              		.loc 1 1333 1 view .LVU1410
 4693 018a 5D       		popq	%rbp
 4694              		.cfi_def_cfa_offset 40
 4695              	.LVL438:
1333:fltk-1.3.4-1/png/pngwutil.c **** #endif
 4696              		.loc 1 1333 1 view .LVU1411
 4697 018b 415C     		popq	%r12
 4698              		.cfi_def_cfa_offset 32
 4699              	.LVL439:
1333:fltk-1.3.4-1/png/pngwutil.c **** #endif
 4700              		.loc 1 1333 1 view .LVU1412
 4701 018d 415D     		popq	%r13
 4702              		.cfi_def_cfa_offset 24
 4703 018f 415E     		popq	%r14
 4704              		.cfi_def_cfa_offset 16
 4705              	.LVL440:
1333:fltk-1.3.4-1/png/pngwutil.c **** #endif
 4706              		.loc 1 1333 1 view .LVU1413
 4707 0191 415F     		popq	%r15
 4708              		.cfi_def_cfa_offset 8
 4709              	.LVL441:
1333:fltk-1.3.4-1/png/pngwutil.c **** #endif
 4710              		.loc 1 1333 1 view .LVU1414
 4711 0193 C3       		ret
 4712              	.LVL442:
 4713              		.p2align 4,,10
 4714 0194 0F1F4000 		.p2align 3
 4715              	.L388:
 4716              		.cfi_restore_state
 4717              	.LBB390:
 4718              	.LBB353:
1333:fltk-1.3.4-1/png/pngwutil.c **** #endif
 4719              		.loc 1 1333 1 view .LVU1415
 4720 0198 4C89EE   		movq	%r13, %rsi
 4721 019b 4C89F7   		movq	%r14, %rdi
 4722 019e E8000000 		call	png_write_chunk_data.part.0
 4722      00
 4723              	.LVL443:
1333:fltk-1.3.4-1/png/pngwutil.c **** #endif
 4724              		.loc 1 1333 1 view .LVU1416
 4725 01a3 E9E8FEFF 		jmp	.L368
 4725      FF
 4726              	.LVL444:
 4727 01a8 0F1F8400 		.p2align 4,,10
 4727      00000000 
 4728              		.p2align 3
 4729              	.L367:
1333:fltk-1.3.4-1/png/pngwutil.c **** #endif
 4730              		.loc 1 1333 1 view .LVU1417
 4731              	.LBE353:
 4732              	.LBE390:
1284:fltk-1.3.4-1/png/pngwutil.c ****    {
 4733              		.loc 1 1284 4 is_stmt 1 view .LVU1418
1284:fltk-1.3.4-1/png/pngwutil.c ****    {
 4734              		.loc 1 1284 64 is_stmt 0 view .LVU1419
 4735 01b0 48634518 		movslq	24(%rbp), %rax
 4736              	.LVL445:
1284:fltk-1.3.4-1/png/pngwutil.c ****    {
 4737              		.loc 1 1284 12 view .LVU1420
 4738 01b4 488B7D10 		movq	16(%rbp), %rdi
1284:fltk-1.3.4-1/png/pngwutil.c ****    {
 4739              		.loc 1 1284 64 view .LVU1421
 4740 01b8 4989C0   		movq	%rax, %r8
1284:fltk-1.3.4-1/png/pngwutil.c ****    {
 4741              		.loc 1 1284 54 view .LVU1422
 4742 01bb 488D0480 		leaq	(%rax,%rax,4), %rax
1284:fltk-1.3.4-1/png/pngwutil.c ****    {
 4743              		.loc 1 1284 12 view .LVU1423
 4744 01bf 4889FB   		movq	%rdi, %rbx
 4745              	.LVL446:
1284:fltk-1.3.4-1/png/pngwutil.c ****    {
 4746              		.loc 1 1284 33 is_stmt 1 view .LVU1424
1284:fltk-1.3.4-1/png/pngwutil.c ****    {
 4747              		.loc 1 1284 54 is_stmt 0 view .LVU1425
 4748 01c2 488D0447 		leaq	(%rdi,%rax,2), %rax
1284:fltk-1.3.4-1/png/pngwutil.c ****    {
 4749              		.loc 1 1284 4 view .LVU1426
 4750 01c6 4839C7   		cmpq	%rax, %rdi
 4751 01c9 0F82F1FE 		jb	.L375
 4751      FFFF
 4752 01cf EBA4     		jmp	.L362
 4753              	.LVL447:
 4754              		.p2align 4,,10
 4755 01d1 0F1F8000 		.p2align 3
 4755      000000
 4756              	.L387:
 4757              	.LBB391:
 4758              	.LBB348:
 692:fltk-1.3.4-1/png/pngwutil.c ****       return 0;
 4759              		.loc 1 692 7 is_stmt 1 view .LVU1427
 692:fltk-1.3.4-1/png/pngwutil.c ****       return 0;
 4760              		.loc 1 692 16 is_stmt 0 view .LVU1428
 4761 01d8 C6442410 		movb	$0, 16(%rsp)
 4761      00
 693:fltk-1.3.4-1/png/pngwutil.c ****    }
 4762              		.loc 1 693 7 is_stmt 1 view .LVU1429
 4763              	.LVL448:
 693:fltk-1.3.4-1/png/pngwutil.c ****    }
 4764              		.loc 1 693 7 is_stmt 0 view .LVU1430
 4765              	.LBE348:
 4766              	.LBE391:
1270:fltk-1.3.4-1/png/pngwutil.c ****       png_error(png_ptr, "sPLT: invalid keyword");
 4767              		.loc 1 1270 4 is_stmt 1 view .LVU1431
 4768              	.L365:
1271:fltk-1.3.4-1/png/pngwutil.c **** 
 4769              		.loc 1 1271 7 view .LVU1432
 4770 01dd 488D3500 		leaq	.LC26(%rip), %rsi
 4770      000000
 4771 01e4 4C89F7   		movq	%r14, %rdi
 4772 01e7 E8000000 		call	png_error@PLT
 4772      00
 4773              	.LVL449:
 4774              	.L390:
1333:fltk-1.3.4-1/png/pngwutil.c **** #endif
 4775              		.loc 1 1333 1 is_stmt 0 view .LVU1433
 4776 01ec E8000000 		call	__stack_chk_fail@PLT
 4776      00
 4777              	.LVL450:
 4778              		.cfi_endproc
 4779              	.LFE65:
 4781              		.section	.rodata.png_write_sBIT.str1.1,"aMS",@progbits,1
 4782              	.LC27:
 4783 0000 496E7661 		.string	"Invalid sBIT depth specified"
 4783      6C696420 
 4783      73424954 
 4783      20646570 
 4783      74682073 
 4784              		.section	.text.png_write_sBIT,"ax",@progbits
 4785              		.p2align 4
 4786              		.globl	png_write_sBIT
 4788              	png_write_sBIT:
 4789              	.LVL451:
 4790              	.LFB66:
1340:fltk-1.3.4-1/png/pngwutil.c ****    png_byte buf[4];
 4791              		.loc 1 1340 1 is_stmt 1 view -0
 4792              		.cfi_startproc
1340:fltk-1.3.4-1/png/pngwutil.c ****    png_byte buf[4];
 4793              		.loc 1 1340 1 is_stmt 0 view .LVU1435
 4794 0000 F30F1EFA 		endbr64
 4795 0004 4883EC18 		subq	$24, %rsp
 4796              		.cfi_def_cfa_offset 32
1340:fltk-1.3.4-1/png/pngwutil.c ****    png_byte buf[4];
 4797              		.loc 1 1340 1 view .LVU1436
 4798 0008 64488B04 		movq	%fs:40, %rax
 4798      25280000 
 4798      00
 4799 0011 48894424 		movq	%rax, 8(%rsp)
 4799      08
 4800 0016 31C0     		xorl	%eax, %eax
1341:fltk-1.3.4-1/png/pngwutil.c ****    png_size_t size;
 4801              		.loc 1 1341 4 is_stmt 1 view .LVU1437
1342:fltk-1.3.4-1/png/pngwutil.c **** 
 4802              		.loc 1 1342 4 view .LVU1438
1344:fltk-1.3.4-1/png/pngwutil.c **** 
 4803              		.loc 1 1344 4 view .LVU1439
1347:fltk-1.3.4-1/png/pngwutil.c ****    {
 4804              		.loc 1 1347 4 view .LVU1440
1347:fltk-1.3.4-1/png/pngwutil.c ****    {
 4805              		.loc 1 1347 7 is_stmt 0 view .LVU1441
 4806 0018 F6C202   		testb	$2, %dl
 4807 001b 7453     		je	.L392
 4808              	.LBB392:
1349:fltk-1.3.4-1/png/pngwutil.c **** 
 4809              		.loc 1 1349 7 is_stmt 1 view .LVU1442
1351:fltk-1.3.4-1/png/pngwutil.c ****           png_ptr->usr_bit_depth);
 4810              		.loc 1 1351 7 view .LVU1443
1351:fltk-1.3.4-1/png/pngwutil.c ****           png_ptr->usr_bit_depth);
 4811              		.loc 1 1351 17 is_stmt 0 view .LVU1444
 4812 001d B8080000 		movl	$8, %eax
 4812      00
 4813 0022 83FA03   		cmpl	$3, %edx
 4814 0025 7407     		je	.L393
1351:fltk-1.3.4-1/png/pngwutil.c ****           png_ptr->usr_bit_depth);
 4815              		.loc 1 1351 17 discriminator 1 view .LVU1445
 4816 0027 0FB68779 		movzbl	633(%rdi), %eax
 4816      020000
 4817              	.L393:
 4818              	.LVL452:
1354:fltk-1.3.4-1/png/pngwutil.c ****           sbit->green == 0 || sbit->green > maxbits ||
 4819              		.loc 1 1354 7 is_stmt 1 discriminator 4 view .LVU1446
1354:fltk-1.3.4-1/png/pngwutil.c ****           sbit->green == 0 || sbit->green > maxbits ||
 4820              		.loc 1 1354 15 is_stmt 0 discriminator 4 view .LVU1447
 4821 002e 0FB60E   		movzbl	(%rsi), %ecx
1354:fltk-1.3.4-1/png/pngwutil.c ****           sbit->green == 0 || sbit->green > maxbits ||
 4822              		.loc 1 1354 26 discriminator 4 view .LVU1448
 4823 0031 38C1     		cmpb	%al, %cl
 4824 0033 776B     		ja	.L397
 4825 0035 84C9     		testb	%cl, %cl
 4826 0037 7467     		je	.L397
1355:fltk-1.3.4-1/png/pngwutil.c ****           sbit->blue == 0 || sbit->blue > maxbits)
 4827              		.loc 1 1355 15 discriminator 2 view .LVU1449
 4828 0039 440FB646 		movzbl	1(%rsi), %r8d
 4828      01
1355:fltk-1.3.4-1/png/pngwutil.c ****           sbit->blue == 0 || sbit->blue > maxbits)
 4829              		.loc 1 1355 28 discriminator 2 view .LVU1450
 4830 003e 4138C0   		cmpb	%al, %r8b
 4831 0041 775D     		ja	.L397
 4832 0043 4584C0   		testb	%r8b, %r8b
 4833 0046 7458     		je	.L397
1356:fltk-1.3.4-1/png/pngwutil.c ****       {
 4834              		.loc 1 1356 15 discriminator 1 view .LVU1451
 4835 0048 440FB64E 		movzbl	2(%rsi), %r9d
 4835      02
1356:fltk-1.3.4-1/png/pngwutil.c ****       {
 4836              		.loc 1 1356 27 discriminator 1 view .LVU1452
 4837 004d 4584C9   		testb	%r9b, %r9b
 4838 0050 744E     		je	.L397
 4839 0052 4138C1   		cmpb	%al, %r9b
 4840 0055 7749     		ja	.L397
1362:fltk-1.3.4-1/png/pngwutil.c ****       buf[1] = sbit->green;
 4841              		.loc 1 1362 7 is_stmt 1 view .LVU1453
1362:fltk-1.3.4-1/png/pngwutil.c ****       buf[1] = sbit->green;
 4842              		.loc 1 1362 14 is_stmt 0 view .LVU1454
 4843 0057 884C2404 		movb	%cl, 4(%rsp)
1363:fltk-1.3.4-1/png/pngwutil.c ****       buf[2] = sbit->blue;
 4844              		.loc 1 1363 7 is_stmt 1 view .LVU1455
1365:fltk-1.3.4-1/png/pngwutil.c ****    }
 4845              		.loc 1 1365 12 is_stmt 0 view .LVU1456
 4846 005b B9030000 		movl	$3, %ecx
 4846      00
1363:fltk-1.3.4-1/png/pngwutil.c ****       buf[2] = sbit->blue;
 4847              		.loc 1 1363 14 view .LVU1457
 4848 0060 44884424 		movb	%r8b, 5(%rsp)
 4848      05
1364:fltk-1.3.4-1/png/pngwutil.c ****       size = 3;
 4849              		.loc 1 1364 7 is_stmt 1 view .LVU1458
1364:fltk-1.3.4-1/png/pngwutil.c ****       size = 3;
 4850              		.loc 1 1364 14 is_stmt 0 view .LVU1459
 4851 0065 44884C24 		movb	%r9b, 6(%rsp)
 4851      06
1365:fltk-1.3.4-1/png/pngwutil.c ****    }
 4852              		.loc 1 1365 7 is_stmt 1 view .LVU1460
 4853              	.LVL453:
1365:fltk-1.3.4-1/png/pngwutil.c ****    }
 4854              		.loc 1 1365 7 is_stmt 0 view .LVU1461
 4855              	.LBE392:
 4856 006a EB1D     		jmp	.L398
 4857              	.LVL454:
 4858 006c 0F1F4000 		.p2align 4,,10
 4859              		.p2align 3
 4860              	.L392:
1370:fltk-1.3.4-1/png/pngwutil.c ****       {
 4861              		.loc 1 1370 7 is_stmt 1 view .LVU1462
1370:fltk-1.3.4-1/png/pngwutil.c ****       {
 4862              		.loc 1 1370 15 is_stmt 0 view .LVU1463
 4863 0070 0FB64603 		movzbl	3(%rsi), %eax
1370:fltk-1.3.4-1/png/pngwutil.c ****       {
 4864              		.loc 1 1370 10 view .LVU1464
 4865 0074 84C0     		testb	%al, %al
 4866 0076 7428     		je	.L397
1370:fltk-1.3.4-1/png/pngwutil.c ****       {
 4867              		.loc 1 1370 27 discriminator 1 view .LVU1465
 4868 0078 3A877902 		cmpb	633(%rdi), %al
 4868      0000
 4869 007e 7720     		ja	.L397
1376:fltk-1.3.4-1/png/pngwutil.c ****       size = 1;
 4870              		.loc 1 1376 7 is_stmt 1 view .LVU1466
1376:fltk-1.3.4-1/png/pngwutil.c ****       size = 1;
 4871              		.loc 1 1376 14 is_stmt 0 view .LVU1467
 4872 0080 88442404 		movb	%al, 4(%rsp)
1377:fltk-1.3.4-1/png/pngwutil.c ****    }
 4873              		.loc 1 1377 7 is_stmt 1 view .LVU1468
 4874              	.LVL455:
1377:fltk-1.3.4-1/png/pngwutil.c ****    }
 4875              		.loc 1 1377 12 is_stmt 0 view .LVU1469
 4876 0084 B9010000 		movl	$1, %ecx
 4876      00
 4877              	.LVL456:
 4878              	.L398:
1380:fltk-1.3.4-1/png/pngwutil.c ****    {
 4879              		.loc 1 1380 4 is_stmt 1 view .LVU1470
1380:fltk-1.3.4-1/png/pngwutil.c ****    {
 4880              		.loc 1 1380 7 is_stmt 0 view .LVU1471
 4881 0089 83E204   		andl	$4, %edx
 4882              	.LVL457:
1380:fltk-1.3.4-1/png/pngwutil.c ****    {
 4883              		.loc 1 1380 7 view .LVU1472
 4884 008c 744A     		je	.L399
1382:fltk-1.3.4-1/png/pngwutil.c ****       {
 4885              		.loc 1 1382 7 is_stmt 1 view .LVU1473
1382:fltk-1.3.4-1/png/pngwutil.c ****       {
 4886              		.loc 1 1382 15 is_stmt 0 view .LVU1474
 4887 008e 0FB64604 		movzbl	4(%rsi), %eax
1382:fltk-1.3.4-1/png/pngwutil.c ****       {
 4888              		.loc 1 1382 10 view .LVU1475
 4889 0092 84C0     		testb	%al, %al
 4890 0094 7532     		jne	.L413
 4891              	.LVL458:
 4892 0096 662E0F1F 		.p2align 4,,10
 4892      84000000 
 4892      0000
 4893              		.p2align 3
 4894              	.L397:
 4895              	.LBB393:
1358:fltk-1.3.4-1/png/pngwutil.c ****          return;
 4896              		.loc 1 1358 10 is_stmt 1 view .LVU1476
 4897 00a0 488D3500 		leaq	.LC27(%rip), %rsi
 4897      000000
 4898              	.LVL459:
1358:fltk-1.3.4-1/png/pngwutil.c ****          return;
 4899              		.loc 1 1358 10 is_stmt 0 view .LVU1477
 4900 00a7 E8000000 		call	png_warning@PLT
 4900      00
 4901              	.LVL460:
1359:fltk-1.3.4-1/png/pngwutil.c ****       }
 4902              		.loc 1 1359 10 is_stmt 1 view .LVU1478
 4903              	.L391:
 4904              	.LBE393:
1392:fltk-1.3.4-1/png/pngwutil.c **** #endif
 4905              		.loc 1 1392 1 is_stmt 0 view .LVU1479
 4906 00ac 488B4424 		movq	8(%rsp), %rax
 4906      08
 4907 00b1 64483304 		xorq	%fs:40, %rax
 4907      25280000 
 4907      00
 4908 00ba 752D     		jne	.L414
 4909 00bc 4883C418 		addq	$24, %rsp
 4910              		.cfi_remember_state
 4911              		.cfi_def_cfa_offset 8
 4912 00c0 C3       		ret
 4913              	.LVL461:
 4914              		.p2align 4,,10
 4915 00c1 0F1F8000 		.p2align 3
 4915      000000
 4916              	.L413:
 4917              		.cfi_restore_state
1382:fltk-1.3.4-1/png/pngwutil.c ****       {
 4918              		.loc 1 1382 28 discriminator 1 view .LVU1480
 4919 00c8 3A877902 		cmpb	633(%rdi), %al
 4919      0000
 4920 00ce 77D0     		ja	.L397
1388:fltk-1.3.4-1/png/pngwutil.c ****    }
 4921              		.loc 1 1388 7 is_stmt 1 view .LVU1481
 4922              	.LVL462:
1388:fltk-1.3.4-1/png/pngwutil.c ****    }
 4923              		.loc 1 1388 19 is_stmt 0 view .LVU1482
 4924 00d0 88440C04 		movb	%al, 4(%rsp,%rcx)
1388:fltk-1.3.4-1/png/pngwutil.c ****    }
 4925              		.loc 1 1388 15 view .LVU1483
 4926 00d4 4883C101 		addq	$1, %rcx
 4927              	.LVL463:
 4928              	.L399:
1391:fltk-1.3.4-1/png/pngwutil.c **** }
 4929              		.loc 1 1391 4 is_stmt 1 view .LVU1484
 4930 00d8 488D5424 		leaq	4(%rsp), %rdx
 4930      04
 4931 00dd BE544942 		movl	$1933723988, %esi
 4931      73
 4932              	.LVL464:
1391:fltk-1.3.4-1/png/pngwutil.c **** }
 4933              		.loc 1 1391 4 is_stmt 0 view .LVU1485
 4934 00e2 E8000000 		call	png_write_complete_chunk
 4934      00
 4935              	.LVL465:
1391:fltk-1.3.4-1/png/pngwutil.c **** }
 4936              		.loc 1 1391 4 view .LVU1486
 4937 00e7 EBC3     		jmp	.L391
 4938              	.L414:
1392:fltk-1.3.4-1/png/pngwutil.c **** #endif
 4939              		.loc 1 1392 1 view .LVU1487
 4940 00e9 E8000000 		call	__stack_chk_fail@PLT
 4940      00
 4941              	.LVL466:
 4942              		.cfi_endproc
 4943              	.LFE66:
 4945              		.section	.text.png_write_cHRM_fixed,"ax",@progbits
 4946              		.p2align 4
 4947              		.globl	png_write_cHRM_fixed
 4949              	png_write_cHRM_fixed:
 4950              	.LVL467:
 4951              	.LFB67:
1399:fltk-1.3.4-1/png/pngwutil.c ****    png_byte buf[32];
 4952              		.loc 1 1399 1 is_stmt 1 view -0
 4953              		.cfi_startproc
1399:fltk-1.3.4-1/png/pngwutil.c ****    png_byte buf[32];
 4954              		.loc 1 1399 1 is_stmt 0 view .LVU1489
 4955 0000 F30F1EFA 		endbr64
 4956 0004 4154     		pushq	%r12
 4957              		.cfi_def_cfa_offset 16
 4958              		.cfi_offset 12, -16
 4959 0006 55       		pushq	%rbp
 4960              		.cfi_def_cfa_offset 24
 4961              		.cfi_offset 6, -24
 4962 0007 4889FD   		movq	%rdi, %rbp
 4963 000a 53       		pushq	%rbx
 4964              		.cfi_def_cfa_offset 32
 4965              		.cfi_offset 3, -32
 4966 000b 4889F3   		movq	%rsi, %rbx
 4967 000e 4883EC30 		subq	$48, %rsp
 4968              		.cfi_def_cfa_offset 80
1405:fltk-1.3.4-1/png/pngwutil.c ****    png_save_int_32(buf +  4, xy->whitey);
 4969              		.loc 1 1405 4 view .LVU1490
 4970 0012 8B7618   		movl	24(%rsi), %esi
 4971              	.LVL468:
1399:fltk-1.3.4-1/png/pngwutil.c ****    png_byte buf[32];
 4972              		.loc 1 1399 1 view .LVU1491
 4973 0015 64488B04 		movq	%fs:40, %rax
 4973      25280000 
 4973      00
 4974 001e 48894424 		movq	%rax, 40(%rsp)
 4974      28
 4975 0023 31C0     		xorl	%eax, %eax
1400:fltk-1.3.4-1/png/pngwutil.c **** 
 4976              		.loc 1 1400 4 is_stmt 1 view .LVU1492
1402:fltk-1.3.4-1/png/pngwutil.c **** 
 4977              		.loc 1 1402 4 view .LVU1493
1405:fltk-1.3.4-1/png/pngwutil.c ****    png_save_int_32(buf +  4, xy->whitey);
 4978              		.loc 1 1405 4 view .LVU1494
 4979 0025 4989E4   		movq	%rsp, %r12
 4980 0028 4C89E7   		movq	%r12, %rdi
 4981              	.LVL469:
1405:fltk-1.3.4-1/png/pngwutil.c ****    png_save_int_32(buf +  4, xy->whitey);
 4982              		.loc 1 1405 4 is_stmt 0 view .LVU1495
 4983 002b E8000000 		call	png_save_int_32@PLT
 4983      00
 4984              	.LVL470:
1406:fltk-1.3.4-1/png/pngwutil.c **** 
 4985              		.loc 1 1406 4 is_stmt 1 view .LVU1496
 4986 0030 8B731C   		movl	28(%rbx), %esi
 4987 0033 488D7C24 		leaq	4(%rsp), %rdi
 4987      04
 4988 0038 E8000000 		call	png_save_int_32@PLT
 4988      00
 4989              	.LVL471:
1408:fltk-1.3.4-1/png/pngwutil.c ****    png_save_int_32(buf + 12, xy->redy);
 4990              		.loc 1 1408 4 view .LVU1497
 4991 003d 8B33     		movl	(%rbx), %esi
 4992 003f 488D7C24 		leaq	8(%rsp), %rdi
 4992      08
 4993 0044 E8000000 		call	png_save_int_32@PLT
 4993      00
 4994              	.LVL472:
1409:fltk-1.3.4-1/png/pngwutil.c **** 
 4995              		.loc 1 1409 4 view .LVU1498
 4996 0049 8B7304   		movl	4(%rbx), %esi
 4997 004c 488D7C24 		leaq	12(%rsp), %rdi
 4997      0C
 4998 0051 E8000000 		call	png_save_int_32@PLT
 4998      00
 4999              	.LVL473:
1411:fltk-1.3.4-1/png/pngwutil.c ****    png_save_int_32(buf + 20, xy->greeny);
 5000              		.loc 1 1411 4 view .LVU1499
 5001 0056 8B7308   		movl	8(%rbx), %esi
 5002 0059 488D7C24 		leaq	16(%rsp), %rdi
 5002      10
 5003 005e E8000000 		call	png_save_int_32@PLT
 5003      00
 5004              	.LVL474:
1412:fltk-1.3.4-1/png/pngwutil.c **** 
 5005              		.loc 1 1412 4 view .LVU1500
 5006 0063 8B730C   		movl	12(%rbx), %esi
 5007 0066 488D7C24 		leaq	20(%rsp), %rdi
 5007      14
 5008 006b E8000000 		call	png_save_int_32@PLT
 5008      00
 5009              	.LVL475:
1414:fltk-1.3.4-1/png/pngwutil.c ****    png_save_int_32(buf + 28, xy->bluey);
 5010              		.loc 1 1414 4 view .LVU1501
 5011 0070 8B7310   		movl	16(%rbx), %esi
 5012 0073 488D7C24 		leaq	24(%rsp), %rdi
 5012      18
 5013 0078 E8000000 		call	png_save_int_32@PLT
 5013      00
 5014              	.LVL476:
1415:fltk-1.3.4-1/png/pngwutil.c **** 
 5015              		.loc 1 1415 4 view .LVU1502
 5016 007d 8B7314   		movl	20(%rbx), %esi
 5017 0080 488D7C24 		leaq	28(%rsp), %rdi
 5017      1C
 5018 0085 E8000000 		call	png_save_int_32@PLT
 5018      00
 5019              	.LVL477:
1417:fltk-1.3.4-1/png/pngwutil.c **** }
 5020              		.loc 1 1417 4 view .LVU1503
 5021 008a B9200000 		movl	$32, %ecx
 5021      00
 5022 008f 4C89E2   		movq	%r12, %rdx
 5023 0092 4889EF   		movq	%rbp, %rdi
 5024 0095 BE4D5248 		movl	$1665684045, %esi
 5024      63
 5025 009a E8000000 		call	png_write_complete_chunk
 5025      00
 5026              	.LVL478:
1418:fltk-1.3.4-1/png/pngwutil.c **** #endif
 5027              		.loc 1 1418 1 is_stmt 0 view .LVU1504
 5028 009f 488B4424 		movq	40(%rsp), %rax
 5028      28
 5029 00a4 64483304 		xorq	%fs:40, %rax
 5029      25280000 
 5029      00
 5030 00ad 7509     		jne	.L418
 5031 00af 4883C430 		addq	$48, %rsp
 5032              		.cfi_remember_state
 5033              		.cfi_def_cfa_offset 32
 5034 00b3 5B       		popq	%rbx
 5035              		.cfi_def_cfa_offset 24
 5036              	.LVL479:
1418:fltk-1.3.4-1/png/pngwutil.c **** #endif
 5037              		.loc 1 1418 1 view .LVU1505
 5038 00b4 5D       		popq	%rbp
 5039              		.cfi_def_cfa_offset 16
 5040              	.LVL480:
1418:fltk-1.3.4-1/png/pngwutil.c **** #endif
 5041              		.loc 1 1418 1 view .LVU1506
 5042 00b5 415C     		popq	%r12
 5043              		.cfi_def_cfa_offset 8
 5044 00b7 C3       		ret
 5045              	.LVL481:
 5046              	.L418:
 5047              		.cfi_restore_state
1418:fltk-1.3.4-1/png/pngwutil.c **** #endif
 5048              		.loc 1 1418 1 view .LVU1507
 5049 00b8 E8000000 		call	__stack_chk_fail@PLT
 5049      00
 5050              	.LVL482:
 5051              		.cfi_endproc
 5052              	.LFE67:
 5054              		.section	.rodata.png_write_tRNS.str1.8,"aMS",@progbits,1
 5055              		.align 8
 5056              	.LC28:
 5057 0000 496E7661 		.string	"Invalid number of transparent colors specified"
 5057      6C696420 
 5057      6E756D62 
 5057      6572206F 
 5057      66207472 
 5058 002f 00       		.align 8
 5059              	.LC29:
 5060 0030 49676E6F 		.string	"Ignoring attempt to write tRNS chunk out-of-range for bit_depth"
 5060      72696E67 
 5060      20617474 
 5060      656D7074 
 5060      20746F20 
 5061              		.align 8
 5062              	.LC30:
 5063 0070 49676E6F 		.string	"Ignoring attempt to write 16-bit tRNS chunk when bit_depth is 8"
 5063      72696E67 
 5063      20617474 
 5063      656D7074 
 5063      20746F20 
 5064              		.align 8
 5065              	.LC31:
 5066 00b0 43616E27 		.string	"Can't write tRNS with an alpha channel"
 5066      74207772 
 5066      69746520 
 5066      74524E53 
 5066      20776974 
 5067              		.section	.text.png_write_tRNS,"ax",@progbits
 5068              		.p2align 4
 5069              		.globl	png_write_tRNS
 5071              	png_write_tRNS:
 5072              	.LVL483:
 5073              	.LFB68:
1426:fltk-1.3.4-1/png/pngwutil.c ****    png_byte buf[6];
 5074              		.loc 1 1426 1 is_stmt 1 view -0
 5075              		.cfi_startproc
1426:fltk-1.3.4-1/png/pngwutil.c ****    png_byte buf[6];
 5076              		.loc 1 1426 1 is_stmt 0 view .LVU1509
 5077 0000 F30F1EFA 		endbr64
 5078 0004 4883EC18 		subq	$24, %rsp
 5079              		.cfi_def_cfa_offset 32
1426:fltk-1.3.4-1/png/pngwutil.c ****    png_byte buf[6];
 5080              		.loc 1 1426 1 view .LVU1510
 5081 0008 64488B04 		movq	%fs:40, %rax
 5081      25280000 
 5081      00
 5082 0011 48894424 		movq	%rax, 8(%rsp)
 5082      08
 5083 0016 31C0     		xorl	%eax, %eax
1427:fltk-1.3.4-1/png/pngwutil.c **** 
 5084              		.loc 1 1427 4 is_stmt 1 view .LVU1511
1429:fltk-1.3.4-1/png/pngwutil.c **** 
 5085              		.loc 1 1429 4 view .LVU1512
1431:fltk-1.3.4-1/png/pngwutil.c ****    {
 5086              		.loc 1 1431 4 view .LVU1513
1431:fltk-1.3.4-1/png/pngwutil.c ****    {
 5087              		.loc 1 1431 7 is_stmt 0 view .LVU1514
 5088 0018 4183F803 		cmpl	$3, %r8d
 5089 001c 0F84CE00 		je	.L433
 5089      0000
1445:fltk-1.3.4-1/png/pngwutil.c ****    {
 5090              		.loc 1 1445 9 is_stmt 1 view .LVU1515
1445:fltk-1.3.4-1/png/pngwutil.c ****    {
 5091              		.loc 1 1445 12 is_stmt 0 view .LVU1516
 5092 0022 4585C0   		testl	%r8d, %r8d
 5093 0025 7559     		jne	.L424
1448:fltk-1.3.4-1/png/pngwutil.c ****       {
 5094              		.loc 1 1448 7 is_stmt 1 view .LVU1517
1448:fltk-1.3.4-1/png/pngwutil.c ****       {
 5095              		.loc 1 1448 38 is_stmt 0 view .LVU1518
 5096 0027 0FB68F78 		movzbl	632(%rdi), %ecx
 5096      020000
 5097              	.LVL484:
1448:fltk-1.3.4-1/png/pngwutil.c ****       {
 5098              		.loc 1 1448 38 view .LVU1519
 5099 002e 0FB77208 		movzwl	8(%rdx), %esi
 5100              	.LVL485:
1448:fltk-1.3.4-1/png/pngwutil.c ****       {
 5101              		.loc 1 1448 28 view .LVU1520
 5102 0032 B8010000 		movl	$1, %eax
 5102      00
1448:fltk-1.3.4-1/png/pngwutil.c ****       {
 5103              		.loc 1 1448 15 view .LVU1521
 5104 0037 0FB75208 		movzwl	8(%rdx), %edx
 5105              	.LVL486:
1448:fltk-1.3.4-1/png/pngwutil.c ****       {
 5106              		.loc 1 1448 28 view .LVU1522
 5107 003b D3E0     		sall	%cl, %eax
 5108 003d 66C1C608 		rolw	$8, %si
1448:fltk-1.3.4-1/png/pngwutil.c ****       {
 5109              		.loc 1 1448 10 view .LVU1523
 5110 0041 39C2     		cmpl	%eax, %edx
 5111 0043 0F8DF700 		jge	.L434
 5111      0000
1456:fltk-1.3.4-1/png/pngwutil.c ****       png_write_complete_chunk(png_ptr, png_tRNS, buf, (png_size_t)2);
 5112              		.loc 1 1456 7 is_stmt 1 view .LVU1524
 5113              	.LVL487:
 5114              	.LBB394:
 5115              	.LBI394:
  37:fltk-1.3.4-1/png/pngwutil.c **** {
 5116              		.loc 1 37 1 view .LVU1525
 5117              	.LBB395:
  39:fltk-1.3.4-1/png/pngwutil.c ****    buf[1] = (png_byte)(i & 0xff);
 5118              		.loc 1 39 4 view .LVU1526
  40:fltk-1.3.4-1/png/pngwutil.c **** }
 5119              		.loc 1 40 4 view .LVU1527
  39:fltk-1.3.4-1/png/pngwutil.c ****    buf[1] = (png_byte)(i & 0xff);
 5120              		.loc 1 39 11 is_stmt 0 view .LVU1528
 5121 0049 66897424 		movw	%si, 2(%rsp)
 5121      02
 5122              	.LVL488:
  39:fltk-1.3.4-1/png/pngwutil.c ****    buf[1] = (png_byte)(i & 0xff);
 5123              		.loc 1 39 11 view .LVU1529
 5124              	.LBE395:
 5125              	.LBE394:
1457:fltk-1.3.4-1/png/pngwutil.c ****    }
 5126              		.loc 1 1457 7 is_stmt 1 view .LVU1530
 5127 004e 488D5424 		leaq	2(%rsp), %rdx
 5127      02
 5128 0053 B9020000 		movl	$2, %ecx
 5128      00
 5129 0058 BE534E52 		movl	$1951551059, %esi
 5129      74
 5130 005d E8000000 		call	png_write_complete_chunk
 5130      00
 5131              	.LVL489:
 5132              	.L419:
1484:fltk-1.3.4-1/png/pngwutil.c **** #endif
 5133              		.loc 1 1484 1 is_stmt 0 view .LVU1531
 5134 0062 488B4424 		movq	8(%rsp), %rax
 5134      08
 5135 0067 64483304 		xorq	%fs:40, %rax
 5135      25280000 
 5135      00
 5136 0070 0F85F300 		jne	.L435
 5136      0000
 5137 0076 4883C418 		addq	$24, %rsp
 5138              		.cfi_remember_state
 5139              		.cfi_def_cfa_offset 8
 5140 007a C3       		ret
 5141              	.LVL490:
 5142 007b 0F1F4400 		.p2align 4,,10
 5142      00
 5143              		.p2align 3
 5144              	.L424:
 5145              		.cfi_restore_state
1460:fltk-1.3.4-1/png/pngwutil.c ****    {
 5146              		.loc 1 1460 9 is_stmt 1 view .LVU1532
1460:fltk-1.3.4-1/png/pngwutil.c ****    {
 5147              		.loc 1 1460 12 is_stmt 0 view .LVU1533
 5148 0080 4183F802 		cmpl	$2, %r8d
 5149 0084 0F858600 		jne	.L426
 5149      0000
1463:fltk-1.3.4-1/png/pngwutil.c ****       png_save_uint_16(buf + 2, tran->green);
 5150              		.loc 1 1463 7 is_stmt 1 view .LVU1534
 5151              	.LVL491:
 5152              	.LBB396:
 5153              	.LBI396:
  37:fltk-1.3.4-1/png/pngwutil.c **** {
 5154              		.loc 1 37 1 view .LVU1535
 5155              	.LBB397:
  39:fltk-1.3.4-1/png/pngwutil.c ****    buf[1] = (png_byte)(i & 0xff);
 5156              		.loc 1 39 4 view .LVU1536
  39:fltk-1.3.4-1/png/pngwutil.c ****    buf[1] = (png_byte)(i & 0xff);
 5157              		.loc 1 39 11 is_stmt 0 view .LVU1537
 5158 008a 0FB74202 		movzwl	2(%rdx), %eax
  39:fltk-1.3.4-1/png/pngwutil.c ****    buf[1] = (png_byte)(i & 0xff);
 5159              		.loc 1 39 27 view .LVU1538
 5160 008e 0FB64A03 		movzbl	3(%rdx), %ecx
 5161              	.LVL492:
  40:fltk-1.3.4-1/png/pngwutil.c **** }
 5162              		.loc 1 40 4 is_stmt 1 view .LVU1539
 5163              	.LBE397:
 5164              	.LBE396:
 5165              	.LBB399:
 5166              	.LBB400:
  39:fltk-1.3.4-1/png/pngwutil.c ****    buf[1] = (png_byte)(i & 0xff);
 5167              		.loc 1 39 27 is_stmt 0 view .LVU1540
 5168 0092 440FB642 		movzbl	5(%rdx), %r8d
 5168      05
 5169              	.LVL493:
  39:fltk-1.3.4-1/png/pngwutil.c ****    buf[1] = (png_byte)(i & 0xff);
 5170              		.loc 1 39 27 view .LVU1541
 5171              	.LBE400:
 5172              	.LBE399:
 5173              	.LBB402:
 5174              	.LBB403:
 5175 0097 0FB67207 		movzbl	7(%rdx), %esi
 5176              	.LVL494:
  39:fltk-1.3.4-1/png/pngwutil.c ****    buf[1] = (png_byte)(i & 0xff);
 5177              		.loc 1 39 27 view .LVU1542
 5178              	.LBE403:
 5179              	.LBE402:
 5180              	.LBB406:
 5181              	.LBB398:
  39:fltk-1.3.4-1/png/pngwutil.c ****    buf[1] = (png_byte)(i & 0xff);
 5182              		.loc 1 39 11 view .LVU1543
 5183 009b 66C1C008 		rolw	$8, %ax
 5184 009f 66894424 		movw	%ax, 2(%rsp)
 5184      02
 5185              	.LVL495:
  39:fltk-1.3.4-1/png/pngwutil.c ****    buf[1] = (png_byte)(i & 0xff);
 5186              		.loc 1 39 11 view .LVU1544
 5187              	.LBE398:
 5188              	.LBE406:
1464:fltk-1.3.4-1/png/pngwutil.c ****       png_save_uint_16(buf + 4, tran->blue);
 5189              		.loc 1 1464 7 is_stmt 1 view .LVU1545
 5190              	.LBB407:
 5191              	.LBI399:
  37:fltk-1.3.4-1/png/pngwutil.c **** {
 5192              		.loc 1 37 1 view .LVU1546
 5193              	.LBB401:
  39:fltk-1.3.4-1/png/pngwutil.c ****    buf[1] = (png_byte)(i & 0xff);
 5194              		.loc 1 39 4 view .LVU1547
  40:fltk-1.3.4-1/png/pngwutil.c **** }
 5195              		.loc 1 40 4 view .LVU1548
  39:fltk-1.3.4-1/png/pngwutil.c ****    buf[1] = (png_byte)(i & 0xff);
 5196              		.loc 1 39 11 is_stmt 0 view .LVU1549
 5197 00a4 0FB74204 		movzwl	4(%rdx), %eax
 5198 00a8 66C1C008 		rolw	$8, %ax
 5199 00ac 66894424 		movw	%ax, 4(%rsp)
 5199      04
 5200              	.LVL496:
  39:fltk-1.3.4-1/png/pngwutil.c ****    buf[1] = (png_byte)(i & 0xff);
 5201              		.loc 1 39 11 view .LVU1550
 5202              	.LBE401:
 5203              	.LBE407:
1465:fltk-1.3.4-1/png/pngwutil.c **** #ifdef PNG_WRITE_16BIT_SUPPORTED
 5204              		.loc 1 1465 7 is_stmt 1 view .LVU1551
 5205              	.LBB408:
 5206              	.LBI402:
  37:fltk-1.3.4-1/png/pngwutil.c **** {
 5207              		.loc 1 37 1 view .LVU1552
 5208              	.LBB404:
  39:fltk-1.3.4-1/png/pngwutil.c ****    buf[1] = (png_byte)(i & 0xff);
 5209              		.loc 1 39 4 view .LVU1553
  40:fltk-1.3.4-1/png/pngwutil.c **** }
 5210              		.loc 1 40 4 view .LVU1554
  39:fltk-1.3.4-1/png/pngwutil.c ****    buf[1] = (png_byte)(i & 0xff);
 5211              		.loc 1 39 11 is_stmt 0 view .LVU1555
 5212 00b1 0FB74206 		movzwl	6(%rdx), %eax
 5213 00b5 66C1C008 		rolw	$8, %ax
 5214              	.LBE404:
 5215              	.LBE408:
1467:fltk-1.3.4-1/png/pngwutil.c **** #else
 5216              		.loc 1 1467 10 view .LVU1556
 5217 00b9 80BF7802 		cmpb	$8, 632(%rdi)
 5217      000008
 5218              	.LBB409:
 5219              	.LBB405:
  39:fltk-1.3.4-1/png/pngwutil.c ****    buf[1] = (png_byte)(i & 0xff);
 5220              		.loc 1 39 11 view .LVU1557
 5221 00c0 66894424 		movw	%ax, 6(%rsp)
 5221      06
 5222              	.LVL497:
  39:fltk-1.3.4-1/png/pngwutil.c ****    buf[1] = (png_byte)(i & 0xff);
 5223              		.loc 1 39 11 view .LVU1558
 5224              	.LBE405:
 5225              	.LBE409:
1467:fltk-1.3.4-1/png/pngwutil.c **** #else
 5226              		.loc 1 1467 7 is_stmt 1 view .LVU1559
1467:fltk-1.3.4-1/png/pngwutil.c **** #else
 5227              		.loc 1 1467 10 is_stmt 0 view .LVU1560
 5228 00c5 750C     		jne	.L427
1467:fltk-1.3.4-1/png/pngwutil.c **** #else
 5229              		.loc 1 1467 65 discriminator 1 view .LVU1561
 5230 00c7 4409C1   		orl	%r8d, %ecx
1467:fltk-1.3.4-1/png/pngwutil.c **** #else
 5231              		.loc 1 1467 35 discriminator 1 view .LVU1562
 5232 00ca 4008F1   		orb	%sil, %cl
 5233 00cd 0F858500 		jne	.L436
 5233      0000
 5234              	.L427:
1477:fltk-1.3.4-1/png/pngwutil.c ****    }
 5235              		.loc 1 1477 7 is_stmt 1 view .LVU1563
 5236 00d3 488D5424 		leaq	2(%rsp), %rdx
 5236      02
 5237              	.LVL498:
1477:fltk-1.3.4-1/png/pngwutil.c ****    }
 5238              		.loc 1 1477 7 is_stmt 0 view .LVU1564
 5239 00d8 B9060000 		movl	$6, %ecx
 5239      00
 5240 00dd BE534E52 		movl	$1951551059, %esi
 5240      74
 5241 00e2 E8000000 		call	png_write_complete_chunk
 5241      00
 5242              	.LVL499:
1477:fltk-1.3.4-1/png/pngwutil.c ****    }
 5243              		.loc 1 1477 7 view .LVU1565
 5244 00e7 E976FFFF 		jmp	.L419
 5244      FF
 5245              	.LVL500:
 5246 00ec 0F1F4000 		.p2align 4,,10
 5247              		.p2align 3
 5248              	.L433:
1433:fltk-1.3.4-1/png/pngwutil.c ****       {
 5249              		.loc 1 1433 7 is_stmt 1 view .LVU1566
1433:fltk-1.3.4-1/png/pngwutil.c ****       {
 5250              		.loc 1 1433 10 is_stmt 0 view .LVU1567
 5251 00f0 85C9     		testl	%ecx, %ecx
 5252 00f2 7E0B     		jle	.L421
1433:fltk-1.3.4-1/png/pngwutil.c ****       {
 5253              		.loc 1 1433 41 discriminator 1 view .LVU1568
 5254 00f4 0FB78768 		movzwl	616(%rdi), %eax
 5254      020000
1433:fltk-1.3.4-1/png/pngwutil.c ****       {
 5255              		.loc 1 1433 26 discriminator 1 view .LVU1569
 5256 00fb 39C8     		cmpl	%ecx, %eax
 5257 00fd 7D29     		jge	.L422
 5258              	.L421:
1435:fltk-1.3.4-1/png/pngwutil.c ****              "Invalid number of transparent colors specified");
 5259              		.loc 1 1435 10 is_stmt 1 view .LVU1570
 5260 00ff 488D3500 		leaq	.LC28(%rip), %rsi
 5260      000000
 5261              	.LVL501:
1435:fltk-1.3.4-1/png/pngwutil.c ****              "Invalid number of transparent colors specified");
 5262              		.loc 1 1435 10 is_stmt 0 view .LVU1571
 5263 0106 E8000000 		call	png_app_warning@PLT
 5263      00
 5264              	.LVL502:
1437:fltk-1.3.4-1/png/pngwutil.c ****       }
 5265              		.loc 1 1437 10 is_stmt 1 view .LVU1572
 5266 010b E952FFFF 		jmp	.L419
 5266      FF
 5267              	.LVL503:
 5268              		.p2align 4,,10
 5269              		.p2align 3
 5270              	.L426:
1482:fltk-1.3.4-1/png/pngwutil.c ****    }
 5271              		.loc 1 1482 7 view .LVU1573
 5272 0110 488D3500 		leaq	.LC31(%rip), %rsi
 5272      000000
 5273              	.LVL504:
1482:fltk-1.3.4-1/png/pngwutil.c ****    }
 5274              		.loc 1 1482 7 is_stmt 0 view .LVU1574
 5275 0117 E8000000 		call	png_app_warning@PLT
 5275      00
 5276              	.LVL505:
1482:fltk-1.3.4-1/png/pngwutil.c ****    }
 5277              		.loc 1 1482 7 view .LVU1575
 5278 011c E941FFFF 		jmp	.L419
 5278      FF
 5279              	.LVL506:
 5280              		.p2align 4,,10
 5281 0121 0F1F8000 		.p2align 3
 5281      000000
 5282              	.L422:
1441:fltk-1.3.4-1/png/pngwutil.c ****          (png_size_t)num_trans);
 5283              		.loc 1 1441 7 is_stmt 1 view .LVU1576
 5284 0128 4889F2   		movq	%rsi, %rdx
 5285              	.LVL507:
1441:fltk-1.3.4-1/png/pngwutil.c ****          (png_size_t)num_trans);
 5286              		.loc 1 1441 7 is_stmt 0 view .LVU1577
 5287 012b 4863C9   		movslq	%ecx, %rcx
1441:fltk-1.3.4-1/png/pngwutil.c ****          (png_size_t)num_trans);
 5288              		.loc 1 1441 7 view .LVU1578
 5289 012e BE534E52 		movl	$1951551059, %esi
 5289      74
 5290              	.LVL508:
1441:fltk-1.3.4-1/png/pngwutil.c ****          (png_size_t)num_trans);
 5291              		.loc 1 1441 7 view .LVU1579
 5292 0133 E8000000 		call	png_write_complete_chunk
 5292      00
 5293              	.LVL509:
1441:fltk-1.3.4-1/png/pngwutil.c ****          (png_size_t)num_trans);
 5294              		.loc 1 1441 7 view .LVU1580
 5295 0138 E925FFFF 		jmp	.L419
 5295      FF
 5296              	.LVL510:
 5297 013d 0F1F00   		.p2align 4,,10
 5298              		.p2align 3
 5299              	.L434:
1450:fltk-1.3.4-1/png/pngwutil.c ****              "Ignoring attempt to write tRNS chunk out-of-range for bit_depth");
 5300              		.loc 1 1450 10 is_stmt 1 view .LVU1581
 5301 0140 488D3500 		leaq	.LC29(%rip), %rsi
 5301      000000
 5302 0147 E8000000 		call	png_app_warning@PLT
 5302      00
 5303              	.LVL511:
1453:fltk-1.3.4-1/png/pngwutil.c ****       }
 5304              		.loc 1 1453 10 view .LVU1582
 5305 014c E911FFFF 		jmp	.L419
 5305      FF
 5306              	.LVL512:
 5307              		.p2align 4,,10
 5308 0151 0F1F8000 		.p2align 3
 5308      000000
 5309              	.L436:
1472:fltk-1.3.4-1/png/pngwutil.c ****            "Ignoring attempt to write 16-bit tRNS chunk when bit_depth is 8");
 5310              		.loc 1 1472 10 view .LVU1583
 5311 0158 488D3500 		leaq	.LC30(%rip), %rsi
 5311      000000
 5312 015f E8000000 		call	png_app_warning@PLT
 5312      00
 5313              	.LVL513:
1474:fltk-1.3.4-1/png/pngwutil.c ****       }
 5314              		.loc 1 1474 10 view .LVU1584
 5315 0164 E9F9FEFF 		jmp	.L419
 5315      FF
 5316              	.L435:
1484:fltk-1.3.4-1/png/pngwutil.c **** #endif
 5317              		.loc 1 1484 1 is_stmt 0 view .LVU1585
 5318 0169 E8000000 		call	__stack_chk_fail@PLT
 5318      00
 5319              	.LVL514:
 5320              		.cfi_endproc
 5321              	.LFE68:
 5323              		.section	.rodata.png_write_bKGD.str1.8,"aMS",@progbits,1
 5324              		.align 8
 5325              	.LC32:
 5326 0000 496E7661 		.string	"Invalid background palette index"
 5326      6C696420 
 5326      6261636B 
 5326      67726F75 
 5326      6E642070 
 5327 0021 00000000 		.align 8
 5327      000000
 5328              	.LC33:
 5329 0028 49676E6F 		.string	"Ignoring attempt to write 16-bit bKGD chunk when bit_depth is 8"
 5329      72696E67 
 5329      20617474 
 5329      656D7074 
 5329      20746F20 
 5330              		.align 8
 5331              	.LC34:
 5332 0068 49676E6F 		.string	"Ignoring attempt to write bKGD chunk out-of-range for bit_depth"
 5332      72696E67 
 5332      20617474 
 5332      656D7074 
 5332      20746F20 
 5333              		.section	.text.png_write_bKGD,"ax",@progbits
 5334              		.p2align 4
 5335              		.globl	png_write_bKGD
 5337              	png_write_bKGD:
 5338              	.LVL515:
 5339              	.LFB69:
1491:fltk-1.3.4-1/png/pngwutil.c ****    png_byte buf[6];
 5340              		.loc 1 1491 1 is_stmt 1 view -0
 5341              		.cfi_startproc
1491:fltk-1.3.4-1/png/pngwutil.c ****    png_byte buf[6];
 5342              		.loc 1 1491 1 is_stmt 0 view .LVU1587
 5343 0000 F30F1EFA 		endbr64
 5344 0004 4883EC18 		subq	$24, %rsp
 5345              		.cfi_def_cfa_offset 32
1491:fltk-1.3.4-1/png/pngwutil.c ****    png_byte buf[6];
 5346              		.loc 1 1491 1 view .LVU1588
 5347 0008 64488B04 		movq	%fs:40, %rax
 5347      25280000 
 5347      00
 5348 0011 48894424 		movq	%rax, 8(%rsp)
 5348      08
 5349 0016 31C0     		xorl	%eax, %eax
1492:fltk-1.3.4-1/png/pngwutil.c **** 
 5350              		.loc 1 1492 4 is_stmt 1 view .LVU1589
1494:fltk-1.3.4-1/png/pngwutil.c **** 
 5351              		.loc 1 1494 4 view .LVU1590
1496:fltk-1.3.4-1/png/pngwutil.c ****    {
 5352              		.loc 1 1496 4 view .LVU1591
1496:fltk-1.3.4-1/png/pngwutil.c ****    {
 5353              		.loc 1 1496 7 is_stmt 0 view .LVU1592
 5354 0018 83FA03   		cmpl	$3, %edx
 5355 001b 0F84BF00 		je	.L456
 5355      0000
1513:fltk-1.3.4-1/png/pngwutil.c ****    {
 5356              		.loc 1 1513 9 is_stmt 1 view .LVU1593
1513:fltk-1.3.4-1/png/pngwutil.c ****    {
 5357              		.loc 1 1513 12 is_stmt 0 view .LVU1594
 5358 0021 83E202   		andl	$2, %edx
 5359              	.LVL516:
1513:fltk-1.3.4-1/png/pngwutil.c ****    {
 5360              		.loc 1 1513 12 view .LVU1595
 5361 0024 0FB68F78 		movzbl	632(%rdi), %ecx
 5361      020000
 5362 002b 7553     		jne	.L457
1535:fltk-1.3.4-1/png/pngwutil.c ****       {
 5363              		.loc 1 1535 7 is_stmt 1 view .LVU1596
 5364 002d 0FB75608 		movzwl	8(%rsi), %edx
1535:fltk-1.3.4-1/png/pngwutil.c ****       {
 5365              		.loc 1 1535 28 is_stmt 0 view .LVU1597
 5366 0031 B8010000 		movl	$1, %eax
 5366      00
1535:fltk-1.3.4-1/png/pngwutil.c ****       {
 5367              		.loc 1 1535 15 view .LVU1598
 5368 0036 0FB77608 		movzwl	8(%rsi), %esi
 5369              	.LVL517:
1535:fltk-1.3.4-1/png/pngwutil.c ****       {
 5370              		.loc 1 1535 28 view .LVU1599
 5371 003a D3E0     		sall	%cl, %eax
 5372 003c 66C1C208 		rolw	$8, %dx
1535:fltk-1.3.4-1/png/pngwutil.c ****       {
 5373              		.loc 1 1535 10 view .LVU1600
 5374 0040 39C6     		cmpl	%eax, %esi
 5375 0042 0F8DF000 		jge	.L458
 5375      0000
1543:fltk-1.3.4-1/png/pngwutil.c ****       png_write_complete_chunk(png_ptr, png_bKGD, buf, (png_size_t)2);
 5376              		.loc 1 1543 7 is_stmt 1 view .LVU1601
 5377              	.LVL518:
 5378              	.LBB410:
 5379              	.LBI410:
  37:fltk-1.3.4-1/png/pngwutil.c **** {
 5380              		.loc 1 37 1 view .LVU1602
 5381              	.LBB411:
  39:fltk-1.3.4-1/png/pngwutil.c ****    buf[1] = (png_byte)(i & 0xff);
 5382              		.loc 1 39 4 view .LVU1603
  40:fltk-1.3.4-1/png/pngwutil.c **** }
 5383              		.loc 1 40 4 view .LVU1604
  39:fltk-1.3.4-1/png/pngwutil.c ****    buf[1] = (png_byte)(i & 0xff);
 5384              		.loc 1 39 11 is_stmt 0 view .LVU1605
 5385 0048 66895424 		movw	%dx, 2(%rsp)
 5385      02
 5386              	.LVL519:
  39:fltk-1.3.4-1/png/pngwutil.c ****    buf[1] = (png_byte)(i & 0xff);
 5387              		.loc 1 39 11 view .LVU1606
 5388              	.LBE411:
 5389              	.LBE410:
1544:fltk-1.3.4-1/png/pngwutil.c ****    }
 5390              		.loc 1 1544 7 is_stmt 1 view .LVU1607
 5391 004d B9020000 		movl	$2, %ecx
 5391      00
 5392 0052 488D5424 		leaq	2(%rsp), %rdx
 5392      02
 5393 0057 BE44474B 		movl	$1649100612, %esi
 5393      62
 5394 005c E8000000 		call	png_write_complete_chunk
 5394      00
 5395              	.LVL520:
 5396              	.L437:
1546:fltk-1.3.4-1/png/pngwutil.c **** #endif
 5397              		.loc 1 1546 1 is_stmt 0 view .LVU1608
 5398 0061 488B4424 		movq	8(%rsp), %rax
 5398      08
 5399 0066 64483304 		xorq	%fs:40, %rax
 5399      25280000 
 5399      00
 5400 006f 0F85F400 		jne	.L459
 5400      0000
 5401 0075 4883C418 		addq	$24, %rsp
 5402              		.cfi_remember_state
 5403              		.cfi_def_cfa_offset 8
 5404 0079 C3       		ret
 5405              	.LVL521:
 5406 007a 660F1F44 		.p2align 4,,10
 5406      0000
 5407              		.p2align 3
 5408              	.L457:
 5409              		.cfi_restore_state
1515:fltk-1.3.4-1/png/pngwutil.c ****       png_save_uint_16(buf + 2, back->green);
 5410              		.loc 1 1515 7 is_stmt 1 view .LVU1609
 5411              	.LBB412:
 5412              	.LBI412:
  37:fltk-1.3.4-1/png/pngwutil.c **** {
 5413              		.loc 1 37 1 view .LVU1610
 5414              	.LBB413:
  39:fltk-1.3.4-1/png/pngwutil.c ****    buf[1] = (png_byte)(i & 0xff);
 5415              		.loc 1 39 4 view .LVU1611
  39:fltk-1.3.4-1/png/pngwutil.c ****    buf[1] = (png_byte)(i & 0xff);
 5416              		.loc 1 39 11 is_stmt 0 view .LVU1612
 5417 0080 0FB74602 		movzwl	2(%rsi), %eax
  39:fltk-1.3.4-1/png/pngwutil.c ****    buf[1] = (png_byte)(i & 0xff);
 5418              		.loc 1 39 27 view .LVU1613
 5419 0084 0FB65603 		movzbl	3(%rsi), %edx
  40:fltk-1.3.4-1/png/pngwutil.c **** }
 5420              		.loc 1 40 4 is_stmt 1 view .LVU1614
 5421              	.LBE413:
 5422              	.LBE412:
 5423              	.LBB415:
 5424              	.LBB416:
  39:fltk-1.3.4-1/png/pngwutil.c ****    buf[1] = (png_byte)(i & 0xff);
 5425              		.loc 1 39 27 is_stmt 0 view .LVU1615
 5426 0088 440FB64E 		movzbl	5(%rsi), %r9d
 5426      05
 5427              	.LBE416:
 5428              	.LBE415:
 5429              	.LBB418:
 5430              	.LBB419:
 5431 008d 440FB646 		movzbl	7(%rsi), %r8d
 5431      07
 5432              	.LBE419:
 5433              	.LBE418:
 5434              	.LBB421:
 5435              	.LBB414:
  39:fltk-1.3.4-1/png/pngwutil.c ****    buf[1] = (png_byte)(i & 0xff);
 5436              		.loc 1 39 11 view .LVU1616
 5437 0092 66C1C008 		rolw	$8, %ax
 5438 0096 66894424 		movw	%ax, 2(%rsp)
 5438      02
 5439              	.LVL522:
  39:fltk-1.3.4-1/png/pngwutil.c ****    buf[1] = (png_byte)(i & 0xff);
 5440              		.loc 1 39 11 view .LVU1617
 5441              	.LBE414:
 5442              	.LBE421:
1516:fltk-1.3.4-1/png/pngwutil.c ****       png_save_uint_16(buf + 4, back->blue);
 5443              		.loc 1 1516 7 is_stmt 1 view .LVU1618
 5444              	.LBB422:
 5445              	.LBI415:
  37:fltk-1.3.4-1/png/pngwutil.c **** {
 5446              		.loc 1 37 1 view .LVU1619
 5447              	.LBB417:
  39:fltk-1.3.4-1/png/pngwutil.c ****    buf[1] = (png_byte)(i & 0xff);
 5448              		.loc 1 39 4 view .LVU1620
  40:fltk-1.3.4-1/png/pngwutil.c **** }
 5449              		.loc 1 40 4 view .LVU1621
  39:fltk-1.3.4-1/png/pngwutil.c ****    buf[1] = (png_byte)(i & 0xff);
 5450              		.loc 1 39 11 is_stmt 0 view .LVU1622
 5451 009b 0FB74604 		movzwl	4(%rsi), %eax
 5452 009f 66C1C008 		rolw	$8, %ax
 5453 00a3 66894424 		movw	%ax, 4(%rsp)
 5453      04
 5454              	.LVL523:
  39:fltk-1.3.4-1/png/pngwutil.c ****    buf[1] = (png_byte)(i & 0xff);
 5455              		.loc 1 39 11 view .LVU1623
 5456              	.LBE417:
 5457              	.LBE422:
1517:fltk-1.3.4-1/png/pngwutil.c **** #ifdef PNG_WRITE_16BIT_SUPPORTED
 5458              		.loc 1 1517 7 is_stmt 1 view .LVU1624
 5459              	.LBB423:
 5460              	.LBI418:
  37:fltk-1.3.4-1/png/pngwutil.c **** {
 5461              		.loc 1 37 1 view .LVU1625
 5462              	.LBB420:
  39:fltk-1.3.4-1/png/pngwutil.c ****    buf[1] = (png_byte)(i & 0xff);
 5463              		.loc 1 39 4 view .LVU1626
  40:fltk-1.3.4-1/png/pngwutil.c **** }
 5464              		.loc 1 40 4 view .LVU1627
  39:fltk-1.3.4-1/png/pngwutil.c ****    buf[1] = (png_byte)(i & 0xff);
 5465              		.loc 1 39 11 is_stmt 0 view .LVU1628
 5466 00a8 0FB74606 		movzwl	6(%rsi), %eax
 5467 00ac 66C1C008 		rolw	$8, %ax
 5468 00b0 66894424 		movw	%ax, 6(%rsp)
 5468      06
 5469              	.LVL524:
  39:fltk-1.3.4-1/png/pngwutil.c ****    buf[1] = (png_byte)(i & 0xff);
 5470              		.loc 1 39 11 view .LVU1629
 5471              	.LBE420:
 5472              	.LBE423:
1519:fltk-1.3.4-1/png/pngwutil.c **** #else
 5473              		.loc 1 1519 7 is_stmt 1 view .LVU1630
1519:fltk-1.3.4-1/png/pngwutil.c **** #else
 5474              		.loc 1 1519 10 is_stmt 0 view .LVU1631
 5475 00b5 80F908   		cmpb	$8, %cl
 5476 00b8 750C     		jne	.L445
1519:fltk-1.3.4-1/png/pngwutil.c **** #else
 5477              		.loc 1 1519 65 discriminator 1 view .LVU1632
 5478 00ba 4409CA   		orl	%r9d, %edx
1519:fltk-1.3.4-1/png/pngwutil.c **** #else
 5479              		.loc 1 1519 35 discriminator 1 view .LVU1633
 5480 00bd 4408C2   		orb	%r8b, %dl
 5481 00c0 0F859200 		jne	.L460
 5481      0000
 5482              	.L445:
1530:fltk-1.3.4-1/png/pngwutil.c ****    }
 5483              		.loc 1 1530 7 is_stmt 1 view .LVU1634
 5484 00c6 488D5424 		leaq	2(%rsp), %rdx
 5484      02
 5485 00cb B9060000 		movl	$6, %ecx
 5485      00
 5486 00d0 BE44474B 		movl	$1649100612, %esi
 5486      62
 5487              	.LVL525:
1530:fltk-1.3.4-1/png/pngwutil.c ****    }
 5488              		.loc 1 1530 7 is_stmt 0 view .LVU1635
 5489 00d5 E8000000 		call	png_write_complete_chunk
 5489      00
 5490              	.LVL526:
1530:fltk-1.3.4-1/png/pngwutil.c ****    }
 5491              		.loc 1 1530 7 view .LVU1636
 5492 00da EB85     		jmp	.L437
 5493              	.LVL527:
 5494 00dc 0F1F4000 		.p2align 4,,10
 5495              		.p2align 3
 5496              	.L456:
1498:fltk-1.3.4-1/png/pngwutil.c **** #ifdef PNG_MNG_FEATURES_SUPPORTED
 5497              		.loc 1 1498 7 is_stmt 1 view .LVU1637
1500:fltk-1.3.4-1/png/pngwutil.c ****           (png_ptr->mng_features_permitted & PNG_FLAG_MNG_EMPTY_PLTE) == 0) &&
 5498              		.loc 1 1500 19 is_stmt 0 view .LVU1638
 5499 00e0 0FB78768 		movzwl	616(%rdi), %eax
 5499      020000
1498:fltk-1.3.4-1/png/pngwutil.c **** #ifdef PNG_MNG_FEATURES_SUPPORTED
 5500              		.loc 1 1498 10 view .LVU1639
 5501 00e7 6685C0   		testw	%ax, %ax
 5502 00ea 742C     		je	.L461
1503:fltk-1.3.4-1/png/pngwutil.c ****       {
 5503              		.loc 1 1503 14 view .LVU1640
 5504 00ec 0FB60E   		movzbl	(%rsi), %ecx
 5505 00ef 89CA     		movl	%ecx, %edx
 5506              	.LVL528:
1501:fltk-1.3.4-1/png/pngwutil.c **** #endif
 5507              		.loc 1 1501 77 view .LVU1641
 5508 00f1 6639C8   		cmpw	%cx, %ax
 5509 00f4 762B     		jbe	.L440
 5510              	.L442:
1509:fltk-1.3.4-1/png/pngwutil.c ****       png_write_complete_chunk(png_ptr, png_bKGD, buf, (png_size_t)1);
 5511              		.loc 1 1509 7 is_stmt 1 view .LVU1642
1509:fltk-1.3.4-1/png/pngwutil.c ****       png_write_complete_chunk(png_ptr, png_bKGD, buf, (png_size_t)1);
 5512              		.loc 1 1509 14 is_stmt 0 view .LVU1643
 5513 00f6 88542402 		movb	%dl, 2(%rsp)
1510:fltk-1.3.4-1/png/pngwutil.c ****    }
 5514              		.loc 1 1510 7 is_stmt 1 view .LVU1644
 5515 00fa B9010000 		movl	$1, %ecx
 5515      00
 5516 00ff 488D5424 		leaq	2(%rsp), %rdx
 5516      02
 5517 0104 BE44474B 		movl	$1649100612, %esi
 5517      62
 5518              	.LVL529:
1510:fltk-1.3.4-1/png/pngwutil.c ****    }
 5519              		.loc 1 1510 7 is_stmt 0 view .LVU1645
 5520 0109 E8000000 		call	png_write_complete_chunk
 5520      00
 5521              	.LVL530:
1510:fltk-1.3.4-1/png/pngwutil.c ****    }
 5522              		.loc 1 1510 7 view .LVU1646
 5523 010e E94EFFFF 		jmp	.L437
 5523      FF
 5524              	.LVL531:
 5525              		.p2align 4,,10
 5526 0113 0F1F4400 		.p2align 3
 5526      00
 5527              	.L461:
1500:fltk-1.3.4-1/png/pngwutil.c ****           (png_ptr->mng_features_permitted & PNG_FLAG_MNG_EMPTY_PLTE) == 0) &&
 5528              		.loc 1 1500 38 view .LVU1647
 5529 0118 F6871804 		testb	$1, 1048(%rdi)
 5529      000001
 5530 011f 752F     		jne	.L462
 5531              	.LVL532:
 5532              	.L440:
1505:fltk-1.3.4-1/png/pngwutil.c ****          return;
 5533              		.loc 1 1505 10 is_stmt 1 view .LVU1648
 5534 0121 488D3500 		leaq	.LC32(%rip), %rsi
 5534      000000
 5535              	.LVL533:
1505:fltk-1.3.4-1/png/pngwutil.c ****          return;
 5536              		.loc 1 1505 10 is_stmt 0 view .LVU1649
 5537 0128 E8000000 		call	png_warning@PLT
 5537      00
 5538              	.LVL534:
1506:fltk-1.3.4-1/png/pngwutil.c ****       }
 5539              		.loc 1 1506 10 is_stmt 1 view .LVU1650
 5540 012d E92FFFFF 		jmp	.L437
 5540      FF
 5541              	.LVL535:
 5542              		.p2align 4,,10
 5543 0132 660F1F44 		.p2align 3
 5543      0000
 5544              	.L458:
1537:fltk-1.3.4-1/png/pngwutil.c ****              "Ignoring attempt to write bKGD chunk out-of-range for bit_depth");
 5545              		.loc 1 1537 10 view .LVU1651
 5546 0138 488D3500 		leaq	.LC34(%rip), %rsi
 5546      000000
 5547 013f E8000000 		call	png_warning@PLT
 5547      00
 5548              	.LVL536:
1540:fltk-1.3.4-1/png/pngwutil.c ****       }
 5549              		.loc 1 1540 10 view .LVU1652
 5550 0144 E918FFFF 		jmp	.L437
 5550      FF
 5551              	.LVL537:
 5552 0149 0F1F8000 		.p2align 4,,10
 5552      000000
 5553              		.p2align 3
 5554              	.L462:
1540:fltk-1.3.4-1/png/pngwutil.c ****       }
 5555              		.loc 1 1540 10 is_stmt 0 view .LVU1653
 5556 0150 0FB616   		movzbl	(%rsi), %edx
 5557              	.LVL538:
1540:fltk-1.3.4-1/png/pngwutil.c ****       }
 5558              		.loc 1 1540 10 view .LVU1654
 5559 0153 EBA1     		jmp	.L442
 5560              		.p2align 4,,10
 5561 0155 0F1F00   		.p2align 3
 5562              	.L460:
1524:fltk-1.3.4-1/png/pngwutil.c ****              "Ignoring attempt to write 16-bit bKGD chunk when bit_depth is 8");
 5563              		.loc 1 1524 10 is_stmt 1 view .LVU1655
 5564 0158 488D3500 		leaq	.LC33(%rip), %rsi
 5564      000000
 5565              	.LVL539:
1524:fltk-1.3.4-1/png/pngwutil.c ****              "Ignoring attempt to write 16-bit bKGD chunk when bit_depth is 8");
 5566              		.loc 1 1524 10 is_stmt 0 view .LVU1656
 5567 015f E8000000 		call	png_warning@PLT
 5567      00
 5568              	.LVL540:
1527:fltk-1.3.4-1/png/pngwutil.c ****       }
 5569              		.loc 1 1527 10 is_stmt 1 view .LVU1657
 5570 0164 E9F8FEFF 		jmp	.L437
 5570      FF
 5571              	.L459:
1546:fltk-1.3.4-1/png/pngwutil.c **** #endif
 5572              		.loc 1 1546 1 is_stmt 0 view .LVU1658
 5573 0169 E8000000 		call	__stack_chk_fail@PLT
 5573      00
 5574              	.LVL541:
 5575              		.cfi_endproc
 5576              	.LFE69:
 5578              		.section	.rodata.png_write_hIST.str1.8,"aMS",@progbits,1
 5579              		.align 8
 5580              	.LC35:
 5581 0000 496E7661 		.string	"Invalid number of histogram entries specified"
 5581      6C696420 
 5581      6E756D62 
 5581      6572206F 
 5581      66206869 
 5582              		.section	.text.png_write_hIST,"ax",@progbits
 5583              		.p2align 4
 5584              		.globl	png_write_hIST
 5586              	png_write_hIST:
 5587              	.LVL542:
 5588              	.LFB70:
1553:fltk-1.3.4-1/png/pngwutil.c ****    int i;
 5589              		.loc 1 1553 1 is_stmt 1 view -0
 5590              		.cfi_startproc
1553:fltk-1.3.4-1/png/pngwutil.c ****    int i;
 5591              		.loc 1 1553 1 is_stmt 0 view .LVU1660
 5592 0000 F30F1EFA 		endbr64
 5593 0004 4155     		pushq	%r13
 5594              		.cfi_def_cfa_offset 16
 5595              		.cfi_offset 13, -16
 5596 0006 4154     		pushq	%r12
 5597              		.cfi_def_cfa_offset 24
 5598              		.cfi_offset 12, -24
 5599 0008 55       		pushq	%rbp
 5600              		.cfi_def_cfa_offset 32
 5601              		.cfi_offset 6, -32
 5602 0009 4889FD   		movq	%rdi, %rbp
 5603 000c 53       		pushq	%rbx
 5604              		.cfi_def_cfa_offset 40
 5605              		.cfi_offset 3, -40
 5606 000d 4883EC18 		subq	$24, %rsp
 5607              		.cfi_def_cfa_offset 64
1553:fltk-1.3.4-1/png/pngwutil.c ****    int i;
 5608              		.loc 1 1553 1 view .LVU1661
 5609 0011 64488B04 		movq	%fs:40, %rax
 5609      25280000 
 5609      00
 5610 001a 48894424 		movq	%rax, 8(%rsp)
 5610      08
 5611 001f 31C0     		xorl	%eax, %eax
1554:fltk-1.3.4-1/png/pngwutil.c ****    png_byte buf[3];
 5612              		.loc 1 1554 4 is_stmt 1 view .LVU1662
1555:fltk-1.3.4-1/png/pngwutil.c **** 
 5613              		.loc 1 1555 4 view .LVU1663
1557:fltk-1.3.4-1/png/pngwutil.c **** 
 5614              		.loc 1 1557 4 view .LVU1664
1559:fltk-1.3.4-1/png/pngwutil.c ****    {
 5615              		.loc 1 1559 4 view .LVU1665
1559:fltk-1.3.4-1/png/pngwutil.c ****    {
 5616              		.loc 1 1559 19 is_stmt 0 view .LVU1666
 5617 0021 0FB78768 		movzwl	616(%rdi), %eax
 5617      020000
1559:fltk-1.3.4-1/png/pngwutil.c ****    {
 5618              		.loc 1 1559 7 view .LVU1667
 5619 0028 39D0     		cmpl	%edx, %eax
 5620 002a 7C74     		jl	.L471
 5621 002c 4189D4   		movl	%edx, %r12d
1568:fltk-1.3.4-1/png/pngwutil.c **** 
 5622              		.loc 1 1568 4 is_stmt 1 view .LVU1668
 5623              	.LVL543:
 5624              	.LBB424:
 5625              	.LBI424:
  73:fltk-1.3.4-1/png/pngwutil.c ****     png_uint_32 length)
 5626              		.loc 1 73 1 view .LVU1669
 5627              	.LBB425:
  76:fltk-1.3.4-1/png/pngwutil.c **** 
 5628              		.loc 1 76 4 view .LVU1670
  83:fltk-1.3.4-1/png/pngwutil.c ****       return;
 5629              		.loc 1 83 4 view .LVU1671
 5630 002f 4889F3   		movq	%rsi, %rbx
 5631              	.LBE425:
 5632              	.LBE424:
1568:fltk-1.3.4-1/png/pngwutil.c **** 
 5633              		.loc 1 1568 69 is_stmt 0 view .LVU1672
 5634 0032 8D1412   		leal	(%rdx,%rdx), %edx
 5635              	.LVL544:
 5636              	.LBB427:
 5637              	.LBB426:
1568:fltk-1.3.4-1/png/pngwutil.c **** 
 5638              		.loc 1 1568 69 view .LVU1673
 5639 0035 BE545349 		movl	$1749635924, %esi
 5639      68
 5640              	.LVL545:
1568:fltk-1.3.4-1/png/pngwutil.c **** 
 5641              		.loc 1 1568 69 view .LVU1674
 5642 003a E8000000 		call	png_write_chunk_header.part.0
 5642      00
 5643              	.LVL546:
1568:fltk-1.3.4-1/png/pngwutil.c **** 
 5644              		.loc 1 1568 69 view .LVU1675
 5645              	.LBE426:
 5646              	.LBE427:
1570:fltk-1.3.4-1/png/pngwutil.c ****    {
 5647              		.loc 1 1570 4 is_stmt 1 view .LVU1676
1570:fltk-1.3.4-1/png/pngwutil.c ****    {
 5648              		.loc 1 1570 16 view .LVU1677
1570:fltk-1.3.4-1/png/pngwutil.c ****    {
 5649              		.loc 1 1570 4 is_stmt 0 view .LVU1678
 5650 003f 4585E4   		testl	%r12d, %r12d
 5651 0042 7E39     		jle	.L466
 5652 0044 418D4424 		leal	-1(%r12), %eax
 5652      FF
 5653 0049 4C8D6424 		leaq	5(%rsp), %r12
 5653      05
 5654              	.LVL547:
1570:fltk-1.3.4-1/png/pngwutil.c ****    {
 5655              		.loc 1 1570 4 view .LVU1679
 5656 004e 4C8D6C43 		leaq	2(%rbx,%rax,2), %r13
 5656      02
 5657              	.LVL548:
 5658              		.p2align 4,,10
 5659 0053 0F1F4400 		.p2align 3
 5659      00
 5660              	.L467:
1572:fltk-1.3.4-1/png/pngwutil.c ****       png_write_chunk_data(png_ptr, buf, (png_size_t)2);
 5661              		.loc 1 1572 7 is_stmt 1 discriminator 3 view .LVU1680
 5662              	.LBB428:
 5663              	.LBI428:
  37:fltk-1.3.4-1/png/pngwutil.c **** {
 5664              		.loc 1 37 1 discriminator 3 view .LVU1681
 5665              	.LBB429:
  39:fltk-1.3.4-1/png/pngwutil.c ****    buf[1] = (png_byte)(i & 0xff);
 5666              		.loc 1 39 4 discriminator 3 view .LVU1682
  40:fltk-1.3.4-1/png/pngwutil.c **** }
 5667              		.loc 1 40 4 discriminator 3 view .LVU1683
  39:fltk-1.3.4-1/png/pngwutil.c ****    buf[1] = (png_byte)(i & 0xff);
 5668              		.loc 1 39 11 is_stmt 0 discriminator 3 view .LVU1684
 5669 0058 0FB703   		movzwl	(%rbx), %eax
 5670              	.LBE429:
 5671              	.LBE428:
 5672              	.LBB431:
 5673              	.LBB432:
 5674 005b BA020000 		movl	$2, %edx
 5674      00
 5675 0060 4C89E6   		movq	%r12, %rsi
 5676 0063 4889EF   		movq	%rbp, %rdi
 5677 0066 4883C302 		addq	$2, %rbx
 5678              	.LVL549:
  39:fltk-1.3.4-1/png/pngwutil.c ****    buf[1] = (png_byte)(i & 0xff);
 5679              		.loc 1 39 11 discriminator 3 view .LVU1685
 5680              	.LBE432:
 5681              	.LBE431:
 5682              	.LBB434:
 5683              	.LBB430:
 5684 006a 66C1C008 		rolw	$8, %ax
 5685              	.LVL550:
  39:fltk-1.3.4-1/png/pngwutil.c ****    buf[1] = (png_byte)(i & 0xff);
 5686              		.loc 1 39 11 discriminator 3 view .LVU1686
 5687 006e 66894424 		movw	%ax, 5(%rsp)
 5687      05
 5688              	.LVL551:
  39:fltk-1.3.4-1/png/pngwutil.c ****    buf[1] = (png_byte)(i & 0xff);
 5689              		.loc 1 39 11 discriminator 3 view .LVU1687
 5690              	.LBE430:
 5691              	.LBE434:
1573:fltk-1.3.4-1/png/pngwutil.c ****    }
 5692              		.loc 1 1573 7 is_stmt 1 discriminator 3 view .LVU1688
 5693              	.LBB435:
 5694              	.LBI431:
 127:fltk-1.3.4-1/png/pngwutil.c ****     png_size_t length)
 5695              		.loc 1 127 1 discriminator 3 view .LVU1689
 5696              	.LBB433:
 131:fltk-1.3.4-1/png/pngwutil.c ****       return;
 5697              		.loc 1 131 4 discriminator 3 view .LVU1690
 134:fltk-1.3.4-1/png/pngwutil.c ****    {
 5698              		.loc 1 134 4 discriminator 3 view .LVU1691
 5699 0073 E8000000 		call	png_write_chunk_data.part.0
 5699      00
 5700              	.LVL552:
 134:fltk-1.3.4-1/png/pngwutil.c ****    {
 5701              		.loc 1 134 4 is_stmt 0 discriminator 3 view .LVU1692
 5702              	.LBE433:
 5703              	.LBE435:
1570:fltk-1.3.4-1/png/pngwutil.c ****    {
 5704              		.loc 1 1570 30 is_stmt 1 discriminator 3 view .LVU1693
1570:fltk-1.3.4-1/png/pngwutil.c ****    {
 5705              		.loc 1 1570 16 discriminator 3 view .LVU1694
1570:fltk-1.3.4-1/png/pngwutil.c ****    {
 5706              		.loc 1 1570 4 is_stmt 0 discriminator 3 view .LVU1695
 5707 0078 4C39EB   		cmpq	%r13, %rbx
 5708 007b 75DB     		jne	.L467
 5709              	.L466:
1576:fltk-1.3.4-1/png/pngwutil.c **** }
 5710              		.loc 1 1576 4 is_stmt 1 view .LVU1696
 5711              	.LVL553:
 5712              	.LBB436:
 5713              	.LBI436:
 147:fltk-1.3.4-1/png/pngwutil.c **** {
 5714              		.loc 1 147 1 view .LVU1697
 5715              	.LBB437:
 149:fltk-1.3.4-1/png/pngwutil.c **** 
 5716              		.loc 1 149 4 view .LVU1698
 151:fltk-1.3.4-1/png/pngwutil.c **** 
 5717              		.loc 1 151 4 view .LVU1699
 5718 007d 4889EF   		movq	%rbp, %rdi
 5719 0080 E8000000 		call	png_write_chunk_end.part.0
 5719      00
 5720              	.LVL554:
 5721              	.L463:
 151:fltk-1.3.4-1/png/pngwutil.c **** 
 5722              		.loc 1 151 4 is_stmt 0 view .LVU1700
 5723              	.LBE437:
 5724              	.LBE436:
1577:fltk-1.3.4-1/png/pngwutil.c **** #endif
 5725              		.loc 1 1577 1 view .LVU1701
 5726 0085 488B4424 		movq	8(%rsp), %rax
 5726      08
 5727 008a 64483304 		xorq	%fs:40, %rax
 5727      25280000 
 5727      00
 5728 0093 7519     		jne	.L472
 5729 0095 4883C418 		addq	$24, %rsp
 5730              		.cfi_remember_state
 5731              		.cfi_def_cfa_offset 40
 5732 0099 5B       		popq	%rbx
 5733              		.cfi_def_cfa_offset 32
 5734 009a 5D       		popq	%rbp
 5735              		.cfi_def_cfa_offset 24
 5736              	.LVL555:
1577:fltk-1.3.4-1/png/pngwutil.c **** #endif
 5737              		.loc 1 1577 1 view .LVU1702
 5738 009b 415C     		popq	%r12
 5739              		.cfi_def_cfa_offset 16
 5740 009d 415D     		popq	%r13
 5741              		.cfi_def_cfa_offset 8
 5742 009f C3       		ret
 5743              	.LVL556:
 5744              		.p2align 4,,10
 5745              		.p2align 3
 5746              	.L471:
 5747              		.cfi_restore_state
1561:fltk-1.3.4-1/png/pngwutil.c ****           png_ptr->num_palette);
 5748              		.loc 1 1561 7 is_stmt 1 view .LVU1703
1564:fltk-1.3.4-1/png/pngwutil.c ****       return;
 5749              		.loc 1 1564 7 view .LVU1704
 5750 00a0 488D3500 		leaq	.LC35(%rip), %rsi
 5750      000000
 5751              	.LVL557:
1564:fltk-1.3.4-1/png/pngwutil.c ****       return;
 5752              		.loc 1 1564 7 is_stmt 0 view .LVU1705
 5753 00a7 E8000000 		call	png_warning@PLT
 5753      00
 5754              	.LVL558:
1565:fltk-1.3.4-1/png/pngwutil.c ****    }
 5755              		.loc 1 1565 7 is_stmt 1 view .LVU1706
 5756 00ac EBD7     		jmp	.L463
 5757              	.L472:
1577:fltk-1.3.4-1/png/pngwutil.c **** #endif
 5758              		.loc 1 1577 1 is_stmt 0 view .LVU1707
 5759 00ae E8000000 		call	__stack_chk_fail@PLT
 5759      00
 5760              	.LVL559:
 5761              		.cfi_endproc
 5762              	.LFE70:
 5764              		.section	.rodata.png_write_tEXt.str1.1,"aMS",@progbits,1
 5765              	.LC36:
 5766 0000 74455874 		.string	"tEXt: invalid keyword"
 5766      3A20696E 
 5766      76616C69 
 5766      64206B65 
 5766      79776F72 
 5767              	.LC37:
 5768 0016 74455874 		.string	"tEXt: text too long"
 5768      3A207465 
 5768      78742074 
 5768      6F6F206C 
 5768      6F6E6700 
 5769              		.section	.text.png_write_tEXt,"ax",@progbits
 5770              		.p2align 4
 5771              		.globl	png_write_tEXt
 5773              	png_write_tEXt:
 5774              	.LVL560:
 5775              	.LFB71:
1585:fltk-1.3.4-1/png/pngwutil.c ****    png_uint_32 key_len;
 5776              		.loc 1 1585 1 is_stmt 1 view -0
 5777              		.cfi_startproc
1585:fltk-1.3.4-1/png/pngwutil.c ****    png_uint_32 key_len;
 5778              		.loc 1 1585 1 is_stmt 0 view .LVU1709
 5779 0000 F30F1EFA 		endbr64
 5780 0004 4156     		pushq	%r14
 5781              		.cfi_def_cfa_offset 16
 5782              		.cfi_offset 14, -16
 5783 0006 4155     		pushq	%r13
 5784              		.cfi_def_cfa_offset 24
 5785              		.cfi_offset 13, -24
 5786 0008 4154     		pushq	%r12
 5787              		.cfi_def_cfa_offset 32
 5788              		.cfi_offset 12, -32
 5789 000a 4989FC   		movq	%rdi, %r12
 5790 000d 55       		pushq	%rbp
 5791              		.cfi_def_cfa_offset 40
 5792              		.cfi_offset 6, -40
 5793 000e 53       		pushq	%rbx
 5794              		.cfi_def_cfa_offset 48
 5795              		.cfi_offset 3, -48
 5796 000f 4883EC60 		subq	$96, %rsp
 5797              		.cfi_def_cfa_offset 144
1585:fltk-1.3.4-1/png/pngwutil.c ****    png_uint_32 key_len;
 5798              		.loc 1 1585 1 view .LVU1710
 5799 0013 64488B04 		movq	%fs:40, %rax
 5799      25280000 
 5799      00
 5800 001c 48894424 		movq	%rax, 88(%rsp)
 5800      58
 5801 0021 31C0     		xorl	%eax, %eax
1586:fltk-1.3.4-1/png/pngwutil.c ****    png_byte new_key[80];
 5802              		.loc 1 1586 4 is_stmt 1 view .LVU1711
1587:fltk-1.3.4-1/png/pngwutil.c **** 
 5803              		.loc 1 1587 4 view .LVU1712
1589:fltk-1.3.4-1/png/pngwutil.c **** 
 5804              		.loc 1 1589 4 view .LVU1713
1591:fltk-1.3.4-1/png/pngwutil.c **** 
 5805              		.loc 1 1591 4 view .LVU1714
 5806              	.LVL561:
 5807              	.LBB438:
 5808              	.LBI438:
 681:fltk-1.3.4-1/png/pngwutil.c **** {
 5809              		.loc 1 681 1 view .LVU1715
 5810              	.LBB439:
 683:fltk-1.3.4-1/png/pngwutil.c ****    png_uint_32 key_len = 0;
 5811              		.loc 1 683 4 view .LVU1716
 684:fltk-1.3.4-1/png/pngwutil.c ****    int bad_character = 0;
 5812              		.loc 1 684 4 view .LVU1717
 685:fltk-1.3.4-1/png/pngwutil.c ****    int space = 1;
 5813              		.loc 1 685 4 view .LVU1718
 686:fltk-1.3.4-1/png/pngwutil.c **** 
 5814              		.loc 1 686 4 view .LVU1719
 688:fltk-1.3.4-1/png/pngwutil.c **** 
 5815              		.loc 1 688 4 view .LVU1720
 690:fltk-1.3.4-1/png/pngwutil.c ****    {
 5816              		.loc 1 690 4 view .LVU1721
 690:fltk-1.3.4-1/png/pngwutil.c ****    {
 5817              		.loc 1 690 7 is_stmt 0 view .LVU1722
 5818 0023 4885F6   		testq	%rsi, %rsi
 5819 0026 0F84DC00 		je	.L503
 5819      0000
 5820 002c 4889E5   		movq	%rsp, %rbp
 5821 002f 4989D5   		movq	%rdx, %r13
 5822 0032 4889EA   		movq	%rbp, %rdx
 5823              	.LVL562:
 690:fltk-1.3.4-1/png/pngwutil.c ****    {
 5824              		.loc 1 690 7 view .LVU1723
 5825 0035 E8000000 		call	png_check_keyword.part.0
 5825      00
 5826              	.LVL563:
 690:fltk-1.3.4-1/png/pngwutil.c ****    {
 5827              		.loc 1 690 7 view .LVU1724
 5828 003a 89C3     		movl	%eax, %ebx
 5829              	.LVL564:
 690:fltk-1.3.4-1/png/pngwutil.c ****    {
 5830              		.loc 1 690 7 view .LVU1725
 5831              	.LBE439:
 5832              	.LBE438:
1593:fltk-1.3.4-1/png/pngwutil.c ****       png_error(png_ptr, "tEXt: invalid keyword");
 5833              		.loc 1 1593 4 is_stmt 1 view .LVU1726
1593:fltk-1.3.4-1/png/pngwutil.c ****       png_error(png_ptr, "tEXt: invalid keyword");
 5834              		.loc 1 1593 7 is_stmt 0 view .LVU1727
 5835 003c 85C0     		testl	%eax, %eax
 5836 003e 0F84C800 		je	.L475
 5836      0000
1596:fltk-1.3.4-1/png/pngwutil.c ****       text_len = 0;
 5837              		.loc 1 1596 4 is_stmt 1 view .LVU1728
1596:fltk-1.3.4-1/png/pngwutil.c ****       text_len = 0;
 5838              		.loc 1 1596 7 is_stmt 0 view .LVU1729
 5839 0044 4D85ED   		testq	%r13, %r13
 5840 0047 0F84AB00 		je	.L477
 5840      0000
1596:fltk-1.3.4-1/png/pngwutil.c ****       text_len = 0;
 5841              		.loc 1 1596 21 discriminator 1 view .LVU1730
 5842 004d 41807D00 		cmpb	$0, 0(%r13)
 5842      00
 5843 0052 745C     		je	.L478
1600:fltk-1.3.4-1/png/pngwutil.c **** 
 5844              		.loc 1 1600 7 is_stmt 1 view .LVU1731
1600:fltk-1.3.4-1/png/pngwutil.c **** 
 5845              		.loc 1 1600 18 is_stmt 0 view .LVU1732
 5846 0054 4C89EF   		movq	%r13, %rdi
 5847 0057 E8000000 		call	strlen@PLT
 5847      00
 5848              	.LVL565:
1600:fltk-1.3.4-1/png/pngwutil.c **** 
 5849              		.loc 1 1600 18 view .LVU1733
 5850 005c 4989C6   		movq	%rax, %r14
 5851              	.LVL566:
1602:fltk-1.3.4-1/png/pngwutil.c ****       png_error(png_ptr, "tEXt: text too long");
 5852              		.loc 1 1602 4 is_stmt 1 view .LVU1734
1602:fltk-1.3.4-1/png/pngwutil.c ****       png_error(png_ptr, "tEXt: text too long");
 5853              		.loc 1 1602 35 is_stmt 0 view .LVU1735
 5854 005f B8FEFFFF 		movl	$2147483646, %eax
 5854      7F
 5855              	.LVL567:
1602:fltk-1.3.4-1/png/pngwutil.c ****       png_error(png_ptr, "tEXt: text too long");
 5856              		.loc 1 1602 35 view .LVU1736
 5857 0064 29D8     		subl	%ebx, %eax
1602:fltk-1.3.4-1/png/pngwutil.c ****       png_error(png_ptr, "tEXt: text too long");
 5858              		.loc 1 1602 7 view .LVU1737
 5859 0066 4C39F0   		cmpq	%r14, %rax
 5860 0069 0F82DE00 		jb	.L504
 5860      0000
1606:fltk-1.3.4-1/png/pngwutil.c ****        (png_uint_32)/*checked above*/(key_len + text_len + 1));
 5861              		.loc 1 1606 4 is_stmt 1 view .LVU1738
 5862 006f 83C301   		addl	$1, %ebx
 5863              	.LVL568:
1606:fltk-1.3.4-1/png/pngwutil.c ****        (png_uint_32)/*checked above*/(key_len + text_len + 1));
 5864              		.loc 1 1606 4 is_stmt 0 view .LVU1739
 5865 0072 428D1433 		leal	(%rbx,%r14), %edx
 5866              	.LVL569:
 5867              	.LBB441:
 5868              	.LBI441:
  73:fltk-1.3.4-1/png/pngwutil.c ****     png_uint_32 length)
 5869              		.loc 1 73 1 is_stmt 1 view .LVU1740
 5870              	.LBB442:
  76:fltk-1.3.4-1/png/pngwutil.c **** 
 5871              		.loc 1 76 4 view .LVU1741
  83:fltk-1.3.4-1/png/pngwutil.c ****       return;
 5872              		.loc 1 83 4 view .LVU1742
  83:fltk-1.3.4-1/png/pngwutil.c ****       return;
 5873              		.loc 1 83 7 is_stmt 0 view .LVU1743
 5874 0076 4D85E4   		testq	%r12, %r12
 5875 0079 745B     		je	.L473
 5876 007b BE745845 		movl	$1950701684, %esi
 5876      74
 5877 0080 4C89E7   		movq	%r12, %rdi
 5878 0083 E8000000 		call	png_write_chunk_header.part.0
 5878      00
 5879              	.LVL570:
  83:fltk-1.3.4-1/png/pngwutil.c ****       return;
 5880              		.loc 1 83 7 view .LVU1744
 5881              	.LBE442:
 5882              	.LBE441:
1614:fltk-1.3.4-1/png/pngwutil.c **** 
 5883              		.loc 1 1614 4 is_stmt 1 view .LVU1745
 5884 0088 89DA     		movl	%ebx, %edx
 5885              	.LVL571:
 5886              	.LBB447:
 5887              	.LBI447:
 127:fltk-1.3.4-1/png/pngwutil.c ****     png_size_t length)
 5888              		.loc 1 127 1 view .LVU1746
 5889              	.LBB448:
 131:fltk-1.3.4-1/png/pngwutil.c ****       return;
 5890              		.loc 1 131 4 view .LVU1747
 134:fltk-1.3.4-1/png/pngwutil.c ****    {
 5891              		.loc 1 134 4 view .LVU1748
 134:fltk-1.3.4-1/png/pngwutil.c ****    {
 5892              		.loc 1 134 7 is_stmt 0 view .LVU1749
 5893 008a 4885D2   		testq	%rdx, %rdx
 5894 008d 0F85A500 		jne	.L505
 5894      0000
 5895              	.LVL572:
 5896              	.L484:
 134:fltk-1.3.4-1/png/pngwutil.c ****    {
 5897              		.loc 1 134 7 view .LVU1750
 5898              	.LBE448:
 5899              	.LBE447:
1616:fltk-1.3.4-1/png/pngwutil.c ****       png_write_chunk_data(png_ptr, (png_const_bytep)text, text_len);
 5900              		.loc 1 1616 4 is_stmt 1 view .LVU1751
1616:fltk-1.3.4-1/png/pngwutil.c ****       png_write_chunk_data(png_ptr, (png_const_bytep)text, text_len);
 5901              		.loc 1 1616 7 is_stmt 0 view .LVU1752
 5902 0093 4D85F6   		testq	%r14, %r14
 5903 0096 7436     		je	.L485
1617:fltk-1.3.4-1/png/pngwutil.c **** 
 5904              		.loc 1 1617 7 is_stmt 1 view .LVU1753
 5905              	.LVL573:
 5906              	.LBB452:
 5907              	.LBI452:
 127:fltk-1.3.4-1/png/pngwutil.c ****     png_size_t length)
 5908              		.loc 1 127 1 view .LVU1754
 5909              	.LBB453:
 131:fltk-1.3.4-1/png/pngwutil.c ****       return;
 5910              		.loc 1 131 4 view .LVU1755
 134:fltk-1.3.4-1/png/pngwutil.c ****    {
 5911              		.loc 1 134 4 view .LVU1756
 134:fltk-1.3.4-1/png/pngwutil.c ****    {
 5912              		.loc 1 134 4 is_stmt 0 view .LVU1757
 5913 0098 4C89F2   		movq	%r14, %rdx
 5914 009b 4C89EE   		movq	%r13, %rsi
 5915 009e 4C89E7   		movq	%r12, %rdi
 5916 00a1 E8000000 		call	png_write_chunk_data.part.0
 5916      00
 5917              	.LVL574:
 5918 00a6 EB26     		jmp	.L485
 5919              	.LVL575:
 5920 00a8 0F1F8400 		.p2align 4,,10
 5920      00000000 
 5921              		.p2align 3
 5922              	.L478:
 134:fltk-1.3.4-1/png/pngwutil.c ****    {
 5923              		.loc 1 134 4 view .LVU1758
 5924              	.LBE453:
 5925              	.LBE452:
1606:fltk-1.3.4-1/png/pngwutil.c ****        (png_uint_32)/*checked above*/(key_len + text_len + 1));
 5926              		.loc 1 1606 4 is_stmt 1 view .LVU1759
 5927              	.LBB454:
  73:fltk-1.3.4-1/png/pngwutil.c ****     png_uint_32 length)
 5928              		.loc 1 73 1 view .LVU1760
 5929              	.LBB443:
  76:fltk-1.3.4-1/png/pngwutil.c **** 
 5930              		.loc 1 76 4 view .LVU1761
  83:fltk-1.3.4-1/png/pngwutil.c ****       return;
 5931              		.loc 1 83 4 view .LVU1762
 5932              	.LBE443:
 5933              	.LBE454:
1606:fltk-1.3.4-1/png/pngwutil.c ****        (png_uint_32)/*checked above*/(key_len + text_len + 1));
 5934              		.loc 1 1606 4 is_stmt 0 view .LVU1763
 5935 00b0 83C301   		addl	$1, %ebx
 5936              	.LVL576:
 5937              	.LBB455:
 5938              	.LBB444:
  83:fltk-1.3.4-1/png/pngwutil.c ****       return;
 5939              		.loc 1 83 7 view .LVU1764
 5940 00b3 4D85E4   		testq	%r12, %r12
 5941 00b6 741E     		je	.L473
 5942              	.L483:
  83:fltk-1.3.4-1/png/pngwutil.c ****       return;
 5943              		.loc 1 83 7 view .LVU1765
 5944 00b8 89DA     		movl	%ebx, %edx
 5945 00ba BE745845 		movl	$1950701684, %esi
 5945      74
 5946 00bf 4C89E7   		movq	%r12, %rdi
 5947 00c2 E8000000 		call	png_write_chunk_header.part.0
 5947      00
 5948              	.LVL577:
  83:fltk-1.3.4-1/png/pngwutil.c ****       return;
 5949              		.loc 1 83 7 view .LVU1766
 5950              	.LBE444:
 5951              	.LBE455:
1614:fltk-1.3.4-1/png/pngwutil.c **** 
 5952              		.loc 1 1614 4 is_stmt 1 view .LVU1767
 5953 00c7 89DA     		movl	%ebx, %edx
 5954              	.LVL578:
 5955              	.LBB456:
 127:fltk-1.3.4-1/png/pngwutil.c ****     png_size_t length)
 5956              		.loc 1 127 1 view .LVU1768
 5957              	.LBB449:
 131:fltk-1.3.4-1/png/pngwutil.c ****       return;
 5958              		.loc 1 131 4 view .LVU1769
 134:fltk-1.3.4-1/png/pngwutil.c ****    {
 5959              		.loc 1 134 4 view .LVU1770
 134:fltk-1.3.4-1/png/pngwutil.c ****    {
 5960              		.loc 1 134 7 is_stmt 0 view .LVU1771
 5961 00c9 4885D2   		testq	%rdx, %rdx
 5962 00cc 7552     		jne	.L506
 5963              	.LVL579:
 5964              	.L485:
 134:fltk-1.3.4-1/png/pngwutil.c ****    {
 5965              		.loc 1 134 7 view .LVU1772
 5966              	.LBE449:
 5967              	.LBE456:
 5968              	.LBB457:
 5969              	.LBB458:
 5970 00ce 4C89E7   		movq	%r12, %rdi
 5971 00d1 E8000000 		call	png_write_chunk_end.part.0
 5971      00
 5972              	.LVL580:
 5973              	.L473:
 134:fltk-1.3.4-1/png/pngwutil.c ****    {
 5974              		.loc 1 134 7 view .LVU1773
 5975              	.LBE458:
 5976              	.LBE457:
1620:fltk-1.3.4-1/png/pngwutil.c **** #endif
 5977              		.loc 1 1620 1 view .LVU1774
 5978 00d6 488B4424 		movq	88(%rsp), %rax
 5978      58
 5979 00db 64483304 		xorq	%fs:40, %rax
 5979      25280000 
 5979      00
 5980 00e4 7562     		jne	.L507
 5981 00e6 4883C460 		addq	$96, %rsp
 5982              		.cfi_remember_state
 5983              		.cfi_def_cfa_offset 48
 5984 00ea 5B       		popq	%rbx
 5985              		.cfi_def_cfa_offset 40
 5986 00eb 5D       		popq	%rbp
 5987              		.cfi_def_cfa_offset 32
 5988 00ec 415C     		popq	%r12
 5989              		.cfi_def_cfa_offset 24
 5990              	.LVL581:
1620:fltk-1.3.4-1/png/pngwutil.c **** #endif
 5991              		.loc 1 1620 1 view .LVU1775
 5992 00ee 415D     		popq	%r13
 5993              		.cfi_def_cfa_offset 16
 5994              	.LVL582:
1620:fltk-1.3.4-1/png/pngwutil.c **** #endif
 5995              		.loc 1 1620 1 view .LVU1776
 5996 00f0 415E     		popq	%r14
 5997              		.cfi_def_cfa_offset 8
 5998 00f2 C3       		ret
 5999              	.LVL583:
 6000              		.p2align 4,,10
 6001 00f3 0F1F4400 		.p2align 3
 6001      00
 6002              	.L477:
 6003              		.cfi_restore_state
1606:fltk-1.3.4-1/png/pngwutil.c ****        (png_uint_32)/*checked above*/(key_len + text_len + 1));
 6004              		.loc 1 1606 4 is_stmt 1 view .LVU1777
 6005              	.LBB460:
  73:fltk-1.3.4-1/png/pngwutil.c ****     png_uint_32 length)
 6006              		.loc 1 73 1 view .LVU1778
 6007              	.LBB445:
  76:fltk-1.3.4-1/png/pngwutil.c **** 
 6008              		.loc 1 76 4 view .LVU1779
  83:fltk-1.3.4-1/png/pngwutil.c ****       return;
 6009              		.loc 1 83 4 view .LVU1780
 6010              	.LBE445:
 6011              	.LBE460:
1606:fltk-1.3.4-1/png/pngwutil.c ****        (png_uint_32)/*checked above*/(key_len + text_len + 1));
 6012              		.loc 1 1606 4 is_stmt 0 view .LVU1781
 6013 00f8 83C301   		addl	$1, %ebx
 6014              	.LVL584:
 6015              	.LBB461:
 6016              	.LBB446:
  83:fltk-1.3.4-1/png/pngwutil.c ****       return;
 6017              		.loc 1 83 7 view .LVU1782
 6018 00fb 4D85E4   		testq	%r12, %r12
 6019 00fe 75B8     		jne	.L483
 6020 0100 EBD4     		jmp	.L473
 6021              	.LVL585:
 6022              		.p2align 4,,10
 6023 0102 660F1F44 		.p2align 3
 6023      0000
 6024              	.L503:
  83:fltk-1.3.4-1/png/pngwutil.c ****       return;
 6025              		.loc 1 83 7 view .LVU1783
 6026              	.LBE446:
 6027              	.LBE461:
 6028              	.LBB462:
 6029              	.LBB440:
 692:fltk-1.3.4-1/png/pngwutil.c ****       return 0;
 6030              		.loc 1 692 7 is_stmt 1 view .LVU1784
 692:fltk-1.3.4-1/png/pngwutil.c ****       return 0;
 6031              		.loc 1 692 16 is_stmt 0 view .LVU1785
 6032 0108 C6042400 		movb	$0, (%rsp)
 693:fltk-1.3.4-1/png/pngwutil.c ****    }
 6033              		.loc 1 693 7 is_stmt 1 view .LVU1786
 6034              	.LVL586:
 693:fltk-1.3.4-1/png/pngwutil.c ****    }
 6035              		.loc 1 693 7 is_stmt 0 view .LVU1787
 6036              	.LBE440:
 6037              	.LBE462:
1593:fltk-1.3.4-1/png/pngwutil.c ****       png_error(png_ptr, "tEXt: invalid keyword");
 6038              		.loc 1 1593 4 is_stmt 1 view .LVU1788
 6039              	.L475:
1594:fltk-1.3.4-1/png/pngwutil.c **** 
 6040              		.loc 1 1594 7 view .LVU1789
 6041 010c 488D3500 		leaq	.LC36(%rip), %rsi
 6041      000000
 6042 0113 4C89E7   		movq	%r12, %rdi
 6043 0116 E8000000 		call	png_error@PLT
 6043      00
 6044              	.LVL587:
 6045 011b 0F1F4400 		.p2align 4,,10
 6045      00
 6046              		.p2align 3
 6047              	.L506:
 6048              	.LBB463:
 6049              	.LBB450:
1594:fltk-1.3.4-1/png/pngwutil.c **** 
 6050              		.loc 1 1594 7 is_stmt 0 view .LVU1790
 6051 0120 4889EE   		movq	%rbp, %rsi
 6052 0123 4C89E7   		movq	%r12, %rdi
 6053 0126 E8000000 		call	png_write_chunk_data.part.0
 6053      00
 6054              	.LVL588:
1594:fltk-1.3.4-1/png/pngwutil.c **** 
 6055              		.loc 1 1594 7 view .LVU1791
 6056              	.LBE450:
 6057              	.LBE463:
1616:fltk-1.3.4-1/png/pngwutil.c ****       png_write_chunk_data(png_ptr, (png_const_bytep)text, text_len);
 6058              		.loc 1 1616 4 is_stmt 1 view .LVU1792
1619:fltk-1.3.4-1/png/pngwutil.c **** }
 6059              		.loc 1 1619 4 view .LVU1793
 6060              	.LBB464:
 6061              	.LBI457:
 147:fltk-1.3.4-1/png/pngwutil.c **** {
 6062              		.loc 1 147 1 view .LVU1794
 6063              	.LBB459:
 149:fltk-1.3.4-1/png/pngwutil.c **** 
 6064              		.loc 1 149 4 view .LVU1795
 151:fltk-1.3.4-1/png/pngwutil.c **** 
 6065              		.loc 1 151 4 view .LVU1796
 151:fltk-1.3.4-1/png/pngwutil.c **** 
 6066              		.loc 1 151 7 is_stmt 0 view .LVU1797
 6067 012b 4D85E4   		testq	%r12, %r12
 6068 012e 759E     		jne	.L485
 6069 0130 EBA4     		jmp	.L473
 6070              	.LVL589:
 6071              		.p2align 4,,10
 6072 0132 660F1F44 		.p2align 3
 6072      0000
 6073              	.L505:
 151:fltk-1.3.4-1/png/pngwutil.c **** 
 6074              		.loc 1 151 7 view .LVU1798
 6075              	.LBE459:
 6076              	.LBE464:
 6077              	.LBB465:
 6078              	.LBB451:
 6079 0138 4889EE   		movq	%rbp, %rsi
 6080 013b 4C89E7   		movq	%r12, %rdi
 6081 013e E8000000 		call	png_write_chunk_data.part.0
 6081      00
 6082              	.LVL590:
 151:fltk-1.3.4-1/png/pngwutil.c **** 
 6083              		.loc 1 151 7 view .LVU1799
 6084 0143 E94BFFFF 		jmp	.L484
 6084      FF
 6085              	.LVL591:
 6086              	.L507:
 151:fltk-1.3.4-1/png/pngwutil.c **** 
 6087              		.loc 1 151 7 view .LVU1800
 6088              	.LBE451:
 6089              	.LBE465:
1620:fltk-1.3.4-1/png/pngwutil.c **** #endif
 6090              		.loc 1 1620 1 view .LVU1801
 6091 0148 E8000000 		call	__stack_chk_fail@PLT
 6091      00
 6092              	.LVL592:
 6093              	.L504:
1603:fltk-1.3.4-1/png/pngwutil.c **** 
 6094              		.loc 1 1603 7 is_stmt 1 view .LVU1802
 6095 014d 488D3500 		leaq	.LC37(%rip), %rsi
 6095      000000
 6096 0154 4C89E7   		movq	%r12, %rdi
 6097 0157 E8000000 		call	png_error@PLT
 6097      00
 6098              	.LVL593:
 6099              		.cfi_endproc
 6100              	.LFE71:
 6102              		.section	.rodata.png_write_zTXt.str1.8,"aMS",@progbits,1
 6103              		.align 8
 6104              	.LC38:
 6105 0000 7A545874 		.string	"zTXt: invalid compression type"
 6105      3A20696E 
 6105      76616C69 
 6105      6420636F 
 6105      6D707265 
 6106              		.section	.rodata.png_write_zTXt.str1.1,"aMS",@progbits,1
 6107              	.LC39:
 6108 0000 7A545874 		.string	"zTXt: invalid keyword"
 6108      3A20696E 
 6108      76616C69 
 6108      64206B65 
 6108      79776F72 
 6109              		.section	.text.png_write_zTXt,"ax",@progbits
 6110              		.p2align 4
 6111              		.globl	png_write_zTXt
 6113              	png_write_zTXt:
 6114              	.LVL594:
 6115              	.LFB72:
1628:fltk-1.3.4-1/png/pngwutil.c ****    png_uint_32 key_len;
 6116              		.loc 1 1628 1 view -0
 6117              		.cfi_startproc
1628:fltk-1.3.4-1/png/pngwutil.c ****    png_uint_32 key_len;
 6118              		.loc 1 1628 1 is_stmt 0 view .LVU1804
 6119 0000 F30F1EFA 		endbr64
 6120 0004 4155     		pushq	%r13
 6121              		.cfi_def_cfa_offset 16
 6122              		.cfi_offset 13, -16
 6123 0006 4989D5   		movq	%rdx, %r13
 6124 0009 4154     		pushq	%r12
 6125              		.cfi_def_cfa_offset 24
 6126              		.cfi_offset 12, -24
 6127 000b 4989FC   		movq	%rdi, %r12
 6128 000e 55       		pushq	%rbp
 6129              		.cfi_def_cfa_offset 32
 6130              		.cfi_offset 6, -32
 6131 000f 53       		pushq	%rbx
 6132              		.cfi_def_cfa_offset 40
 6133              		.cfi_offset 3, -40
 6134 0010 4881EC88 		subq	$1160, %rsp
 6134      040000
 6135              		.cfi_def_cfa_offset 1200
1628:fltk-1.3.4-1/png/pngwutil.c ****    png_uint_32 key_len;
 6136              		.loc 1 1628 1 view .LVU1805
 6137 0017 64488B04 		movq	%fs:40, %rax
 6137      25280000 
 6137      00
 6138 0020 48898424 		movq	%rax, 1144(%rsp)
 6138      78040000 
 6139 0028 31C0     		xorl	%eax, %eax
1629:fltk-1.3.4-1/png/pngwutil.c ****    png_byte new_key[81];
 6140              		.loc 1 1629 4 is_stmt 1 view .LVU1806
1630:fltk-1.3.4-1/png/pngwutil.c ****    compression_state comp;
 6141              		.loc 1 1630 4 view .LVU1807
1631:fltk-1.3.4-1/png/pngwutil.c **** 
 6142              		.loc 1 1631 4 view .LVU1808
1633:fltk-1.3.4-1/png/pngwutil.c **** 
 6143              		.loc 1 1633 4 view .LVU1809
1635:fltk-1.3.4-1/png/pngwutil.c ****    {
 6144              		.loc 1 1635 4 view .LVU1810
1635:fltk-1.3.4-1/png/pngwutil.c ****    {
 6145              		.loc 1 1635 7 is_stmt 0 view .LVU1811
 6146 002a 83F9FF   		cmpl	$-1, %ecx
 6147 002d 0F840D01 		je	.L527
 6147      0000
1641:fltk-1.3.4-1/png/pngwutil.c ****       png_error(png_ptr, "zTXt: invalid compression type");
 6148              		.loc 1 1641 4 is_stmt 1 view .LVU1812
1641:fltk-1.3.4-1/png/pngwutil.c ****       png_error(png_ptr, "zTXt: invalid compression type");
 6149              		.loc 1 1641 7 is_stmt 0 view .LVU1813
 6150 0033 85C9     		testl	%ecx, %ecx
 6151 0035 0F850E01 		jne	.L528
 6151      0000
1644:fltk-1.3.4-1/png/pngwutil.c **** 
 6152              		.loc 1 1644 4 is_stmt 1 view .LVU1814
 6153              	.LVL595:
 6154              	.LBB466:
 6155              	.LBI466:
 681:fltk-1.3.4-1/png/pngwutil.c **** {
 6156              		.loc 1 681 1 view .LVU1815
 6157              	.LBB467:
 683:fltk-1.3.4-1/png/pngwutil.c ****    png_uint_32 key_len = 0;
 6158              		.loc 1 683 4 view .LVU1816
 684:fltk-1.3.4-1/png/pngwutil.c ****    int bad_character = 0;
 6159              		.loc 1 684 4 view .LVU1817
 685:fltk-1.3.4-1/png/pngwutil.c ****    int space = 1;
 6160              		.loc 1 685 4 view .LVU1818
 686:fltk-1.3.4-1/png/pngwutil.c **** 
 6161              		.loc 1 686 4 view .LVU1819
 688:fltk-1.3.4-1/png/pngwutil.c **** 
 6162              		.loc 1 688 4 view .LVU1820
 690:fltk-1.3.4-1/png/pngwutil.c ****    {
 6163              		.loc 1 690 4 view .LVU1821
 690:fltk-1.3.4-1/png/pngwutil.c ****    {
 6164              		.loc 1 690 7 is_stmt 0 view .LVU1822
 6165 003b 4885F6   		testq	%rsi, %rsi
 6166 003e 0F84DC00 		je	.L529
 6166      0000
 6167 0044 488DAC24 		leaq	1056(%rsp), %rbp
 6167      20040000 
 6168              	.LVL596:
 690:fltk-1.3.4-1/png/pngwutil.c ****    {
 6169              		.loc 1 690 7 view .LVU1823
 6170 004c 4889EA   		movq	%rbp, %rdx
 6171              	.LVL597:
 690:fltk-1.3.4-1/png/pngwutil.c ****    {
 6172              		.loc 1 690 7 view .LVU1824
 6173 004f E8000000 		call	png_check_keyword.part.0
 6173      00
 6174              	.LVL598:
 690:fltk-1.3.4-1/png/pngwutil.c ****    {
 6175              		.loc 1 690 7 view .LVU1825
 6176              	.LBE467:
 6177              	.LBE466:
1646:fltk-1.3.4-1/png/pngwutil.c ****       png_error(png_ptr, "zTXt: invalid keyword");
 6178              		.loc 1 1646 4 is_stmt 1 view .LVU1826
1646:fltk-1.3.4-1/png/pngwutil.c ****       png_error(png_ptr, "zTXt: invalid keyword");
 6179              		.loc 1 1646 7 is_stmt 0 view .LVU1827
 6180 0054 85C0     		testl	%eax, %eax
 6181 0056 0F84CC00 		je	.L513
 6181      0000
1650:fltk-1.3.4-1/png/pngwutil.c ****    ++key_len;
 6182              		.loc 1 1650 4 is_stmt 1 view .LVU1828
 6183              	.LVL599:
1650:fltk-1.3.4-1/png/pngwutil.c ****    ++key_len;
 6184              		.loc 1 1650 23 is_stmt 0 view .LVU1829
 6185 005c 8D5001   		leal	1(%rax), %edx
1651:fltk-1.3.4-1/png/pngwutil.c **** 
 6186              		.loc 1 1651 4 view .LVU1830
 6187 005f 8D5802   		leal	2(%rax), %ebx
1654:fltk-1.3.4-1/png/pngwutil.c ****       text == NULL ? 0 : strlen(text));
 6188              		.loc 1 1654 4 view .LVU1831
 6189 0062 31C0     		xorl	%eax, %eax
 6190              	.LVL600:
1650:fltk-1.3.4-1/png/pngwutil.c ****    ++key_len;
 6191              		.loc 1 1650 23 view .LVU1832
 6192 0064 C6841420 		movb	$0, 1056(%rsp,%rdx)
 6192      04000000 
1651:fltk-1.3.4-1/png/pngwutil.c **** 
 6193              		.loc 1 1651 4 is_stmt 1 view .LVU1833
 6194              	.LVL601:
1654:fltk-1.3.4-1/png/pngwutil.c ****       text == NULL ? 0 : strlen(text));
 6195              		.loc 1 1654 4 view .LVU1834
 6196 006c 4D85ED   		testq	%r13, %r13
 6197 006f 7408     		je	.L515
1655:fltk-1.3.4-1/png/pngwutil.c **** 
 6198              		.loc 1 1655 26 is_stmt 0 view .LVU1835
 6199 0071 4C89EF   		movq	%r13, %rdi
 6200 0074 E8000000 		call	strlen@PLT
 6200      00
 6201              	.LVL602:
 6202              	.L515:
 6203              	.LBB469:
 6204              	.LBI469:
 479:fltk-1.3.4-1/png/pngwutil.c ****    png_alloc_size_t input_len)
 6205              		.loc 1 479 1 is_stmt 1 discriminator 2 view .LVU1836
 6206              	.LBB470:
 482:fltk-1.3.4-1/png/pngwutil.c ****    comp->input_len = input_len;
 6207              		.loc 1 482 4 discriminator 2 view .LVU1837
 482:fltk-1.3.4-1/png/pngwutil.c ****    comp->input_len = input_len;
 6208              		.loc 1 482 16 is_stmt 0 discriminator 2 view .LVU1838
 6209 0079 4C892C24 		movq	%r13, (%rsp)
 483:fltk-1.3.4-1/png/pngwutil.c ****    comp->output_len = 0;
 6210              		.loc 1 483 4 is_stmt 1 discriminator 2 view .LVU1839
 6211              	.LBE470:
 6212              	.LBE469:
1657:fltk-1.3.4-1/png/pngwutil.c ****       png_error(png_ptr, png_ptr->zstream.msg);
 6213              		.loc 1 1657 8 is_stmt 0 discriminator 2 view .LVU1840
 6214 007d 4989E5   		movq	%rsp, %r13
 6215              	.LVL603:
1657:fltk-1.3.4-1/png/pngwutil.c ****       png_error(png_ptr, png_ptr->zstream.msg);
 6216              		.loc 1 1657 8 discriminator 2 view .LVU1841
 6217 0080 89D9     		movl	%ebx, %ecx
 6218 0082 BE745854 		movl	$2052348020, %esi
 6218      7A
 6219 0087 4C89EA   		movq	%r13, %rdx
 6220 008a 4C89E7   		movq	%r12, %rdi
 6221              	.LBB472:
 6222              	.LBB471:
 483:fltk-1.3.4-1/png/pngwutil.c ****    comp->output_len = 0;
 6223              		.loc 1 483 20 discriminator 2 view .LVU1842
 6224 008d 48894424 		movq	%rax, 8(%rsp)
 6224      08
 484:fltk-1.3.4-1/png/pngwutil.c **** }
 6225              		.loc 1 484 4 is_stmt 1 discriminator 2 view .LVU1843
 484:fltk-1.3.4-1/png/pngwutil.c **** }
 6226              		.loc 1 484 21 is_stmt 0 discriminator 2 view .LVU1844
 6227 0092 C7442410 		movl	$0, 16(%rsp)
 6227      00000000 
 6228              	.LVL604:
 484:fltk-1.3.4-1/png/pngwutil.c **** }
 6229              		.loc 1 484 21 discriminator 2 view .LVU1845
 6230              	.LBE471:
 6231              	.LBE472:
1657:fltk-1.3.4-1/png/pngwutil.c ****       png_error(png_ptr, png_ptr->zstream.msg);
 6232              		.loc 1 1657 4 is_stmt 1 discriminator 2 view .LVU1846
1657:fltk-1.3.4-1/png/pngwutil.c ****       png_error(png_ptr, png_ptr->zstream.msg);
 6233              		.loc 1 1657 8 is_stmt 0 discriminator 2 view .LVU1847
 6234 009a E8000000 		call	png_text_compress
 6234      00
 6235              	.LVL605:
1657:fltk-1.3.4-1/png/pngwutil.c ****       png_error(png_ptr, png_ptr->zstream.msg);
 6236              		.loc 1 1657 7 discriminator 2 view .LVU1848
 6237 009f 85C0     		testl	%eax, %eax
 6238 00a1 0F85AE00 		jne	.L530
 6238      0000
1661:fltk-1.3.4-1/png/pngwutil.c **** 
 6239              		.loc 1 1661 4 is_stmt 1 view .LVU1849
 6240 00a7 8B542410 		movl	16(%rsp), %edx
 6241 00ab 01DA     		addl	%ebx, %edx
 6242              	.LVL606:
 6243              	.LBB473:
 6244              	.LBI473:
  73:fltk-1.3.4-1/png/pngwutil.c ****     png_uint_32 length)
 6245              		.loc 1 73 1 view .LVU1850
 6246              	.LBB474:
  76:fltk-1.3.4-1/png/pngwutil.c **** 
 6247              		.loc 1 76 4 view .LVU1851
  83:fltk-1.3.4-1/png/pngwutil.c ****       return;
 6248              		.loc 1 83 4 view .LVU1852
  83:fltk-1.3.4-1/png/pngwutil.c ****       return;
 6249              		.loc 1 83 7 is_stmt 0 view .LVU1853
 6250 00ad 4D85E4   		testq	%r12, %r12
 6251 00b0 744E     		je	.L517
 6252 00b2 BE745854 		movl	$2052348020, %esi
 6252      7A
 6253 00b7 4C89E7   		movq	%r12, %rdi
 6254 00ba E8000000 		call	png_write_chunk_header.part.0
 6254      00
 6255              	.LVL607:
  83:fltk-1.3.4-1/png/pngwutil.c ****       return;
 6256              		.loc 1 83 7 view .LVU1854
 6257              	.LBE474:
 6258              	.LBE473:
1664:fltk-1.3.4-1/png/pngwutil.c **** 
 6259              		.loc 1 1664 4 is_stmt 1 view .LVU1855
 6260 00bf 89DA     		movl	%ebx, %edx
 6261              	.LVL608:
 6262              	.LBB475:
 6263              	.LBI475:
 127:fltk-1.3.4-1/png/pngwutil.c ****     png_size_t length)
 6264              		.loc 1 127 1 view .LVU1856
 6265              	.LBB476:
 131:fltk-1.3.4-1/png/pngwutil.c ****       return;
 6266              		.loc 1 131 4 view .LVU1857
 134:fltk-1.3.4-1/png/pngwutil.c ****    {
 6267              		.loc 1 134 4 view .LVU1858
 134:fltk-1.3.4-1/png/pngwutil.c ****    {
 6268              		.loc 1 134 7 is_stmt 0 view .LVU1859
 6269 00c1 4885D2   		testq	%rdx, %rdx
 6270 00c4 754A     		jne	.L531
 6271              	.LVL609:
 6272              	.L518:
 134:fltk-1.3.4-1/png/pngwutil.c ****    {
 6273              		.loc 1 134 7 view .LVU1860
 6274              	.LBE476:
 6275              	.LBE475:
1667:fltk-1.3.4-1/png/pngwutil.c **** 
 6276              		.loc 1 1667 4 is_stmt 1 view .LVU1861
 6277 00c6 4C89E7   		movq	%r12, %rdi
 6278 00c9 4C89EE   		movq	%r13, %rsi
 6279 00cc E8000000 		call	png_write_compressed_data_out
 6279      00
 6280              	.LVL610:
1670:fltk-1.3.4-1/png/pngwutil.c **** }
 6281              		.loc 1 1670 4 view .LVU1862
 6282              	.LBB479:
 6283              	.LBI479:
 147:fltk-1.3.4-1/png/pngwutil.c **** {
 6284              		.loc 1 147 1 view .LVU1863
 6285              	.LBB480:
 149:fltk-1.3.4-1/png/pngwutil.c **** 
 6286              		.loc 1 149 4 view .LVU1864
 151:fltk-1.3.4-1/png/pngwutil.c **** 
 6287              		.loc 1 151 4 view .LVU1865
 151:fltk-1.3.4-1/png/pngwutil.c **** 
 6288              		.loc 1 151 4 is_stmt 0 view .LVU1866
 6289 00d1 4C89E7   		movq	%r12, %rdi
 6290 00d4 E8000000 		call	png_write_chunk_end.part.0
 6290      00
 6291              	.LVL611:
 6292              	.L508:
 151:fltk-1.3.4-1/png/pngwutil.c **** 
 6293              		.loc 1 151 4 view .LVU1867
 6294              	.LBE480:
 6295              	.LBE479:
1671:fltk-1.3.4-1/png/pngwutil.c **** #endif
 6296              		.loc 1 1671 1 view .LVU1868
 6297 00d9 488B8424 		movq	1144(%rsp), %rax
 6297      78040000 
 6298 00e1 64483304 		xorq	%fs:40, %rax
 6298      25280000 
 6298      00
 6299 00ea 7579     		jne	.L532
 6300 00ec 4881C488 		addq	$1160, %rsp
 6300      040000
 6301              		.cfi_remember_state
 6302              		.cfi_def_cfa_offset 40
 6303 00f3 5B       		popq	%rbx
 6304              		.cfi_def_cfa_offset 32
 6305 00f4 5D       		popq	%rbp
 6306              		.cfi_def_cfa_offset 24
 6307 00f5 415C     		popq	%r12
 6308              		.cfi_def_cfa_offset 16
 6309              	.LVL612:
1671:fltk-1.3.4-1/png/pngwutil.c **** #endif
 6310              		.loc 1 1671 1 view .LVU1869
 6311 00f7 415D     		popq	%r13
 6312              		.cfi_def_cfa_offset 8
 6313 00f9 C3       		ret
 6314              	.LVL613:
 6315 00fa 660F1F44 		.p2align 4,,10
 6315      0000
 6316              		.p2align 3
 6317              	.L517:
 6318              		.cfi_restore_state
1664:fltk-1.3.4-1/png/pngwutil.c **** 
 6319              		.loc 1 1664 4 is_stmt 1 view .LVU1870
 6320              	.LBB482:
 127:fltk-1.3.4-1/png/pngwutil.c ****     png_size_t length)
 6321              		.loc 1 127 1 view .LVU1871
 6322              	.LBB477:
 131:fltk-1.3.4-1/png/pngwutil.c ****       return;
 6323              		.loc 1 131 4 view .LVU1872
 131:fltk-1.3.4-1/png/pngwutil.c ****       return;
 6324              		.loc 1 131 4 is_stmt 0 view .LVU1873
 6325              	.LBE477:
 6326              	.LBE482:
1667:fltk-1.3.4-1/png/pngwutil.c **** 
 6327              		.loc 1 1667 4 is_stmt 1 view .LVU1874
 6328 0100 4C89EE   		movq	%r13, %rsi
 6329 0103 31FF     		xorl	%edi, %edi
 6330 0105 E8000000 		call	png_write_compressed_data_out
 6330      00
 6331              	.LVL614:
1670:fltk-1.3.4-1/png/pngwutil.c **** }
 6332              		.loc 1 1670 4 view .LVU1875
 6333              	.LBB483:
 147:fltk-1.3.4-1/png/pngwutil.c **** {
 6334              		.loc 1 147 1 view .LVU1876
 6335              	.LBB481:
 149:fltk-1.3.4-1/png/pngwutil.c **** 
 6336              		.loc 1 149 4 view .LVU1877
 151:fltk-1.3.4-1/png/pngwutil.c **** 
 6337              		.loc 1 151 4 view .LVU1878
 6338 010a EBCD     		jmp	.L508
 6339              	.LVL615:
 6340 010c 0F1F4000 		.p2align 4,,10
 6341              		.p2align 3
 6342              	.L531:
 151:fltk-1.3.4-1/png/pngwutil.c **** 
 6343              		.loc 1 151 4 is_stmt 0 view .LVU1879
 6344              	.LBE481:
 6345              	.LBE483:
 6346              	.LBB484:
 6347              	.LBB478:
 6348 0110 4889EE   		movq	%rbp, %rsi
 6349 0113 4C89E7   		movq	%r12, %rdi
 6350 0116 E8000000 		call	png_write_chunk_data.part.0
 6350      00
 6351              	.LVL616:
 151:fltk-1.3.4-1/png/pngwutil.c **** 
 6352              		.loc 1 151 4 view .LVU1880
 6353 011b EBA9     		jmp	.L518
 6354              	.LVL617:
 6355 011d 0F1F00   		.p2align 4,,10
 6356              		.p2align 3
 6357              	.L529:
 151:fltk-1.3.4-1/png/pngwutil.c **** 
 6358              		.loc 1 151 4 view .LVU1881
 6359              	.LBE478:
 6360              	.LBE484:
 6361              	.LBB485:
 6362              	.LBB468:
 692:fltk-1.3.4-1/png/pngwutil.c ****       return 0;
 6363              		.loc 1 692 7 is_stmt 1 view .LVU1882
 692:fltk-1.3.4-1/png/pngwutil.c ****       return 0;
 6364              		.loc 1 692 16 is_stmt 0 view .LVU1883
 6365 0120 C6842420 		movb	$0, 1056(%rsp)
 6365      04000000 
 693:fltk-1.3.4-1/png/pngwutil.c ****    }
 6366              		.loc 1 693 7 is_stmt 1 view .LVU1884
 6367              	.LVL618:
 693:fltk-1.3.4-1/png/pngwutil.c ****    }
 6368              		.loc 1 693 7 is_stmt 0 view .LVU1885
 6369              	.LBE468:
 6370              	.LBE485:
1646:fltk-1.3.4-1/png/pngwutil.c ****       png_error(png_ptr, "zTXt: invalid keyword");
 6371              		.loc 1 1646 4 is_stmt 1 view .LVU1886
 6372              	.L513:
1647:fltk-1.3.4-1/png/pngwutil.c **** 
 6373              		.loc 1 1647 7 view .LVU1887
 6374 0128 488D3500 		leaq	.LC39(%rip), %rsi
 6374      000000
 6375 012f 4C89E7   		movq	%r12, %rdi
 6376 0132 E8000000 		call	png_error@PLT
 6376      00
 6377              	.LVL619:
 6378 0137 660F1F84 		.p2align 4,,10
 6378      00000000 
 6378      00
 6379              		.p2align 3
 6380              	.L527:
1637:fltk-1.3.4-1/png/pngwutil.c ****       return;
 6381              		.loc 1 1637 7 view .LVU1888
 6382 0140 31C9     		xorl	%ecx, %ecx
 6383              	.LVL620:
1637:fltk-1.3.4-1/png/pngwutil.c ****       return;
 6384              		.loc 1 1637 7 is_stmt 0 view .LVU1889
 6385 0142 E8000000 		call	png_write_tEXt
 6385      00
 6386              	.LVL621:
1638:fltk-1.3.4-1/png/pngwutil.c ****    }
 6387              		.loc 1 1638 7 is_stmt 1 view .LVU1890
 6388 0147 EB90     		jmp	.L508
 6389              	.LVL622:
 6390              	.L528:
1642:fltk-1.3.4-1/png/pngwutil.c **** 
 6391              		.loc 1 1642 7 view .LVU1891
 6392 0149 488D3500 		leaq	.LC38(%rip), %rsi
 6392      000000
 6393              	.LVL623:
1642:fltk-1.3.4-1/png/pngwutil.c **** 
 6394              		.loc 1 1642 7 is_stmt 0 view .LVU1892
 6395 0150 E8000000 		call	png_error@PLT
 6395      00
 6396              	.LVL624:
 6397              	.L530:
1658:fltk-1.3.4-1/png/pngwutil.c **** 
 6398              		.loc 1 1658 7 is_stmt 1 view .LVU1893
 6399 0155 498BB424 		movq	368(%r12), %rsi
 6399      70010000 
 6400 015d 4C89E7   		movq	%r12, %rdi
 6401 0160 E8000000 		call	png_error@PLT
 6401      00
 6402              	.LVL625:
 6403              	.L532:
1671:fltk-1.3.4-1/png/pngwutil.c **** #endif
 6404              		.loc 1 1671 1 is_stmt 0 view .LVU1894
 6405 0165 E8000000 		call	__stack_chk_fail@PLT
 6405      00
 6406              	.LVL626:
 6407              		.cfi_endproc
 6408              	.LFE72:
 6410              		.section	.rodata.png_write_iTXt.str1.1,"aMS",@progbits,1
 6411              	.LC40:
 6412 0000 00       		.string	""
 6413              	.LC41:
 6414 0001 69545874 		.string	"iTXt: invalid keyword"
 6414      3A20696E 
 6414      76616C69 
 6414      64206B65 
 6414      79776F72 
 6415              	.LC42:
 6416 0017 69545874 		.string	"iTXt: invalid compression"
 6416      3A20696E 
 6416      76616C69 
 6416      6420636F 
 6416      6D707265 
 6417              		.section	.rodata.png_write_iTXt.str1.8,"aMS",@progbits,1
 6418              		.align 8
 6419              	.LC43:
 6420 0000 69545874 		.string	"iTXt: uncompressed text too long"
 6420      3A20756E 
 6420      636F6D70 
 6420      72657373 
 6420      65642074 
 6421              		.section	.text.png_write_iTXt,"ax",@progbits
 6422              		.p2align 4
 6423              		.globl	png_write_iTXt
 6425              	png_write_iTXt:
 6426              	.LVL627:
 6427              	.LFB73:
1679:fltk-1.3.4-1/png/pngwutil.c ****    png_uint_32 key_len, prefix_len;
 6428              		.loc 1 1679 1 is_stmt 1 view -0
 6429              		.cfi_startproc
1679:fltk-1.3.4-1/png/pngwutil.c ****    png_uint_32 key_len, prefix_len;
 6430              		.loc 1 1679 1 is_stmt 0 view .LVU1896
 6431 0000 F30F1EFA 		endbr64
 6432 0004 4157     		pushq	%r15
 6433              		.cfi_def_cfa_offset 16
 6434              		.cfi_offset 15, -16
 6435 0006 4156     		pushq	%r14
 6436              		.cfi_def_cfa_offset 24
 6437              		.cfi_offset 14, -24
 6438 0008 4155     		pushq	%r13
 6439              		.cfi_def_cfa_offset 32
 6440              		.cfi_offset 13, -32
 6441 000a 4154     		pushq	%r12
 6442              		.cfi_def_cfa_offset 40
 6443              		.cfi_offset 12, -40
 6444 000c 55       		pushq	%rbp
 6445              		.cfi_def_cfa_offset 48
 6446              		.cfi_offset 6, -48
 6447 000d 4889FD   		movq	%rdi, %rbp
 6448 0010 53       		pushq	%rbx
 6449              		.cfi_def_cfa_offset 56
 6450              		.cfi_offset 3, -56
 6451 0011 4881ECA8 		subq	$1192, %rsp
 6451      040000
 6452              		.cfi_def_cfa_offset 1248
1679:fltk-1.3.4-1/png/pngwutil.c ****    png_uint_32 key_len, prefix_len;
 6453              		.loc 1 1679 1 view .LVU1897
 6454 0018 64488B04 		movq	%fs:40, %rax
 6454      25280000 
 6454      00
 6455 0021 48898424 		movq	%rax, 1176(%rsp)
 6455      98040000 
 6456 0029 31C0     		xorl	%eax, %eax
1680:fltk-1.3.4-1/png/pngwutil.c ****    png_size_t lang_len, lang_key_len;
 6457              		.loc 1 1680 4 is_stmt 1 view .LVU1898
1681:fltk-1.3.4-1/png/pngwutil.c ****    png_byte new_key[82];
 6458              		.loc 1 1681 4 view .LVU1899
1682:fltk-1.3.4-1/png/pngwutil.c ****    compression_state comp;
 6459              		.loc 1 1682 4 view .LVU1900
1683:fltk-1.3.4-1/png/pngwutil.c **** 
 6460              		.loc 1 1683 4 view .LVU1901
1685:fltk-1.3.4-1/png/pngwutil.c **** 
 6461              		.loc 1 1685 4 view .LVU1902
1687:fltk-1.3.4-1/png/pngwutil.c **** 
 6462              		.loc 1 1687 4 view .LVU1903
 6463              	.LVL628:
 6464              	.LBB486:
 6465              	.LBI486:
 681:fltk-1.3.4-1/png/pngwutil.c **** {
 6466              		.loc 1 681 1 view .LVU1904
 6467              	.LBB487:
 683:fltk-1.3.4-1/png/pngwutil.c ****    png_uint_32 key_len = 0;
 6468              		.loc 1 683 4 view .LVU1905
 684:fltk-1.3.4-1/png/pngwutil.c ****    int bad_character = 0;
 6469              		.loc 1 684 4 view .LVU1906
 685:fltk-1.3.4-1/png/pngwutil.c ****    int space = 1;
 6470              		.loc 1 685 4 view .LVU1907
 686:fltk-1.3.4-1/png/pngwutil.c **** 
 6471              		.loc 1 686 4 view .LVU1908
 688:fltk-1.3.4-1/png/pngwutil.c **** 
 6472              		.loc 1 688 4 view .LVU1909
 690:fltk-1.3.4-1/png/pngwutil.c ****    {
 6473              		.loc 1 690 4 view .LVU1910
 690:fltk-1.3.4-1/png/pngwutil.c ****    {
 6474              		.loc 1 690 7 is_stmt 0 view .LVU1911
 6475 002b 4885D2   		testq	%rdx, %rdx
 6476 002e 0F84AC02 		je	.L587
 6476      0000
 6477 0034 4189F7   		movl	%esi, %r15d
 6478 0037 4889D6   		movq	%rdx, %rsi
 6479              	.LVL629:
 690:fltk-1.3.4-1/png/pngwutil.c ****    {
 6480              		.loc 1 690 7 view .LVU1912
 6481 003a 4989CE   		movq	%rcx, %r14
 6482 003d 4D89C5   		movq	%r8, %r13
 6483 0040 488D8424 		leaq	1088(%rsp), %rax
 6483      40040000 
 6484              	.LVL630:
 690:fltk-1.3.4-1/png/pngwutil.c ****    {
 6485              		.loc 1 690 7 view .LVU1913
 6486 0048 4D89CC   		movq	%r9, %r12
 6487 004b 4889C2   		movq	%rax, %rdx
 6488              	.LVL631:
 690:fltk-1.3.4-1/png/pngwutil.c ****    {
 6489              		.loc 1 690 7 view .LVU1914
 6490 004e 48894424 		movq	%rax, 24(%rsp)
 6490      18
 6491 0053 E8000000 		call	png_check_keyword.part.0
 6491      00
 6492              	.LVL632:
 690:fltk-1.3.4-1/png/pngwutil.c ****    {
 6493              		.loc 1 690 7 view .LVU1915
 6494              	.LBE487:
 6495              	.LBE486:
1689:fltk-1.3.4-1/png/pngwutil.c ****       png_error(png_ptr, "iTXt: invalid keyword");
 6496              		.loc 1 1689 4 is_stmt 1 view .LVU1916
1689:fltk-1.3.4-1/png/pngwutil.c ****       png_error(png_ptr, "iTXt: invalid keyword");
 6497              		.loc 1 1689 7 is_stmt 0 view .LVU1917
 6498 0058 85C0     		testl	%eax, %eax
 6499 005a 0F848802 		je	.L535
 6499      0000
1693:fltk-1.3.4-1/png/pngwutil.c ****    {
 6500              		.loc 1 1693 4 is_stmt 1 view .LVU1918
 6501 0060 4183FF01 		cmpl	$1, %r15d
 6502 0064 0F848601 		je	.L537
 6502      0000
 6503 006a 0F8F4001 		jg	.L538
 6503      0000
 6504 0070 4183FFFF 		cmpl	$-1, %r15d
 6505 0074 0F847601 		je	.L537
 6505      0000
 6506 007a 4585FF   		testl	%r15d, %r15d
 6507 007d 0F853701 		jne	.L540
 6507      0000
 6508              	.L539:
1702:fltk-1.3.4-1/png/pngwutil.c ****          break;
 6509              		.loc 1 1702 10 view .LVU1919
1702:fltk-1.3.4-1/png/pngwutil.c ****          break;
 6510              		.loc 1 1702 43 is_stmt 0 view .LVU1920
 6511 0083 83C001   		addl	$1, %eax
 6512              	.LVL633:
1702:fltk-1.3.4-1/png/pngwutil.c ****          break;
 6513              		.loc 1 1702 22 view .LVU1921
 6514 0086 C7442414 		movl	$1, 20(%rsp)
 6514      01000000 
1702:fltk-1.3.4-1/png/pngwutil.c ****          break;
 6515              		.loc 1 1702 43 view .LVU1922
 6516 008e C6840440 		movb	$1, 1088(%rsp,%rax)
 6516      04000001 
 6517 0096 4889C2   		movq	%rax, %rdx
 6518              	.LVL634:
1703:fltk-1.3.4-1/png/pngwutil.c **** 
 6519              		.loc 1 1703 10 is_stmt 1 view .LVU1923
 6520              	.L541:
1709:fltk-1.3.4-1/png/pngwutil.c ****    ++key_len; /* for the keywod separator */
 6521              		.loc 1 1709 4 view .LVU1924
1709:fltk-1.3.4-1/png/pngwutil.c ****    ++key_len; /* for the keywod separator */
 6522              		.loc 1 1709 23 is_stmt 0 view .LVU1925
 6523 0099 8D4201   		leal	1(%rdx), %eax
1710:fltk-1.3.4-1/png/pngwutil.c **** 
 6524              		.loc 1 1710 4 view .LVU1926
 6525 009c 8D5A02   		leal	2(%rdx), %ebx
1709:fltk-1.3.4-1/png/pngwutil.c ****    ++key_len; /* for the keywod separator */
 6526              		.loc 1 1709 23 view .LVU1927
 6527 009f C6840440 		movb	$0, 1088(%rsp,%rax)
 6527      04000000 
1710:fltk-1.3.4-1/png/pngwutil.c **** 
 6528              		.loc 1 1710 4 is_stmt 1 view .LVU1928
 6529              	.LVL635:
1722:fltk-1.3.4-1/png/pngwutil.c ****    lang_len = strlen(lang)+1;
 6530              		.loc 1 1722 4 view .LVU1929
1722:fltk-1.3.4-1/png/pngwutil.c ****    lang_len = strlen(lang)+1;
 6531              		.loc 1 1722 7 is_stmt 0 view .LVU1930
 6532 00a7 4D85F6   		testq	%r14, %r14
 6533 00aa 0F84A001 		je	.L561
 6533      0000
 6534 00b0 4C89F7   		movq	%r14, %rdi
 6535 00b3 E8000000 		call	strlen@PLT
 6535      00
 6536              	.LVL636:
 6537 00b8 4C8D7801 		leaq	1(%rax), %r15
1723:fltk-1.3.4-1/png/pngwutil.c ****    if (lang_key == NULL) lang_key = ""; /* may be empty */
 6538              		.loc 1 1723 4 is_stmt 1 view .LVU1931
 6539              	.LVL637:
1724:fltk-1.3.4-1/png/pngwutil.c ****    lang_key_len = strlen(lang_key)+1;
 6540              		.loc 1 1724 4 view .LVU1932
1724:fltk-1.3.4-1/png/pngwutil.c ****    lang_key_len = strlen(lang_key)+1;
 6541              		.loc 1 1724 7 is_stmt 0 view .LVU1933
 6542 00bc 4D85ED   		testq	%r13, %r13
 6543 00bf 0F84A101 		je	.L562
 6543      0000
 6544              	.LVL638:
 6545              	.L596:
1724:fltk-1.3.4-1/png/pngwutil.c ****    lang_key_len = strlen(lang_key)+1;
 6546              		.loc 1 1724 7 view .LVU1934
 6547 00c5 4C89EF   		movq	%r13, %rdi
 6548 00c8 E8000000 		call	strlen@PLT
 6548      00
 6549              	.LVL639:
 6550 00cd 4883C001 		addq	$1, %rax
 6551 00d1 48894424 		movq	%rax, 8(%rsp)
 6551      08
1725:fltk-1.3.4-1/png/pngwutil.c ****    if (text == NULL) text = ""; /* may be empty */
 6552              		.loc 1 1725 4 is_stmt 1 view .LVU1935
 6553              	.LVL640:
1726:fltk-1.3.4-1/png/pngwutil.c **** 
 6554              		.loc 1 1726 4 view .LVU1936
1726:fltk-1.3.4-1/png/pngwutil.c **** 
 6555              		.loc 1 1726 7 is_stmt 0 view .LVU1937
 6556 00d6 4D85E4   		testq	%r12, %r12
 6557 00d9 0F84A001 		je	.L563
 6557      0000
 6558              	.LVL641:
 6559              	.L597:
1726:fltk-1.3.4-1/png/pngwutil.c **** 
 6560              		.loc 1 1726 7 view .LVU1938
 6561 00df 4C89E7   		movq	%r12, %rdi
 6562 00e2 E8000000 		call	strlen@PLT
 6562      00
 6563              	.LVL642:
 6564              	.L544:
1728:fltk-1.3.4-1/png/pngwutil.c ****    if (lang_len > PNG_UINT_31_MAX-prefix_len)
 6565              		.loc 1 1728 4 is_stmt 1 view .LVU1939
1729:fltk-1.3.4-1/png/pngwutil.c ****       prefix_len = PNG_UINT_31_MAX;
 6566              		.loc 1 1729 4 view .LVU1940
1729:fltk-1.3.4-1/png/pngwutil.c ****       prefix_len = PNG_UINT_31_MAX;
 6567              		.loc 1 1729 34 is_stmt 0 view .LVU1941
 6568 00e7 BAFFFFFF 		movl	$2147483647, %edx
 6568      7F
1735:fltk-1.3.4-1/png/pngwutil.c ****    else
 6569              		.loc 1 1735 18 view .LVU1942
 6570 00ec B9FFFFFF 		movl	$2147483647, %ecx
 6570      7F
1729:fltk-1.3.4-1/png/pngwutil.c ****       prefix_len = PNG_UINT_31_MAX;
 6571              		.loc 1 1729 34 view .LVU1943
 6572 00f1 29DA     		subl	%ebx, %edx
1729:fltk-1.3.4-1/png/pngwutil.c ****       prefix_len = PNG_UINT_31_MAX;
 6573              		.loc 1 1729 7 view .LVU1944
 6574 00f3 4C39FA   		cmpq	%r15, %rdx
 6575 00f6 0F83D400 		jnb	.L588
 6575      0000
 6576              	.LVL643:
 6577              	.L545:
1739:fltk-1.3.4-1/png/pngwutil.c **** 
 6578              		.loc 1 1739 4 is_stmt 1 view .LVU1945
 6579              	.LBB489:
 6580              	.LBI489:
 479:fltk-1.3.4-1/png/pngwutil.c ****    png_alloc_size_t input_len)
 6581              		.loc 1 479 1 view .LVU1946
 6582              	.LBB490:
 482:fltk-1.3.4-1/png/pngwutil.c ****    comp->input_len = input_len;
 6583              		.loc 1 482 4 view .LVU1947
 6584              	.LBE490:
 6585              	.LBE489:
1741:fltk-1.3.4-1/png/pngwutil.c ****    {
 6586              		.loc 1 1741 7 is_stmt 0 view .LVU1948
 6587 00fc 8B542414 		movl	20(%rsp), %edx
 6588              	.LBB492:
 6589              	.LBB491:
 482:fltk-1.3.4-1/png/pngwutil.c ****    comp->input_len = input_len;
 6590              		.loc 1 482 16 view .LVU1949
 6591 0100 4C896424 		movq	%r12, 32(%rsp)
 6591      20
 483:fltk-1.3.4-1/png/pngwutil.c ****    comp->output_len = 0;
 6592              		.loc 1 483 4 is_stmt 1 view .LVU1950
 483:fltk-1.3.4-1/png/pngwutil.c ****    comp->output_len = 0;
 6593              		.loc 1 483 20 is_stmt 0 view .LVU1951
 6594 0105 48894424 		movq	%rax, 40(%rsp)
 6594      28
 484:fltk-1.3.4-1/png/pngwutil.c **** }
 6595              		.loc 1 484 4 is_stmt 1 view .LVU1952
 484:fltk-1.3.4-1/png/pngwutil.c **** }
 6596              		.loc 1 484 21 is_stmt 0 view .LVU1953
 6597 010a C7442430 		movl	$0, 48(%rsp)
 6597      00000000 
 6598              	.LVL644:
 484:fltk-1.3.4-1/png/pngwutil.c **** }
 6599              		.loc 1 484 21 view .LVU1954
 6600              	.LBE491:
 6601              	.LBE492:
1741:fltk-1.3.4-1/png/pngwutil.c ****    {
 6602              		.loc 1 1741 4 is_stmt 1 view .LVU1955
1741:fltk-1.3.4-1/png/pngwutil.c ****    {
 6603              		.loc 1 1741 7 is_stmt 0 view .LVU1956
 6604 0112 85D2     		testl	%edx, %edx
 6605 0114 0F85F600 		jne	.L589
 6605      0000
1749:fltk-1.3.4-1/png/pngwutil.c ****          png_error(png_ptr, "iTXt: uncompressed text too long");
 6606              		.loc 1 1749 7 is_stmt 1 view .LVU1957
1749:fltk-1.3.4-1/png/pngwutil.c ****          png_error(png_ptr, "iTXt: uncompressed text too long");
 6607              		.loc 1 1749 43 is_stmt 0 view .LVU1958
 6608 011a BAFFFFFF 		movl	$2147483647, %edx
 6608      7F
 6609 011f 29CA     		subl	%ecx, %edx
1749:fltk-1.3.4-1/png/pngwutil.c ****          png_error(png_ptr, "iTXt: uncompressed text too long");
 6610              		.loc 1 1749 10 view .LVU1959
 6611 0121 4839C2   		cmpq	%rax, %rdx
 6612 0124 0F821D02 		jb	.L590
 6612      0000
1753:fltk-1.3.4-1/png/pngwutil.c ****    }
 6613              		.loc 1 1753 7 is_stmt 1 view .LVU1960
1753:fltk-1.3.4-1/png/pngwutil.c ****    }
 6614              		.loc 1 1753 23 is_stmt 0 view .LVU1961
 6615 012a 89442430 		movl	%eax, 48(%rsp)
1756:fltk-1.3.4-1/png/pngwutil.c **** 
 6616              		.loc 1 1756 4 is_stmt 1 view .LVU1962
 6617 012e 8D1401   		leal	(%rcx,%rax), %edx
 6618              	.LVL645:
 6619              	.LBB493:
 6620              	.LBI493:
  73:fltk-1.3.4-1/png/pngwutil.c ****     png_uint_32 length)
 6621              		.loc 1 73 1 view .LVU1963
 6622              	.LBB494:
  76:fltk-1.3.4-1/png/pngwutil.c **** 
 6623              		.loc 1 76 4 view .LVU1964
  83:fltk-1.3.4-1/png/pngwutil.c ****       return;
 6624              		.loc 1 83 4 view .LVU1965
  83:fltk-1.3.4-1/png/pngwutil.c ****       return;
 6625              		.loc 1 83 7 is_stmt 0 view .LVU1966
 6626 0131 4885ED   		testq	%rbp, %rbp
 6627 0134 744C     		je	.L533
 6628 0136 BE745854 		movl	$1767135348, %esi
 6628      69
 6629 013b 4889EF   		movq	%rbp, %rdi
 6630 013e E8000000 		call	png_write_chunk_header.part.0
 6630      00
 6631              	.LVL646:
  83:fltk-1.3.4-1/png/pngwutil.c ****       return;
 6632              		.loc 1 83 7 view .LVU1967
 6633              	.LBE494:
 6634              	.LBE493:
1758:fltk-1.3.4-1/png/pngwutil.c **** 
 6635              		.loc 1 1758 4 is_stmt 1 view .LVU1968
 6636 0143 89DA     		movl	%ebx, %edx
 6637              	.LVL647:
 6638              	.LBB498:
 6639              	.LBI498:
 127:fltk-1.3.4-1/png/pngwutil.c ****     png_size_t length)
 6640              		.loc 1 127 1 view .LVU1969
 6641              	.LBB499:
 131:fltk-1.3.4-1/png/pngwutil.c ****       return;
 6642              		.loc 1 131 4 view .LVU1970
 134:fltk-1.3.4-1/png/pngwutil.c ****    {
 6643              		.loc 1 134 4 view .LVU1971
 134:fltk-1.3.4-1/png/pngwutil.c ****    {
 6644              		.loc 1 134 7 is_stmt 0 view .LVU1972
 6645 0145 4885D2   		testq	%rdx, %rdx
 6646 0148 0F85B201 		jne	.L591
 6646      0000
 6647              	.LVL648:
 6648              	.L585:
 134:fltk-1.3.4-1/png/pngwutil.c ****    {
 6649              		.loc 1 134 7 view .LVU1973
 6650              	.LBE499:
 6651              	.LBE498:
1760:fltk-1.3.4-1/png/pngwutil.c **** 
 6652              		.loc 1 1760 4 is_stmt 1 view .LVU1974
 6653              	.LBB504:
 6654              	.LBI504:
 127:fltk-1.3.4-1/png/pngwutil.c ****     png_size_t length)
 6655              		.loc 1 127 1 view .LVU1975
 6656              	.LBB505:
 131:fltk-1.3.4-1/png/pngwutil.c ****       return;
 6657              		.loc 1 131 4 view .LVU1976
 134:fltk-1.3.4-1/png/pngwutil.c ****    {
 6658              		.loc 1 134 4 view .LVU1977
 6659 014e 4C89FA   		movq	%r15, %rdx
 6660 0151 4C89F6   		movq	%r14, %rsi
 6661 0154 4889EF   		movq	%rbp, %rdi
 6662 0157 E8000000 		call	png_write_chunk_data.part.0
 6662      00
 6663              	.LVL649:
 134:fltk-1.3.4-1/png/pngwutil.c ****    {
 6664              		.loc 1 134 4 is_stmt 0 view .LVU1978
 6665              	.LBE505:
 6666              	.LBE504:
1762:fltk-1.3.4-1/png/pngwutil.c **** 
 6667              		.loc 1 1762 4 is_stmt 1 view .LVU1979
 6668              	.LBB508:
 6669              	.LBI508:
 127:fltk-1.3.4-1/png/pngwutil.c ****     png_size_t length)
 6670              		.loc 1 127 1 view .LVU1980
 6671              	.LBB509:
 131:fltk-1.3.4-1/png/pngwutil.c ****       return;
 6672              		.loc 1 131 4 view .LVU1981
 134:fltk-1.3.4-1/png/pngwutil.c ****    {
 6673              		.loc 1 134 4 view .LVU1982
 6674 015c 488B5424 		movq	8(%rsp), %rdx
 6674      08
 6675 0161 4C89EE   		movq	%r13, %rsi
 6676 0164 4889EF   		movq	%rbp, %rdi
 6677 0167 E8000000 		call	png_write_chunk_data.part.0
 6677      00
 6678              	.LVL650:
 134:fltk-1.3.4-1/png/pngwutil.c ****    {
 6679              		.loc 1 134 4 is_stmt 0 view .LVU1983
 6680              	.LBE509:
 6681              	.LBE508:
1764:fltk-1.3.4-1/png/pngwutil.c ****       png_write_compressed_data_out(png_ptr, &comp);
 6682              		.loc 1 1764 4 is_stmt 1 view .LVU1984
1768:fltk-1.3.4-1/png/pngwutil.c **** 
 6683              		.loc 1 1768 7 view .LVU1985
 6684 016c 488B5424 		movq	40(%rsp), %rdx
 6684      28
 6685              	.LVL651:
 6686              	.LBB512:
 6687              	.LBI512:
 127:fltk-1.3.4-1/png/pngwutil.c ****     png_size_t length)
 6688              		.loc 1 127 1 view .LVU1986
 6689              	.LBB513:
 131:fltk-1.3.4-1/png/pngwutil.c ****       return;
 6690              		.loc 1 131 4 view .LVU1987
 134:fltk-1.3.4-1/png/pngwutil.c ****    {
 6691              		.loc 1 134 4 view .LVU1988
 134:fltk-1.3.4-1/png/pngwutil.c ****    {
 6692              		.loc 1 134 7 is_stmt 0 view .LVU1989
 6693 0171 4885D2   		testq	%rdx, %rdx
 6694 0174 0F859E01 		jne	.L592
 6694      0000
 6695              	.LVL652:
 6696              	.L555:
 134:fltk-1.3.4-1/png/pngwutil.c ****    {
 6697              		.loc 1 134 7 view .LVU1990
 6698              	.LBE513:
 6699              	.LBE512:
 6700              	.LBB515:
 6701              	.LBB516:
 6702 017a 4889EF   		movq	%rbp, %rdi
 6703 017d E8000000 		call	png_write_chunk_end.part.0
 6703      00
 6704              	.LVL653:
 6705              	.L533:
 134:fltk-1.3.4-1/png/pngwutil.c ****    {
 6706              		.loc 1 134 7 view .LVU1991
 6707              	.LBE516:
 6708              	.LBE515:
1771:fltk-1.3.4-1/png/pngwutil.c **** #endif
 6709              		.loc 1 1771 1 view .LVU1992
 6710 0182 488B8424 		movq	1176(%rsp), %rax
 6710      98040000 
 6711 018a 64483304 		xorq	%fs:40, %rax
 6711      25280000 
 6711      00
 6712 0193 0F85A901 		jne	.L593
 6712      0000
 6713 0199 4881C4A8 		addq	$1192, %rsp
 6713      040000
 6714              		.cfi_remember_state
 6715              		.cfi_def_cfa_offset 56
 6716 01a0 5B       		popq	%rbx
 6717              		.cfi_def_cfa_offset 48
 6718              	.LVL654:
1771:fltk-1.3.4-1/png/pngwutil.c **** #endif
 6719              		.loc 1 1771 1 view .LVU1993
 6720 01a1 5D       		popq	%rbp
 6721              		.cfi_def_cfa_offset 40
 6722              	.LVL655:
1771:fltk-1.3.4-1/png/pngwutil.c **** #endif
 6723              		.loc 1 1771 1 view .LVU1994
 6724 01a2 415C     		popq	%r12
 6725              		.cfi_def_cfa_offset 32
 6726 01a4 415D     		popq	%r13
 6727              		.cfi_def_cfa_offset 24
 6728 01a6 415E     		popq	%r14
 6729              		.cfi_def_cfa_offset 16
 6730 01a8 415F     		popq	%r15
 6731              		.cfi_def_cfa_offset 8
 6732 01aa C3       		ret
 6733              	.LVL656:
 6734 01ab 0F1F4400 		.p2align 4,,10
 6734      00
 6735              		.p2align 3
 6736              	.L538:
 6737              		.cfi_restore_state
1693:fltk-1.3.4-1/png/pngwutil.c ****    {
 6738              		.loc 1 1693 4 view .LVU1995
 6739 01b0 4183FF02 		cmpl	$2, %r15d
 6740 01b4 0F84C9FE 		je	.L539
 6740      FFFF
 6741              	.L540:
1706:fltk-1.3.4-1/png/pngwutil.c ****    }
 6742              		.loc 1 1706 10 is_stmt 1 view .LVU1996
 6743 01ba 488D3500 		leaq	.LC42(%rip), %rsi
 6743      000000
 6744 01c1 4889EF   		movq	%rbp, %rdi
 6745 01c4 E8000000 		call	png_error@PLT
 6745      00
 6746              	.LVL657:
 6747 01c9 0F1F8000 		.p2align 4,,10
 6747      000000
 6748              		.p2align 3
 6749              	.L588:
1732:fltk-1.3.4-1/png/pngwutil.c **** 
 6750              		.loc 1 1732 7 view .LVU1997
1732:fltk-1.3.4-1/png/pngwutil.c **** 
 6751              		.loc 1 1732 18 is_stmt 0 view .LVU1998
 6752 01d0 428D143B 		leal	(%rbx,%r15), %edx
 6753              	.LVL658:
1734:fltk-1.3.4-1/png/pngwutil.c ****       prefix_len = PNG_UINT_31_MAX;
 6754              		.loc 1 1734 4 is_stmt 1 view .LVU1999
1734:fltk-1.3.4-1/png/pngwutil.c ****       prefix_len = PNG_UINT_31_MAX;
 6755              		.loc 1 1734 38 is_stmt 0 view .LVU2000
 6756 01d4 89CE     		movl	%ecx, %esi
1734:fltk-1.3.4-1/png/pngwutil.c ****       prefix_len = PNG_UINT_31_MAX;
 6757              		.loc 1 1734 7 view .LVU2001
 6758 01d6 488B7C24 		movq	8(%rsp), %rdi
 6758      08
1734:fltk-1.3.4-1/png/pngwutil.c ****       prefix_len = PNG_UINT_31_MAX;
 6759              		.loc 1 1734 38 view .LVU2002
 6760 01db 29D6     		subl	%edx, %esi
1734:fltk-1.3.4-1/png/pngwutil.c ****       prefix_len = PNG_UINT_31_MAX;
 6761              		.loc 1 1734 7 view .LVU2003
 6762 01dd 4839FE   		cmpq	%rdi, %rsi
 6763 01e0 0F8216FF 		jb	.L545
 6763      FFFF
1737:fltk-1.3.4-1/png/pngwutil.c **** 
 6764              		.loc 1 1737 7 is_stmt 1 view .LVU2004
1737:fltk-1.3.4-1/png/pngwutil.c **** 
 6765              		.loc 1 1737 18 is_stmt 0 view .LVU2005
 6766 01e6 89F9     		movl	%edi, %ecx
 6767 01e8 01D1     		addl	%edx, %ecx
 6768              	.LVL659:
1737:fltk-1.3.4-1/png/pngwutil.c **** 
 6769              		.loc 1 1737 18 view .LVU2006
 6770 01ea E90DFFFF 		jmp	.L545
 6770      FF
 6771              	.LVL660:
 6772 01ef 90       		.p2align 4,,10
 6773              		.p2align 3
 6774              	.L537:
1697:fltk-1.3.4-1/png/pngwutil.c ****          break;
 6775              		.loc 1 1697 10 is_stmt 1 view .LVU2007
1697:fltk-1.3.4-1/png/pngwutil.c ****          break;
 6776              		.loc 1 1697 43 is_stmt 0 view .LVU2008
 6777 01f0 83C001   		addl	$1, %eax
 6778              	.LVL661:
1697:fltk-1.3.4-1/png/pngwutil.c ****          break;
 6779              		.loc 1 1697 22 view .LVU2009
 6780 01f3 C7442414 		movl	$0, 20(%rsp)
 6780      00000000 
1697:fltk-1.3.4-1/png/pngwutil.c ****          break;
 6781              		.loc 1 1697 43 view .LVU2010
 6782 01fb C6840440 		movb	$0, 1088(%rsp,%rax)
 6782      04000000 
 6783 0203 4889C2   		movq	%rax, %rdx
 6784              	.LVL662:
1698:fltk-1.3.4-1/png/pngwutil.c **** 
 6785              		.loc 1 1698 10 is_stmt 1 view .LVU2011
 6786 0206 E98EFEFF 		jmp	.L541
 6786      FF
 6787              	.LVL663:
 6788 020b 0F1F4400 		.p2align 4,,10
 6788      00
 6789              		.p2align 3
 6790              	.L589:
1743:fltk-1.3.4-1/png/pngwutil.c ****          png_error(png_ptr, png_ptr->zstream.msg);
 6791              		.loc 1 1743 7 view .LVU2012
1743:fltk-1.3.4-1/png/pngwutil.c ****          png_error(png_ptr, png_ptr->zstream.msg);
 6792              		.loc 1 1743 11 is_stmt 0 view .LVU2013
 6793 0210 4C8D6424 		leaq	32(%rsp), %r12
 6793      20
 6794              	.LVL664:
1743:fltk-1.3.4-1/png/pngwutil.c ****          png_error(png_ptr, png_ptr->zstream.msg);
 6795              		.loc 1 1743 11 view .LVU2014
 6796 0215 BE745854 		movl	$1767135348, %esi
 6796      69
 6797 021a 4889EF   		movq	%rbp, %rdi
 6798 021d 894C2414 		movl	%ecx, 20(%rsp)
 6799              	.LVL665:
1743:fltk-1.3.4-1/png/pngwutil.c ****          png_error(png_ptr, png_ptr->zstream.msg);
 6800              		.loc 1 1743 11 view .LVU2015
 6801 0221 4C89E2   		movq	%r12, %rdx
 6802 0224 E8000000 		call	png_text_compress
 6802      00
 6803              	.LVL666:
1743:fltk-1.3.4-1/png/pngwutil.c ****          png_error(png_ptr, png_ptr->zstream.msg);
 6804              		.loc 1 1743 10 view .LVU2016
 6805 0229 8B4C2414 		movl	20(%rsp), %ecx
 6806 022d 85C0     		testl	%eax, %eax
 6807 022f 0F852101 		jne	.L594
 6807      0000
1756:fltk-1.3.4-1/png/pngwutil.c **** 
 6808              		.loc 1 1756 4 is_stmt 1 view .LVU2017
 6809              	.LVL667:
 6810              	.LBB519:
  73:fltk-1.3.4-1/png/pngwutil.c ****     png_uint_32 length)
 6811              		.loc 1 73 1 view .LVU2018
 6812              	.LBB495:
  76:fltk-1.3.4-1/png/pngwutil.c **** 
 6813              		.loc 1 76 4 view .LVU2019
  83:fltk-1.3.4-1/png/pngwutil.c ****       return;
 6814              		.loc 1 83 4 view .LVU2020
  83:fltk-1.3.4-1/png/pngwutil.c ****       return;
 6815              		.loc 1 83 7 is_stmt 0 view .LVU2021
 6816 0235 4885ED   		testq	%rbp, %rbp
 6817 0238 7556     		jne	.L595
 6818              	.LVL668:
  83:fltk-1.3.4-1/png/pngwutil.c ****       return;
 6819              		.loc 1 83 7 view .LVU2022
 6820              	.LBE495:
 6821              	.LBE519:
1758:fltk-1.3.4-1/png/pngwutil.c **** 
 6822              		.loc 1 1758 4 is_stmt 1 view .LVU2023
 6823              	.LBB520:
 127:fltk-1.3.4-1/png/pngwutil.c ****     png_size_t length)
 6824              		.loc 1 127 1 view .LVU2024
 6825              	.LBB500:
 131:fltk-1.3.4-1/png/pngwutil.c ****       return;
 6826              		.loc 1 131 4 view .LVU2025
 131:fltk-1.3.4-1/png/pngwutil.c ****       return;
 6827              		.loc 1 131 4 is_stmt 0 view .LVU2026
 6828              	.LBE500:
 6829              	.LBE520:
1760:fltk-1.3.4-1/png/pngwutil.c **** 
 6830              		.loc 1 1760 4 is_stmt 1 view .LVU2027
 6831              	.LBB521:
 127:fltk-1.3.4-1/png/pngwutil.c ****     png_size_t length)
 6832              		.loc 1 127 1 view .LVU2028
 6833              	.LBB506:
 131:fltk-1.3.4-1/png/pngwutil.c ****       return;
 6834              		.loc 1 131 4 view .LVU2029
 131:fltk-1.3.4-1/png/pngwutil.c ****       return;
 6835              		.loc 1 131 4 is_stmt 0 view .LVU2030
 6836              	.LBE506:
 6837              	.LBE521:
1762:fltk-1.3.4-1/png/pngwutil.c **** 
 6838              		.loc 1 1762 4 is_stmt 1 view .LVU2031
 6839              	.LBB522:
 127:fltk-1.3.4-1/png/pngwutil.c ****     png_size_t length)
 6840              		.loc 1 127 1 view .LVU2032
 6841              	.LBB510:
 131:fltk-1.3.4-1/png/pngwutil.c ****       return;
 6842              		.loc 1 131 4 view .LVU2033
 131:fltk-1.3.4-1/png/pngwutil.c ****       return;
 6843              		.loc 1 131 4 is_stmt 0 view .LVU2034
 6844              	.LBE510:
 6845              	.LBE522:
1764:fltk-1.3.4-1/png/pngwutil.c ****       png_write_compressed_data_out(png_ptr, &comp);
 6846              		.loc 1 1764 4 is_stmt 1 view .LVU2035
1765:fltk-1.3.4-1/png/pngwutil.c **** 
 6847              		.loc 1 1765 7 view .LVU2036
 6848 023a 4C89E6   		movq	%r12, %rsi
 6849 023d 31FF     		xorl	%edi, %edi
 6850 023f E8000000 		call	png_write_compressed_data_out
 6850      00
 6851              	.LVL669:
1770:fltk-1.3.4-1/png/pngwutil.c **** }
 6852              		.loc 1 1770 4 view .LVU2037
 6853              	.LBB523:
 6854              	.LBI515:
 147:fltk-1.3.4-1/png/pngwutil.c **** {
 6855              		.loc 1 147 1 view .LVU2038
 6856              	.LBB517:
 149:fltk-1.3.4-1/png/pngwutil.c **** 
 6857              		.loc 1 149 4 view .LVU2039
 151:fltk-1.3.4-1/png/pngwutil.c **** 
 6858              		.loc 1 151 4 view .LVU2040
 6859 0244 E939FFFF 		jmp	.L533
 6859      FF
 6860              	.LVL670:
 6861 0249 0F1F8000 		.p2align 4,,10
 6861      000000
 6862              		.p2align 3
 6863              	.L561:
 151:fltk-1.3.4-1/png/pngwutil.c **** 
 6864              		.loc 1 151 4 is_stmt 0 view .LVU2041
 6865              	.LBE517:
 6866              	.LBE523:
 6867 0250 41BF0100 		movl	$1, %r15d
 6867      0000
1722:fltk-1.3.4-1/png/pngwutil.c ****    lang_len = strlen(lang)+1;
 6868              		.loc 1 1722 27 view .LVU2042
 6869 0256 4C8D3500 		leaq	.LC40(%rip), %r14
 6869      000000
 6870              	.LVL671:
1723:fltk-1.3.4-1/png/pngwutil.c ****    if (lang_key == NULL) lang_key = ""; /* may be empty */
 6871              		.loc 1 1723 4 is_stmt 1 view .LVU2043
1724:fltk-1.3.4-1/png/pngwutil.c ****    lang_key_len = strlen(lang_key)+1;
 6872              		.loc 1 1724 4 view .LVU2044
1724:fltk-1.3.4-1/png/pngwutil.c ****    lang_key_len = strlen(lang_key)+1;
 6873              		.loc 1 1724 7 is_stmt 0 view .LVU2045
 6874 025d 4D85ED   		testq	%r13, %r13
 6875 0260 0F855FFE 		jne	.L596
 6875      FFFF
 6876              	.LVL672:
 6877              	.L562:
1724:fltk-1.3.4-1/png/pngwutil.c ****    lang_key_len = strlen(lang_key)+1;
 6878              		.loc 1 1724 7 view .LVU2046
 6879 0266 48C74424 		movq	$1, 8(%rsp)
 6879      08010000 
 6879      00
1724:fltk-1.3.4-1/png/pngwutil.c ****    lang_key_len = strlen(lang_key)+1;
 6880              		.loc 1 1724 35 view .LVU2047
 6881 026f 4C8D2D00 		leaq	.LC40(%rip), %r13
 6881      000000
 6882              	.LVL673:
1725:fltk-1.3.4-1/png/pngwutil.c ****    if (text == NULL) text = ""; /* may be empty */
 6883              		.loc 1 1725 4 is_stmt 1 view .LVU2048
1726:fltk-1.3.4-1/png/pngwutil.c **** 
 6884              		.loc 1 1726 4 view .LVU2049
1726:fltk-1.3.4-1/png/pngwutil.c **** 
 6885              		.loc 1 1726 7 is_stmt 0 view .LVU2050
 6886 0276 4D85E4   		testq	%r12, %r12
 6887 0279 0F8560FE 		jne	.L597
 6887      FFFF
 6888              	.LVL674:
 6889              	.L563:
1726:fltk-1.3.4-1/png/pngwutil.c **** 
 6890              		.loc 1 1726 7 view .LVU2051
 6891 027f 31C0     		xorl	%eax, %eax
1726:fltk-1.3.4-1/png/pngwutil.c **** 
 6892              		.loc 1 1726 27 view .LVU2052
 6893 0281 4C8D2500 		leaq	.LC40(%rip), %r12
 6893      000000
 6894              	.LVL675:
1726:fltk-1.3.4-1/png/pngwutil.c **** 
 6895              		.loc 1 1726 27 view .LVU2053
 6896 0288 E95AFEFF 		jmp	.L544
 6896      FF
 6897              	.LVL676:
 6898 028d 0F1F00   		.p2align 4,,10
 6899              		.p2align 3
 6900              	.L595:
1756:fltk-1.3.4-1/png/pngwutil.c **** 
 6901              		.loc 1 1756 4 view .LVU2054
 6902 0290 034C2430 		addl	48(%rsp), %ecx
 6903              	.LVL677:
 6904              	.LBB524:
 6905              	.LBB496:
1756:fltk-1.3.4-1/png/pngwutil.c **** 
 6906              		.loc 1 1756 4 view .LVU2055
 6907 0294 BE745854 		movl	$1767135348, %esi
 6907      69
 6908 0299 4889EF   		movq	%rbp, %rdi
 6909              	.LBE496:
 6910              	.LBE524:
 6911 029c 89CA     		movl	%ecx, %edx
 6912              	.LBB525:
 6913              	.LBB497:
 6914 029e E8000000 		call	png_write_chunk_header.part.0
 6914      00
 6915              	.LVL678:
1756:fltk-1.3.4-1/png/pngwutil.c **** 
 6916              		.loc 1 1756 4 view .LVU2056
 6917              	.LBE497:
 6918              	.LBE525:
1758:fltk-1.3.4-1/png/pngwutil.c **** 
 6919              		.loc 1 1758 4 is_stmt 1 view .LVU2057
 6920 02a3 89DA     		movl	%ebx, %edx
 6921              	.LVL679:
 6922              	.LBB526:
 127:fltk-1.3.4-1/png/pngwutil.c ****     png_size_t length)
 6923              		.loc 1 127 1 view .LVU2058
 6924              	.LBB501:
 131:fltk-1.3.4-1/png/pngwutil.c ****       return;
 6925              		.loc 1 131 4 view .LVU2059
 134:fltk-1.3.4-1/png/pngwutil.c ****    {
 6926              		.loc 1 134 4 view .LVU2060
 134:fltk-1.3.4-1/png/pngwutil.c ****    {
 6927              		.loc 1 134 7 is_stmt 0 view .LVU2061
 6928 02a5 4885D2   		testq	%rdx, %rdx
 6929 02a8 0F858200 		jne	.L598
 6929      0000
 6930              	.LVL680:
 6931              	.L586:
 134:fltk-1.3.4-1/png/pngwutil.c ****    {
 6932              		.loc 1 134 7 view .LVU2062
 6933              	.LBE501:
 6934              	.LBE526:
1760:fltk-1.3.4-1/png/pngwutil.c **** 
 6935              		.loc 1 1760 4 is_stmt 1 view .LVU2063
 6936              	.LBB527:
 127:fltk-1.3.4-1/png/pngwutil.c ****     png_size_t length)
 6937              		.loc 1 127 1 view .LVU2064
 6938              	.LBB507:
 131:fltk-1.3.4-1/png/pngwutil.c ****       return;
 6939              		.loc 1 131 4 view .LVU2065
 134:fltk-1.3.4-1/png/pngwutil.c ****    {
 6940              		.loc 1 134 4 view .LVU2066
 6941 02ae 4C89FA   		movq	%r15, %rdx
 6942 02b1 4C89F6   		movq	%r14, %rsi
 6943 02b4 4889EF   		movq	%rbp, %rdi
 6944 02b7 E8000000 		call	png_write_chunk_data.part.0
 6944      00
 6945              	.LVL681:
 134:fltk-1.3.4-1/png/pngwutil.c ****    {
 6946              		.loc 1 134 4 is_stmt 0 view .LVU2067
 6947              	.LBE507:
 6948              	.LBE527:
1762:fltk-1.3.4-1/png/pngwutil.c **** 
 6949              		.loc 1 1762 4 is_stmt 1 view .LVU2068
 6950              	.LBB528:
 127:fltk-1.3.4-1/png/pngwutil.c ****     png_size_t length)
 6951              		.loc 1 127 1 view .LVU2069
 6952              	.LBB511:
 131:fltk-1.3.4-1/png/pngwutil.c ****       return;
 6953              		.loc 1 131 4 view .LVU2070
 134:fltk-1.3.4-1/png/pngwutil.c ****    {
 6954              		.loc 1 134 4 view .LVU2071
 6955 02bc 488B5424 		movq	8(%rsp), %rdx
 6955      08
 6956 02c1 4C89EE   		movq	%r13, %rsi
 6957 02c4 4889EF   		movq	%rbp, %rdi
 6958 02c7 E8000000 		call	png_write_chunk_data.part.0
 6958      00
 6959              	.LVL682:
 134:fltk-1.3.4-1/png/pngwutil.c ****    {
 6960              		.loc 1 134 4 is_stmt 0 view .LVU2072
 6961              	.LBE511:
 6962              	.LBE528:
1764:fltk-1.3.4-1/png/pngwutil.c ****       png_write_compressed_data_out(png_ptr, &comp);
 6963              		.loc 1 1764 4 is_stmt 1 view .LVU2073
1765:fltk-1.3.4-1/png/pngwutil.c **** 
 6964              		.loc 1 1765 7 view .LVU2074
 6965 02cc 4C89E6   		movq	%r12, %rsi
 6966 02cf 4889EF   		movq	%rbp, %rdi
 6967 02d2 E8000000 		call	png_write_compressed_data_out
 6967      00
 6968              	.LVL683:
1770:fltk-1.3.4-1/png/pngwutil.c **** }
 6969              		.loc 1 1770 4 view .LVU2075
 6970              	.LBB529:
 147:fltk-1.3.4-1/png/pngwutil.c **** {
 6971              		.loc 1 147 1 view .LVU2076
 6972              	.LBB518:
 149:fltk-1.3.4-1/png/pngwutil.c **** 
 6973              		.loc 1 149 4 view .LVU2077
 151:fltk-1.3.4-1/png/pngwutil.c **** 
 6974              		.loc 1 151 4 view .LVU2078
 6975 02d7 E99EFEFF 		jmp	.L555
 6975      FF
 6976              	.LVL684:
 6977 02dc 0F1F4000 		.p2align 4,,10
 6978              		.p2align 3
 6979              	.L587:
 151:fltk-1.3.4-1/png/pngwutil.c **** 
 6980              		.loc 1 151 4 is_stmt 0 view .LVU2079
 6981              	.LBE518:
 6982              	.LBE529:
 6983              	.LBB530:
 6984              	.LBB488:
 692:fltk-1.3.4-1/png/pngwutil.c ****       return 0;
 6985              		.loc 1 692 7 is_stmt 1 view .LVU2080
 692:fltk-1.3.4-1/png/pngwutil.c ****       return 0;
 6986              		.loc 1 692 16 is_stmt 0 view .LVU2081
 6987 02e0 C6842440 		movb	$0, 1088(%rsp)
 6987      04000000 
 693:fltk-1.3.4-1/png/pngwutil.c ****    }
 6988              		.loc 1 693 7 is_stmt 1 view .LVU2082
 6989              	.LVL685:
 693:fltk-1.3.4-1/png/pngwutil.c ****    }
 6990              		.loc 1 693 7 is_stmt 0 view .LVU2083
 6991              	.LBE488:
 6992              	.LBE530:
1689:fltk-1.3.4-1/png/pngwutil.c ****       png_error(png_ptr, "iTXt: invalid keyword");
 6993              		.loc 1 1689 4 is_stmt 1 view .LVU2084
 6994              	.L535:
1690:fltk-1.3.4-1/png/pngwutil.c **** 
 6995              		.loc 1 1690 7 view .LVU2085
 6996 02e8 488D3500 		leaq	.LC41(%rip), %rsi
 6996      000000
 6997 02ef 4889EF   		movq	%rbp, %rdi
 6998 02f2 E8000000 		call	png_error@PLT
 6998      00
 6999              	.LVL686:
 7000 02f7 660F1F84 		.p2align 4,,10
 7000      00000000 
 7000      00
 7001              		.p2align 3
 7002              	.L591:
 7003              	.LBB531:
 7004              	.LBB502:
1690:fltk-1.3.4-1/png/pngwutil.c **** 
 7005              		.loc 1 1690 7 is_stmt 0 view .LVU2086
 7006 0300 488B7424 		movq	24(%rsp), %rsi
 7006      18
 7007 0305 4889EF   		movq	%rbp, %rdi
 7008 0308 E8000000 		call	png_write_chunk_data.part.0
 7008      00
 7009              	.LVL687:
1690:fltk-1.3.4-1/png/pngwutil.c **** 
 7010              		.loc 1 1690 7 view .LVU2087
 7011 030d E93CFEFF 		jmp	.L585
 7011      FF
 7012              	.LVL688:
 7013              		.p2align 4,,10
 7014 0312 660F1F44 		.p2align 3
 7014      0000
 7015              	.L592:
1690:fltk-1.3.4-1/png/pngwutil.c **** 
 7016              		.loc 1 1690 7 view .LVU2088
 7017              	.LBE502:
 7018              	.LBE531:
 7019              	.LBB532:
 7020              	.LBB514:
 7021 0318 4C89E6   		movq	%r12, %rsi
 7022 031b 4889EF   		movq	%rbp, %rdi
 7023 031e E8000000 		call	png_write_chunk_data.part.0
 7023      00
 7024              	.LVL689:
1690:fltk-1.3.4-1/png/pngwutil.c **** 
 7025              		.loc 1 1690 7 view .LVU2089
 7026 0323 E952FEFF 		jmp	.L555
 7026      FF
 7027              	.LVL690:
 7028 0328 0F1F8400 		.p2align 4,,10
 7028      00000000 
 7029              		.p2align 3
 7030              	.L598:
1690:fltk-1.3.4-1/png/pngwutil.c **** 
 7031              		.loc 1 1690 7 view .LVU2090
 7032              	.LBE514:
 7033              	.LBE532:
 7034              	.LBB533:
 7035              	.LBB503:
 7036 0330 488B7424 		movq	24(%rsp), %rsi
 7036      18
 7037 0335 4889EF   		movq	%rbp, %rdi
 7038 0338 E8000000 		call	png_write_chunk_data.part.0
 7038      00
 7039              	.LVL691:
1690:fltk-1.3.4-1/png/pngwutil.c **** 
 7040              		.loc 1 1690 7 view .LVU2091
 7041 033d E96CFFFF 		jmp	.L586
 7041      FF
 7042              	.LVL692:
 7043              	.L593:
1690:fltk-1.3.4-1/png/pngwutil.c **** 
 7044              		.loc 1 1690 7 view .LVU2092
 7045              	.LBE503:
 7046              	.LBE533:
1771:fltk-1.3.4-1/png/pngwutil.c **** #endif
 7047              		.loc 1 1771 1 view .LVU2093
 7048 0342 E8000000 		call	__stack_chk_fail@PLT
 7048      00
 7049              	.LVL693:
 7050              	.L590:
1750:fltk-1.3.4-1/png/pngwutil.c **** 
 7051              		.loc 1 1750 10 is_stmt 1 view .LVU2094
 7052 0347 488D3500 		leaq	.LC43(%rip), %rsi
 7052      000000
 7053 034e 4889EF   		movq	%rbp, %rdi
 7054 0351 E8000000 		call	png_error@PLT
 7054      00
 7055              	.LVL694:
 7056              	.L594:
1744:fltk-1.3.4-1/png/pngwutil.c ****    }
 7057              		.loc 1 1744 10 view .LVU2095
 7058 0356 488BB570 		movq	368(%rbp), %rsi
 7058      010000
 7059 035d 4889EF   		movq	%rbp, %rdi
 7060 0360 E8000000 		call	png_error@PLT
 7060      00
 7061              	.LVL695:
 7062              		.cfi_endproc
 7063              	.LFE73:
 7065              		.section	.rodata.png_write_oFFs.str1.8,"aMS",@progbits,1
 7066              		.align 8
 7067              	.LC44:
 7068 0000 556E7265 		.string	"Unrecognized unit type for oFFs chunk"
 7068      636F676E 
 7068      697A6564 
 7068      20756E69 
 7068      74207479 
 7069              		.section	.text.png_write_oFFs,"ax",@progbits
 7070              		.p2align 4
 7071              		.globl	png_write_oFFs
 7073              	png_write_oFFs:
 7074              	.LVL696:
 7075              	.LFB74:
1779:fltk-1.3.4-1/png/pngwutil.c ****    png_byte buf[9];
 7076              		.loc 1 1779 1 view -0
 7077              		.cfi_startproc
1779:fltk-1.3.4-1/png/pngwutil.c ****    png_byte buf[9];
 7078              		.loc 1 1779 1 is_stmt 0 view .LVU2097
 7079 0000 F30F1EFA 		endbr64
 7080 0004 4156     		pushq	%r14
 7081              		.cfi_def_cfa_offset 16
 7082              		.cfi_offset 14, -16
 7083 0006 4155     		pushq	%r13
 7084              		.cfi_def_cfa_offset 24
 7085              		.cfi_offset 13, -24
 7086 0008 4189F5   		movl	%esi, %r13d
 7087 000b 4154     		pushq	%r12
 7088              		.cfi_def_cfa_offset 32
 7089              		.cfi_offset 12, -32
 7090 000d 4189D4   		movl	%edx, %r12d
 7091 0010 55       		pushq	%rbp
 7092              		.cfi_def_cfa_offset 40
 7093              		.cfi_offset 6, -40
 7094 0011 4889FD   		movq	%rdi, %rbp
 7095 0014 53       		pushq	%rbx
 7096              		.cfi_def_cfa_offset 48
 7097              		.cfi_offset 3, -48
 7098 0015 89CB     		movl	%ecx, %ebx
 7099 0017 4883EC20 		subq	$32, %rsp
 7100              		.cfi_def_cfa_offset 80
1779:fltk-1.3.4-1/png/pngwutil.c ****    png_byte buf[9];
 7101              		.loc 1 1779 1 view .LVU2098
 7102 001b 64488B04 		movq	%fs:40, %rax
 7102      25280000 
 7102      00
 7103 0024 48894424 		movq	%rax, 24(%rsp)
 7103      18
 7104 0029 31C0     		xorl	%eax, %eax
1780:fltk-1.3.4-1/png/pngwutil.c **** 
 7105              		.loc 1 1780 4 is_stmt 1 view .LVU2099
1782:fltk-1.3.4-1/png/pngwutil.c **** 
 7106              		.loc 1 1782 4 view .LVU2100
1784:fltk-1.3.4-1/png/pngwutil.c ****       png_warning(png_ptr, "Unrecognized unit type for oFFs chunk");
 7107              		.loc 1 1784 4 view .LVU2101
1784:fltk-1.3.4-1/png/pngwutil.c ****       png_warning(png_ptr, "Unrecognized unit type for oFFs chunk");
 7108              		.loc 1 1784 7 is_stmt 0 view .LVU2102
 7109 002b 83F901   		cmpl	$1, %ecx
 7110 002e 7E0C     		jle	.L600
1785:fltk-1.3.4-1/png/pngwutil.c **** 
 7111              		.loc 1 1785 7 is_stmt 1 view .LVU2103
 7112 0030 488D3500 		leaq	.LC44(%rip), %rsi
 7112      000000
 7113              	.LVL697:
1785:fltk-1.3.4-1/png/pngwutil.c **** 
 7114              		.loc 1 1785 7 is_stmt 0 view .LVU2104
 7115 0037 E8000000 		call	png_warning@PLT
 7115      00
 7116              	.LVL698:
 7117              	.L600:
1787:fltk-1.3.4-1/png/pngwutil.c ****    png_save_int_32(buf + 4, y_offset);
 7118              		.loc 1 1787 4 is_stmt 1 view .LVU2105
 7119 003c 4C8D7424 		leaq	15(%rsp), %r14
 7119      0F
 7120 0041 4489EE   		movl	%r13d, %esi
 7121 0044 4C89F7   		movq	%r14, %rdi
 7122 0047 E8000000 		call	png_save_int_32@PLT
 7122      00
 7123              	.LVL699:
1788:fltk-1.3.4-1/png/pngwutil.c ****    buf[8] = (png_byte)unit_type;
 7124              		.loc 1 1788 4 view .LVU2106
 7125 004c 488D7C24 		leaq	19(%rsp), %rdi
 7125      13
 7126 0051 4489E6   		movl	%r12d, %esi
 7127 0054 E8000000 		call	png_save_int_32@PLT
 7127      00
 7128              	.LVL700:
1789:fltk-1.3.4-1/png/pngwutil.c **** 
 7129              		.loc 1 1789 4 view .LVU2107
1791:fltk-1.3.4-1/png/pngwutil.c **** }
 7130              		.loc 1 1791 4 is_stmt 0 view .LVU2108
 7131 0059 B9090000 		movl	$9, %ecx
 7131      00
 7132 005e 4C89F2   		movq	%r14, %rdx
 7133 0061 4889EF   		movq	%rbp, %rdi
 7134 0064 BE734646 		movl	$1866876531, %esi
 7134      6F
1789:fltk-1.3.4-1/png/pngwutil.c **** 
 7135              		.loc 1 1789 13 view .LVU2109
 7136 0069 885C2417 		movb	%bl, 23(%rsp)
1791:fltk-1.3.4-1/png/pngwutil.c **** }
 7137              		.loc 1 1791 4 is_stmt 1 view .LVU2110
 7138 006d E8000000 		call	png_write_complete_chunk
 7138      00
 7139              	.LVL701:
1792:fltk-1.3.4-1/png/pngwutil.c **** #endif
 7140              		.loc 1 1792 1 is_stmt 0 view .LVU2111
 7141 0072 488B4424 		movq	24(%rsp), %rax
 7141      18
 7142 0077 64483304 		xorq	%fs:40, %rax
 7142      25280000 
 7142      00
 7143 0080 750D     		jne	.L603
 7144 0082 4883C420 		addq	$32, %rsp
 7145              		.cfi_remember_state
 7146              		.cfi_def_cfa_offset 48
 7147 0086 5B       		popq	%rbx
 7148              		.cfi_def_cfa_offset 40
 7149              	.LVL702:
1792:fltk-1.3.4-1/png/pngwutil.c **** #endif
 7150              		.loc 1 1792 1 view .LVU2112
 7151 0087 5D       		popq	%rbp
 7152              		.cfi_def_cfa_offset 32
 7153              	.LVL703:
1792:fltk-1.3.4-1/png/pngwutil.c **** #endif
 7154              		.loc 1 1792 1 view .LVU2113
 7155 0088 415C     		popq	%r12
 7156              		.cfi_def_cfa_offset 24
 7157              	.LVL704:
1792:fltk-1.3.4-1/png/pngwutil.c **** #endif
 7158              		.loc 1 1792 1 view .LVU2114
 7159 008a 415D     		popq	%r13
 7160              		.cfi_def_cfa_offset 16
 7161              	.LVL705:
1792:fltk-1.3.4-1/png/pngwutil.c **** #endif
 7162              		.loc 1 1792 1 view .LVU2115
 7163 008c 415E     		popq	%r14
 7164              		.cfi_def_cfa_offset 8
 7165 008e C3       		ret
 7166              	.LVL706:
 7167              	.L603:
 7168              		.cfi_restore_state
1792:fltk-1.3.4-1/png/pngwutil.c **** #endif
 7169              		.loc 1 1792 1 view .LVU2116
 7170 008f E8000000 		call	__stack_chk_fail@PLT
 7170      00
 7171              	.LVL707:
 7172              		.cfi_endproc
 7173              	.LFE74:
 7175              		.section	.rodata.png_write_pCAL.str1.8,"aMS",@progbits,1
 7176              		.align 8
 7177              	.LC45:
 7178 0000 556E7265 		.string	"Unrecognized equation type for pCAL chunk"
 7178      636F676E 
 7178      697A6564 
 7178      20657175 
 7178      6174696F 
 7179              		.section	.rodata.png_write_pCAL.str1.1,"aMS",@progbits,1
 7180              	.LC46:
 7181 0000 7043414C 		.string	"pCAL: invalid keyword"
 7181      3A20696E 
 7181      76616C69 
 7181      64206B65 
 7181      79776F72 
 7182              		.section	.text.png_write_pCAL,"ax",@progbits
 7183              		.p2align 4
 7184              		.globl	png_write_pCAL
 7186              	png_write_pCAL:
 7187              	.LVL708:
 7188              	.LFB75:
1800:fltk-1.3.4-1/png/pngwutil.c ****    png_uint_32 purpose_len;
 7189              		.loc 1 1800 1 is_stmt 1 view -0
 7190              		.cfi_startproc
1800:fltk-1.3.4-1/png/pngwutil.c ****    png_uint_32 purpose_len;
 7191              		.loc 1 1800 1 is_stmt 0 view .LVU2118
 7192 0000 F30F1EFA 		endbr64
 7193 0004 4157     		pushq	%r15
 7194              		.cfi_def_cfa_offset 16
 7195              		.cfi_offset 15, -16
 7196 0006 4156     		pushq	%r14
 7197              		.cfi_def_cfa_offset 24
 7198              		.cfi_offset 14, -24
 7199 0008 4155     		pushq	%r13
 7200              		.cfi_def_cfa_offset 32
 7201              		.cfi_offset 13, -32
 7202 000a 4154     		pushq	%r12
 7203              		.cfi_def_cfa_offset 40
 7204              		.cfi_offset 12, -40
 7205 000c 55       		pushq	%rbp
 7206              		.cfi_def_cfa_offset 48
 7207              		.cfi_offset 6, -48
 7208 000d 4889FD   		movq	%rdi, %rbp
 7209 0010 53       		pushq	%rbx
 7210              		.cfi_def_cfa_offset 56
 7211              		.cfi_offset 3, -56
 7212 0011 4881ECB8 		subq	$184, %rsp
 7212      000000
 7213              		.cfi_def_cfa_offset 240
1800:fltk-1.3.4-1/png/pngwutil.c ****    png_uint_32 purpose_len;
 7214              		.loc 1 1800 1 view .LVU2119
 7215 0018 488B8424 		movq	240(%rsp), %rax
 7215      F0000000 
 7216 0020 89542418 		movl	%edx, 24(%rsp)
 7217 0024 894C241C 		movl	%ecx, 28(%rsp)
 7218 0028 4C8BAC24 		movq	248(%rsp), %r13
 7218      F8000000 
 7219 0030 44894424 		movl	%r8d, 20(%rsp)
 7219      14
 7220 0035 44894C24 		movl	%r9d, 16(%rsp)
 7220      10
 7221 003a 48894424 		movq	%rax, 8(%rsp)
 7221      08
 7222 003f 64488B04 		movq	%fs:40, %rax
 7222      25280000 
 7222      00
 7223 0048 48898424 		movq	%rax, 168(%rsp)
 7223      A8000000 
 7224 0050 31C0     		xorl	%eax, %eax
1801:fltk-1.3.4-1/png/pngwutil.c ****    png_size_t units_len, total_len;
 7225              		.loc 1 1801 4 is_stmt 1 view .LVU2120
1802:fltk-1.3.4-1/png/pngwutil.c ****    png_size_tp params_len;
 7226              		.loc 1 1802 4 view .LVU2121
1803:fltk-1.3.4-1/png/pngwutil.c ****    png_byte buf[10];
 7227              		.loc 1 1803 4 view .LVU2122
1804:fltk-1.3.4-1/png/pngwutil.c ****    png_byte new_purpose[80];
 7228              		.loc 1 1804 4 view .LVU2123
1805:fltk-1.3.4-1/png/pngwutil.c ****    int i;
 7229              		.loc 1 1805 4 view .LVU2124
1806:fltk-1.3.4-1/png/pngwutil.c **** 
 7230              		.loc 1 1806 4 view .LVU2125
1808:fltk-1.3.4-1/png/pngwutil.c **** 
 7231              		.loc 1 1808 4 view .LVU2126
1810:fltk-1.3.4-1/png/pngwutil.c ****       png_error(png_ptr, "Unrecognized equation type for pCAL chunk");
 7232              		.loc 1 1810 4 view .LVU2127
1810:fltk-1.3.4-1/png/pngwutil.c ****       png_error(png_ptr, "Unrecognized equation type for pCAL chunk");
 7233              		.loc 1 1810 7 is_stmt 0 view .LVU2128
 7234 0052 4183F803 		cmpl	$3, %r8d
 7235 0056 0F8FA902 		jg	.L644
 7235      0000
1813:fltk-1.3.4-1/png/pngwutil.c **** 
 7236              		.loc 1 1813 4 is_stmt 1 view .LVU2129
 7237              	.LVL709:
 7238              	.LBB534:
 7239              	.LBI534:
 681:fltk-1.3.4-1/png/pngwutil.c **** {
 7240              		.loc 1 681 1 view .LVU2130
 7241              	.LBB535:
 683:fltk-1.3.4-1/png/pngwutil.c ****    png_uint_32 key_len = 0;
 7242              		.loc 1 683 4 view .LVU2131
 684:fltk-1.3.4-1/png/pngwutil.c ****    int bad_character = 0;
 7243              		.loc 1 684 4 view .LVU2132
 685:fltk-1.3.4-1/png/pngwutil.c ****    int space = 1;
 7244              		.loc 1 685 4 view .LVU2133
 686:fltk-1.3.4-1/png/pngwutil.c **** 
 7245              		.loc 1 686 4 view .LVU2134
 688:fltk-1.3.4-1/png/pngwutil.c **** 
 7246              		.loc 1 688 4 view .LVU2135
 690:fltk-1.3.4-1/png/pngwutil.c ****    {
 7247              		.loc 1 690 4 view .LVU2136
 690:fltk-1.3.4-1/png/pngwutil.c ****    {
 7248              		.loc 1 690 7 is_stmt 0 view .LVU2137
 7249 005c 4885F6   		testq	%rsi, %rsi
 7250 005f 0F84EB01 		je	.L645
 7250      0000
 7251 0065 488D4424 		leaq	80(%rsp), %rax
 7251      50
 7252              	.LVL710:
 690:fltk-1.3.4-1/png/pngwutil.c ****    {
 7253              		.loc 1 690 7 view .LVU2138
 7254 006a 4889C2   		movq	%rax, %rdx
 7255              	.LVL711:
 690:fltk-1.3.4-1/png/pngwutil.c ****    {
 7256              		.loc 1 690 7 view .LVU2139
 7257 006d 48894424 		movq	%rax, 56(%rsp)
 7257      38
 7258 0072 E8000000 		call	png_check_keyword.part.0
 7258      00
 7259              	.LVL712:
 690:fltk-1.3.4-1/png/pngwutil.c ****    {
 7260              		.loc 1 690 7 view .LVU2140
 7261 0077 89C3     		movl	%eax, %ebx
 7262              	.LVL713:
 690:fltk-1.3.4-1/png/pngwutil.c ****    {
 7263              		.loc 1 690 7 view .LVU2141
 7264              	.LBE535:
 7265              	.LBE534:
1815:fltk-1.3.4-1/png/pngwutil.c ****       png_error(png_ptr, "pCAL: invalid keyword");
 7266              		.loc 1 1815 4 is_stmt 1 view .LVU2142
1815:fltk-1.3.4-1/png/pngwutil.c ****       png_error(png_ptr, "pCAL: invalid keyword");
 7267              		.loc 1 1815 7 is_stmt 0 view .LVU2143
 7268 0079 85C0     		testl	%eax, %eax
 7269 007b 0F84D401 		je	.L607
 7269      0000
1818:fltk-1.3.4-1/png/pngwutil.c **** 
 7270              		.loc 1 1818 4 is_stmt 1 view .LVU2144
 7271              	.LVL714:
1820:fltk-1.3.4-1/png/pngwutil.c ****    units_len = strlen(units) + (nparams == 0 ? 0 : 1);
 7272              		.loc 1 1820 4 view .LVU2145
1821:fltk-1.3.4-1/png/pngwutil.c ****    png_debug1(3, "pCAL units length = %d", (int)units_len);
 7273              		.loc 1 1821 4 view .LVU2146
1821:fltk-1.3.4-1/png/pngwutil.c ****    png_debug1(3, "pCAL units length = %d", (int)units_len);
 7274              		.loc 1 1821 16 is_stmt 0 view .LVU2147
 7275 0081 488B7C24 		movq	8(%rsp), %rdi
 7275      08
 7276 0086 E8000000 		call	strlen@PLT
 7276      00
 7277              	.LVL715:
1821:fltk-1.3.4-1/png/pngwutil.c ****    png_debug1(3, "pCAL units length = %d", (int)units_len);
 7278              		.loc 1 1821 50 view .LVU2148
 7279 008b 8B4C2410 		movl	16(%rsp), %ecx
 7280 008f 31D2     		xorl	%edx, %edx
1825:fltk-1.3.4-1/png/pngwutil.c ****        (png_alloc_size_t)(nparams * (sizeof (png_size_t))));
 7281              		.loc 1 1825 30 view .LVU2149
 7282 0091 4889EF   		movq	%rbp, %rdi
1821:fltk-1.3.4-1/png/pngwutil.c ****    png_debug1(3, "pCAL units length = %d", (int)units_len);
 7283              		.loc 1 1821 50 view .LVU2150
 7284 0094 85C9     		testl	%ecx, %ecx
1825:fltk-1.3.4-1/png/pngwutil.c ****        (png_alloc_size_t)(nparams * (sizeof (png_size_t))));
 7285              		.loc 1 1825 30 view .LVU2151
 7286 0096 4863F1   		movslq	%ecx, %rsi
1821:fltk-1.3.4-1/png/pngwutil.c ****    png_debug1(3, "pCAL units length = %d", (int)units_len);
 7287              		.loc 1 1821 50 view .LVU2152
 7288 0099 0F95C2   		setne	%dl
1821:fltk-1.3.4-1/png/pngwutil.c ****    png_debug1(3, "pCAL units length = %d", (int)units_len);
 7289              		.loc 1 1821 14 view .LVU2153
 7290 009c 4801D0   		addq	%rdx, %rax
1823:fltk-1.3.4-1/png/pngwutil.c **** 
 7291              		.loc 1 1823 28 view .LVU2154
 7292 009f 8D5301   		leal	1(%rbx), %edx
1825:fltk-1.3.4-1/png/pngwutil.c ****        (png_alloc_size_t)(nparams * (sizeof (png_size_t))));
 7293              		.loc 1 1825 30 view .LVU2155
 7294 00a2 4889F3   		movq	%rsi, %rbx
 7295              	.LVL716:
1825:fltk-1.3.4-1/png/pngwutil.c ****        (png_alloc_size_t)(nparams * (sizeof (png_size_t))));
 7296              		.loc 1 1825 30 view .LVU2156
 7297 00a5 48C1E603 		salq	$3, %rsi
1821:fltk-1.3.4-1/png/pngwutil.c ****    png_debug1(3, "pCAL units length = %d", (int)units_len);
 7298              		.loc 1 1821 14 view .LVU2157
 7299 00a9 48894424 		movq	%rax, 40(%rsp)
 7299      28
 7300              	.LVL717:
1822:fltk-1.3.4-1/png/pngwutil.c ****    total_len = purpose_len + units_len + 10;
 7301              		.loc 1 1822 4 is_stmt 1 view .LVU2158
1823:fltk-1.3.4-1/png/pngwutil.c **** 
 7302              		.loc 1 1823 4 view .LVU2159
1823:fltk-1.3.4-1/png/pngwutil.c **** 
 7303              		.loc 1 1823 14 is_stmt 0 view .LVU2160
 7304 00ae 4C8D7402 		leaq	10(%rdx,%rax), %r14
 7304      0A
 7305              	.LVL718:
1825:fltk-1.3.4-1/png/pngwutil.c ****        (png_alloc_size_t)(nparams * (sizeof (png_size_t))));
 7306              		.loc 1 1825 4 is_stmt 1 view .LVU2161
1823:fltk-1.3.4-1/png/pngwutil.c **** 
 7307              		.loc 1 1823 28 is_stmt 0 view .LVU2162
 7308 00b3 48895424 		movq	%rdx, 32(%rsp)
 7308      20
1825:fltk-1.3.4-1/png/pngwutil.c ****        (png_alloc_size_t)(nparams * (sizeof (png_size_t))));
 7309              		.loc 1 1825 30 view .LVU2163
 7310 00b8 E8000000 		call	png_malloc@PLT
 7310      00
 7311              	.LVL719:
1825:fltk-1.3.4-1/png/pngwutil.c ****        (png_alloc_size_t)(nparams * (sizeof (png_size_t))));
 7312              		.loc 1 1825 30 view .LVU2164
 7313 00bd 4989C4   		movq	%rax, %r12
 7314              	.LVL720:
1831:fltk-1.3.4-1/png/pngwutil.c ****    {
 7315              		.loc 1 1831 4 is_stmt 1 view .LVU2165
1831:fltk-1.3.4-1/png/pngwutil.c ****    {
 7316              		.loc 1 1831 16 view .LVU2166
1831:fltk-1.3.4-1/png/pngwutil.c ****    {
 7317              		.loc 1 1831 4 is_stmt 0 view .LVU2167
 7318 00c0 85DB     		testl	%ebx, %ebx
 7319 00c2 0F8ED801 		jle	.L609
 7319      0000
 7320 00c8 8D43FF   		leal	-1(%rbx), %eax
 7321              	.LVL721:
1831:fltk-1.3.4-1/png/pngwutil.c ****    {
 7322              		.loc 1 1831 4 view .LVU2168
 7323 00cb 48896C24 		movq	%rbp, 48(%rsp)
 7323      30
 7324 00d0 4531FF   		xorl	%r15d, %r15d
 7325 00d3 4889C3   		movq	%rax, %rbx
 7326 00d6 89C5     		movl	%eax, %ebp
 7327              	.LVL722:
 7328 00d8 0F1F8400 		.p2align 4,,10
 7328      00000000 
 7329              		.p2align 3
 7330              	.L610:
1833:fltk-1.3.4-1/png/pngwutil.c ****       png_debug2(3, "pCAL parameter %d length = %lu", i,
 7331              		.loc 1 1833 7 is_stmt 1 discriminator 3 view .LVU2169
1833:fltk-1.3.4-1/png/pngwutil.c ****       png_debug2(3, "pCAL parameter %d length = %lu", i,
 7332              		.loc 1 1833 23 is_stmt 0 discriminator 3 view .LVU2170
 7333 00e0 4B8B7CFD 		movq	0(%r13,%r15,8), %rdi
 7333      00
 7334 00e5 E8000000 		call	strlen@PLT
 7334      00
 7335              	.LVL723:
 7336 00ea 4989C0   		movq	%rax, %r8
1833:fltk-1.3.4-1/png/pngwutil.c ****       png_debug2(3, "pCAL parameter %d length = %lu", i,
 7337              		.loc 1 1833 65 discriminator 3 view .LVU2171
 7338 00ed 31C0     		xorl	%eax, %eax
 7339 00ef 4439FD   		cmpl	%r15d, %ebp
 7340 00f2 0F95C0   		setne	%al
1833:fltk-1.3.4-1/png/pngwutil.c ****       png_debug2(3, "pCAL parameter %d length = %lu", i,
 7341              		.loc 1 1833 41 discriminator 3 view .LVU2172
 7342 00f5 4C01C0   		addq	%r8, %rax
1833:fltk-1.3.4-1/png/pngwutil.c ****       png_debug2(3, "pCAL parameter %d length = %lu", i,
 7343              		.loc 1 1833 21 discriminator 3 view .LVU2173
 7344 00f8 4B8904FC 		movq	%rax, (%r12,%r15,8)
1834:fltk-1.3.4-1/png/pngwutil.c ****           (unsigned long)params_len[i]);
 7345              		.loc 1 1834 7 is_stmt 1 discriminator 3 view .LVU2174
1836:fltk-1.3.4-1/png/pngwutil.c ****    }
 7346              		.loc 1 1836 7 discriminator 3 view .LVU2175
 7347              	.LVL724:
1836:fltk-1.3.4-1/png/pngwutil.c ****    }
 7348              		.loc 1 1836 17 is_stmt 0 discriminator 3 view .LVU2176
 7349 00fc 4901C6   		addq	%rax, %r14
 7350              	.LVL725:
1831:fltk-1.3.4-1/png/pngwutil.c ****    {
 7351              		.loc 1 1831 29 is_stmt 1 discriminator 3 view .LVU2177
1831:fltk-1.3.4-1/png/pngwutil.c ****    {
 7352              		.loc 1 1831 16 discriminator 3 view .LVU2178
 7353 00ff 4C89F8   		movq	%r15, %rax
 7354 0102 4983C701 		addq	$1, %r15
 7355              	.LVL726:
1831:fltk-1.3.4-1/png/pngwutil.c ****    {
 7356              		.loc 1 1831 4 is_stmt 0 discriminator 3 view .LVU2179
 7357 0106 4839C3   		cmpq	%rax, %rbx
 7358 0109 75D5     		jne	.L610
 7359 010b 89EB     		movl	%ebp, %ebx
 7360 010d 488B6C24 		movq	48(%rsp), %rbp
 7360      30
1839:fltk-1.3.4-1/png/pngwutil.c ****    png_write_chunk_header(png_ptr, png_pCAL, (png_uint_32)total_len);
 7361              		.loc 1 1839 4 is_stmt 1 view .LVU2180
1840:fltk-1.3.4-1/png/pngwutil.c ****    png_write_chunk_data(png_ptr, new_purpose, purpose_len);
 7362              		.loc 1 1840 4 view .LVU2181
 7363 0112 4489F2   		movl	%r14d, %edx
 7364              	.LVL727:
 7365              	.LBB537:
 7366              	.LBI537:
  73:fltk-1.3.4-1/png/pngwutil.c ****     png_uint_32 length)
 7367              		.loc 1 73 1 view .LVU2182
 7368              	.LBB538:
  76:fltk-1.3.4-1/png/pngwutil.c **** 
 7369              		.loc 1 76 4 view .LVU2183
  83:fltk-1.3.4-1/png/pngwutil.c ****       return;
 7370              		.loc 1 83 4 view .LVU2184
 7371 0115 440FB67C 		movzbl	20(%rsp), %r15d
 7371      2414
 7372 011b 440FB674 		movzbl	16(%rsp), %r14d
 7372      2410
 7373              	.LVL728:
  83:fltk-1.3.4-1/png/pngwutil.c ****       return;
 7374              		.loc 1 83 7 is_stmt 0 view .LVU2185
 7375 0121 4885ED   		testq	%rbp, %rbp
 7376 0124 0F843E01 		je	.L611
 7376      0000
 7377              	.LVL729:
 7378              	.L622:
  83:fltk-1.3.4-1/png/pngwutil.c ****       return;
 7379              		.loc 1 83 7 view .LVU2186
 7380 012a BE4C4143 		movl	$1883455820, %esi
 7380      70
 7381 012f 4889EF   		movq	%rbp, %rdi
 7382 0132 E8000000 		call	png_write_chunk_header.part.0
 7382      00
 7383              	.LVL730:
  83:fltk-1.3.4-1/png/pngwutil.c ****       return;
 7384              		.loc 1 83 7 view .LVU2187
 7385              	.LBE538:
 7386              	.LBE537:
1841:fltk-1.3.4-1/png/pngwutil.c ****    png_save_int_32(buf, X0);
 7387              		.loc 1 1841 4 is_stmt 1 view .LVU2188
 7388              	.LBB540:
 7389              	.LBI540:
 127:fltk-1.3.4-1/png/pngwutil.c ****     png_size_t length)
 7390              		.loc 1 127 1 view .LVU2189
 7391              	.LBB541:
 131:fltk-1.3.4-1/png/pngwutil.c ****       return;
 7392              		.loc 1 131 4 view .LVU2190
 134:fltk-1.3.4-1/png/pngwutil.c ****    {
 7393              		.loc 1 134 4 view .LVU2191
 134:fltk-1.3.4-1/png/pngwutil.c ****    {
 7394              		.loc 1 134 7 is_stmt 0 view .LVU2192
 7395 0137 48837C24 		cmpq	$0, 32(%rsp)
 7395      2000
 7396 013d 0F85ED00 		jne	.L646
 7396      0000
 7397              	.L612:
 7398              	.LVL731:
 134:fltk-1.3.4-1/png/pngwutil.c ****    {
 7399              		.loc 1 134 7 view .LVU2193
 7400              	.LBE541:
 7401              	.LBE540:
1842:fltk-1.3.4-1/png/pngwutil.c ****    png_save_int_32(buf + 4, X1);
 7402              		.loc 1 1842 4 is_stmt 1 view .LVU2194
 7403 0143 8B742418 		movl	24(%rsp), %esi
 7404 0147 488D5C24 		leaq	70(%rsp), %rbx
 7404      46
 7405 014c 4889DF   		movq	%rbx, %rdi
 7406 014f E8000000 		call	png_save_int_32@PLT
 7406      00
 7407              	.LVL732:
1843:fltk-1.3.4-1/png/pngwutil.c ****    buf[8] = (png_byte)type;
 7408              		.loc 1 1843 4 view .LVU2195
 7409 0154 8B74241C 		movl	28(%rsp), %esi
 7410 0158 488D7C24 		leaq	74(%rsp), %rdi
 7410      4A
 7411 015d E8000000 		call	png_save_int_32@PLT
 7411      00
 7412              	.LVL733:
1844:fltk-1.3.4-1/png/pngwutil.c ****    buf[9] = (png_byte)nparams;
 7413              		.loc 1 1844 4 view .LVU2196
 7414              	.LBB545:
 7415              	.LBB546:
 7416 0162 BA0A0000 		movl	$10, %edx
 7416      00
 7417 0167 4889DE   		movq	%rbx, %rsi
 7418 016a 4889EF   		movq	%rbp, %rdi
 7419              	.LBE546:
 7420              	.LBE545:
1844:fltk-1.3.4-1/png/pngwutil.c ****    buf[9] = (png_byte)nparams;
 7421              		.loc 1 1844 11 is_stmt 0 view .LVU2197
 7422 016d 44887C24 		movb	%r15b, 78(%rsp)
 7422      4E
1845:fltk-1.3.4-1/png/pngwutil.c ****    png_write_chunk_data(png_ptr, buf, (png_size_t)10);
 7423              		.loc 1 1845 4 is_stmt 1 view .LVU2198
1845:fltk-1.3.4-1/png/pngwutil.c ****    png_write_chunk_data(png_ptr, buf, (png_size_t)10);
 7424              		.loc 1 1845 11 is_stmt 0 view .LVU2199
 7425 0172 44887424 		movb	%r14b, 79(%rsp)
 7425      4F
1846:fltk-1.3.4-1/png/pngwutil.c ****    png_write_chunk_data(png_ptr, (png_const_bytep)units, (png_size_t)units_len);
 7426              		.loc 1 1846 4 is_stmt 1 view .LVU2200
 7427              	.LVL734:
 7428              	.LBB550:
 7429              	.LBI545:
 127:fltk-1.3.4-1/png/pngwutil.c ****     png_size_t length)
 7430              		.loc 1 127 1 view .LVU2201
 7431              	.LBB547:
 131:fltk-1.3.4-1/png/pngwutil.c ****       return;
 7432              		.loc 1 131 4 view .LVU2202
 134:fltk-1.3.4-1/png/pngwutil.c ****    {
 7433              		.loc 1 134 4 view .LVU2203
 7434 0177 E8000000 		call	png_write_chunk_data.part.0
 7434      00
 7435              	.LVL735:
 134:fltk-1.3.4-1/png/pngwutil.c ****    {
 7436              		.loc 1 134 4 is_stmt 0 view .LVU2204
 7437              	.LBE547:
 7438              	.LBE550:
1847:fltk-1.3.4-1/png/pngwutil.c **** 
 7439              		.loc 1 1847 4 is_stmt 1 view .LVU2205
 7440              	.LBB551:
 7441              	.LBI551:
 127:fltk-1.3.4-1/png/pngwutil.c ****     png_size_t length)
 7442              		.loc 1 127 1 view .LVU2206
 7443              	.LBB552:
 131:fltk-1.3.4-1/png/pngwutil.c ****       return;
 7444              		.loc 1 131 4 view .LVU2207
 134:fltk-1.3.4-1/png/pngwutil.c ****    {
 7445              		.loc 1 134 4 view .LVU2208
 134:fltk-1.3.4-1/png/pngwutil.c ****    {
 7446              		.loc 1 134 7 is_stmt 0 view .LVU2209
 7447 017c 48837C24 		cmpq	$0, 40(%rsp)
 7447      2800
 7448 0182 0F858800 		jne	.L647
 7448      0000
 7449              	.L613:
 7450              	.LVL736:
 134:fltk-1.3.4-1/png/pngwutil.c ****    {
 7451              		.loc 1 134 7 view .LVU2210
 7452              	.LBE552:
 7453              	.LBE551:
1849:fltk-1.3.4-1/png/pngwutil.c ****    {
 7454              		.loc 1 1849 16 is_stmt 1 view .LVU2211
 7455 0188 8B442410 		movl	16(%rsp), %eax
 7456 018c 8D58FF   		leal	-1(%rax), %ebx
1849:fltk-1.3.4-1/png/pngwutil.c ****    {
 7457              		.loc 1 1849 4 is_stmt 0 view .LVU2212
 7458 018f 85C0     		testl	%eax, %eax
 7459 0191 0F8E5E01 		jle	.L648
 7459      0000
 7460              	.L619:
1831:fltk-1.3.4-1/png/pngwutil.c ****    {
 7461              		.loc 1 1831 4 view .LVU2213
 7462 0197 4531F6   		xorl	%r14d, %r14d
 7463 019a EB07     		jmp	.L615
 7464              	.LVL737:
 7465 019c 0F1F4000 		.p2align 4,,10
 7466              		.p2align 3
 7467              	.L624:
1831:fltk-1.3.4-1/png/pngwutil.c ****    {
 7468              		.loc 1 1831 4 view .LVU2214
 7469 01a0 4989C6   		movq	%rax, %r14
 7470              	.LVL738:
 7471              	.L615:
1851:fltk-1.3.4-1/png/pngwutil.c ****    }
 7472              		.loc 1 1851 7 is_stmt 1 discriminator 3 view .LVU2215
 7473              	.LBB556:
 7474              	.LBI556:
 127:fltk-1.3.4-1/png/pngwutil.c ****     png_size_t length)
 7475              		.loc 1 127 1 discriminator 3 view .LVU2216
 7476              	.LBB557:
 131:fltk-1.3.4-1/png/pngwutil.c ****       return;
 7477              		.loc 1 131 4 discriminator 3 view .LVU2217
 131:fltk-1.3.4-1/png/pngwutil.c ****       return;
 7478              		.loc 1 131 7 is_stmt 0 discriminator 3 view .LVU2218
 7479 01a3 4885ED   		testq	%rbp, %rbp
 7480 01a6 741B     		je	.L614
 7481              	.LBE557:
 7482              	.LBE556:
1851:fltk-1.3.4-1/png/pngwutil.c ****    }
 7483              		.loc 1 1851 7 view .LVU2219
 7484 01a8 4B8B74F5 		movq	0(%r13,%r14,8), %rsi
 7484      00
 7485              	.LBB560:
 7486              	.LBB558:
 134:fltk-1.3.4-1/png/pngwutil.c ****    {
 7487              		.loc 1 134 4 is_stmt 1 view .LVU2220
 7488              	.LBE558:
 7489              	.LBE560:
1851:fltk-1.3.4-1/png/pngwutil.c ****    }
 7490              		.loc 1 1851 7 is_stmt 0 view .LVU2221
 7491 01ad 4B8B14F4 		movq	(%r12,%r14,8), %rdx
 7492              	.LBB561:
 7493              	.LBB559:
 134:fltk-1.3.4-1/png/pngwutil.c ****    {
 7494              		.loc 1 134 7 view .LVU2222
 7495 01b1 4885F6   		testq	%rsi, %rsi
 7496 01b4 740D     		je	.L614
 7497 01b6 4885D2   		testq	%rdx, %rdx
 7498 01b9 7408     		je	.L614
 7499 01bb 4889EF   		movq	%rbp, %rdi
 7500 01be E8000000 		call	png_write_chunk_data.part.0
 7500      00
 7501              	.LVL739:
 7502              	.L614:
 134:fltk-1.3.4-1/png/pngwutil.c ****    {
 7503              		.loc 1 134 7 view .LVU2223
 7504              	.LBE559:
 7505              	.LBE561:
1849:fltk-1.3.4-1/png/pngwutil.c ****    {
 7506              		.loc 1 1849 29 is_stmt 1 view .LVU2224
1849:fltk-1.3.4-1/png/pngwutil.c ****    {
 7507              		.loc 1 1849 16 view .LVU2225
 7508 01c3 498D4601 		leaq	1(%r14), %rax
1849:fltk-1.3.4-1/png/pngwutil.c ****    {
 7509              		.loc 1 1849 4 is_stmt 0 view .LVU2226
 7510 01c7 4C39F3   		cmpq	%r14, %rbx
 7511 01ca 75D4     		jne	.L624
1854:fltk-1.3.4-1/png/pngwutil.c ****    png_write_chunk_end(png_ptr);
 7512              		.loc 1 1854 4 is_stmt 1 view .LVU2227
 7513 01cc 4C89E6   		movq	%r12, %rsi
 7514 01cf 4889EF   		movq	%rbp, %rdi
 7515 01d2 E8000000 		call	png_free@PLT
 7515      00
 7516              	.LVL740:
1855:fltk-1.3.4-1/png/pngwutil.c **** }
 7517              		.loc 1 1855 4 view .LVU2228
 7518              	.LBB562:
 7519              	.LBI562:
 147:fltk-1.3.4-1/png/pngwutil.c **** {
 7520              		.loc 1 147 1 view .LVU2229
 7521              	.LBB563:
 149:fltk-1.3.4-1/png/pngwutil.c **** 
 7522              		.loc 1 149 4 view .LVU2230
 151:fltk-1.3.4-1/png/pngwutil.c **** 
 7523              		.loc 1 151 4 view .LVU2231
 151:fltk-1.3.4-1/png/pngwutil.c **** 
 7524              		.loc 1 151 7 is_stmt 0 view .LVU2232
 7525 01d7 4885ED   		testq	%rbp, %rbp
 7526 01da 7408     		je	.L604
 7527              	.LVL741:
 7528              	.L618:
 151:fltk-1.3.4-1/png/pngwutil.c **** 
 7529              		.loc 1 151 7 view .LVU2233
 7530 01dc 4889EF   		movq	%rbp, %rdi
 7531 01df E8000000 		call	png_write_chunk_end.part.0
 7531      00
 7532              	.LVL742:
 7533              	.L604:
 151:fltk-1.3.4-1/png/pngwutil.c **** 
 7534              		.loc 1 151 7 view .LVU2234
 7535              	.LBE563:
 7536              	.LBE562:
1856:fltk-1.3.4-1/png/pngwutil.c **** #endif
 7537              		.loc 1 1856 1 view .LVU2235
 7538 01e4 488B8424 		movq	168(%rsp), %rax
 7538      A8000000 
 7539 01ec 64483304 		xorq	%fs:40, %rax
 7539      25280000 
 7539      00
 7540 01f5 0F851601 		jne	.L649
 7540      0000
 7541 01fb 4881C4B8 		addq	$184, %rsp
 7541      000000
 7542              		.cfi_remember_state
 7543              		.cfi_def_cfa_offset 56
 7544 0202 5B       		popq	%rbx
 7545              		.cfi_def_cfa_offset 48
 7546 0203 5D       		popq	%rbp
 7547              		.cfi_def_cfa_offset 40
 7548 0204 415C     		popq	%r12
 7549              		.cfi_def_cfa_offset 32
 7550              	.LVL743:
1856:fltk-1.3.4-1/png/pngwutil.c **** #endif
 7551              		.loc 1 1856 1 view .LVU2236
 7552 0206 415D     		popq	%r13
 7553              		.cfi_def_cfa_offset 24
 7554 0208 415E     		popq	%r14
 7555              		.cfi_def_cfa_offset 16
 7556 020a 415F     		popq	%r15
 7557              		.cfi_def_cfa_offset 8
 7558 020c C3       		ret
 7559              	.LVL744:
 7560 020d 0F1F00   		.p2align 4,,10
 7561              		.p2align 3
 7562              	.L647:
 7563              		.cfi_restore_state
 7564              	.LBB566:
 7565              	.LBB553:
1856:fltk-1.3.4-1/png/pngwutil.c **** #endif
 7566              		.loc 1 1856 1 view .LVU2237
 7567 0210 488B5424 		movq	40(%rsp), %rdx
 7567      28
 7568 0215 488B7424 		movq	8(%rsp), %rsi
 7568      08
 7569 021a 4889EF   		movq	%rbp, %rdi
 7570 021d E8000000 		call	png_write_chunk_data.part.0
 7570      00
 7571              	.LVL745:
 7572 0222 E961FFFF 		jmp	.L613
 7572      FF
 7573              	.LVL746:
 7574 0227 660F1F84 		.p2align 4,,10
 7574      00000000 
 7574      00
 7575              		.p2align 3
 7576              	.L646:
1856:fltk-1.3.4-1/png/pngwutil.c **** #endif
 7577              		.loc 1 1856 1 view .LVU2238
 7578              	.LBE553:
 7579              	.LBE566:
 7580              	.LBB567:
 7581              	.LBB542:
 7582 0230 488B5424 		movq	32(%rsp), %rdx
 7582      20
 7583 0235 488B7424 		movq	56(%rsp), %rsi
 7583      38
 7584 023a 4889EF   		movq	%rbp, %rdi
 7585 023d E8000000 		call	png_write_chunk_data.part.0
 7585      00
 7586              	.LVL747:
 7587 0242 E9FCFEFF 		jmp	.L612
 7587      FF
 7588              	.LVL748:
 7589 0247 660F1F84 		.p2align 4,,10
 7589      00000000 
 7589      00
 7590              		.p2align 3
 7591              	.L645:
1856:fltk-1.3.4-1/png/pngwutil.c **** #endif
 7592              		.loc 1 1856 1 view .LVU2239
 7593              	.LBE542:
 7594              	.LBE567:
 7595              	.LBB568:
 7596              	.LBB536:
 692:fltk-1.3.4-1/png/pngwutil.c ****       return 0;
 7597              		.loc 1 692 7 is_stmt 1 view .LVU2240
 692:fltk-1.3.4-1/png/pngwutil.c ****       return 0;
 7598              		.loc 1 692 16 is_stmt 0 view .LVU2241
 7599 0250 C6442450 		movb	$0, 80(%rsp)
 7599      00
 693:fltk-1.3.4-1/png/pngwutil.c ****    }
 7600              		.loc 1 693 7 is_stmt 1 view .LVU2242
 7601              	.LVL749:
 693:fltk-1.3.4-1/png/pngwutil.c ****    }
 7602              		.loc 1 693 7 is_stmt 0 view .LVU2243
 7603              	.LBE536:
 7604              	.LBE568:
1815:fltk-1.3.4-1/png/pngwutil.c ****       png_error(png_ptr, "pCAL: invalid keyword");
 7605              		.loc 1 1815 4 is_stmt 1 view .LVU2244
 7606              	.L607:
1816:fltk-1.3.4-1/png/pngwutil.c **** 
 7607              		.loc 1 1816 7 view .LVU2245
 7608 0255 488D3500 		leaq	.LC46(%rip), %rsi
 7608      000000
 7609 025c 4889EF   		movq	%rbp, %rdi
 7610 025f E8000000 		call	png_error@PLT
 7610      00
 7611              	.LVL750:
 7612              		.p2align 4,,10
 7613 0264 0F1F4000 		.p2align 3
 7614              	.L611:
1841:fltk-1.3.4-1/png/pngwutil.c ****    png_save_int_32(buf, X0);
 7615              		.loc 1 1841 4 view .LVU2246
 7616              	.LBB569:
 127:fltk-1.3.4-1/png/pngwutil.c ****     png_size_t length)
 7617              		.loc 1 127 1 view .LVU2247
 7618              	.LBB543:
 131:fltk-1.3.4-1/png/pngwutil.c ****       return;
 7619              		.loc 1 131 4 view .LVU2248
 131:fltk-1.3.4-1/png/pngwutil.c ****       return;
 7620              		.loc 1 131 4 is_stmt 0 view .LVU2249
 7621              	.LBE543:
 7622              	.LBE569:
1842:fltk-1.3.4-1/png/pngwutil.c ****    png_save_int_32(buf + 4, X1);
 7623              		.loc 1 1842 4 is_stmt 1 view .LVU2250
 7624 0268 8B742418 		movl	24(%rsp), %esi
 7625 026c 488D7C24 		leaq	70(%rsp), %rdi
 7625      46
 7626 0271 E8000000 		call	png_save_int_32@PLT
 7626      00
 7627              	.LVL751:
1843:fltk-1.3.4-1/png/pngwutil.c ****    buf[8] = (png_byte)type;
 7628              		.loc 1 1843 4 view .LVU2251
 7629 0276 8B74241C 		movl	28(%rsp), %esi
 7630 027a 488D7C24 		leaq	74(%rsp), %rdi
 7630      4A
 7631 027f E8000000 		call	png_save_int_32@PLT
 7631      00
 7632              	.LVL752:
1844:fltk-1.3.4-1/png/pngwutil.c ****    buf[9] = (png_byte)nparams;
 7633              		.loc 1 1844 4 view .LVU2252
1844:fltk-1.3.4-1/png/pngwutil.c ****    buf[9] = (png_byte)nparams;
 7634              		.loc 1 1844 11 is_stmt 0 view .LVU2253
 7635 0284 0FB64424 		movzbl	20(%rsp), %eax
 7635      14
 7636 0289 8844244E 		movb	%al, 78(%rsp)
1845:fltk-1.3.4-1/png/pngwutil.c ****    png_write_chunk_data(png_ptr, buf, (png_size_t)10);
 7637              		.loc 1 1845 4 is_stmt 1 view .LVU2254
1845:fltk-1.3.4-1/png/pngwutil.c ****    png_write_chunk_data(png_ptr, buf, (png_size_t)10);
 7638              		.loc 1 1845 11 is_stmt 0 view .LVU2255
 7639 028d 0FB64424 		movzbl	16(%rsp), %eax
 7639      10
 7640 0292 8844244F 		movb	%al, 79(%rsp)
1846:fltk-1.3.4-1/png/pngwutil.c ****    png_write_chunk_data(png_ptr, (png_const_bytep)units, (png_size_t)units_len);
 7641              		.loc 1 1846 4 is_stmt 1 view .LVU2256
 7642              	.LVL753:
 7643              	.LBB570:
 127:fltk-1.3.4-1/png/pngwutil.c ****     png_size_t length)
 7644              		.loc 1 127 1 view .LVU2257
 7645              	.LBB548:
 131:fltk-1.3.4-1/png/pngwutil.c ****       return;
 7646              		.loc 1 131 4 view .LVU2258
 131:fltk-1.3.4-1/png/pngwutil.c ****       return;
 7647              		.loc 1 131 4 is_stmt 0 view .LVU2259
 7648              	.LBE548:
 7649              	.LBE570:
1847:fltk-1.3.4-1/png/pngwutil.c **** 
 7650              		.loc 1 1847 4 is_stmt 1 view .LVU2260
 7651              	.LBB571:
 127:fltk-1.3.4-1/png/pngwutil.c ****     png_size_t length)
 7652              		.loc 1 127 1 view .LVU2261
 7653              	.LBB554:
 131:fltk-1.3.4-1/png/pngwutil.c ****       return;
 7654              		.loc 1 131 4 view .LVU2262
 131:fltk-1.3.4-1/png/pngwutil.c ****       return;
 7655              		.loc 1 131 4 is_stmt 0 view .LVU2263
 7656              	.LBE554:
 7657              	.LBE571:
1849:fltk-1.3.4-1/png/pngwutil.c ****    {
 7658              		.loc 1 1849 16 is_stmt 1 view .LVU2264
 7659 0296 E9FCFEFF 		jmp	.L619
 7659      FF
 7660              	.LVL754:
 7661 029b 0F1F4400 		.p2align 4,,10
 7661      00
 7662              		.p2align 3
 7663              	.L609:
1839:fltk-1.3.4-1/png/pngwutil.c ****    png_write_chunk_header(png_ptr, png_pCAL, (png_uint_32)total_len);
 7664              		.loc 1 1839 4 view .LVU2265
1840:fltk-1.3.4-1/png/pngwutil.c ****    png_write_chunk_data(png_ptr, new_purpose, purpose_len);
 7665              		.loc 1 1840 4 view .LVU2266
 7666 02a0 4489F2   		movl	%r14d, %edx
 7667              	.LVL755:
 7668              	.LBB572:
  73:fltk-1.3.4-1/png/pngwutil.c ****     png_uint_32 length)
 7669              		.loc 1 73 1 view .LVU2267
 7670              	.LBB539:
  76:fltk-1.3.4-1/png/pngwutil.c **** 
 7671              		.loc 1 76 4 view .LVU2268
  83:fltk-1.3.4-1/png/pngwutil.c ****       return;
 7672              		.loc 1 83 4 view .LVU2269
 7673 02a3 440FB67C 		movzbl	20(%rsp), %r15d
 7673      2414
 7674 02a9 440FB674 		movzbl	16(%rsp), %r14d
 7674      2410
 7675              	.LVL756:
  83:fltk-1.3.4-1/png/pngwutil.c ****       return;
 7676              		.loc 1 83 7 is_stmt 0 view .LVU2270
 7677 02af 4885ED   		testq	%rbp, %rbp
 7678 02b2 0F8572FE 		jne	.L622
 7678      FFFF
 7679              	.LVL757:
  83:fltk-1.3.4-1/png/pngwutil.c ****       return;
 7680              		.loc 1 83 7 view .LVU2271
 7681              	.LBE539:
 7682              	.LBE572:
1841:fltk-1.3.4-1/png/pngwutil.c ****    png_save_int_32(buf, X0);
 7683              		.loc 1 1841 4 is_stmt 1 view .LVU2272
 7684              	.LBB573:
 127:fltk-1.3.4-1/png/pngwutil.c ****     png_size_t length)
 7685              		.loc 1 127 1 view .LVU2273
 7686              	.LBB544:
 131:fltk-1.3.4-1/png/pngwutil.c ****       return;
 7687              		.loc 1 131 4 view .LVU2274
 131:fltk-1.3.4-1/png/pngwutil.c ****       return;
 7688              		.loc 1 131 4 is_stmt 0 view .LVU2275
 7689              	.LBE544:
 7690              	.LBE573:
1842:fltk-1.3.4-1/png/pngwutil.c ****    png_save_int_32(buf + 4, X1);
 7691              		.loc 1 1842 4 is_stmt 1 view .LVU2276
 7692 02b8 8B742418 		movl	24(%rsp), %esi
 7693 02bc 488D7C24 		leaq	70(%rsp), %rdi
 7693      46
 7694 02c1 E8000000 		call	png_save_int_32@PLT
 7694      00
 7695              	.LVL758:
1843:fltk-1.3.4-1/png/pngwutil.c ****    buf[8] = (png_byte)type;
 7696              		.loc 1 1843 4 view .LVU2277
 7697 02c6 8B74241C 		movl	28(%rsp), %esi
 7698 02ca 488D7C24 		leaq	74(%rsp), %rdi
 7698      4A
 7699 02cf E8000000 		call	png_save_int_32@PLT
 7699      00
 7700              	.LVL759:
1844:fltk-1.3.4-1/png/pngwutil.c ****    buf[9] = (png_byte)nparams;
 7701              		.loc 1 1844 4 view .LVU2278
1844:fltk-1.3.4-1/png/pngwutil.c ****    buf[9] = (png_byte)nparams;
 7702              		.loc 1 1844 11 is_stmt 0 view .LVU2279
 7703 02d4 0FB64424 		movzbl	20(%rsp), %eax
 7703      14
1854:fltk-1.3.4-1/png/pngwutil.c ****    png_write_chunk_end(png_ptr);
 7704              		.loc 1 1854 4 view .LVU2280
 7705 02d9 4C89E6   		movq	%r12, %rsi
 7706 02dc 31FF     		xorl	%edi, %edi
1844:fltk-1.3.4-1/png/pngwutil.c ****    buf[9] = (png_byte)nparams;
 7707              		.loc 1 1844 11 view .LVU2281
 7708 02de 8844244E 		movb	%al, 78(%rsp)
1845:fltk-1.3.4-1/png/pngwutil.c ****    png_write_chunk_data(png_ptr, buf, (png_size_t)10);
 7709              		.loc 1 1845 4 is_stmt 1 view .LVU2282
1845:fltk-1.3.4-1/png/pngwutil.c ****    png_write_chunk_data(png_ptr, buf, (png_size_t)10);
 7710              		.loc 1 1845 11 is_stmt 0 view .LVU2283
 7711 02e2 0FB64424 		movzbl	16(%rsp), %eax
 7711      10
 7712 02e7 8844244F 		movb	%al, 79(%rsp)
1846:fltk-1.3.4-1/png/pngwutil.c ****    png_write_chunk_data(png_ptr, (png_const_bytep)units, (png_size_t)units_len);
 7713              		.loc 1 1846 4 is_stmt 1 view .LVU2284
 7714              	.LVL760:
 7715              	.LBB574:
 127:fltk-1.3.4-1/png/pngwutil.c ****     png_size_t length)
 7716              		.loc 1 127 1 view .LVU2285
 7717              	.LBB549:
 131:fltk-1.3.4-1/png/pngwutil.c ****       return;
 7718              		.loc 1 131 4 view .LVU2286
 131:fltk-1.3.4-1/png/pngwutil.c ****       return;
 7719              		.loc 1 131 4 is_stmt 0 view .LVU2287
 7720              	.LBE549:
 7721              	.LBE574:
1847:fltk-1.3.4-1/png/pngwutil.c **** 
 7722              		.loc 1 1847 4 is_stmt 1 view .LVU2288
 7723              	.LBB575:
 127:fltk-1.3.4-1/png/pngwutil.c ****     png_size_t length)
 7724              		.loc 1 127 1 view .LVU2289
 7725              	.LBB555:
 131:fltk-1.3.4-1/png/pngwutil.c ****       return;
 7726              		.loc 1 131 4 view .LVU2290
 131:fltk-1.3.4-1/png/pngwutil.c ****       return;
 7727              		.loc 1 131 4 is_stmt 0 view .LVU2291
 7728              	.LBE555:
 7729              	.LBE575:
1849:fltk-1.3.4-1/png/pngwutil.c ****    {
 7730              		.loc 1 1849 16 is_stmt 1 view .LVU2292
1854:fltk-1.3.4-1/png/pngwutil.c ****    png_write_chunk_end(png_ptr);
 7731              		.loc 1 1854 4 view .LVU2293
 7732 02eb E8000000 		call	png_free@PLT
 7732      00
 7733              	.LVL761:
1855:fltk-1.3.4-1/png/pngwutil.c **** }
 7734              		.loc 1 1855 4 view .LVU2294
 7735              	.LBB576:
 147:fltk-1.3.4-1/png/pngwutil.c **** {
 7736              		.loc 1 147 1 view .LVU2295
 7737              	.LBB564:
 149:fltk-1.3.4-1/png/pngwutil.c **** 
 7738              		.loc 1 149 4 view .LVU2296
 151:fltk-1.3.4-1/png/pngwutil.c **** 
 7739              		.loc 1 151 4 view .LVU2297
 7740 02f0 E9EFFEFF 		jmp	.L604
 7740      FF
 7741              	.LVL762:
 7742              	.L648:
 151:fltk-1.3.4-1/png/pngwutil.c **** 
 7743              		.loc 1 151 4 is_stmt 0 view .LVU2298
 7744              	.LBE564:
 7745              	.LBE576:
1854:fltk-1.3.4-1/png/pngwutil.c ****    png_write_chunk_end(png_ptr);
 7746              		.loc 1 1854 4 is_stmt 1 view .LVU2299
 7747 02f5 4C89E6   		movq	%r12, %rsi
 7748 02f8 4889EF   		movq	%rbp, %rdi
 7749 02fb E8000000 		call	png_free@PLT
 7749      00
 7750              	.LVL763:
1855:fltk-1.3.4-1/png/pngwutil.c **** }
 7751              		.loc 1 1855 4 view .LVU2300
 7752              	.LBB577:
 147:fltk-1.3.4-1/png/pngwutil.c **** {
 7753              		.loc 1 147 1 view .LVU2301
 7754              	.LBB565:
 149:fltk-1.3.4-1/png/pngwutil.c **** 
 7755              		.loc 1 149 4 view .LVU2302
 151:fltk-1.3.4-1/png/pngwutil.c **** 
 7756              		.loc 1 151 4 view .LVU2303
 7757 0300 E9D7FEFF 		jmp	.L618
 7757      FF
 7758              	.LVL764:
 7759              	.L644:
 151:fltk-1.3.4-1/png/pngwutil.c **** 
 7760              		.loc 1 151 4 is_stmt 0 view .LVU2304
 7761              	.LBE565:
 7762              	.LBE577:
1811:fltk-1.3.4-1/png/pngwutil.c **** 
 7763              		.loc 1 1811 7 is_stmt 1 view .LVU2305
 7764 0305 488D3500 		leaq	.LC45(%rip), %rsi
 7764      000000
 7765              	.LVL765:
1811:fltk-1.3.4-1/png/pngwutil.c **** 
 7766              		.loc 1 1811 7 is_stmt 0 view .LVU2306
 7767 030c E8000000 		call	png_error@PLT
 7767      00
 7768              	.LVL766:
 7769              	.L649:
1856:fltk-1.3.4-1/png/pngwutil.c **** #endif
 7770              		.loc 1 1856 1 view .LVU2307
 7771 0311 E8000000 		call	__stack_chk_fail@PLT
 7771      00
 7772              	.LVL767:
 7773              		.cfi_endproc
 7774              	.LFE75:
 7776              		.section	.rodata.png_write_sCAL_s.str1.8,"aMS",@progbits,1
 7777              		.align 8
 7778              	.LC47:
 7779 0000 43616E27 		.string	"Can't write sCAL (buffer too small)"
 7779      74207772 
 7779      69746520 
 7779      7343414C 
 7779      20286275 
 7780              		.section	.text.png_write_sCAL_s,"ax",@progbits
 7781              		.p2align 4
 7782              		.globl	png_write_sCAL_s
 7784              	png_write_sCAL_s:
 7785              	.LVL768:
 7786              	.LFB76:
1864:fltk-1.3.4-1/png/pngwutil.c ****    png_byte buf[64];
 7787              		.loc 1 1864 1 is_stmt 1 view -0
 7788              		.cfi_startproc
1864:fltk-1.3.4-1/png/pngwutil.c ****    png_byte buf[64];
 7789              		.loc 1 1864 1 is_stmt 0 view .LVU2309
 7790 0000 F30F1EFA 		endbr64
 7791 0004 4157     		pushq	%r15
 7792              		.cfi_def_cfa_offset 16
 7793              		.cfi_offset 15, -16
 7794 0006 4156     		pushq	%r14
 7795              		.cfi_def_cfa_offset 24
 7796              		.cfi_offset 14, -24
 7797 0008 4189F6   		movl	%esi, %r14d
 7798 000b 4155     		pushq	%r13
 7799              		.cfi_def_cfa_offset 32
 7800              		.cfi_offset 13, -32
 7801 000d 4989FD   		movq	%rdi, %r13
1870:fltk-1.3.4-1/png/pngwutil.c ****    hlen = strlen(height);
 7802              		.loc 1 1870 11 view .LVU2310
 7803 0010 4889D7   		movq	%rdx, %rdi
 7804              	.LVL769:
1864:fltk-1.3.4-1/png/pngwutil.c ****    png_byte buf[64];
 7805              		.loc 1 1864 1 view .LVU2311
 7806 0013 4154     		pushq	%r12
 7807              		.cfi_def_cfa_offset 40
 7808              		.cfi_offset 12, -40
 7809 0015 55       		pushq	%rbp
 7810              		.cfi_def_cfa_offset 48
 7811              		.cfi_offset 6, -48
 7812 0016 4889CD   		movq	%rcx, %rbp
 7813 0019 53       		pushq	%rbx
 7814              		.cfi_def_cfa_offset 56
 7815              		.cfi_offset 3, -56
 7816 001a 4883EC68 		subq	$104, %rsp
 7817              		.cfi_def_cfa_offset 160
1864:fltk-1.3.4-1/png/pngwutil.c ****    png_byte buf[64];
 7818              		.loc 1 1864 1 view .LVU2312
 7819 001e 64488B04 		movq	%fs:40, %rax
 7819      25280000 
 7819      00
 7820 0027 48894424 		movq	%rax, 88(%rsp)
 7820      58
 7821 002c 31C0     		xorl	%eax, %eax
1865:fltk-1.3.4-1/png/pngwutil.c ****    png_size_t wlen, hlen, total_len;
 7822              		.loc 1 1865 4 is_stmt 1 view .LVU2313
1866:fltk-1.3.4-1/png/pngwutil.c **** 
 7823              		.loc 1 1866 4 view .LVU2314
1868:fltk-1.3.4-1/png/pngwutil.c **** 
 7824              		.loc 1 1868 4 view .LVU2315
1870:fltk-1.3.4-1/png/pngwutil.c ****    hlen = strlen(height);
 7825              		.loc 1 1870 4 view .LVU2316
1870:fltk-1.3.4-1/png/pngwutil.c ****    hlen = strlen(height);
 7826              		.loc 1 1870 11 is_stmt 0 view .LVU2317
 7827 002e 48895424 		movq	%rdx, 8(%rsp)
 7827      08
 7828 0033 E8000000 		call	strlen@PLT
 7828      00
 7829              	.LVL770:
1871:fltk-1.3.4-1/png/pngwutil.c ****    total_len = wlen + hlen + 2;
 7830              		.loc 1 1871 11 view .LVU2318
 7831 0038 4889EF   		movq	%rbp, %rdi
1870:fltk-1.3.4-1/png/pngwutil.c ****    hlen = strlen(height);
 7832              		.loc 1 1870 11 view .LVU2319
 7833 003b 4889C3   		movq	%rax, %rbx
 7834              	.LVL771:
1871:fltk-1.3.4-1/png/pngwutil.c ****    total_len = wlen + hlen + 2;
 7835              		.loc 1 1871 4 is_stmt 1 view .LVU2320
1871:fltk-1.3.4-1/png/pngwutil.c ****    total_len = wlen + hlen + 2;
 7836              		.loc 1 1871 11 is_stmt 0 view .LVU2321
 7837 003e E8000000 		call	strlen@PLT
 7837      00
 7838              	.LVL772:
1872:fltk-1.3.4-1/png/pngwutil.c **** 
 7839              		.loc 1 1872 4 is_stmt 1 view .LVU2322
1874:fltk-1.3.4-1/png/pngwutil.c ****    {
 7840              		.loc 1 1874 7 is_stmt 0 view .LVU2323
 7841 0043 488B7424 		movq	8(%rsp), %rsi
 7841      08
1872:fltk-1.3.4-1/png/pngwutil.c **** 
 7842              		.loc 1 1872 14 view .LVU2324
 7843 0048 4C8D7C03 		leaq	2(%rbx,%rax), %r15
 7843      02
 7844              	.LVL773:
1874:fltk-1.3.4-1/png/pngwutil.c ****    {
 7845              		.loc 1 1874 4 is_stmt 1 view .LVU2325
1874:fltk-1.3.4-1/png/pngwutil.c ****    {
 7846              		.loc 1 1874 7 is_stmt 0 view .LVU2326
 7847 004d 4983FF40 		cmpq	$64, %r15
 7848 0051 7765     		ja	.L655
 7849              	.LBB578:
 7850              	.LBB579:
  34:/usr/include/x86_64-linux-gnu/bits/string_fortified.h **** }
 7851              		.loc 2 34 10 view .LVU2327
 7852 0053 B93F0000 		movl	$63, %ecx
 7852      00
 7853              	.LBE579:
 7854              	.LBE578:
1880:fltk-1.3.4-1/png/pngwutil.c ****    memcpy(buf + 1, width, wlen + 1);      /* Append the '\0' here */
 7855              		.loc 1 1880 13 view .LVU2328
 7856 0058 44887424 		movb	%r14b, 16(%rsp)
 7856      10
 7857 005d 4989C4   		movq	%rax, %r12
1880:fltk-1.3.4-1/png/pngwutil.c ****    memcpy(buf + 1, width, wlen + 1);      /* Append the '\0' here */
 7858              		.loc 1 1880 4 is_stmt 1 view .LVU2329
1881:fltk-1.3.4-1/png/pngwutil.c ****    memcpy(buf + wlen + 2, height, hlen);  /* Do NOT append the '\0' here */
 7859              		.loc 1 1881 4 view .LVU2330
 7860              	.LVL774:
 7861              	.LBB582:
 7862              	.LBI578:
  31:/usr/include/x86_64-linux-gnu/bits/string_fortified.h **** 	       size_t __len))
 7863              		.loc 2 31 1 view .LVU2331
 7864              	.LBB580:
  34:/usr/include/x86_64-linux-gnu/bits/string_fortified.h **** }
 7865              		.loc 2 34 3 view .LVU2332
 7866              	.LBE580:
 7867              	.LBE582:
1881:fltk-1.3.4-1/png/pngwutil.c ****    memcpy(buf + wlen + 2, height, hlen);  /* Do NOT append the '\0' here */
 7868              		.loc 1 1881 4 is_stmt 0 view .LVU2333
 7869 0060 488D5301 		leaq	1(%rbx), %rdx
 7870              	.LVL775:
 7871              	.LBB583:
 7872              	.LBB581:
  34:/usr/include/x86_64-linux-gnu/bits/string_fortified.h **** }
 7873              		.loc 2 34 10 view .LVU2334
 7874 0064 4C8D7424 		leaq	16(%rsp), %r14
 7874      10
 7875              	.LVL776:
  34:/usr/include/x86_64-linux-gnu/bits/string_fortified.h **** }
 7876              		.loc 2 34 10 view .LVU2335
 7877 0069 488D7C24 		leaq	17(%rsp), %rdi
 7877      11
 7878              	.LVL777:
  34:/usr/include/x86_64-linux-gnu/bits/string_fortified.h **** }
 7879              		.loc 2 34 10 view .LVU2336
 7880 006e E8000000 		call	__memcpy_chk@PLT
 7880      00
 7881              	.LVL778:
  34:/usr/include/x86_64-linux-gnu/bits/string_fortified.h **** }
 7882              		.loc 2 34 10 view .LVU2337
 7883              	.LBE581:
 7884              	.LBE583:
1882:fltk-1.3.4-1/png/pngwutil.c **** 
 7885              		.loc 1 1882 4 is_stmt 1 view .LVU2338
 7886              	.LBB584:
 7887              	.LBI584:
  31:/usr/include/x86_64-linux-gnu/bits/string_fortified.h **** 	       size_t __len))
 7888              		.loc 2 31 1 view .LVU2339
 7889              	.LBB585:
  34:/usr/include/x86_64-linux-gnu/bits/string_fortified.h **** }
 7890              		.loc 2 34 3 view .LVU2340
 7891              	.LBE585:
 7892              	.LBE584:
1882:fltk-1.3.4-1/png/pngwutil.c **** 
 7893              		.loc 1 1882 4 is_stmt 0 view .LVU2341
 7894 0073 498D7C1E 		leaq	2(%r14,%rbx), %rdi
 7894      02
 7895              	.LBB587:
 7896              	.LBB586:
  34:/usr/include/x86_64-linux-gnu/bits/string_fortified.h **** }
 7897              		.loc 2 34 10 view .LVU2342
 7898 0078 4C89E2   		movq	%r12, %rdx
 7899 007b 4889EE   		movq	%rbp, %rsi
 7900 007e E8000000 		call	memcpy@PLT
 7900      00
 7901              	.LVL779:
  34:/usr/include/x86_64-linux-gnu/bits/string_fortified.h **** }
 7902              		.loc 2 34 10 view .LVU2343
 7903              	.LBE586:
 7904              	.LBE587:
1884:fltk-1.3.4-1/png/pngwutil.c ****    png_write_complete_chunk(png_ptr, png_sCAL, buf, total_len);
 7905              		.loc 1 1884 4 is_stmt 1 view .LVU2344
1885:fltk-1.3.4-1/png/pngwutil.c **** }
 7906              		.loc 1 1885 4 view .LVU2345
 7907 0083 4C89F9   		movq	%r15, %rcx
 7908 0086 4C89F2   		movq	%r14, %rdx
 7909 0089 BE4C4143 		movl	$1933787468, %esi
 7909      73
 7910 008e 4C89EF   		movq	%r13, %rdi
 7911 0091 E8000000 		call	png_write_complete_chunk
 7911      00
 7912              	.LVL780:
 7913              	.L650:
1886:fltk-1.3.4-1/png/pngwutil.c **** #endif
 7914              		.loc 1 1886 1 is_stmt 0 view .LVU2346
 7915 0096 488B4424 		movq	88(%rsp), %rax
 7915      58
 7916 009b 64483304 		xorq	%fs:40, %rax
 7916      25280000 
 7916      00
 7917 00a4 7523     		jne	.L656
 7918 00a6 4883C468 		addq	$104, %rsp
 7919              		.cfi_remember_state
 7920              		.cfi_def_cfa_offset 56
 7921 00aa 5B       		popq	%rbx
 7922              		.cfi_def_cfa_offset 48
 7923              	.LVL781:
1886:fltk-1.3.4-1/png/pngwutil.c **** #endif
 7924              		.loc 1 1886 1 view .LVU2347
 7925 00ab 5D       		popq	%rbp
 7926              		.cfi_def_cfa_offset 40
 7927              	.LVL782:
1886:fltk-1.3.4-1/png/pngwutil.c **** #endif
 7928              		.loc 1 1886 1 view .LVU2348
 7929 00ac 415C     		popq	%r12
 7930              		.cfi_def_cfa_offset 32
 7931 00ae 415D     		popq	%r13
 7932              		.cfi_def_cfa_offset 24
 7933              	.LVL783:
1886:fltk-1.3.4-1/png/pngwutil.c **** #endif
 7934              		.loc 1 1886 1 view .LVU2349
 7935 00b0 415E     		popq	%r14
 7936              		.cfi_def_cfa_offset 16
 7937 00b2 415F     		popq	%r15
 7938              		.cfi_def_cfa_offset 8
 7939              	.LVL784:
1886:fltk-1.3.4-1/png/pngwutil.c **** #endif
 7940              		.loc 1 1886 1 view .LVU2350
 7941 00b4 C3       		ret
 7942              	.LVL785:
 7943              		.p2align 4,,10
 7944 00b5 0F1F00   		.p2align 3
 7945              	.L655:
 7946              		.cfi_restore_state
1876:fltk-1.3.4-1/png/pngwutil.c ****       return;
 7947              		.loc 1 1876 7 is_stmt 1 view .LVU2351
 7948 00b8 488D3500 		leaq	.LC47(%rip), %rsi
 7948      000000
 7949              	.LVL786:
1876:fltk-1.3.4-1/png/pngwutil.c ****       return;
 7950              		.loc 1 1876 7 is_stmt 0 view .LVU2352
 7951 00bf 4C89EF   		movq	%r13, %rdi
 7952 00c2 E8000000 		call	png_warning@PLT
 7952      00
 7953              	.LVL787:
1877:fltk-1.3.4-1/png/pngwutil.c ****    }
 7954              		.loc 1 1877 7 is_stmt 1 view .LVU2353
 7955 00c7 EBCD     		jmp	.L650
 7956              	.LVL788:
 7957              	.L656:
1886:fltk-1.3.4-1/png/pngwutil.c **** #endif
 7958              		.loc 1 1886 1 is_stmt 0 view .LVU2354
 7959 00c9 E8000000 		call	__stack_chk_fail@PLT
 7959      00
 7960              	.LVL789:
 7961              		.cfi_endproc
 7962              	.LFE76:
 7964              		.section	.rodata.png_write_pHYs.str1.8,"aMS",@progbits,1
 7965              		.align 8
 7966              	.LC48:
 7967 0000 556E7265 		.string	"Unrecognized unit type for pHYs chunk"
 7967      636F676E 
 7967      697A6564 
 7967      20756E69 
 7967      74207479 
 7968              		.section	.text.png_write_pHYs,"ax",@progbits
 7969              		.p2align 4
 7970              		.globl	png_write_pHYs
 7972              	png_write_pHYs:
 7973              	.LVL790:
 7974              	.LFB77:
1895:fltk-1.3.4-1/png/pngwutil.c ****    png_byte buf[9];
 7975              		.loc 1 1895 1 is_stmt 1 view -0
 7976              		.cfi_startproc
1895:fltk-1.3.4-1/png/pngwutil.c ****    png_byte buf[9];
 7977              		.loc 1 1895 1 is_stmt 0 view .LVU2356
 7978 0000 F30F1EFA 		endbr64
 7979 0004 4154     		pushq	%r12
 7980              		.cfi_def_cfa_offset 16
 7981              		.cfi_offset 12, -16
 7982 0006 4189CC   		movl	%ecx, %r12d
 7983 0009 55       		pushq	%rbp
 7984              		.cfi_def_cfa_offset 24
 7985              		.cfi_offset 6, -24
 7986 000a 89F5     		movl	%esi, %ebp
 7987 000c 53       		pushq	%rbx
 7988              		.cfi_def_cfa_offset 32
 7989              		.cfi_offset 3, -32
 7990 000d 89D3     		movl	%edx, %ebx
 7991 000f 4883EC30 		subq	$48, %rsp
 7992              		.cfi_def_cfa_offset 80
1895:fltk-1.3.4-1/png/pngwutil.c ****    png_byte buf[9];
 7993              		.loc 1 1895 1 view .LVU2357
 7994 0013 64488B04 		movq	%fs:40, %rax
 7994      25280000 
 7994      00
 7995 001c 48894424 		movq	%rax, 40(%rsp)
 7995      28
 7996 0021 31C0     		xorl	%eax, %eax
1896:fltk-1.3.4-1/png/pngwutil.c **** 
 7997              		.loc 1 1896 4 is_stmt 1 view .LVU2358
1898:fltk-1.3.4-1/png/pngwutil.c **** 
 7998              		.loc 1 1898 4 view .LVU2359
1900:fltk-1.3.4-1/png/pngwutil.c ****       png_warning(png_ptr, "Unrecognized unit type for pHYs chunk");
 7999              		.loc 1 1900 4 view .LVU2360
1900:fltk-1.3.4-1/png/pngwutil.c ****       png_warning(png_ptr, "Unrecognized unit type for pHYs chunk");
 8000              		.loc 1 1900 7 is_stmt 0 view .LVU2361
 8001 0023 83F901   		cmpl	$1, %ecx
 8002 0026 7E16     		jle	.L658
1901:fltk-1.3.4-1/png/pngwutil.c **** 
 8003              		.loc 1 1901 7 is_stmt 1 view .LVU2362
 8004 0028 488D3500 		leaq	.LC48(%rip), %rsi
 8004      000000
 8005              	.LVL791:
1901:fltk-1.3.4-1/png/pngwutil.c **** 
 8006              		.loc 1 1901 7 is_stmt 0 view .LVU2363
 8007 002f 48897C24 		movq	%rdi, 8(%rsp)
 8007      08
 8008 0034 E8000000 		call	png_warning@PLT
 8008      00
 8009              	.LVL792:
1901:fltk-1.3.4-1/png/pngwutil.c **** 
 8010              		.loc 1 1901 7 view .LVU2364
 8011 0039 488B7C24 		movq	8(%rsp), %rdi
 8011      08
 8012              	.LVL793:
 8013              	.L658:
1903:fltk-1.3.4-1/png/pngwutil.c ****    png_save_uint_32(buf + 4, y_pixels_per_unit);
 8014              		.loc 1 1903 4 is_stmt 1 view .LVU2365
 8015              	.LBB588:
 8016              	.LBI588:
  24:fltk-1.3.4-1/png/pngwutil.c **** {
 8017              		.loc 1 24 1 view .LVU2366
 8018              	.LBB589:
  26:fltk-1.3.4-1/png/pngwutil.c ****    buf[1] = (png_byte)((i >> 16) & 0xff);
 8019              		.loc 1 26 4 view .LVU2367
  27:fltk-1.3.4-1/png/pngwutil.c ****    buf[2] = (png_byte)((i >> 8) & 0xff);
 8020              		.loc 1 27 4 view .LVU2368
  28:fltk-1.3.4-1/png/pngwutil.c ****    buf[3] = (png_byte)(i & 0xff);
 8021              		.loc 1 28 4 view .LVU2369
  29:fltk-1.3.4-1/png/pngwutil.c **** }
 8022              		.loc 1 29 4 view .LVU2370
 8023              	.LBE589:
 8024              	.LBE588:
1907:fltk-1.3.4-1/png/pngwutil.c **** }
 8025              		.loc 1 1907 4 is_stmt 0 view .LVU2371
 8026 003e 488D5424 		leaq	31(%rsp), %rdx
 8026      1F
 8027              	.LVL794:
1907:fltk-1.3.4-1/png/pngwutil.c **** }
 8028              		.loc 1 1907 4 view .LVU2372
 8029 0043 B9090000 		movl	$9, %ecx
 8029      00
 8030 0048 BE735948 		movl	$1883789683, %esi
 8030      70
1905:fltk-1.3.4-1/png/pngwutil.c **** 
 8031              		.loc 1 1905 13 view .LVU2373
 8032 004d 44886424 		movb	%r12b, 39(%rsp)
 8032      27
 8033 0052 0FCD     		bswap	%ebp
 8034              	.LVL795:
1905:fltk-1.3.4-1/png/pngwutil.c **** 
 8035              		.loc 1 1905 13 view .LVU2374
 8036 0054 0FCB     		bswap	%ebx
 8037              	.LVL796:
 8038              	.LBB591:
 8039              	.LBB590:
  26:fltk-1.3.4-1/png/pngwutil.c ****    buf[1] = (png_byte)((i >> 16) & 0xff);
 8040              		.loc 1 26 11 view .LVU2375
 8041 0056 896C241F 		movl	%ebp, 31(%rsp)
 8042              	.LVL797:
  26:fltk-1.3.4-1/png/pngwutil.c ****    buf[1] = (png_byte)((i >> 16) & 0xff);
 8043              		.loc 1 26 11 view .LVU2376
 8044              	.LBE590:
 8045              	.LBE591:
1904:fltk-1.3.4-1/png/pngwutil.c ****    buf[8] = (png_byte)unit_type;
 8046              		.loc 1 1904 4 is_stmt 1 view .LVU2377
 8047              	.LBB592:
 8048              	.LBI592:
  24:fltk-1.3.4-1/png/pngwutil.c **** {
 8049              		.loc 1 24 1 view .LVU2378
 8050              	.LBB593:
  26:fltk-1.3.4-1/png/pngwutil.c ****    buf[1] = (png_byte)((i >> 16) & 0xff);
 8051              		.loc 1 26 4 view .LVU2379
  27:fltk-1.3.4-1/png/pngwutil.c ****    buf[2] = (png_byte)((i >> 8) & 0xff);
 8052              		.loc 1 27 4 view .LVU2380
  28:fltk-1.3.4-1/png/pngwutil.c ****    buf[3] = (png_byte)(i & 0xff);
 8053              		.loc 1 28 4 view .LVU2381
  29:fltk-1.3.4-1/png/pngwutil.c **** }
 8054              		.loc 1 29 4 view .LVU2382
  26:fltk-1.3.4-1/png/pngwutil.c ****    buf[1] = (png_byte)((i >> 16) & 0xff);
 8055              		.loc 1 26 11 is_stmt 0 view .LVU2383
 8056 005a 895C2423 		movl	%ebx, 35(%rsp)
 8057              	.LVL798:
  26:fltk-1.3.4-1/png/pngwutil.c ****    buf[1] = (png_byte)((i >> 16) & 0xff);
 8058              		.loc 1 26 11 view .LVU2384
 8059              	.LBE593:
 8060              	.LBE592:
1905:fltk-1.3.4-1/png/pngwutil.c **** 
 8061              		.loc 1 1905 4 is_stmt 1 view .LVU2385
1907:fltk-1.3.4-1/png/pngwutil.c **** }
 8062              		.loc 1 1907 4 view .LVU2386
 8063 005e E8000000 		call	png_write_complete_chunk
 8063      00
 8064              	.LVL799:
1908:fltk-1.3.4-1/png/pngwutil.c **** #endif
 8065              		.loc 1 1908 1 is_stmt 0 view .LVU2387
 8066 0063 488B4424 		movq	40(%rsp), %rax
 8066      28
 8067 0068 64483304 		xorq	%fs:40, %rax
 8067      25280000 
 8067      00
 8068 0071 7509     		jne	.L661
 8069 0073 4883C430 		addq	$48, %rsp
 8070              		.cfi_remember_state
 8071              		.cfi_def_cfa_offset 32
 8072 0077 5B       		popq	%rbx
 8073              		.cfi_def_cfa_offset 24
 8074 0078 5D       		popq	%rbp
 8075              		.cfi_def_cfa_offset 16
 8076 0079 415C     		popq	%r12
 8077              		.cfi_def_cfa_offset 8
 8078              	.LVL800:
1908:fltk-1.3.4-1/png/pngwutil.c **** #endif
 8079              		.loc 1 1908 1 view .LVU2388
 8080 007b C3       		ret
 8081              	.LVL801:
 8082              	.L661:
 8083              		.cfi_restore_state
1908:fltk-1.3.4-1/png/pngwutil.c **** #endif
 8084              		.loc 1 1908 1 view .LVU2389
 8085 007c E8000000 		call	__stack_chk_fail@PLT
 8085      00
 8086              	.LVL802:
 8087              		.cfi_endproc
 8088              	.LFE77:
 8090              		.section	.rodata.png_write_tIME.str1.8,"aMS",@progbits,1
 8091              		.align 8
 8092              	.LC49:
 8093 0000 496E7661 		.string	"Invalid time specified for tIME chunk"
 8093      6C696420 
 8093      74696D65 
 8093      20737065 
 8093      63696669 
 8094              		.section	.text.png_write_tIME,"ax",@progbits
 8095              		.p2align 4
 8096              		.globl	png_write_tIME
 8098              	png_write_tIME:
 8099              	.LVL803:
 8100              	.LFB78:
1917:fltk-1.3.4-1/png/pngwutil.c ****    png_byte buf[7];
 8101              		.loc 1 1917 1 is_stmt 1 view -0
 8102              		.cfi_startproc
1917:fltk-1.3.4-1/png/pngwutil.c ****    png_byte buf[7];
 8103              		.loc 1 1917 1 is_stmt 0 view .LVU2391
 8104 0000 F30F1EFA 		endbr64
 8105 0004 4883EC18 		subq	$24, %rsp
 8106              		.cfi_def_cfa_offset 32
1917:fltk-1.3.4-1/png/pngwutil.c ****    png_byte buf[7];
 8107              		.loc 1 1917 1 view .LVU2392
 8108 0008 64488B04 		movq	%fs:40, %rax
 8108      25280000 
 8108      00
 8109 0011 48894424 		movq	%rax, 8(%rsp)
 8109      08
 8110 0016 31C0     		xorl	%eax, %eax
1918:fltk-1.3.4-1/png/pngwutil.c **** 
 8111              		.loc 1 1918 4 is_stmt 1 view .LVU2393
1920:fltk-1.3.4-1/png/pngwutil.c **** 
 8112              		.loc 1 1920 4 view .LVU2394
1922:fltk-1.3.4-1/png/pngwutil.c ****        mod_time->day    > 31 || mod_time->day    < 1 ||
 8113              		.loc 1 1922 4 view .LVU2395
1922:fltk-1.3.4-1/png/pngwutil.c ****        mod_time->day    > 31 || mod_time->day    < 1 ||
 8114              		.loc 1 1922 16 is_stmt 0 view .LVU2396
 8115 0018 0FB64602 		movzbl	2(%rsi), %eax
1922:fltk-1.3.4-1/png/pngwutil.c ****        mod_time->day    > 31 || mod_time->day    < 1 ||
 8116              		.loc 1 1922 30 view .LVU2397
 8117 001c 8D50FF   		leal	-1(%rax), %edx
1922:fltk-1.3.4-1/png/pngwutil.c ****        mod_time->day    > 31 || mod_time->day    < 1 ||
 8118              		.loc 1 1922 7 view .LVU2398
 8119 001f 80FA0B   		cmpb	$11, %dl
 8120 0022 770C     		ja	.L663
1923:fltk-1.3.4-1/png/pngwutil.c ****        mod_time->hour   > 23 || mod_time->second > 60)
 8121              		.loc 1 1923 16 discriminator 1 view .LVU2399
 8122 0024 0FB65603 		movzbl	3(%rsi), %edx
1923:fltk-1.3.4-1/png/pngwutil.c ****        mod_time->hour   > 23 || mod_time->second > 60)
 8123              		.loc 1 1923 30 discriminator 1 view .LVU2400
 8124 0028 8D4AFF   		leal	-1(%rdx), %ecx
 8125 002b 80F91E   		cmpb	$30, %cl
 8126 002e 7628     		jbe	.L668
 8127              	.L663:
1926:fltk-1.3.4-1/png/pngwutil.c ****       return;
 8128              		.loc 1 1926 7 is_stmt 1 view .LVU2401
 8129 0030 488D3500 		leaq	.LC49(%rip), %rsi
 8129      000000
 8130              	.LVL804:
1926:fltk-1.3.4-1/png/pngwutil.c ****       return;
 8131              		.loc 1 1926 7 is_stmt 0 view .LVU2402
 8132 0037 E8000000 		call	png_warning@PLT
 8132      00
 8133              	.LVL805:
1927:fltk-1.3.4-1/png/pngwutil.c ****    }
 8134              		.loc 1 1927 7 is_stmt 1 view .LVU2403
 8135              	.L662:
1938:fltk-1.3.4-1/png/pngwutil.c **** #endif
 8136              		.loc 1 1938 1 is_stmt 0 view .LVU2404
 8137 003c 488B4424 		movq	8(%rsp), %rax
 8137      08
 8138 0041 64483304 		xorq	%fs:40, %rax
 8138      25280000 
 8138      00
 8139 004a 755E     		jne	.L669
 8140 004c 4883C418 		addq	$24, %rsp
 8141              		.cfi_remember_state
 8142              		.cfi_def_cfa_offset 8
 8143 0050 C3       		ret
 8144              	.LVL806:
 8145              		.p2align 4,,10
 8146 0051 0F1F8000 		.p2align 3
 8146      000000
 8147              	.L668:
 8148              		.cfi_restore_state
1924:fltk-1.3.4-1/png/pngwutil.c ****    {
 8149              		.loc 1 1924 16 discriminator 1 view .LVU2405
 8150 0058 0FB64E04 		movzbl	4(%rsi), %ecx
1923:fltk-1.3.4-1/png/pngwutil.c ****        mod_time->hour   > 23 || mod_time->second > 60)
 8151              		.loc 1 1923 54 discriminator 1 view .LVU2406
 8152 005c 80F917   		cmpb	$23, %cl
 8153 005f 77CF     		ja	.L663
1924:fltk-1.3.4-1/png/pngwutil.c ****    {
 8154              		.loc 1 1924 41 view .LVU2407
 8155 0061 440FB646 		movzbl	6(%rsi), %r8d
 8155      06
1924:fltk-1.3.4-1/png/pngwutil.c ****    {
 8156              		.loc 1 1924 30 view .LVU2408
 8157 0066 4180F83C 		cmpb	$60, %r8b
 8158 006a 77C4     		ja	.L663
1930:fltk-1.3.4-1/png/pngwutil.c ****    buf[2] = mod_time->month;
 8159              		.loc 1 1930 4 is_stmt 1 view .LVU2409
 8160              	.LVL807:
 8161              	.LBB594:
 8162              	.LBI594:
  37:fltk-1.3.4-1/png/pngwutil.c **** {
 8163              		.loc 1 37 1 view .LVU2410
 8164              	.LBB595:
  39:fltk-1.3.4-1/png/pngwutil.c ****    buf[1] = (png_byte)(i & 0xff);
 8165              		.loc 1 39 4 view .LVU2411
  40:fltk-1.3.4-1/png/pngwutil.c **** }
 8166              		.loc 1 40 4 view .LVU2412
  39:fltk-1.3.4-1/png/pngwutil.c ****    buf[1] = (png_byte)(i & 0xff);
 8167              		.loc 1 39 11 is_stmt 0 view .LVU2413
 8168 006c 440FB70E 		movzwl	(%rsi), %r9d
 8169              	.LBE595:
 8170              	.LBE594:
1931:fltk-1.3.4-1/png/pngwutil.c ****    buf[3] = mod_time->day;
 8171              		.loc 1 1931 11 view .LVU2414
 8172 0070 88442403 		movb	%al, 3(%rsp)
1934:fltk-1.3.4-1/png/pngwutil.c ****    buf[6] = mod_time->second;
 8173              		.loc 1 1934 11 view .LVU2415
 8174 0074 0FB64605 		movzbl	5(%rsi), %eax
1932:fltk-1.3.4-1/png/pngwutil.c ****    buf[4] = mod_time->hour;
 8175              		.loc 1 1932 11 view .LVU2416
 8176 0078 88542404 		movb	%dl, 4(%rsp)
1937:fltk-1.3.4-1/png/pngwutil.c **** }
 8177              		.loc 1 1937 4 view .LVU2417
 8178 007c BE454D49 		movl	$1950960965, %esi
 8178      74
 8179              	.LVL808:
1937:fltk-1.3.4-1/png/pngwutil.c **** }
 8180              		.loc 1 1937 4 view .LVU2418
 8181 0081 488D5424 		leaq	1(%rsp), %rdx
 8181      01
 8182              	.LVL809:
1933:fltk-1.3.4-1/png/pngwutil.c ****    buf[5] = mod_time->minute;
 8183              		.loc 1 1933 11 view .LVU2419
 8184 0086 884C2405 		movb	%cl, 5(%rsp)
 8185              	.LBB598:
 8186              	.LBB596:
  39:fltk-1.3.4-1/png/pngwutil.c ****    buf[1] = (png_byte)(i & 0xff);
 8187              		.loc 1 39 11 view .LVU2420
 8188 008a 6641C1C1 		rolw	$8, %r9w
 8188      08
 8189              	.LVL810:
  39:fltk-1.3.4-1/png/pngwutil.c ****    buf[1] = (png_byte)(i & 0xff);
 8190              		.loc 1 39 11 view .LVU2421
 8191              	.LBE596:
 8192              	.LBE598:
1937:fltk-1.3.4-1/png/pngwutil.c **** }
 8193              		.loc 1 1937 4 view .LVU2422
 8194 008f B9070000 		movl	$7, %ecx
 8194      00
 8195              	.LBB599:
 8196              	.LBB597:
  39:fltk-1.3.4-1/png/pngwutil.c ****    buf[1] = (png_byte)(i & 0xff);
 8197              		.loc 1 39 11 view .LVU2423
 8198 0094 6644894C 		movw	%r9w, 1(%rsp)
 8198      2401
 8199              	.LVL811:
  39:fltk-1.3.4-1/png/pngwutil.c ****    buf[1] = (png_byte)(i & 0xff);
 8200              		.loc 1 39 11 view .LVU2424
 8201              	.LBE597:
 8202              	.LBE599:
1931:fltk-1.3.4-1/png/pngwutil.c ****    buf[3] = mod_time->day;
 8203              		.loc 1 1931 4 is_stmt 1 view .LVU2425
1932:fltk-1.3.4-1/png/pngwutil.c ****    buf[4] = mod_time->hour;
 8204              		.loc 1 1932 4 view .LVU2426
1933:fltk-1.3.4-1/png/pngwutil.c ****    buf[5] = mod_time->minute;
 8205              		.loc 1 1933 4 view .LVU2427
1934:fltk-1.3.4-1/png/pngwutil.c ****    buf[6] = mod_time->second;
 8206              		.loc 1 1934 4 view .LVU2428
1934:fltk-1.3.4-1/png/pngwutil.c ****    buf[6] = mod_time->second;
 8207              		.loc 1 1934 11 is_stmt 0 view .LVU2429
 8208 009a 88442406 		movb	%al, 6(%rsp)
1935:fltk-1.3.4-1/png/pngwutil.c **** 
 8209              		.loc 1 1935 4 is_stmt 1 view .LVU2430
1935:fltk-1.3.4-1/png/pngwutil.c **** 
 8210              		.loc 1 1935 11 is_stmt 0 view .LVU2431
 8211 009e 44884424 		movb	%r8b, 7(%rsp)
 8211      07
1937:fltk-1.3.4-1/png/pngwutil.c **** }
 8212              		.loc 1 1937 4 is_stmt 1 view .LVU2432
 8213 00a3 E8000000 		call	png_write_complete_chunk
 8213      00
 8214              	.LVL812:
1937:fltk-1.3.4-1/png/pngwutil.c **** }
 8215              		.loc 1 1937 4 is_stmt 0 view .LVU2433
 8216 00a8 EB92     		jmp	.L662
 8217              	.L669:
1938:fltk-1.3.4-1/png/pngwutil.c **** #endif
 8218              		.loc 1 1938 1 view .LVU2434
 8219 00aa E8000000 		call	__stack_chk_fail@PLT
 8219      00
 8220              	.LVL813:
 8221              		.cfi_endproc
 8222              	.LFE78:
 8224              		.section	.text.png_write_start_row,"ax",@progbits
 8225              		.p2align 4
 8226              		.globl	png_write_start_row
 8228              	png_write_start_row:
 8229              	.LVL814:
 8230              	.LFB79:
1944:fltk-1.3.4-1/png/pngwutil.c **** #ifdef PNG_WRITE_INTERLACING_SUPPORTED
 8231              		.loc 1 1944 1 is_stmt 1 view -0
 8232              		.cfi_startproc
1944:fltk-1.3.4-1/png/pngwutil.c **** #ifdef PNG_WRITE_INTERLACING_SUPPORTED
 8233              		.loc 1 1944 1 is_stmt 0 view .LVU2436
 8234 0000 F30F1EFA 		endbr64
1949:fltk-1.3.4-1/png/pngwutil.c **** 
 8235              		.loc 1 1949 4 is_stmt 1 view .LVU2437
1952:fltk-1.3.4-1/png/pngwutil.c **** 
 8236              		.loc 1 1952 4 view .LVU2438
1955:fltk-1.3.4-1/png/pngwutil.c **** 
 8237              		.loc 1 1955 4 view .LVU2439
1958:fltk-1.3.4-1/png/pngwutil.c **** #endif
 8238              		.loc 1 1958 4 view .LVU2440
1961:fltk-1.3.4-1/png/pngwutil.c ****    int usr_pixel_depth;
 8239              		.loc 1 1961 4 view .LVU2441
1962:fltk-1.3.4-1/png/pngwutil.c **** 
 8240              		.loc 1 1962 4 view .LVU2442
1964:fltk-1.3.4-1/png/pngwutil.c **** 
 8241              		.loc 1 1964 4 view .LVU2443
1966:fltk-1.3.4-1/png/pngwutil.c ****    buf_size = PNG_ROWBYTES(usr_pixel_depth, png_ptr->width) + 1;
 8242              		.loc 1 1966 4 view .LVU2444
1944:fltk-1.3.4-1/png/pngwutil.c **** #ifdef PNG_WRITE_INTERLACING_SUPPORTED
 8243              		.loc 1 1944 1 is_stmt 0 view .LVU2445
 8244 0004 55       		pushq	%rbp
 8245              		.cfi_def_cfa_offset 16
 8246              		.cfi_offset 6, -16
 8247 0005 53       		pushq	%rbx
 8248              		.cfi_def_cfa_offset 24
 8249              		.cfi_offset 3, -24
 8250 0006 4889FB   		movq	%rdi, %rbx
 8251 0009 4883EC08 		subq	$8, %rsp
 8252              		.cfi_def_cfa_offset 32
1966:fltk-1.3.4-1/png/pngwutil.c ****    buf_size = PNG_ROWBYTES(usr_pixel_depth, png_ptr->width) + 1;
 8253              		.loc 1 1966 53 view .LVU2446
 8254 000d 0FB69779 		movzbl	633(%rdi), %edx
 8254      020000
1966:fltk-1.3.4-1/png/pngwutil.c ****    buf_size = PNG_ROWBYTES(usr_pixel_depth, png_ptr->width) + 1;
 8255              		.loc 1 1966 29 view .LVU2447
 8256 0014 0FB6877C 		movzbl	636(%rdi), %eax
 8256      020000
1966:fltk-1.3.4-1/png/pngwutil.c ****    buf_size = PNG_ROWBYTES(usr_pixel_depth, png_ptr->width) + 1;
 8257              		.loc 1 1966 20 view .LVU2448
 8258 001b 0FAFC2   		imull	%edx, %eax
 8259              	.LVL815:
1967:fltk-1.3.4-1/png/pngwutil.c **** 
 8260              		.loc 1 1967 4 is_stmt 1 view .LVU2449
 8261 001e 8B97F801 		movl	504(%rdi), %edx
 8261      0000
 8262 0024 4863E8   		movslq	%eax, %rbp
1967:fltk-1.3.4-1/png/pngwutil.c **** 
 8263              		.loc 1 1967 61 is_stmt 0 view .LVU2450
 8264 0027 83F807   		cmpl	$7, %eax
 8265 002a 7E7C     		jle	.L671
1967:fltk-1.3.4-1/png/pngwutil.c **** 
 8266              		.loc 1 1967 15 discriminator 1 view .LVU2451
 8267 002c 48C1ED03 		shrq	$3, %rbp
 8268 0030 480FAFEA 		imulq	%rdx, %rbp
1967:fltk-1.3.4-1/png/pngwutil.c **** 
 8269              		.loc 1 1967 61 discriminator 1 view .LVU2452
 8270 0034 4883C501 		addq	$1, %rbp
 8271              	.L672:
 8272              	.LVL816:
1970:fltk-1.3.4-1/png/pngwutil.c ****    png_ptr->maximum_pixel_depth = (png_byte)usr_pixel_depth;
 8273              		.loc 1 1970 4 is_stmt 1 discriminator 4 view .LVU2453
1970:fltk-1.3.4-1/png/pngwutil.c ****    png_ptr->maximum_pixel_depth = (png_byte)usr_pixel_depth;
 8274              		.loc 1 1970 37 is_stmt 0 discriminator 4 view .LVU2454
 8275 0038 0FB6937A 		movzbl	634(%rbx), %edx
 8275      020000
1971:fltk-1.3.4-1/png/pngwutil.c **** 
 8276              		.loc 1 1971 35 discriminator 4 view .LVU2455
 8277 003f 88837E02 		movb	%al, 638(%rbx)
 8277      0000
1974:fltk-1.3.4-1/png/pngwutil.c **** 
 8278              		.loc 1 1974 34 discriminator 4 view .LVU2456
 8279 0045 4889EE   		movq	%rbp, %rsi
 8280 0048 4889DF   		movq	%rbx, %rdi
 8281              	.LVL817:
1970:fltk-1.3.4-1/png/pngwutil.c ****    png_ptr->maximum_pixel_depth = (png_byte)usr_pixel_depth;
 8282              		.loc 1 1970 37 discriminator 4 view .LVU2457
 8283 004b 88937F02 		movb	%dl, 639(%rbx)
 8283      0000
1971:fltk-1.3.4-1/png/pngwutil.c **** 
 8284              		.loc 1 1971 4 is_stmt 1 discriminator 4 view .LVU2458
1974:fltk-1.3.4-1/png/pngwutil.c **** 
 8285              		.loc 1 1974 4 discriminator 4 view .LVU2459
1974:fltk-1.3.4-1/png/pngwutil.c **** 
 8286              		.loc 1 1974 34 is_stmt 0 discriminator 4 view .LVU2460
 8287 0051 E8000000 		call	png_malloc@PLT
 8287      00
 8288              	.LVL818:
1974:fltk-1.3.4-1/png/pngwutil.c **** 
 8289              		.loc 1 1974 21 discriminator 4 view .LVU2461
 8290 0056 48898328 		movq	%rax, 552(%rbx)
 8290      020000
1976:fltk-1.3.4-1/png/pngwutil.c **** 
 8291              		.loc 1 1976 4 is_stmt 1 discriminator 4 view .LVU2462
1976:fltk-1.3.4-1/png/pngwutil.c **** 
 8292              		.loc 1 1976 24 is_stmt 0 discriminator 4 view .LVU2463
 8293 005d C60000   		movb	$0, (%rax)
1980:fltk-1.3.4-1/png/pngwutil.c ****    {
 8294              		.loc 1 1980 4 is_stmt 1 discriminator 4 view .LVU2464
1980:fltk-1.3.4-1/png/pngwutil.c ****    {
 8295              		.loc 1 1980 15 is_stmt 0 discriminator 4 view .LVU2465
 8296 0060 0FB68376 		movzbl	630(%rbx), %eax
 8296      020000
1980:fltk-1.3.4-1/png/pngwutil.c ****    {
 8297              		.loc 1 1980 7 discriminator 4 view .LVU2466
 8298 0067 A810     		testb	$16, %al
 8299 0069 0F85C100 		jne	.L692
 8299      0000
 8300              	.L673:
1988:fltk-1.3.4-1/png/pngwutil.c ****       (PNG_FILTER_AVG | PNG_FILTER_UP | PNG_FILTER_PAETH)) != 0)
 8301              		.loc 1 1988 4 is_stmt 1 view .LVU2467
1988:fltk-1.3.4-1/png/pngwutil.c ****       (PNG_FILTER_AVG | PNG_FILTER_UP | PNG_FILTER_PAETH)) != 0)
 8302              		.loc 1 1988 7 is_stmt 0 view .LVU2468
 8303 006f A8E0     		testb	$-32, %al
 8304 0071 756D     		jne	.L693
 8305              	.L675:
2022:fltk-1.3.4-1/png/pngwutil.c ****    {
 8306              		.loc 1 2022 4 is_stmt 1 view .LVU2469
2022:fltk-1.3.4-1/png/pngwutil.c ****    {
 8307              		.loc 1 2022 7 is_stmt 0 view .LVU2470
 8308 0073 80BB7402 		cmpb	$0, 628(%rbx)
 8308      000000
 8309 007a 8B93FC01 		movl	508(%rbx), %edx
 8309      0000
 8310 0080 8B83F801 		movl	504(%rbx), %eax
 8310      0000
 8311 0086 7409     		je	.L679
2024:fltk-1.3.4-1/png/pngwutil.c ****       {
 8312              		.loc 1 2024 7 is_stmt 1 view .LVU2471
2024:fltk-1.3.4-1/png/pngwutil.c ****       {
 8313              		.loc 1 2024 10 is_stmt 0 view .LVU2472
 8314 0088 F6833401 		testb	$2, 308(%rbx)
 8314      000002
 8315 008f 742F     		je	.L694
 8316              	.L679:
2043:fltk-1.3.4-1/png/pngwutil.c ****       png_ptr->usr_width = png_ptr->width;
 8317              		.loc 1 2043 7 is_stmt 1 view .LVU2473
2043:fltk-1.3.4-1/png/pngwutil.c ****       png_ptr->usr_width = png_ptr->width;
 8318              		.loc 1 2043 25 is_stmt 0 view .LVU2474
 8319 0091 89930002 		movl	%edx, 512(%rbx)
 8319      0000
2044:fltk-1.3.4-1/png/pngwutil.c ****    }
 8320              		.loc 1 2044 7 is_stmt 1 view .LVU2475
2044:fltk-1.3.4-1/png/pngwutil.c ****    }
 8321              		.loc 1 2044 26 is_stmt 0 view .LVU2476
 8322 0097 89830402 		movl	%eax, 516(%rbx)
 8322      0000
2046:fltk-1.3.4-1/png/pngwutil.c **** 
 8323              		.loc 1 2046 1 view .LVU2477
 8324 009d 4883C408 		addq	$8, %rsp
 8325              		.cfi_remember_state
 8326              		.cfi_def_cfa_offset 24
 8327 00a1 5B       		popq	%rbx
 8328              		.cfi_def_cfa_offset 16
 8329              	.LVL819:
2046:fltk-1.3.4-1/png/pngwutil.c **** 
 8330              		.loc 1 2046 1 view .LVU2478
 8331 00a2 5D       		popq	%rbp
 8332              		.cfi_def_cfa_offset 8
 8333              	.LVL820:
2046:fltk-1.3.4-1/png/pngwutil.c **** 
 8334              		.loc 1 2046 1 view .LVU2479
 8335 00a3 C3       		ret
 8336              	.LVL821:
 8337              		.p2align 4,,10
 8338 00a4 0F1F4000 		.p2align 3
 8339              	.L671:
 8340              		.cfi_restore_state
1967:fltk-1.3.4-1/png/pngwutil.c **** 
 8341              		.loc 1 1967 15 discriminator 2 view .LVU2480
 8342 00a8 480FAFEA 		imulq	%rdx, %rbp
 8343 00ac 4883C507 		addq	$7, %rbp
 8344 00b0 48C1ED03 		shrq	$3, %rbp
1967:fltk-1.3.4-1/png/pngwutil.c **** 
 8345              		.loc 1 1967 61 discriminator 2 view .LVU2481
 8346 00b4 4883C501 		addq	$1, %rbp
 8347 00b8 E97BFFFF 		jmp	.L672
 8347      FF
 8348              	.LVL822:
 8349 00bd 0F1F00   		.p2align 4,,10
 8350              		.p2align 3
 8351              	.L694:
2026:fltk-1.3.4-1/png/pngwutil.c ****              png_pass_ystart[0]) / png_pass_yinc[0];
 8352              		.loc 1 2026 10 is_stmt 1 view .LVU2482
2026:fltk-1.3.4-1/png/pngwutil.c ****              png_pass_ystart[0]) / png_pass_yinc[0];
 8353              		.loc 1 2026 70 is_stmt 0 view .LVU2483
 8354 00c0 83C207   		addl	$7, %edx
2029:fltk-1.3.4-1/png/pngwutil.c ****              png_pass_start[0]) / png_pass_inc[0];
 8355              		.loc 1 2029 69 view .LVU2484
 8356 00c3 83C007   		addl	$7, %eax
2027:fltk-1.3.4-1/png/pngwutil.c **** 
 8357              		.loc 1 2027 34 view .LVU2485
 8358 00c6 C1EA03   		shrl	$3, %edx
2030:fltk-1.3.4-1/png/pngwutil.c ****       }
 8359              		.loc 1 2030 33 view .LVU2486
 8360 00c9 C1E803   		shrl	$3, %eax
2027:fltk-1.3.4-1/png/pngwutil.c **** 
 8361              		.loc 1 2027 34 view .LVU2487
 8362 00cc 89930002 		movl	%edx, 512(%rbx)
 8362      0000
2029:fltk-1.3.4-1/png/pngwutil.c ****              png_pass_start[0]) / png_pass_inc[0];
 8363              		.loc 1 2029 10 is_stmt 1 view .LVU2488
2030:fltk-1.3.4-1/png/pngwutil.c ****       }
 8364              		.loc 1 2030 33 is_stmt 0 view .LVU2489
 8365 00d2 89830402 		movl	%eax, 516(%rbx)
 8365      0000
2046:fltk-1.3.4-1/png/pngwutil.c **** 
 8366              		.loc 1 2046 1 view .LVU2490
 8367 00d8 4883C408 		addq	$8, %rsp
 8368              		.cfi_remember_state
 8369              		.cfi_def_cfa_offset 24
 8370 00dc 5B       		popq	%rbx
 8371              		.cfi_def_cfa_offset 16
 8372              	.LVL823:
2046:fltk-1.3.4-1/png/pngwutil.c **** 
 8373              		.loc 1 2046 1 view .LVU2491
 8374 00dd 5D       		popq	%rbp
 8375              		.cfi_def_cfa_offset 8
 8376              	.LVL824:
2046:fltk-1.3.4-1/png/pngwutil.c **** 
 8377              		.loc 1 2046 1 view .LVU2492
 8378 00de C3       		ret
 8379              	.LVL825:
 8380 00df 90       		.p2align 4,,10
 8381              		.p2align 3
 8382              	.L693:
 8383              		.cfi_restore_state
1992:fltk-1.3.4-1/png/pngwutil.c **** 
 8384              		.loc 1 1992 7 is_stmt 1 view .LVU2493
1992:fltk-1.3.4-1/png/pngwutil.c **** 
 8385              		.loc 1 1992 38 is_stmt 0 view .LVU2494
 8386 00e0 4889EE   		movq	%rbp, %rsi
 8387 00e3 4889DF   		movq	%rbx, %rdi
 8388 00e6 E8000000 		call	png_calloc@PLT
 8388      00
 8389              	.LVL826:
1992:fltk-1.3.4-1/png/pngwutil.c **** 
 8390              		.loc 1 1992 25 view .LVU2495
 8391 00eb 48898320 		movq	%rax, 544(%rbx)
 8391      020000
1994:fltk-1.3.4-1/png/pngwutil.c ****       {
 8392              		.loc 1 1994 7 is_stmt 1 view .LVU2496
1994:fltk-1.3.4-1/png/pngwutil.c ****       {
 8393              		.loc 1 1994 19 is_stmt 0 view .LVU2497
 8394 00f2 0FB68376 		movzbl	630(%rbx), %eax
 8394      020000
1994:fltk-1.3.4-1/png/pngwutil.c ****       {
 8395              		.loc 1 1994 10 view .LVU2498
 8396 00f9 A820     		testb	$32, %al
 8397 00fb 0F858F00 		jne	.L695
 8397      0000
 8398              	.L676:
2002:fltk-1.3.4-1/png/pngwutil.c ****       {
 8399              		.loc 1 2002 7 is_stmt 1 view .LVU2499
2002:fltk-1.3.4-1/png/pngwutil.c ****       {
 8400              		.loc 1 2002 10 is_stmt 0 view .LVU2500
 8401 0101 A840     		testb	$64, %al
 8402 0103 755B     		jne	.L696
 8403              	.L677:
2010:fltk-1.3.4-1/png/pngwutil.c ****       {
 8404              		.loc 1 2010 7 is_stmt 1 view .LVU2501
2010:fltk-1.3.4-1/png/pngwutil.c ****       {
 8405              		.loc 1 2010 10 is_stmt 0 view .LVU2502
 8406 0105 84C0     		testb	%al, %al
 8407 0107 0F8966FF 		jns	.L675
 8407      FFFF
2012:fltk-1.3.4-1/png/pngwutil.c ****              png_ptr->rowbytes + 1);
 8408              		.loc 1 2012 10 is_stmt 1 view .LVU2503
2012:fltk-1.3.4-1/png/pngwutil.c ****              png_ptr->rowbytes + 1);
 8409              		.loc 1 2012 42 is_stmt 0 view .LVU2504
 8410 010d 488B8308 		movq	520(%rbx), %rax
 8410      020000
 8411 0114 4889DF   		movq	%rbx, %rdi
 8412 0117 488D7001 		leaq	1(%rax), %rsi
 8413 011b E8000000 		call	png_malloc@PLT
 8413      00
 8414              	.LVL827:
2012:fltk-1.3.4-1/png/pngwutil.c ****              png_ptr->rowbytes + 1);
 8415              		.loc 1 2012 29 view .LVU2505
 8416 0120 48898348 		movq	%rax, 584(%rbx)
 8416      020000
2015:fltk-1.3.4-1/png/pngwutil.c ****       }
 8417              		.loc 1 2015 10 is_stmt 1 view .LVU2506
2015:fltk-1.3.4-1/png/pngwutil.c ****       }
 8418              		.loc 1 2015 32 is_stmt 0 view .LVU2507
 8419 0127 C60004   		movb	$4, (%rax)
 8420 012a E944FFFF 		jmp	.L675
 8420      FF
 8421 012f 90       		.p2align 4,,10
 8422              		.p2align 3
 8423              	.L692:
1982:fltk-1.3.4-1/png/pngwutil.c **** 
 8424              		.loc 1 1982 7 is_stmt 1 view .LVU2508
1982:fltk-1.3.4-1/png/pngwutil.c **** 
 8425              		.loc 1 1982 37 is_stmt 0 view .LVU2509
 8426 0130 488B8308 		movq	520(%rbx), %rax
 8426      020000
 8427 0137 4889DF   		movq	%rbx, %rdi
 8428 013a 488D7001 		leaq	1(%rax), %rsi
 8429 013e E8000000 		call	png_malloc@PLT
 8429      00
 8430              	.LVL828:
1982:fltk-1.3.4-1/png/pngwutil.c **** 
 8431              		.loc 1 1982 24 view .LVU2510
 8432 0143 48898330 		movq	%rax, 560(%rbx)
 8432      020000
1984:fltk-1.3.4-1/png/pngwutil.c ****    }
 8433              		.loc 1 1984 7 is_stmt 1 view .LVU2511
1984:fltk-1.3.4-1/png/pngwutil.c ****    }
 8434              		.loc 1 1984 27 is_stmt 0 view .LVU2512
 8435 014a C60001   		movb	$1, (%rax)
 8436 014d 0FB68376 		movzbl	630(%rbx), %eax
 8436      020000
 8437 0154 E916FFFF 		jmp	.L673
 8437      FF
 8438 0159 0F1F8000 		.p2align 4,,10
 8438      000000
 8439              		.p2align 3
 8440              	.L696:
2004:fltk-1.3.4-1/png/pngwutil.c ****              png_ptr->rowbytes + 1);
 8441              		.loc 1 2004 10 is_stmt 1 view .LVU2513
2004:fltk-1.3.4-1/png/pngwutil.c ****              png_ptr->rowbytes + 1);
 8442              		.loc 1 2004 40 is_stmt 0 view .LVU2514
 8443 0160 488B8308 		movq	520(%rbx), %rax
 8443      020000
 8444 0167 4889DF   		movq	%rbx, %rdi
 8445 016a 488D7001 		leaq	1(%rax), %rsi
 8446 016e E8000000 		call	png_malloc@PLT
 8446      00
 8447              	.LVL829:
2004:fltk-1.3.4-1/png/pngwutil.c ****              png_ptr->rowbytes + 1);
 8448              		.loc 1 2004 27 view .LVU2515
 8449 0173 48898340 		movq	%rax, 576(%rbx)
 8449      020000
2007:fltk-1.3.4-1/png/pngwutil.c ****       }
 8450              		.loc 1 2007 10 is_stmt 1 view .LVU2516
2007:fltk-1.3.4-1/png/pngwutil.c ****       }
 8451              		.loc 1 2007 30 is_stmt 0 view .LVU2517
 8452 017a C60003   		movb	$3, (%rax)
 8453 017d 0FB68376 		movzbl	630(%rbx), %eax
 8453      020000
 8454 0184 E97CFFFF 		jmp	.L677
 8454      FF
 8455 0189 0F1F8000 		.p2align 4,,10
 8455      000000
 8456              		.p2align 3
 8457              	.L695:
1996:fltk-1.3.4-1/png/pngwutil.c ****             png_ptr->rowbytes + 1);
 8458              		.loc 1 1996 10 is_stmt 1 view .LVU2518
1996:fltk-1.3.4-1/png/pngwutil.c ****             png_ptr->rowbytes + 1);
 8459              		.loc 1 1996 39 is_stmt 0 view .LVU2519
 8460 0190 488B8308 		movq	520(%rbx), %rax
 8460      020000
 8461 0197 4889DF   		movq	%rbx, %rdi
 8462 019a 488D7001 		leaq	1(%rax), %rsi
 8463 019e E8000000 		call	png_malloc@PLT
 8463      00
 8464              	.LVL830:
1996:fltk-1.3.4-1/png/pngwutil.c ****             png_ptr->rowbytes + 1);
 8465              		.loc 1 1996 26 view .LVU2520
 8466 01a3 48898338 		movq	%rax, 568(%rbx)
 8466      020000
1999:fltk-1.3.4-1/png/pngwutil.c ****       }
 8467              		.loc 1 1999 10 is_stmt 1 view .LVU2521
1999:fltk-1.3.4-1/png/pngwutil.c ****       }
 8468              		.loc 1 1999 29 is_stmt 0 view .LVU2522
 8469 01aa C60002   		movb	$2, (%rax)
 8470 01ad 0FB68376 		movzbl	630(%rbx), %eax
 8470      020000
 8471 01b4 E948FFFF 		jmp	.L676
 8471      FF
 8472              		.cfi_endproc
 8473              	.LFE79:
 8475              		.section	.text.png_write_finish_row,"ax",@progbits
 8476              		.p2align 4
 8477              		.globl	png_write_finish_row
 8479              	png_write_finish_row:
 8480              	.LVL831:
 8481              	.LFB80:
2051:fltk-1.3.4-1/png/pngwutil.c **** #ifdef PNG_WRITE_INTERLACING_SUPPORTED
 8482              		.loc 1 2051 1 is_stmt 1 view -0
 8483              		.cfi_startproc
2051:fltk-1.3.4-1/png/pngwutil.c **** #ifdef PNG_WRITE_INTERLACING_SUPPORTED
 8484              		.loc 1 2051 1 is_stmt 0 view .LVU2524
 8485 0000 F30F1EFA 		endbr64
2056:fltk-1.3.4-1/png/pngwutil.c **** 
 8486              		.loc 1 2056 4 is_stmt 1 view .LVU2525
2059:fltk-1.3.4-1/png/pngwutil.c **** 
 8487              		.loc 1 2059 4 view .LVU2526
2062:fltk-1.3.4-1/png/pngwutil.c **** 
 8488              		.loc 1 2062 4 view .LVU2527
2065:fltk-1.3.4-1/png/pngwutil.c **** #endif
 8489              		.loc 1 2065 4 view .LVU2528
2068:fltk-1.3.4-1/png/pngwutil.c **** 
 8490              		.loc 1 2068 4 view .LVU2529
2071:fltk-1.3.4-1/png/pngwutil.c **** 
 8491              		.loc 1 2071 4 view .LVU2530
2071:fltk-1.3.4-1/png/pngwutil.c **** 
 8492              		.loc 1 2071 23 is_stmt 0 view .LVU2531
 8493 0004 8B871402 		movl	532(%rdi), %eax
 8493      0000
 8494 000a 83C001   		addl	$1, %eax
 8495 000d 89871402 		movl	%eax, 532(%rdi)
 8495      0000
2074:fltk-1.3.4-1/png/pngwutil.c ****       return;
 8496              		.loc 1 2074 4 is_stmt 1 view .LVU2532
2074:fltk-1.3.4-1/png/pngwutil.c ****       return;
 8497              		.loc 1 2074 7 is_stmt 0 view .LVU2533
 8498 0013 3B870002 		cmpl	512(%rdi), %eax
 8498      0000
 8499 0019 7205     		jb	.L697
 8500 001b E9000000 		jmp	png_write_finish_row.part.0
 8500      00
 8501              	.LVL832:
 8502              		.p2align 4,,10
 8503              		.p2align 3
 8504              	.L697:
 8505              		.loc 1 2130 1 view .LVU2534
 8506 0020 C3       		ret
 8507              		.cfi_endproc
 8508              	.LFE80:
 8510              		.section	.text.png_do_write_interlace,"ax",@progbits
 8511              		.p2align 4
 8512              		.globl	png_do_write_interlace
 8514              	png_do_write_interlace:
 8515              	.LVL833:
 8516              	.LFB81:
2131:fltk-1.3.4-1/png/pngwutil.c **** 
2132:fltk-1.3.4-1/png/pngwutil.c **** #ifdef PNG_WRITE_INTERLACING_SUPPORTED
2133:fltk-1.3.4-1/png/pngwutil.c **** /* Pick out the correct pixels for the interlace pass.
2134:fltk-1.3.4-1/png/pngwutil.c ****  * The basic idea here is to go through the row with a source
2135:fltk-1.3.4-1/png/pngwutil.c ****  * pointer and a destination pointer (sp and dp), and copy the
2136:fltk-1.3.4-1/png/pngwutil.c ****  * correct pixels for the pass.  As the row gets compacted,
2137:fltk-1.3.4-1/png/pngwutil.c ****  * sp will always be >= dp, so we should never overwrite anything.
2138:fltk-1.3.4-1/png/pngwutil.c ****  * See the default: case for the easiest code to understand.
2139:fltk-1.3.4-1/png/pngwutil.c ****  */
2140:fltk-1.3.4-1/png/pngwutil.c **** void /* PRIVATE */
2141:fltk-1.3.4-1/png/pngwutil.c **** png_do_write_interlace(png_row_infop row_info, png_bytep row, int pass)
2142:fltk-1.3.4-1/png/pngwutil.c **** {
 8517              		.loc 1 2142 1 is_stmt 1 view -0
 8518              		.cfi_startproc
 8519              		.loc 1 2142 1 is_stmt 0 view .LVU2536
 8520 0000 F30F1EFA 		endbr64
2143:fltk-1.3.4-1/png/pngwutil.c ****    /* Arrays to facilitate easy interlacing - use pass (0 - 6) as index */
2144:fltk-1.3.4-1/png/pngwutil.c **** 
2145:fltk-1.3.4-1/png/pngwutil.c ****    /* Start of interlace block */
2146:fltk-1.3.4-1/png/pngwutil.c ****    static PNG_CONST png_byte png_pass_start[7] = {0, 4, 0, 2, 0, 1, 0};
 8521              		.loc 1 2146 4 is_stmt 1 view .LVU2537
2147:fltk-1.3.4-1/png/pngwutil.c **** 
2148:fltk-1.3.4-1/png/pngwutil.c ****    /* Offset to next interlace block */
2149:fltk-1.3.4-1/png/pngwutil.c ****    static PNG_CONST png_byte  png_pass_inc[7] = {8, 8, 4, 4, 2, 2, 1};
 8522              		.loc 1 2149 4 view .LVU2538
2150:fltk-1.3.4-1/png/pngwutil.c **** 
2151:fltk-1.3.4-1/png/pngwutil.c ****    png_debug(1, "in png_do_write_interlace");
 8523              		.loc 1 2151 4 view .LVU2539
2152:fltk-1.3.4-1/png/pngwutil.c **** 
2153:fltk-1.3.4-1/png/pngwutil.c ****    /* We don't have to do anything on the last pass (6) */
2154:fltk-1.3.4-1/png/pngwutil.c ****    if (pass < 6)
 8524              		.loc 1 2154 4 view .LVU2540
 8525              		.loc 1 2154 7 is_stmt 0 view .LVU2541
 8526 0004 83FA05   		cmpl	$5, %edx
 8527 0007 0F8F6301 		jg	.L738
 8527      0000
2155:fltk-1.3.4-1/png/pngwutil.c ****    {
2156:fltk-1.3.4-1/png/pngwutil.c ****       /* Each pixel depth is handled separately */
2157:fltk-1.3.4-1/png/pngwutil.c ****       switch (row_info->pixel_depth)
 8528              		.loc 1 2157 7 is_stmt 1 view .LVU2542
 8529 000d 4863D2   		movslq	%edx, %rdx
 8530              		.loc 1 2157 7 is_stmt 0 view .LVU2543
 8531 0010 4C8D0500 		leaq	png_pass_start.7181(%rip), %r8
 8531      000000
 8532              		.loc 1 2157 23 view .LVU2544
 8533 0017 0FB64F13 		movzbl	19(%rdi), %ecx
2142:fltk-1.3.4-1/png/pngwutil.c ****    /* Arrays to facilitate easy interlacing - use pass (0 - 6) as index */
 8534              		.loc 1 2142 1 view .LVU2545
 8535 001b 4157     		pushq	%r15
 8536              		.cfi_def_cfa_offset 16
 8537              		.cfi_offset 15, -16
 8538 001d 4156     		pushq	%r14
 8539              		.cfi_def_cfa_offset 24
 8540              		.cfi_offset 14, -24
 8541 001f 8B07     		movl	(%rdi), %eax
 8542 0021 4155     		pushq	%r13
 8543              		.cfi_def_cfa_offset 32
 8544              		.cfi_offset 13, -32
 8545 0023 4154     		pushq	%r12
 8546              		.cfi_def_cfa_offset 40
 8547              		.cfi_offset 12, -40
 8548 0025 450FB624 		movzbl	(%r8,%rdx), %r12d
 8548      10
 8549 002a 4C8D0500 		leaq	png_pass_inc.7182(%rip), %r8
 8549      000000
 8550 0031 55       		pushq	%rbp
 8551              		.cfi_def_cfa_offset 48
 8552              		.cfi_offset 6, -48
 8553 0032 450FB604 		movzbl	(%r8,%rdx), %r8d
 8553      10
 8554 0037 53       		pushq	%rbx
 8555              		.cfi_def_cfa_offset 56
 8556              		.cfi_offset 3, -56
 8557              		.loc 1 2157 7 view .LVU2546
 8558 0038 80F902   		cmpb	$2, %cl
 8559 003b 0F846701 		je	.L701
 8559      0000
 8560 0041 80F904   		cmpb	$4, %cl
 8561 0044 0F845602 		je	.L702
 8561      0000
 8562 004a 80F901   		cmpb	$1, %cl
 8563 004d 0F84C501 		je	.L742
 8563      0000
 8564              	.LBB600:
2158:fltk-1.3.4-1/png/pngwutil.c ****       {
2159:fltk-1.3.4-1/png/pngwutil.c ****          case 1:
2160:fltk-1.3.4-1/png/pngwutil.c ****          {
2161:fltk-1.3.4-1/png/pngwutil.c ****             png_bytep sp;
2162:fltk-1.3.4-1/png/pngwutil.c ****             png_bytep dp;
2163:fltk-1.3.4-1/png/pngwutil.c ****             int shift;
2164:fltk-1.3.4-1/png/pngwutil.c ****             int d;
2165:fltk-1.3.4-1/png/pngwutil.c ****             int value;
2166:fltk-1.3.4-1/png/pngwutil.c ****             png_uint_32 i;
2167:fltk-1.3.4-1/png/pngwutil.c ****             png_uint_32 row_width = row_info->width;
2168:fltk-1.3.4-1/png/pngwutil.c **** 
2169:fltk-1.3.4-1/png/pngwutil.c ****             dp = row;
2170:fltk-1.3.4-1/png/pngwutil.c ****             d = 0;
2171:fltk-1.3.4-1/png/pngwutil.c ****             shift = 7;
2172:fltk-1.3.4-1/png/pngwutil.c **** 
2173:fltk-1.3.4-1/png/pngwutil.c ****             for (i = png_pass_start[pass]; i < row_width;
2174:fltk-1.3.4-1/png/pngwutil.c ****                i += png_pass_inc[pass])
2175:fltk-1.3.4-1/png/pngwutil.c ****             {
2176:fltk-1.3.4-1/png/pngwutil.c ****                sp = row + (png_size_t)(i >> 3);
2177:fltk-1.3.4-1/png/pngwutil.c ****                value = (int)(*sp >> (7 - (int)(i & 0x07))) & 0x01;
2178:fltk-1.3.4-1/png/pngwutil.c ****                d |= (value << shift);
2179:fltk-1.3.4-1/png/pngwutil.c **** 
2180:fltk-1.3.4-1/png/pngwutil.c ****                if (shift == 0)
2181:fltk-1.3.4-1/png/pngwutil.c ****                {
2182:fltk-1.3.4-1/png/pngwutil.c ****                   shift = 7;
2183:fltk-1.3.4-1/png/pngwutil.c ****                   *dp++ = (png_byte)d;
2184:fltk-1.3.4-1/png/pngwutil.c ****                   d = 0;
2185:fltk-1.3.4-1/png/pngwutil.c ****                }
2186:fltk-1.3.4-1/png/pngwutil.c **** 
2187:fltk-1.3.4-1/png/pngwutil.c ****                else
2188:fltk-1.3.4-1/png/pngwutil.c ****                   shift--;
2189:fltk-1.3.4-1/png/pngwutil.c **** 
2190:fltk-1.3.4-1/png/pngwutil.c ****             }
2191:fltk-1.3.4-1/png/pngwutil.c ****             if (shift != 7)
2192:fltk-1.3.4-1/png/pngwutil.c ****                *dp = (png_byte)d;
2193:fltk-1.3.4-1/png/pngwutil.c **** 
2194:fltk-1.3.4-1/png/pngwutil.c ****             break;
2195:fltk-1.3.4-1/png/pngwutil.c ****          }
2196:fltk-1.3.4-1/png/pngwutil.c **** 
2197:fltk-1.3.4-1/png/pngwutil.c ****          case 2:
2198:fltk-1.3.4-1/png/pngwutil.c ****          {
2199:fltk-1.3.4-1/png/pngwutil.c ****             png_bytep sp;
2200:fltk-1.3.4-1/png/pngwutil.c ****             png_bytep dp;
2201:fltk-1.3.4-1/png/pngwutil.c ****             int shift;
2202:fltk-1.3.4-1/png/pngwutil.c ****             int d;
2203:fltk-1.3.4-1/png/pngwutil.c ****             int value;
2204:fltk-1.3.4-1/png/pngwutil.c ****             png_uint_32 i;
2205:fltk-1.3.4-1/png/pngwutil.c ****             png_uint_32 row_width = row_info->width;
2206:fltk-1.3.4-1/png/pngwutil.c **** 
2207:fltk-1.3.4-1/png/pngwutil.c ****             dp = row;
2208:fltk-1.3.4-1/png/pngwutil.c ****             shift = 6;
2209:fltk-1.3.4-1/png/pngwutil.c ****             d = 0;
2210:fltk-1.3.4-1/png/pngwutil.c **** 
2211:fltk-1.3.4-1/png/pngwutil.c ****             for (i = png_pass_start[pass]; i < row_width;
2212:fltk-1.3.4-1/png/pngwutil.c ****                i += png_pass_inc[pass])
2213:fltk-1.3.4-1/png/pngwutil.c ****             {
2214:fltk-1.3.4-1/png/pngwutil.c ****                sp = row + (png_size_t)(i >> 2);
2215:fltk-1.3.4-1/png/pngwutil.c ****                value = (*sp >> ((3 - (int)(i & 0x03)) << 1)) & 0x03;
2216:fltk-1.3.4-1/png/pngwutil.c ****                d |= (value << shift);
2217:fltk-1.3.4-1/png/pngwutil.c **** 
2218:fltk-1.3.4-1/png/pngwutil.c ****                if (shift == 0)
2219:fltk-1.3.4-1/png/pngwutil.c ****                {
2220:fltk-1.3.4-1/png/pngwutil.c ****                   shift = 6;
2221:fltk-1.3.4-1/png/pngwutil.c ****                   *dp++ = (png_byte)d;
2222:fltk-1.3.4-1/png/pngwutil.c ****                   d = 0;
2223:fltk-1.3.4-1/png/pngwutil.c ****                }
2224:fltk-1.3.4-1/png/pngwutil.c **** 
2225:fltk-1.3.4-1/png/pngwutil.c ****                else
2226:fltk-1.3.4-1/png/pngwutil.c ****                   shift -= 2;
2227:fltk-1.3.4-1/png/pngwutil.c ****             }
2228:fltk-1.3.4-1/png/pngwutil.c ****             if (shift != 6)
2229:fltk-1.3.4-1/png/pngwutil.c ****                *dp = (png_byte)d;
2230:fltk-1.3.4-1/png/pngwutil.c **** 
2231:fltk-1.3.4-1/png/pngwutil.c ****             break;
2232:fltk-1.3.4-1/png/pngwutil.c ****          }
2233:fltk-1.3.4-1/png/pngwutil.c **** 
2234:fltk-1.3.4-1/png/pngwutil.c ****          case 4:
2235:fltk-1.3.4-1/png/pngwutil.c ****          {
2236:fltk-1.3.4-1/png/pngwutil.c ****             png_bytep sp;
2237:fltk-1.3.4-1/png/pngwutil.c ****             png_bytep dp;
2238:fltk-1.3.4-1/png/pngwutil.c ****             int shift;
2239:fltk-1.3.4-1/png/pngwutil.c ****             int d;
2240:fltk-1.3.4-1/png/pngwutil.c ****             int value;
2241:fltk-1.3.4-1/png/pngwutil.c ****             png_uint_32 i;
2242:fltk-1.3.4-1/png/pngwutil.c ****             png_uint_32 row_width = row_info->width;
2243:fltk-1.3.4-1/png/pngwutil.c **** 
2244:fltk-1.3.4-1/png/pngwutil.c ****             dp = row;
2245:fltk-1.3.4-1/png/pngwutil.c ****             shift = 4;
2246:fltk-1.3.4-1/png/pngwutil.c ****             d = 0;
2247:fltk-1.3.4-1/png/pngwutil.c ****             for (i = png_pass_start[pass]; i < row_width;
2248:fltk-1.3.4-1/png/pngwutil.c ****                 i += png_pass_inc[pass])
2249:fltk-1.3.4-1/png/pngwutil.c ****             {
2250:fltk-1.3.4-1/png/pngwutil.c ****                sp = row + (png_size_t)(i >> 1);
2251:fltk-1.3.4-1/png/pngwutil.c ****                value = (*sp >> ((1 - (int)(i & 0x01)) << 2)) & 0x0f;
2252:fltk-1.3.4-1/png/pngwutil.c ****                d |= (value << shift);
2253:fltk-1.3.4-1/png/pngwutil.c **** 
2254:fltk-1.3.4-1/png/pngwutil.c ****                if (shift == 0)
2255:fltk-1.3.4-1/png/pngwutil.c ****                {
2256:fltk-1.3.4-1/png/pngwutil.c ****                   shift = 4;
2257:fltk-1.3.4-1/png/pngwutil.c ****                   *dp++ = (png_byte)d;
2258:fltk-1.3.4-1/png/pngwutil.c ****                   d = 0;
2259:fltk-1.3.4-1/png/pngwutil.c ****                }
2260:fltk-1.3.4-1/png/pngwutil.c **** 
2261:fltk-1.3.4-1/png/pngwutil.c ****                else
2262:fltk-1.3.4-1/png/pngwutil.c ****                   shift -= 4;
2263:fltk-1.3.4-1/png/pngwutil.c ****             }
2264:fltk-1.3.4-1/png/pngwutil.c ****             if (shift != 4)
2265:fltk-1.3.4-1/png/pngwutil.c ****                *dp = (png_byte)d;
2266:fltk-1.3.4-1/png/pngwutil.c **** 
2267:fltk-1.3.4-1/png/pngwutil.c ****             break;
2268:fltk-1.3.4-1/png/pngwutil.c ****          }
2269:fltk-1.3.4-1/png/pngwutil.c **** 
2270:fltk-1.3.4-1/png/pngwutil.c ****          default:
2271:fltk-1.3.4-1/png/pngwutil.c ****          {
2272:fltk-1.3.4-1/png/pngwutil.c ****             png_bytep sp;
 8565              		.loc 1 2272 13 is_stmt 1 view .LVU2547
2273:fltk-1.3.4-1/png/pngwutil.c ****             png_bytep dp;
 8566              		.loc 1 2273 13 view .LVU2548
2274:fltk-1.3.4-1/png/pngwutil.c ****             png_uint_32 i;
 8567              		.loc 1 2274 13 view .LVU2549
2275:fltk-1.3.4-1/png/pngwutil.c ****             png_uint_32 row_width = row_info->width;
 8568              		.loc 1 2275 13 view .LVU2550
 8569              	.LVL834:
2276:fltk-1.3.4-1/png/pngwutil.c ****             png_size_t pixel_bytes;
 8570              		.loc 1 2276 13 view .LVU2551
2277:fltk-1.3.4-1/png/pngwutil.c **** 
2278:fltk-1.3.4-1/png/pngwutil.c ****             /* Start at the beginning */
2279:fltk-1.3.4-1/png/pngwutil.c ****             dp = row;
 8571              		.loc 1 2279 13 view .LVU2552
2280:fltk-1.3.4-1/png/pngwutil.c **** 
2281:fltk-1.3.4-1/png/pngwutil.c ****             /* Find out how many bytes each pixel takes up */
2282:fltk-1.3.4-1/png/pngwutil.c ****             pixel_bytes = (row_info->pixel_depth >> 3);
 8572              		.loc 1 2282 13 view .LVU2553
 8573              		.loc 1 2282 50 is_stmt 0 view .LVU2554
 8574 0053 4189CA   		movl	%ecx, %r10d
 8575 0056 41C0EA03 		shrb	$3, %r10b
 8576              		.loc 1 2282 25 view .LVU2555
 8577 005a 450FB6D2 		movzbl	%r10b, %r10d
 8578              	.LVL835:
2283:fltk-1.3.4-1/png/pngwutil.c **** 
2284:fltk-1.3.4-1/png/pngwutil.c ****             /* Loop through the row, only looking at the pixels that matter */
2285:fltk-1.3.4-1/png/pngwutil.c ****             for (i = png_pass_start[pass]; i < row_width;
 8579              		.loc 1 2285 13 is_stmt 1 view .LVU2556
 8580              		.loc 1 2285 44 view .LVU2557
 8581              		.loc 1 2285 13 is_stmt 0 view .LVU2558
 8582 005e 4439E0   		cmpl	%r12d, %eax
 8583 0061 0F86CF00 		jbe	.L709
 8583      0000
 8584              	.LBB601:
 8585              	.LBB602:
  34:/usr/include/x86_64-linux-gnu/bits/string_fortified.h **** }
 8586              		.loc 2 34 10 view .LVU2559
 8587 0067 4489D3   		movl	%r10d, %ebx
 8588 006a 4589D7   		movl	%r10d, %r15d
 8589              	.LBE602:
 8590              	.LBE601:
 8591              		.loc 1 2285 13 view .LVU2560
 8592 006d 4589E1   		movl	%r12d, %r9d
2279:fltk-1.3.4-1/png/pngwutil.c **** 
 8593              		.loc 1 2279 16 view .LVU2561
 8594 0070 4889F2   		movq	%rsi, %rdx
 8595              	.LVL836:
 8596              	.LBB606:
 8597              	.LBB603:
  34:/usr/include/x86_64-linux-gnu/bits/string_fortified.h **** }
 8598              		.loc 2 34 10 view .LVU2562
 8599 0073 83E302   		andl	$2, %ebx
 8600 0076 4589D6   		movl	%r10d, %r14d
 8601 0079 4183E704 		andl	$4, %r15d
 8602 007d 895C24FC 		movl	%ebx, -4(%rsp)
 8603 0081 EB38     		jmp	.L726
 8604              	.LVL837:
 8605              		.p2align 4,,10
 8606 0083 0F1F4400 		.p2align 3
 8606      00
 8607              	.L745:
  34:/usr/include/x86_64-linux-gnu/bits/string_fortified.h **** }
 8608              		.loc 2 34 10 view .LVU2563
 8609 0088 4585FF   		testl	%r15d, %r15d
 8610 008b 0F858F02 		jne	.L743
 8610      0000
 8611 0091 4585D2   		testl	%r10d, %r10d
 8612 0094 741A     		je	.L719
 8613 0096 440FB619 		movzbl	(%rcx), %r11d
 8614 009a 44881A   		movb	%r11b, (%rdx)
 8615 009d 448B5C24 		movl	-4(%rsp), %r11d
 8615      FC
 8616 00a2 4585DB   		testl	%r11d, %r11d
 8617 00a5 0F858D02 		jne	.L744
 8617      0000
 8618              	.LVL838:
 8619 00ab 0F1F4400 		.p2align 4,,10
 8619      00
 8620              		.p2align 3
 8621              	.L719:
  34:/usr/include/x86_64-linux-gnu/bits/string_fortified.h **** }
 8622              		.loc 2 34 10 view .LVU2564
 8623              	.LBE603:
 8624              	.LBE606:
2286:fltk-1.3.4-1/png/pngwutil.c ****                i += png_pass_inc[pass])
2287:fltk-1.3.4-1/png/pngwutil.c ****             {
2288:fltk-1.3.4-1/png/pngwutil.c ****                /* Find out where the original pixel is */
2289:fltk-1.3.4-1/png/pngwutil.c ****                sp = row + (png_size_t)i * pixel_bytes;
2290:fltk-1.3.4-1/png/pngwutil.c **** 
2291:fltk-1.3.4-1/png/pngwutil.c ****                /* Move the pixel */
2292:fltk-1.3.4-1/png/pngwutil.c ****                if (dp != sp)
2293:fltk-1.3.4-1/png/pngwutil.c ****                   memcpy(dp, sp, pixel_bytes);
2294:fltk-1.3.4-1/png/pngwutil.c **** 
2295:fltk-1.3.4-1/png/pngwutil.c ****                /* Next pixel */
2296:fltk-1.3.4-1/png/pngwutil.c ****                dp += pixel_bytes;
 8625              		.loc 1 2296 16 is_stmt 1 view .LVU2565
2286:fltk-1.3.4-1/png/pngwutil.c ****                i += png_pass_inc[pass])
 8626              		.loc 1 2286 18 is_stmt 0 view .LVU2566
 8627 00b0 4501C1   		addl	%r8d, %r9d
 8628              	.LVL839:
 8629              		.loc 1 2296 19 view .LVU2567
 8630 00b3 4C01D2   		addq	%r10, %rdx
 8631              	.LVL840:
2286:fltk-1.3.4-1/png/pngwutil.c ****                i += png_pass_inc[pass])
 8632              		.loc 1 2286 16 is_stmt 1 view .LVU2568
2285:fltk-1.3.4-1/png/pngwutil.c ****                i += png_pass_inc[pass])
 8633              		.loc 1 2285 44 view .LVU2569
2285:fltk-1.3.4-1/png/pngwutil.c ****                i += png_pass_inc[pass])
 8634              		.loc 1 2285 13 is_stmt 0 view .LVU2570
 8635 00b6 4139C1   		cmpl	%eax, %r9d
 8636 00b9 7375     		jnb	.L741
 8637              	.LVL841:
 8638              	.L726:
2289:fltk-1.3.4-1/png/pngwutil.c **** 
 8639              		.loc 1 2289 16 is_stmt 1 view .LVU2571
2289:fltk-1.3.4-1/png/pngwutil.c **** 
 8640              		.loc 1 2289 27 is_stmt 0 view .LVU2572
 8641 00bb 4489C9   		movl	%r9d, %ecx
2289:fltk-1.3.4-1/png/pngwutil.c **** 
 8642              		.loc 1 2289 41 view .LVU2573
 8643 00be 490FAFCA 		imulq	%r10, %rcx
2289:fltk-1.3.4-1/png/pngwutil.c **** 
 8644              		.loc 1 2289 19 view .LVU2574
 8645 00c2 4801F1   		addq	%rsi, %rcx
 8646              	.LVL842:
2292:fltk-1.3.4-1/png/pngwutil.c ****                   memcpy(dp, sp, pixel_bytes);
 8647              		.loc 1 2292 16 is_stmt 1 view .LVU2575
2292:fltk-1.3.4-1/png/pngwutil.c ****                   memcpy(dp, sp, pixel_bytes);
 8648              		.loc 1 2292 19 is_stmt 0 view .LVU2576
 8649 00c5 4839D1   		cmpq	%rdx, %rcx
 8650 00c8 74E6     		je	.L719
2293:fltk-1.3.4-1/png/pngwutil.c **** 
 8651              		.loc 1 2293 19 is_stmt 1 view .LVU2577
 8652              	.LVL843:
 8653              	.LBB607:
 8654              	.LBI601:
  31:/usr/include/x86_64-linux-gnu/bits/string_fortified.h **** 	       size_t __len))
 8655              		.loc 2 31 1 view .LVU2578
 8656              	.LBB604:
  34:/usr/include/x86_64-linux-gnu/bits/string_fortified.h **** }
 8657              		.loc 2 34 3 view .LVU2579
  34:/usr/include/x86_64-linux-gnu/bits/string_fortified.h **** }
 8658              		.loc 2 34 10 is_stmt 0 view .LVU2580
 8659 00ca 4183FA08 		cmpl	$8, %r10d
 8660 00ce 72B8     		jb	.L745
 8661 00d0 4C8B19   		movq	(%rcx), %r11
 8662 00d3 4C8D6A08 		leaq	8(%rdx), %r13
 8663 00d7 4983E5F8 		andq	$-8, %r13
 8664 00db 4C891A   		movq	%r11, (%rdx)
 8665 00de 4E8B5C31 		movq	-8(%rcx,%r14), %r11
 8665      F8
 8666 00e3 4E895C32 		movq	%r11, -8(%rdx,%r14)
 8666      F8
 8667 00e8 4989D3   		movq	%rdx, %r11
 8668 00eb 4D29EB   		subq	%r13, %r11
 8669 00ee 4C29D9   		subq	%r11, %rcx
 8670              	.LVL844:
  34:/usr/include/x86_64-linux-gnu/bits/string_fortified.h **** }
 8671              		.loc 2 34 10 view .LVU2581
 8672 00f1 4501D3   		addl	%r10d, %r11d
 8673 00f4 4183E3F8 		andl	$-8, %r11d
 8674 00f8 4183FB08 		cmpl	$8, %r11d
 8675 00fc 72B2     		jb	.L719
 8676 00fe 894424F8 		movl	%eax, -8(%rsp)
 8677 0102 4183E3F8 		andl	$-8, %r11d
 8678 0106 31DB     		xorl	%ebx, %ebx
 8679              	.L724:
  34:/usr/include/x86_64-linux-gnu/bits/string_fortified.h **** }
 8680              		.loc 2 34 10 view .LVU2582
 8681 0108 89DD     		movl	%ebx, %ebp
 8682 010a 83C308   		addl	$8, %ebx
 8683 010d 488B0429 		movq	(%rcx,%rbp), %rax
 8684 0111 4989442D 		movq	%rax, 0(%r13,%rbp)
 8684      00
 8685 0116 4439DB   		cmpl	%r11d, %ebx
 8686 0119 72ED     		jb	.L724
 8687 011b 8B4424F8 		movl	-8(%rsp), %eax
 8688              	.LVL845:
  34:/usr/include/x86_64-linux-gnu/bits/string_fortified.h **** }
 8689              		.loc 2 34 10 view .LVU2583
 8690              	.LBE604:
 8691              	.LBE607:
 8692              		.loc 1 2296 16 is_stmt 1 view .LVU2584
2286:fltk-1.3.4-1/png/pngwutil.c ****             {
 8693              		.loc 1 2286 18 is_stmt 0 view .LVU2585
 8694 011f 4501C1   		addl	%r8d, %r9d
 8695              	.LVL846:
 8696              		.loc 1 2296 19 view .LVU2586
 8697 0122 4C01D2   		addq	%r10, %rdx
 8698              	.LVL847:
2286:fltk-1.3.4-1/png/pngwutil.c ****             {
 8699              		.loc 1 2286 16 is_stmt 1 view .LVU2587
2285:fltk-1.3.4-1/png/pngwutil.c ****                i += png_pass_inc[pass])
 8700              		.loc 1 2285 44 view .LVU2588
2285:fltk-1.3.4-1/png/pngwutil.c ****                i += png_pass_inc[pass])
 8701              		.loc 1 2285 13 is_stmt 0 view .LVU2589
 8702 0125 4139C1   		cmpl	%eax, %r9d
 8703 0128 7291     		jb	.L726
 8704              	.LVL848:
 8705 012a 660F1F44 		.p2align 4,,10
 8705      0000
 8706              		.p2align 3
 8707              	.L741:
2285:fltk-1.3.4-1/png/pngwutil.c ****                i += png_pass_inc[pass])
 8708              		.loc 1 2285 13 view .LVU2590
 8709 0130 8B07     		movl	(%rdi), %eax
 8710 0132 0FB64F13 		movzbl	19(%rdi), %ecx
 8711              	.L709:
2285:fltk-1.3.4-1/png/pngwutil.c ****                i += png_pass_inc[pass])
 8712              		.loc 1 2285 13 view .LVU2591
 8713              	.LBE600:
2297:fltk-1.3.4-1/png/pngwutil.c ****             }
2298:fltk-1.3.4-1/png/pngwutil.c ****             break;
2299:fltk-1.3.4-1/png/pngwutil.c ****          }
2300:fltk-1.3.4-1/png/pngwutil.c ****       }
2301:fltk-1.3.4-1/png/pngwutil.c ****       /* Set new row width */
2302:fltk-1.3.4-1/png/pngwutil.c ****       row_info->width = (row_info->width +
 8714              		.loc 1 2302 7 is_stmt 1 view .LVU2592
2303:fltk-1.3.4-1/png/pngwutil.c ****           png_pass_inc[pass] - 1 -
 8715              		.loc 1 2303 34 is_stmt 0 view .LVU2593
 8716 0136 418D50FF 		leal	-1(%r8), %edx
 8717 013a 4429E2   		subl	%r12d, %edx
 8718 013d 01D0     		addl	%edx, %eax
2304:fltk-1.3.4-1/png/pngwutil.c ****           png_pass_start[pass]) /
 8719              		.loc 1 2304 33 view .LVU2594
 8720 013f 31D2     		xorl	%edx, %edx
 8721 0141 41F7F0   		divl	%r8d
2302:fltk-1.3.4-1/png/pngwutil.c ****           png_pass_inc[pass] - 1 -
 8722              		.loc 1 2302 23 view .LVU2595
 8723 0144 8907     		movl	%eax, (%rdi)
2305:fltk-1.3.4-1/png/pngwutil.c ****           png_pass_inc[pass];
2306:fltk-1.3.4-1/png/pngwutil.c **** 
2307:fltk-1.3.4-1/png/pngwutil.c ****       row_info->rowbytes = PNG_ROWBYTES(row_info->pixel_depth,
 8724              		.loc 1 2307 7 is_stmt 1 view .LVU2596
 8725 0146 89C0     		movl	%eax, %eax
 8726              		.loc 1 2307 28 is_stmt 0 view .LVU2597
 8727 0148 80F907   		cmpb	$7, %cl
 8728 014b 763D     		jbe	.L727
 8729              		.loc 1 2307 28 discriminator 1 view .LVU2598
 8730 014d C0E903   		shrb	$3, %cl
2308:fltk-1.3.4-1/png/pngwutil.c ****           row_info->width);
2309:fltk-1.3.4-1/png/pngwutil.c ****    }
2310:fltk-1.3.4-1/png/pngwutil.c **** }
 8731              		.loc 1 2310 1 discriminator 1 view .LVU2599
 8732 0150 5B       		popq	%rbx
 8733              		.cfi_def_cfa_offset 48
 8734 0151 5D       		popq	%rbp
 8735              		.cfi_def_cfa_offset 40
2307:fltk-1.3.4-1/png/pngwutil.c ****           row_info->width);
 8736              		.loc 1 2307 28 discriminator 1 view .LVU2600
 8737 0152 0FB6C9   		movzbl	%cl, %ecx
 8738              		.loc 1 2310 1 discriminator 1 view .LVU2601
 8739 0155 415C     		popq	%r12
 8740              		.cfi_def_cfa_offset 32
 8741 0157 415D     		popq	%r13
 8742              		.cfi_def_cfa_offset 24
2307:fltk-1.3.4-1/png/pngwutil.c ****           row_info->width);
 8743              		.loc 1 2307 28 discriminator 1 view .LVU2602
 8744 0159 480FAFC1 		imulq	%rcx, %rax
 8745              		.loc 1 2310 1 discriminator 1 view .LVU2603
 8746 015d 415E     		popq	%r14
 8747              		.cfi_def_cfa_offset 16
 8748 015f 415F     		popq	%r15
 8749              		.cfi_def_cfa_offset 8
2307:fltk-1.3.4-1/png/pngwutil.c ****           row_info->width);
 8750              		.loc 1 2307 26 discriminator 1 view .LVU2604
 8751 0161 48894708 		movq	%rax, 8(%rdi)
 8752              		.loc 1 2310 1 discriminator 1 view .LVU2605
 8753 0165 C3       		ret
 8754              	.LVL849:
 8755 0166 662E0F1F 		.p2align 4,,10
 8755      84000000 
 8755      0000
 8756              		.p2align 3
 8757              	.L738:
 8758              		.cfi_restore 3
 8759              		.cfi_restore 6
 8760              		.cfi_restore 12
 8761              		.cfi_restore 13
 8762              		.cfi_restore 14
 8763              		.cfi_restore 15
 8764              		.loc 1 2310 1 discriminator 1 view .LVU2606
 8765 0170 C3       		ret
 8766              		.p2align 4,,10
 8767 0171 0F1F8000 		.p2align 3
 8767      000000
 8768              	.L704:
 8769              		.cfi_def_cfa_offset 56
 8770              		.cfi_offset 3, -56
 8771              		.cfi_offset 6, -48
 8772              		.cfi_offset 12, -40
 8773              		.cfi_offset 13, -32
 8774              		.cfi_offset 14, -24
 8775              		.cfi_offset 15, -16
2302:fltk-1.3.4-1/png/pngwutil.c ****           png_pass_inc[pass] - 1 -
 8776              		.loc 1 2302 7 is_stmt 1 view .LVU2607
2303:fltk-1.3.4-1/png/pngwutil.c ****           png_pass_start[pass]) /
 8777              		.loc 1 2303 34 is_stmt 0 view .LVU2608
 8778 0178 418D50FF 		leal	-1(%r8), %edx
 8779              	.LVL850:
2303:fltk-1.3.4-1/png/pngwutil.c ****           png_pass_start[pass]) /
 8780              		.loc 1 2303 34 view .LVU2609
 8781 017c 4429E2   		subl	%r12d, %edx
 8782 017f 01D0     		addl	%edx, %eax
2304:fltk-1.3.4-1/png/pngwutil.c ****           png_pass_inc[pass];
 8783              		.loc 1 2304 33 view .LVU2610
 8784 0181 31D2     		xorl	%edx, %edx
 8785 0183 41F7F0   		divl	%r8d
2302:fltk-1.3.4-1/png/pngwutil.c ****           png_pass_inc[pass] - 1 -
 8786              		.loc 1 2302 23 view .LVU2611
 8787 0186 8907     		movl	%eax, (%rdi)
2307:fltk-1.3.4-1/png/pngwutil.c ****           row_info->width);
 8788              		.loc 1 2307 7 is_stmt 1 view .LVU2612
 8789 0188 89C0     		movl	%eax, %eax
 8790              	.L727:
2307:fltk-1.3.4-1/png/pngwutil.c ****           row_info->width);
 8791              		.loc 1 2307 28 is_stmt 0 discriminator 2 view .LVU2613
 8792 018a 480FAFC1 		imulq	%rcx, %rax
 8793              		.loc 1 2310 1 discriminator 2 view .LVU2614
 8794 018e 5B       		popq	%rbx
 8795              		.cfi_remember_state
 8796              		.cfi_def_cfa_offset 48
 8797 018f 5D       		popq	%rbp
 8798              		.cfi_def_cfa_offset 40
 8799 0190 415C     		popq	%r12
 8800              		.cfi_def_cfa_offset 32
 8801 0192 415D     		popq	%r13
 8802              		.cfi_def_cfa_offset 24
 8803 0194 415E     		popq	%r14
 8804              		.cfi_def_cfa_offset 16
 8805 0196 415F     		popq	%r15
 8806              		.cfi_def_cfa_offset 8
2307:fltk-1.3.4-1/png/pngwutil.c ****           row_info->width);
 8807              		.loc 1 2307 28 discriminator 2 view .LVU2615
 8808 0198 4883C007 		addq	$7, %rax
 8809 019c 48C1E803 		shrq	$3, %rax
2307:fltk-1.3.4-1/png/pngwutil.c ****           row_info->width);
 8810              		.loc 1 2307 26 discriminator 2 view .LVU2616
 8811 01a0 48894708 		movq	%rax, 8(%rdi)
 8812              		.loc 1 2310 1 discriminator 2 view .LVU2617
 8813 01a4 C3       		ret
 8814              		.p2align 4,,10
 8815 01a5 0F1F00   		.p2align 3
 8816              	.L701:
 8817              		.cfi_restore_state
 8818              	.LBB609:
2199:fltk-1.3.4-1/png/pngwutil.c ****             png_bytep dp;
 8819              		.loc 1 2199 13 is_stmt 1 view .LVU2618
2200:fltk-1.3.4-1/png/pngwutil.c ****             int shift;
 8820              		.loc 1 2200 13 view .LVU2619
2201:fltk-1.3.4-1/png/pngwutil.c ****             int d;
 8821              		.loc 1 2201 13 view .LVU2620
2202:fltk-1.3.4-1/png/pngwutil.c ****             int value;
 8822              		.loc 1 2202 13 view .LVU2621
2203:fltk-1.3.4-1/png/pngwutil.c ****             png_uint_32 i;
 8823              		.loc 1 2203 13 view .LVU2622
2204:fltk-1.3.4-1/png/pngwutil.c ****             png_uint_32 row_width = row_info->width;
 8824              		.loc 1 2204 13 view .LVU2623
2205:fltk-1.3.4-1/png/pngwutil.c **** 
 8825              		.loc 1 2205 13 view .LVU2624
 8826              	.LVL851:
2207:fltk-1.3.4-1/png/pngwutil.c ****             shift = 6;
 8827              		.loc 1 2207 13 view .LVU2625
2208:fltk-1.3.4-1/png/pngwutil.c ****             d = 0;
 8828              		.loc 1 2208 13 view .LVU2626
2209:fltk-1.3.4-1/png/pngwutil.c **** 
 8829              		.loc 1 2209 13 view .LVU2627
2211:fltk-1.3.4-1/png/pngwutil.c ****                i += png_pass_inc[pass])
 8830              		.loc 1 2211 13 view .LVU2628
2211:fltk-1.3.4-1/png/pngwutil.c ****                i += png_pass_inc[pass])
 8831              		.loc 1 2211 44 view .LVU2629
2211:fltk-1.3.4-1/png/pngwutil.c ****                i += png_pass_inc[pass])
 8832              		.loc 1 2211 13 is_stmt 0 view .LVU2630
 8833 01a8 4439E0   		cmpl	%r12d, %eax
 8834 01ab 76CB     		jbe	.L704
 8835 01ad 4589E1   		movl	%r12d, %r9d
2207:fltk-1.3.4-1/png/pngwutil.c ****             shift = 6;
 8836              		.loc 1 2207 16 view .LVU2631
 8837 01b0 4889F3   		movq	%rsi, %rbx
2209:fltk-1.3.4-1/png/pngwutil.c **** 
 8838              		.loc 1 2209 15 view .LVU2632
 8839 01b3 4531DB   		xorl	%r11d, %r11d
2208:fltk-1.3.4-1/png/pngwutil.c ****             d = 0;
 8840              		.loc 1 2208 19 view .LVU2633
 8841 01b6 41BA0600 		movl	$6, %r10d
 8841      0000
 8842 01bc EB1A     		jmp	.L712
 8843              	.LVL852:
 8844 01be 6690     		.p2align 4,,10
 8845              		.p2align 3
 8846              	.L747:
2220:fltk-1.3.4-1/png/pngwutil.c ****                   *dp++ = (png_byte)d;
 8847              		.loc 1 2220 19 is_stmt 1 view .LVU2634
2221:fltk-1.3.4-1/png/pngwutil.c ****                   d = 0;
 8848              		.loc 1 2221 19 view .LVU2635
2212:fltk-1.3.4-1/png/pngwutil.c ****             {
 8849              		.loc 1 2212 18 is_stmt 0 view .LVU2636
 8850 01c0 4501C1   		addl	%r8d, %r9d
 8851              	.LVL853:
2221:fltk-1.3.4-1/png/pngwutil.c ****                   d = 0;
 8852              		.loc 1 2221 27 view .LVU2637
 8853 01c3 44881B   		movb	%r11b, (%rbx)
2222:fltk-1.3.4-1/png/pngwutil.c ****                }
 8854              		.loc 1 2222 19 is_stmt 1 view .LVU2638
 8855              	.LVL854:
2220:fltk-1.3.4-1/png/pngwutil.c ****                   *dp++ = (png_byte)d;
 8856              		.loc 1 2220 25 is_stmt 0 view .LVU2639
 8857 01c6 41BA0600 		movl	$6, %r10d
 8857      0000
2222:fltk-1.3.4-1/png/pngwutil.c ****                }
 8858              		.loc 1 2222 21 view .LVU2640
 8859 01cc 4531DB   		xorl	%r11d, %r11d
 8860              	.LVL855:
2221:fltk-1.3.4-1/png/pngwutil.c ****                   d = 0;
 8861              		.loc 1 2221 22 view .LVU2641
 8862 01cf 4883C301 		addq	$1, %rbx
 8863              	.LVL856:
2212:fltk-1.3.4-1/png/pngwutil.c ****             {
 8864              		.loc 1 2212 16 is_stmt 1 view .LVU2642
2211:fltk-1.3.4-1/png/pngwutil.c ****                i += png_pass_inc[pass])
 8865              		.loc 1 2211 44 view .LVU2643
2211:fltk-1.3.4-1/png/pngwutil.c ****                i += png_pass_inc[pass])
 8866              		.loc 1 2211 13 is_stmt 0 view .LVU2644
 8867 01d3 4139C1   		cmpl	%eax, %r9d
 8868 01d6 7332     		jnb	.L746
 8869              	.LVL857:
 8870              	.L712:
2214:fltk-1.3.4-1/png/pngwutil.c ****                value = (*sp >> ((3 - (int)(i & 0x03)) << 1)) & 0x03;
 8871              		.loc 1 2214 16 is_stmt 1 view .LVU2645
2215:fltk-1.3.4-1/png/pngwutil.c ****                d |= (value << shift);
 8872              		.loc 1 2215 16 view .LVU2646
2216:fltk-1.3.4-1/png/pngwutil.c **** 
 8873              		.loc 1 2216 16 view .LVU2647
2214:fltk-1.3.4-1/png/pngwutil.c ****                value = (*sp >> ((3 - (int)(i & 0x03)) << 1)) & 0x03;
 8874              		.loc 1 2214 42 is_stmt 0 view .LVU2648
 8875 01d8 4489CA   		movl	%r9d, %edx
2215:fltk-1.3.4-1/png/pngwutil.c ****                d |= (value << shift);
 8876              		.loc 1 2215 36 view .LVU2649
 8877 01db 4489C9   		movl	%r9d, %ecx
2214:fltk-1.3.4-1/png/pngwutil.c ****                value = (*sp >> ((3 - (int)(i & 0x03)) << 1)) & 0x03;
 8878              		.loc 1 2214 42 view .LVU2650
 8879 01de C1EA02   		shrl	$2, %edx
2215:fltk-1.3.4-1/png/pngwutil.c ****                d |= (value << shift);
 8880              		.loc 1 2215 36 view .LVU2651
 8881 01e1 F7D1     		notl	%ecx
 8882              	.LVL858:
2215:fltk-1.3.4-1/png/pngwutil.c ****                d |= (value << shift);
 8883              		.loc 1 2215 25 view .LVU2652
 8884 01e3 0FB61416 		movzbl	(%rsi,%rdx), %edx
2215:fltk-1.3.4-1/png/pngwutil.c ****                d |= (value << shift);
 8885              		.loc 1 2215 55 view .LVU2653
 8886 01e7 01C9     		addl	%ecx, %ecx
 8887              	.LVL859:
2215:fltk-1.3.4-1/png/pngwutil.c ****                d |= (value << shift);
 8888              		.loc 1 2215 55 view .LVU2654
 8889 01e9 83E106   		andl	$6, %ecx
2215:fltk-1.3.4-1/png/pngwutil.c ****                d |= (value << shift);
 8890              		.loc 1 2215 29 view .LVU2655
 8891 01ec D3FA     		sarl	%cl, %edx
2216:fltk-1.3.4-1/png/pngwutil.c **** 
 8892              		.loc 1 2216 28 view .LVU2656
 8893 01ee 4489D1   		movl	%r10d, %ecx
2215:fltk-1.3.4-1/png/pngwutil.c ****                d |= (value << shift);
 8894              		.loc 1 2215 22 view .LVU2657
 8895 01f1 83E203   		andl	$3, %edx
2216:fltk-1.3.4-1/png/pngwutil.c **** 
 8896              		.loc 1 2216 28 view .LVU2658
 8897 01f4 D3E2     		sall	%cl, %edx
2216:fltk-1.3.4-1/png/pngwutil.c **** 
 8898              		.loc 1 2216 18 view .LVU2659
 8899 01f6 4109D3   		orl	%edx, %r11d
 8900              	.LVL860:
2218:fltk-1.3.4-1/png/pngwutil.c ****                {
 8901              		.loc 1 2218 16 is_stmt 1 view .LVU2660
2218:fltk-1.3.4-1/png/pngwutil.c ****                {
 8902              		.loc 1 2218 19 is_stmt 0 view .LVU2661
 8903 01f9 4585D2   		testl	%r10d, %r10d
 8904 01fc 74C2     		je	.L747
2226:fltk-1.3.4-1/png/pngwutil.c ****             }
 8905              		.loc 1 2226 19 is_stmt 1 view .LVU2662
2212:fltk-1.3.4-1/png/pngwutil.c ****             {
 8906              		.loc 1 2212 18 is_stmt 0 view .LVU2663
 8907 01fe 4501C1   		addl	%r8d, %r9d
 8908              	.LVL861:
2226:fltk-1.3.4-1/png/pngwutil.c ****             }
 8909              		.loc 1 2226 25 view .LVU2664
 8910 0201 4183EA02 		subl	$2, %r10d
 8911              	.LVL862:
2212:fltk-1.3.4-1/png/pngwutil.c ****             {
 8912              		.loc 1 2212 16 is_stmt 1 view .LVU2665
2211:fltk-1.3.4-1/png/pngwutil.c ****                i += png_pass_inc[pass])
 8913              		.loc 1 2211 44 view .LVU2666
2211:fltk-1.3.4-1/png/pngwutil.c ****                i += png_pass_inc[pass])
 8914              		.loc 1 2211 13 is_stmt 0 view .LVU2667
 8915 0205 4139C1   		cmpl	%eax, %r9d
 8916 0208 72CE     		jb	.L712
 8917              	.L746:
2228:fltk-1.3.4-1/png/pngwutil.c ****                *dp = (png_byte)d;
 8918              		.loc 1 2228 13 is_stmt 1 view .LVU2668
2228:fltk-1.3.4-1/png/pngwutil.c ****                *dp = (png_byte)d;
 8919              		.loc 1 2228 16 is_stmt 0 view .LVU2669
 8920 020a 4183FA06 		cmpl	$6, %r10d
 8921 020e 757A     		jne	.L713
2228:fltk-1.3.4-1/png/pngwutil.c ****                *dp = (png_byte)d;
 8922              		.loc 1 2228 16 view .LVU2670
 8923 0210 E91BFFFF 		jmp	.L741
 8923      FF
 8924              	.LVL863:
 8925              		.p2align 4,,10
 8926 0215 0F1F00   		.p2align 3
 8927              	.L742:
2228:fltk-1.3.4-1/png/pngwutil.c ****                *dp = (png_byte)d;
 8928              		.loc 1 2228 16 view .LVU2671
 8929              	.LBE609:
 8930              	.LBB610:
2161:fltk-1.3.4-1/png/pngwutil.c ****             png_bytep dp;
 8931              		.loc 1 2161 13 is_stmt 1 view .LVU2672
2162:fltk-1.3.4-1/png/pngwutil.c ****             int shift;
 8932              		.loc 1 2162 13 view .LVU2673
2163:fltk-1.3.4-1/png/pngwutil.c ****             int d;
 8933              		.loc 1 2163 13 view .LVU2674
2164:fltk-1.3.4-1/png/pngwutil.c ****             int value;
 8934              		.loc 1 2164 13 view .LVU2675
2165:fltk-1.3.4-1/png/pngwutil.c ****             png_uint_32 i;
 8935              		.loc 1 2165 13 view .LVU2676
2166:fltk-1.3.4-1/png/pngwutil.c ****             png_uint_32 row_width = row_info->width;
 8936              		.loc 1 2166 13 view .LVU2677
2167:fltk-1.3.4-1/png/pngwutil.c **** 
 8937              		.loc 1 2167 13 view .LVU2678
2169:fltk-1.3.4-1/png/pngwutil.c ****             d = 0;
 8938              		.loc 1 2169 13 view .LVU2679
2170:fltk-1.3.4-1/png/pngwutil.c ****             shift = 7;
 8939              		.loc 1 2170 13 view .LVU2680
2171:fltk-1.3.4-1/png/pngwutil.c **** 
 8940              		.loc 1 2171 13 view .LVU2681
2173:fltk-1.3.4-1/png/pngwutil.c ****                i += png_pass_inc[pass])
 8941              		.loc 1 2173 13 view .LVU2682
2173:fltk-1.3.4-1/png/pngwutil.c ****                i += png_pass_inc[pass])
 8942              		.loc 1 2173 44 view .LVU2683
2173:fltk-1.3.4-1/png/pngwutil.c ****                i += png_pass_inc[pass])
 8943              		.loc 1 2173 13 is_stmt 0 view .LVU2684
 8944 0218 4439E0   		cmpl	%r12d, %eax
 8945 021b 0F8657FF 		jbe	.L704
 8945      FFFF
 8946 0221 4589E1   		movl	%r12d, %r9d
2169:fltk-1.3.4-1/png/pngwutil.c ****             d = 0;
 8947              		.loc 1 2169 16 view .LVU2685
 8948 0224 4889F3   		movq	%rsi, %rbx
2170:fltk-1.3.4-1/png/pngwutil.c ****             shift = 7;
 8949              		.loc 1 2170 15 view .LVU2686
 8950 0227 4531DB   		xorl	%r11d, %r11d
2171:fltk-1.3.4-1/png/pngwutil.c **** 
 8951              		.loc 1 2171 19 view .LVU2687
 8952 022a 41BA0700 		movl	$7, %r10d
 8952      0000
 8953 0230 EB1E     		jmp	.L707
 8954              	.LVL864:
 8955              		.p2align 4,,10
 8956 0232 660F1F44 		.p2align 3
 8956      0000
 8957              	.L749:
2182:fltk-1.3.4-1/png/pngwutil.c ****                   *dp++ = (png_byte)d;
 8958              		.loc 1 2182 19 is_stmt 1 view .LVU2688
2183:fltk-1.3.4-1/png/pngwutil.c ****                   d = 0;
 8959              		.loc 1 2183 19 view .LVU2689
2174:fltk-1.3.4-1/png/pngwutil.c ****             {
 8960              		.loc 1 2174 18 is_stmt 0 view .LVU2690
 8961 0238 4501C1   		addl	%r8d, %r9d
 8962              	.LVL865:
2183:fltk-1.3.4-1/png/pngwutil.c ****                   d = 0;
 8963              		.loc 1 2183 27 view .LVU2691
 8964 023b 44881B   		movb	%r11b, (%rbx)
2184:fltk-1.3.4-1/png/pngwutil.c ****                }
 8965              		.loc 1 2184 19 is_stmt 1 view .LVU2692
 8966              	.LVL866:
2182:fltk-1.3.4-1/png/pngwutil.c ****                   *dp++ = (png_byte)d;
 8967              		.loc 1 2182 25 is_stmt 0 view .LVU2693
 8968 023e 41BA0700 		movl	$7, %r10d
 8968      0000
2184:fltk-1.3.4-1/png/pngwutil.c ****                }
 8969              		.loc 1 2184 21 view .LVU2694
 8970 0244 4531DB   		xorl	%r11d, %r11d
 8971              	.LVL867:
2183:fltk-1.3.4-1/png/pngwutil.c ****                   d = 0;
 8972              		.loc 1 2183 22 view .LVU2695
 8973 0247 4883C301 		addq	$1, %rbx
 8974              	.LVL868:
2174:fltk-1.3.4-1/png/pngwutil.c ****             {
 8975              		.loc 1 2174 16 is_stmt 1 view .LVU2696
2173:fltk-1.3.4-1/png/pngwutil.c ****                i += png_pass_inc[pass])
 8976              		.loc 1 2173 44 view .LVU2697
2173:fltk-1.3.4-1/png/pngwutil.c ****                i += png_pass_inc[pass])
 8977              		.loc 1 2173 13 is_stmt 0 view .LVU2698
 8978 024b 4139C1   		cmpl	%eax, %r9d
 8979 024e 7330     		jnb	.L748
 8980              	.LVL869:
 8981              	.L707:
2176:fltk-1.3.4-1/png/pngwutil.c ****                value = (int)(*sp >> (7 - (int)(i & 0x07))) & 0x01;
 8982              		.loc 1 2176 16 is_stmt 1 view .LVU2699
2177:fltk-1.3.4-1/png/pngwutil.c ****                d |= (value << shift);
 8983              		.loc 1 2177 16 view .LVU2700
2178:fltk-1.3.4-1/png/pngwutil.c **** 
 8984              		.loc 1 2178 16 view .LVU2701
2176:fltk-1.3.4-1/png/pngwutil.c ****                value = (int)(*sp >> (7 - (int)(i & 0x07))) & 0x01;
 8985              		.loc 1 2176 42 is_stmt 0 view .LVU2702
 8986 0250 4489CA   		movl	%r9d, %edx
2177:fltk-1.3.4-1/png/pngwutil.c ****                d |= (value << shift);
 8987              		.loc 1 2177 40 view .LVU2703
 8988 0253 4489C9   		movl	%r9d, %ecx
2176:fltk-1.3.4-1/png/pngwutil.c ****                value = (int)(*sp >> (7 - (int)(i & 0x07))) & 0x01;
 8989              		.loc 1 2176 42 view .LVU2704
 8990 0256 C1EA03   		shrl	$3, %edx
2177:fltk-1.3.4-1/png/pngwutil.c ****                d |= (value << shift);
 8991              		.loc 1 2177 40 view .LVU2705
 8992 0259 F7D1     		notl	%ecx
2177:fltk-1.3.4-1/png/pngwutil.c ****                d |= (value << shift);
 8993              		.loc 1 2177 30 view .LVU2706
 8994 025b 0FB61416 		movzbl	(%rsi,%rdx), %edx
2177:fltk-1.3.4-1/png/pngwutil.c ****                d |= (value << shift);
 8995              		.loc 1 2177 40 view .LVU2707
 8996 025f 83E107   		andl	$7, %ecx
2177:fltk-1.3.4-1/png/pngwutil.c ****                d |= (value << shift);
 8997              		.loc 1 2177 24 view .LVU2708
 8998 0262 D3FA     		sarl	%cl, %edx
2178:fltk-1.3.4-1/png/pngwutil.c **** 
 8999              		.loc 1 2178 28 view .LVU2709
 9000 0264 4489D1   		movl	%r10d, %ecx
2177:fltk-1.3.4-1/png/pngwutil.c ****                d |= (value << shift);
 9001              		.loc 1 2177 22 view .LVU2710
 9002 0267 83E201   		andl	$1, %edx
2178:fltk-1.3.4-1/png/pngwutil.c **** 
 9003              		.loc 1 2178 28 view .LVU2711
 9004 026a D3E2     		sall	%cl, %edx
2178:fltk-1.3.4-1/png/pngwutil.c **** 
 9005              		.loc 1 2178 18 view .LVU2712
 9006 026c 4109D3   		orl	%edx, %r11d
 9007              	.LVL870:
2180:fltk-1.3.4-1/png/pngwutil.c ****                {
 9008              		.loc 1 2180 16 is_stmt 1 view .LVU2713
2180:fltk-1.3.4-1/png/pngwutil.c ****                {
 9009              		.loc 1 2180 19 is_stmt 0 view .LVU2714
 9010 026f 4585D2   		testl	%r10d, %r10d
 9011 0272 74C4     		je	.L749
2188:fltk-1.3.4-1/png/pngwutil.c **** 
 9012              		.loc 1 2188 19 is_stmt 1 view .LVU2715
2174:fltk-1.3.4-1/png/pngwutil.c ****             {
 9013              		.loc 1 2174 18 is_stmt 0 view .LVU2716
 9014 0274 4501C1   		addl	%r8d, %r9d
 9015              	.LVL871:
2188:fltk-1.3.4-1/png/pngwutil.c **** 
 9016              		.loc 1 2188 24 view .LVU2717
 9017 0277 4183EA01 		subl	$1, %r10d
 9018              	.LVL872:
2174:fltk-1.3.4-1/png/pngwutil.c ****             {
 9019              		.loc 1 2174 16 is_stmt 1 view .LVU2718
2173:fltk-1.3.4-1/png/pngwutil.c ****                i += png_pass_inc[pass])
 9020              		.loc 1 2173 44 view .LVU2719
2173:fltk-1.3.4-1/png/pngwutil.c ****                i += png_pass_inc[pass])
 9021              		.loc 1 2173 13 is_stmt 0 view .LVU2720
 9022 027b 4139C1   		cmpl	%eax, %r9d
 9023 027e 72D0     		jb	.L707
 9024              	.L748:
2191:fltk-1.3.4-1/png/pngwutil.c ****                *dp = (png_byte)d;
 9025              		.loc 1 2191 13 is_stmt 1 view .LVU2721
2191:fltk-1.3.4-1/png/pngwutil.c ****                *dp = (png_byte)d;
 9026              		.loc 1 2191 16 is_stmt 0 view .LVU2722
 9027 0280 4183FA07 		cmpl	$7, %r10d
 9028 0284 0F84A6FE 		je	.L741
 9028      FFFF
 9029              	.LVL873:
 9030              	.L713:
2191:fltk-1.3.4-1/png/pngwutil.c ****                *dp = (png_byte)d;
 9031              		.loc 1 2191 16 view .LVU2723
 9032              	.LBE610:
 9033              	.LBB611:
2229:fltk-1.3.4-1/png/pngwutil.c **** 
 9034              		.loc 1 2229 16 is_stmt 1 view .LVU2724
2229:fltk-1.3.4-1/png/pngwutil.c **** 
 9035              		.loc 1 2229 22 is_stmt 0 view .LVU2725
 9036 028a 44881B   		movb	%r11b, (%rbx)
 9037 028d 8B07     		movl	(%rdi), %eax
 9038 028f 0FB64F13 		movzbl	19(%rdi), %ecx
 9039 0293 E99EFEFF 		jmp	.L709
 9039      FF
 9040 0298 0F1F8400 		.p2align 4,,10
 9040      00000000 
 9041              		.p2align 3
 9042              	.L702:
2229:fltk-1.3.4-1/png/pngwutil.c **** 
 9043              		.loc 1 2229 22 view .LVU2726
 9044              	.LBE611:
 9045              	.LBB612:
2236:fltk-1.3.4-1/png/pngwutil.c ****             png_bytep dp;
 9046              		.loc 1 2236 13 is_stmt 1 view .LVU2727
2237:fltk-1.3.4-1/png/pngwutil.c ****             int shift;
 9047              		.loc 1 2237 13 view .LVU2728
2238:fltk-1.3.4-1/png/pngwutil.c ****             int d;
 9048              		.loc 1 2238 13 view .LVU2729
2239:fltk-1.3.4-1/png/pngwutil.c ****             int value;
 9049              		.loc 1 2239 13 view .LVU2730
2240:fltk-1.3.4-1/png/pngwutil.c ****             png_uint_32 i;
 9050              		.loc 1 2240 13 view .LVU2731
2241:fltk-1.3.4-1/png/pngwutil.c ****             png_uint_32 row_width = row_info->width;
 9051              		.loc 1 2241 13 view .LVU2732
2242:fltk-1.3.4-1/png/pngwutil.c **** 
 9052              		.loc 1 2242 13 view .LVU2733
 9053              	.LVL874:
2244:fltk-1.3.4-1/png/pngwutil.c ****             shift = 4;
 9054              		.loc 1 2244 13 view .LVU2734
2245:fltk-1.3.4-1/png/pngwutil.c ****             d = 0;
 9055              		.loc 1 2245 13 view .LVU2735
2246:fltk-1.3.4-1/png/pngwutil.c ****             for (i = png_pass_start[pass]; i < row_width;
 9056              		.loc 1 2246 13 view .LVU2736
2247:fltk-1.3.4-1/png/pngwutil.c ****                 i += png_pass_inc[pass])
 9057              		.loc 1 2247 13 view .LVU2737
2247:fltk-1.3.4-1/png/pngwutil.c ****                 i += png_pass_inc[pass])
 9058              		.loc 1 2247 44 view .LVU2738
2247:fltk-1.3.4-1/png/pngwutil.c ****                 i += png_pass_inc[pass])
 9059              		.loc 1 2247 13 is_stmt 0 view .LVU2739
 9060 02a0 4439E0   		cmpl	%r12d, %eax
 9061 02a3 0F86CFFE 		jbe	.L704
 9061      FFFF
 9062 02a9 4589E1   		movl	%r12d, %r9d
2244:fltk-1.3.4-1/png/pngwutil.c ****             shift = 4;
 9063              		.loc 1 2244 16 view .LVU2740
 9064 02ac 4989F3   		movq	%rsi, %r11
2246:fltk-1.3.4-1/png/pngwutil.c ****             for (i = png_pass_start[pass]; i < row_width;
 9065              		.loc 1 2246 15 view .LVU2741
 9066 02af 4531D2   		xorl	%r10d, %r10d
2245:fltk-1.3.4-1/png/pngwutil.c ****             d = 0;
 9067              		.loc 1 2245 19 view .LVU2742
 9068 02b2 B9040000 		movl	$4, %ecx
 9068      00
 9069 02b7 EB1E     		jmp	.L717
 9070              	.LVL875:
 9071 02b9 0F1F8000 		.p2align 4,,10
 9071      000000
 9072              		.p2align 3
 9073              	.L751:
2256:fltk-1.3.4-1/png/pngwutil.c ****                   *dp++ = (png_byte)d;
 9074              		.loc 1 2256 19 is_stmt 1 view .LVU2743
2257:fltk-1.3.4-1/png/pngwutil.c ****                   d = 0;
 9075              		.loc 1 2257 19 view .LVU2744
2248:fltk-1.3.4-1/png/pngwutil.c ****             {
 9076              		.loc 1 2248 19 is_stmt 0 view .LVU2745
 9077 02c0 4501C1   		addl	%r8d, %r9d
 9078              	.LVL876:
2257:fltk-1.3.4-1/png/pngwutil.c ****                   d = 0;
 9079              		.loc 1 2257 27 view .LVU2746
 9080 02c3 458813   		movb	%r10b, (%r11)
2258:fltk-1.3.4-1/png/pngwutil.c ****                }
 9081              		.loc 1 2258 19 is_stmt 1 view .LVU2747
 9082              	.LVL877:
2256:fltk-1.3.4-1/png/pngwutil.c ****                   *dp++ = (png_byte)d;
 9083              		.loc 1 2256 25 is_stmt 0 view .LVU2748
 9084 02c6 B9040000 		movl	$4, %ecx
 9084      00
2258:fltk-1.3.4-1/png/pngwutil.c ****                }
 9085              		.loc 1 2258 21 view .LVU2749
 9086 02cb 4531D2   		xorl	%r10d, %r10d
 9087              	.LVL878:
2257:fltk-1.3.4-1/png/pngwutil.c ****                   d = 0;
 9088              		.loc 1 2257 22 view .LVU2750
 9089 02ce 4983C301 		addq	$1, %r11
 9090              	.LVL879:
2248:fltk-1.3.4-1/png/pngwutil.c ****             {
 9091              		.loc 1 2248 17 is_stmt 1 view .LVU2751
2247:fltk-1.3.4-1/png/pngwutil.c ****                 i += png_pass_inc[pass])
 9092              		.loc 1 2247 44 view .LVU2752
2247:fltk-1.3.4-1/png/pngwutil.c ****                 i += png_pass_inc[pass])
 9093              		.loc 1 2247 13 is_stmt 0 view .LVU2753
 9094 02d2 4139C1   		cmpl	%eax, %r9d
 9095 02d5 732C     		jnb	.L750
 9096              	.LVL880:
 9097              	.L717:
2250:fltk-1.3.4-1/png/pngwutil.c ****                value = (*sp >> ((1 - (int)(i & 0x01)) << 2)) & 0x0f;
 9098              		.loc 1 2250 16 is_stmt 1 view .LVU2754
2251:fltk-1.3.4-1/png/pngwutil.c ****                d |= (value << shift);
 9099              		.loc 1 2251 16 view .LVU2755
2250:fltk-1.3.4-1/png/pngwutil.c ****                value = (*sp >> ((1 - (int)(i & 0x01)) << 2)) & 0x0f;
 9100              		.loc 1 2250 42 is_stmt 0 view .LVU2756
 9101 02d7 4489CA   		movl	%r9d, %edx
 9102 02da D1EA     		shrl	%edx
2251:fltk-1.3.4-1/png/pngwutil.c ****                d |= (value << shift);
 9103              		.loc 1 2251 25 view .LVU2757
 9104 02dc 0FB61416 		movzbl	(%rsi,%rdx), %edx
 9105 02e0 89D3     		movl	%edx, %ebx
 9106 02e2 C1FB04   		sarl	$4, %ebx
 9107 02e5 41F6C101 		testb	$1, %r9b
 9108 02e9 0F44D3   		cmove	%ebx, %edx
 9109              	.LVL881:
2252:fltk-1.3.4-1/png/pngwutil.c **** 
 9110              		.loc 1 2252 16 is_stmt 1 view .LVU2758
2251:fltk-1.3.4-1/png/pngwutil.c ****                d |= (value << shift);
 9111              		.loc 1 2251 22 is_stmt 0 view .LVU2759
 9112 02ec 83E20F   		andl	$15, %edx
 9113              	.LVL882:
2252:fltk-1.3.4-1/png/pngwutil.c **** 
 9114              		.loc 1 2252 28 view .LVU2760
 9115 02ef D3E2     		sall	%cl, %edx
 9116              	.LVL883:
2252:fltk-1.3.4-1/png/pngwutil.c **** 
 9117              		.loc 1 2252 18 view .LVU2761
 9118 02f1 4109D2   		orl	%edx, %r10d
 9119              	.LVL884:
2254:fltk-1.3.4-1/png/pngwutil.c ****                {
 9120              		.loc 1 2254 16 is_stmt 1 view .LVU2762
2254:fltk-1.3.4-1/png/pngwutil.c ****                {
 9121              		.loc 1 2254 19 is_stmt 0 view .LVU2763
 9122 02f4 85C9     		testl	%ecx, %ecx
 9123 02f6 74C8     		je	.L751
2262:fltk-1.3.4-1/png/pngwutil.c ****             }
 9124              		.loc 1 2262 19 is_stmt 1 view .LVU2764
2248:fltk-1.3.4-1/png/pngwutil.c ****             {
 9125              		.loc 1 2248 19 is_stmt 0 view .LVU2765
 9126 02f8 4501C1   		addl	%r8d, %r9d
 9127              	.LVL885:
2262:fltk-1.3.4-1/png/pngwutil.c ****             }
 9128              		.loc 1 2262 25 view .LVU2766
 9129 02fb 83E904   		subl	$4, %ecx
 9130              	.LVL886:
2248:fltk-1.3.4-1/png/pngwutil.c ****             {
 9131              		.loc 1 2248 17 is_stmt 1 view .LVU2767
2247:fltk-1.3.4-1/png/pngwutil.c ****                 i += png_pass_inc[pass])
 9132              		.loc 1 2247 44 view .LVU2768
2247:fltk-1.3.4-1/png/pngwutil.c ****                 i += png_pass_inc[pass])
 9133              		.loc 1 2247 13 is_stmt 0 view .LVU2769
 9134 02fe 4139C1   		cmpl	%eax, %r9d
 9135 0301 72D4     		jb	.L717
 9136              	.L750:
2264:fltk-1.3.4-1/png/pngwutil.c ****                *dp = (png_byte)d;
 9137              		.loc 1 2264 13 is_stmt 1 view .LVU2770
2264:fltk-1.3.4-1/png/pngwutil.c ****                *dp = (png_byte)d;
 9138              		.loc 1 2264 16 is_stmt 0 view .LVU2771
 9139 0303 83F904   		cmpl	$4, %ecx
 9140 0306 0F8424FE 		je	.L741
 9140      FFFF
2265:fltk-1.3.4-1/png/pngwutil.c **** 
 9141              		.loc 1 2265 16 is_stmt 1 view .LVU2772
2265:fltk-1.3.4-1/png/pngwutil.c **** 
 9142              		.loc 1 2265 22 is_stmt 0 view .LVU2773
 9143 030c 458813   		movb	%r10b, (%r11)
 9144 030f 8B07     		movl	(%rdi), %eax
 9145 0311 0FB64F13 		movzbl	19(%rdi), %ecx
 9146              	.LVL887:
2265:fltk-1.3.4-1/png/pngwutil.c **** 
 9147              		.loc 1 2265 22 view .LVU2774
 9148 0315 E91CFEFF 		jmp	.L709
 9148      FF
 9149              	.LVL888:
 9150 031a 660F1F44 		.p2align 4,,10
 9150      0000
 9151              		.p2align 3
 9152              	.L743:
2265:fltk-1.3.4-1/png/pngwutil.c **** 
 9153              		.loc 1 2265 22 view .LVU2775
 9154              	.LBE612:
 9155              	.LBB613:
 9156              	.LBB608:
 9157              	.LBB605:
  34:/usr/include/x86_64-linux-gnu/bits/string_fortified.h **** }
 9158              		.loc 2 34 10 view .LVU2776
 9159 0320 448B19   		movl	(%rcx), %r11d
 9160 0323 44891A   		movl	%r11d, (%rdx)
 9161 0326 428B4C31 		movl	-4(%rcx,%r14), %ecx
 9161      FC
 9162              	.LVL889:
  34:/usr/include/x86_64-linux-gnu/bits/string_fortified.h **** }
 9163              		.loc 2 34 10 view .LVU2777
 9164 032b 42894C32 		movl	%ecx, -4(%rdx,%r14)
 9164      FC
 9165 0330 E97BFDFF 		jmp	.L719
 9165      FF
 9166              	.LVL890:
 9167              		.p2align 4,,10
 9168 0335 0F1F00   		.p2align 3
 9169              	.L744:
  34:/usr/include/x86_64-linux-gnu/bits/string_fortified.h **** }
 9170              		.loc 2 34 10 view .LVU2778
 9171 0338 420FB74C 		movzwl	-2(%rcx,%r14), %ecx
 9171      31FE
 9172              	.LVL891:
  34:/usr/include/x86_64-linux-gnu/bits/string_fortified.h **** }
 9173              		.loc 2 34 10 view .LVU2779
 9174 033e 6642894C 		movw	%cx, -2(%rdx,%r14)
 9174      32FE
 9175 0344 E967FDFF 		jmp	.L719
 9175      FF
 9176              	.LBE605:
 9177              	.LBE608:
 9178              	.LBE613:
 9179              		.cfi_endproc
 9180              	.LFE81:
 9182              		.section	.text.png_write_find_filter,"ax",@progbits
 9183              		.p2align 4
 9184              		.globl	png_write_find_filter
 9186              	png_write_find_filter:
 9187              	.LVL892:
 9188              	.LFB82:
2311:fltk-1.3.4-1/png/pngwutil.c **** #endif
2312:fltk-1.3.4-1/png/pngwutil.c **** 
2313:fltk-1.3.4-1/png/pngwutil.c **** /* This filters the row, chooses which filter to use, if it has not already
2314:fltk-1.3.4-1/png/pngwutil.c ****  * been specified by the application, and then writes the row out with the
2315:fltk-1.3.4-1/png/pngwutil.c ****  * chosen filter.
2316:fltk-1.3.4-1/png/pngwutil.c ****  */
2317:fltk-1.3.4-1/png/pngwutil.c **** static void
2318:fltk-1.3.4-1/png/pngwutil.c **** png_write_filtered_row(png_structrp png_ptr, png_bytep filtered_row,
2319:fltk-1.3.4-1/png/pngwutil.c ****    png_size_t row_bytes);
2320:fltk-1.3.4-1/png/pngwutil.c **** 
2321:fltk-1.3.4-1/png/pngwutil.c **** #define PNG_MAXSUM (((png_uint_32)(-1)) >> 1)
2322:fltk-1.3.4-1/png/pngwutil.c **** #define PNG_HISHIFT 10
2323:fltk-1.3.4-1/png/pngwutil.c **** #define PNG_LOMASK ((png_uint_32)0xffffL)
2324:fltk-1.3.4-1/png/pngwutil.c **** #define PNG_HIMASK ((png_uint_32)(~PNG_LOMASK >> PNG_HISHIFT))
2325:fltk-1.3.4-1/png/pngwutil.c **** void /* PRIVATE */
2326:fltk-1.3.4-1/png/pngwutil.c **** png_write_find_filter(png_structrp png_ptr, png_row_infop row_info)
2327:fltk-1.3.4-1/png/pngwutil.c **** {
 9189              		.loc 1 2327 1 is_stmt 1 view -0
 9190              		.cfi_startproc
 9191              		.loc 1 2327 1 is_stmt 0 view .LVU2781
 9192 0000 F30F1EFA 		endbr64
2328:fltk-1.3.4-1/png/pngwutil.c ****    png_bytep best_row;
 9193              		.loc 1 2328 4 is_stmt 1 view .LVU2782
2329:fltk-1.3.4-1/png/pngwutil.c **** #ifdef PNG_WRITE_FILTER_SUPPORTED
2330:fltk-1.3.4-1/png/pngwutil.c ****    png_bytep prev_row, row_buf;
 9194              		.loc 1 2330 4 view .LVU2783
2331:fltk-1.3.4-1/png/pngwutil.c ****    png_uint_32 mins, bpp;
 9195              		.loc 1 2331 4 view .LVU2784
2332:fltk-1.3.4-1/png/pngwutil.c ****    png_byte filter_to_do = png_ptr->do_filter;
 9196              		.loc 1 2332 4 view .LVU2785
2327:fltk-1.3.4-1/png/pngwutil.c ****    png_bytep best_row;
 9197              		.loc 1 2327 1 is_stmt 0 view .LVU2786
 9198 0004 4157     		pushq	%r15
 9199              		.cfi_def_cfa_offset 16
 9200              		.cfi_offset 15, -16
 9201 0006 4889F0   		movq	%rsi, %rax
 9202 0009 4156     		pushq	%r14
 9203              		.cfi_def_cfa_offset 24
 9204              		.cfi_offset 14, -24
 9205 000b 4155     		pushq	%r13
 9206              		.cfi_def_cfa_offset 32
 9207              		.cfi_offset 13, -32
 9208 000d 4154     		pushq	%r12
 9209              		.cfi_def_cfa_offset 40
 9210              		.cfi_offset 12, -40
 9211 000f 55       		pushq	%rbp
 9212              		.cfi_def_cfa_offset 48
 9213              		.cfi_offset 6, -48
 9214 0010 53       		pushq	%rbx
 9215              		.cfi_def_cfa_offset 56
 9216              		.cfi_offset 3, -56
 9217 0011 4889FB   		movq	%rdi, %rbx
 9218 0014 4883EC48 		subq	$72, %rsp
 9219              		.cfi_def_cfa_offset 128
2333:fltk-1.3.4-1/png/pngwutil.c ****    png_size_t row_bytes = row_info->rowbytes;
2334:fltk-1.3.4-1/png/pngwutil.c **** #ifdef PNG_WRITE_WEIGHTED_FILTER_SUPPORTED
2335:fltk-1.3.4-1/png/pngwutil.c ****    int num_p_filters = png_ptr->num_prev_filters;
2336:fltk-1.3.4-1/png/pngwutil.c **** #endif
2337:fltk-1.3.4-1/png/pngwutil.c **** 
2338:fltk-1.3.4-1/png/pngwutil.c ****    png_debug(1, "in png_write_find_filter");
2339:fltk-1.3.4-1/png/pngwutil.c **** 
2340:fltk-1.3.4-1/png/pngwutil.c **** #ifndef PNG_WRITE_WEIGHTED_FILTER_SUPPORTED
2341:fltk-1.3.4-1/png/pngwutil.c ****   if (png_ptr->row_number == 0 && filter_to_do == PNG_ALL_FILTERS)
2342:fltk-1.3.4-1/png/pngwutil.c ****   {
2343:fltk-1.3.4-1/png/pngwutil.c ****      /* These will never be selected so we need not test them. */
2344:fltk-1.3.4-1/png/pngwutil.c ****      filter_to_do &= ~(PNG_FILTER_UP | PNG_FILTER_PAETH);
2345:fltk-1.3.4-1/png/pngwutil.c ****   }
2346:fltk-1.3.4-1/png/pngwutil.c **** #endif
2347:fltk-1.3.4-1/png/pngwutil.c **** 
2348:fltk-1.3.4-1/png/pngwutil.c ****    /* Find out how many bytes offset each pixel is */
2349:fltk-1.3.4-1/png/pngwutil.c ****    bpp = (row_info->pixel_depth + 7) >> 3;
 9220              		.loc 1 2349 19 view .LVU2787
 9221 0018 0FB64013 		movzbl	19(%rax), %eax
2332:fltk-1.3.4-1/png/pngwutil.c ****    png_size_t row_bytes = row_info->rowbytes;
 9222              		.loc 1 2332 13 view .LVU2788
 9223 001c 0FB6BF76 		movzbl	630(%rdi), %edi
 9223      020000
 9224              	.LVL893:
2327:fltk-1.3.4-1/png/pngwutil.c ****    png_bytep best_row;
 9225              		.loc 1 2327 1 view .LVU2789
 9226 0023 48897424 		movq	%rsi, 32(%rsp)
 9226      20
2333:fltk-1.3.4-1/png/pngwutil.c ****    png_size_t row_bytes = row_info->rowbytes;
 9227              		.loc 1 2333 15 view .LVU2790
 9228 0028 4C8B4E08 		movq	8(%rsi), %r9
 9229              		.loc 1 2349 33 view .LVU2791
 9230 002c 83C007   		addl	$7, %eax
2335:fltk-1.3.4-1/png/pngwutil.c **** #endif
 9231              		.loc 1 2335 31 view .LVU2792
 9232 002f 0FB6B399 		movzbl	921(%rbx), %esi
 9232      030000
 9233              	.LVL894:
2332:fltk-1.3.4-1/png/pngwutil.c ****    png_size_t row_bytes = row_info->rowbytes;
 9234              		.loc 1 2332 13 view .LVU2793
 9235 0036 40883C24 		movb	%dil, (%rsp)
 9236              	.LVL895:
2333:fltk-1.3.4-1/png/pngwutil.c ****    png_size_t row_bytes = row_info->rowbytes;
 9237              		.loc 1 2333 4 is_stmt 1 view .LVU2794
2335:fltk-1.3.4-1/png/pngwutil.c **** #endif
 9238              		.loc 1 2335 4 view .LVU2795
 9239              		.loc 1 2349 38 is_stmt 0 view .LVU2796
 9240 003a C1F803   		sarl	$3, %eax
2335:fltk-1.3.4-1/png/pngwutil.c **** #endif
 9241              		.loc 1 2335 31 view .LVU2797
 9242 003d 40887424 		movb	%sil, 59(%rsp)
 9242      3B
2335:fltk-1.3.4-1/png/pngwutil.c **** #endif
 9243              		.loc 1 2335 8 view .LVU2798
 9244 0042 8974241C 		movl	%esi, 28(%rsp)
 9245              	.LVL896:
2338:fltk-1.3.4-1/png/pngwutil.c **** 
 9246              		.loc 1 2338 4 is_stmt 1 view .LVU2799
 9247              		.loc 1 2349 4 view .LVU2800
2350:fltk-1.3.4-1/png/pngwutil.c **** 
2351:fltk-1.3.4-1/png/pngwutil.c ****    prev_row = png_ptr->prev_row;
 9248              		.loc 1 2351 13 is_stmt 0 view .LVU2801
 9249 0046 488BB320 		movq	544(%rbx), %rsi
 9249      020000
 9250              	.LVL897:
2349:fltk-1.3.4-1/png/pngwutil.c **** 
 9251              		.loc 1 2349 38 view .LVU2802
 9252 004d 89442410 		movl	%eax, 16(%rsp)
 9253              	.LVL898:
 9254              		.loc 1 2351 4 is_stmt 1 view .LVU2803
2352:fltk-1.3.4-1/png/pngwutil.c **** #endif
2353:fltk-1.3.4-1/png/pngwutil.c ****    best_row = png_ptr->row_buf;
 9255              		.loc 1 2353 4 view .LVU2804
 9256              		.loc 1 2353 13 is_stmt 0 view .LVU2805
 9257 0051 488B8328 		movq	552(%rbx), %rax
 9257      020000
 9258              	.LVL899:
2354:fltk-1.3.4-1/png/pngwutil.c **** #ifdef PNG_WRITE_FILTER_SUPPORTED
2355:fltk-1.3.4-1/png/pngwutil.c ****    row_buf = best_row;
 9259              		.loc 1 2355 4 is_stmt 1 view .LVU2806
2356:fltk-1.3.4-1/png/pngwutil.c ****    mins = PNG_MAXSUM;
 9260              		.loc 1 2356 4 view .LVU2807
2357:fltk-1.3.4-1/png/pngwutil.c **** 
2358:fltk-1.3.4-1/png/pngwutil.c ****    /* The prediction method we use is to find which method provides the
2359:fltk-1.3.4-1/png/pngwutil.c ****     * smallest value when summing the absolute values of the distances
2360:fltk-1.3.4-1/png/pngwutil.c ****     * from zero, using anything >= 128 as negative numbers.  This is known
2361:fltk-1.3.4-1/png/pngwutil.c ****     * as the "minimum sum of absolute differences" heuristic.  Other
2362:fltk-1.3.4-1/png/pngwutil.c ****     * heuristics are the "weighted minimum sum of absolute differences"
2363:fltk-1.3.4-1/png/pngwutil.c ****     * (experimental and can in theory improve compression), and the "zlib
2364:fltk-1.3.4-1/png/pngwutil.c ****     * predictive" method (not implemented yet), which does test compressions
2365:fltk-1.3.4-1/png/pngwutil.c ****     * of lines using different filter methods, and then chooses the
2366:fltk-1.3.4-1/png/pngwutil.c ****     * (series of) filter(s) that give minimum compressed data size (VERY
2367:fltk-1.3.4-1/png/pngwutil.c ****     * computationally expensive).
2368:fltk-1.3.4-1/png/pngwutil.c ****     *
2369:fltk-1.3.4-1/png/pngwutil.c ****     * GRR 980525:  consider also
2370:fltk-1.3.4-1/png/pngwutil.c ****     *
2371:fltk-1.3.4-1/png/pngwutil.c ****     *   (1) minimum sum of absolute differences from running average (i.e.,
2372:fltk-1.3.4-1/png/pngwutil.c ****     *       keep running sum of non-absolute differences & count of bytes)
2373:fltk-1.3.4-1/png/pngwutil.c ****     *       [track dispersion, too?  restart average if dispersion too large?]
2374:fltk-1.3.4-1/png/pngwutil.c ****     *
2375:fltk-1.3.4-1/png/pngwutil.c ****     *  (1b) minimum sum of absolute differences from sliding average, probably
2376:fltk-1.3.4-1/png/pngwutil.c ****     *       with window size <= deflate window (usually 32K)
2377:fltk-1.3.4-1/png/pngwutil.c ****     *
2378:fltk-1.3.4-1/png/pngwutil.c ****     *   (2) minimum sum of squared differences from zero or running average
2379:fltk-1.3.4-1/png/pngwutil.c ****     *       (i.e., ~ root-mean-square approach)
2380:fltk-1.3.4-1/png/pngwutil.c ****     */
2381:fltk-1.3.4-1/png/pngwutil.c **** 
2382:fltk-1.3.4-1/png/pngwutil.c **** 
2383:fltk-1.3.4-1/png/pngwutil.c ****    /* We don't need to test the 'no filter' case if this is the only filter
2384:fltk-1.3.4-1/png/pngwutil.c ****     * that has been chosen, as it doesn't actually do anything to the data.
2385:fltk-1.3.4-1/png/pngwutil.c ****     */
2386:fltk-1.3.4-1/png/pngwutil.c ****    if ((filter_to_do & PNG_FILTER_NONE) != 0 && filter_to_do != PNG_FILTER_NONE)
 9261              		.loc 1 2386 4 view .LVU2808
 9262              		.loc 1 2386 46 is_stmt 0 view .LVU2809
 9263 0058 40F6C708 		testb	$8, %dil
 9264 005c 740A     		je	.L857
 9265 005e 4080FF08 		cmpb	$8, %dil
 9266 0062 0F852002 		jne	.L972
 9266      0000
 9267              	.L857:
2356:fltk-1.3.4-1/png/pngwutil.c ****    mins = PNG_MAXSUM;
 9268              		.loc 1 2356 9 view .LVU2810
 9269 0068 41BFFFFF 		movl	$2147483647, %r15d
 9269      FF7F
 9270              	.LVL900:
 9271              	.L753:
2387:fltk-1.3.4-1/png/pngwutil.c ****    {
2388:fltk-1.3.4-1/png/pngwutil.c ****       png_bytep rp;
2389:fltk-1.3.4-1/png/pngwutil.c ****       png_uint_32 sum = 0;
2390:fltk-1.3.4-1/png/pngwutil.c ****       png_size_t i;
2391:fltk-1.3.4-1/png/pngwutil.c ****       int v;
2392:fltk-1.3.4-1/png/pngwutil.c **** 
2393:fltk-1.3.4-1/png/pngwutil.c ****       for (i = 0, rp = row_buf + 1; i < row_bytes; i++, rp++)
2394:fltk-1.3.4-1/png/pngwutil.c ****       {
2395:fltk-1.3.4-1/png/pngwutil.c ****          v = *rp;
2396:fltk-1.3.4-1/png/pngwutil.c ****          sum += (v < 128) ? v : 256 - v;
2397:fltk-1.3.4-1/png/pngwutil.c ****       }
2398:fltk-1.3.4-1/png/pngwutil.c **** 
2399:fltk-1.3.4-1/png/pngwutil.c **** #ifdef PNG_WRITE_WEIGHTED_FILTER_SUPPORTED
2400:fltk-1.3.4-1/png/pngwutil.c ****       if (png_ptr->heuristic_method == PNG_FILTER_HEURISTIC_WEIGHTED)
2401:fltk-1.3.4-1/png/pngwutil.c ****       {
2402:fltk-1.3.4-1/png/pngwutil.c ****          png_uint_32 sumhi, sumlo;
2403:fltk-1.3.4-1/png/pngwutil.c ****          int j;
2404:fltk-1.3.4-1/png/pngwutil.c ****          sumlo = sum & PNG_LOMASK;
2405:fltk-1.3.4-1/png/pngwutil.c ****          sumhi = (sum >> PNG_HISHIFT) & PNG_HIMASK; /* Gives us some footroom */
2406:fltk-1.3.4-1/png/pngwutil.c **** 
2407:fltk-1.3.4-1/png/pngwutil.c ****          /* Reduce the sum if we match any of the previous rows */
2408:fltk-1.3.4-1/png/pngwutil.c ****          for (j = 0; j < num_p_filters; j++)
2409:fltk-1.3.4-1/png/pngwutil.c ****          {
2410:fltk-1.3.4-1/png/pngwutil.c ****             if (png_ptr->prev_filters[j] == PNG_FILTER_VALUE_NONE)
2411:fltk-1.3.4-1/png/pngwutil.c ****             {
2412:fltk-1.3.4-1/png/pngwutil.c ****                sumlo = (sumlo * png_ptr->filter_weights[j]) >>
2413:fltk-1.3.4-1/png/pngwutil.c ****                    PNG_WEIGHT_SHIFT;
2414:fltk-1.3.4-1/png/pngwutil.c **** 
2415:fltk-1.3.4-1/png/pngwutil.c ****                sumhi = (sumhi * png_ptr->filter_weights[j]) >>
2416:fltk-1.3.4-1/png/pngwutil.c ****                    PNG_WEIGHT_SHIFT;
2417:fltk-1.3.4-1/png/pngwutil.c ****             }
2418:fltk-1.3.4-1/png/pngwutil.c ****          }
2419:fltk-1.3.4-1/png/pngwutil.c **** 
2420:fltk-1.3.4-1/png/pngwutil.c ****          /* Factor in the cost of this filter (this is here for completeness,
2421:fltk-1.3.4-1/png/pngwutil.c ****           * but it makes no sense to have a "cost" for the NONE filter, as
2422:fltk-1.3.4-1/png/pngwutil.c ****           * it has the minimum possible computational cost - none).
2423:fltk-1.3.4-1/png/pngwutil.c ****           */
2424:fltk-1.3.4-1/png/pngwutil.c ****          sumlo = (sumlo * png_ptr->filter_costs[PNG_FILTER_VALUE_NONE]) >>
2425:fltk-1.3.4-1/png/pngwutil.c ****              PNG_COST_SHIFT;
2426:fltk-1.3.4-1/png/pngwutil.c **** 
2427:fltk-1.3.4-1/png/pngwutil.c ****          sumhi = (sumhi * png_ptr->filter_costs[PNG_FILTER_VALUE_NONE]) >>
2428:fltk-1.3.4-1/png/pngwutil.c ****              PNG_COST_SHIFT;
2429:fltk-1.3.4-1/png/pngwutil.c **** 
2430:fltk-1.3.4-1/png/pngwutil.c ****          if (sumhi > PNG_HIMASK)
2431:fltk-1.3.4-1/png/pngwutil.c ****             sum = PNG_MAXSUM;
2432:fltk-1.3.4-1/png/pngwutil.c **** 
2433:fltk-1.3.4-1/png/pngwutil.c ****          else
2434:fltk-1.3.4-1/png/pngwutil.c ****             sum = (sumhi << PNG_HISHIFT) + sumlo;
2435:fltk-1.3.4-1/png/pngwutil.c ****       }
2436:fltk-1.3.4-1/png/pngwutil.c **** #endif
2437:fltk-1.3.4-1/png/pngwutil.c ****       mins = sum;
2438:fltk-1.3.4-1/png/pngwutil.c ****    }
2439:fltk-1.3.4-1/png/pngwutil.c **** 
2440:fltk-1.3.4-1/png/pngwutil.c ****    /* Sub filter */
2441:fltk-1.3.4-1/png/pngwutil.c ****    if (filter_to_do == PNG_FILTER_SUB)
 9272              		.loc 1 2441 4 is_stmt 1 view .LVU2811
 9273              		.loc 1 2441 7 is_stmt 0 view .LVU2812
 9274 006e 803C2410 		cmpb	$16, (%rsp)
 9275 0072 0F843804 		je	.L973
 9275      0000
2442:fltk-1.3.4-1/png/pngwutil.c ****    /* It's the only filter so no testing is needed */
2443:fltk-1.3.4-1/png/pngwutil.c ****    {
2444:fltk-1.3.4-1/png/pngwutil.c ****       png_bytep rp, lp, dp;
2445:fltk-1.3.4-1/png/pngwutil.c ****       png_size_t i;
2446:fltk-1.3.4-1/png/pngwutil.c **** 
2447:fltk-1.3.4-1/png/pngwutil.c ****       for (i = 0, rp = row_buf + 1, dp = png_ptr->sub_row + 1; i < bpp;
2448:fltk-1.3.4-1/png/pngwutil.c ****            i++, rp++, dp++)
2449:fltk-1.3.4-1/png/pngwutil.c ****       {
2450:fltk-1.3.4-1/png/pngwutil.c ****          *dp = *rp;
2451:fltk-1.3.4-1/png/pngwutil.c ****       }
2452:fltk-1.3.4-1/png/pngwutil.c **** 
2453:fltk-1.3.4-1/png/pngwutil.c ****       for (lp = row_buf + 1; i < row_bytes;
2454:fltk-1.3.4-1/png/pngwutil.c ****          i++, rp++, lp++, dp++)
2455:fltk-1.3.4-1/png/pngwutil.c ****       {
2456:fltk-1.3.4-1/png/pngwutil.c ****          *dp = (png_byte)(((int)*rp - (int)*lp) & 0xff);
2457:fltk-1.3.4-1/png/pngwutil.c ****       }
2458:fltk-1.3.4-1/png/pngwutil.c **** 
2459:fltk-1.3.4-1/png/pngwutil.c ****       best_row = png_ptr->sub_row;
2460:fltk-1.3.4-1/png/pngwutil.c ****    }
2461:fltk-1.3.4-1/png/pngwutil.c **** 
2462:fltk-1.3.4-1/png/pngwutil.c ****    else if ((filter_to_do & PNG_FILTER_SUB) != 0)
 9276              		.loc 1 2462 9 is_stmt 1 view .LVU2813
2353:fltk-1.3.4-1/png/pngwutil.c **** #ifdef PNG_WRITE_FILTER_SUPPORTED
 9277              		.loc 1 2353 13 is_stmt 0 view .LVU2814
 9278 0078 48894424 		movq	%rax, 8(%rsp)
 9278      08
 9279              		.loc 1 2462 12 view .LVU2815
 9280 007d F6042410 		testb	$16, (%rsp)
 9281 0081 0F84E000 		je	.L768
 9281      0000
 9282              	.LBB640:
2463:fltk-1.3.4-1/png/pngwutil.c ****    {
2464:fltk-1.3.4-1/png/pngwutil.c ****       png_bytep rp, dp, lp;
 9283              		.loc 1 2464 7 is_stmt 1 view .LVU2816
2465:fltk-1.3.4-1/png/pngwutil.c ****       png_uint_32 sum = 0, lmins = mins;
 9284              		.loc 1 2465 7 view .LVU2817
 9285              	.LVL901:
2466:fltk-1.3.4-1/png/pngwutil.c ****       png_size_t i;
 9286              		.loc 1 2466 7 view .LVU2818
2467:fltk-1.3.4-1/png/pngwutil.c ****       int v;
 9287              		.loc 1 2467 7 view .LVU2819
2468:fltk-1.3.4-1/png/pngwutil.c **** 
2469:fltk-1.3.4-1/png/pngwutil.c **** #ifdef PNG_WRITE_WEIGHTED_FILTER_SUPPORTED
2470:fltk-1.3.4-1/png/pngwutil.c ****       /* We temporarily increase the "minimum sum" by the factor we
2471:fltk-1.3.4-1/png/pngwutil.c ****        * would reduce the sum of this filter, so that we can do the
2472:fltk-1.3.4-1/png/pngwutil.c ****        * early exit comparison without scaling the sum each time.
2473:fltk-1.3.4-1/png/pngwutil.c ****        */
2474:fltk-1.3.4-1/png/pngwutil.c ****       if (png_ptr->heuristic_method == PNG_FILTER_HEURISTIC_WEIGHTED)
 9288              		.loc 1 2474 7 view .LVU2820
 9289              		.loc 1 2474 10 is_stmt 0 view .LVU2821
 9290 0087 80BB9803 		cmpb	$2, 920(%rbx)
 9290      000002
 9291              	.LBB641:
 9292 008e 4589FC   		movl	%r15d, %r12d
 9293              	.LBE641:
 9294 0091 0F84490B 		je	.L974
 9294      0000
 9295              	.L769:
 9296              	.LVL902:
2475:fltk-1.3.4-1/png/pngwutil.c ****       {
2476:fltk-1.3.4-1/png/pngwutil.c ****          int j;
2477:fltk-1.3.4-1/png/pngwutil.c ****          png_uint_32 lmhi, lmlo;
2478:fltk-1.3.4-1/png/pngwutil.c ****          lmlo = lmins & PNG_LOMASK;
2479:fltk-1.3.4-1/png/pngwutil.c ****          lmhi = (lmins >> PNG_HISHIFT) & PNG_HIMASK;
2480:fltk-1.3.4-1/png/pngwutil.c **** 
2481:fltk-1.3.4-1/png/pngwutil.c ****          for (j = 0; j < num_p_filters; j++)
2482:fltk-1.3.4-1/png/pngwutil.c ****          {
2483:fltk-1.3.4-1/png/pngwutil.c ****             if (png_ptr->prev_filters[j] == PNG_FILTER_VALUE_SUB)
2484:fltk-1.3.4-1/png/pngwutil.c ****             {
2485:fltk-1.3.4-1/png/pngwutil.c ****                lmlo = (lmlo * png_ptr->inv_filter_weights[j]) >>
2486:fltk-1.3.4-1/png/pngwutil.c ****                    PNG_WEIGHT_SHIFT;
2487:fltk-1.3.4-1/png/pngwutil.c **** 
2488:fltk-1.3.4-1/png/pngwutil.c ****                lmhi = (lmhi * png_ptr->inv_filter_weights[j]) >>
2489:fltk-1.3.4-1/png/pngwutil.c ****                    PNG_WEIGHT_SHIFT;
2490:fltk-1.3.4-1/png/pngwutil.c ****             }
2491:fltk-1.3.4-1/png/pngwutil.c ****          }
2492:fltk-1.3.4-1/png/pngwutil.c **** 
2493:fltk-1.3.4-1/png/pngwutil.c ****          lmlo = (lmlo * png_ptr->inv_filter_costs[PNG_FILTER_VALUE_SUB]) >>
2494:fltk-1.3.4-1/png/pngwutil.c ****              PNG_COST_SHIFT;
2495:fltk-1.3.4-1/png/pngwutil.c **** 
2496:fltk-1.3.4-1/png/pngwutil.c ****          lmhi = (lmhi * png_ptr->inv_filter_costs[PNG_FILTER_VALUE_SUB]) >>
2497:fltk-1.3.4-1/png/pngwutil.c ****              PNG_COST_SHIFT;
2498:fltk-1.3.4-1/png/pngwutil.c **** 
2499:fltk-1.3.4-1/png/pngwutil.c ****          if (lmhi > PNG_HIMASK)
2500:fltk-1.3.4-1/png/pngwutil.c ****             lmins = PNG_MAXSUM;
2501:fltk-1.3.4-1/png/pngwutil.c **** 
2502:fltk-1.3.4-1/png/pngwutil.c ****          else
2503:fltk-1.3.4-1/png/pngwutil.c ****             lmins = (lmhi << PNG_HISHIFT) + lmlo;
2504:fltk-1.3.4-1/png/pngwutil.c ****       }
2505:fltk-1.3.4-1/png/pngwutil.c **** #endif
2506:fltk-1.3.4-1/png/pngwutil.c **** 
2507:fltk-1.3.4-1/png/pngwutil.c ****       for (i = 0, rp = row_buf + 1, dp = png_ptr->sub_row + 1; i < bpp;
 9297              		.loc 1 2507 7 is_stmt 1 view .LVU2822
 9298              		.loc 1 2507 49 is_stmt 0 view .LVU2823
 9299 0097 4C8BAB30 		movq	560(%rbx), %r13
 9299      020000
 9300              		.loc 1 2507 66 view .LVU2824
 9301 009e 4C635424 		movslq	16(%rsp), %r10
 9301      10
 9302              		.loc 1 2507 22 view .LVU2825
 9303 00a3 4C8D5801 		leaq	1(%rax), %r11
 9304              	.LVL903:
 9305              		.loc 1 2507 40 view .LVU2826
 9306 00a7 498D6D01 		leaq	1(%r13), %rbp
 9307              	.LVL904:
 9308              		.loc 1 2507 64 is_stmt 1 view .LVU2827
 9309              		.loc 1 2507 7 is_stmt 0 view .LVU2828
 9310 00ab 4585D2   		testl	%r10d, %r10d
 9311 00ae 0F84030D 		je	.L864
 9311      0000
 9312              		.loc 1 2507 14 view .LVU2829
 9313 00b4 31C9     		xorl	%ecx, %ecx
2465:fltk-1.3.4-1/png/pngwutil.c ****       png_size_t i;
 9314              		.loc 1 2465 19 view .LVU2830
 9315 00b6 31FF     		xorl	%edi, %edi
2508:fltk-1.3.4-1/png/pngwutil.c ****            i++, rp++, dp++)
2509:fltk-1.3.4-1/png/pngwutil.c ****       {
2510:fltk-1.3.4-1/png/pngwutil.c ****          v = *dp = *rp;
2511:fltk-1.3.4-1/png/pngwutil.c **** 
2512:fltk-1.3.4-1/png/pngwutil.c ****          sum += (v < 128) ? v : 256 - v;
 9316              		.loc 1 2512 37 view .LVU2831
 9317 00b8 41BE0001 		movl	$256, %r14d
 9317      0000
 9318              	.LVL905:
 9319 00be 6690     		.p2align 4,,10
 9320              		.p2align 3
 9321              	.L776:
2510:fltk-1.3.4-1/png/pngwutil.c **** 
 9322              		.loc 1 2510 10 is_stmt 1 view .LVU2832
2510:fltk-1.3.4-1/png/pngwutil.c **** 
 9323              		.loc 1 2510 20 is_stmt 0 view .LVU2833
 9324 00c0 0FB65408 		movzbl	1(%rax,%rcx), %edx
 9324      01
 9325              		.loc 1 2512 37 view .LVU2834
 9326 00c5 4589F0   		movl	%r14d, %r8d
 9327 00c8 4129D0   		subl	%edx, %r8d
 9328 00cb 83FA7F   		cmpl	$127, %edx
2510:fltk-1.3.4-1/png/pngwutil.c **** 
 9329              		.loc 1 2510 18 view .LVU2835
 9330 00ce 4188540D 		movb	%dl, 1(%r13,%rcx)
 9330      01
 9331              	.LVL906:
 9332              		.loc 1 2512 10 is_stmt 1 view .LVU2836
 9333              		.loc 1 2512 37 is_stmt 0 view .LVU2837
 9334 00d3 410F4FD0 		cmovg	%r8d, %edx
 9335              	.LVL907:
2508:fltk-1.3.4-1/png/pngwutil.c ****            i++, rp++, dp++)
 9336              		.loc 1 2508 13 view .LVU2838
 9337 00d7 4883C101 		addq	$1, %rcx
 9338              	.LVL908:
 9339              		.loc 1 2512 14 view .LVU2839
 9340 00db 01D7     		addl	%edx, %edi
 9341              	.LVL909:
2508:fltk-1.3.4-1/png/pngwutil.c ****            i++, rp++, dp++)
 9342              		.loc 1 2508 12 is_stmt 1 view .LVU2840
2507:fltk-1.3.4-1/png/pngwutil.c ****            i++, rp++, dp++)
 9343              		.loc 1 2507 64 view .LVU2841
2507:fltk-1.3.4-1/png/pngwutil.c ****            i++, rp++, dp++)
 9344              		.loc 1 2507 7 is_stmt 0 view .LVU2842
 9345 00dd 4C39D1   		cmpq	%r10, %rcx
 9346 00e0 75DE     		jne	.L776
 9347 00e2 4D01D3   		addq	%r10, %r11
 9348 00e5 4C01D5   		addq	%r10, %rbp
 9349              	.LVL910:
 9350              	.L773:
2513:fltk-1.3.4-1/png/pngwutil.c ****       }
2514:fltk-1.3.4-1/png/pngwutil.c **** 
2515:fltk-1.3.4-1/png/pngwutil.c ****       for (lp = row_buf + 1; i < row_bytes;
 9351              		.loc 1 2515 30 is_stmt 1 view .LVU2843
 9352              		.loc 1 2515 7 is_stmt 0 view .LVU2844
 9353 00e8 4D39D1   		cmpq	%r10, %r9
 9354 00eb 7654     		jbe	.L777
 9355 00ed 4D89CE   		movq	%r9, %r14
2516:fltk-1.3.4-1/png/pngwutil.c ****          i++, rp++, lp++, dp++)
2517:fltk-1.3.4-1/png/pngwutil.c ****       {
2518:fltk-1.3.4-1/png/pngwutil.c ****          v = *dp = (png_byte)(((int)*rp - (int)*lp) & 0xff);
2519:fltk-1.3.4-1/png/pngwutil.c **** 
2520:fltk-1.3.4-1/png/pngwutil.c ****          sum += (v < 128) ? v : 256 - v;
 9356              		.loc 1 2520 37 view .LVU2845
 9357 00f0 48897424 		movq	%rsi, 8(%rsp)
 9357      08
2515:fltk-1.3.4-1/png/pngwutil.c ****          i++, rp++, lp++, dp++)
 9358              		.loc 1 2515 7 view .LVU2846
 9359 00f5 31C9     		xorl	%ecx, %ecx
 9360              		.loc 1 2520 37 view .LVU2847
 9361 00f7 41BD0001 		movl	$256, %r13d
 9361      0000
 9362 00fd 4D29D6   		subq	%r10, %r14
 9363 0100 EB0F     		jmp	.L780
 9364              	.LVL911:
 9365              		.p2align 4,,10
 9366 0102 660F1F44 		.p2align 3
 9366      0000
 9367              	.L975:
2516:fltk-1.3.4-1/png/pngwutil.c ****          i++, rp++, lp++, dp++)
 9368              		.loc 1 2516 10 is_stmt 1 view .LVU2848
2515:fltk-1.3.4-1/png/pngwutil.c ****          i++, rp++, lp++, dp++)
 9369              		.loc 1 2515 30 view .LVU2849
 9370 0108 4883C101 		addq	$1, %rcx
 9371              	.LVL912:
2515:fltk-1.3.4-1/png/pngwutil.c ****          i++, rp++, lp++, dp++)
 9372              		.loc 1 2515 7 is_stmt 0 view .LVU2850
 9373 010c 4939CE   		cmpq	%rcx, %r14
 9374 010f 742B     		je	.L964
 9375              	.LVL913:
 9376              	.L780:
2518:fltk-1.3.4-1/png/pngwutil.c **** 
 9377              		.loc 1 2518 10 is_stmt 1 view .LVU2851
2518:fltk-1.3.4-1/png/pngwutil.c **** 
 9378              		.loc 1 2518 41 is_stmt 0 view .LVU2852
 9379 0111 450FB604 		movzbl	(%r11,%rcx), %r8d
 9379      0B
 9380 0116 442A4408 		subb	1(%rax,%rcx), %r8b
 9380      01
 9381              		.loc 1 2520 37 view .LVU2853
 9382 011b 4489EE   		movl	%r13d, %esi
 9383              		.loc 1 2520 31 view .LVU2854
 9384 011e 410FB6D0 		movzbl	%r8b, %edx
2518:fltk-1.3.4-1/png/pngwutil.c **** 
 9385              		.loc 1 2518 18 view .LVU2855
 9386 0122 4488440D 		movb	%r8b, 0(%rbp,%rcx)
 9386      00
 9387              	.LVL914:
 9388              		.loc 1 2520 10 is_stmt 1 view .LVU2856
 9389              		.loc 1 2520 37 is_stmt 0 view .LVU2857
 9390 0127 29D6     		subl	%edx, %esi
 9391 0129 4189D2   		movl	%edx, %r10d
 9392 012c 4584C0   		testb	%r8b, %r8b
 9393 012f 89F2     		movl	%esi, %edx
 9394              	.LVL915:
 9395              		.loc 1 2520 37 view .LVU2858
 9396 0131 410F49D2 		cmovns	%r10d, %edx
 9397              		.loc 1 2520 14 view .LVU2859
 9398 0135 01D7     		addl	%edx, %edi
 9399              	.LVL916:
2521:fltk-1.3.4-1/png/pngwutil.c **** 
2522:fltk-1.3.4-1/png/pngwutil.c ****          if (sum > lmins)  /* We are already worse, don't continue. */
 9400              		.loc 1 2522 10 is_stmt 1 view .LVU2860
 9401              		.loc 1 2522 13 is_stmt 0 view .LVU2861
 9402 0137 4139FC   		cmpl	%edi, %r12d
 9403 013a 73CC     		jnb	.L975
 9404              	.LVL917:
 9405              	.L964:
 9406              		.loc 1 2522 13 view .LVU2862
 9407 013c 488B7424 		movq	8(%rsp), %rsi
 9407      08
 9408              	.LVL918:
 9409              	.L777:
2523:fltk-1.3.4-1/png/pngwutil.c ****             break;
2524:fltk-1.3.4-1/png/pngwutil.c ****       }
2525:fltk-1.3.4-1/png/pngwutil.c **** 
2526:fltk-1.3.4-1/png/pngwutil.c **** #ifdef PNG_WRITE_WEIGHTED_FILTER_SUPPORTED
2527:fltk-1.3.4-1/png/pngwutil.c ****       if (png_ptr->heuristic_method == PNG_FILTER_HEURISTIC_WEIGHTED)
 9410              		.loc 1 2527 7 is_stmt 1 view .LVU2863
 9411              		.loc 1 2527 10 is_stmt 0 view .LVU2864
 9412 0141 80BB9803 		cmpb	$2, 920(%rbx)
 9412      000002
 9413 0148 0F84DA08 		je	.L976
 9413      0000
 9414              	.LVL919:
 9415              	.L781:
2528:fltk-1.3.4-1/png/pngwutil.c ****       {
2529:fltk-1.3.4-1/png/pngwutil.c ****          int j;
2530:fltk-1.3.4-1/png/pngwutil.c ****          png_uint_32 sumhi, sumlo;
2531:fltk-1.3.4-1/png/pngwutil.c ****          sumlo = sum & PNG_LOMASK;
2532:fltk-1.3.4-1/png/pngwutil.c ****          sumhi = (sum >> PNG_HISHIFT) & PNG_HIMASK;
2533:fltk-1.3.4-1/png/pngwutil.c **** 
2534:fltk-1.3.4-1/png/pngwutil.c ****          for (j = 0; j < num_p_filters; j++)
2535:fltk-1.3.4-1/png/pngwutil.c ****          {
2536:fltk-1.3.4-1/png/pngwutil.c ****             if (png_ptr->prev_filters[j] == PNG_FILTER_VALUE_SUB)
2537:fltk-1.3.4-1/png/pngwutil.c ****             {
2538:fltk-1.3.4-1/png/pngwutil.c ****                sumlo = (sumlo * png_ptr->inv_filter_weights[j]) >>
2539:fltk-1.3.4-1/png/pngwutil.c ****                    PNG_WEIGHT_SHIFT;
2540:fltk-1.3.4-1/png/pngwutil.c **** 
2541:fltk-1.3.4-1/png/pngwutil.c ****                sumhi = (sumhi * png_ptr->inv_filter_weights[j]) >>
2542:fltk-1.3.4-1/png/pngwutil.c ****                    PNG_WEIGHT_SHIFT;
2543:fltk-1.3.4-1/png/pngwutil.c ****             }
2544:fltk-1.3.4-1/png/pngwutil.c ****          }
2545:fltk-1.3.4-1/png/pngwutil.c **** 
2546:fltk-1.3.4-1/png/pngwutil.c ****          sumlo = (sumlo * png_ptr->inv_filter_costs[PNG_FILTER_VALUE_SUB]) >>
2547:fltk-1.3.4-1/png/pngwutil.c ****              PNG_COST_SHIFT;
2548:fltk-1.3.4-1/png/pngwutil.c **** 
2549:fltk-1.3.4-1/png/pngwutil.c ****          sumhi = (sumhi * png_ptr->inv_filter_costs[PNG_FILTER_VALUE_SUB]) >>
2550:fltk-1.3.4-1/png/pngwutil.c ****              PNG_COST_SHIFT;
2551:fltk-1.3.4-1/png/pngwutil.c **** 
2552:fltk-1.3.4-1/png/pngwutil.c ****          if (sumhi > PNG_HIMASK)
2553:fltk-1.3.4-1/png/pngwutil.c ****             sum = PNG_MAXSUM;
2554:fltk-1.3.4-1/png/pngwutil.c **** 
2555:fltk-1.3.4-1/png/pngwutil.c ****          else
2556:fltk-1.3.4-1/png/pngwutil.c ****             sum = (sumhi << PNG_HISHIFT) + sumlo;
2557:fltk-1.3.4-1/png/pngwutil.c ****       }
2558:fltk-1.3.4-1/png/pngwutil.c **** #endif
2559:fltk-1.3.4-1/png/pngwutil.c **** 
2560:fltk-1.3.4-1/png/pngwutil.c ****       if (sum < mins)
 9416              		.loc 1 2560 7 is_stmt 1 view .LVU2865
 9417              	.LBE640:
2353:fltk-1.3.4-1/png/pngwutil.c **** #ifdef PNG_WRITE_FILTER_SUPPORTED
 9418              		.loc 1 2353 13 is_stmt 0 view .LVU2866
 9419 014e 48894424 		movq	%rax, 8(%rsp)
 9419      08
 9420              	.LBB644:
 9421              		.loc 1 2560 10 view .LVU2867
 9422 0153 4139FF   		cmpl	%edi, %r15d
 9423 0156 760F     		jbe	.L768
2561:fltk-1.3.4-1/png/pngwutil.c ****       {
2562:fltk-1.3.4-1/png/pngwutil.c ****          mins = sum;
 9424              		.loc 1 2562 10 is_stmt 1 view .LVU2868
 9425              	.LVL920:
2563:fltk-1.3.4-1/png/pngwutil.c ****          best_row = png_ptr->sub_row;
 9426              		.loc 1 2563 10 view .LVU2869
 9427              		.loc 1 2563 19 is_stmt 0 view .LVU2870
 9428 0158 488B8B30 		movq	560(%rbx), %rcx
 9428      020000
 9429 015f 4189FF   		movl	%edi, %r15d
 9430 0162 48894C24 		movq	%rcx, 8(%rsp)
 9430      08
 9431              	.LVL921:
 9432              	.L768:
 9433              		.loc 1 2563 19 view .LVU2871
 9434              	.LBE644:
2564:fltk-1.3.4-1/png/pngwutil.c ****       }
2565:fltk-1.3.4-1/png/pngwutil.c ****    }
2566:fltk-1.3.4-1/png/pngwutil.c **** 
2567:fltk-1.3.4-1/png/pngwutil.c ****    /* Up filter */
2568:fltk-1.3.4-1/png/pngwutil.c ****    if (filter_to_do == PNG_FILTER_UP)
 9435              		.loc 1 2568 4 is_stmt 1 view .LVU2872
 9436              		.loc 1 2568 7 is_stmt 0 view .LVU2873
 9437 0167 803C2420 		cmpb	$32, (%rsp)
 9438 016b 0F85EF01 		jne	.L785
 9438      0000
 9439              	.LBB645:
2569:fltk-1.3.4-1/png/pngwutil.c ****    {
2570:fltk-1.3.4-1/png/pngwutil.c ****       png_bytep rp, dp, pp;
 9440              		.loc 1 2570 7 is_stmt 1 view .LVU2874
2571:fltk-1.3.4-1/png/pngwutil.c ****       png_size_t i;
 9441              		.loc 1 2571 7 view .LVU2875
2572:fltk-1.3.4-1/png/pngwutil.c **** 
2573:fltk-1.3.4-1/png/pngwutil.c ****       for (i = 0, rp = row_buf + 1, dp = png_ptr->up_row + 1,
 9442              		.loc 1 2573 7 view .LVU2876
 9443              	.LVL922:
 9444              		.loc 1 2573 49 is_stmt 0 view .LVU2877
 9445 0171 488BBB38 		movq	568(%rbx), %rdi
 9445      020000
 9446 0178 48897C24 		movq	%rdi, 8(%rsp)
 9446      08
 9447              	.LVL923:
2574:fltk-1.3.4-1/png/pngwutil.c ****           pp = prev_row + 1; i < row_bytes;
 9448              		.loc 1 2574 30 is_stmt 1 view .LVU2878
2573:fltk-1.3.4-1/png/pngwutil.c ****           pp = prev_row + 1; i < row_bytes;
 9449              		.loc 1 2573 7 is_stmt 0 view .LVU2879
 9450 017d 4D85C9   		testq	%r9, %r9
 9451 0180 7428     		je	.L807
2573:fltk-1.3.4-1/png/pngwutil.c ****           pp = prev_row + 1; i < row_bytes;
 9452              		.loc 1 2573 14 view .LVU2880
 9453 0182 31D2     		xorl	%edx, %edx
 9454              	.LVL924:
 9455              		.p2align 4,,10
 9456 0184 0F1F4000 		.p2align 3
 9457              	.L787:
2575:fltk-1.3.4-1/png/pngwutil.c ****           i++, rp++, pp++, dp++)
2576:fltk-1.3.4-1/png/pngwutil.c ****       {
2577:fltk-1.3.4-1/png/pngwutil.c ****          *dp = (png_byte)(((int)*rp - (int)*pp) & 0xff);
 9458              		.loc 1 2577 10 is_stmt 1 view .LVU2881
 9459              		.loc 1 2577 37 is_stmt 0 view .LVU2882
 9460 0188 0FB64C10 		movzbl	1(%rax,%rdx), %ecx
 9460      01
 9461 018d 2A4C1601 		subb	1(%rsi,%rdx), %cl
 9462              		.loc 1 2577 14 view .LVU2883
 9463 0191 884C1701 		movb	%cl, 1(%rdi,%rdx)
2575:fltk-1.3.4-1/png/pngwutil.c ****           i++, rp++, pp++, dp++)
 9464              		.loc 1 2575 11 is_stmt 1 view .LVU2884
2575:fltk-1.3.4-1/png/pngwutil.c ****           i++, rp++, pp++, dp++)
 9465              		.loc 1 2575 12 is_stmt 0 view .LVU2885
 9466 0195 4883C201 		addq	$1, %rdx
 9467              	.LVL925:
2574:fltk-1.3.4-1/png/pngwutil.c ****           i++, rp++, pp++, dp++)
 9468              		.loc 1 2574 30 is_stmt 1 view .LVU2886
2573:fltk-1.3.4-1/png/pngwutil.c ****           pp = prev_row + 1; i < row_bytes;
 9469              		.loc 1 2573 7 is_stmt 0 view .LVU2887
 9470 0199 4939D1   		cmpq	%rdx, %r9
 9471 019c 75EA     		jne	.L787
 9472 019e 488B8338 		movq	568(%rbx), %rax
 9472      020000
 9473              	.LVL926:
2573:fltk-1.3.4-1/png/pngwutil.c ****           pp = prev_row + 1; i < row_bytes;
 9474              		.loc 1 2573 7 view .LVU2888
 9475 01a5 48894424 		movq	%rax, 8(%rsp)
 9475      08
2578:fltk-1.3.4-1/png/pngwutil.c ****       }
2579:fltk-1.3.4-1/png/pngwutil.c **** 
2580:fltk-1.3.4-1/png/pngwutil.c ****       best_row = png_ptr->up_row;
 9476              		.loc 1 2580 7 is_stmt 1 view .LVU2889
 9477              	.LVL927:
 9478              		.loc 1 2580 7 is_stmt 0 view .LVU2890
 9479              	.LBE645:
2581:fltk-1.3.4-1/png/pngwutil.c ****    }
2582:fltk-1.3.4-1/png/pngwutil.c **** 
2583:fltk-1.3.4-1/png/pngwutil.c ****    else if ((filter_to_do & PNG_FILTER_UP) != 0)
2584:fltk-1.3.4-1/png/pngwutil.c ****    {
2585:fltk-1.3.4-1/png/pngwutil.c ****       png_bytep rp, dp, pp;
2586:fltk-1.3.4-1/png/pngwutil.c ****       png_uint_32 sum = 0, lmins = mins;
2587:fltk-1.3.4-1/png/pngwutil.c ****       png_size_t i;
2588:fltk-1.3.4-1/png/pngwutil.c ****       int v;
2589:fltk-1.3.4-1/png/pngwutil.c **** 
2590:fltk-1.3.4-1/png/pngwutil.c **** 
2591:fltk-1.3.4-1/png/pngwutil.c **** #ifdef PNG_WRITE_WEIGHTED_FILTER_SUPPORTED
2592:fltk-1.3.4-1/png/pngwutil.c ****       if (png_ptr->heuristic_method == PNG_FILTER_HEURISTIC_WEIGHTED)
2593:fltk-1.3.4-1/png/pngwutil.c ****       {
2594:fltk-1.3.4-1/png/pngwutil.c ****          int j;
2595:fltk-1.3.4-1/png/pngwutil.c ****          png_uint_32 lmhi, lmlo;
2596:fltk-1.3.4-1/png/pngwutil.c ****          lmlo = lmins & PNG_LOMASK;
2597:fltk-1.3.4-1/png/pngwutil.c ****          lmhi = (lmins >> PNG_HISHIFT) & PNG_HIMASK;
2598:fltk-1.3.4-1/png/pngwutil.c **** 
2599:fltk-1.3.4-1/png/pngwutil.c ****          for (j = 0; j < num_p_filters; j++)
2600:fltk-1.3.4-1/png/pngwutil.c ****          {
2601:fltk-1.3.4-1/png/pngwutil.c ****             if (png_ptr->prev_filters[j] == PNG_FILTER_VALUE_UP)
2602:fltk-1.3.4-1/png/pngwutil.c ****             {
2603:fltk-1.3.4-1/png/pngwutil.c ****                lmlo = (lmlo * png_ptr->inv_filter_weights[j]) >>
2604:fltk-1.3.4-1/png/pngwutil.c ****                    PNG_WEIGHT_SHIFT;
2605:fltk-1.3.4-1/png/pngwutil.c **** 
2606:fltk-1.3.4-1/png/pngwutil.c ****                lmhi = (lmhi * png_ptr->inv_filter_weights[j]) >>
2607:fltk-1.3.4-1/png/pngwutil.c ****                    PNG_WEIGHT_SHIFT;
2608:fltk-1.3.4-1/png/pngwutil.c ****             }
2609:fltk-1.3.4-1/png/pngwutil.c ****          }
2610:fltk-1.3.4-1/png/pngwutil.c **** 
2611:fltk-1.3.4-1/png/pngwutil.c ****          lmlo = (lmlo * png_ptr->inv_filter_costs[PNG_FILTER_VALUE_UP]) >>
2612:fltk-1.3.4-1/png/pngwutil.c ****              PNG_COST_SHIFT;
2613:fltk-1.3.4-1/png/pngwutil.c **** 
2614:fltk-1.3.4-1/png/pngwutil.c ****          lmhi = (lmhi * png_ptr->inv_filter_costs[PNG_FILTER_VALUE_UP]) >>
2615:fltk-1.3.4-1/png/pngwutil.c ****              PNG_COST_SHIFT;
2616:fltk-1.3.4-1/png/pngwutil.c **** 
2617:fltk-1.3.4-1/png/pngwutil.c ****          if (lmhi > PNG_HIMASK)
2618:fltk-1.3.4-1/png/pngwutil.c ****             lmins = PNG_MAXSUM;
2619:fltk-1.3.4-1/png/pngwutil.c **** 
2620:fltk-1.3.4-1/png/pngwutil.c ****          else
2621:fltk-1.3.4-1/png/pngwutil.c ****             lmins = (lmhi << PNG_HISHIFT) + lmlo;
2622:fltk-1.3.4-1/png/pngwutil.c ****       }
2623:fltk-1.3.4-1/png/pngwutil.c **** #endif
2624:fltk-1.3.4-1/png/pngwutil.c **** 
2625:fltk-1.3.4-1/png/pngwutil.c ****       for (i = 0, rp = row_buf + 1, dp = png_ptr->up_row + 1,
2626:fltk-1.3.4-1/png/pngwutil.c ****           pp = prev_row + 1; i < row_bytes; i++)
2627:fltk-1.3.4-1/png/pngwutil.c ****       {
2628:fltk-1.3.4-1/png/pngwutil.c ****          v = *dp++ = (png_byte)(((int)*rp++ - (int)*pp++) & 0xff);
2629:fltk-1.3.4-1/png/pngwutil.c **** 
2630:fltk-1.3.4-1/png/pngwutil.c ****          sum += (v < 128) ? v : 256 - v;
2631:fltk-1.3.4-1/png/pngwutil.c **** 
2632:fltk-1.3.4-1/png/pngwutil.c ****          if (sum > lmins)  /* We are already worse, don't continue. */
2633:fltk-1.3.4-1/png/pngwutil.c ****             break;
2634:fltk-1.3.4-1/png/pngwutil.c ****       }
2635:fltk-1.3.4-1/png/pngwutil.c **** 
2636:fltk-1.3.4-1/png/pngwutil.c **** #ifdef PNG_WRITE_WEIGHTED_FILTER_SUPPORTED
2637:fltk-1.3.4-1/png/pngwutil.c ****       if (png_ptr->heuristic_method == PNG_FILTER_HEURISTIC_WEIGHTED)
2638:fltk-1.3.4-1/png/pngwutil.c ****       {
2639:fltk-1.3.4-1/png/pngwutil.c ****          int j;
2640:fltk-1.3.4-1/png/pngwutil.c ****          png_uint_32 sumhi, sumlo;
2641:fltk-1.3.4-1/png/pngwutil.c ****          sumlo = sum & PNG_LOMASK;
2642:fltk-1.3.4-1/png/pngwutil.c ****          sumhi = (sum >> PNG_HISHIFT) & PNG_HIMASK;
2643:fltk-1.3.4-1/png/pngwutil.c **** 
2644:fltk-1.3.4-1/png/pngwutil.c ****          for (j = 0; j < num_p_filters; j++)
2645:fltk-1.3.4-1/png/pngwutil.c ****          {
2646:fltk-1.3.4-1/png/pngwutil.c ****             if (png_ptr->prev_filters[j] == PNG_FILTER_VALUE_UP)
2647:fltk-1.3.4-1/png/pngwutil.c ****             {
2648:fltk-1.3.4-1/png/pngwutil.c ****                sumlo = (sumlo * png_ptr->filter_weights[j]) >>
2649:fltk-1.3.4-1/png/pngwutil.c ****                    PNG_WEIGHT_SHIFT;
2650:fltk-1.3.4-1/png/pngwutil.c **** 
2651:fltk-1.3.4-1/png/pngwutil.c ****                sumhi = (sumhi * png_ptr->filter_weights[j]) >>
2652:fltk-1.3.4-1/png/pngwutil.c ****                    PNG_WEIGHT_SHIFT;
2653:fltk-1.3.4-1/png/pngwutil.c ****             }
2654:fltk-1.3.4-1/png/pngwutil.c ****          }
2655:fltk-1.3.4-1/png/pngwutil.c **** 
2656:fltk-1.3.4-1/png/pngwutil.c ****          sumlo = (sumlo * png_ptr->filter_costs[PNG_FILTER_VALUE_UP]) >>
2657:fltk-1.3.4-1/png/pngwutil.c ****              PNG_COST_SHIFT;
2658:fltk-1.3.4-1/png/pngwutil.c **** 
2659:fltk-1.3.4-1/png/pngwutil.c ****          sumhi = (sumhi * png_ptr->filter_costs[PNG_FILTER_VALUE_UP]) >>
2660:fltk-1.3.4-1/png/pngwutil.c ****              PNG_COST_SHIFT;
2661:fltk-1.3.4-1/png/pngwutil.c **** 
2662:fltk-1.3.4-1/png/pngwutil.c ****          if (sumhi > PNG_HIMASK)
2663:fltk-1.3.4-1/png/pngwutil.c ****             sum = PNG_MAXSUM;
2664:fltk-1.3.4-1/png/pngwutil.c **** 
2665:fltk-1.3.4-1/png/pngwutil.c ****          else
2666:fltk-1.3.4-1/png/pngwutil.c ****             sum = (sumhi << PNG_HISHIFT) + sumlo;
2667:fltk-1.3.4-1/png/pngwutil.c ****       }
2668:fltk-1.3.4-1/png/pngwutil.c **** #endif
2669:fltk-1.3.4-1/png/pngwutil.c **** 
2670:fltk-1.3.4-1/png/pngwutil.c ****       if (sum < mins)
2671:fltk-1.3.4-1/png/pngwutil.c ****       {
2672:fltk-1.3.4-1/png/pngwutil.c ****          mins = sum;
2673:fltk-1.3.4-1/png/pngwutil.c ****          best_row = png_ptr->up_row;
2674:fltk-1.3.4-1/png/pngwutil.c ****       }
2675:fltk-1.3.4-1/png/pngwutil.c ****    }
2676:fltk-1.3.4-1/png/pngwutil.c **** 
2677:fltk-1.3.4-1/png/pngwutil.c ****    /* Avg filter */
2678:fltk-1.3.4-1/png/pngwutil.c ****    if (filter_to_do == PNG_FILTER_AVG)
 9480              		.loc 1 2678 4 is_stmt 1 view .LVU2891
2679:fltk-1.3.4-1/png/pngwutil.c ****    {
2680:fltk-1.3.4-1/png/pngwutil.c ****       png_bytep rp, dp, pp, lp;
2681:fltk-1.3.4-1/png/pngwutil.c ****       png_uint_32 i;
2682:fltk-1.3.4-1/png/pngwutil.c **** 
2683:fltk-1.3.4-1/png/pngwutil.c ****       for (i = 0, rp = row_buf + 1, dp = png_ptr->avg_row + 1,
2684:fltk-1.3.4-1/png/pngwutil.c ****            pp = prev_row + 1; i < bpp; i++)
2685:fltk-1.3.4-1/png/pngwutil.c ****       {
2686:fltk-1.3.4-1/png/pngwutil.c ****          *dp++ = (png_byte)(((int)*rp++ - ((int)*pp++ / 2)) & 0xff);
2687:fltk-1.3.4-1/png/pngwutil.c ****       }
2688:fltk-1.3.4-1/png/pngwutil.c **** 
2689:fltk-1.3.4-1/png/pngwutil.c ****       for (lp = row_buf + 1; i < row_bytes; i++)
2690:fltk-1.3.4-1/png/pngwutil.c ****       {
2691:fltk-1.3.4-1/png/pngwutil.c ****          *dp++ = (png_byte)(((int)*rp++ - (((int)*pp++ + (int)*lp++) / 2))
2692:fltk-1.3.4-1/png/pngwutil.c ****                  & 0xff);
2693:fltk-1.3.4-1/png/pngwutil.c ****       }
2694:fltk-1.3.4-1/png/pngwutil.c ****       best_row = png_ptr->avg_row;
2695:fltk-1.3.4-1/png/pngwutil.c ****    }
2696:fltk-1.3.4-1/png/pngwutil.c **** 
2697:fltk-1.3.4-1/png/pngwutil.c ****    else if ((filter_to_do & PNG_FILTER_AVG) != 0)
 9481              		.loc 1 2697 9 view .LVU2892
2698:fltk-1.3.4-1/png/pngwutil.c ****    {
2699:fltk-1.3.4-1/png/pngwutil.c ****       png_bytep rp, dp, pp, lp;
2700:fltk-1.3.4-1/png/pngwutil.c ****       png_uint_32 sum = 0, lmins = mins;
2701:fltk-1.3.4-1/png/pngwutil.c ****       png_size_t i;
2702:fltk-1.3.4-1/png/pngwutil.c ****       int v;
2703:fltk-1.3.4-1/png/pngwutil.c **** 
2704:fltk-1.3.4-1/png/pngwutil.c **** #ifdef PNG_WRITE_WEIGHTED_FILTER_SUPPORTED
2705:fltk-1.3.4-1/png/pngwutil.c ****       if (png_ptr->heuristic_method == PNG_FILTER_HEURISTIC_WEIGHTED)
2706:fltk-1.3.4-1/png/pngwutil.c ****       {
2707:fltk-1.3.4-1/png/pngwutil.c ****          int j;
2708:fltk-1.3.4-1/png/pngwutil.c ****          png_uint_32 lmhi, lmlo;
2709:fltk-1.3.4-1/png/pngwutil.c ****          lmlo = lmins & PNG_LOMASK;
2710:fltk-1.3.4-1/png/pngwutil.c ****          lmhi = (lmins >> PNG_HISHIFT) & PNG_HIMASK;
2711:fltk-1.3.4-1/png/pngwutil.c **** 
2712:fltk-1.3.4-1/png/pngwutil.c ****          for (j = 0; j < num_p_filters; j++)
2713:fltk-1.3.4-1/png/pngwutil.c ****          {
2714:fltk-1.3.4-1/png/pngwutil.c ****             if (png_ptr->prev_filters[j] == PNG_FILTER_VALUE_AVG)
2715:fltk-1.3.4-1/png/pngwutil.c ****             {
2716:fltk-1.3.4-1/png/pngwutil.c ****                lmlo = (lmlo * png_ptr->inv_filter_weights[j]) >>
2717:fltk-1.3.4-1/png/pngwutil.c ****                    PNG_WEIGHT_SHIFT;
2718:fltk-1.3.4-1/png/pngwutil.c **** 
2719:fltk-1.3.4-1/png/pngwutil.c ****                lmhi = (lmhi * png_ptr->inv_filter_weights[j]) >>
2720:fltk-1.3.4-1/png/pngwutil.c ****                    PNG_WEIGHT_SHIFT;
2721:fltk-1.3.4-1/png/pngwutil.c ****             }
2722:fltk-1.3.4-1/png/pngwutil.c ****          }
2723:fltk-1.3.4-1/png/pngwutil.c **** 
2724:fltk-1.3.4-1/png/pngwutil.c ****          lmlo = (lmlo * png_ptr->inv_filter_costs[PNG_FILTER_VALUE_AVG]) >>
2725:fltk-1.3.4-1/png/pngwutil.c ****              PNG_COST_SHIFT;
2726:fltk-1.3.4-1/png/pngwutil.c **** 
2727:fltk-1.3.4-1/png/pngwutil.c ****          lmhi = (lmhi * png_ptr->inv_filter_costs[PNG_FILTER_VALUE_AVG]) >>
2728:fltk-1.3.4-1/png/pngwutil.c ****              PNG_COST_SHIFT;
2729:fltk-1.3.4-1/png/pngwutil.c **** 
2730:fltk-1.3.4-1/png/pngwutil.c ****          if (lmhi > PNG_HIMASK)
2731:fltk-1.3.4-1/png/pngwutil.c ****             lmins = PNG_MAXSUM;
2732:fltk-1.3.4-1/png/pngwutil.c **** 
2733:fltk-1.3.4-1/png/pngwutil.c ****          else
2734:fltk-1.3.4-1/png/pngwutil.c ****             lmins = (lmhi << PNG_HISHIFT) + lmlo;
2735:fltk-1.3.4-1/png/pngwutil.c ****       }
2736:fltk-1.3.4-1/png/pngwutil.c **** #endif
2737:fltk-1.3.4-1/png/pngwutil.c **** 
2738:fltk-1.3.4-1/png/pngwutil.c ****       for (i = 0, rp = row_buf + 1, dp = png_ptr->avg_row + 1,
2739:fltk-1.3.4-1/png/pngwutil.c ****            pp = prev_row + 1; i < bpp; i++)
2740:fltk-1.3.4-1/png/pngwutil.c ****       {
2741:fltk-1.3.4-1/png/pngwutil.c ****          v = *dp++ = (png_byte)(((int)*rp++ - ((int)*pp++ / 2)) & 0xff);
2742:fltk-1.3.4-1/png/pngwutil.c **** 
2743:fltk-1.3.4-1/png/pngwutil.c ****          sum += (v < 128) ? v : 256 - v;
2744:fltk-1.3.4-1/png/pngwutil.c ****       }
2745:fltk-1.3.4-1/png/pngwutil.c **** 
2746:fltk-1.3.4-1/png/pngwutil.c ****       for (lp = row_buf + 1; i < row_bytes; i++)
2747:fltk-1.3.4-1/png/pngwutil.c ****       {
2748:fltk-1.3.4-1/png/pngwutil.c ****          v = *dp++ =
2749:fltk-1.3.4-1/png/pngwutil.c ****              (png_byte)(((int)*rp++ - (((int)*pp++ + (int)*lp++) / 2)) & 0xff);
2750:fltk-1.3.4-1/png/pngwutil.c **** 
2751:fltk-1.3.4-1/png/pngwutil.c ****          sum += (v < 128) ? v : 256 - v;
2752:fltk-1.3.4-1/png/pngwutil.c **** 
2753:fltk-1.3.4-1/png/pngwutil.c ****          if (sum > lmins)  /* We are already worse, don't continue. */
2754:fltk-1.3.4-1/png/pngwutil.c ****             break;
2755:fltk-1.3.4-1/png/pngwutil.c ****       }
2756:fltk-1.3.4-1/png/pngwutil.c **** 
2757:fltk-1.3.4-1/png/pngwutil.c **** #ifdef PNG_WRITE_WEIGHTED_FILTER_SUPPORTED
2758:fltk-1.3.4-1/png/pngwutil.c ****       if (png_ptr->heuristic_method == PNG_FILTER_HEURISTIC_WEIGHTED)
2759:fltk-1.3.4-1/png/pngwutil.c ****       {
2760:fltk-1.3.4-1/png/pngwutil.c ****          int j;
2761:fltk-1.3.4-1/png/pngwutil.c ****          png_uint_32 sumhi, sumlo;
2762:fltk-1.3.4-1/png/pngwutil.c ****          sumlo = sum & PNG_LOMASK;
2763:fltk-1.3.4-1/png/pngwutil.c ****          sumhi = (sum >> PNG_HISHIFT) & PNG_HIMASK;
2764:fltk-1.3.4-1/png/pngwutil.c **** 
2765:fltk-1.3.4-1/png/pngwutil.c ****          for (j = 0; j < num_p_filters; j++)
2766:fltk-1.3.4-1/png/pngwutil.c ****          {
2767:fltk-1.3.4-1/png/pngwutil.c ****             if (png_ptr->prev_filters[j] == PNG_FILTER_VALUE_NONE)
2768:fltk-1.3.4-1/png/pngwutil.c ****             {
2769:fltk-1.3.4-1/png/pngwutil.c ****                sumlo = (sumlo * png_ptr->filter_weights[j]) >>
2770:fltk-1.3.4-1/png/pngwutil.c ****                    PNG_WEIGHT_SHIFT;
2771:fltk-1.3.4-1/png/pngwutil.c **** 
2772:fltk-1.3.4-1/png/pngwutil.c ****                sumhi = (sumhi * png_ptr->filter_weights[j]) >>
2773:fltk-1.3.4-1/png/pngwutil.c ****                    PNG_WEIGHT_SHIFT;
2774:fltk-1.3.4-1/png/pngwutil.c ****             }
2775:fltk-1.3.4-1/png/pngwutil.c ****          }
2776:fltk-1.3.4-1/png/pngwutil.c **** 
2777:fltk-1.3.4-1/png/pngwutil.c ****          sumlo = (sumlo * png_ptr->filter_costs[PNG_FILTER_VALUE_AVG]) >>
2778:fltk-1.3.4-1/png/pngwutil.c ****              PNG_COST_SHIFT;
2779:fltk-1.3.4-1/png/pngwutil.c **** 
2780:fltk-1.3.4-1/png/pngwutil.c ****          sumhi = (sumhi * png_ptr->filter_costs[PNG_FILTER_VALUE_AVG]) >>
2781:fltk-1.3.4-1/png/pngwutil.c ****              PNG_COST_SHIFT;
2782:fltk-1.3.4-1/png/pngwutil.c **** 
2783:fltk-1.3.4-1/png/pngwutil.c ****          if (sumhi > PNG_HIMASK)
2784:fltk-1.3.4-1/png/pngwutil.c ****             sum = PNG_MAXSUM;
2785:fltk-1.3.4-1/png/pngwutil.c **** 
2786:fltk-1.3.4-1/png/pngwutil.c ****          else
2787:fltk-1.3.4-1/png/pngwutil.c ****             sum = (sumhi << PNG_HISHIFT) + sumlo;
2788:fltk-1.3.4-1/png/pngwutil.c ****       }
2789:fltk-1.3.4-1/png/pngwutil.c **** #endif
2790:fltk-1.3.4-1/png/pngwutil.c **** 
2791:fltk-1.3.4-1/png/pngwutil.c ****       if (sum < mins)
2792:fltk-1.3.4-1/png/pngwutil.c ****       {
2793:fltk-1.3.4-1/png/pngwutil.c ****          mins = sum;
2794:fltk-1.3.4-1/png/pngwutil.c ****          best_row = png_ptr->avg_row;
2795:fltk-1.3.4-1/png/pngwutil.c ****       }
2796:fltk-1.3.4-1/png/pngwutil.c ****    }
2797:fltk-1.3.4-1/png/pngwutil.c **** 
2798:fltk-1.3.4-1/png/pngwutil.c ****    /* Paeth filter */
2799:fltk-1.3.4-1/png/pngwutil.c ****    if ((filter_to_do == PNG_FILTER_PAETH) != 0)
 9482              		.loc 1 2799 4 view .LVU2893
 9483              	.L807:
2800:fltk-1.3.4-1/png/pngwutil.c ****    {
2801:fltk-1.3.4-1/png/pngwutil.c ****       png_bytep rp, dp, pp, cp, lp;
2802:fltk-1.3.4-1/png/pngwutil.c ****       png_size_t i;
2803:fltk-1.3.4-1/png/pngwutil.c **** 
2804:fltk-1.3.4-1/png/pngwutil.c ****       for (i = 0, rp = row_buf + 1, dp = png_ptr->paeth_row + 1,
2805:fltk-1.3.4-1/png/pngwutil.c ****           pp = prev_row + 1; i < bpp; i++)
2806:fltk-1.3.4-1/png/pngwutil.c ****       {
2807:fltk-1.3.4-1/png/pngwutil.c ****          *dp++ = (png_byte)(((int)*rp++ - (int)*pp++) & 0xff);
2808:fltk-1.3.4-1/png/pngwutil.c ****       }
2809:fltk-1.3.4-1/png/pngwutil.c **** 
2810:fltk-1.3.4-1/png/pngwutil.c ****       for (lp = row_buf + 1, cp = prev_row + 1; i < row_bytes; i++)
2811:fltk-1.3.4-1/png/pngwutil.c ****       {
2812:fltk-1.3.4-1/png/pngwutil.c ****          int a, b, c, pa, pb, pc, p;
2813:fltk-1.3.4-1/png/pngwutil.c **** 
2814:fltk-1.3.4-1/png/pngwutil.c ****          b = *pp++;
2815:fltk-1.3.4-1/png/pngwutil.c ****          c = *cp++;
2816:fltk-1.3.4-1/png/pngwutil.c ****          a = *lp++;
2817:fltk-1.3.4-1/png/pngwutil.c **** 
2818:fltk-1.3.4-1/png/pngwutil.c ****          p = b - c;
2819:fltk-1.3.4-1/png/pngwutil.c ****          pc = a - c;
2820:fltk-1.3.4-1/png/pngwutil.c **** 
2821:fltk-1.3.4-1/png/pngwutil.c **** #ifdef PNG_USE_ABS
2822:fltk-1.3.4-1/png/pngwutil.c ****          pa = abs(p);
2823:fltk-1.3.4-1/png/pngwutil.c ****          pb = abs(pc);
2824:fltk-1.3.4-1/png/pngwutil.c ****          pc = abs(p + pc);
2825:fltk-1.3.4-1/png/pngwutil.c **** #else
2826:fltk-1.3.4-1/png/pngwutil.c ****          pa = p < 0 ? -p : p;
2827:fltk-1.3.4-1/png/pngwutil.c ****          pb = pc < 0 ? -pc : pc;
2828:fltk-1.3.4-1/png/pngwutil.c ****          pc = (p + pc) < 0 ? -(p + pc) : p + pc;
2829:fltk-1.3.4-1/png/pngwutil.c **** #endif
2830:fltk-1.3.4-1/png/pngwutil.c **** 
2831:fltk-1.3.4-1/png/pngwutil.c ****          p = (pa <= pb && pa <=pc) ? a : (pb <= pc) ? b : c;
2832:fltk-1.3.4-1/png/pngwutil.c **** 
2833:fltk-1.3.4-1/png/pngwutil.c ****          *dp++ = (png_byte)(((int)*rp++ - p) & 0xff);
2834:fltk-1.3.4-1/png/pngwutil.c ****       }
2835:fltk-1.3.4-1/png/pngwutil.c ****       best_row = png_ptr->paeth_row;
2836:fltk-1.3.4-1/png/pngwutil.c ****    }
2837:fltk-1.3.4-1/png/pngwutil.c **** 
2838:fltk-1.3.4-1/png/pngwutil.c ****    else if ((filter_to_do & PNG_FILTER_PAETH) != 0)
2839:fltk-1.3.4-1/png/pngwutil.c ****    {
2840:fltk-1.3.4-1/png/pngwutil.c ****       png_bytep rp, dp, pp, cp, lp;
2841:fltk-1.3.4-1/png/pngwutil.c ****       png_uint_32 sum = 0, lmins = mins;
2842:fltk-1.3.4-1/png/pngwutil.c ****       png_size_t i;
2843:fltk-1.3.4-1/png/pngwutil.c ****       int v;
2844:fltk-1.3.4-1/png/pngwutil.c **** 
2845:fltk-1.3.4-1/png/pngwutil.c **** #ifdef PNG_WRITE_WEIGHTED_FILTER_SUPPORTED
2846:fltk-1.3.4-1/png/pngwutil.c ****       if (png_ptr->heuristic_method == PNG_FILTER_HEURISTIC_WEIGHTED)
2847:fltk-1.3.4-1/png/pngwutil.c ****       {
2848:fltk-1.3.4-1/png/pngwutil.c ****          int j;
2849:fltk-1.3.4-1/png/pngwutil.c ****          png_uint_32 lmhi, lmlo;
2850:fltk-1.3.4-1/png/pngwutil.c ****          lmlo = lmins & PNG_LOMASK;
2851:fltk-1.3.4-1/png/pngwutil.c ****          lmhi = (lmins >> PNG_HISHIFT) & PNG_HIMASK;
2852:fltk-1.3.4-1/png/pngwutil.c **** 
2853:fltk-1.3.4-1/png/pngwutil.c ****          for (j = 0; j < num_p_filters; j++)
2854:fltk-1.3.4-1/png/pngwutil.c ****          {
2855:fltk-1.3.4-1/png/pngwutil.c ****             if (png_ptr->prev_filters[j] == PNG_FILTER_VALUE_PAETH)
2856:fltk-1.3.4-1/png/pngwutil.c ****             {
2857:fltk-1.3.4-1/png/pngwutil.c ****                lmlo = (lmlo * png_ptr->inv_filter_weights[j]) >>
2858:fltk-1.3.4-1/png/pngwutil.c ****                    PNG_WEIGHT_SHIFT;
2859:fltk-1.3.4-1/png/pngwutil.c **** 
2860:fltk-1.3.4-1/png/pngwutil.c ****                lmhi = (lmhi * png_ptr->inv_filter_weights[j]) >>
2861:fltk-1.3.4-1/png/pngwutil.c ****                    PNG_WEIGHT_SHIFT;
2862:fltk-1.3.4-1/png/pngwutil.c ****             }
2863:fltk-1.3.4-1/png/pngwutil.c ****          }
2864:fltk-1.3.4-1/png/pngwutil.c **** 
2865:fltk-1.3.4-1/png/pngwutil.c ****          lmlo = (lmlo * png_ptr->inv_filter_costs[PNG_FILTER_VALUE_PAETH]) >>
2866:fltk-1.3.4-1/png/pngwutil.c ****              PNG_COST_SHIFT;
2867:fltk-1.3.4-1/png/pngwutil.c **** 
2868:fltk-1.3.4-1/png/pngwutil.c ****          lmhi = (lmhi * png_ptr->inv_filter_costs[PNG_FILTER_VALUE_PAETH]) >>
2869:fltk-1.3.4-1/png/pngwutil.c ****              PNG_COST_SHIFT;
2870:fltk-1.3.4-1/png/pngwutil.c **** 
2871:fltk-1.3.4-1/png/pngwutil.c ****          if (lmhi > PNG_HIMASK)
2872:fltk-1.3.4-1/png/pngwutil.c ****             lmins = PNG_MAXSUM;
2873:fltk-1.3.4-1/png/pngwutil.c **** 
2874:fltk-1.3.4-1/png/pngwutil.c ****          else
2875:fltk-1.3.4-1/png/pngwutil.c ****             lmins = (lmhi << PNG_HISHIFT) + lmlo;
2876:fltk-1.3.4-1/png/pngwutil.c ****       }
2877:fltk-1.3.4-1/png/pngwutil.c **** #endif
2878:fltk-1.3.4-1/png/pngwutil.c **** 
2879:fltk-1.3.4-1/png/pngwutil.c ****       for (i = 0, rp = row_buf + 1, dp = png_ptr->paeth_row + 1,
2880:fltk-1.3.4-1/png/pngwutil.c ****           pp = prev_row + 1; i < bpp; i++)
2881:fltk-1.3.4-1/png/pngwutil.c ****       {
2882:fltk-1.3.4-1/png/pngwutil.c ****          v = *dp++ = (png_byte)(((int)*rp++ - (int)*pp++) & 0xff);
2883:fltk-1.3.4-1/png/pngwutil.c **** 
2884:fltk-1.3.4-1/png/pngwutil.c ****          sum += (v < 128) ? v : 256 - v;
2885:fltk-1.3.4-1/png/pngwutil.c ****       }
2886:fltk-1.3.4-1/png/pngwutil.c **** 
2887:fltk-1.3.4-1/png/pngwutil.c ****       for (lp = row_buf + 1, cp = prev_row + 1; i < row_bytes; i++)
2888:fltk-1.3.4-1/png/pngwutil.c ****       {
2889:fltk-1.3.4-1/png/pngwutil.c ****          int a, b, c, pa, pb, pc, p;
2890:fltk-1.3.4-1/png/pngwutil.c **** 
2891:fltk-1.3.4-1/png/pngwutil.c ****          b = *pp++;
2892:fltk-1.3.4-1/png/pngwutil.c ****          c = *cp++;
2893:fltk-1.3.4-1/png/pngwutil.c ****          a = *lp++;
2894:fltk-1.3.4-1/png/pngwutil.c **** 
2895:fltk-1.3.4-1/png/pngwutil.c **** #ifndef PNG_SLOW_PAETH
2896:fltk-1.3.4-1/png/pngwutil.c ****          p = b - c;
2897:fltk-1.3.4-1/png/pngwutil.c ****          pc = a - c;
2898:fltk-1.3.4-1/png/pngwutil.c **** #ifdef PNG_USE_ABS
2899:fltk-1.3.4-1/png/pngwutil.c ****          pa = abs(p);
2900:fltk-1.3.4-1/png/pngwutil.c ****          pb = abs(pc);
2901:fltk-1.3.4-1/png/pngwutil.c ****          pc = abs(p + pc);
2902:fltk-1.3.4-1/png/pngwutil.c **** #else
2903:fltk-1.3.4-1/png/pngwutil.c ****          pa = p < 0 ? -p : p;
2904:fltk-1.3.4-1/png/pngwutil.c ****          pb = pc < 0 ? -pc : pc;
2905:fltk-1.3.4-1/png/pngwutil.c ****          pc = (p + pc) < 0 ? -(p + pc) : p + pc;
2906:fltk-1.3.4-1/png/pngwutil.c **** #endif
2907:fltk-1.3.4-1/png/pngwutil.c ****          p = (pa <= pb && pa <=pc) ? a : (pb <= pc) ? b : c;
2908:fltk-1.3.4-1/png/pngwutil.c **** #else /* SLOW_PAETH */
2909:fltk-1.3.4-1/png/pngwutil.c ****          p = a + b - c;
2910:fltk-1.3.4-1/png/pngwutil.c ****          pa = abs(p - a);
2911:fltk-1.3.4-1/png/pngwutil.c ****          pb = abs(p - b);
2912:fltk-1.3.4-1/png/pngwutil.c ****          pc = abs(p - c);
2913:fltk-1.3.4-1/png/pngwutil.c **** 
2914:fltk-1.3.4-1/png/pngwutil.c ****          if (pa <= pb && pa <= pc)
2915:fltk-1.3.4-1/png/pngwutil.c ****             p = a;
2916:fltk-1.3.4-1/png/pngwutil.c **** 
2917:fltk-1.3.4-1/png/pngwutil.c ****          else if (pb <= pc)
2918:fltk-1.3.4-1/png/pngwutil.c ****             p = b;
2919:fltk-1.3.4-1/png/pngwutil.c **** 
2920:fltk-1.3.4-1/png/pngwutil.c ****          else
2921:fltk-1.3.4-1/png/pngwutil.c ****             p = c;
2922:fltk-1.3.4-1/png/pngwutil.c **** #endif /* SLOW_PAETH */
2923:fltk-1.3.4-1/png/pngwutil.c **** 
2924:fltk-1.3.4-1/png/pngwutil.c ****          v = *dp++ = (png_byte)(((int)*rp++ - p) & 0xff);
2925:fltk-1.3.4-1/png/pngwutil.c **** 
2926:fltk-1.3.4-1/png/pngwutil.c ****          sum += (v < 128) ? v : 256 - v;
2927:fltk-1.3.4-1/png/pngwutil.c **** 
2928:fltk-1.3.4-1/png/pngwutil.c ****          if (sum > lmins)  /* We are already worse, don't continue. */
2929:fltk-1.3.4-1/png/pngwutil.c ****             break;
2930:fltk-1.3.4-1/png/pngwutil.c ****       }
2931:fltk-1.3.4-1/png/pngwutil.c **** 
2932:fltk-1.3.4-1/png/pngwutil.c **** #ifdef PNG_WRITE_WEIGHTED_FILTER_SUPPORTED
2933:fltk-1.3.4-1/png/pngwutil.c ****       if (png_ptr->heuristic_method == PNG_FILTER_HEURISTIC_WEIGHTED)
2934:fltk-1.3.4-1/png/pngwutil.c ****       {
2935:fltk-1.3.4-1/png/pngwutil.c ****          int j;
2936:fltk-1.3.4-1/png/pngwutil.c ****          png_uint_32 sumhi, sumlo;
2937:fltk-1.3.4-1/png/pngwutil.c ****          sumlo = sum & PNG_LOMASK;
2938:fltk-1.3.4-1/png/pngwutil.c ****          sumhi = (sum >> PNG_HISHIFT) & PNG_HIMASK;
2939:fltk-1.3.4-1/png/pngwutil.c **** 
2940:fltk-1.3.4-1/png/pngwutil.c ****          for (j = 0; j < num_p_filters; j++)
2941:fltk-1.3.4-1/png/pngwutil.c ****          {
2942:fltk-1.3.4-1/png/pngwutil.c ****             if (png_ptr->prev_filters[j] == PNG_FILTER_VALUE_PAETH)
2943:fltk-1.3.4-1/png/pngwutil.c ****             {
2944:fltk-1.3.4-1/png/pngwutil.c ****                sumlo = (sumlo * png_ptr->filter_weights[j]) >>
2945:fltk-1.3.4-1/png/pngwutil.c ****                    PNG_WEIGHT_SHIFT;
2946:fltk-1.3.4-1/png/pngwutil.c **** 
2947:fltk-1.3.4-1/png/pngwutil.c ****                sumhi = (sumhi * png_ptr->filter_weights[j]) >>
2948:fltk-1.3.4-1/png/pngwutil.c ****                    PNG_WEIGHT_SHIFT;
2949:fltk-1.3.4-1/png/pngwutil.c ****             }
2950:fltk-1.3.4-1/png/pngwutil.c ****          }
2951:fltk-1.3.4-1/png/pngwutil.c **** 
2952:fltk-1.3.4-1/png/pngwutil.c ****          sumlo = (sumlo * png_ptr->filter_costs[PNG_FILTER_VALUE_PAETH]) >>
2953:fltk-1.3.4-1/png/pngwutil.c ****              PNG_COST_SHIFT;
2954:fltk-1.3.4-1/png/pngwutil.c **** 
2955:fltk-1.3.4-1/png/pngwutil.c ****          sumhi = (sumhi * png_ptr->filter_costs[PNG_FILTER_VALUE_PAETH]) >>
2956:fltk-1.3.4-1/png/pngwutil.c ****              PNG_COST_SHIFT;
2957:fltk-1.3.4-1/png/pngwutil.c **** 
2958:fltk-1.3.4-1/png/pngwutil.c ****          if (sumhi > PNG_HIMASK)
2959:fltk-1.3.4-1/png/pngwutil.c ****             sum = PNG_MAXSUM;
2960:fltk-1.3.4-1/png/pngwutil.c **** 
2961:fltk-1.3.4-1/png/pngwutil.c ****          else
2962:fltk-1.3.4-1/png/pngwutil.c ****             sum = (sumhi << PNG_HISHIFT) + sumlo;
2963:fltk-1.3.4-1/png/pngwutil.c ****       }
2964:fltk-1.3.4-1/png/pngwutil.c **** #endif
2965:fltk-1.3.4-1/png/pngwutil.c **** 
2966:fltk-1.3.4-1/png/pngwutil.c ****       if (sum < mins)
2967:fltk-1.3.4-1/png/pngwutil.c ****       {
2968:fltk-1.3.4-1/png/pngwutil.c ****          best_row = png_ptr->paeth_row;
2969:fltk-1.3.4-1/png/pngwutil.c ****       }
2970:fltk-1.3.4-1/png/pngwutil.c ****    }
2971:fltk-1.3.4-1/png/pngwutil.c **** #endif /* WRITE_FILTER */
2972:fltk-1.3.4-1/png/pngwutil.c **** 
2973:fltk-1.3.4-1/png/pngwutil.c ****    /* Do the actual writing of the filtered row data from the chosen filter. */
2974:fltk-1.3.4-1/png/pngwutil.c ****    png_write_filtered_row(png_ptr, best_row, row_info->rowbytes+1);
 9484              		.loc 1 2974 4 view .LVU2894
 9485              	.LBB646:
 9486              	.LBI646:
2975:fltk-1.3.4-1/png/pngwutil.c **** 
2976:fltk-1.3.4-1/png/pngwutil.c **** #ifdef PNG_WRITE_FILTER_SUPPORTED
2977:fltk-1.3.4-1/png/pngwutil.c **** #ifdef PNG_WRITE_WEIGHTED_FILTER_SUPPORTED
2978:fltk-1.3.4-1/png/pngwutil.c ****    /* Save the type of filter we picked this time for future calculations */
2979:fltk-1.3.4-1/png/pngwutil.c ****    if (png_ptr->num_prev_filters > 0)
2980:fltk-1.3.4-1/png/pngwutil.c ****    {
2981:fltk-1.3.4-1/png/pngwutil.c ****       int j;
2982:fltk-1.3.4-1/png/pngwutil.c **** 
2983:fltk-1.3.4-1/png/pngwutil.c ****       for (j = 1; j < num_p_filters; j++)
2984:fltk-1.3.4-1/png/pngwutil.c ****       {
2985:fltk-1.3.4-1/png/pngwutil.c ****          png_ptr->prev_filters[j] = png_ptr->prev_filters[j - 1];
2986:fltk-1.3.4-1/png/pngwutil.c ****       }
2987:fltk-1.3.4-1/png/pngwutil.c **** 
2988:fltk-1.3.4-1/png/pngwutil.c ****       png_ptr->prev_filters[j] = best_row[0];
2989:fltk-1.3.4-1/png/pngwutil.c ****    }
2990:fltk-1.3.4-1/png/pngwutil.c **** #endif
2991:fltk-1.3.4-1/png/pngwutil.c **** #endif /* WRITE_FILTER */
2992:fltk-1.3.4-1/png/pngwutil.c **** }
2993:fltk-1.3.4-1/png/pngwutil.c **** 
2994:fltk-1.3.4-1/png/pngwutil.c **** 
2995:fltk-1.3.4-1/png/pngwutil.c **** /* Do the actual writing of a previously filtered row. */
2996:fltk-1.3.4-1/png/pngwutil.c **** static void
2997:fltk-1.3.4-1/png/pngwutil.c **** png_write_filtered_row(png_structrp png_ptr, png_bytep filtered_row,
 9487              		.loc 1 2997 1 view .LVU2895
 9488              	.LBB647:
2998:fltk-1.3.4-1/png/pngwutil.c ****    png_size_t full_row_length/*includes filter byte*/)
2999:fltk-1.3.4-1/png/pngwutil.c **** {
3000:fltk-1.3.4-1/png/pngwutil.c ****    png_debug(1, "in png_write_filtered_row");
 9489              		.loc 1 3000 4 view .LVU2896
3001:fltk-1.3.4-1/png/pngwutil.c **** 
3002:fltk-1.3.4-1/png/pngwutil.c ****    png_debug1(2, "filter = %d", filtered_row[0]);
 9490              		.loc 1 3002 4 view .LVU2897
3003:fltk-1.3.4-1/png/pngwutil.c **** 
3004:fltk-1.3.4-1/png/pngwutil.c ****    png_compress_IDAT(png_ptr, filtered_row, full_row_length, Z_NO_FLUSH);
 9491              		.loc 1 3004 4 view .LVU2898
 9492              	.LBE647:
 9493              	.LBE646:
2974:fltk-1.3.4-1/png/pngwutil.c **** 
 9494              		.loc 1 2974 4 is_stmt 0 view .LVU2899
 9495 01aa 488B4424 		movq	32(%rsp), %rax
 9495      20
 9496              	.LBB654:
 9497              	.LBB651:
 9498              		.loc 1 3004 4 view .LVU2900
 9499 01af 488B7424 		movq	8(%rsp), %rsi
 9499      08
 9500 01b4 31C9     		xorl	%ecx, %ecx
 9501 01b6 4889DF   		movq	%rbx, %rdi
 9502              	.LBE651:
 9503              	.LBE654:
2974:fltk-1.3.4-1/png/pngwutil.c **** 
 9504              		.loc 1 2974 4 view .LVU2901
 9505 01b9 488B5008 		movq	8(%rax), %rdx
 9506 01bd 4883C201 		addq	$1, %rdx
 9507              	.LVL928:
 9508              	.LBB655:
 9509              	.LBB652:
 9510              		.loc 1 3004 4 view .LVU2902
 9511 01c1 E8000000 		call	png_compress_IDAT
 9511      00
 9512              	.LVL929:
3005:fltk-1.3.4-1/png/pngwutil.c **** 
3006:fltk-1.3.4-1/png/pngwutil.c ****    /* Swap the current and previous rows */
3007:fltk-1.3.4-1/png/pngwutil.c ****    if (png_ptr->prev_row != NULL)
 9513              		.loc 1 3007 4 is_stmt 1 view .LVU2903
 9514              		.loc 1 3007 15 is_stmt 0 view .LVU2904
 9515 01c6 488B8320 		movq	544(%rbx), %rax
 9515      020000
 9516              		.loc 1 3007 7 view .LVU2905
 9517 01cd 4885C0   		testq	%rax, %rax
 9518 01d0 7415     		je	.L849
 9519              	.LBB648:
3008:fltk-1.3.4-1/png/pngwutil.c ****    {
3009:fltk-1.3.4-1/png/pngwutil.c ****       png_bytep tptr;
 9520              		.loc 1 3009 7 is_stmt 1 view .LVU2906
3010:fltk-1.3.4-1/png/pngwutil.c **** 
3011:fltk-1.3.4-1/png/pngwutil.c ****       tptr = png_ptr->prev_row;
 9521              		.loc 1 3011 7 view .LVU2907
 9522              	.LVL930:
3012:fltk-1.3.4-1/png/pngwutil.c ****       png_ptr->prev_row = png_ptr->row_buf;
 9523              		.loc 1 3012 7 view .LVU2908
 9524              		.loc 1 3012 25 is_stmt 0 view .LVU2909
 9525 01d2 488B9328 		movq	552(%rbx), %rdx
 9525      020000
3013:fltk-1.3.4-1/png/pngwutil.c ****       png_ptr->row_buf = tptr;
 9526              		.loc 1 3013 24 view .LVU2910
 9527 01d9 48898328 		movq	%rax, 552(%rbx)
 9527      020000
3012:fltk-1.3.4-1/png/pngwutil.c ****       png_ptr->prev_row = png_ptr->row_buf;
 9528              		.loc 1 3012 25 view .LVU2911
 9529 01e0 48899320 		movq	%rdx, 544(%rbx)
 9529      020000
 9530              		.loc 1 3013 7 is_stmt 1 view .LVU2912
 9531              	.LVL931:
 9532              	.L849:
 9533              		.loc 1 3013 7 is_stmt 0 view .LVU2913
 9534              	.LBE648:
3014:fltk-1.3.4-1/png/pngwutil.c ****    }
3015:fltk-1.3.4-1/png/pngwutil.c **** 
3016:fltk-1.3.4-1/png/pngwutil.c ****    /* Finish row - updates counters and flushes zlib if last row */
3017:fltk-1.3.4-1/png/pngwutil.c ****    png_write_finish_row(png_ptr);
 9535              		.loc 1 3017 4 is_stmt 1 view .LVU2914
 9536              	.LBB649:
 9537              	.LBI649:
2050:fltk-1.3.4-1/png/pngwutil.c **** {
 9538              		.loc 1 2050 1 view .LVU2915
 9539              	.LBB650:
2056:fltk-1.3.4-1/png/pngwutil.c **** 
 9540              		.loc 1 2056 4 view .LVU2916
2059:fltk-1.3.4-1/png/pngwutil.c **** 
 9541              		.loc 1 2059 4 view .LVU2917
2062:fltk-1.3.4-1/png/pngwutil.c **** 
 9542              		.loc 1 2062 4 view .LVU2918
2065:fltk-1.3.4-1/png/pngwutil.c **** #endif
 9543              		.loc 1 2065 4 view .LVU2919
2068:fltk-1.3.4-1/png/pngwutil.c **** 
 9544              		.loc 1 2068 4 view .LVU2920
2071:fltk-1.3.4-1/png/pngwutil.c **** 
 9545              		.loc 1 2071 4 view .LVU2921
2071:fltk-1.3.4-1/png/pngwutil.c **** 
 9546              		.loc 1 2071 23 is_stmt 0 view .LVU2922
 9547 01e7 8B831402 		movl	532(%rbx), %eax
 9547      0000
 9548 01ed 83C001   		addl	$1, %eax
 9549 01f0 89831402 		movl	%eax, 532(%rbx)
 9549      0000
2074:fltk-1.3.4-1/png/pngwutil.c ****       return;
 9550              		.loc 1 2074 4 is_stmt 1 view .LVU2923
2074:fltk-1.3.4-1/png/pngwutil.c ****       return;
 9551              		.loc 1 2074 7 is_stmt 0 view .LVU2924
 9552 01f6 3B830002 		cmpl	512(%rbx), %eax
 9552      0000
 9553 01fc 7208     		jb	.L850
 9554 01fe 4889DF   		movq	%rbx, %rdi
 9555 0201 E8000000 		call	png_write_finish_row.part.0
 9555      00
 9556              	.LVL932:
 9557              	.L850:
2074:fltk-1.3.4-1/png/pngwutil.c ****       return;
 9558              		.loc 1 2074 7 view .LVU2925
 9559              	.LBE650:
 9560              	.LBE649:
3018:fltk-1.3.4-1/png/pngwutil.c **** 
3019:fltk-1.3.4-1/png/pngwutil.c **** #ifdef PNG_WRITE_FLUSH_SUPPORTED
3020:fltk-1.3.4-1/png/pngwutil.c ****    png_ptr->flush_rows++;
 9561              		.loc 1 3020 4 is_stmt 1 view .LVU2926
 9562              		.loc 1 3020 23 is_stmt 0 view .LVU2927
 9563 0206 8B83AC02 		movl	684(%rbx), %eax
 9563      0000
3021:fltk-1.3.4-1/png/pngwutil.c **** 
3022:fltk-1.3.4-1/png/pngwutil.c ****    if (png_ptr->flush_dist > 0 &&
 9564              		.loc 1 3022 15 view .LVU2928
 9565 020c 8B93A802 		movl	680(%rbx), %edx
 9565      0000
3020:fltk-1.3.4-1/png/pngwutil.c **** 
 9566              		.loc 1 3020 23 view .LVU2929
 9567 0212 83C001   		addl	$1, %eax
 9568 0215 8983AC02 		movl	%eax, 684(%rbx)
 9568      0000
 9569              		.loc 1 3022 4 is_stmt 1 view .LVU2930
 9570              		.loc 1 3022 32 is_stmt 0 view .LVU2931
 9571 021b 39D0     		cmpl	%edx, %eax
 9572 021d 7208     		jb	.L851
 9573 021f 85D2     		testl	%edx, %edx
 9574 0221 0F85F107 		jne	.L977
 9574      0000
 9575              	.L851:
 9576              	.LVL933:
 9577              		.loc 1 3022 32 view .LVU2932
 9578              	.LBE652:
 9579              	.LBE655:
2979:fltk-1.3.4-1/png/pngwutil.c ****    {
 9580              		.loc 1 2979 4 is_stmt 1 view .LVU2933
2979:fltk-1.3.4-1/png/pngwutil.c ****    {
 9581              		.loc 1 2979 7 is_stmt 0 view .LVU2934
 9582 0227 80BB9903 		cmpb	$0, 921(%rbx)
 9582      000000
 9583 022e 7446     		je	.L752
 9584              	.LVL934:
 9585              	.LBB656:
2983:fltk-1.3.4-1/png/pngwutil.c ****       {
 9586              		.loc 1 2983 19 is_stmt 1 view .LVU2935
2983:fltk-1.3.4-1/png/pngwutil.c ****       {
 9587              		.loc 1 2983 7 is_stmt 0 view .LVU2936
 9588 0230 8B74241C 		movl	28(%rsp), %esi
 9589 0234 83FE01   		cmpl	$1, %esi
 9590 0237 0F8E530B 		jle	.L882
 9590      0000
 9591 023d B8010000 		movl	$1, %eax
 9591      00
 9592              	.LVL935:
 9593              		.p2align 4,,10
 9594 0242 660F1F44 		.p2align 3
 9594      0000
 9595              	.L854:
2985:fltk-1.3.4-1/png/pngwutil.c ****       }
 9596              		.loc 1 2985 10 is_stmt 1 discriminator 3 view .LVU2937
2985:fltk-1.3.4-1/png/pngwutil.c ****       }
 9597              		.loc 1 2985 44 is_stmt 0 discriminator 3 view .LVU2938
 9598 0248 488B93A0 		movq	928(%rbx), %rdx
 9598      030000
2985:fltk-1.3.4-1/png/pngwutil.c ****       }
 9599              		.loc 1 2985 58 discriminator 3 view .LVU2939
 9600 024f 0FB64C02 		movzbl	-1(%rdx,%rax), %ecx
 9600      FF
2985:fltk-1.3.4-1/png/pngwutil.c ****       }
 9601              		.loc 1 2985 35 discriminator 3 view .LVU2940
 9602 0254 880C02   		movb	%cl, (%rdx,%rax)
2983:fltk-1.3.4-1/png/pngwutil.c ****       {
 9603              		.loc 1 2983 38 is_stmt 1 discriminator 3 view .LVU2941
 9604              	.LVL936:
2983:fltk-1.3.4-1/png/pngwutil.c ****       {
 9605              		.loc 1 2983 19 discriminator 3 view .LVU2942
 9606 0257 4883C001 		addq	$1, %rax
 9607              	.LVL937:
2983:fltk-1.3.4-1/png/pngwutil.c ****       {
 9608              		.loc 1 2983 7 is_stmt 0 discriminator 3 view .LVU2943
 9609 025b 39C6     		cmpl	%eax, %esi
 9610 025d 7FE9     		jg	.L854
 9611 025f 0FB64C24 		movzbl	59(%rsp), %ecx
 9611      3B
 9612              	.L853:
2988:fltk-1.3.4-1/png/pngwutil.c ****    }
 9613              		.loc 1 2988 7 is_stmt 1 view .LVU2944
2988:fltk-1.3.4-1/png/pngwutil.c ****    }
 9614              		.loc 1 2988 42 is_stmt 0 view .LVU2945
 9615 0264 488B4424 		movq	8(%rsp), %rax
 9615      08
 9616 0269 0FB610   		movzbl	(%rax), %edx
2988:fltk-1.3.4-1/png/pngwutil.c ****    }
 9617              		.loc 1 2988 32 view .LVU2946
 9618 026c 488B83A0 		movq	928(%rbx), %rax
 9618      030000
 9619 0273 881408   		movb	%dl, (%rax,%rcx)
 9620              	.L752:
 9621              	.LBE656:
2992:fltk-1.3.4-1/png/pngwutil.c **** 
 9622              		.loc 1 2992 1 view .LVU2947
 9623 0276 4883C448 		addq	$72, %rsp
 9624              		.cfi_remember_state
 9625              		.cfi_def_cfa_offset 56
 9626 027a 5B       		popq	%rbx
 9627              		.cfi_def_cfa_offset 48
 9628 027b 5D       		popq	%rbp
 9629              		.cfi_def_cfa_offset 40
 9630 027c 415C     		popq	%r12
 9631              		.cfi_def_cfa_offset 32
 9632 027e 415D     		popq	%r13
 9633              		.cfi_def_cfa_offset 24
 9634 0280 415E     		popq	%r14
 9635              		.cfi_def_cfa_offset 16
 9636 0282 415F     		popq	%r15
 9637              		.cfi_def_cfa_offset 8
 9638 0284 C3       		ret
 9639              	.LVL938:
 9640              		.p2align 4,,10
 9641 0285 0F1F00   		.p2align 3
 9642              	.L972:
 9643              		.cfi_restore_state
 9644              	.LBB657:
2388:fltk-1.3.4-1/png/pngwutil.c ****       png_uint_32 sum = 0;
 9645              		.loc 1 2388 7 is_stmt 1 view .LVU2948
2389:fltk-1.3.4-1/png/pngwutil.c ****       png_size_t i;
 9646              		.loc 1 2389 7 view .LVU2949
2390:fltk-1.3.4-1/png/pngwutil.c ****       int v;
 9647              		.loc 1 2390 7 view .LVU2950
2391:fltk-1.3.4-1/png/pngwutil.c **** 
 9648              		.loc 1 2391 7 view .LVU2951
2393:fltk-1.3.4-1/png/pngwutil.c ****       {
 9649              		.loc 1 2393 7 view .LVU2952
2393:fltk-1.3.4-1/png/pngwutil.c ****       {
 9650              		.loc 1 2393 22 is_stmt 0 view .LVU2953
 9651 0288 488D5001 		leaq	1(%rax), %rdx
 9652              	.LVL939:
2393:fltk-1.3.4-1/png/pngwutil.c ****       {
 9653              		.loc 1 2393 37 is_stmt 1 view .LVU2954
2393:fltk-1.3.4-1/png/pngwutil.c ****       {
 9654              		.loc 1 2393 7 is_stmt 0 view .LVU2955
 9655 028c 4D85C9   		testq	%r9, %r9
 9656 028f 0F841A0B 		je	.L858
 9656      0000
 9657 0295 4E8D4408 		leaq	1(%rax,%r9), %r8
 9657      01
2389:fltk-1.3.4-1/png/pngwutil.c ****       png_size_t i;
 9658              		.loc 1 2389 19 view .LVU2956
 9659 029a 4531FF   		xorl	%r15d, %r15d
2396:fltk-1.3.4-1/png/pngwutil.c ****       }
 9660              		.loc 1 2396 37 view .LVU2957
 9661 029d BF000100 		movl	$256, %edi
 9661      00
 9662              	.LVL940:
 9663              		.p2align 4,,10
 9664 02a2 660F1F44 		.p2align 3
 9664      0000
 9665              	.L757:
2395:fltk-1.3.4-1/png/pngwutil.c ****          sum += (v < 128) ? v : 256 - v;
 9666              		.loc 1 2395 10 is_stmt 1 view .LVU2958
2395:fltk-1.3.4-1/png/pngwutil.c ****          sum += (v < 128) ? v : 256 - v;
 9667              		.loc 1 2395 12 is_stmt 0 view .LVU2959
 9668 02a8 440FB612 		movzbl	(%rdx), %r10d
 9669              	.LVL941:
2396:fltk-1.3.4-1/png/pngwutil.c ****       }
 9670              		.loc 1 2396 10 is_stmt 1 view .LVU2960
2396:fltk-1.3.4-1/png/pngwutil.c ****       }
 9671              		.loc 1 2396 37 is_stmt 0 view .LVU2961
 9672 02ac 89F9     		movl	%edi, %ecx
 9673 02ae 4429D1   		subl	%r10d, %ecx
 9674 02b1 4183FA7F 		cmpl	$127, %r10d
 9675 02b5 410F4ECA 		cmovle	%r10d, %ecx
 9676              	.LVL942:
2393:fltk-1.3.4-1/png/pngwutil.c ****       {
 9677              		.loc 1 2393 59 view .LVU2962
 9678 02b9 4883C201 		addq	$1, %rdx
 9679              	.LVL943:
2396:fltk-1.3.4-1/png/pngwutil.c ****       }
 9680              		.loc 1 2396 14 view .LVU2963
 9681 02bd 4101CF   		addl	%ecx, %r15d
 9682              	.LVL944:
2393:fltk-1.3.4-1/png/pngwutil.c ****       {
 9683              		.loc 1 2393 52 is_stmt 1 view .LVU2964
2393:fltk-1.3.4-1/png/pngwutil.c ****       {
 9684              		.loc 1 2393 37 view .LVU2965
2393:fltk-1.3.4-1/png/pngwutil.c ****       {
 9685              		.loc 1 2393 7 is_stmt 0 view .LVU2966
 9686 02c0 4939D0   		cmpq	%rdx, %r8
 9687 02c3 75E3     		jne	.L757
 9688              	.LVL945:
 9689              	.L754:
2400:fltk-1.3.4-1/png/pngwutil.c ****       {
 9690              		.loc 1 2400 7 is_stmt 1 view .LVU2967
2400:fltk-1.3.4-1/png/pngwutil.c ****       {
 9691              		.loc 1 2400 10 is_stmt 0 view .LVU2968
 9692 02c5 80BB9803 		cmpb	$2, 920(%rbx)
 9692      000002
 9693 02cc 0F859CFD 		jne	.L753
 9693      FFFF
 9694              	.LBB658:
2402:fltk-1.3.4-1/png/pngwutil.c ****          int j;
 9695              		.loc 1 2402 10 is_stmt 1 view .LVU2969
2403:fltk-1.3.4-1/png/pngwutil.c ****          sumlo = sum & PNG_LOMASK;
 9696              		.loc 1 2403 10 view .LVU2970
2404:fltk-1.3.4-1/png/pngwutil.c ****          sumhi = (sum >> PNG_HISHIFT) & PNG_HIMASK; /* Gives us some footroom */
 9697              		.loc 1 2404 10 view .LVU2971
2405:fltk-1.3.4-1/png/pngwutil.c **** 
 9698              		.loc 1 2405 23 is_stmt 0 view .LVU2972
 9699 02d2 4489FF   		movl	%r15d, %edi
2408:fltk-1.3.4-1/png/pngwutil.c ****          {
 9700              		.loc 1 2408 10 view .LVU2973
 9701 02d5 448B5C24 		movl	28(%rsp), %r11d
 9701      1C
2404:fltk-1.3.4-1/png/pngwutil.c ****          sumhi = (sum >> PNG_HISHIFT) & PNG_HIMASK; /* Gives us some footroom */
 9702              		.loc 1 2404 16 view .LVU2974
 9703 02da 450FB7C7 		movzwl	%r15w, %r8d
 9704              	.LVL946:
2405:fltk-1.3.4-1/png/pngwutil.c **** 
 9705              		.loc 1 2405 10 is_stmt 1 view .LVU2975
2405:fltk-1.3.4-1/png/pngwutil.c **** 
 9706              		.loc 1 2405 23 is_stmt 0 view .LVU2976
 9707 02de C1EF0A   		shrl	$10, %edi
2405:fltk-1.3.4-1/png/pngwutil.c **** 
 9708              		.loc 1 2405 16 view .LVU2977
 9709 02e1 81E7C0FF 		andl	$4194240, %edi
 9709      3F00
 9710              	.LVL947:
2408:fltk-1.3.4-1/png/pngwutil.c ****          {
 9711              		.loc 1 2408 10 is_stmt 1 view .LVU2978
2408:fltk-1.3.4-1/png/pngwutil.c ****          {
 9712              		.loc 1 2408 22 view .LVU2979
2408:fltk-1.3.4-1/png/pngwutil.c ****          {
 9713              		.loc 1 2408 10 is_stmt 0 view .LVU2980
 9714 02e7 4585DB   		testl	%r11d, %r11d
 9715 02ea 7435     		je	.L758
2410:fltk-1.3.4-1/png/pngwutil.c ****             {
 9716              		.loc 1 2410 24 view .LVU2981
 9717 02ec 4C8B93A0 		movq	928(%rbx), %r10
 9717      030000
 9718 02f3 31D2     		xorl	%edx, %edx
 9719              	.LVL948:
 9720              		.p2align 4,,10
 9721 02f5 0F1F00   		.p2align 3
 9722              	.L760:
2410:fltk-1.3.4-1/png/pngwutil.c ****             {
 9723              		.loc 1 2410 13 is_stmt 1 view .LVU2982
2410:fltk-1.3.4-1/png/pngwutil.c ****             {
 9724              		.loc 1 2410 16 is_stmt 0 view .LVU2983
 9725 02f8 41803C12 		cmpb	$0, (%r10,%rdx)
 9725      00
 9726 02fd 7519     		jne	.L759
2412:fltk-1.3.4-1/png/pngwutil.c ****                    PNG_WEIGHT_SHIFT;
 9727              		.loc 1 2412 16 is_stmt 1 view .LVU2984
2412:fltk-1.3.4-1/png/pngwutil.c ****                    PNG_WEIGHT_SHIFT;
 9728              		.loc 1 2412 56 is_stmt 0 view .LVU2985
 9729 02ff 488B8BA8 		movq	936(%rbx), %rcx
 9729      030000
 9730 0306 0FB70C51 		movzwl	(%rcx,%rdx,2), %ecx
2412:fltk-1.3.4-1/png/pngwutil.c ****                    PNG_WEIGHT_SHIFT;
 9731              		.loc 1 2412 31 view .LVU2986
 9732 030a 440FAFC1 		imull	%ecx, %r8d
 9733              	.LVL949:
2415:fltk-1.3.4-1/png/pngwutil.c ****                    PNG_WEIGHT_SHIFT;
 9734              		.loc 1 2415 31 view .LVU2987
 9735 030e 0FAFF9   		imull	%ecx, %edi
 9736              	.LVL950:
2412:fltk-1.3.4-1/png/pngwutil.c ****                    PNG_WEIGHT_SHIFT;
 9737              		.loc 1 2412 22 view .LVU2988
 9738 0311 41C1E808 		shrl	$8, %r8d
 9739              	.LVL951:
2415:fltk-1.3.4-1/png/pngwutil.c ****                    PNG_WEIGHT_SHIFT;
 9740              		.loc 1 2415 16 is_stmt 1 view .LVU2989
2415:fltk-1.3.4-1/png/pngwutil.c ****                    PNG_WEIGHT_SHIFT;
 9741              		.loc 1 2415 22 is_stmt 0 view .LVU2990
 9742 0315 C1EF08   		shrl	$8, %edi
 9743              	.LVL952:
 9744              	.L759:
2408:fltk-1.3.4-1/png/pngwutil.c ****          {
 9745              		.loc 1 2408 41 is_stmt 1 discriminator 2 view .LVU2991
2408:fltk-1.3.4-1/png/pngwutil.c ****          {
 9746              		.loc 1 2408 22 discriminator 2 view .LVU2992
 9747 0318 4883C201 		addq	$1, %rdx
 9748              	.LVL953:
2408:fltk-1.3.4-1/png/pngwutil.c ****          {
 9749              		.loc 1 2408 10 is_stmt 0 discriminator 2 view .LVU2993
 9750 031c 4139D3   		cmpl	%edx, %r11d
 9751 031f 7FD7     		jg	.L760
 9752              	.L758:
2424:fltk-1.3.4-1/png/pngwutil.c ****              PNG_COST_SHIFT;
 9753              		.loc 1 2424 10 is_stmt 1 view .LVU2994
2424:fltk-1.3.4-1/png/pngwutil.c ****              PNG_COST_SHIFT;
 9754              		.loc 1 2424 48 is_stmt 0 view .LVU2995
 9755 0321 488B93B8 		movq	952(%rbx), %rdx
 9755      030000
 9756              	.LBE658:
 9757              	.LBE657:
2356:fltk-1.3.4-1/png/pngwutil.c **** 
 9758              		.loc 1 2356 9 view .LVU2996
 9759 0328 41BFFFFF 		movl	$2147483647, %r15d
 9759      FF7F
 9760              	.LBB660:
 9761              	.LBB659:
2424:fltk-1.3.4-1/png/pngwutil.c ****              PNG_COST_SHIFT;
 9762              		.loc 1 2424 48 view .LVU2997
 9763 032e 0FB712   		movzwl	(%rdx), %edx
 9764              	.LVL954:
2427:fltk-1.3.4-1/png/pngwutil.c ****              PNG_COST_SHIFT;
 9765              		.loc 1 2427 10 is_stmt 1 view .LVU2998
2427:fltk-1.3.4-1/png/pngwutil.c ****              PNG_COST_SHIFT;
 9766              		.loc 1 2427 25 is_stmt 0 view .LVU2999
 9767 0331 0FAFFA   		imull	%edx, %edi
 9768              	.LVL955:
2427:fltk-1.3.4-1/png/pngwutil.c ****              PNG_COST_SHIFT;
 9769              		.loc 1 2427 16 view .LVU3000
 9770 0334 89F9     		movl	%edi, %ecx
 9771 0336 C1E903   		shrl	$3, %ecx
 9772              	.LVL956:
2430:fltk-1.3.4-1/png/pngwutil.c ****             sum = PNG_MAXSUM;
 9773              		.loc 1 2430 10 is_stmt 1 view .LVU3001
2430:fltk-1.3.4-1/png/pngwutil.c ****             sum = PNG_MAXSUM;
 9774              		.loc 1 2430 13 is_stmt 0 view .LVU3002
 9775 0339 81FF07FE 		cmpl	$33553927, %edi
 9775      FF01
 9776 033f 0F8729FD 		ja	.L753
 9776      FFFF
2434:fltk-1.3.4-1/png/pngwutil.c ****       }
 9777              		.loc 1 2434 13 is_stmt 1 view .LVU3003
2424:fltk-1.3.4-1/png/pngwutil.c ****              PNG_COST_SHIFT;
 9778              		.loc 1 2424 25 is_stmt 0 view .LVU3004
 9779 0345 410FAFD0 		imull	%r8d, %edx
 9780              	.LVL957:
2434:fltk-1.3.4-1/png/pngwutil.c ****       }
 9781              		.loc 1 2434 26 view .LVU3005
 9782 0349 C1E10A   		sall	$10, %ecx
 9783              	.LVL958:
2424:fltk-1.3.4-1/png/pngwutil.c ****              PNG_COST_SHIFT;
 9784              		.loc 1 2424 16 view .LVU3006
 9785 034c C1EA03   		shrl	$3, %edx
 9786              	.LVL959:
2434:fltk-1.3.4-1/png/pngwutil.c ****       }
 9787              		.loc 1 2434 17 view .LVU3007
 9788 034f 448D3C11 		leal	(%rcx,%rdx), %r15d
 9789              	.LVL960:
2434:fltk-1.3.4-1/png/pngwutil.c ****       }
 9790              		.loc 1 2434 17 view .LVU3008
 9791 0353 E916FDFF 		jmp	.L753
 9791      FF
 9792              	.LVL961:
 9793 0358 0F1F8400 		.p2align 4,,10
 9793      00000000 
 9794              		.p2align 3
 9795              	.L785:
2434:fltk-1.3.4-1/png/pngwutil.c ****       }
 9796              		.loc 1 2434 17 view .LVU3009
 9797              	.LBE659:
 9798              	.LBE660:
2583:fltk-1.3.4-1/png/pngwutil.c ****    {
 9799              		.loc 1 2583 9 is_stmt 1 view .LVU3010
2583:fltk-1.3.4-1/png/pngwutil.c ****    {
 9800              		.loc 1 2583 12 is_stmt 0 view .LVU3011
 9801 0360 F6042420 		testb	$32, (%rsp)
 9802 0364 0F848600 		je	.L789
 9802      0000
 9803              	.LBB661:
2585:fltk-1.3.4-1/png/pngwutil.c ****       png_uint_32 sum = 0, lmins = mins;
 9804              		.loc 1 2585 7 is_stmt 1 view .LVU3012
2586:fltk-1.3.4-1/png/pngwutil.c ****       png_size_t i;
 9805              		.loc 1 2586 7 view .LVU3013
 9806              	.LVL962:
2587:fltk-1.3.4-1/png/pngwutil.c ****       int v;
 9807              		.loc 1 2587 7 view .LVU3014
2588:fltk-1.3.4-1/png/pngwutil.c **** 
 9808              		.loc 1 2588 7 view .LVU3015
2592:fltk-1.3.4-1/png/pngwutil.c ****       {
 9809              		.loc 1 2592 7 view .LVU3016
2592:fltk-1.3.4-1/png/pngwutil.c ****       {
 9810              		.loc 1 2592 10 is_stmt 0 view .LVU3017
 9811 036a 80BB9803 		cmpb	$2, 920(%rbx)
 9811      000002
 9812 0371 0F844107 		je	.L978
 9812      0000
2625:fltk-1.3.4-1/png/pngwutil.c ****           pp = prev_row + 1; i < row_bytes; i++)
 9813              		.loc 1 2625 7 is_stmt 1 view .LVU3018
 9814              	.LVL963:
2625:fltk-1.3.4-1/png/pngwutil.c ****           pp = prev_row + 1; i < row_bytes; i++)
 9815              		.loc 1 2625 49 is_stmt 0 view .LVU3019
 9816 0377 488BAB38 		movq	568(%rbx), %rbp
 9816      020000
 9817              	.LVL964:
2626:fltk-1.3.4-1/png/pngwutil.c ****       {
 9818              		.loc 1 2626 30 is_stmt 1 view .LVU3020
2625:fltk-1.3.4-1/png/pngwutil.c ****           pp = prev_row + 1; i < row_bytes; i++)
 9819              		.loc 1 2625 7 is_stmt 0 view .LVU3021
 9820 037e 4589FB   		movl	%r15d, %r11d
2586:fltk-1.3.4-1/png/pngwutil.c ****       png_size_t i;
 9821              		.loc 1 2586 19 view .LVU3022
 9822 0381 4531C0   		xorl	%r8d, %r8d
2625:fltk-1.3.4-1/png/pngwutil.c ****           pp = prev_row + 1; i < row_bytes; i++)
 9823              		.loc 1 2625 7 view .LVU3023
 9824 0384 4D85C9   		testq	%r9, %r9
 9825 0387 745E     		je	.L800
 9826              	.LVL965:
 9827              	.L855:
2625:fltk-1.3.4-1/png/pngwutil.c ****           pp = prev_row + 1; i < row_bytes; i++)
 9828              		.loc 1 2625 14 view .LVU3024
 9829 0389 31C9     		xorl	%ecx, %ecx
2586:fltk-1.3.4-1/png/pngwutil.c ****       png_size_t i;
 9830              		.loc 1 2586 19 view .LVU3025
 9831 038b 4531C0   		xorl	%r8d, %r8d
2630:fltk-1.3.4-1/png/pngwutil.c **** 
 9832              		.loc 1 2630 37 view .LVU3026
 9833 038e 41BC0001 		movl	$256, %r12d
 9833      0000
 9834 0394 EB13     		jmp	.L799
 9835              	.LVL966:
 9836 0396 662E0F1F 		.p2align 4,,10
 9836      84000000 
 9836      0000
 9837              		.p2align 3
 9838              	.L797:
2626:fltk-1.3.4-1/png/pngwutil.c ****       {
 9839              		.loc 1 2626 45 is_stmt 1 discriminator 2 view .LVU3027
2626:fltk-1.3.4-1/png/pngwutil.c ****       {
 9840              		.loc 1 2626 46 is_stmt 0 discriminator 2 view .LVU3028
 9841 03a0 4883C101 		addq	$1, %rcx
 9842              	.LVL967:
2626:fltk-1.3.4-1/png/pngwutil.c ****       {
 9843              		.loc 1 2626 30 is_stmt 1 discriminator 2 view .LVU3029
2625:fltk-1.3.4-1/png/pngwutil.c ****           pp = prev_row + 1; i < row_bytes; i++)
 9844              		.loc 1 2625 7 is_stmt 0 discriminator 2 view .LVU3030
 9845 03a4 4939C9   		cmpq	%rcx, %r9
 9846 03a7 742E     		je	.L970
 9847              	.LVL968:
 9848              	.L799:
2628:fltk-1.3.4-1/png/pngwutil.c **** 
 9849              		.loc 1 2628 10 is_stmt 1 view .LVU3031
2628:fltk-1.3.4-1/png/pngwutil.c **** 
 9850              		.loc 1 2628 45 is_stmt 0 view .LVU3032
 9851 03a9 0FB67C08 		movzbl	1(%rax,%rcx), %edi
 9851      01
 9852 03ae 402A7C0E 		subb	1(%rsi,%rcx), %dil
 9852      01
2630:fltk-1.3.4-1/png/pngwutil.c **** 
 9853              		.loc 1 2630 37 view .LVU3033
 9854 03b3 4589E6   		movl	%r12d, %r14d
2630:fltk-1.3.4-1/png/pngwutil.c **** 
 9855              		.loc 1 2630 31 view .LVU3034
 9856 03b6 400FB6D7 		movzbl	%dil, %edx
2628:fltk-1.3.4-1/png/pngwutil.c **** 
 9857              		.loc 1 2628 20 view .LVU3035
 9858 03ba 40887C0D 		movb	%dil, 1(%rbp,%rcx)
 9858      01
 9859              	.LVL969:
2630:fltk-1.3.4-1/png/pngwutil.c **** 
 9860              		.loc 1 2630 10 is_stmt 1 view .LVU3036
2630:fltk-1.3.4-1/png/pngwutil.c **** 
 9861              		.loc 1 2630 37 is_stmt 0 view .LVU3037
 9862 03bf 4129D6   		subl	%edx, %r14d
 9863 03c2 4189D2   		movl	%edx, %r10d
 9864 03c5 4084FF   		testb	%dil, %dil
 9865 03c8 4489F2   		movl	%r14d, %edx
 9866              	.LVL970:
2630:fltk-1.3.4-1/png/pngwutil.c **** 
 9867              		.loc 1 2630 37 view .LVU3038
 9868 03cb 410F49D2 		cmovns	%r10d, %edx
2630:fltk-1.3.4-1/png/pngwutil.c **** 
 9869              		.loc 1 2630 14 view .LVU3039
 9870 03cf 4101D0   		addl	%edx, %r8d
 9871              	.LVL971:
2632:fltk-1.3.4-1/png/pngwutil.c ****             break;
 9872              		.loc 1 2632 10 is_stmt 1 view .LVU3040
2632:fltk-1.3.4-1/png/pngwutil.c ****             break;
 9873              		.loc 1 2632 13 is_stmt 0 view .LVU3041
 9874 03d2 4539D8   		cmpl	%r11d, %r8d
 9875 03d5 76C9     		jbe	.L797
 9876              	.LVL972:
 9877              	.L970:
2632:fltk-1.3.4-1/png/pngwutil.c ****             break;
 9878              		.loc 1 2632 13 view .LVU3042
 9879 03d7 0FB69398 		movzbl	920(%rbx), %edx
 9879      030000
2637:fltk-1.3.4-1/png/pngwutil.c ****       {
 9880              		.loc 1 2637 7 is_stmt 1 view .LVU3043
2637:fltk-1.3.4-1/png/pngwutil.c ****       {
 9881              		.loc 1 2637 10 is_stmt 0 view .LVU3044
 9882 03de 80FA02   		cmpb	$2, %dl
 9883 03e1 0F846907 		je	.L856
 9883      0000
 9884              	.LVL973:
 9885              	.L800:
2670:fltk-1.3.4-1/png/pngwutil.c ****       {
 9886              		.loc 1 2670 7 is_stmt 1 view .LVU3045
2670:fltk-1.3.4-1/png/pngwutil.c ****       {
 9887              		.loc 1 2670 10 is_stmt 0 view .LVU3046
 9888 03e7 4539C7   		cmpl	%r8d, %r15d
 9889 03ea 0F87F004 		ja	.L979
 9889      0000
 9890              	.LVL974:
 9891              	.L789:
2670:fltk-1.3.4-1/png/pngwutil.c ****       {
 9892              		.loc 1 2670 10 view .LVU3047
 9893              	.LBE661:
2678:fltk-1.3.4-1/png/pngwutil.c ****    {
 9894              		.loc 1 2678 4 is_stmt 1 view .LVU3048
2678:fltk-1.3.4-1/png/pngwutil.c ****    {
 9895              		.loc 1 2678 7 is_stmt 0 view .LVU3049
 9896 03f0 803C2440 		cmpb	$64, (%rsp)
 9897 03f4 0F852701 		jne	.L765
 9897      0000
 9898              	.LBB664:
2680:fltk-1.3.4-1/png/pngwutil.c ****       png_uint_32 i;
 9899              		.loc 1 2680 7 is_stmt 1 view .LVU3050
2681:fltk-1.3.4-1/png/pngwutil.c **** 
 9900              		.loc 1 2681 7 view .LVU3051
2683:fltk-1.3.4-1/png/pngwutil.c ****            pp = prev_row + 1; i < bpp; i++)
 9901              		.loc 1 2683 7 view .LVU3052
 9902              	.LVL975:
2683:fltk-1.3.4-1/png/pngwutil.c ****            pp = prev_row + 1; i < bpp; i++)
 9903              		.loc 1 2683 49 is_stmt 0 view .LVU3053
 9904 03fa 4C8B9B40 		movq	576(%rbx), %r11
 9904      020000
2683:fltk-1.3.4-1/png/pngwutil.c ****            pp = prev_row + 1; i < bpp; i++)
 9905              		.loc 1 2683 7 view .LVU3054
 9906 0401 8B4C2410 		movl	16(%rsp), %ecx
2683:fltk-1.3.4-1/png/pngwutil.c ****            pp = prev_row + 1; i < bpp; i++)
 9907              		.loc 1 2683 22 view .LVU3055
 9908 0405 488D7801 		leaq	1(%rax), %rdi
 9909              	.LVL976:
2684:fltk-1.3.4-1/png/pngwutil.c ****       {
 9910              		.loc 1 2684 15 view .LVU3056
 9911 0409 4C8D4601 		leaq	1(%rsi), %r8
2683:fltk-1.3.4-1/png/pngwutil.c ****            pp = prev_row + 1; i < bpp; i++)
 9912              		.loc 1 2683 40 view .LVU3057
 9913 040d 4D8D5301 		leaq	1(%r11), %r10
 9914              	.LVL977:
2684:fltk-1.3.4-1/png/pngwutil.c ****       {
 9915              		.loc 1 2684 31 is_stmt 1 view .LVU3058
2683:fltk-1.3.4-1/png/pngwutil.c ****            pp = prev_row + 1; i < bpp; i++)
 9916              		.loc 1 2683 7 is_stmt 0 view .LVU3059
 9917 0411 85C9     		testl	%ecx, %ecx
 9918 0413 0F848109 		je	.L869
 9918      0000
 9919 0419 448D61FF 		leal	-1(%rcx), %r12d
 9920 041d BA010000 		movl	$1, %edx
 9920      00
 9921 0422 498D6C24 		leaq	2(%r12), %rbp
 9921      02
 9922              	.LVL978:
 9923 0427 660F1F84 		.p2align 4,,10
 9923      00000000 
 9923      00
 9924              		.p2align 3
 9925              	.L805:
2686:fltk-1.3.4-1/png/pngwutil.c ****       }
 9926              		.loc 1 2686 10 is_stmt 1 discriminator 2 view .LVU3060
2686:fltk-1.3.4-1/png/pngwutil.c ****       }
 9927              		.loc 1 2686 18 is_stmt 0 discriminator 2 view .LVU3061
 9928 0430 0FB60C16 		movzbl	(%rsi,%rdx), %ecx
2686:fltk-1.3.4-1/png/pngwutil.c ****       }
 9929              		.loc 1 2686 41 discriminator 2 view .LVU3062
 9930 0434 440FB63C 		movzbl	(%rax,%rdx), %r15d
 9930      10
2686:fltk-1.3.4-1/png/pngwutil.c ****       }
 9931              		.loc 1 2686 18 discriminator 2 view .LVU3063
 9932 0439 D0E9     		shrb	%cl
2686:fltk-1.3.4-1/png/pngwutil.c ****       }
 9933              		.loc 1 2686 41 discriminator 2 view .LVU3064
 9934 043b 4129CF   		subl	%ecx, %r15d
2686:fltk-1.3.4-1/png/pngwutil.c ****       }
 9935              		.loc 1 2686 16 discriminator 2 view .LVU3065
 9936 043e 45883C13 		movb	%r15b, (%r11,%rdx)
2684:fltk-1.3.4-1/png/pngwutil.c ****       {
 9937              		.loc 1 2684 40 is_stmt 1 discriminator 2 view .LVU3066
 9938              	.LVL979:
2684:fltk-1.3.4-1/png/pngwutil.c ****       {
 9939              		.loc 1 2684 31 discriminator 2 view .LVU3067
 9940 0442 4883C201 		addq	$1, %rdx
 9941              	.LVL980:
2683:fltk-1.3.4-1/png/pngwutil.c ****            pp = prev_row + 1; i < bpp; i++)
 9942              		.loc 1 2683 7 is_stmt 0 discriminator 2 view .LVU3068
 9943 0446 4839D5   		cmpq	%rdx, %rbp
 9944 0449 75E5     		jne	.L805
 9945 044b 4983C401 		addq	$1, %r12
 9946 044f 8B4C2410 		movl	16(%rsp), %ecx
 9947 0453 4C01E7   		addq	%r12, %rdi
 9948 0456 4D01E0   		addq	%r12, %r8
 9949 0459 4D01E2   		addq	%r12, %r10
 9950              	.LVL981:
 9951              	.L804:
2689:fltk-1.3.4-1/png/pngwutil.c ****       {
 9952              		.loc 1 2689 30 is_stmt 1 view .LVU3069
 9953 045c 8B742410 		movl	16(%rsp), %esi
2689:fltk-1.3.4-1/png/pngwutil.c ****       {
 9954              		.loc 1 2689 7 is_stmt 0 view .LVU3070
 9955 0460 31D2     		xorl	%edx, %edx
 9956 0462 83C601   		addl	$1, %esi
 9957 0465 4939C9   		cmpq	%rcx, %r9
 9958 0468 762E     		jbe	.L808
 9959              	.LVL982:
 9960 046a 660F1F44 		.p2align 4,,10
 9960      0000
 9961              		.p2align 3
 9962              	.L806:
2691:fltk-1.3.4-1/png/pngwutil.c ****                  & 0xff);
 9963              		.loc 1 2691 10 is_stmt 1 discriminator 3 view .LVU3071
2691:fltk-1.3.4-1/png/pngwutil.c ****                  & 0xff);
 9964              		.loc 1 2691 45 is_stmt 0 discriminator 3 view .LVU3072
 9965 0470 410FB60C 		movzbl	(%r8,%rdx), %ecx
 9965      10
2691:fltk-1.3.4-1/png/pngwutil.c ****                  & 0xff);
 9966              		.loc 1 2691 58 discriminator 3 view .LVU3073
 9967 0475 440FB65C 		movzbl	1(%rax,%rdx), %r11d
 9967      1001
2691:fltk-1.3.4-1/png/pngwutil.c ****                  & 0xff);
 9968              		.loc 1 2691 41 discriminator 3 view .LVU3074
 9969 047b 440FB634 		movzbl	(%rdi,%rdx), %r14d
 9969      17
2691:fltk-1.3.4-1/png/pngwutil.c ****                  & 0xff);
 9970              		.loc 1 2691 56 discriminator 3 view .LVU3075
 9971 0480 4401D9   		addl	%r11d, %ecx
2691:fltk-1.3.4-1/png/pngwutil.c ****                  & 0xff);
 9972              		.loc 1 2691 70 discriminator 3 view .LVU3076
 9973 0483 D1F9     		sarl	%ecx
2691:fltk-1.3.4-1/png/pngwutil.c ****                  & 0xff);
 9974              		.loc 1 2691 41 discriminator 3 view .LVU3077
 9975 0485 4129CE   		subl	%ecx, %r14d
2689:fltk-1.3.4-1/png/pngwutil.c ****       {
 9976              		.loc 1 2689 32 discriminator 3 view .LVU3078
 9977 0488 8D0C16   		leal	(%rsi,%rdx), %ecx
2691:fltk-1.3.4-1/png/pngwutil.c ****                  & 0xff);
 9978              		.loc 1 2691 16 discriminator 3 view .LVU3079
 9979 048b 45883412 		movb	%r14b, (%r10,%rdx)
2689:fltk-1.3.4-1/png/pngwutil.c ****       {
 9980              		.loc 1 2689 45 is_stmt 1 discriminator 3 view .LVU3080
2689:fltk-1.3.4-1/png/pngwutil.c ****       {
 9981              		.loc 1 2689 30 discriminator 3 view .LVU3081
 9982 048f 4883C201 		addq	$1, %rdx
 9983              	.LVL983:
2689:fltk-1.3.4-1/png/pngwutil.c ****       {
 9984              		.loc 1 2689 7 is_stmt 0 discriminator 3 view .LVU3082
 9985 0493 4C39C9   		cmpq	%r9, %rcx
 9986 0496 72D8     		jb	.L806
 9987              	.LVL984:
 9988              	.L808:
2694:fltk-1.3.4-1/png/pngwutil.c ****    }
 9989              		.loc 1 2694 7 is_stmt 1 view .LVU3083
2694:fltk-1.3.4-1/png/pngwutil.c ****    }
 9990              		.loc 1 2694 16 is_stmt 0 view .LVU3084
 9991 0498 488B8340 		movq	576(%rbx), %rax
 9991      020000
 9992              	.LVL985:
2694:fltk-1.3.4-1/png/pngwutil.c ****    }
 9993              		.loc 1 2694 16 view .LVU3085
 9994 049f 48894424 		movq	%rax, 8(%rsp)
 9994      08
 9995              	.LVL986:
2694:fltk-1.3.4-1/png/pngwutil.c ****    }
 9996              		.loc 1 2694 16 view .LVU3086
 9997              	.LBE664:
2799:fltk-1.3.4-1/png/pngwutil.c ****    {
 9998              		.loc 1 2799 4 is_stmt 1 view .LVU3087
2838:fltk-1.3.4-1/png/pngwutil.c ****    {
 9999              		.loc 1 2838 9 view .LVU3088
 10000 04a4 E901FDFF 		jmp	.L807
 10000      FF
 10001              	.LVL987:
 10002 04a9 0F1F8000 		.p2align 4,,10
 10002      000000
 10003              		.p2align 3
 10004              	.L973:
 10005              	.LBB665:
2444:fltk-1.3.4-1/png/pngwutil.c ****       png_size_t i;
 10006              		.loc 1 2444 7 view .LVU3089
2445:fltk-1.3.4-1/png/pngwutil.c **** 
 10007              		.loc 1 2445 7 view .LVU3090
2447:fltk-1.3.4-1/png/pngwutil.c ****            i++, rp++, dp++)
 10008              		.loc 1 2447 7 view .LVU3091
2447:fltk-1.3.4-1/png/pngwutil.c ****            i++, rp++, dp++)
 10009              		.loc 1 2447 49 is_stmt 0 view .LVU3092
 10010 04b0 4C8B9330 		movq	560(%rbx), %r10
 10010      020000
2447:fltk-1.3.4-1/png/pngwutil.c ****            i++, rp++, dp++)
 10011              		.loc 1 2447 66 view .LVU3093
 10012 04b7 48634C24 		movslq	16(%rsp), %rcx
 10012      10
2447:fltk-1.3.4-1/png/pngwutil.c ****            i++, rp++, dp++)
 10013              		.loc 1 2447 22 view .LVU3094
 10014 04bc 488D7801 		leaq	1(%rax), %rdi
 10015              	.LVL988:
2447:fltk-1.3.4-1/png/pngwutil.c ****            i++, rp++, dp++)
 10016              		.loc 1 2447 40 view .LVU3095
 10017 04c0 4D8D4201 		leaq	1(%r10), %r8
 10018              	.LVL989:
2447:fltk-1.3.4-1/png/pngwutil.c ****            i++, rp++, dp++)
 10019              		.loc 1 2447 64 is_stmt 1 view .LVU3096
2447:fltk-1.3.4-1/png/pngwutil.c ****            i++, rp++, dp++)
 10020              		.loc 1 2447 7 is_stmt 0 view .LVU3097
 10021 04c4 85C9     		testl	%ecx, %ecx
 10022 04c6 0F84D508 		je	.L860
 10022      0000
2447:fltk-1.3.4-1/png/pngwutil.c ****            i++, rp++, dp++)
 10023              		.loc 1 2447 14 view .LVU3098
 10024 04cc 31D2     		xorl	%edx, %edx
 10025              	.LVL990:
 10026 04ce 6690     		.p2align 4,,10
 10027              		.p2align 3
 10028              	.L763:
2450:fltk-1.3.4-1/png/pngwutil.c ****       }
 10029              		.loc 1 2450 10 is_stmt 1 view .LVU3099
2450:fltk-1.3.4-1/png/pngwutil.c ****       }
 10030              		.loc 1 2450 16 is_stmt 0 view .LVU3100
 10031 04d0 440FB65C 		movzbl	1(%rax,%rdx), %r11d
 10031      1001
2450:fltk-1.3.4-1/png/pngwutil.c ****       }
 10032              		.loc 1 2450 14 view .LVU3101
 10033 04d6 45885C12 		movb	%r11b, 1(%r10,%rdx)
 10033      01
2448:fltk-1.3.4-1/png/pngwutil.c ****       {
 10034              		.loc 1 2448 12 is_stmt 1 view .LVU3102
2448:fltk-1.3.4-1/png/pngwutil.c ****       {
 10035              		.loc 1 2448 13 is_stmt 0 view .LVU3103
 10036 04db 4883C201 		addq	$1, %rdx
 10037              	.LVL991:
2447:fltk-1.3.4-1/png/pngwutil.c ****            i++, rp++, dp++)
 10038              		.loc 1 2447 64 is_stmt 1 view .LVU3104
2447:fltk-1.3.4-1/png/pngwutil.c ****            i++, rp++, dp++)
 10039              		.loc 1 2447 7 is_stmt 0 view .LVU3105
 10040 04df 4839CA   		cmpq	%rcx, %rdx
 10041 04e2 75EC     		jne	.L763
 10042 04e4 4801CF   		addq	%rcx, %rdi
 10043 04e7 4901C8   		addq	%rcx, %r8
 10044              	.LVL992:
 10045              	.L762:
2453:fltk-1.3.4-1/png/pngwutil.c ****          i++, rp++, lp++, dp++)
 10046              		.loc 1 2453 30 is_stmt 1 view .LVU3106
 10047 04ea 4D89CA   		movq	%r9, %r10
2453:fltk-1.3.4-1/png/pngwutil.c ****          i++, rp++, lp++, dp++)
 10048              		.loc 1 2453 7 is_stmt 0 view .LVU3107
 10049 04ed 31D2     		xorl	%edx, %edx
 10050 04ef 4929CA   		subq	%rcx, %r10
 10051 04f2 4939C9   		cmpq	%rcx, %r9
 10052 04f5 761E     		jbe	.L767
 10053              	.LVL993:
 10054 04f7 660F1F84 		.p2align 4,,10
 10054      00000000 
 10054      00
 10055              		.p2align 3
 10056              	.L766:
2456:fltk-1.3.4-1/png/pngwutil.c ****       }
 10057              		.loc 1 2456 10 is_stmt 1 view .LVU3108
2456:fltk-1.3.4-1/png/pngwutil.c ****       }
 10058              		.loc 1 2456 37 is_stmt 0 view .LVU3109
 10059 0500 0FB60C17 		movzbl	(%rdi,%rdx), %ecx
 10060 0504 2A4C1001 		subb	1(%rax,%rdx), %cl
2456:fltk-1.3.4-1/png/pngwutil.c ****       }
 10061              		.loc 1 2456 14 view .LVU3110
 10062 0508 41880C10 		movb	%cl, (%r8,%rdx)
2454:fltk-1.3.4-1/png/pngwutil.c ****       {
 10063              		.loc 1 2454 10 is_stmt 1 view .LVU3111
 10064              	.LVL994:
2453:fltk-1.3.4-1/png/pngwutil.c ****          i++, rp++, lp++, dp++)
 10065              		.loc 1 2453 30 view .LVU3112
 10066 050c 4883C201 		addq	$1, %rdx
 10067              	.LVL995:
2453:fltk-1.3.4-1/png/pngwutil.c ****          i++, rp++, lp++, dp++)
 10068              		.loc 1 2453 7 is_stmt 0 view .LVU3113
 10069 0510 4939D2   		cmpq	%rdx, %r10
 10070 0513 75EB     		jne	.L766
 10071              	.LVL996:
 10072              	.L767:
2459:fltk-1.3.4-1/png/pngwutil.c ****    }
 10073              		.loc 1 2459 7 is_stmt 1 view .LVU3114
2459:fltk-1.3.4-1/png/pngwutil.c ****    }
 10074              		.loc 1 2459 16 is_stmt 0 view .LVU3115
 10075 0515 488BBB30 		movq	560(%rbx), %rdi
 10075      020000
 10076 051c 48897C24 		movq	%rdi, 8(%rsp)
 10076      08
 10077              	.LVL997:
2459:fltk-1.3.4-1/png/pngwutil.c ****    }
 10078              		.loc 1 2459 16 view .LVU3116
 10079              	.LBE665:
2568:fltk-1.3.4-1/png/pngwutil.c ****    {
 10080              		.loc 1 2568 4 is_stmt 1 view .LVU3117
2583:fltk-1.3.4-1/png/pngwutil.c ****    {
 10081              		.loc 1 2583 9 view .LVU3118
2678:fltk-1.3.4-1/png/pngwutil.c ****    {
 10082              		.loc 1 2678 4 view .LVU3119
 10083              	.L765:
2697:fltk-1.3.4-1/png/pngwutil.c ****    {
 10084              		.loc 1 2697 9 view .LVU3120
2697:fltk-1.3.4-1/png/pngwutil.c ****    {
 10085              		.loc 1 2697 12 is_stmt 0 view .LVU3121
 10086 0521 F6042440 		testb	$64, (%rsp)
 10087 0525 0F841301 		je	.L809
 10087      0000
 10088              	.LBB666:
2699:fltk-1.3.4-1/png/pngwutil.c ****       png_uint_32 sum = 0, lmins = mins;
 10089              		.loc 1 2699 7 is_stmt 1 view .LVU3122
2700:fltk-1.3.4-1/png/pngwutil.c ****       png_size_t i;
 10090              		.loc 1 2700 7 view .LVU3123
 10091              	.LVL998:
2701:fltk-1.3.4-1/png/pngwutil.c ****       int v;
 10092              		.loc 1 2701 7 view .LVU3124
2702:fltk-1.3.4-1/png/pngwutil.c **** 
 10093              		.loc 1 2702 7 view .LVU3125
2705:fltk-1.3.4-1/png/pngwutil.c ****       {
 10094              		.loc 1 2705 7 view .LVU3126
2705:fltk-1.3.4-1/png/pngwutil.c ****       {
 10095              		.loc 1 2705 10 is_stmt 0 view .LVU3127
 10096 052b 80BB9803 		cmpb	$2, 920(%rbx)
 10096      000002
 10097              	.LBB667:
 10098 0532 44897C24 		movl	%r15d, 40(%rsp)
 10098      28
 10099              	.LBE667:
 10100 0537 0F84C307 		je	.L980
 10100      0000
 10101              	.L810:
 10102              	.LVL999:
2738:fltk-1.3.4-1/png/pngwutil.c ****            pp = prev_row + 1; i < bpp; i++)
 10103              		.loc 1 2738 7 is_stmt 1 view .LVU3128
2738:fltk-1.3.4-1/png/pngwutil.c ****            pp = prev_row + 1; i < bpp; i++)
 10104              		.loc 1 2738 49 is_stmt 0 view .LVU3129
 10105 053d 4C8BB340 		movq	576(%rbx), %r14
 10105      020000
2739:fltk-1.3.4-1/png/pngwutil.c ****       {
 10106              		.loc 1 2739 33 view .LVU3130
 10107 0544 4C635C24 		movslq	16(%rsp), %r11
 10107      10
2738:fltk-1.3.4-1/png/pngwutil.c ****            pp = prev_row + 1; i < bpp; i++)
 10108              		.loc 1 2738 22 view .LVU3131
 10109 0549 4C8D6801 		leaq	1(%rax), %r13
 10110              	.LVL1000:
2739:fltk-1.3.4-1/png/pngwutil.c ****       {
 10111              		.loc 1 2739 15 view .LVU3132
 10112 054d 488D6E01 		leaq	1(%rsi), %rbp
2738:fltk-1.3.4-1/png/pngwutil.c ****            pp = prev_row + 1; i < bpp; i++)
 10113              		.loc 1 2738 40 view .LVU3133
 10114 0551 4D8D6601 		leaq	1(%r14), %r12
 10115              	.LVL1001:
2739:fltk-1.3.4-1/png/pngwutil.c ****       {
 10116              		.loc 1 2739 31 is_stmt 1 view .LVU3134
2738:fltk-1.3.4-1/png/pngwutil.c ****            pp = prev_row + 1; i < bpp; i++)
 10117              		.loc 1 2738 7 is_stmt 0 view .LVU3135
 10118 0555 4585DB   		testl	%r11d, %r11d
 10119 0558 0F846308 		je	.L873
 10119      0000
2743:fltk-1.3.4-1/png/pngwutil.c ****       }
 10120              		.loc 1 2743 37 view .LVU3136
 10121 055e 4C894C24 		movq	%r9, 48(%rsp)
 10121      30
2738:fltk-1.3.4-1/png/pngwutil.c ****            pp = prev_row + 1; i < bpp; i++)
 10122              		.loc 1 2738 14 view .LVU3137
 10123 0563 31FF     		xorl	%edi, %edi
2700:fltk-1.3.4-1/png/pngwutil.c ****       png_size_t i;
 10124              		.loc 1 2700 19 view .LVU3138
 10125 0565 4531C0   		xorl	%r8d, %r8d
 10126              	.LVL1002:
 10127 0568 0F1F8400 		.p2align 4,,10
 10127      00000000 
 10128              		.p2align 3
 10129              	.L817:
2741:fltk-1.3.4-1/png/pngwutil.c **** 
 10130              		.loc 1 2741 10 is_stmt 1 view .LVU3139
2741:fltk-1.3.4-1/png/pngwutil.c **** 
 10131              		.loc 1 2741 22 is_stmt 0 view .LVU3140
 10132 0570 0FB6543E 		movzbl	1(%rsi,%rdi), %edx
 10132      01
2741:fltk-1.3.4-1/png/pngwutil.c **** 
 10133              		.loc 1 2741 45 view .LVU3141
 10134 0575 0FB64C38 		movzbl	1(%rax,%rdi), %ecx
 10134      01
2743:fltk-1.3.4-1/png/pngwutil.c ****       }
 10135              		.loc 1 2743 37 view .LVU3142
 10136 057a 41B90001 		movl	$256, %r9d
 10136      0000
2741:fltk-1.3.4-1/png/pngwutil.c **** 
 10137              		.loc 1 2741 22 view .LVU3143
 10138 0580 D0EA     		shrb	%dl
2741:fltk-1.3.4-1/png/pngwutil.c **** 
 10139              		.loc 1 2741 45 view .LVU3144
 10140 0582 29D1     		subl	%edx, %ecx
2743:fltk-1.3.4-1/png/pngwutil.c ****       }
 10141              		.loc 1 2743 31 view .LVU3145
 10142 0584 0FB6D1   		movzbl	%cl, %edx
2741:fltk-1.3.4-1/png/pngwutil.c **** 
 10143              		.loc 1 2741 20 view .LVU3146
 10144 0587 41884C3E 		movb	%cl, 1(%r14,%rdi)
 10144      01
 10145              	.LVL1003:
2743:fltk-1.3.4-1/png/pngwutil.c ****       }
 10146              		.loc 1 2743 10 is_stmt 1 view .LVU3147
2743:fltk-1.3.4-1/png/pngwutil.c ****       }
 10147              		.loc 1 2743 37 is_stmt 0 view .LVU3148
 10148 058c 4129D1   		subl	%edx, %r9d
 10149 058f 4189D2   		movl	%edx, %r10d
 10150 0592 84C9     		testb	%cl, %cl
 10151 0594 4489CA   		movl	%r9d, %edx
 10152              	.LVL1004:
2743:fltk-1.3.4-1/png/pngwutil.c ****       }
 10153              		.loc 1 2743 37 view .LVU3149
 10154 0597 410F49D2 		cmovns	%r10d, %edx
2739:fltk-1.3.4-1/png/pngwutil.c ****       {
 10155              		.loc 1 2739 41 view .LVU3150
 10156 059b 4883C701 		addq	$1, %rdi
 10157              	.LVL1005:
2743:fltk-1.3.4-1/png/pngwutil.c ****       }
 10158              		.loc 1 2743 14 view .LVU3151
 10159 059f 4101D0   		addl	%edx, %r8d
 10160              	.LVL1006:
2739:fltk-1.3.4-1/png/pngwutil.c ****       {
 10161              		.loc 1 2739 40 is_stmt 1 view .LVU3152
2739:fltk-1.3.4-1/png/pngwutil.c ****       {
 10162              		.loc 1 2739 31 view .LVU3153
2738:fltk-1.3.4-1/png/pngwutil.c ****            pp = prev_row + 1; i < bpp; i++)
 10163              		.loc 1 2738 7 is_stmt 0 view .LVU3154
 10164 05a2 4C39DF   		cmpq	%r11, %rdi
 10165 05a5 75C9     		jne	.L817
 10166 05a7 4C8B4C24 		movq	48(%rsp), %r9
 10166      30
 10167 05ac 4D01DD   		addq	%r11, %r13
 10168 05af 4D01DC   		addq	%r11, %r12
 10169 05b2 4C01DD   		addq	%r11, %rbp
 10170              	.LVL1007:
 10171              	.L814:
2746:fltk-1.3.4-1/png/pngwutil.c ****       {
 10172              		.loc 1 2746 30 is_stmt 1 view .LVU3155
2746:fltk-1.3.4-1/png/pngwutil.c ****       {
 10173              		.loc 1 2746 7 is_stmt 0 view .LVU3156
 10174 05b5 4D39D9   		cmpq	%r11, %r9
 10175 05b8 766E     		jbe	.L818
 10176 05ba 4D89CE   		movq	%r9, %r14
2751:fltk-1.3.4-1/png/pngwutil.c **** 
 10177              		.loc 1 2751 37 view .LVU3157
 10178 05bd 448B5424 		movl	40(%rsp), %r10d
 10178      28
 10179 05c2 48897424 		movq	%rsi, 48(%rsp)
 10179      30
2746:fltk-1.3.4-1/png/pngwutil.c ****       {
 10180              		.loc 1 2746 7 view .LVU3158
 10181 05c7 31FF     		xorl	%edi, %edi
 10182 05c9 4D29DE   		subq	%r11, %r14
2751:fltk-1.3.4-1/png/pngwutil.c **** 
 10183              		.loc 1 2751 37 view .LVU3159
 10184 05cc 4C894C24 		movq	%r9, 40(%rsp)
 10184      28
 10185              	.LVL1008:
2751:fltk-1.3.4-1/png/pngwutil.c **** 
 10186              		.loc 1 2751 37 view .LVU3160
 10187 05d1 41BB0001 		movl	$256, %r11d
 10187      0000
 10188 05d7 EB10     		jmp	.L821
 10189              	.LVL1009:
 10190 05d9 0F1F8000 		.p2align 4,,10
 10190      000000
 10191              		.p2align 3
 10192              	.L981:
2746:fltk-1.3.4-1/png/pngwutil.c ****       {
 10193              		.loc 1 2746 45 is_stmt 1 discriminator 2 view .LVU3161
2746:fltk-1.3.4-1/png/pngwutil.c ****       {
 10194              		.loc 1 2746 30 discriminator 2 view .LVU3162
 10195 05e0 4883C701 		addq	$1, %rdi
 10196              	.LVL1010:
2746:fltk-1.3.4-1/png/pngwutil.c ****       {
 10197              		.loc 1 2746 7 is_stmt 0 discriminator 2 view .LVU3163
 10198 05e4 4939FE   		cmpq	%rdi, %r14
 10199 05e7 7435     		je	.L966
 10200              	.LVL1011:
 10201              	.L821:
2748:fltk-1.3.4-1/png/pngwutil.c ****              (png_byte)(((int)*rp++ - (((int)*pp++ + (int)*lp++) / 2)) & 0xff);
 10202              		.loc 1 2748 10 is_stmt 1 view .LVU3164
2749:fltk-1.3.4-1/png/pngwutil.c **** 
 10203              		.loc 1 2749 54 is_stmt 0 view .LVU3165
 10204 05e9 0FB64C38 		movzbl	1(%rax,%rdi), %ecx
 10204      01
2749:fltk-1.3.4-1/png/pngwutil.c **** 
 10205              		.loc 1 2749 41 view .LVU3166
 10206 05ee 0FB6543D 		movzbl	0(%rbp,%rdi), %edx
 10206      00
2751:fltk-1.3.4-1/png/pngwutil.c **** 
 10207              		.loc 1 2751 37 view .LVU3167
 10208 05f3 4489DE   		movl	%r11d, %esi
2749:fltk-1.3.4-1/png/pngwutil.c **** 
 10209              		.loc 1 2749 52 view .LVU3168
 10210 05f6 01CA     		addl	%ecx, %edx
2749:fltk-1.3.4-1/png/pngwutil.c **** 
 10211              		.loc 1 2749 37 view .LVU3169
 10212 05f8 410FB64C 		movzbl	0(%r13,%rdi), %ecx
 10212      3D00
2749:fltk-1.3.4-1/png/pngwutil.c **** 
 10213              		.loc 1 2749 66 view .LVU3170
 10214 05fe D1FA     		sarl	%edx
2749:fltk-1.3.4-1/png/pngwutil.c **** 
 10215              		.loc 1 2749 37 view .LVU3171
 10216 0600 29D1     		subl	%edx, %ecx
2751:fltk-1.3.4-1/png/pngwutil.c **** 
 10217              		.loc 1 2751 31 view .LVU3172
 10218 0602 0FB6D1   		movzbl	%cl, %edx
2748:fltk-1.3.4-1/png/pngwutil.c ****              (png_byte)(((int)*rp++ - (((int)*pp++ + (int)*lp++) / 2)) & 0xff);
 10219              		.loc 1 2748 20 view .LVU3173
 10220 0605 41880C3C 		movb	%cl, (%r12,%rdi)
 10221              	.LVL1012:
2751:fltk-1.3.4-1/png/pngwutil.c **** 
 10222              		.loc 1 2751 10 is_stmt 1 view .LVU3174
2751:fltk-1.3.4-1/png/pngwutil.c **** 
 10223              		.loc 1 2751 37 is_stmt 0 view .LVU3175
 10224 0609 29D6     		subl	%edx, %esi
 10225 060b 4189D1   		movl	%edx, %r9d
 10226 060e 84C9     		testb	%cl, %cl
 10227 0610 89F2     		movl	%esi, %edx
 10228              	.LVL1013:
2751:fltk-1.3.4-1/png/pngwutil.c **** 
 10229              		.loc 1 2751 37 view .LVU3176
 10230 0612 410F49D1 		cmovns	%r9d, %edx
2751:fltk-1.3.4-1/png/pngwutil.c **** 
 10231              		.loc 1 2751 14 view .LVU3177
 10232 0616 4101D0   		addl	%edx, %r8d
 10233              	.LVL1014:
2753:fltk-1.3.4-1/png/pngwutil.c ****             break;
 10234              		.loc 1 2753 10 is_stmt 1 view .LVU3178
2753:fltk-1.3.4-1/png/pngwutil.c ****             break;
 10235              		.loc 1 2753 13 is_stmt 0 view .LVU3179
 10236 0619 4539C2   		cmpl	%r8d, %r10d
 10237 061c 73C2     		jnb	.L981
 10238              	.LVL1015:
 10239              	.L966:
2753:fltk-1.3.4-1/png/pngwutil.c ****             break;
 10240              		.loc 1 2753 13 view .LVU3180
 10241 061e 4C8B4C24 		movq	40(%rsp), %r9
 10241      28
 10242              	.LVL1016:
2753:fltk-1.3.4-1/png/pngwutil.c ****             break;
 10243              		.loc 1 2753 13 view .LVU3181
 10244 0623 488B7424 		movq	48(%rsp), %rsi
 10244      30
 10245              	.LVL1017:
 10246              	.L818:
2758:fltk-1.3.4-1/png/pngwutil.c ****       {
 10247              		.loc 1 2758 7 is_stmt 1 view .LVU3182
2758:fltk-1.3.4-1/png/pngwutil.c ****       {
 10248              		.loc 1 2758 10 is_stmt 0 view .LVU3183
 10249 0628 80BB9803 		cmpb	$2, 920(%rbx)
 10249      000002
 10250 062f 0F843B06 		je	.L982
 10250      0000
 10251              	.LVL1018:
 10252              	.L822:
2791:fltk-1.3.4-1/png/pngwutil.c ****       {
 10253              		.loc 1 2791 7 is_stmt 1 view .LVU3184
2791:fltk-1.3.4-1/png/pngwutil.c ****       {
 10254              		.loc 1 2791 10 is_stmt 0 view .LVU3185
 10255 0635 4539F8   		cmpl	%r15d, %r8d
 10256 0638 0F828A02 		jb	.L983
 10256      0000
 10257              	.LVL1019:
 10258              	.L809:
2791:fltk-1.3.4-1/png/pngwutil.c ****       {
 10259              		.loc 1 2791 10 view .LVU3186
 10260              	.LBE666:
2799:fltk-1.3.4-1/png/pngwutil.c ****    {
 10261              		.loc 1 2799 4 is_stmt 1 view .LVU3187
2799:fltk-1.3.4-1/png/pngwutil.c ****    {
 10262              		.loc 1 2799 7 is_stmt 0 view .LVU3188
 10263 063e 803C2480 		cmpb	$-128, (%rsp)
 10264 0642 0F85F400 		jne	.L788
 10264      0000
 10265              	.LBB670:
2801:fltk-1.3.4-1/png/pngwutil.c ****       png_size_t i;
 10266              		.loc 1 2801 7 is_stmt 1 view .LVU3189
2802:fltk-1.3.4-1/png/pngwutil.c **** 
 10267              		.loc 1 2802 7 view .LVU3190
2804:fltk-1.3.4-1/png/pngwutil.c ****           pp = prev_row + 1; i < bpp; i++)
 10268              		.loc 1 2804 7 view .LVU3191
 10269              	.LVL1020:
2804:fltk-1.3.4-1/png/pngwutil.c ****           pp = prev_row + 1; i < bpp; i++)
 10270              		.loc 1 2804 49 is_stmt 0 view .LVU3192
 10271 0648 4C8B8348 		movq	584(%rbx), %r8
 10271      020000
2805:fltk-1.3.4-1/png/pngwutil.c ****       {
 10272              		.loc 1 2805 32 view .LVU3193
 10273 064f 48634C24 		movslq	16(%rsp), %rcx
 10273      10
2804:fltk-1.3.4-1/png/pngwutil.c ****           pp = prev_row + 1; i < bpp; i++)
 10274              		.loc 1 2804 22 view .LVU3194
 10275 0654 4C8D7801 		leaq	1(%rax), %r15
 10276              	.LVL1021:
2805:fltk-1.3.4-1/png/pngwutil.c ****       {
 10277              		.loc 1 2805 14 view .LVU3195
 10278 0658 4C8D6E01 		leaq	1(%rsi), %r13
2804:fltk-1.3.4-1/png/pngwutil.c ****           pp = prev_row + 1; i < bpp; i++)
 10279              		.loc 1 2804 40 view .LVU3196
 10280 065c 4D8D7001 		leaq	1(%r8), %r14
 10281              	.LVL1022:
2805:fltk-1.3.4-1/png/pngwutil.c ****       {
 10282              		.loc 1 2805 30 is_stmt 1 view .LVU3197
2804:fltk-1.3.4-1/png/pngwutil.c ****           pp = prev_row + 1; i < bpp; i++)
 10283              		.loc 1 2804 7 is_stmt 0 view .LVU3198
 10284 0660 85C9     		testl	%ecx, %ecx
 10285 0662 0F844007 		je	.L875
 10285      0000
2804:fltk-1.3.4-1/png/pngwutil.c ****           pp = prev_row + 1; i < bpp; i++)
 10286              		.loc 1 2804 14 view .LVU3199
 10287 0668 31D2     		xorl	%edx, %edx
 10288              	.LVL1023:
 10289 066a 660F1F44 		.p2align 4,,10
 10289      0000
 10290              		.p2align 3
 10291              	.L827:
2807:fltk-1.3.4-1/png/pngwutil.c ****       }
 10292              		.loc 1 2807 10 is_stmt 1 discriminator 2 view .LVU3200
2807:fltk-1.3.4-1/png/pngwutil.c ****       }
 10293              		.loc 1 2807 41 is_stmt 0 discriminator 2 view .LVU3201
 10294 0670 0FB67C10 		movzbl	1(%rax,%rdx), %edi
 10294      01
 10295 0675 402A7C16 		subb	1(%rsi,%rdx), %dil
 10295      01
2807:fltk-1.3.4-1/png/pngwutil.c ****       }
 10296              		.loc 1 2807 16 discriminator 2 view .LVU3202
 10297 067a 41887C10 		movb	%dil, 1(%r8,%rdx)
 10297      01
2805:fltk-1.3.4-1/png/pngwutil.c ****       {
 10298              		.loc 1 2805 39 is_stmt 1 discriminator 2 view .LVU3203
2805:fltk-1.3.4-1/png/pngwutil.c ****       {
 10299              		.loc 1 2805 40 is_stmt 0 discriminator 2 view .LVU3204
 10300 067f 4883C201 		addq	$1, %rdx
 10301              	.LVL1024:
2805:fltk-1.3.4-1/png/pngwutil.c ****       {
 10302              		.loc 1 2805 30 is_stmt 1 discriminator 2 view .LVU3205
2804:fltk-1.3.4-1/png/pngwutil.c ****           pp = prev_row + 1; i < bpp; i++)
 10303              		.loc 1 2804 7 is_stmt 0 discriminator 2 view .LVU3206
 10304 0683 4839CA   		cmpq	%rcx, %rdx
 10305 0686 75E8     		jne	.L827
 10306 0688 4901CF   		addq	%rcx, %r15
 10307 068b 4901CE   		addq	%rcx, %r14
 10308 068e 4901CD   		addq	%rcx, %r13
 10309              	.LVL1025:
 10310              	.L826:
2810:fltk-1.3.4-1/png/pngwutil.c ****       {
 10311              		.loc 1 2810 49 is_stmt 1 view .LVU3207
 10312 0691 4C89CF   		movq	%r9, %rdi
 10313 0694 4829CF   		subq	%rcx, %rdi
 10314 0697 4889FA   		movq	%rdi, %rdx
2810:fltk-1.3.4-1/png/pngwutil.c ****       {
 10315              		.loc 1 2810 7 is_stmt 0 view .LVU3208
 10316 069a 31FF     		xorl	%edi, %edi
 10317 069c 4939C9   		cmpq	%rcx, %r9
 10318 069f 0F868600 		jbe	.L971
 10318      0000
 10319 06a5 48891C24 		movq	%rbx, (%rsp)
 10320              	.LVL1026:
2810:fltk-1.3.4-1/png/pngwutil.c ****       {
 10321              		.loc 1 2810 7 view .LVU3209
 10322 06a9 4989D4   		movq	%rdx, %r12
 10323              	.LVL1027:
 10324 06ac 0F1F4000 		.p2align 4,,10
 10325              		.p2align 3
 10326              	.L830:
 10327              	.LBB671:
2812:fltk-1.3.4-1/png/pngwutil.c **** 
 10328              		.loc 1 2812 10 is_stmt 1 view .LVU3210
2814:fltk-1.3.4-1/png/pngwutil.c ****          c = *cp++;
 10329              		.loc 1 2814 10 view .LVU3211
2815:fltk-1.3.4-1/png/pngwutil.c ****          a = *lp++;
 10330              		.loc 1 2815 14 is_stmt 0 view .LVU3212
 10331 06b0 440FB644 		movzbl	1(%rsi,%rdi), %r8d
 10331      3E01
2816:fltk-1.3.4-1/png/pngwutil.c **** 
 10332              		.loc 1 2816 14 view .LVU3213
 10333 06b6 0FB65438 		movzbl	1(%rax,%rdi), %edx
 10333      01
2814:fltk-1.3.4-1/png/pngwutil.c ****          c = *cp++;
 10334              		.loc 1 2814 14 view .LVU3214
 10335 06bb 410FB64C 		movzbl	0(%r13,%rdi), %ecx
 10335      3D00
2816:fltk-1.3.4-1/png/pngwutil.c **** 
 10336              		.loc 1 2816 14 view .LVU3215
 10337 06c1 4189D1   		movl	%edx, %r9d
2819:fltk-1.3.4-1/png/pngwutil.c **** 
 10338              		.loc 1 2819 13 view .LVU3216
 10339 06c4 4429C2   		subl	%r8d, %edx
2815:fltk-1.3.4-1/png/pngwutil.c ****          a = *lp++;
 10340              		.loc 1 2815 14 view .LVU3217
 10341 06c7 4589C3   		movl	%r8d, %r11d
2827:fltk-1.3.4-1/png/pngwutil.c ****          pc = (p + pc) < 0 ? -(p + pc) : p + pc;
 10342              		.loc 1 2827 13 view .LVU3218
 10343 06ca 4189D2   		movl	%edx, %r10d
2814:fltk-1.3.4-1/png/pngwutil.c ****          c = *cp++;
 10344              		.loc 1 2814 14 view .LVU3219
 10345 06cd 89CB     		movl	%ecx, %ebx
 10346              	.LVL1028:
2815:fltk-1.3.4-1/png/pngwutil.c ****          a = *lp++;
 10347              		.loc 1 2815 10 is_stmt 1 view .LVU3220
2816:fltk-1.3.4-1/png/pngwutil.c **** 
 10348              		.loc 1 2816 10 view .LVU3221
2818:fltk-1.3.4-1/png/pngwutil.c ****          pc = a - c;
 10349              		.loc 1 2818 10 view .LVU3222
2818:fltk-1.3.4-1/png/pngwutil.c ****          pc = a - c;
 10350              		.loc 1 2818 12 is_stmt 0 view .LVU3223
 10351 06cf 4429C1   		subl	%r8d, %ecx
 10352              	.LVL1029:
2819:fltk-1.3.4-1/png/pngwutil.c **** 
 10353              		.loc 1 2819 10 is_stmt 1 view .LVU3224
2826:fltk-1.3.4-1/png/pngwutil.c ****          pb = pc < 0 ? -pc : pc;
 10354              		.loc 1 2826 10 view .LVU3225
2827:fltk-1.3.4-1/png/pngwutil.c ****          pc = (p + pc) < 0 ? -(p + pc) : p + pc;
 10355              		.loc 1 2827 10 view .LVU3226
2827:fltk-1.3.4-1/png/pngwutil.c ****          pc = (p + pc) < 0 ? -(p + pc) : p + pc;
 10356              		.loc 1 2827 13 is_stmt 0 view .LVU3227
 10357 06d2 41C1FA1F 		sarl	$31, %r10d
 10358 06d6 4589D0   		movl	%r10d, %r8d
 10359              	.LVL1030:
2827:fltk-1.3.4-1/png/pngwutil.c ****          pc = (p + pc) < 0 ? -(p + pc) : p + pc;
 10360              		.loc 1 2827 13 view .LVU3228
 10361 06d9 4131D0   		xorl	%edx, %r8d
2828:fltk-1.3.4-1/png/pngwutil.c **** #endif
 10362              		.loc 1 2828 44 view .LVU3229
 10363 06dc 01CA     		addl	%ecx, %edx
 10364              	.LVL1031:
2827:fltk-1.3.4-1/png/pngwutil.c ****          pc = (p + pc) < 0 ? -(p + pc) : p + pc;
 10365              		.loc 1 2827 13 view .LVU3230
 10366 06de 4529D0   		subl	%r10d, %r8d
 10367              	.LVL1032:
2828:fltk-1.3.4-1/png/pngwutil.c **** #endif
 10368              		.loc 1 2828 10 is_stmt 1 view .LVU3231
2828:fltk-1.3.4-1/png/pngwutil.c **** #endif
 10369              		.loc 1 2828 13 is_stmt 0 view .LVU3232
 10370 06e1 4189D2   		movl	%edx, %r10d
 10371 06e4 41C1FA1F 		sarl	$31, %r10d
 10372 06e8 4431D2   		xorl	%r10d, %edx
 10373 06eb 4429D2   		subl	%r10d, %edx
 10374              	.LVL1033:
2831:fltk-1.3.4-1/png/pngwutil.c **** 
 10375              		.loc 1 2831 10 is_stmt 1 view .LVU3233
2826:fltk-1.3.4-1/png/pngwutil.c ****          pb = pc < 0 ? -pc : pc;
 10376              		.loc 1 2826 13 is_stmt 0 view .LVU3234
 10377 06ee 4189CA   		movl	%ecx, %r10d
2831:fltk-1.3.4-1/png/pngwutil.c **** 
 10378              		.loc 1 2831 40 view .LVU3235
 10379 06f1 4139D0   		cmpl	%edx, %r8d
 10380 06f4 89D5     		movl	%edx, %ebp
 10381 06f6 410F4EE8 		cmovle	%r8d, %ebp
2826:fltk-1.3.4-1/png/pngwutil.c ****          pb = pc < 0 ? -pc : pc;
 10382              		.loc 1 2826 13 view .LVU3236
 10383 06fa 41C1FA1F 		sarl	$31, %r10d
 10384 06fe 4431D1   		xorl	%r10d, %ecx
 10385              	.LVL1034:
2826:fltk-1.3.4-1/png/pngwutil.c ****          pb = pc < 0 ? -pc : pc;
 10386              		.loc 1 2826 13 view .LVU3237
 10387 0701 4429D1   		subl	%r10d, %ecx
2831:fltk-1.3.4-1/png/pngwutil.c **** 
 10388              		.loc 1 2831 40 view .LVU3238
 10389 0704 39CD     		cmpl	%ecx, %ebp
 10390 0706 7D0A     		jge	.L829
2831:fltk-1.3.4-1/png/pngwutil.c **** 
 10391              		.loc 1 2831 57 discriminator 1 view .LVU3239
 10392 0708 4139D0   		cmpl	%edx, %r8d
 10393 070b 4589D9   		movl	%r11d, %r9d
 10394 070e 440F4ECB 		cmovle	%ebx, %r9d
 10395              	.L829:
 10396              	.LVL1035:
2833:fltk-1.3.4-1/png/pngwutil.c ****       }
 10397              		.loc 1 2833 10 is_stmt 1 discriminator 8 view .LVU3240
2833:fltk-1.3.4-1/png/pngwutil.c ****       }
 10398              		.loc 1 2833 41 is_stmt 0 discriminator 8 view .LVU3241
 10399 0712 410FB614 		movzbl	(%r15,%rdi), %edx
 10399      3F
 10400              	.LVL1036:
2833:fltk-1.3.4-1/png/pngwutil.c ****       }
 10401              		.loc 1 2833 41 discriminator 8 view .LVU3242
 10402 0717 4429CA   		subl	%r9d, %edx
2833:fltk-1.3.4-1/png/pngwutil.c ****       }
 10403              		.loc 1 2833 16 discriminator 8 view .LVU3243
 10404 071a 4188143E 		movb	%dl, (%r14,%rdi)
 10405              	.LVL1037:
2833:fltk-1.3.4-1/png/pngwutil.c ****       }
 10406              		.loc 1 2833 16 discriminator 8 view .LVU3244
 10407              	.LBE671:
2810:fltk-1.3.4-1/png/pngwutil.c ****       {
 10408              		.loc 1 2810 64 is_stmt 1 discriminator 8 view .LVU3245
2810:fltk-1.3.4-1/png/pngwutil.c ****       {
 10409              		.loc 1 2810 49 discriminator 8 view .LVU3246
 10410 071e 4883C701 		addq	$1, %rdi
 10411              	.LVL1038:
2810:fltk-1.3.4-1/png/pngwutil.c ****       {
 10412              		.loc 1 2810 7 is_stmt 0 discriminator 8 view .LVU3247
 10413 0722 4939FC   		cmpq	%rdi, %r12
 10414 0725 7589     		jne	.L830
 10415 0727 488B1C24 		movq	(%rsp), %rbx
 10416              	.LVL1039:
 10417              	.L971:
2810:fltk-1.3.4-1/png/pngwutil.c ****       {
 10418              		.loc 1 2810 7 discriminator 8 view .LVU3248
 10419              	.LBE670:
 10420              	.LBB672:
2968:fltk-1.3.4-1/png/pngwutil.c ****       }
 10421              		.loc 1 2968 10 is_stmt 1 view .LVU3249
2968:fltk-1.3.4-1/png/pngwutil.c ****       }
 10422              		.loc 1 2968 19 is_stmt 0 view .LVU3250
 10423 072b 488B8348 		movq	584(%rbx), %rax
 10423      020000
 10424 0732 48894424 		movq	%rax, 8(%rsp)
 10424      08
 10425              	.LVL1040:
2968:fltk-1.3.4-1/png/pngwutil.c ****       }
 10426              		.loc 1 2968 19 view .LVU3251
 10427 0737 E96EFAFF 		jmp	.L807
 10427      FF
 10428              	.LVL1041:
 10429              	.L788:
2968:fltk-1.3.4-1/png/pngwutil.c ****       }
 10430              		.loc 1 2968 19 view .LVU3252
 10431              	.LBE672:
2838:fltk-1.3.4-1/png/pngwutil.c ****    {
 10432              		.loc 1 2838 9 is_stmt 1 view .LVU3253
2838:fltk-1.3.4-1/png/pngwutil.c ****    {
 10433              		.loc 1 2838 12 is_stmt 0 view .LVU3254
 10434 073c 803C2400 		cmpb	$0, (%rsp)
 10435 0740 0F8964FA 		jns	.L807
 10435      FFFF
 10436              	.LBB679:
2840:fltk-1.3.4-1/png/pngwutil.c ****       png_uint_32 sum = 0, lmins = mins;
 10437              		.loc 1 2840 7 is_stmt 1 view .LVU3255
2841:fltk-1.3.4-1/png/pngwutil.c ****       png_size_t i;
 10438              		.loc 1 2841 7 view .LVU3256
 10439              	.LVL1042:
2842:fltk-1.3.4-1/png/pngwutil.c ****       int v;
 10440              		.loc 1 2842 7 view .LVU3257
2843:fltk-1.3.4-1/png/pngwutil.c **** 
 10441              		.loc 1 2843 7 view .LVU3258
2846:fltk-1.3.4-1/png/pngwutil.c ****       {
 10442              		.loc 1 2846 7 view .LVU3259
2846:fltk-1.3.4-1/png/pngwutil.c ****       {
 10443              		.loc 1 2846 10 is_stmt 0 view .LVU3260
 10444 0746 80BB9803 		cmpb	$2, 920(%rbx)
 10444      000002
 10445              	.LBB673:
 10446 074d 44893C24 		movl	%r15d, (%rsp)
 10447              	.LVL1043:
2846:fltk-1.3.4-1/png/pngwutil.c ****       {
 10448              		.loc 1 2846 10 view .LVU3261
 10449              	.LBE673:
 10450 0751 0F843102 		je	.L984
 10450      0000
 10451              	.L832:
 10452              	.LVL1044:
2879:fltk-1.3.4-1/png/pngwutil.c ****           pp = prev_row + 1; i < bpp; i++)
 10453              		.loc 1 2879 7 is_stmt 1 view .LVU3262
2879:fltk-1.3.4-1/png/pngwutil.c ****           pp = prev_row + 1; i < bpp; i++)
 10454              		.loc 1 2879 49 is_stmt 0 view .LVU3263
 10455 0757 488BAB48 		movq	584(%rbx), %rbp
 10455      020000
2880:fltk-1.3.4-1/png/pngwutil.c ****       {
 10456              		.loc 1 2880 32 view .LVU3264
 10457 075e 4C635C24 		movslq	16(%rsp), %r11
 10457      10
2879:fltk-1.3.4-1/png/pngwutil.c ****           pp = prev_row + 1; i < bpp; i++)
 10458              		.loc 1 2879 22 view .LVU3265
 10459 0763 4C8D6801 		leaq	1(%rax), %r13
 10460              	.LVL1045:
2879:fltk-1.3.4-1/png/pngwutil.c ****           pp = prev_row + 1; i < bpp; i++)
 10461              		.loc 1 2879 40 view .LVU3266
 10462 0767 488D7D01 		leaq	1(%rbp), %rdi
 10463 076b 48897C24 		movq	%rdi, 48(%rsp)
 10463      30
 10464              	.LVL1046:
2880:fltk-1.3.4-1/png/pngwutil.c ****       {
 10465              		.loc 1 2880 14 view .LVU3267
 10466 0770 488D7E01 		leaq	1(%rsi), %rdi
 10467              	.LVL1047:
2880:fltk-1.3.4-1/png/pngwutil.c ****       {
 10468              		.loc 1 2880 14 view .LVU3268
 10469 0774 48897C24 		movq	%rdi, 40(%rsp)
 10469      28
 10470              	.LVL1048:
2880:fltk-1.3.4-1/png/pngwutil.c ****       {
 10471              		.loc 1 2880 30 is_stmt 1 view .LVU3269
2879:fltk-1.3.4-1/png/pngwutil.c ****           pp = prev_row + 1; i < bpp; i++)
 10472              		.loc 1 2879 7 is_stmt 0 view .LVU3270
 10473 0779 4585DB   		testl	%r11d, %r11d
 10474 077c 0F844A06 		je	.L879
 10474      0000
2879:fltk-1.3.4-1/png/pngwutil.c ****           pp = prev_row + 1; i < bpp; i++)
 10475              		.loc 1 2879 14 view .LVU3271
 10476 0782 31C9     		xorl	%ecx, %ecx
2841:fltk-1.3.4-1/png/pngwutil.c ****       png_size_t i;
 10477              		.loc 1 2841 19 view .LVU3272
 10478 0784 4531D2   		xorl	%r10d, %r10d
2884:fltk-1.3.4-1/png/pngwutil.c ****       }
 10479              		.loc 1 2884 37 view .LVU3273
 10480 0787 41BC0001 		movl	$256, %r12d
 10480      0000
 10481              	.LVL1049:
 10482 078d 0F1F00   		.p2align 4,,10
 10483              		.p2align 3
 10484              	.L839:
2882:fltk-1.3.4-1/png/pngwutil.c **** 
 10485              		.loc 1 2882 10 is_stmt 1 view .LVU3274
2882:fltk-1.3.4-1/png/pngwutil.c **** 
 10486              		.loc 1 2882 45 is_stmt 0 view .LVU3275
 10487 0790 0FB67C08 		movzbl	1(%rax,%rcx), %edi
 10487      01
 10488 0795 402A7C0E 		subb	1(%rsi,%rcx), %dil
 10488      01
2884:fltk-1.3.4-1/png/pngwutil.c ****       }
 10489              		.loc 1 2884 37 view .LVU3276
 10490 079a 4589E6   		movl	%r12d, %r14d
2884:fltk-1.3.4-1/png/pngwutil.c ****       }
 10491              		.loc 1 2884 31 view .LVU3277
 10492 079d 400FB6D7 		movzbl	%dil, %edx
2882:fltk-1.3.4-1/png/pngwutil.c **** 
 10493              		.loc 1 2882 20 view .LVU3278
 10494 07a1 40887C0D 		movb	%dil, 1(%rbp,%rcx)
 10494      01
 10495              	.LVL1050:
2884:fltk-1.3.4-1/png/pngwutil.c ****       }
 10496              		.loc 1 2884 10 is_stmt 1 view .LVU3279
2884:fltk-1.3.4-1/png/pngwutil.c ****       }
 10497              		.loc 1 2884 37 is_stmt 0 view .LVU3280
 10498 07a6 4129D6   		subl	%edx, %r14d
 10499 07a9 4189D0   		movl	%edx, %r8d
 10500 07ac 4084FF   		testb	%dil, %dil
 10501 07af 4489F2   		movl	%r14d, %edx
 10502              	.LVL1051:
2884:fltk-1.3.4-1/png/pngwutil.c ****       }
 10503              		.loc 1 2884 37 view .LVU3281
 10504 07b2 410F49D0 		cmovns	%r8d, %edx
2880:fltk-1.3.4-1/png/pngwutil.c ****       {
 10505              		.loc 1 2880 40 view .LVU3282
 10506 07b6 4883C101 		addq	$1, %rcx
 10507              	.LVL1052:
2884:fltk-1.3.4-1/png/pngwutil.c ****       }
 10508              		.loc 1 2884 14 view .LVU3283
 10509 07ba 4101D2   		addl	%edx, %r10d
 10510              	.LVL1053:
2880:fltk-1.3.4-1/png/pngwutil.c ****       {
 10511              		.loc 1 2880 39 is_stmt 1 view .LVU3284
2880:fltk-1.3.4-1/png/pngwutil.c ****       {
 10512              		.loc 1 2880 30 view .LVU3285
2879:fltk-1.3.4-1/png/pngwutil.c ****           pp = prev_row + 1; i < bpp; i++)
 10513              		.loc 1 2879 7 is_stmt 0 view .LVU3286
 10514 07bd 4C39D9   		cmpq	%r11, %rcx
 10515 07c0 75CE     		jne	.L839
 10516 07c2 4C015C24 		addq	%r11, 48(%rsp)
 10516      30
 10517 07c7 4D01DD   		addq	%r11, %r13
 10518 07ca 4C015C24 		addq	%r11, 40(%rsp)
 10518      28
 10519              	.LVL1054:
 10520              	.L836:
2887:fltk-1.3.4-1/png/pngwutil.c ****       {
 10521              		.loc 1 2887 49 is_stmt 1 view .LVU3287
2887:fltk-1.3.4-1/png/pngwutil.c ****       {
 10522              		.loc 1 2887 7 is_stmt 0 view .LVU3288
 10523 07cf 4D39D9   		cmpq	%r11, %r9
 10524 07d2 0F86D200 		jbe	.L840
 10524      0000
 10525 07d8 4D29D9   		subq	%r11, %r9
 10526              	.LBB674:
2926:fltk-1.3.4-1/png/pngwutil.c **** 
 10527              		.loc 1 2926 37 view .LVU3289
 10528 07db 44897C24 		movl	%r15d, 60(%rsp)
 10528      3C
 10529 07e0 4C8B7424 		movq	40(%rsp), %r14
 10529      28
 10530              	.LBE674:
2887:fltk-1.3.4-1/png/pngwutil.c ****       {
 10531              		.loc 1 2887 7 view .LVU3290
 10532 07e5 31FF     		xorl	%edi, %edi
 10533 07e7 4C894C24 		movq	%r9, 16(%rsp)
 10533      10
 10534              	.LBB675:
2926:fltk-1.3.4-1/png/pngwutil.c **** 
 10535              		.loc 1 2926 37 view .LVU3291
 10536 07ec 4C8B7C24 		movq	48(%rsp), %r15
 10536      30
 10537 07f1 48895C24 		movq	%rbx, 40(%rsp)
 10537      28
 10538              	.LVL1055:
2926:fltk-1.3.4-1/png/pngwutil.c **** 
 10539              		.loc 1 2926 37 view .LVU3292
 10540 07f6 EB17     		jmp	.L844
 10541              	.LVL1056:
 10542 07f8 0F1F8400 		.p2align 4,,10
 10542      00000000 
 10543              		.p2align 3
 10544              	.L985:
2926:fltk-1.3.4-1/png/pngwutil.c **** 
 10545              		.loc 1 2926 37 view .LVU3293
 10546              	.LBE675:
2887:fltk-1.3.4-1/png/pngwutil.c ****       {
 10547              		.loc 1 2887 64 is_stmt 1 discriminator 2 view .LVU3294
2887:fltk-1.3.4-1/png/pngwutil.c ****       {
 10548              		.loc 1 2887 49 discriminator 2 view .LVU3295
 10549 0800 4883C701 		addq	$1, %rdi
 10550              	.LVL1057:
2887:fltk-1.3.4-1/png/pngwutil.c ****       {
 10551              		.loc 1 2887 7 is_stmt 0 discriminator 2 view .LVU3296
 10552 0804 48397C24 		cmpq	%rdi, 16(%rsp)
 10552      10
 10553 0809 0F849100 		je	.L968
 10553      0000
 10554              	.LVL1058:
 10555              	.L844:
 10556              	.LBB676:
2889:fltk-1.3.4-1/png/pngwutil.c **** 
 10557              		.loc 1 2889 10 is_stmt 1 view .LVU3297
2891:fltk-1.3.4-1/png/pngwutil.c ****          c = *cp++;
 10558              		.loc 1 2891 10 view .LVU3298
2892:fltk-1.3.4-1/png/pngwutil.c ****          a = *lp++;
 10559              		.loc 1 2892 14 is_stmt 0 view .LVU3299
 10560 080f 440FB644 		movzbl	1(%rsi,%rdi), %r8d
 10560      3E01
2893:fltk-1.3.4-1/png/pngwutil.c **** 
 10561              		.loc 1 2893 14 view .LVU3300
 10562 0815 0FB65438 		movzbl	1(%rax,%rdi), %edx
 10562      01
2891:fltk-1.3.4-1/png/pngwutil.c ****          c = *cp++;
 10563              		.loc 1 2891 14 view .LVU3301
 10564 081a 410FB60C 		movzbl	(%r14,%rdi), %ecx
 10564      3E
2893:fltk-1.3.4-1/png/pngwutil.c **** 
 10565              		.loc 1 2893 14 view .LVU3302
 10566 081f 4189D1   		movl	%edx, %r9d
2897:fltk-1.3.4-1/png/pngwutil.c **** #ifdef PNG_USE_ABS
 10567              		.loc 1 2897 13 view .LVU3303
 10568 0822 4429C2   		subl	%r8d, %edx
2892:fltk-1.3.4-1/png/pngwutil.c ****          a = *lp++;
 10569              		.loc 1 2892 14 view .LVU3304
 10570 0825 4489C3   		movl	%r8d, %ebx
2904:fltk-1.3.4-1/png/pngwutil.c ****          pc = (p + pc) < 0 ? -(p + pc) : p + pc;
 10571              		.loc 1 2904 13 view .LVU3305
 10572 0828 4189D3   		movl	%edx, %r11d
2891:fltk-1.3.4-1/png/pngwutil.c ****          c = *cp++;
 10573              		.loc 1 2891 14 view .LVU3306
 10574 082b 89CD     		movl	%ecx, %ebp
 10575              	.LVL1059:
2892:fltk-1.3.4-1/png/pngwutil.c ****          a = *lp++;
 10576              		.loc 1 2892 10 is_stmt 1 view .LVU3307
2893:fltk-1.3.4-1/png/pngwutil.c **** 
 10577              		.loc 1 2893 10 view .LVU3308
2896:fltk-1.3.4-1/png/pngwutil.c ****          pc = a - c;
 10578              		.loc 1 2896 10 view .LVU3309
2896:fltk-1.3.4-1/png/pngwutil.c ****          pc = a - c;
 10579              		.loc 1 2896 12 is_stmt 0 view .LVU3310
 10580 082d 4429C1   		subl	%r8d, %ecx
 10581              	.LVL1060:
2897:fltk-1.3.4-1/png/pngwutil.c **** #ifdef PNG_USE_ABS
 10582              		.loc 1 2897 10 is_stmt 1 view .LVU3311
2903:fltk-1.3.4-1/png/pngwutil.c ****          pb = pc < 0 ? -pc : pc;
 10583              		.loc 1 2903 10 view .LVU3312
2904:fltk-1.3.4-1/png/pngwutil.c ****          pc = (p + pc) < 0 ? -(p + pc) : p + pc;
 10584              		.loc 1 2904 10 view .LVU3313
2904:fltk-1.3.4-1/png/pngwutil.c ****          pc = (p + pc) < 0 ? -(p + pc) : p + pc;
 10585              		.loc 1 2904 13 is_stmt 0 view .LVU3314
 10586 0830 41C1FB1F 		sarl	$31, %r11d
 10587 0834 4589D8   		movl	%r11d, %r8d
 10588 0837 4131D0   		xorl	%edx, %r8d
2905:fltk-1.3.4-1/png/pngwutil.c **** #endif
 10589              		.loc 1 2905 44 view .LVU3315
 10590 083a 01CA     		addl	%ecx, %edx
 10591              	.LVL1061:
2904:fltk-1.3.4-1/png/pngwutil.c ****          pc = (p + pc) < 0 ? -(p + pc) : p + pc;
 10592              		.loc 1 2904 13 view .LVU3316
 10593 083c 4529D8   		subl	%r11d, %r8d
 10594              	.LVL1062:
2905:fltk-1.3.4-1/png/pngwutil.c **** #endif
 10595              		.loc 1 2905 10 is_stmt 1 view .LVU3317
2905:fltk-1.3.4-1/png/pngwutil.c **** #endif
 10596              		.loc 1 2905 13 is_stmt 0 view .LVU3318
 10597 083f 4189D3   		movl	%edx, %r11d
 10598 0842 41C1FB1F 		sarl	$31, %r11d
 10599 0846 4431DA   		xorl	%r11d, %edx
 10600 0849 4429DA   		subl	%r11d, %edx
 10601              	.LVL1063:
2907:fltk-1.3.4-1/png/pngwutil.c **** #else /* SLOW_PAETH */
 10602              		.loc 1 2907 10 is_stmt 1 view .LVU3319
2903:fltk-1.3.4-1/png/pngwutil.c ****          pb = pc < 0 ? -pc : pc;
 10603              		.loc 1 2903 13 is_stmt 0 view .LVU3320
 10604 084c 4189CB   		movl	%ecx, %r11d
2907:fltk-1.3.4-1/png/pngwutil.c **** #else /* SLOW_PAETH */
 10605              		.loc 1 2907 40 view .LVU3321
 10606 084f 4139D0   		cmpl	%edx, %r8d
 10607 0852 4189D4   		movl	%edx, %r12d
 10608 0855 450F4EE0 		cmovle	%r8d, %r12d
2903:fltk-1.3.4-1/png/pngwutil.c ****          pb = pc < 0 ? -pc : pc;
 10609              		.loc 1 2903 13 view .LVU3322
 10610 0859 41C1FB1F 		sarl	$31, %r11d
 10611 085d 4431D9   		xorl	%r11d, %ecx
 10612              	.LVL1064:
2903:fltk-1.3.4-1/png/pngwutil.c ****          pb = pc < 0 ? -pc : pc;
 10613              		.loc 1 2903 13 view .LVU3323
 10614 0860 4429D9   		subl	%r11d, %ecx
2907:fltk-1.3.4-1/png/pngwutil.c **** #else /* SLOW_PAETH */
 10615              		.loc 1 2907 40 view .LVU3324
 10616 0863 4139CC   		cmpl	%ecx, %r12d
 10617 0866 7D09     		jge	.L841
2907:fltk-1.3.4-1/png/pngwutil.c **** #else /* SLOW_PAETH */
 10618              		.loc 1 2907 57 discriminator 1 view .LVU3325
 10619 0868 4139D0   		cmpl	%edx, %r8d
 10620 086b 0F4EDD   		cmovle	%ebp, %ebx
 10621              	.LVL1065:
2907:fltk-1.3.4-1/png/pngwutil.c **** #else /* SLOW_PAETH */
 10622              		.loc 1 2907 57 discriminator 1 view .LVU3326
 10623 086e 4189D9   		movl	%ebx, %r9d
 10624              	.L841:
 10625              	.LVL1066:
2924:fltk-1.3.4-1/png/pngwutil.c **** 
 10626              		.loc 1 2924 10 is_stmt 1 discriminator 8 view .LVU3327
2924:fltk-1.3.4-1/png/pngwutil.c **** 
 10627              		.loc 1 2924 45 is_stmt 0 discriminator 8 view .LVU3328
 10628 0871 410FB64C 		movzbl	0(%r13,%rdi), %ecx
 10628      3D00
2926:fltk-1.3.4-1/png/pngwutil.c **** 
 10629              		.loc 1 2926 37 discriminator 8 view .LVU3329
 10630 0877 BB000100 		movl	$256, %ebx
 10630      00
2924:fltk-1.3.4-1/png/pngwutil.c **** 
 10631              		.loc 1 2924 45 discriminator 8 view .LVU3330
 10632 087c 4429C9   		subl	%r9d, %ecx
2926:fltk-1.3.4-1/png/pngwutil.c **** 
 10633              		.loc 1 2926 31 discriminator 8 view .LVU3331
 10634 087f 0FB6D1   		movzbl	%cl, %edx
 10635              	.LVL1067:
2924:fltk-1.3.4-1/png/pngwutil.c **** 
 10636              		.loc 1 2924 20 discriminator 8 view .LVU3332
 10637 0882 41880C3F 		movb	%cl, (%r15,%rdi)
 10638              	.LVL1068:
2926:fltk-1.3.4-1/png/pngwutil.c **** 
 10639              		.loc 1 2926 10 is_stmt 1 discriminator 8 view .LVU3333
2926:fltk-1.3.4-1/png/pngwutil.c **** 
 10640              		.loc 1 2926 37 is_stmt 0 discriminator 8 view .LVU3334
 10641 0886 29D3     		subl	%edx, %ebx
 10642 0888 4189D0   		movl	%edx, %r8d
 10643              	.LVL1069:
2926:fltk-1.3.4-1/png/pngwutil.c **** 
 10644              		.loc 1 2926 37 discriminator 8 view .LVU3335
 10645 088b 84C9     		testb	%cl, %cl
 10646 088d 89DA     		movl	%ebx, %edx
 10647              	.LVL1070:
2926:fltk-1.3.4-1/png/pngwutil.c **** 
 10648              		.loc 1 2926 37 discriminator 8 view .LVU3336
 10649 088f 410F49D0 		cmovns	%r8d, %edx
2926:fltk-1.3.4-1/png/pngwutil.c **** 
 10650              		.loc 1 2926 14 discriminator 8 view .LVU3337
 10651 0893 4101D2   		addl	%edx, %r10d
 10652              	.LVL1071:
2928:fltk-1.3.4-1/png/pngwutil.c ****             break;
 10653              		.loc 1 2928 10 is_stmt 1 discriminator 8 view .LVU3338
2928:fltk-1.3.4-1/png/pngwutil.c ****             break;
 10654              		.loc 1 2928 13 is_stmt 0 discriminator 8 view .LVU3339
 10655 0896 44391424 		cmpl	%r10d, (%rsp)
 10656 089a 0F8360FF 		jnb	.L985
 10656      FFFF
 10657              	.LVL1072:
 10658              	.L968:
2928:fltk-1.3.4-1/png/pngwutil.c ****             break;
 10659              		.loc 1 2928 13 discriminator 8 view .LVU3340
 10660 08a0 448B7C24 		movl	60(%rsp), %r15d
 10660      3C
2928:fltk-1.3.4-1/png/pngwutil.c ****             break;
 10661              		.loc 1 2928 13 discriminator 8 view .LVU3341
 10662 08a5 488B5C24 		movq	40(%rsp), %rbx
 10662      28
 10663              	.LVL1073:
 10664              	.L840:
2928:fltk-1.3.4-1/png/pngwutil.c ****             break;
 10665              		.loc 1 2928 13 discriminator 8 view .LVU3342
 10666              	.LBE676:
2933:fltk-1.3.4-1/png/pngwutil.c ****       {
 10667              		.loc 1 2933 7 is_stmt 1 view .LVU3343
2933:fltk-1.3.4-1/png/pngwutil.c ****       {
 10668              		.loc 1 2933 10 is_stmt 0 view .LVU3344
 10669 08aa 80BB9803 		cmpb	$2, 920(%rbx)
 10669      000002
 10670 08b1 7445     		je	.L986
 10671              	.LVL1074:
 10672              	.L845:
2966:fltk-1.3.4-1/png/pngwutil.c ****       {
 10673              		.loc 1 2966 7 is_stmt 1 view .LVU3345
2966:fltk-1.3.4-1/png/pngwutil.c ****       {
 10674              		.loc 1 2966 10 is_stmt 0 view .LVU3346
 10675 08b3 4539FA   		cmpl	%r15d, %r10d
 10676 08b6 0F83EEF8 		jnb	.L807
 10676      FFFF
 10677 08bc E96AFEFF 		jmp	.L971
 10677      FF
 10678              	.LVL1075:
 10679              		.p2align 4,,10
 10680 08c1 0F1F8000 		.p2align 3
 10680      000000
 10681              	.L983:
2966:fltk-1.3.4-1/png/pngwutil.c ****       {
 10682              		.loc 1 2966 10 view .LVU3347
 10683              	.LBE679:
 10684              	.LBB680:
2793:fltk-1.3.4-1/png/pngwutil.c ****          best_row = png_ptr->avg_row;
 10685              		.loc 1 2793 10 is_stmt 1 view .LVU3348
2794:fltk-1.3.4-1/png/pngwutil.c ****       }
 10686              		.loc 1 2794 10 view .LVU3349
2794:fltk-1.3.4-1/png/pngwutil.c ****       }
 10687              		.loc 1 2794 19 is_stmt 0 view .LVU3350
 10688 08c8 488BBB40 		movq	576(%rbx), %rdi
 10688      020000
 10689 08cf 4589C7   		movl	%r8d, %r15d
 10690 08d2 48897C24 		movq	%rdi, 8(%rsp)
 10690      08
 10691              	.LVL1076:
2794:fltk-1.3.4-1/png/pngwutil.c ****       }
 10692              		.loc 1 2794 19 view .LVU3351
 10693 08d7 E962FDFF 		jmp	.L809
 10693      FF
 10694              	.LVL1077:
 10695 08dc 0F1F4000 		.p2align 4,,10
 10696              		.p2align 3
 10697              	.L979:
2794:fltk-1.3.4-1/png/pngwutil.c ****       }
 10698              		.loc 1 2794 19 view .LVU3352
 10699              	.LBE680:
 10700              	.LBB681:
2672:fltk-1.3.4-1/png/pngwutil.c ****          best_row = png_ptr->up_row;
 10701              		.loc 1 2672 10 is_stmt 1 view .LVU3353
2673:fltk-1.3.4-1/png/pngwutil.c ****       }
 10702              		.loc 1 2673 10 view .LVU3354
2673:fltk-1.3.4-1/png/pngwutil.c ****       }
 10703              		.loc 1 2673 19 is_stmt 0 view .LVU3355
 10704 08e0 488BBB38 		movq	568(%rbx), %rdi
 10704      020000
 10705 08e7 4589C7   		movl	%r8d, %r15d
 10706 08ea 48897C24 		movq	%rdi, 8(%rsp)
 10706      08
 10707              	.LVL1078:
2673:fltk-1.3.4-1/png/pngwutil.c ****       }
 10708              		.loc 1 2673 19 view .LVU3356
 10709 08ef E9FCFAFF 		jmp	.L789
 10709      FF
 10710              	.LVL1079:
 10711              		.p2align 4,,10
 10712 08f4 0F1F4000 		.p2align 3
 10713              	.L986:
2673:fltk-1.3.4-1/png/pngwutil.c ****       }
 10714              		.loc 1 2673 19 view .LVU3357
 10715              	.LBE681:
 10716              	.LBB682:
 10717              	.LBB677:
2935:fltk-1.3.4-1/png/pngwutil.c ****          png_uint_32 sumhi, sumlo;
 10718              		.loc 1 2935 10 is_stmt 1 view .LVU3358
2936:fltk-1.3.4-1/png/pngwutil.c ****          sumlo = sum & PNG_LOMASK;
 10719              		.loc 1 2936 10 view .LVU3359
2937:fltk-1.3.4-1/png/pngwutil.c ****          sumhi = (sum >> PNG_HISHIFT) & PNG_HIMASK;
 10720              		.loc 1 2937 10 view .LVU3360
2940:fltk-1.3.4-1/png/pngwutil.c ****          {
 10721              		.loc 1 2940 10 is_stmt 0 view .LVU3361
 10722 08f8 8B7C241C 		movl	28(%rsp), %edi
2937:fltk-1.3.4-1/png/pngwutil.c ****          sumhi = (sum >> PNG_HISHIFT) & PNG_HIMASK;
 10723              		.loc 1 2937 16 view .LVU3362
 10724 08fc 410FB7CA 		movzwl	%r10w, %ecx
 10725              	.LVL1080:
2938:fltk-1.3.4-1/png/pngwutil.c **** 
 10726              		.loc 1 2938 10 is_stmt 1 view .LVU3363
2938:fltk-1.3.4-1/png/pngwutil.c **** 
 10727              		.loc 1 2938 23 is_stmt 0 view .LVU3364
 10728 0900 41C1EA0A 		shrl	$10, %r10d
 10729              	.LVL1081:
2938:fltk-1.3.4-1/png/pngwutil.c **** 
 10730              		.loc 1 2938 16 view .LVU3365
 10731 0904 4181E2C0 		andl	$4194240, %r10d
 10731      FF3F00
 10732              	.LVL1082:
2940:fltk-1.3.4-1/png/pngwutil.c ****          {
 10733              		.loc 1 2940 10 is_stmt 1 view .LVU3366
2940:fltk-1.3.4-1/png/pngwutil.c ****          {
 10734              		.loc 1 2940 22 view .LVU3367
2940:fltk-1.3.4-1/png/pngwutil.c ****          {
 10735              		.loc 1 2940 10 is_stmt 0 view .LVU3368
 10736 090b 85FF     		testl	%edi, %edi
 10737 090d 7438     		je	.L846
2942:fltk-1.3.4-1/png/pngwutil.c ****             {
 10738              		.loc 1 2942 24 view .LVU3369
 10739 090f 488BB3A0 		movq	928(%rbx), %rsi
 10739      030000
 10740 0916 31C0     		xorl	%eax, %eax
 10741              	.LVL1083:
 10742 0918 0F1F8400 		.p2align 4,,10
 10742      00000000 
 10743              		.p2align 3
 10744              	.L848:
2942:fltk-1.3.4-1/png/pngwutil.c ****             {
 10745              		.loc 1 2942 13 is_stmt 1 view .LVU3370
2942:fltk-1.3.4-1/png/pngwutil.c ****             {
 10746              		.loc 1 2942 16 is_stmt 0 view .LVU3371
 10747 0920 803C0604 		cmpb	$4, (%rsi,%rax)
 10748 0924 7519     		jne	.L847
2944:fltk-1.3.4-1/png/pngwutil.c ****                    PNG_WEIGHT_SHIFT;
 10749              		.loc 1 2944 16 is_stmt 1 view .LVU3372
2944:fltk-1.3.4-1/png/pngwutil.c ****                    PNG_WEIGHT_SHIFT;
 10750              		.loc 1 2944 56 is_stmt 0 view .LVU3373
 10751 0926 488B93A8 		movq	936(%rbx), %rdx
 10751      030000
 10752 092d 0FB71442 		movzwl	(%rdx,%rax,2), %edx
2944:fltk-1.3.4-1/png/pngwutil.c ****                    PNG_WEIGHT_SHIFT;
 10753              		.loc 1 2944 31 view .LVU3374
 10754 0931 0FAFCA   		imull	%edx, %ecx
 10755              	.LVL1084:
2947:fltk-1.3.4-1/png/pngwutil.c ****                    PNG_WEIGHT_SHIFT;
 10756              		.loc 1 2947 31 view .LVU3375
 10757 0934 440FAFD2 		imull	%edx, %r10d
 10758              	.LVL1085:
2944:fltk-1.3.4-1/png/pngwutil.c ****                    PNG_WEIGHT_SHIFT;
 10759              		.loc 1 2944 22 view .LVU3376
 10760 0938 C1E908   		shrl	$8, %ecx
 10761              	.LVL1086:
2947:fltk-1.3.4-1/png/pngwutil.c ****                    PNG_WEIGHT_SHIFT;
 10762              		.loc 1 2947 16 is_stmt 1 view .LVU3377
2947:fltk-1.3.4-1/png/pngwutil.c ****                    PNG_WEIGHT_SHIFT;
 10763              		.loc 1 2947 22 is_stmt 0 view .LVU3378
 10764 093b 41C1EA08 		shrl	$8, %r10d
 10765              	.LVL1087:
 10766              	.L847:
2940:fltk-1.3.4-1/png/pngwutil.c ****          {
 10767              		.loc 1 2940 41 is_stmt 1 discriminator 2 view .LVU3379
2940:fltk-1.3.4-1/png/pngwutil.c ****          {
 10768              		.loc 1 2940 22 discriminator 2 view .LVU3380
 10769 093f 4883C001 		addq	$1, %rax
 10770              	.LVL1088:
2940:fltk-1.3.4-1/png/pngwutil.c ****          {
 10771              		.loc 1 2940 10 is_stmt 0 discriminator 2 view .LVU3381
 10772 0943 39C7     		cmpl	%eax, %edi
 10773 0945 7FD9     		jg	.L848
 10774              	.L846:
2952:fltk-1.3.4-1/png/pngwutil.c ****              PNG_COST_SHIFT;
 10775              		.loc 1 2952 10 is_stmt 1 view .LVU3382
2952:fltk-1.3.4-1/png/pngwutil.c ****              PNG_COST_SHIFT;
 10776              		.loc 1 2952 48 is_stmt 0 view .LVU3383
 10777 0947 488B83B8 		movq	952(%rbx), %rax
 10777      030000
2955:fltk-1.3.4-1/png/pngwutil.c ****              PNG_COST_SHIFT;
 10778              		.loc 1 2955 25 view .LVU3384
 10779 094e 4489D2   		movl	%r10d, %edx
2959:fltk-1.3.4-1/png/pngwutil.c **** 
 10780              		.loc 1 2959 17 view .LVU3385
 10781 0951 41BAFFFF 		movl	$2147483647, %r10d
 10781      FF7F
 10782              	.LVL1089:
2952:fltk-1.3.4-1/png/pngwutil.c ****              PNG_COST_SHIFT;
 10783              		.loc 1 2952 48 view .LVU3386
 10784 0957 0FB74008 		movzwl	8(%rax), %eax
 10785              	.LVL1090:
2955:fltk-1.3.4-1/png/pngwutil.c ****              PNG_COST_SHIFT;
 10786              		.loc 1 2955 10 is_stmt 1 view .LVU3387
2955:fltk-1.3.4-1/png/pngwutil.c ****              PNG_COST_SHIFT;
 10787              		.loc 1 2955 25 is_stmt 0 view .LVU3388
 10788 095b 0FAFD0   		imull	%eax, %edx
 10789              	.LVL1091:
2955:fltk-1.3.4-1/png/pngwutil.c ****              PNG_COST_SHIFT;
 10790              		.loc 1 2955 16 view .LVU3389
 10791 095e 89D6     		movl	%edx, %esi
 10792 0960 C1EE03   		shrl	$3, %esi
 10793              	.LVL1092:
2958:fltk-1.3.4-1/png/pngwutil.c ****             sum = PNG_MAXSUM;
 10794              		.loc 1 2958 10 is_stmt 1 view .LVU3390
2958:fltk-1.3.4-1/png/pngwutil.c ****             sum = PNG_MAXSUM;
 10795              		.loc 1 2958 13 is_stmt 0 view .LVU3391
 10796 0963 81FA07FE 		cmpl	$33553927, %edx
 10796      FF01
 10797 0969 0F8744FF 		ja	.L845
 10797      FFFF
2962:fltk-1.3.4-1/png/pngwutil.c ****       }
 10798              		.loc 1 2962 13 is_stmt 1 view .LVU3392
2952:fltk-1.3.4-1/png/pngwutil.c ****              PNG_COST_SHIFT;
 10799              		.loc 1 2952 25 is_stmt 0 view .LVU3393
 10800 096f 0FAFC1   		imull	%ecx, %eax
 10801              	.LVL1093:
2962:fltk-1.3.4-1/png/pngwutil.c ****       }
 10802              		.loc 1 2962 26 view .LVU3394
 10803 0972 C1E60A   		sall	$10, %esi
 10804              	.LVL1094:
2952:fltk-1.3.4-1/png/pngwutil.c ****              PNG_COST_SHIFT;
 10805              		.loc 1 2952 16 view .LVU3395
 10806 0975 C1E803   		shrl	$3, %eax
 10807              	.LVL1095:
2962:fltk-1.3.4-1/png/pngwutil.c ****       }
 10808              		.loc 1 2962 17 view .LVU3396
 10809 0978 448D1406 		leal	(%rsi,%rax), %r10d
 10810              	.LVL1096:
2962:fltk-1.3.4-1/png/pngwutil.c ****       }
 10811              		.loc 1 2962 17 view .LVU3397
 10812 097c E932FFFF 		jmp	.L845
 10812      FF
 10813              	.LVL1097:
 10814              		.p2align 4,,10
 10815 0981 0F1F8000 		.p2align 3
 10815      000000
 10816              	.L984:
2962:fltk-1.3.4-1/png/pngwutil.c ****       }
 10817              		.loc 1 2962 17 view .LVU3398
 10818              	.LBE677:
 10819              	.LBB678:
2848:fltk-1.3.4-1/png/pngwutil.c ****          png_uint_32 lmhi, lmlo;
 10820              		.loc 1 2848 10 is_stmt 1 view .LVU3399
2849:fltk-1.3.4-1/png/pngwutil.c ****          lmlo = lmins & PNG_LOMASK;
 10821              		.loc 1 2849 10 view .LVU3400
2850:fltk-1.3.4-1/png/pngwutil.c ****          lmhi = (lmins >> PNG_HISHIFT) & PNG_HIMASK;
 10822              		.loc 1 2850 10 view .LVU3401
2851:fltk-1.3.4-1/png/pngwutil.c **** 
 10823              		.loc 1 2851 24 is_stmt 0 view .LVU3402
 10824 0988 4489F9   		movl	%r15d, %ecx
2853:fltk-1.3.4-1/png/pngwutil.c ****          {
 10825              		.loc 1 2853 10 view .LVU3403
 10826 098b 448B5C24 		movl	28(%rsp), %r11d
 10826      1C
2850:fltk-1.3.4-1/png/pngwutil.c ****          lmhi = (lmins >> PNG_HISHIFT) & PNG_HIMASK;
 10827              		.loc 1 2850 15 view .LVU3404
 10828 0990 450FB7C7 		movzwl	%r15w, %r8d
 10829              	.LVL1098:
2851:fltk-1.3.4-1/png/pngwutil.c **** 
 10830              		.loc 1 2851 10 is_stmt 1 view .LVU3405
2851:fltk-1.3.4-1/png/pngwutil.c **** 
 10831              		.loc 1 2851 24 is_stmt 0 view .LVU3406
 10832 0994 C1E90A   		shrl	$10, %ecx
2851:fltk-1.3.4-1/png/pngwutil.c **** 
 10833              		.loc 1 2851 15 view .LVU3407
 10834 0997 81E1C0FF 		andl	$4194240, %ecx
 10834      3F00
 10835              	.LVL1099:
2853:fltk-1.3.4-1/png/pngwutil.c ****          {
 10836              		.loc 1 2853 10 is_stmt 1 view .LVU3408
2853:fltk-1.3.4-1/png/pngwutil.c ****          {
 10837              		.loc 1 2853 22 view .LVU3409
2853:fltk-1.3.4-1/png/pngwutil.c ****          {
 10838              		.loc 1 2853 10 is_stmt 0 view .LVU3410
 10839 099d 4585DB   		testl	%r11d, %r11d
 10840 09a0 7437     		je	.L833
2855:fltk-1.3.4-1/png/pngwutil.c ****             {
 10841              		.loc 1 2855 24 view .LVU3411
 10842 09a2 4C8B93A0 		movq	928(%rbx), %r10
 10842      030000
 10843 09a9 31FF     		xorl	%edi, %edi
 10844              	.LVL1100:
 10845 09ab 0F1F4400 		.p2align 4,,10
 10845      00
 10846              		.p2align 3
 10847              	.L835:
2855:fltk-1.3.4-1/png/pngwutil.c ****             {
 10848              		.loc 1 2855 13 is_stmt 1 view .LVU3412
2855:fltk-1.3.4-1/png/pngwutil.c ****             {
 10849              		.loc 1 2855 16 is_stmt 0 view .LVU3413
 10850 09b0 41803C3A 		cmpb	$4, (%r10,%rdi)
 10850      04
 10851 09b5 7519     		jne	.L834
2857:fltk-1.3.4-1/png/pngwutil.c ****                    PNG_WEIGHT_SHIFT;
 10852              		.loc 1 2857 16 is_stmt 1 view .LVU3414
2857:fltk-1.3.4-1/png/pngwutil.c ****                    PNG_WEIGHT_SHIFT;
 10853              		.loc 1 2857 58 is_stmt 0 view .LVU3415
 10854 09b7 488B93B0 		movq	944(%rbx), %rdx
 10854      030000
 10855 09be 0FB7147A 		movzwl	(%rdx,%rdi,2), %edx
2857:fltk-1.3.4-1/png/pngwutil.c ****                    PNG_WEIGHT_SHIFT;
 10856              		.loc 1 2857 29 view .LVU3416
 10857 09c2 440FAFC2 		imull	%edx, %r8d
 10858              	.LVL1101:
2860:fltk-1.3.4-1/png/pngwutil.c ****                    PNG_WEIGHT_SHIFT;
 10859              		.loc 1 2860 29 view .LVU3417
 10860 09c6 0FAFCA   		imull	%edx, %ecx
 10861              	.LVL1102:
2857:fltk-1.3.4-1/png/pngwutil.c ****                    PNG_WEIGHT_SHIFT;
 10862              		.loc 1 2857 21 view .LVU3418
 10863 09c9 41C1E808 		shrl	$8, %r8d
 10864              	.LVL1103:
2860:fltk-1.3.4-1/png/pngwutil.c ****                    PNG_WEIGHT_SHIFT;
 10865              		.loc 1 2860 16 is_stmt 1 view .LVU3419
2860:fltk-1.3.4-1/png/pngwutil.c ****                    PNG_WEIGHT_SHIFT;
 10866              		.loc 1 2860 21 is_stmt 0 view .LVU3420
 10867 09cd C1E908   		shrl	$8, %ecx
 10868              	.LVL1104:
 10869              	.L834:
2853:fltk-1.3.4-1/png/pngwutil.c ****          {
 10870              		.loc 1 2853 41 is_stmt 1 discriminator 2 view .LVU3421
2853:fltk-1.3.4-1/png/pngwutil.c ****          {
 10871              		.loc 1 2853 22 discriminator 2 view .LVU3422
 10872 09d0 4883C701 		addq	$1, %rdi
 10873              	.LVL1105:
2853:fltk-1.3.4-1/png/pngwutil.c ****          {
 10874              		.loc 1 2853 10 is_stmt 0 discriminator 2 view .LVU3423
 10875 09d4 4139FB   		cmpl	%edi, %r11d
 10876 09d7 7FD7     		jg	.L835
 10877              	.L833:
2865:fltk-1.3.4-1/png/pngwutil.c ****              PNG_COST_SHIFT;
 10878              		.loc 1 2865 10 is_stmt 1 view .LVU3424
2865:fltk-1.3.4-1/png/pngwutil.c ****              PNG_COST_SHIFT;
 10879              		.loc 1 2865 50 is_stmt 0 view .LVU3425
 10880 09d9 488B93C0 		movq	960(%rbx), %rdx
 10880      030000
2872:fltk-1.3.4-1/png/pngwutil.c **** 
 10881              		.loc 1 2872 19 view .LVU3426
 10882 09e0 C70424FF 		movl	$2147483647, (%rsp)
 10882      FFFF7F
2865:fltk-1.3.4-1/png/pngwutil.c ****              PNG_COST_SHIFT;
 10883              		.loc 1 2865 50 view .LVU3427
 10884 09e7 0FB75208 		movzwl	8(%rdx), %edx
 10885              	.LVL1106:
2868:fltk-1.3.4-1/png/pngwutil.c ****              PNG_COST_SHIFT;
 10886              		.loc 1 2868 10 is_stmt 1 view .LVU3428
2868:fltk-1.3.4-1/png/pngwutil.c ****              PNG_COST_SHIFT;
 10887              		.loc 1 2868 23 is_stmt 0 view .LVU3429
 10888 09eb 0FAFCA   		imull	%edx, %ecx
 10889              	.LVL1107:
2868:fltk-1.3.4-1/png/pngwutil.c ****              PNG_COST_SHIFT;
 10890              		.loc 1 2868 15 view .LVU3430
 10891 09ee 89CF     		movl	%ecx, %edi
 10892 09f0 C1EF03   		shrl	$3, %edi
 10893              	.LVL1108:
2871:fltk-1.3.4-1/png/pngwutil.c ****             lmins = PNG_MAXSUM;
 10894              		.loc 1 2871 10 is_stmt 1 view .LVU3431
2871:fltk-1.3.4-1/png/pngwutil.c ****             lmins = PNG_MAXSUM;
 10895              		.loc 1 2871 13 is_stmt 0 view .LVU3432
 10896 09f3 81F907FE 		cmpl	$33553927, %ecx
 10896      FF01
 10897 09f9 0F8758FD 		ja	.L832
 10897      FFFF
2875:fltk-1.3.4-1/png/pngwutil.c ****       }
 10898              		.loc 1 2875 13 is_stmt 1 view .LVU3433
2865:fltk-1.3.4-1/png/pngwutil.c ****              PNG_COST_SHIFT;
 10899              		.loc 1 2865 23 is_stmt 0 view .LVU3434
 10900 09ff 410FAFD0 		imull	%r8d, %edx
 10901              	.LVL1109:
2875:fltk-1.3.4-1/png/pngwutil.c ****       }
 10902              		.loc 1 2875 27 view .LVU3435
 10903 0a03 C1E70A   		sall	$10, %edi
 10904              	.LVL1110:
2865:fltk-1.3.4-1/png/pngwutil.c ****              PNG_COST_SHIFT;
 10905              		.loc 1 2865 15 view .LVU3436
 10906 0a06 C1EA03   		shrl	$3, %edx
 10907              	.LVL1111:
2875:fltk-1.3.4-1/png/pngwutil.c ****       }
 10908              		.loc 1 2875 19 view .LVU3437
 10909 0a09 01D7     		addl	%edx, %edi
 10910 0a0b 893C24   		movl	%edi, (%rsp)
 10911              	.LVL1112:
2875:fltk-1.3.4-1/png/pngwutil.c ****       }
 10912              		.loc 1 2875 19 view .LVU3438
 10913 0a0e E944FDFF 		jmp	.L832
 10913      FF
 10914              	.LVL1113:
 10915              		.p2align 4,,10
 10916 0a13 0F1F4400 		.p2align 3
 10916      00
 10917              	.L977:
2875:fltk-1.3.4-1/png/pngwutil.c ****       }
 10918              		.loc 1 2875 19 view .LVU3439
 10919              	.LBE678:
 10920              	.LBE682:
 10921              	.LBB683:
 10922              	.LBB653:
3023:fltk-1.3.4-1/png/pngwutil.c ****        png_ptr->flush_rows >= png_ptr->flush_dist)
3024:fltk-1.3.4-1/png/pngwutil.c ****    {
3025:fltk-1.3.4-1/png/pngwutil.c ****       png_write_flush(png_ptr);
 10923              		.loc 1 3025 7 is_stmt 1 view .LVU3440
 10924 0a18 4889DF   		movq	%rbx, %rdi
 10925 0a1b E8000000 		call	png_write_flush@PLT
 10925      00
 10926              	.LVL1114:
 10927 0a20 E902F8FF 		jmp	.L851
 10927      FF
 10928              	.LVL1115:
 10929              		.p2align 4,,10
 10930 0a25 0F1F00   		.p2align 3
 10931              	.L976:
 10932              		.loc 1 3025 7 is_stmt 0 view .LVU3441
 10933              	.LBE653:
 10934              	.LBE683:
 10935              	.LBB684:
 10936              	.LBB642:
2529:fltk-1.3.4-1/png/pngwutil.c ****          png_uint_32 sumhi, sumlo;
 10937              		.loc 1 2529 10 is_stmt 1 view .LVU3442
2530:fltk-1.3.4-1/png/pngwutil.c ****          sumlo = sum & PNG_LOMASK;
 10938              		.loc 1 2530 10 view .LVU3443
2531:fltk-1.3.4-1/png/pngwutil.c ****          sumhi = (sum >> PNG_HISHIFT) & PNG_HIMASK;
 10939              		.loc 1 2531 10 view .LVU3444
2534:fltk-1.3.4-1/png/pngwutil.c ****          {
 10940              		.loc 1 2534 10 is_stmt 0 view .LVU3445
 10941 0a28 448B5C24 		movl	28(%rsp), %r11d
 10941      1C
2531:fltk-1.3.4-1/png/pngwutil.c ****          sumhi = (sum >> PNG_HISHIFT) & PNG_HIMASK;
 10942              		.loc 1 2531 16 view .LVU3446
 10943 0a2d 440FB7C7 		movzwl	%di, %r8d
 10944              	.LVL1116:
2532:fltk-1.3.4-1/png/pngwutil.c **** 
 10945              		.loc 1 2532 10 is_stmt 1 view .LVU3447
2532:fltk-1.3.4-1/png/pngwutil.c **** 
 10946              		.loc 1 2532 23 is_stmt 0 view .LVU3448
 10947 0a31 C1EF0A   		shrl	$10, %edi
 10948              	.LVL1117:
2532:fltk-1.3.4-1/png/pngwutil.c **** 
 10949              		.loc 1 2532 16 view .LVU3449
 10950 0a34 81E7C0FF 		andl	$4194240, %edi
 10950      3F00
 10951              	.LVL1118:
2534:fltk-1.3.4-1/png/pngwutil.c ****          {
 10952              		.loc 1 2534 10 is_stmt 1 view .LVU3450
2534:fltk-1.3.4-1/png/pngwutil.c ****          {
 10953              		.loc 1 2534 22 view .LVU3451
2534:fltk-1.3.4-1/png/pngwutil.c ****          {
 10954              		.loc 1 2534 10 is_stmt 0 view .LVU3452
 10955 0a3a 4585DB   		testl	%r11d, %r11d
 10956 0a3d 743A     		je	.L782
2536:fltk-1.3.4-1/png/pngwutil.c ****             {
 10957              		.loc 1 2536 24 view .LVU3453
 10958 0a3f 4C8B93A0 		movq	928(%rbx), %r10
 10958      030000
 10959 0a46 31D2     		xorl	%edx, %edx
 10960              	.LVL1119:
 10961 0a48 0F1F8400 		.p2align 4,,10
 10961      00000000 
 10962              		.p2align 3
 10963              	.L784:
2536:fltk-1.3.4-1/png/pngwutil.c ****             {
 10964              		.loc 1 2536 13 is_stmt 1 view .LVU3454
2536:fltk-1.3.4-1/png/pngwutil.c ****             {
 10965              		.loc 1 2536 16 is_stmt 0 view .LVU3455
 10966 0a50 41803C12 		cmpb	$1, (%r10,%rdx)
 10966      01
 10967 0a55 7519     		jne	.L783
2538:fltk-1.3.4-1/png/pngwutil.c ****                    PNG_WEIGHT_SHIFT;
 10968              		.loc 1 2538 16 is_stmt 1 view .LVU3456
2538:fltk-1.3.4-1/png/pngwutil.c ****                    PNG_WEIGHT_SHIFT;
 10969              		.loc 1 2538 60 is_stmt 0 view .LVU3457
 10970 0a57 488B8BB0 		movq	944(%rbx), %rcx
 10970      030000
 10971 0a5e 0FB70C51 		movzwl	(%rcx,%rdx,2), %ecx
2538:fltk-1.3.4-1/png/pngwutil.c ****                    PNG_WEIGHT_SHIFT;
 10972              		.loc 1 2538 31 view .LVU3458
 10973 0a62 440FAFC1 		imull	%ecx, %r8d
 10974              	.LVL1120:
2541:fltk-1.3.4-1/png/pngwutil.c ****                    PNG_WEIGHT_SHIFT;
 10975              		.loc 1 2541 31 view .LVU3459
 10976 0a66 0FAFF9   		imull	%ecx, %edi
 10977              	.LVL1121:
2538:fltk-1.3.4-1/png/pngwutil.c ****                    PNG_WEIGHT_SHIFT;
 10978              		.loc 1 2538 22 view .LVU3460
 10979 0a69 41C1E808 		shrl	$8, %r8d
 10980              	.LVL1122:
2541:fltk-1.3.4-1/png/pngwutil.c ****                    PNG_WEIGHT_SHIFT;
 10981              		.loc 1 2541 16 is_stmt 1 view .LVU3461
2541:fltk-1.3.4-1/png/pngwutil.c ****                    PNG_WEIGHT_SHIFT;
 10982              		.loc 1 2541 22 is_stmt 0 view .LVU3462
 10983 0a6d C1EF08   		shrl	$8, %edi
 10984              	.LVL1123:
 10985              	.L783:
2534:fltk-1.3.4-1/png/pngwutil.c ****          {
 10986              		.loc 1 2534 41 is_stmt 1 discriminator 2 view .LVU3463
2534:fltk-1.3.4-1/png/pngwutil.c ****          {
 10987              		.loc 1 2534 22 discriminator 2 view .LVU3464
 10988 0a70 4883C201 		addq	$1, %rdx
 10989              	.LVL1124:
2534:fltk-1.3.4-1/png/pngwutil.c ****          {
 10990              		.loc 1 2534 10 is_stmt 0 discriminator 2 view .LVU3465
 10991 0a74 4139D3   		cmpl	%edx, %r11d
 10992 0a77 7FD7     		jg	.L784
 10993              	.L782:
2546:fltk-1.3.4-1/png/pngwutil.c ****              PNG_COST_SHIFT;
 10994              		.loc 1 2546 10 is_stmt 1 view .LVU3466
2546:fltk-1.3.4-1/png/pngwutil.c ****              PNG_COST_SHIFT;
 10995              		.loc 1 2546 52 is_stmt 0 view .LVU3467
 10996 0a79 488B93C0 		movq	960(%rbx), %rdx
 10996      030000
 10997 0a80 0FB75202 		movzwl	2(%rdx), %edx
 10998              	.LVL1125:
2549:fltk-1.3.4-1/png/pngwutil.c ****              PNG_COST_SHIFT;
 10999              		.loc 1 2549 10 is_stmt 1 view .LVU3468
2549:fltk-1.3.4-1/png/pngwutil.c ****              PNG_COST_SHIFT;
 11000              		.loc 1 2549 25 is_stmt 0 view .LVU3469
 11001 0a84 0FAFFA   		imull	%edx, %edi
 11002              	.LVL1126:
2549:fltk-1.3.4-1/png/pngwutil.c ****              PNG_COST_SHIFT;
 11003              		.loc 1 2549 16 view .LVU3470
 11004 0a87 4189FA   		movl	%edi, %r10d
2549:fltk-1.3.4-1/png/pngwutil.c ****              PNG_COST_SHIFT;
 11005              		.loc 1 2549 25 view .LVU3471
 11006 0a8a 89F9     		movl	%edi, %ecx
2553:fltk-1.3.4-1/png/pngwutil.c **** 
 11007              		.loc 1 2553 17 view .LVU3472
 11008 0a8c BFFFFFFF 		movl	$2147483647, %edi
 11008      7F
2549:fltk-1.3.4-1/png/pngwutil.c ****              PNG_COST_SHIFT;
 11009              		.loc 1 2549 16 view .LVU3473
 11010 0a91 41C1EA03 		shrl	$3, %r10d
 11011              	.LVL1127:
2552:fltk-1.3.4-1/png/pngwutil.c ****             sum = PNG_MAXSUM;
 11012              		.loc 1 2552 10 is_stmt 1 view .LVU3474
2552:fltk-1.3.4-1/png/pngwutil.c ****             sum = PNG_MAXSUM;
 11013              		.loc 1 2552 13 is_stmt 0 view .LVU3475
 11014 0a95 81F907FE 		cmpl	$33553927, %ecx
 11014      FF01
 11015 0a9b 0F87ADF6 		ja	.L781
 11015      FFFF
2556:fltk-1.3.4-1/png/pngwutil.c ****       }
 11016              		.loc 1 2556 13 is_stmt 1 view .LVU3476
2546:fltk-1.3.4-1/png/pngwutil.c ****              PNG_COST_SHIFT;
 11017              		.loc 1 2546 25 is_stmt 0 view .LVU3477
 11018 0aa1 410FAFD0 		imull	%r8d, %edx
 11019              	.LVL1128:
2556:fltk-1.3.4-1/png/pngwutil.c ****       }
 11020              		.loc 1 2556 26 view .LVU3478
 11021 0aa5 41C1E20A 		sall	$10, %r10d
 11022              	.LVL1129:
2546:fltk-1.3.4-1/png/pngwutil.c ****              PNG_COST_SHIFT;
 11023              		.loc 1 2546 16 view .LVU3479
 11024 0aa9 C1EA03   		shrl	$3, %edx
 11025              	.LVL1130:
2556:fltk-1.3.4-1/png/pngwutil.c ****       }
 11026              		.loc 1 2556 17 view .LVU3480
 11027 0aac 418D3C12 		leal	(%r10,%rdx), %edi
 11028              	.LVL1131:
2556:fltk-1.3.4-1/png/pngwutil.c ****       }
 11029              		.loc 1 2556 17 view .LVU3481
 11030 0ab0 E999F6FF 		jmp	.L781
 11030      FF
 11031              	.LVL1132:
 11032              		.p2align 4,,10
 11033 0ab5 0F1F00   		.p2align 3
 11034              	.L978:
2556:fltk-1.3.4-1/png/pngwutil.c ****       }
 11035              		.loc 1 2556 17 view .LVU3482
 11036              	.LBE642:
 11037              	.LBE684:
 11038              	.LBB685:
 11039              	.LBB662:
2594:fltk-1.3.4-1/png/pngwutil.c ****          png_uint_32 lmhi, lmlo;
 11040              		.loc 1 2594 10 is_stmt 1 view .LVU3483
2595:fltk-1.3.4-1/png/pngwutil.c ****          lmlo = lmins & PNG_LOMASK;
 11041              		.loc 1 2595 10 view .LVU3484
2596:fltk-1.3.4-1/png/pngwutil.c ****          lmhi = (lmins >> PNG_HISHIFT) & PNG_HIMASK;
 11042              		.loc 1 2596 10 view .LVU3485
2597:fltk-1.3.4-1/png/pngwutil.c **** 
 11043              		.loc 1 2597 24 is_stmt 0 view .LVU3486
 11044 0ab8 4489FF   		movl	%r15d, %edi
2599:fltk-1.3.4-1/png/pngwutil.c ****          {
 11045              		.loc 1 2599 10 view .LVU3487
 11046 0abb 448B5C24 		movl	28(%rsp), %r11d
 11046      1C
2596:fltk-1.3.4-1/png/pngwutil.c ****          lmhi = (lmins >> PNG_HISHIFT) & PNG_HIMASK;
 11047              		.loc 1 2596 15 view .LVU3488
 11048 0ac0 450FB7C7 		movzwl	%r15w, %r8d
 11049              	.LVL1133:
2597:fltk-1.3.4-1/png/pngwutil.c **** 
 11050              		.loc 1 2597 10 is_stmt 1 view .LVU3489
2597:fltk-1.3.4-1/png/pngwutil.c **** 
 11051              		.loc 1 2597 24 is_stmt 0 view .LVU3490
 11052 0ac4 C1EF0A   		shrl	$10, %edi
2597:fltk-1.3.4-1/png/pngwutil.c **** 
 11053              		.loc 1 2597 15 view .LVU3491
 11054 0ac7 81E7C0FF 		andl	$4194240, %edi
 11054      3F00
 11055              	.LVL1134:
2599:fltk-1.3.4-1/png/pngwutil.c ****          {
 11056              		.loc 1 2599 10 is_stmt 1 view .LVU3492
2599:fltk-1.3.4-1/png/pngwutil.c ****          {
 11057              		.loc 1 2599 22 view .LVU3493
2599:fltk-1.3.4-1/png/pngwutil.c ****          {
 11058              		.loc 1 2599 10 is_stmt 0 view .LVU3494
 11059 0acd 4585DB   		testl	%r11d, %r11d
 11060 0ad0 7437     		je	.L791
2601:fltk-1.3.4-1/png/pngwutil.c ****             {
 11061              		.loc 1 2601 24 view .LVU3495
 11062 0ad2 4C8B93A0 		movq	928(%rbx), %r10
 11062      030000
 11063 0ad9 31D2     		xorl	%edx, %edx
 11064              	.LVL1135:
 11065 0adb 0F1F4400 		.p2align 4,,10
 11065      00
 11066              		.p2align 3
 11067              	.L793:
2601:fltk-1.3.4-1/png/pngwutil.c ****             {
 11068              		.loc 1 2601 13 is_stmt 1 view .LVU3496
2601:fltk-1.3.4-1/png/pngwutil.c ****             {
 11069              		.loc 1 2601 16 is_stmt 0 view .LVU3497
 11070 0ae0 41803C12 		cmpb	$2, (%r10,%rdx)
 11070      02
 11071 0ae5 7519     		jne	.L792
2603:fltk-1.3.4-1/png/pngwutil.c ****                    PNG_WEIGHT_SHIFT;
 11072              		.loc 1 2603 16 is_stmt 1 view .LVU3498
2603:fltk-1.3.4-1/png/pngwutil.c ****                    PNG_WEIGHT_SHIFT;
 11073              		.loc 1 2603 58 is_stmt 0 view .LVU3499
 11074 0ae7 488B8BB0 		movq	944(%rbx), %rcx
 11074      030000
 11075 0aee 0FB70C51 		movzwl	(%rcx,%rdx,2), %ecx
2603:fltk-1.3.4-1/png/pngwutil.c ****                    PNG_WEIGHT_SHIFT;
 11076              		.loc 1 2603 29 view .LVU3500
 11077 0af2 440FAFC1 		imull	%ecx, %r8d
 11078              	.LVL1136:
2606:fltk-1.3.4-1/png/pngwutil.c ****                    PNG_WEIGHT_SHIFT;
 11079              		.loc 1 2606 29 view .LVU3501
 11080 0af6 0FAFF9   		imull	%ecx, %edi
 11081              	.LVL1137:
2603:fltk-1.3.4-1/png/pngwutil.c ****                    PNG_WEIGHT_SHIFT;
 11082              		.loc 1 2603 21 view .LVU3502
 11083 0af9 41C1E808 		shrl	$8, %r8d
 11084              	.LVL1138:
2606:fltk-1.3.4-1/png/pngwutil.c ****                    PNG_WEIGHT_SHIFT;
 11085              		.loc 1 2606 16 is_stmt 1 view .LVU3503
2606:fltk-1.3.4-1/png/pngwutil.c ****                    PNG_WEIGHT_SHIFT;
 11086              		.loc 1 2606 21 is_stmt 0 view .LVU3504
 11087 0afd C1EF08   		shrl	$8, %edi
 11088              	.LVL1139:
 11089              	.L792:
2599:fltk-1.3.4-1/png/pngwutil.c ****          {
 11090              		.loc 1 2599 41 is_stmt 1 discriminator 2 view .LVU3505
2599:fltk-1.3.4-1/png/pngwutil.c ****          {
 11091              		.loc 1 2599 22 discriminator 2 view .LVU3506
 11092 0b00 4883C201 		addq	$1, %rdx
 11093              	.LVL1140:
2599:fltk-1.3.4-1/png/pngwutil.c ****          {
 11094              		.loc 1 2599 10 is_stmt 0 discriminator 2 view .LVU3507
 11095 0b04 4139D3   		cmpl	%edx, %r11d
 11096 0b07 7FD7     		jg	.L793
 11097              	.L791:
2611:fltk-1.3.4-1/png/pngwutil.c ****              PNG_COST_SHIFT;
 11098              		.loc 1 2611 10 is_stmt 1 view .LVU3508
2611:fltk-1.3.4-1/png/pngwutil.c ****              PNG_COST_SHIFT;
 11099              		.loc 1 2611 50 is_stmt 0 view .LVU3509
 11100 0b09 488B93C0 		movq	960(%rbx), %rdx
 11100      030000
2618:fltk-1.3.4-1/png/pngwutil.c **** 
 11101              		.loc 1 2618 19 view .LVU3510
 11102 0b10 41BBFFFF 		movl	$2147483647, %r11d
 11102      FF7F
2611:fltk-1.3.4-1/png/pngwutil.c ****              PNG_COST_SHIFT;
 11103              		.loc 1 2611 50 view .LVU3511
 11104 0b16 0FB75204 		movzwl	4(%rdx), %edx
 11105              	.LVL1141:
2614:fltk-1.3.4-1/png/pngwutil.c ****              PNG_COST_SHIFT;
 11106              		.loc 1 2614 10 is_stmt 1 view .LVU3512
2614:fltk-1.3.4-1/png/pngwutil.c ****              PNG_COST_SHIFT;
 11107              		.loc 1 2614 23 is_stmt 0 view .LVU3513
 11108 0b1a 0FAFFA   		imull	%edx, %edi
 11109              	.LVL1142:
2614:fltk-1.3.4-1/png/pngwutil.c ****              PNG_COST_SHIFT;
 11110              		.loc 1 2614 15 view .LVU3514
 11111 0b1d 89F9     		movl	%edi, %ecx
 11112 0b1f C1E903   		shrl	$3, %ecx
 11113              	.LVL1143:
2617:fltk-1.3.4-1/png/pngwutil.c ****             lmins = PNG_MAXSUM;
 11114              		.loc 1 2617 10 is_stmt 1 view .LVU3515
2617:fltk-1.3.4-1/png/pngwutil.c ****             lmins = PNG_MAXSUM;
 11115              		.loc 1 2617 13 is_stmt 0 view .LVU3516
 11116 0b22 81FF07FE 		cmpl	$33553927, %edi
 11116      FF01
 11117 0b28 770E     		ja	.L794
2621:fltk-1.3.4-1/png/pngwutil.c ****       }
 11118              		.loc 1 2621 13 is_stmt 1 view .LVU3517
2611:fltk-1.3.4-1/png/pngwutil.c ****              PNG_COST_SHIFT;
 11119              		.loc 1 2611 23 is_stmt 0 view .LVU3518
 11120 0b2a 410FAFD0 		imull	%r8d, %edx
 11121              	.LVL1144:
2621:fltk-1.3.4-1/png/pngwutil.c ****       }
 11122              		.loc 1 2621 27 view .LVU3519
 11123 0b2e C1E10A   		sall	$10, %ecx
 11124              	.LVL1145:
2611:fltk-1.3.4-1/png/pngwutil.c ****              PNG_COST_SHIFT;
 11125              		.loc 1 2611 15 view .LVU3520
 11126 0b31 C1EA03   		shrl	$3, %edx
 11127              	.LVL1146:
2621:fltk-1.3.4-1/png/pngwutil.c ****       }
 11128              		.loc 1 2621 19 view .LVU3521
 11129 0b34 448D1C11 		leal	(%rcx,%rdx), %r11d
 11130              	.LVL1147:
 11131              	.L794:
2621:fltk-1.3.4-1/png/pngwutil.c ****       }
 11132              		.loc 1 2621 19 view .LVU3522
 11133              	.LBE662:
2625:fltk-1.3.4-1/png/pngwutil.c ****           pp = prev_row + 1; i < row_bytes; i++)
 11134              		.loc 1 2625 7 is_stmt 1 view .LVU3523
2625:fltk-1.3.4-1/png/pngwutil.c ****           pp = prev_row + 1; i < row_bytes; i++)
 11135              		.loc 1 2625 49 is_stmt 0 view .LVU3524
 11136 0b38 488BAB38 		movq	568(%rbx), %rbp
 11136      020000
 11137              	.LVL1148:
2626:fltk-1.3.4-1/png/pngwutil.c ****       {
 11138              		.loc 1 2626 30 is_stmt 1 view .LVU3525
2586:fltk-1.3.4-1/png/pngwutil.c ****       png_size_t i;
 11139              		.loc 1 2586 19 is_stmt 0 view .LVU3526
 11140 0b3f 4531C0   		xorl	%r8d, %r8d
 11141              	.LVL1149:
2625:fltk-1.3.4-1/png/pngwutil.c ****           pp = prev_row + 1; i < row_bytes; i++)
 11142              		.loc 1 2625 7 view .LVU3527
 11143 0b42 4D85C9   		testq	%r9, %r9
 11144 0b45 0F853EF8 		jne	.L855
 11144      FFFF
 11145              	.LVL1150:
 11146 0b4b 0F1F4400 		.p2align 4,,10
 11146      00
 11147              		.p2align 3
 11148              	.L856:
 11149              	.LBB663:
2639:fltk-1.3.4-1/png/pngwutil.c ****          png_uint_32 sumhi, sumlo;
 11150              		.loc 1 2639 10 is_stmt 1 view .LVU3528
2640:fltk-1.3.4-1/png/pngwutil.c ****          sumlo = sum & PNG_LOMASK;
 11151              		.loc 1 2640 10 view .LVU3529
2641:fltk-1.3.4-1/png/pngwutil.c ****          sumhi = (sum >> PNG_HISHIFT) & PNG_HIMASK;
 11152              		.loc 1 2641 10 view .LVU3530
2644:fltk-1.3.4-1/png/pngwutil.c ****          {
 11153              		.loc 1 2644 10 is_stmt 0 view .LVU3531
 11154 0b50 448B5C24 		movl	28(%rsp), %r11d
 11154      1C
2641:fltk-1.3.4-1/png/pngwutil.c ****          sumhi = (sum >> PNG_HISHIFT) & PNG_HIMASK;
 11155              		.loc 1 2641 16 view .LVU3532
 11156 0b55 410FB7F8 		movzwl	%r8w, %edi
 11157              	.LVL1151:
2642:fltk-1.3.4-1/png/pngwutil.c **** 
 11158              		.loc 1 2642 10 is_stmt 1 view .LVU3533
2642:fltk-1.3.4-1/png/pngwutil.c **** 
 11159              		.loc 1 2642 23 is_stmt 0 view .LVU3534
 11160 0b59 41C1E80A 		shrl	$10, %r8d
 11161              	.LVL1152:
2642:fltk-1.3.4-1/png/pngwutil.c **** 
 11162              		.loc 1 2642 16 view .LVU3535
 11163 0b5d 4181E0C0 		andl	$4194240, %r8d
 11163      FF3F00
 11164              	.LVL1153:
2644:fltk-1.3.4-1/png/pngwutil.c ****          {
 11165              		.loc 1 2644 10 is_stmt 1 view .LVU3536
2644:fltk-1.3.4-1/png/pngwutil.c ****          {
 11166              		.loc 1 2644 22 view .LVU3537
2644:fltk-1.3.4-1/png/pngwutil.c ****          {
 11167              		.loc 1 2644 10 is_stmt 0 view .LVU3538
 11168 0b64 4585DB   		testl	%r11d, %r11d
 11169 0b67 7438     		je	.L801
2646:fltk-1.3.4-1/png/pngwutil.c ****             {
 11170              		.loc 1 2646 24 view .LVU3539
 11171 0b69 4C8B93A0 		movq	928(%rbx), %r10
 11171      030000
 11172 0b70 31D2     		xorl	%edx, %edx
 11173              	.LVL1154:
 11174              		.p2align 4,,10
 11175 0b72 660F1F44 		.p2align 3
 11175      0000
 11176              	.L803:
2646:fltk-1.3.4-1/png/pngwutil.c ****             {
 11177              		.loc 1 2646 13 is_stmt 1 view .LVU3540
2646:fltk-1.3.4-1/png/pngwutil.c ****             {
 11178              		.loc 1 2646 16 is_stmt 0 view .LVU3541
 11179 0b78 41803C12 		cmpb	$2, (%r10,%rdx)
 11179      02
 11180 0b7d 7519     		jne	.L802
2648:fltk-1.3.4-1/png/pngwutil.c ****                    PNG_WEIGHT_SHIFT;
 11181              		.loc 1 2648 16 is_stmt 1 view .LVU3542
2648:fltk-1.3.4-1/png/pngwutil.c ****                    PNG_WEIGHT_SHIFT;
 11182              		.loc 1 2648 56 is_stmt 0 view .LVU3543
 11183 0b7f 488B8BA8 		movq	936(%rbx), %rcx
 11183      030000
 11184 0b86 0FB70C51 		movzwl	(%rcx,%rdx,2), %ecx
2648:fltk-1.3.4-1/png/pngwutil.c ****                    PNG_WEIGHT_SHIFT;
 11185              		.loc 1 2648 31 view .LVU3544
 11186 0b8a 0FAFF9   		imull	%ecx, %edi
 11187              	.LVL1155:
2651:fltk-1.3.4-1/png/pngwutil.c ****                    PNG_WEIGHT_SHIFT;
 11188              		.loc 1 2651 31 view .LVU3545
 11189 0b8d 440FAFC1 		imull	%ecx, %r8d
 11190              	.LVL1156:
2648:fltk-1.3.4-1/png/pngwutil.c ****                    PNG_WEIGHT_SHIFT;
 11191              		.loc 1 2648 22 view .LVU3546
 11192 0b91 C1EF08   		shrl	$8, %edi
 11193              	.LVL1157:
2651:fltk-1.3.4-1/png/pngwutil.c ****                    PNG_WEIGHT_SHIFT;
 11194              		.loc 1 2651 16 is_stmt 1 view .LVU3547
2651:fltk-1.3.4-1/png/pngwutil.c ****                    PNG_WEIGHT_SHIFT;
 11195              		.loc 1 2651 22 is_stmt 0 view .LVU3548
 11196 0b94 41C1E808 		shrl	$8, %r8d
 11197              	.LVL1158:
 11198              	.L802:
2644:fltk-1.3.4-1/png/pngwutil.c ****          {
 11199              		.loc 1 2644 41 is_stmt 1 discriminator 2 view .LVU3549
2644:fltk-1.3.4-1/png/pngwutil.c ****          {
 11200              		.loc 1 2644 22 discriminator 2 view .LVU3550
 11201 0b98 4883C201 		addq	$1, %rdx
 11202              	.LVL1159:
2644:fltk-1.3.4-1/png/pngwutil.c ****          {
 11203              		.loc 1 2644 10 is_stmt 0 discriminator 2 view .LVU3551
 11204 0b9c 4139D3   		cmpl	%edx, %r11d
 11205 0b9f 7FD7     		jg	.L803
 11206              	.L801:
2656:fltk-1.3.4-1/png/pngwutil.c ****              PNG_COST_SHIFT;
 11207              		.loc 1 2656 10 is_stmt 1 view .LVU3552
2656:fltk-1.3.4-1/png/pngwutil.c ****              PNG_COST_SHIFT;
 11208              		.loc 1 2656 48 is_stmt 0 view .LVU3553
 11209 0ba1 488B93B8 		movq	952(%rbx), %rdx
 11209      030000
2659:fltk-1.3.4-1/png/pngwutil.c ****              PNG_COST_SHIFT;
 11210              		.loc 1 2659 25 view .LVU3554
 11211 0ba8 4489C1   		movl	%r8d, %ecx
2663:fltk-1.3.4-1/png/pngwutil.c **** 
 11212              		.loc 1 2663 17 view .LVU3555
 11213 0bab 41B8FFFF 		movl	$2147483647, %r8d
 11213      FF7F
 11214              	.LVL1160:
2656:fltk-1.3.4-1/png/pngwutil.c ****              PNG_COST_SHIFT;
 11215              		.loc 1 2656 48 view .LVU3556
 11216 0bb1 0FB75204 		movzwl	4(%rdx), %edx
 11217              	.LVL1161:
2659:fltk-1.3.4-1/png/pngwutil.c ****              PNG_COST_SHIFT;
 11218              		.loc 1 2659 10 is_stmt 1 view .LVU3557
2659:fltk-1.3.4-1/png/pngwutil.c ****              PNG_COST_SHIFT;
 11219              		.loc 1 2659 25 is_stmt 0 view .LVU3558
 11220 0bb5 0FAFCA   		imull	%edx, %ecx
 11221              	.LVL1162:
2659:fltk-1.3.4-1/png/pngwutil.c ****              PNG_COST_SHIFT;
 11222              		.loc 1 2659 16 view .LVU3559
 11223 0bb8 4189CA   		movl	%ecx, %r10d
 11224 0bbb 41C1EA03 		shrl	$3, %r10d
 11225              	.LVL1163:
2662:fltk-1.3.4-1/png/pngwutil.c ****             sum = PNG_MAXSUM;
 11226              		.loc 1 2662 10 is_stmt 1 view .LVU3560
2662:fltk-1.3.4-1/png/pngwutil.c ****             sum = PNG_MAXSUM;
 11227              		.loc 1 2662 13 is_stmt 0 view .LVU3561
 11228 0bbf 81F907FE 		cmpl	$33553927, %ecx
 11228      FF01
 11229 0bc5 0F871CF8 		ja	.L800
 11229      FFFF
2666:fltk-1.3.4-1/png/pngwutil.c ****       }
 11230              		.loc 1 2666 13 is_stmt 1 view .LVU3562
2656:fltk-1.3.4-1/png/pngwutil.c ****              PNG_COST_SHIFT;
 11231              		.loc 1 2656 25 is_stmt 0 view .LVU3563
 11232 0bcb 0FAFD7   		imull	%edi, %edx
 11233              	.LVL1164:
2666:fltk-1.3.4-1/png/pngwutil.c ****       }
 11234              		.loc 1 2666 26 view .LVU3564
 11235 0bce 41C1E20A 		sall	$10, %r10d
 11236              	.LVL1165:
2656:fltk-1.3.4-1/png/pngwutil.c ****              PNG_COST_SHIFT;
 11237              		.loc 1 2656 16 view .LVU3565
 11238 0bd2 C1EA03   		shrl	$3, %edx
 11239              	.LVL1166:
2666:fltk-1.3.4-1/png/pngwutil.c ****       }
 11240              		.loc 1 2666 17 view .LVU3566
 11241 0bd5 458D0412 		leal	(%r10,%rdx), %r8d
 11242              	.LVL1167:
2666:fltk-1.3.4-1/png/pngwutil.c ****       }
 11243              		.loc 1 2666 17 view .LVU3567
 11244 0bd9 E909F8FF 		jmp	.L800
 11244      FF
 11245              	.LVL1168:
 11246 0bde 6690     		.p2align 4,,10
 11247              		.p2align 3
 11248              	.L974:
2666:fltk-1.3.4-1/png/pngwutil.c ****       }
 11249              		.loc 1 2666 17 view .LVU3568
 11250              	.LBE663:
 11251              	.LBE685:
 11252              	.LBB686:
 11253              	.LBB643:
2476:fltk-1.3.4-1/png/pngwutil.c ****          png_uint_32 lmhi, lmlo;
 11254              		.loc 1 2476 10 is_stmt 1 view .LVU3569
2477:fltk-1.3.4-1/png/pngwutil.c ****          lmlo = lmins & PNG_LOMASK;
 11255              		.loc 1 2477 10 view .LVU3570
2478:fltk-1.3.4-1/png/pngwutil.c ****          lmhi = (lmins >> PNG_HISHIFT) & PNG_HIMASK;
 11256              		.loc 1 2478 10 view .LVU3571
2479:fltk-1.3.4-1/png/pngwutil.c **** 
 11257              		.loc 1 2479 24 is_stmt 0 view .LVU3572
 11258 0be0 4489FF   		movl	%r15d, %edi
2481:fltk-1.3.4-1/png/pngwutil.c ****          {
 11259              		.loc 1 2481 10 view .LVU3573
 11260 0be3 448B5C24 		movl	28(%rsp), %r11d
 11260      1C
2478:fltk-1.3.4-1/png/pngwutil.c ****          lmhi = (lmins >> PNG_HISHIFT) & PNG_HIMASK;
 11261              		.loc 1 2478 15 view .LVU3574
 11262 0be8 450FB7C7 		movzwl	%r15w, %r8d
 11263              	.LVL1169:
2479:fltk-1.3.4-1/png/pngwutil.c **** 
 11264              		.loc 1 2479 10 is_stmt 1 view .LVU3575
2479:fltk-1.3.4-1/png/pngwutil.c **** 
 11265              		.loc 1 2479 24 is_stmt 0 view .LVU3576
 11266 0bec C1EF0A   		shrl	$10, %edi
2479:fltk-1.3.4-1/png/pngwutil.c **** 
 11267              		.loc 1 2479 15 view .LVU3577
 11268 0bef 81E7C0FF 		andl	$4194240, %edi
 11268      3F00
 11269              	.LVL1170:
2481:fltk-1.3.4-1/png/pngwutil.c ****          {
 11270              		.loc 1 2481 10 is_stmt 1 view .LVU3578
2481:fltk-1.3.4-1/png/pngwutil.c ****          {
 11271              		.loc 1 2481 22 view .LVU3579
2481:fltk-1.3.4-1/png/pngwutil.c ****          {
 11272              		.loc 1 2481 10 is_stmt 0 view .LVU3580
 11273 0bf5 4585DB   		testl	%r11d, %r11d
 11274 0bf8 7437     		je	.L770
2483:fltk-1.3.4-1/png/pngwutil.c ****             {
 11275              		.loc 1 2483 24 view .LVU3581
 11276 0bfa 4C8B93A0 		movq	928(%rbx), %r10
 11276      030000
 11277 0c01 31D2     		xorl	%edx, %edx
 11278              	.LVL1171:
 11279              		.p2align 4,,10
 11280 0c03 0F1F4400 		.p2align 3
 11280      00
 11281              	.L772:
2483:fltk-1.3.4-1/png/pngwutil.c ****             {
 11282              		.loc 1 2483 13 is_stmt 1 view .LVU3582
2483:fltk-1.3.4-1/png/pngwutil.c ****             {
 11283              		.loc 1 2483 16 is_stmt 0 view .LVU3583
 11284 0c08 41803C12 		cmpb	$1, (%r10,%rdx)
 11284      01
 11285 0c0d 7519     		jne	.L771
2485:fltk-1.3.4-1/png/pngwutil.c ****                    PNG_WEIGHT_SHIFT;
 11286              		.loc 1 2485 16 is_stmt 1 view .LVU3584
2485:fltk-1.3.4-1/png/pngwutil.c ****                    PNG_WEIGHT_SHIFT;
 11287              		.loc 1 2485 58 is_stmt 0 view .LVU3585
 11288 0c0f 488B8BB0 		movq	944(%rbx), %rcx
 11288      030000
 11289 0c16 0FB70C51 		movzwl	(%rcx,%rdx,2), %ecx
2485:fltk-1.3.4-1/png/pngwutil.c ****                    PNG_WEIGHT_SHIFT;
 11290              		.loc 1 2485 29 view .LVU3586
 11291 0c1a 440FAFC1 		imull	%ecx, %r8d
 11292              	.LVL1172:
2488:fltk-1.3.4-1/png/pngwutil.c ****                    PNG_WEIGHT_SHIFT;
 11293              		.loc 1 2488 29 view .LVU3587
 11294 0c1e 0FAFF9   		imull	%ecx, %edi
 11295              	.LVL1173:
2485:fltk-1.3.4-1/png/pngwutil.c ****                    PNG_WEIGHT_SHIFT;
 11296              		.loc 1 2485 21 view .LVU3588
 11297 0c21 41C1E808 		shrl	$8, %r8d
 11298              	.LVL1174:
2488:fltk-1.3.4-1/png/pngwutil.c ****                    PNG_WEIGHT_SHIFT;
 11299              		.loc 1 2488 16 is_stmt 1 view .LVU3589
2488:fltk-1.3.4-1/png/pngwutil.c ****                    PNG_WEIGHT_SHIFT;
 11300              		.loc 1 2488 21 is_stmt 0 view .LVU3590
 11301 0c25 C1EF08   		shrl	$8, %edi
 11302              	.LVL1175:
 11303              	.L771:
2481:fltk-1.3.4-1/png/pngwutil.c ****          {
 11304              		.loc 1 2481 41 is_stmt 1 discriminator 2 view .LVU3591
2481:fltk-1.3.4-1/png/pngwutil.c ****          {
 11305              		.loc 1 2481 22 discriminator 2 view .LVU3592
 11306 0c28 4883C201 		addq	$1, %rdx
 11307              	.LVL1176:
2481:fltk-1.3.4-1/png/pngwutil.c ****          {
 11308              		.loc 1 2481 10 is_stmt 0 discriminator 2 view .LVU3593
 11309 0c2c 4139D3   		cmpl	%edx, %r11d
 11310 0c2f 7FD7     		jg	.L772
 11311              	.L770:
2493:fltk-1.3.4-1/png/pngwutil.c ****              PNG_COST_SHIFT;
 11312              		.loc 1 2493 10 is_stmt 1 view .LVU3594
2493:fltk-1.3.4-1/png/pngwutil.c ****              PNG_COST_SHIFT;
 11313              		.loc 1 2493 50 is_stmt 0 view .LVU3595
 11314 0c31 488B93C0 		movq	960(%rbx), %rdx
 11314      030000
2500:fltk-1.3.4-1/png/pngwutil.c **** 
 11315              		.loc 1 2500 19 view .LVU3596
 11316 0c38 41BCFFFF 		movl	$2147483647, %r12d
 11316      FF7F
2493:fltk-1.3.4-1/png/pngwutil.c ****              PNG_COST_SHIFT;
 11317              		.loc 1 2493 50 view .LVU3597
 11318 0c3e 0FB75202 		movzwl	2(%rdx), %edx
 11319              	.LVL1177:
2496:fltk-1.3.4-1/png/pngwutil.c ****              PNG_COST_SHIFT;
 11320              		.loc 1 2496 10 is_stmt 1 view .LVU3598
2496:fltk-1.3.4-1/png/pngwutil.c ****              PNG_COST_SHIFT;
 11321              		.loc 1 2496 23 is_stmt 0 view .LVU3599
 11322 0c42 0FAFFA   		imull	%edx, %edi
 11323              	.LVL1178:
2496:fltk-1.3.4-1/png/pngwutil.c ****              PNG_COST_SHIFT;
 11324              		.loc 1 2496 15 view .LVU3600
 11325 0c45 89F9     		movl	%edi, %ecx
 11326 0c47 C1E903   		shrl	$3, %ecx
 11327              	.LVL1179:
2499:fltk-1.3.4-1/png/pngwutil.c ****             lmins = PNG_MAXSUM;
 11328              		.loc 1 2499 10 is_stmt 1 view .LVU3601
2499:fltk-1.3.4-1/png/pngwutil.c ****             lmins = PNG_MAXSUM;
 11329              		.loc 1 2499 13 is_stmt 0 view .LVU3602
 11330 0c4a 81FF07FE 		cmpl	$33553927, %edi
 11330      FF01
 11331 0c50 0F8741F4 		ja	.L769
 11331      FFFF
2503:fltk-1.3.4-1/png/pngwutil.c ****       }
 11332              		.loc 1 2503 13 is_stmt 1 view .LVU3603
2493:fltk-1.3.4-1/png/pngwutil.c ****              PNG_COST_SHIFT;
 11333              		.loc 1 2493 23 is_stmt 0 view .LVU3604
 11334 0c56 410FAFD0 		imull	%r8d, %edx
 11335              	.LVL1180:
2503:fltk-1.3.4-1/png/pngwutil.c ****       }
 11336              		.loc 1 2503 27 view .LVU3605
 11337 0c5a C1E10A   		sall	$10, %ecx
 11338              	.LVL1181:
2493:fltk-1.3.4-1/png/pngwutil.c ****              PNG_COST_SHIFT;
 11339              		.loc 1 2493 15 view .LVU3606
 11340 0c5d C1EA03   		shrl	$3, %edx
 11341              	.LVL1182:
2503:fltk-1.3.4-1/png/pngwutil.c ****       }
 11342              		.loc 1 2503 19 view .LVU3607
 11343 0c60 448D2411 		leal	(%rcx,%rdx), %r12d
 11344              	.LVL1183:
2503:fltk-1.3.4-1/png/pngwutil.c ****       }
 11345              		.loc 1 2503 19 view .LVU3608
 11346 0c64 E92EF4FF 		jmp	.L769
 11346      FF
 11347              	.LVL1184:
 11348 0c69 0F1F8000 		.p2align 4,,10
 11348      000000
 11349              		.p2align 3
 11350              	.L982:
2503:fltk-1.3.4-1/png/pngwutil.c ****       }
 11351              		.loc 1 2503 19 view .LVU3609
 11352              	.LBE643:
 11353              	.LBE686:
 11354              	.LBB687:
 11355              	.LBB668:
2760:fltk-1.3.4-1/png/pngwutil.c ****          png_uint_32 sumhi, sumlo;
 11356              		.loc 1 2760 10 is_stmt 1 view .LVU3610
2761:fltk-1.3.4-1/png/pngwutil.c ****          sumlo = sum & PNG_LOMASK;
 11357              		.loc 1 2761 10 view .LVU3611
2762:fltk-1.3.4-1/png/pngwutil.c ****          sumhi = (sum >> PNG_HISHIFT) & PNG_HIMASK;
 11358              		.loc 1 2762 10 view .LVU3612
2765:fltk-1.3.4-1/png/pngwutil.c ****          {
 11359              		.loc 1 2765 10 is_stmt 0 view .LVU3613
 11360 0c70 448B5C24 		movl	28(%rsp), %r11d
 11360      1C
2762:fltk-1.3.4-1/png/pngwutil.c ****          sumhi = (sum >> PNG_HISHIFT) & PNG_HIMASK;
 11361              		.loc 1 2762 16 view .LVU3614
 11362 0c75 410FB7F8 		movzwl	%r8w, %edi
 11363              	.LVL1185:
2763:fltk-1.3.4-1/png/pngwutil.c **** 
 11364              		.loc 1 2763 10 is_stmt 1 view .LVU3615
2763:fltk-1.3.4-1/png/pngwutil.c **** 
 11365              		.loc 1 2763 23 is_stmt 0 view .LVU3616
 11366 0c79 41C1E80A 		shrl	$10, %r8d
 11367              	.LVL1186:
2763:fltk-1.3.4-1/png/pngwutil.c **** 
 11368              		.loc 1 2763 16 view .LVU3617
 11369 0c7d 4181E0C0 		andl	$4194240, %r8d
 11369      FF3F00
 11370              	.LVL1187:
2765:fltk-1.3.4-1/png/pngwutil.c ****          {
 11371              		.loc 1 2765 10 is_stmt 1 view .LVU3618
2765:fltk-1.3.4-1/png/pngwutil.c ****          {
 11372              		.loc 1 2765 22 view .LVU3619
2765:fltk-1.3.4-1/png/pngwutil.c ****          {
 11373              		.loc 1 2765 10 is_stmt 0 view .LVU3620
 11374 0c84 4585DB   		testl	%r11d, %r11d
 11375 0c87 7438     		je	.L823
2767:fltk-1.3.4-1/png/pngwutil.c ****             {
 11376              		.loc 1 2767 24 view .LVU3621
 11377 0c89 4C8B93A0 		movq	928(%rbx), %r10
 11377      030000
 11378 0c90 31D2     		xorl	%edx, %edx
 11379              	.LVL1188:
 11380              		.p2align 4,,10
 11381 0c92 660F1F44 		.p2align 3
 11381      0000
 11382              	.L825:
2767:fltk-1.3.4-1/png/pngwutil.c ****             {
 11383              		.loc 1 2767 13 is_stmt 1 view .LVU3622
2767:fltk-1.3.4-1/png/pngwutil.c ****             {
 11384              		.loc 1 2767 16 is_stmt 0 view .LVU3623
 11385 0c98 41803C12 		cmpb	$0, (%r10,%rdx)
 11385      00
 11386 0c9d 7519     		jne	.L824
2769:fltk-1.3.4-1/png/pngwutil.c ****                    PNG_WEIGHT_SHIFT;
 11387              		.loc 1 2769 16 is_stmt 1 view .LVU3624
2769:fltk-1.3.4-1/png/pngwutil.c ****                    PNG_WEIGHT_SHIFT;
 11388              		.loc 1 2769 56 is_stmt 0 view .LVU3625
 11389 0c9f 488B8BA8 		movq	936(%rbx), %rcx
 11389      030000
 11390 0ca6 0FB70C51 		movzwl	(%rcx,%rdx,2), %ecx
2769:fltk-1.3.4-1/png/pngwutil.c ****                    PNG_WEIGHT_SHIFT;
 11391              		.loc 1 2769 31 view .LVU3626
 11392 0caa 0FAFF9   		imull	%ecx, %edi
 11393              	.LVL1189:
2772:fltk-1.3.4-1/png/pngwutil.c ****                    PNG_WEIGHT_SHIFT;
 11394              		.loc 1 2772 31 view .LVU3627
 11395 0cad 440FAFC1 		imull	%ecx, %r8d
 11396              	.LVL1190:
2769:fltk-1.3.4-1/png/pngwutil.c ****                    PNG_WEIGHT_SHIFT;
 11397              		.loc 1 2769 22 view .LVU3628
 11398 0cb1 C1EF08   		shrl	$8, %edi
 11399              	.LVL1191:
2772:fltk-1.3.4-1/png/pngwutil.c ****                    PNG_WEIGHT_SHIFT;
 11400              		.loc 1 2772 16 is_stmt 1 view .LVU3629
2772:fltk-1.3.4-1/png/pngwutil.c ****                    PNG_WEIGHT_SHIFT;
 11401              		.loc 1 2772 22 is_stmt 0 view .LVU3630
 11402 0cb4 41C1E808 		shrl	$8, %r8d
 11403              	.LVL1192:
 11404              	.L824:
2765:fltk-1.3.4-1/png/pngwutil.c ****          {
 11405              		.loc 1 2765 41 is_stmt 1 discriminator 2 view .LVU3631
2765:fltk-1.3.4-1/png/pngwutil.c ****          {
 11406              		.loc 1 2765 22 discriminator 2 view .LVU3632
 11407 0cb8 4883C201 		addq	$1, %rdx
 11408              	.LVL1193:
2765:fltk-1.3.4-1/png/pngwutil.c ****          {
 11409              		.loc 1 2765 10 is_stmt 0 discriminator 2 view .LVU3633
 11410 0cbc 4139D3   		cmpl	%edx, %r11d
 11411 0cbf 7FD7     		jg	.L825
 11412              	.L823:
2777:fltk-1.3.4-1/png/pngwutil.c ****              PNG_COST_SHIFT;
 11413              		.loc 1 2777 10 is_stmt 1 view .LVU3634
2777:fltk-1.3.4-1/png/pngwutil.c ****              PNG_COST_SHIFT;
 11414              		.loc 1 2777 48 is_stmt 0 view .LVU3635
 11415 0cc1 488B93B8 		movq	952(%rbx), %rdx
 11415      030000
2780:fltk-1.3.4-1/png/pngwutil.c ****              PNG_COST_SHIFT;
 11416              		.loc 1 2780 25 view .LVU3636
 11417 0cc8 4489C1   		movl	%r8d, %ecx
2784:fltk-1.3.4-1/png/pngwutil.c **** 
 11418              		.loc 1 2784 17 view .LVU3637
 11419 0ccb 41B8FFFF 		movl	$2147483647, %r8d
 11419      FF7F
 11420              	.LVL1194:
2777:fltk-1.3.4-1/png/pngwutil.c ****              PNG_COST_SHIFT;
 11421              		.loc 1 2777 48 view .LVU3638
 11422 0cd1 0FB75206 		movzwl	6(%rdx), %edx
 11423              	.LVL1195:
2780:fltk-1.3.4-1/png/pngwutil.c ****              PNG_COST_SHIFT;
 11424              		.loc 1 2780 10 is_stmt 1 view .LVU3639
2780:fltk-1.3.4-1/png/pngwutil.c ****              PNG_COST_SHIFT;
 11425              		.loc 1 2780 25 is_stmt 0 view .LVU3640
 11426 0cd5 0FAFCA   		imull	%edx, %ecx
 11427              	.LVL1196:
2780:fltk-1.3.4-1/png/pngwutil.c ****              PNG_COST_SHIFT;
 11428              		.loc 1 2780 16 view .LVU3641
 11429 0cd8 4189CA   		movl	%ecx, %r10d
 11430 0cdb 41C1EA03 		shrl	$3, %r10d
 11431              	.LVL1197:
2783:fltk-1.3.4-1/png/pngwutil.c ****             sum = PNG_MAXSUM;
 11432              		.loc 1 2783 10 is_stmt 1 view .LVU3642
2783:fltk-1.3.4-1/png/pngwutil.c ****             sum = PNG_MAXSUM;
 11433              		.loc 1 2783 13 is_stmt 0 view .LVU3643
 11434 0cdf 81F907FE 		cmpl	$33553927, %ecx
 11434      FF01
 11435 0ce5 0F874AF9 		ja	.L822
 11435      FFFF
2787:fltk-1.3.4-1/png/pngwutil.c ****       }
 11436              		.loc 1 2787 13 is_stmt 1 view .LVU3644
2777:fltk-1.3.4-1/png/pngwutil.c ****              PNG_COST_SHIFT;
 11437              		.loc 1 2777 25 is_stmt 0 view .LVU3645
 11438 0ceb 0FAFD7   		imull	%edi, %edx
 11439              	.LVL1198:
2787:fltk-1.3.4-1/png/pngwutil.c ****       }
 11440              		.loc 1 2787 26 view .LVU3646
 11441 0cee 41C1E20A 		sall	$10, %r10d
 11442              	.LVL1199:
2777:fltk-1.3.4-1/png/pngwutil.c ****              PNG_COST_SHIFT;
 11443              		.loc 1 2777 16 view .LVU3647
 11444 0cf2 C1EA03   		shrl	$3, %edx
 11445              	.LVL1200:
2787:fltk-1.3.4-1/png/pngwutil.c ****       }
 11446              		.loc 1 2787 17 view .LVU3648
 11447 0cf5 458D0412 		leal	(%r10,%rdx), %r8d
 11448              	.LVL1201:
2787:fltk-1.3.4-1/png/pngwutil.c ****       }
 11449              		.loc 1 2787 17 view .LVU3649
 11450 0cf9 E937F9FF 		jmp	.L822
 11450      FF
 11451              	.LVL1202:
 11452 0cfe 6690     		.p2align 4,,10
 11453              		.p2align 3
 11454              	.L980:
2787:fltk-1.3.4-1/png/pngwutil.c ****       }
 11455              		.loc 1 2787 17 view .LVU3650
 11456              	.LBE668:
 11457              	.LBB669:
2707:fltk-1.3.4-1/png/pngwutil.c ****          png_uint_32 lmhi, lmlo;
 11458              		.loc 1 2707 10 is_stmt 1 view .LVU3651
2708:fltk-1.3.4-1/png/pngwutil.c ****          lmlo = lmins & PNG_LOMASK;
 11459              		.loc 1 2708 10 view .LVU3652
2709:fltk-1.3.4-1/png/pngwutil.c ****          lmhi = (lmins >> PNG_HISHIFT) & PNG_HIMASK;
 11460              		.loc 1 2709 10 view .LVU3653
2710:fltk-1.3.4-1/png/pngwutil.c **** 
 11461              		.loc 1 2710 24 is_stmt 0 view .LVU3654
 11462 0d00 4489FF   		movl	%r15d, %edi
2712:fltk-1.3.4-1/png/pngwutil.c ****          {
 11463              		.loc 1 2712 10 view .LVU3655
 11464 0d03 448B5C24 		movl	28(%rsp), %r11d
 11464      1C
2709:fltk-1.3.4-1/png/pngwutil.c ****          lmhi = (lmins >> PNG_HISHIFT) & PNG_HIMASK;
 11465              		.loc 1 2709 15 view .LVU3656
 11466 0d08 450FB7C7 		movzwl	%r15w, %r8d
 11467              	.LVL1203:
2710:fltk-1.3.4-1/png/pngwutil.c **** 
 11468              		.loc 1 2710 10 is_stmt 1 view .LVU3657
2710:fltk-1.3.4-1/png/pngwutil.c **** 
 11469              		.loc 1 2710 24 is_stmt 0 view .LVU3658
 11470 0d0c C1EF0A   		shrl	$10, %edi
2710:fltk-1.3.4-1/png/pngwutil.c **** 
 11471              		.loc 1 2710 15 view .LVU3659
 11472 0d0f 81E7C0FF 		andl	$4194240, %edi
 11472      3F00
 11473              	.LVL1204:
2712:fltk-1.3.4-1/png/pngwutil.c ****          {
 11474              		.loc 1 2712 10 is_stmt 1 view .LVU3660
2712:fltk-1.3.4-1/png/pngwutil.c ****          {
 11475              		.loc 1 2712 22 view .LVU3661
2712:fltk-1.3.4-1/png/pngwutil.c ****          {
 11476              		.loc 1 2712 10 is_stmt 0 view .LVU3662
 11477 0d15 4585DB   		testl	%r11d, %r11d
 11478 0d18 7437     		je	.L811
2714:fltk-1.3.4-1/png/pngwutil.c ****             {
 11479              		.loc 1 2714 24 view .LVU3663
 11480 0d1a 4C8B93A0 		movq	928(%rbx), %r10
 11480      030000
 11481 0d21 31D2     		xorl	%edx, %edx
 11482              	.LVL1205:
 11483              		.p2align 4,,10
 11484 0d23 0F1F4400 		.p2align 3
 11484      00
 11485              	.L813:
2714:fltk-1.3.4-1/png/pngwutil.c ****             {
 11486              		.loc 1 2714 13 is_stmt 1 view .LVU3664
2714:fltk-1.3.4-1/png/pngwutil.c ****             {
 11487              		.loc 1 2714 16 is_stmt 0 view .LVU3665
 11488 0d28 41803C12 		cmpb	$3, (%r10,%rdx)
 11488      03
 11489 0d2d 7519     		jne	.L812
2716:fltk-1.3.4-1/png/pngwutil.c ****                    PNG_WEIGHT_SHIFT;
 11490              		.loc 1 2716 16 is_stmt 1 view .LVU3666
2716:fltk-1.3.4-1/png/pngwutil.c ****                    PNG_WEIGHT_SHIFT;
 11491              		.loc 1 2716 58 is_stmt 0 view .LVU3667
 11492 0d2f 488B8BB0 		movq	944(%rbx), %rcx
 11492      030000
 11493 0d36 0FB70C51 		movzwl	(%rcx,%rdx,2), %ecx
2716:fltk-1.3.4-1/png/pngwutil.c ****                    PNG_WEIGHT_SHIFT;
 11494              		.loc 1 2716 29 view .LVU3668
 11495 0d3a 440FAFC1 		imull	%ecx, %r8d
 11496              	.LVL1206:
2719:fltk-1.3.4-1/png/pngwutil.c ****                    PNG_WEIGHT_SHIFT;
 11497              		.loc 1 2719 29 view .LVU3669
 11498 0d3e 0FAFF9   		imull	%ecx, %edi
 11499              	.LVL1207:
2716:fltk-1.3.4-1/png/pngwutil.c ****                    PNG_WEIGHT_SHIFT;
 11500              		.loc 1 2716 21 view .LVU3670
 11501 0d41 41C1E808 		shrl	$8, %r8d
 11502              	.LVL1208:
2719:fltk-1.3.4-1/png/pngwutil.c ****                    PNG_WEIGHT_SHIFT;
 11503              		.loc 1 2719 16 is_stmt 1 view .LVU3671
2719:fltk-1.3.4-1/png/pngwutil.c ****                    PNG_WEIGHT_SHIFT;
 11504              		.loc 1 2719 21 is_stmt 0 view .LVU3672
 11505 0d45 C1EF08   		shrl	$8, %edi
 11506              	.LVL1209:
 11507              	.L812:
2712:fltk-1.3.4-1/png/pngwutil.c ****          {
 11508              		.loc 1 2712 41 is_stmt 1 discriminator 2 view .LVU3673
2712:fltk-1.3.4-1/png/pngwutil.c ****          {
 11509              		.loc 1 2712 22 discriminator 2 view .LVU3674
 11510 0d48 4883C201 		addq	$1, %rdx
 11511              	.LVL1210:
2712:fltk-1.3.4-1/png/pngwutil.c ****          {
 11512              		.loc 1 2712 10 is_stmt 0 discriminator 2 view .LVU3675
 11513 0d4c 4139D3   		cmpl	%edx, %r11d
 11514 0d4f 7FD7     		jg	.L813
 11515              	.L811:
2724:fltk-1.3.4-1/png/pngwutil.c ****              PNG_COST_SHIFT;
 11516              		.loc 1 2724 10 is_stmt 1 view .LVU3676
2724:fltk-1.3.4-1/png/pngwutil.c ****              PNG_COST_SHIFT;
 11517              		.loc 1 2724 50 is_stmt 0 view .LVU3677
 11518 0d51 488B93C0 		movq	960(%rbx), %rdx
 11518      030000
2731:fltk-1.3.4-1/png/pngwutil.c **** 
 11519              		.loc 1 2731 19 view .LVU3678
 11520 0d58 C7442428 		movl	$2147483647, 40(%rsp)
 11520      FFFFFF7F 
2724:fltk-1.3.4-1/png/pngwutil.c ****              PNG_COST_SHIFT;
 11521              		.loc 1 2724 50 view .LVU3679
 11522 0d60 0FB75206 		movzwl	6(%rdx), %edx
 11523              	.LVL1211:
2727:fltk-1.3.4-1/png/pngwutil.c ****              PNG_COST_SHIFT;
 11524              		.loc 1 2727 10 is_stmt 1 view .LVU3680
2727:fltk-1.3.4-1/png/pngwutil.c ****              PNG_COST_SHIFT;
 11525              		.loc 1 2727 23 is_stmt 0 view .LVU3681
 11526 0d64 0FAFFA   		imull	%edx, %edi
 11527              	.LVL1212:
2727:fltk-1.3.4-1/png/pngwutil.c ****              PNG_COST_SHIFT;
 11528              		.loc 1 2727 15 view .LVU3682
 11529 0d67 89F9     		movl	%edi, %ecx
 11530 0d69 C1E903   		shrl	$3, %ecx
 11531              	.LVL1213:
2730:fltk-1.3.4-1/png/pngwutil.c ****             lmins = PNG_MAXSUM;
 11532              		.loc 1 2730 10 is_stmt 1 view .LVU3683
2730:fltk-1.3.4-1/png/pngwutil.c ****             lmins = PNG_MAXSUM;
 11533              		.loc 1 2730 13 is_stmt 0 view .LVU3684
 11534 0d6c 81FF07FE 		cmpl	$33553927, %edi
 11534      FF01
 11535 0d72 0F87C5F7 		ja	.L810
 11535      FFFF
2734:fltk-1.3.4-1/png/pngwutil.c ****       }
 11536              		.loc 1 2734 13 is_stmt 1 view .LVU3685
2724:fltk-1.3.4-1/png/pngwutil.c ****              PNG_COST_SHIFT;
 11537              		.loc 1 2724 23 is_stmt 0 view .LVU3686
 11538 0d78 410FAFD0 		imull	%r8d, %edx
 11539              	.LVL1214:
2734:fltk-1.3.4-1/png/pngwutil.c ****       }
 11540              		.loc 1 2734 27 view .LVU3687
 11541 0d7c C1E10A   		sall	$10, %ecx
 11542              	.LVL1215:
2724:fltk-1.3.4-1/png/pngwutil.c ****              PNG_COST_SHIFT;
 11543              		.loc 1 2724 15 view .LVU3688
 11544 0d7f C1EA03   		shrl	$3, %edx
 11545              	.LVL1216:
2734:fltk-1.3.4-1/png/pngwutil.c ****       }
 11546              		.loc 1 2734 19 view .LVU3689
 11547 0d82 8D3C11   		leal	(%rcx,%rdx), %edi
 11548              	.LVL1217:
2734:fltk-1.3.4-1/png/pngwutil.c ****       }
 11549              		.loc 1 2734 19 view .LVU3690
 11550 0d85 897C2428 		movl	%edi, 40(%rsp)
 11551              	.LVL1218:
2734:fltk-1.3.4-1/png/pngwutil.c ****       }
 11552              		.loc 1 2734 19 view .LVU3691
 11553 0d89 E9AFF7FF 		jmp	.L810
 11553      FF
 11554              	.LVL1219:
 11555 0d8e 6690     		.p2align 4,,10
 11556              		.p2align 3
 11557              	.L882:
2734:fltk-1.3.4-1/png/pngwutil.c ****       }
 11558              		.loc 1 2734 19 view .LVU3692
 11559              	.LBE669:
 11560              	.LBE687:
 11561              	.LBB688:
2983:fltk-1.3.4-1/png/pngwutil.c ****       {
 11562              		.loc 1 2983 7 view .LVU3693
 11563 0d90 B9010000 		movl	$1, %ecx
 11563      00
 11564 0d95 E9CAF4FF 		jmp	.L853
 11564      FF
 11565              	.LVL1220:
 11566              	.L869:
2983:fltk-1.3.4-1/png/pngwutil.c ****       {
 11567              		.loc 1 2983 7 view .LVU3694
 11568              	.LBE688:
 11569              	.LBB689:
2683:fltk-1.3.4-1/png/pngwutil.c ****            pp = prev_row + 1; i < bpp; i++)
 11570              		.loc 1 2683 7 view .LVU3695
 11571 0d9a 31C9     		xorl	%ecx, %ecx
 11572 0d9c E9BBF6FF 		jmp	.L804
 11572      FF
 11573              	.LVL1221:
 11574              	.L860:
2683:fltk-1.3.4-1/png/pngwutil.c ****            pp = prev_row + 1; i < bpp; i++)
 11575              		.loc 1 2683 7 view .LVU3696
 11576              	.LBE689:
 11577              	.LBB690:
2447:fltk-1.3.4-1/png/pngwutil.c ****            i++, rp++, dp++)
 11578              		.loc 1 2447 14 view .LVU3697
 11579 0da1 31C9     		xorl	%ecx, %ecx
 11580 0da3 E942F7FF 		jmp	.L762
 11580      FF
 11581              	.LVL1222:
 11582              	.L875:
2447:fltk-1.3.4-1/png/pngwutil.c ****            i++, rp++, dp++)
 11583              		.loc 1 2447 14 view .LVU3698
 11584              	.LBE690:
 11585              	.LBB691:
2804:fltk-1.3.4-1/png/pngwutil.c ****           pp = prev_row + 1; i < bpp; i++)
 11586              		.loc 1 2804 14 view .LVU3699
 11587 0da8 31C9     		xorl	%ecx, %ecx
 11588 0daa E9E2F8FF 		jmp	.L826
 11588      FF
 11589              	.LVL1223:
 11590              	.L858:
2804:fltk-1.3.4-1/png/pngwutil.c ****           pp = prev_row + 1; i < bpp; i++)
 11591              		.loc 1 2804 14 view .LVU3700
 11592              	.LBE691:
 11593              	.LBB692:
2389:fltk-1.3.4-1/png/pngwutil.c ****       png_size_t i;
 11594              		.loc 1 2389 19 view .LVU3701
 11595 0daf 4531FF   		xorl	%r15d, %r15d
 11596 0db2 E90EF5FF 		jmp	.L754
 11596      FF
 11597              	.LVL1224:
 11598              	.L864:
2389:fltk-1.3.4-1/png/pngwutil.c ****       png_size_t i;
 11599              		.loc 1 2389 19 view .LVU3702
 11600              	.LBE692:
 11601              	.LBB693:
2507:fltk-1.3.4-1/png/pngwutil.c ****            i++, rp++, dp++)
 11602              		.loc 1 2507 14 view .LVU3703
 11603 0db7 4531D2   		xorl	%r10d, %r10d
2465:fltk-1.3.4-1/png/pngwutil.c ****       png_size_t i;
 11604              		.loc 1 2465 19 view .LVU3704
 11605 0dba 31FF     		xorl	%edi, %edi
 11606 0dbc E927F3FF 		jmp	.L773
 11606      FF
 11607              	.LVL1225:
 11608              	.L873:
2465:fltk-1.3.4-1/png/pngwutil.c ****       png_size_t i;
 11609              		.loc 1 2465 19 view .LVU3705
 11610              	.LBE693:
 11611              	.LBB694:
2738:fltk-1.3.4-1/png/pngwutil.c ****            pp = prev_row + 1; i < bpp; i++)
 11612              		.loc 1 2738 14 view .LVU3706
 11613 0dc1 4531DB   		xorl	%r11d, %r11d
2700:fltk-1.3.4-1/png/pngwutil.c ****       png_size_t i;
 11614              		.loc 1 2700 19 view .LVU3707
 11615 0dc4 4531C0   		xorl	%r8d, %r8d
 11616 0dc7 E9E9F7FF 		jmp	.L814
 11616      FF
 11617              	.LVL1226:
 11618              	.L879:
2700:fltk-1.3.4-1/png/pngwutil.c ****       png_size_t i;
 11619              		.loc 1 2700 19 view .LVU3708
 11620              	.LBE694:
 11621              	.LBB695:
2879:fltk-1.3.4-1/png/pngwutil.c ****           pp = prev_row + 1; i < bpp; i++)
 11622              		.loc 1 2879 14 view .LVU3709
 11623 0dcc 4531DB   		xorl	%r11d, %r11d
2841:fltk-1.3.4-1/png/pngwutil.c ****       png_size_t i;
 11624              		.loc 1 2841 19 view .LVU3710
 11625 0dcf 4531D2   		xorl	%r10d, %r10d
 11626 0dd2 E9F8F9FF 		jmp	.L836
 11626      FF
 11627              	.LBE695:
 11628              		.cfi_endproc
 11629              	.LFE82:
 11631              		.section	.rodata.png_pass_ystart.7172,"a"
 11634              	png_pass_ystart.7172:
 11635 0000 00       		.string	""
 11636 0001 00       		.string	""
 11637 0002 0400     		.string	"\004"
 11638 0004 0200     		.string	"\002"
 11639 0006 01       		.ascii	"\001"
 11640              		.section	.rodata.png_pass_yinc.7173,"a"
 11643              	png_pass_yinc.7173:
 11644 0000 08080804 		.ascii	"\b\b\b\004\004\002\002"
 11644      040202
 11645              		.section	.rodata.png_pass_start.7170,"a"
 11648              	png_pass_start.7170:
 11649 0000 00       		.string	""
 11650 0001 0400     		.string	"\004"
 11651 0003 0200     		.string	"\002"
 11652 0005 0100     		.string	"\001"
 11653              		.set	png_pass_start.7181,png_pass_start.7170
 11654              		.section	.rodata.png_pass_inc.7171,"a"
 11657              	png_pass_inc.7171:
 11658 0000 08080404 		.ascii	"\b\b\004\004\002\002\001"
 11658      020201
 11659              		.set	png_pass_inc.7182,png_pass_inc.7171
 11660              		.text
 11661              	.Letext0:
 11662              		.file 3 "/usr/lib/gcc/x86_64-linux-gnu/9/include/stddef.h"
 11663              		.file 4 "/usr/include/x86_64-linux-gnu/bits/types.h"
 11664              		.file 5 "/usr/include/x86_64-linux-gnu/bits/types/struct_FILE.h"
 11665              		.file 6 "/usr/include/x86_64-linux-gnu/bits/types/FILE.h"
 11666              		.file 7 "/usr/include/stdio.h"
 11667              		.file 8 "/usr/include/x86_64-linux-gnu/bits/setjmp.h"
 11668              		.file 9 "/usr/include/x86_64-linux-gnu/bits/types/__sigset_t.h"
 11669              		.file 10 "/usr/include/setjmp.h"
 11670              		.file 11 "/usr/include/time.h"
 11671              		.file 12 "fltk-1.3.4-1/png/pngconf.h"
 11672              		.file 13 "fltk-1.3.4-1/png/png.h"
 11673              		.file 14 "fltk-1.3.4-1/png/pngstruct.h"
 11674              		.file 15 "fltk-1.3.4-1/png/pnginfo.h"
 11675              		.file 16 "/usr/include/zconf.h"
 11676              		.file 17 "/usr/include/unistd.h"
 11677              		.file 18 "/usr/include/x86_64-linux-gnu/bits/getopt_core.h"
 11678              		.file 19 "/usr/include/zlib.h"
 11679              		.file 20 "fltk-1.3.4-1/png/pngpriv.h"
 11680              		.file 21 "<built-in>"
 11681              		.file 22 "/usr/include/string.h"
 59034              		.section	.note.gnu.property,"a"
 59035              		.align 8
 59036 0000 04000000 		.long	 1f - 0f
 59037 0004 10000000 		.long	 4f - 1f
 59038 0008 05000000 		.long	 5
 59039              	0:
 59040 000c 474E5500 		.string	 "GNU"
 59041              	1:
 59042              		.align 8
 59043 0010 020000C0 		.long	 0xc0000002
 59044 0014 04000000 		.long	 3f - 2f
 59045              	2:
 59046 0018 03000000 		.long	 0x3
 59047              	3:
 59048 001c 00000000 		.align 8
 59049              	4:
DEFINED SYMBOLS
                            *ABS*:0000000000000000 pngwutil.c
     /tmp/ccwovbn3.s:7      .text.png_image_size:0000000000000000 png_image_size
     /tmp/ccwovbn3.s:314    .text.png_deflate_claim:0000000000000000 png_deflate_claim
     /tmp/ccwovbn3.s:723    .text.optimize_cmf.part.0:0000000000000000 optimize_cmf.part.0
     /tmp/ccwovbn3.s:871    .text.png_check_keyword.part.0:0000000000000000 png_check_keyword.part.0
     /tmp/ccwovbn3.s:1144   .text.png_text_compress:0000000000000000 png_text_compress
     /tmp/ccwovbn3.s:1551   .text.png_write_chunk_header.part.0:0000000000000000 png_write_chunk_header.part.0
     /tmp/ccwovbn3.s:1671   .text.png_write_chunk_data.part.0:0000000000000000 png_write_chunk_data.part.0
     /tmp/ccwovbn3.s:1724   .text.png_write_compressed_data_out:0000000000000000 png_write_compressed_data_out
     /tmp/ccwovbn3.s:1866   .text.png_write_chunk_end.part.0:0000000000000000 png_write_chunk_end.part.0
     /tmp/ccwovbn3.s:1927   .text.png_write_complete_chunk:0000000000000000 png_write_complete_chunk
     /tmp/ccwovbn3.s:2091   .text.png_save_uint_32:0000000000000000 png_save_uint_32
     /tmp/ccwovbn3.s:2115   .text.png_save_uint_16:0000000000000000 png_save_uint_16
     /tmp/ccwovbn3.s:2138   .text.png_write_sig:0000000000000000 png_write_sig
     /tmp/ccwovbn3.s:2209   .text.png_write_chunk_start:0000000000000000 png_write_chunk_start
     /tmp/ccwovbn3.s:2248   .text.png_write_chunk_data:0000000000000000 png_write_chunk_data
     /tmp/ccwovbn3.s:2281   .text.png_write_chunk_end:0000000000000000 png_write_chunk_end
     /tmp/ccwovbn3.s:2307   .text.png_write_chunk:0000000000000000 png_write_chunk
     /tmp/ccwovbn3.s:2329   .text.png_free_buffer_list:0000000000000000 png_free_buffer_list
     /tmp/ccwovbn3.s:2427   .text.png_write_IHDR:0000000000000000 png_write_IHDR
     /tmp/ccwovbn3.s:2891   .text.png_write_PLTE:0000000000000000 png_write_PLTE
     /tmp/ccwovbn3.s:3111   .text.png_compress_IDAT:0000000000000000 png_compress_IDAT
     /tmp/ccwovbn3.s:3530   .text.png_write_finish_row.part.0:0000000000000000 png_write_finish_row.part.0
     /tmp/ccwovbn3.s:11657  .rodata.png_pass_inc.7171:0000000000000000 png_pass_inc.7171
     /tmp/ccwovbn3.s:11648  .rodata.png_pass_start.7170:0000000000000000 png_pass_start.7170
     /tmp/ccwovbn3.s:11643  .rodata.png_pass_yinc.7173:0000000000000000 png_pass_yinc.7173
     /tmp/ccwovbn3.s:11634  .rodata.png_pass_ystart.7172:0000000000000000 png_pass_ystart.7172
     /tmp/ccwovbn3.s:3764   .text.png_write_IEND:0000000000000000 png_write_IEND
     /tmp/ccwovbn3.s:3802   .text.png_write_gAMA_fixed:0000000000000000 png_write_gAMA_fixed
     /tmp/ccwovbn3.s:3871   .text.png_write_sRGB:0000000000000000 png_write_sRGB
     /tmp/ccwovbn3.s:3955   .text.png_write_iCCP:0000000000000000 png_write_iCCP
     /tmp/ccwovbn3.s:4305   .text.png_write_sPLT:0000000000000000 png_write_sPLT
     /tmp/ccwovbn3.s:4788   .text.png_write_sBIT:0000000000000000 png_write_sBIT
     /tmp/ccwovbn3.s:4949   .text.png_write_cHRM_fixed:0000000000000000 png_write_cHRM_fixed
     /tmp/ccwovbn3.s:5071   .text.png_write_tRNS:0000000000000000 png_write_tRNS
     /tmp/ccwovbn3.s:5337   .text.png_write_bKGD:0000000000000000 png_write_bKGD
     /tmp/ccwovbn3.s:5586   .text.png_write_hIST:0000000000000000 png_write_hIST
     /tmp/ccwovbn3.s:5773   .text.png_write_tEXt:0000000000000000 png_write_tEXt
     /tmp/ccwovbn3.s:6113   .text.png_write_zTXt:0000000000000000 png_write_zTXt
     /tmp/ccwovbn3.s:6425   .text.png_write_iTXt:0000000000000000 png_write_iTXt
     /tmp/ccwovbn3.s:7073   .text.png_write_oFFs:0000000000000000 png_write_oFFs
     /tmp/ccwovbn3.s:7186   .text.png_write_pCAL:0000000000000000 png_write_pCAL
     /tmp/ccwovbn3.s:7784   .text.png_write_sCAL_s:0000000000000000 png_write_sCAL_s
     /tmp/ccwovbn3.s:7972   .text.png_write_pHYs:0000000000000000 png_write_pHYs
     /tmp/ccwovbn3.s:8098   .text.png_write_tIME:0000000000000000 png_write_tIME
     /tmp/ccwovbn3.s:8228   .text.png_write_start_row:0000000000000000 png_write_start_row
     /tmp/ccwovbn3.s:8479   .text.png_write_finish_row:0000000000000000 png_write_finish_row
     /tmp/ccwovbn3.s:8514   .text.png_do_write_interlace:0000000000000000 png_do_write_interlace
     /tmp/ccwovbn3.s:11648  .rodata.png_pass_start.7170:0000000000000000 png_pass_start.7181
     /tmp/ccwovbn3.s:11657  .rodata.png_pass_inc.7171:0000000000000000 png_pass_inc.7182
     /tmp/ccwovbn3.s:9186   .text.png_write_find_filter:0000000000000000 png_write_find_filter
     /tmp/ccwovbn3.s:309    .rodata.png_deflate_claim.str1.1:000000000000003a .LC3
     /tmp/ccwovbn3.s:303    .rodata.png_deflate_claim.str1.1:0000000000000000 .LC0
     /tmp/ccwovbn3.s:307    .rodata.png_deflate_claim.str1.1:000000000000001e .LC2
     /tmp/ccwovbn3.s:305    .rodata.png_deflate_claim.str1.1:000000000000000f .LC1
     /tmp/ccwovbn3.s:862    .rodata.png_check_keyword.part.0.str1.1:0000000000000000 .LC4
     /tmp/ccwovbn3.s:866    .rodata.png_check_keyword.part.0.str1.8:0000000000000000 .LC5
     /tmp/ccwovbn3.s:1139   .rodata.png_text_compress.str1.1:0000000000000000 .LC6
     /tmp/ccwovbn3.s:1719   .rodata.png_write_compressed_data_out.str1.8:0000000000000000 .LC7
     /tmp/ccwovbn3.s:1922   .rodata.png_write_complete_chunk.str1.1:0000000000000000 .LC8
     /tmp/ccwovbn3.s:2402   .rodata.png_write_IHDR.str1.8:0000000000000048 .LC11
     /tmp/ccwovbn3.s:2396   .rodata.png_write_IHDR.str1.8:0000000000000000 .LC9
     /tmp/ccwovbn3.s:2421   .rodata.png_write_IHDR.str1.8:0000000000000118 .LC17
     /tmp/ccwovbn3.s:2414   .rodata.png_write_IHDR.str1.8:00000000000000f0 .LC15
     /tmp/ccwovbn3.s:2417   .rodata.png_write_IHDR.str1.1:0000000000000000 .LC16
     /tmp/ccwovbn3.s:2411   .rodata.png_write_IHDR.str1.8:00000000000000c8 .LC14
     /tmp/ccwovbn3.s:2405   .rodata.png_write_IHDR.str1.8:0000000000000070 .LC12
     /tmp/ccwovbn3.s:2408   .rodata.png_write_IHDR.str1.8:00000000000000a0 .LC13
     /tmp/ccwovbn3.s:2399   .rodata.png_write_IHDR.str1.8:0000000000000028 .LC10
     /tmp/ccwovbn3.s:2882   .rodata.png_write_PLTE.str1.8:0000000000000000 .LC18
     /tmp/ccwovbn3.s:2885   .rodata.png_write_PLTE.str1.8:0000000000000028 .LC19
     /tmp/ccwovbn3.s:3105   .rodata.png_compress_IDAT.str1.8:0000000000000000 .LC20
     /tmp/ccwovbn3.s:3865   .rodata.png_write_sRGB.str1.8:0000000000000000 .LC21
     /tmp/ccwovbn3.s:3946   .rodata.png_write_iCCP.str1.8:0000000000000000 .LC24
     /tmp/ccwovbn3.s:3949   .rodata.png_write_iCCP.str1.1:0000000000000030 .LC25
     /tmp/ccwovbn3.s:3940   .rodata.png_write_iCCP.str1.1:0000000000000000 .LC22
     /tmp/ccwovbn3.s:3942   .rodata.png_write_iCCP.str1.1:000000000000001a .LC23
     /tmp/ccwovbn3.s:4299   .rodata.png_write_sPLT.str1.1:0000000000000000 .LC26
     /tmp/ccwovbn3.s:4782   .rodata.png_write_sBIT.str1.1:0000000000000000 .LC27
     /tmp/ccwovbn3.s:5056   .rodata.png_write_tRNS.str1.8:0000000000000000 .LC28
     /tmp/ccwovbn3.s:5065   .rodata.png_write_tRNS.str1.8:00000000000000b0 .LC31
     /tmp/ccwovbn3.s:5059   .rodata.png_write_tRNS.str1.8:0000000000000030 .LC29
     /tmp/ccwovbn3.s:5062   .rodata.png_write_tRNS.str1.8:0000000000000070 .LC30
     /tmp/ccwovbn3.s:5325   .rodata.png_write_bKGD.str1.8:0000000000000000 .LC32
     /tmp/ccwovbn3.s:5331   .rodata.png_write_bKGD.str1.8:0000000000000068 .LC34
     /tmp/ccwovbn3.s:5328   .rodata.png_write_bKGD.str1.8:0000000000000028 .LC33
     /tmp/ccwovbn3.s:5580   .rodata.png_write_hIST.str1.8:0000000000000000 .LC35
     /tmp/ccwovbn3.s:5765   .rodata.png_write_tEXt.str1.1:0000000000000000 .LC36
     /tmp/ccwovbn3.s:5767   .rodata.png_write_tEXt.str1.1:0000000000000016 .LC37
     /tmp/ccwovbn3.s:6107   .rodata.png_write_zTXt.str1.1:0000000000000000 .LC39
     /tmp/ccwovbn3.s:6104   .rodata.png_write_zTXt.str1.8:0000000000000000 .LC38
     /tmp/ccwovbn3.s:6415   .rodata.png_write_iTXt.str1.1:0000000000000017 .LC42
     /tmp/ccwovbn3.s:6411   .rodata.png_write_iTXt.str1.1:0000000000000000 .LC40
     /tmp/ccwovbn3.s:6413   .rodata.png_write_iTXt.str1.1:0000000000000001 .LC41
     /tmp/ccwovbn3.s:6419   .rodata.png_write_iTXt.str1.8:0000000000000000 .LC43
     /tmp/ccwovbn3.s:7067   .rodata.png_write_oFFs.str1.8:0000000000000000 .LC44
     /tmp/ccwovbn3.s:7180   .rodata.png_write_pCAL.str1.1:0000000000000000 .LC46
     /tmp/ccwovbn3.s:7177   .rodata.png_write_pCAL.str1.8:0000000000000000 .LC45
     /tmp/ccwovbn3.s:7778   .rodata.png_write_sCAL_s.str1.8:0000000000000000 .LC47
     /tmp/ccwovbn3.s:7966   .rodata.png_write_pHYs.str1.8:0000000000000000 .LC48
     /tmp/ccwovbn3.s:8092   .rodata.png_write_tIME.str1.8:0000000000000000 .LC49
                           .group:0000000000000000 wm4.0.a6b23a418548ac0bda5d8549c4a2ec91
                           .group:0000000000000000 wm4.stdcpredef.h.19.8dc41bed5d9037ff9622e015fb5f0ce3
                           .group:0000000000000000 wm4.pngpriv.h.26.ca3d1719773cd86007410b516123e125
                           .group:0000000000000000 wm4.features.h.19.320b3bf3f3d04eccd55afd968f1ea5b2
                           .group:0000000000000000 wm4.cdefs.h.19.98d80eddbb3f64f4f30cd9aee9c5593c
                           .group:0000000000000000 wm4.wordsize.h.4.baf119258a1e53d8dba67ceac44ab6bc
                           .group:0000000000000000 wm4.cdefs.h.475.fb75d2e4416aa349344e6f45f683bf28
                           .group:0000000000000000 wm4.stubs64.h.10.6ce4c34010988db072c080326a6b6319
                           .group:0000000000000000 wm4.libcheaderstart.h.37.d9274df4cc0172452960ad9644fa5579
                           .group:0000000000000000 wm4.stdlib.h.28.2cffa49d94c5d85f4538f55f7b59771d
                           .group:0000000000000000 wm4.stddef.h.181.13772e73e5434e8cc4fafaaddad2b5da
                           .group:0000000000000000 wm4.floatn.h.20.80c7cf8a8dfad237004b28d051d5afda
                           .group:0000000000000000 wm4.floatncommon.h.34.7e1840d7dfb19e9bdb51aeb077d76637
                           .group:0000000000000000 wm4.stdlib.h.71.39700ac5536cfafa1b6db501afc46864
                           .group:0000000000000000 wm4.string.h.23.93403f89af7dba8212345449bb14b09d
                           .group:0000000000000000 wm4.libcheaderstart.h.31.87b3c285aeba93fe355ad19123070832
                           .group:0000000000000000 wm4.string.h.31.e39a94e203ad4e1d978c0fc68ce016ee
                           .group:0000000000000000 wm4.stddef.h.231.8136eebbab3406dbf57a7ec475dd5d83
                           .group:0000000000000000 wm4.pnglibconf.h.15.30e2eea90e566ac06da4f4de487193d7
                           .group:0000000000000000 wm4.pngpriv.h.130.f65d93453b5b5837849611ffe82d627a
                           .group:0000000000000000 wm4.png.h.412.12a95b2193a7d0bc2282b72c70a28ce1
                           .group:0000000000000000 wm4.limits.h.23.3c23ae3e8f372a0298be6ce978307bc7
                           .group:0000000000000000 wm4.limits.h.32.6a1c51cbc8834927c9b529a347d7b23f
                           .group:0000000000000000 wm4.posix1_lim.h.32.858fce26e105c5c0f681b222378d5883
                           .group:0000000000000000 wm4.local_lim.h.25.97ee4129efb08ad296101237bcd3401b
                           .group:0000000000000000 wm4.limits.h.3.0a3ae0fffe30e22dfdd77ac2c1b1fbdd
                           .group:0000000000000000 wm4.local_lim.h.42.9dc3935e0e3b94e23cda247e4e39bd8b
                           .group:0000000000000000 wm4.posix2_lim.h.23.56b9c4f885cbac0b652f53ee56b244b1
                           .group:0000000000000000 wm4.limits.h.60.eb7066f861c8b8edc7a0a399744b0335
                           .group:0000000000000000 wm4.stddef.h.39.1bfffcccc3897d82880a055878218da6
                           .group:0000000000000000 wm4.stdio.h.24.5c1b97eef3c86b7a2549420f69f4f128
                           .group:0000000000000000 wm4.stdio.h.31.e39a94e203ad4e1d978c0fc68ce016ee
                           .group:0000000000000000 wm4.stddef.h.155.ba788add86a0e365f264484f110c3c29
                           .group:0000000000000000 wm4.stdarg.h.34.3a23a216c0c293b3d2ea2e89281481e6
                           .group:0000000000000000 wm4.types.h.109.56eb9ae966b255288cc544f18746a7ff
                           .group:0000000000000000 wm4.typesizes.h.24.2c64f817c0dc4b6fb2a2c619d717be26
                           .group:0000000000000000 wm4.time64.h.24.a8166ae916ec910dab0d8987098d42ee
                           .group:0000000000000000 wm4.struct_FILE.h.19.0888ac70396abe1031c03d393554032f
                           .group:0000000000000000 wm4.stdio.h.93.0122ffbd02ddfe34dfaf44a2e3561c5b
                           .group:0000000000000000 wm4.stdio_lim.h.19.86760ef34d2b7513aac6ce30cb73c6f8
                           .group:0000000000000000 wm4.stdio.h.141.d7a290e19ca077c9e4aa7c43ede17a73
                           .group:0000000000000000 wm4.stdio.h.20.38f8a7cea5a7dfe0d9ad992f7c8483f3
                           .group:0000000000000000 wm4.__sigset_t.h.2.6b1ab6ff3d7b8fd9c0c42b0d80afbd80
                           .group:0000000000000000 wm4.setjmp.h.62.5655e5632e7855e400222c83408ceb1d
                           .group:0000000000000000 wm4.time.h.23.18ede267f3a48794bef4705df80339de
                           .group:0000000000000000 wm4.time.h.24.57e6945634c11c9a0e367d020f81b7cf
                           .group:0000000000000000 wm4.endian.h.20.efabd1018df5d7b4052c27dc6bdd5ce5
                           .group:0000000000000000 wm4.endianness.h.2.2c6a211f7909f3af5e9e9cfa3b6b63c8
                           .group:0000000000000000 wm4.endian.h.40.9e5d395adda2f4eb53ae69b69b664084
                           .group:0000000000000000 wm4.pngconf.h.86.6636b2584cb7be1618479e118d71e58c
                           .group:0000000000000000 wm4.png.h.506.fa53b6434c0b20c8e63094b04d7940c5
                           .group:0000000000000000 wm4.pngpriv.h.298.dc2c896ce0eddc5cfadee24e76e3c417
                           .group:0000000000000000 wm4.float.h.29.cae0b78251c51e3ff449cb238a29ed5b
                           .group:0000000000000000 wm4.math.h.26.671af5ac9cd425a35e0730f7b6d7cde2
                           .group:0000000000000000 wm4.math.h.24.808d6e83a8b3b11b5fa9117392e0d6ca
                           .group:0000000000000000 wm4.libmsimddeclstubs.h.34.4541d7d9ef23fb8c722872ed06b4fd48
                           .group:0000000000000000 wm4.math.h.48.5dafc6157c80230c0414aa9de5e109ba
                           .group:0000000000000000 wm4.fplogb.h.23.f264b61801f4cf347bed2d0fad7232d9
                           .group:0000000000000000 wm4.math.h.193.2a53c39a04fb9ee53d2145d0dd51922b
                           .group:0000000000000000 wm4.math.h.262.a3ec711e4bc2a8e48d58e73f7b61f7e6
                           .group:0000000000000000 wm4.math.h.291.31c5ea429e9ba79c95bf28566b299669
                           .group:0000000000000000 wm4.math.h.308.057dcf159b5c763b6f753ad19bd78a7c
                           .group:0000000000000000 wm4.math.h.351.d4dfe6acabbee9531318a05b7f2a0ebb
                           .group:0000000000000000 wm4.math.h.425.dd23fd9bd1a8b67c9cdacb96d25aa4cb
                           .group:0000000000000000 wm4.math.h.30.7cada3efe024725df2da4c705b6566be
                           .group:0000000000000000 wm4.pngpriv.h.481.f98e7c29eaaa759546a3f9808bc25c74
                           .group:0000000000000000 wm4.pngstruct.h.22.7b9573417641055ab8f42438aa8afadf
                           .group:0000000000000000 wm4.zconf.h.9.5d696d5ff537aa9e4334014200af587a
                           .group:0000000000000000 wm4.zconf.h.252.d660ed3b0952e518b3e109403eef37af
                           .group:0000000000000000 wm4.zconf.h.420.b3ba5ae58b852c80eba061279e8960fb
                           .group:0000000000000000 wm4.types.h.23.ad09b9000f4b9223ee132237184eff7f
                           .group:0000000000000000 wm4.types.h.171.9aecc81dc8df45ffba0c25c0647ef29f
                           .group:0000000000000000 wm4.pthreadtypesarch.h.25.6063cba99664c916e22d3a912bcc348a
                           .group:0000000000000000 wm4.struct_mutex.h.20.ed51f515172b9be99e450ba83eb5dd99
                           .group:0000000000000000 wm4.struct_rwlock.h.21.0254880f2904e3833fb8ae683e0f0330
                           .group:0000000000000000 wm4.stdarg.h.31.250806951830a1b6a3066ee41cf22414
                           .group:0000000000000000 wm4.unistd.h.23.9eac1fbc6e0a9aafe6a69df62b992db8
                           .group:0000000000000000 wm4.posix_opt.h.20.25edad97e3613a63f1969894ab33449b
                           .group:0000000000000000 wm4.unistd.h.210.b40c6c15db1d0b653f8dce03f258da9c
                           .group:0000000000000000 wm4.unistd.h.281.99c6c81af9cf38eab36ea34a36ce096b
                           .group:0000000000000000 wm4.confname.h.27.6b00117a32f457cc72e5ac810a9adade
                           .group:0000000000000000 wm4.zconf.h.480.490915782eb343cae7cfb06f78d23c62
                           .group:0000000000000000 wm4.zlib.h.40.096e6fa45bd4a30b5bc135e17c50b44d
                           .group:0000000000000000 wm4.pngstruct.h.44.bc957704556ff8ddcb697678a008ffae
                           .group:0000000000000000 wm4.pngpriv.h.853.4585af3e74cfb155d8486c5333b94adf
                           .group:0000000000000000 wm4.pngdebug.h.36.e9c57d5f35e3128225fb629498ec6fc8

UNDEFINED SYMBOLS
_GLOBAL_OFFSET_TABLE_
deflateEnd
deflateInit2_
png_zstream_error
png_safecat
png_warning
deflateReset
__stack_chk_fail
png_warning_parameter
png_warning_parameter_signed
png_formatted_warning
deflate
png_malloc_base
png_write_data
png_reset_crc
png_calculate_crc
png_error
png_free
png_malloc
memset
png_save_int_32
png_app_warning
strlen
__memcpy_chk
memcpy
png_calloc
png_write_flush
