   1              		.file	"pngwrite.c"
   2              		.text
   3              	.Ltext0:
   4              		.section	.text.png_reset_filter_heuristics,"ax",@progbits
   5              		.p2align 4
   7              	png_reset_filter_heuristics:
   8              	.LVL0:
   9              	.LFB58:
  10              		.file 1 "fltk-1.3.4-1/png/pngwrite.c"
   1:fltk-1.3.4-1/png/pngwrite.c **** 
   2:fltk-1.3.4-1/png/pngwrite.c **** /* pngwrite.c - general routines to write a PNG file
   3:fltk-1.3.4-1/png/pngwrite.c ****  *
   4:fltk-1.3.4-1/png/pngwrite.c ****  * Last changed in libpng 1.6.15 [November 20, 2014]
   5:fltk-1.3.4-1/png/pngwrite.c ****  * Copyright (c) 1998-2014 Glenn Randers-Pehrson
   6:fltk-1.3.4-1/png/pngwrite.c ****  * (Version 0.96 Copyright (c) 1996, 1997 Andreas Dilger)
   7:fltk-1.3.4-1/png/pngwrite.c ****  * (Version 0.88 Copyright (c) 1995, 1996 Guy Eric Schalnat, Group 42, Inc.)
   8:fltk-1.3.4-1/png/pngwrite.c ****  *
   9:fltk-1.3.4-1/png/pngwrite.c ****  * This code is released under the libpng license.
  10:fltk-1.3.4-1/png/pngwrite.c ****  * For conditions of distribution and use, see the disclaimer
  11:fltk-1.3.4-1/png/pngwrite.c ****  * and license in png.h
  12:fltk-1.3.4-1/png/pngwrite.c ****  */
  13:fltk-1.3.4-1/png/pngwrite.c **** 
  14:fltk-1.3.4-1/png/pngwrite.c **** #include "pngpriv.h"
  15:fltk-1.3.4-1/png/pngwrite.c **** #if defined(PNG_SIMPLIFIED_WRITE_SUPPORTED) && defined(PNG_STDIO_SUPPORTED)
  16:fltk-1.3.4-1/png/pngwrite.c **** #  include <errno.h>
  17:fltk-1.3.4-1/png/pngwrite.c **** #endif
  18:fltk-1.3.4-1/png/pngwrite.c **** 
  19:fltk-1.3.4-1/png/pngwrite.c **** #ifdef PNG_WRITE_SUPPORTED
  20:fltk-1.3.4-1/png/pngwrite.c **** 
  21:fltk-1.3.4-1/png/pngwrite.c **** #ifdef PNG_WRITE_UNKNOWN_CHUNKS_SUPPORTED
  22:fltk-1.3.4-1/png/pngwrite.c **** /* Write out all the unknown chunks for the current given location */
  23:fltk-1.3.4-1/png/pngwrite.c **** static void
  24:fltk-1.3.4-1/png/pngwrite.c **** write_unknown_chunks(png_structrp png_ptr, png_const_inforp info_ptr,
  25:fltk-1.3.4-1/png/pngwrite.c ****    unsigned int where)
  26:fltk-1.3.4-1/png/pngwrite.c **** {
  27:fltk-1.3.4-1/png/pngwrite.c ****    if (info_ptr->unknown_chunks_num != 0)
  28:fltk-1.3.4-1/png/pngwrite.c ****    {
  29:fltk-1.3.4-1/png/pngwrite.c ****       png_const_unknown_chunkp up;
  30:fltk-1.3.4-1/png/pngwrite.c **** 
  31:fltk-1.3.4-1/png/pngwrite.c ****       png_debug(5, "writing extra chunks");
  32:fltk-1.3.4-1/png/pngwrite.c **** 
  33:fltk-1.3.4-1/png/pngwrite.c ****       for (up = info_ptr->unknown_chunks;
  34:fltk-1.3.4-1/png/pngwrite.c ****            up < info_ptr->unknown_chunks + info_ptr->unknown_chunks_num;
  35:fltk-1.3.4-1/png/pngwrite.c ****            ++up)
  36:fltk-1.3.4-1/png/pngwrite.c ****          if ((up->location & where) != 0)
  37:fltk-1.3.4-1/png/pngwrite.c ****       {
  38:fltk-1.3.4-1/png/pngwrite.c ****          /* If per-chunk unknown chunk handling is enabled use it, otherwise
  39:fltk-1.3.4-1/png/pngwrite.c ****           * just write the chunks the application has set.
  40:fltk-1.3.4-1/png/pngwrite.c ****           */
  41:fltk-1.3.4-1/png/pngwrite.c **** #ifdef PNG_SET_UNKNOWN_CHUNKS_SUPPORTED
  42:fltk-1.3.4-1/png/pngwrite.c ****          int keep = png_handle_as_unknown(png_ptr, up->name);
  43:fltk-1.3.4-1/png/pngwrite.c **** 
  44:fltk-1.3.4-1/png/pngwrite.c ****          /* NOTE: this code is radically different from the read side in the
  45:fltk-1.3.4-1/png/pngwrite.c ****           * matter of handling an ancillary unknown chunk.  In the read side
  46:fltk-1.3.4-1/png/pngwrite.c ****           * the default behavior is to discard it, in the code below the default
  47:fltk-1.3.4-1/png/pngwrite.c ****           * behavior is to write it.  Critical chunks are, however, only
  48:fltk-1.3.4-1/png/pngwrite.c ****           * written if explicitly listed or if the default is set to write all
  49:fltk-1.3.4-1/png/pngwrite.c ****           * unknown chunks.
  50:fltk-1.3.4-1/png/pngwrite.c ****           *
  51:fltk-1.3.4-1/png/pngwrite.c ****           * The default handling is also slightly weird - it is not possible to
  52:fltk-1.3.4-1/png/pngwrite.c ****           * stop the writing of all unsafe-to-copy chunks!
  53:fltk-1.3.4-1/png/pngwrite.c ****           *
  54:fltk-1.3.4-1/png/pngwrite.c ****           * TODO: REVIEW: this would seem to be a bug.
  55:fltk-1.3.4-1/png/pngwrite.c ****           */
  56:fltk-1.3.4-1/png/pngwrite.c ****          if (keep != PNG_HANDLE_CHUNK_NEVER &&
  57:fltk-1.3.4-1/png/pngwrite.c ****              ((up->name[3] & 0x20) /* safe-to-copy overrides everything */ ||
  58:fltk-1.3.4-1/png/pngwrite.c ****               keep == PNG_HANDLE_CHUNK_ALWAYS ||
  59:fltk-1.3.4-1/png/pngwrite.c ****               (keep == PNG_HANDLE_CHUNK_AS_DEFAULT &&
  60:fltk-1.3.4-1/png/pngwrite.c ****                png_ptr->unknown_default == PNG_HANDLE_CHUNK_ALWAYS)))
  61:fltk-1.3.4-1/png/pngwrite.c **** #endif
  62:fltk-1.3.4-1/png/pngwrite.c ****          {
  63:fltk-1.3.4-1/png/pngwrite.c ****             /* TODO: review, what is wrong with a zero length unknown chunk? */
  64:fltk-1.3.4-1/png/pngwrite.c ****             if (up->size == 0)
  65:fltk-1.3.4-1/png/pngwrite.c ****                png_warning(png_ptr, "Writing zero-length unknown chunk");
  66:fltk-1.3.4-1/png/pngwrite.c **** 
  67:fltk-1.3.4-1/png/pngwrite.c ****             png_write_chunk(png_ptr, up->name, up->data, up->size);
  68:fltk-1.3.4-1/png/pngwrite.c ****          }
  69:fltk-1.3.4-1/png/pngwrite.c ****       }
  70:fltk-1.3.4-1/png/pngwrite.c ****    }
  71:fltk-1.3.4-1/png/pngwrite.c **** }
  72:fltk-1.3.4-1/png/pngwrite.c **** #endif /* WRITE_UNKNOWN_CHUNKS */
  73:fltk-1.3.4-1/png/pngwrite.c **** 
  74:fltk-1.3.4-1/png/pngwrite.c **** /* Writes all the PNG information.  This is the suggested way to use the
  75:fltk-1.3.4-1/png/pngwrite.c ****  * library.  If you have a new chunk to add, make a function to write it,
  76:fltk-1.3.4-1/png/pngwrite.c ****  * and put it in the correct location here.  If you want the chunk written
  77:fltk-1.3.4-1/png/pngwrite.c ****  * after the image data, put it in png_write_end().  I strongly encourage
  78:fltk-1.3.4-1/png/pngwrite.c ****  * you to supply a PNG_INFO_ flag, and check info_ptr->valid before writing
  79:fltk-1.3.4-1/png/pngwrite.c ****  * the chunk, as that will keep the code from breaking if you want to just
  80:fltk-1.3.4-1/png/pngwrite.c ****  * write a plain PNG file.  If you have long comments, I suggest writing
  81:fltk-1.3.4-1/png/pngwrite.c ****  * them in png_write_end(), and compressing them.
  82:fltk-1.3.4-1/png/pngwrite.c ****  */
  83:fltk-1.3.4-1/png/pngwrite.c **** void PNGAPI
  84:fltk-1.3.4-1/png/pngwrite.c **** png_write_info_before_PLTE(png_structrp png_ptr, png_const_inforp info_ptr)
  85:fltk-1.3.4-1/png/pngwrite.c **** {
  86:fltk-1.3.4-1/png/pngwrite.c ****    png_debug(1, "in png_write_info_before_PLTE");
  87:fltk-1.3.4-1/png/pngwrite.c **** 
  88:fltk-1.3.4-1/png/pngwrite.c ****    if (png_ptr == NULL || info_ptr == NULL)
  89:fltk-1.3.4-1/png/pngwrite.c ****       return;
  90:fltk-1.3.4-1/png/pngwrite.c **** 
  91:fltk-1.3.4-1/png/pngwrite.c ****    if ((png_ptr->mode & PNG_WROTE_INFO_BEFORE_PLTE) == 0)
  92:fltk-1.3.4-1/png/pngwrite.c ****    {
  93:fltk-1.3.4-1/png/pngwrite.c ****    /* Write PNG signature */
  94:fltk-1.3.4-1/png/pngwrite.c ****    png_write_sig(png_ptr);
  95:fltk-1.3.4-1/png/pngwrite.c **** 
  96:fltk-1.3.4-1/png/pngwrite.c **** #ifdef PNG_MNG_FEATURES_SUPPORTED
  97:fltk-1.3.4-1/png/pngwrite.c ****    if ((png_ptr->mode & PNG_HAVE_PNG_SIGNATURE) != 0 && \
  98:fltk-1.3.4-1/png/pngwrite.c ****        png_ptr->mng_features_permitted != 0)
  99:fltk-1.3.4-1/png/pngwrite.c ****    {
 100:fltk-1.3.4-1/png/pngwrite.c ****       png_warning(png_ptr, "MNG features are not allowed in a PNG datastream");
 101:fltk-1.3.4-1/png/pngwrite.c ****       png_ptr->mng_features_permitted = 0;
 102:fltk-1.3.4-1/png/pngwrite.c ****    }
 103:fltk-1.3.4-1/png/pngwrite.c **** #endif
 104:fltk-1.3.4-1/png/pngwrite.c **** 
 105:fltk-1.3.4-1/png/pngwrite.c ****    /* Write IHDR information. */
 106:fltk-1.3.4-1/png/pngwrite.c ****    png_write_IHDR(png_ptr, info_ptr->width, info_ptr->height,
 107:fltk-1.3.4-1/png/pngwrite.c ****        info_ptr->bit_depth, info_ptr->color_type, info_ptr->compression_type,
 108:fltk-1.3.4-1/png/pngwrite.c ****        info_ptr->filter_type,
 109:fltk-1.3.4-1/png/pngwrite.c **** #ifdef PNG_WRITE_INTERLACING_SUPPORTED
 110:fltk-1.3.4-1/png/pngwrite.c ****        info_ptr->interlace_type
 111:fltk-1.3.4-1/png/pngwrite.c **** #else
 112:fltk-1.3.4-1/png/pngwrite.c ****        0
 113:fltk-1.3.4-1/png/pngwrite.c **** #endif
 114:fltk-1.3.4-1/png/pngwrite.c ****       );
 115:fltk-1.3.4-1/png/pngwrite.c **** 
 116:fltk-1.3.4-1/png/pngwrite.c ****    /* The rest of these check to see if the valid field has the appropriate
 117:fltk-1.3.4-1/png/pngwrite.c ****     * flag set, and if it does, writes the chunk.
 118:fltk-1.3.4-1/png/pngwrite.c ****     *
 119:fltk-1.3.4-1/png/pngwrite.c ****     * 1.6.0: COLORSPACE support controls the writing of these chunks too, and
 120:fltk-1.3.4-1/png/pngwrite.c ****     * the chunks will be written if the WRITE routine is there and information
 121:fltk-1.3.4-1/png/pngwrite.c ****     * is available in the COLORSPACE.  (See png_colorspace_sync_info in png.c
 122:fltk-1.3.4-1/png/pngwrite.c ****     * for where the valid flags get set.)
 123:fltk-1.3.4-1/png/pngwrite.c ****     *
 124:fltk-1.3.4-1/png/pngwrite.c ****     * Under certain circumstances the colorspace can be invalidated without
 125:fltk-1.3.4-1/png/pngwrite.c ****     * syncing the info_struct 'valid' flags; this happens if libpng detects and
 126:fltk-1.3.4-1/png/pngwrite.c ****     * error and calls png_error while the color space is being set, yet the
 127:fltk-1.3.4-1/png/pngwrite.c ****     * application continues writing the PNG.  So check the 'invalid' flag here
 128:fltk-1.3.4-1/png/pngwrite.c ****     * too.
 129:fltk-1.3.4-1/png/pngwrite.c ****     */
 130:fltk-1.3.4-1/png/pngwrite.c **** #ifdef PNG_GAMMA_SUPPORTED
 131:fltk-1.3.4-1/png/pngwrite.c **** #  ifdef PNG_WRITE_gAMA_SUPPORTED
 132:fltk-1.3.4-1/png/pngwrite.c ****       if ((info_ptr->colorspace.flags & PNG_COLORSPACE_INVALID) == 0 &&
 133:fltk-1.3.4-1/png/pngwrite.c ****           (info_ptr->colorspace.flags & PNG_COLORSPACE_FROM_gAMA) != 0 &&
 134:fltk-1.3.4-1/png/pngwrite.c ****           (info_ptr->valid & PNG_INFO_gAMA) != 0)
 135:fltk-1.3.4-1/png/pngwrite.c ****          png_write_gAMA_fixed(png_ptr, info_ptr->colorspace.gamma);
 136:fltk-1.3.4-1/png/pngwrite.c **** #  endif
 137:fltk-1.3.4-1/png/pngwrite.c **** #endif
 138:fltk-1.3.4-1/png/pngwrite.c **** 
 139:fltk-1.3.4-1/png/pngwrite.c **** #ifdef PNG_COLORSPACE_SUPPORTED
 140:fltk-1.3.4-1/png/pngwrite.c ****    /* Write only one of sRGB or an ICC profile.  If a profile was supplied
 141:fltk-1.3.4-1/png/pngwrite.c ****     * and it matches one of the known sRGB ones issue a warning.
 142:fltk-1.3.4-1/png/pngwrite.c ****     */
 143:fltk-1.3.4-1/png/pngwrite.c **** #  ifdef PNG_WRITE_iCCP_SUPPORTED
 144:fltk-1.3.4-1/png/pngwrite.c ****       if ((info_ptr->colorspace.flags & PNG_COLORSPACE_INVALID) == 0 &&
 145:fltk-1.3.4-1/png/pngwrite.c ****           (info_ptr->valid & PNG_INFO_iCCP) != 0)
 146:fltk-1.3.4-1/png/pngwrite.c ****       {
 147:fltk-1.3.4-1/png/pngwrite.c **** #        ifdef PNG_WRITE_sRGB_SUPPORTED
 148:fltk-1.3.4-1/png/pngwrite.c ****             if ((info_ptr->valid & PNG_INFO_sRGB) != 0)
 149:fltk-1.3.4-1/png/pngwrite.c ****                png_app_warning(png_ptr,
 150:fltk-1.3.4-1/png/pngwrite.c ****                   "profile matches sRGB but writing iCCP instead");
 151:fltk-1.3.4-1/png/pngwrite.c **** #        endif
 152:fltk-1.3.4-1/png/pngwrite.c **** 
 153:fltk-1.3.4-1/png/pngwrite.c ****          png_write_iCCP(png_ptr, info_ptr->iccp_name,
 154:fltk-1.3.4-1/png/pngwrite.c ****             info_ptr->iccp_profile);
 155:fltk-1.3.4-1/png/pngwrite.c ****       }
 156:fltk-1.3.4-1/png/pngwrite.c **** #     ifdef PNG_WRITE_sRGB_SUPPORTED
 157:fltk-1.3.4-1/png/pngwrite.c ****          else
 158:fltk-1.3.4-1/png/pngwrite.c **** #     endif
 159:fltk-1.3.4-1/png/pngwrite.c **** #  endif
 160:fltk-1.3.4-1/png/pngwrite.c **** 
 161:fltk-1.3.4-1/png/pngwrite.c **** #  ifdef PNG_WRITE_sRGB_SUPPORTED
 162:fltk-1.3.4-1/png/pngwrite.c ****       if ((info_ptr->colorspace.flags & PNG_COLORSPACE_INVALID) == 0 &&
 163:fltk-1.3.4-1/png/pngwrite.c ****           (info_ptr->valid & PNG_INFO_sRGB) != 0)
 164:fltk-1.3.4-1/png/pngwrite.c ****          png_write_sRGB(png_ptr, info_ptr->colorspace.rendering_intent);
 165:fltk-1.3.4-1/png/pngwrite.c **** #  endif /* WRITE_sRGB */
 166:fltk-1.3.4-1/png/pngwrite.c **** #endif /* COLORSPACE */
 167:fltk-1.3.4-1/png/pngwrite.c **** 
 168:fltk-1.3.4-1/png/pngwrite.c **** #ifdef PNG_WRITE_sBIT_SUPPORTED
 169:fltk-1.3.4-1/png/pngwrite.c ****    if ((info_ptr->valid & PNG_INFO_sBIT) != 0)
 170:fltk-1.3.4-1/png/pngwrite.c ****       png_write_sBIT(png_ptr, &(info_ptr->sig_bit), info_ptr->color_type);
 171:fltk-1.3.4-1/png/pngwrite.c **** #endif
 172:fltk-1.3.4-1/png/pngwrite.c **** 
 173:fltk-1.3.4-1/png/pngwrite.c **** #ifdef PNG_COLORSPACE_SUPPORTED
 174:fltk-1.3.4-1/png/pngwrite.c **** #  ifdef PNG_WRITE_cHRM_SUPPORTED
 175:fltk-1.3.4-1/png/pngwrite.c ****       if ((info_ptr->colorspace.flags & PNG_COLORSPACE_INVALID) == 0 &&
 176:fltk-1.3.4-1/png/pngwrite.c ****          (info_ptr->colorspace.flags & PNG_COLORSPACE_FROM_cHRM) != 0 &&
 177:fltk-1.3.4-1/png/pngwrite.c ****          (info_ptr->valid & PNG_INFO_cHRM) != 0)
 178:fltk-1.3.4-1/png/pngwrite.c ****          png_write_cHRM_fixed(png_ptr, &info_ptr->colorspace.end_points_xy);
 179:fltk-1.3.4-1/png/pngwrite.c **** #  endif
 180:fltk-1.3.4-1/png/pngwrite.c **** #endif
 181:fltk-1.3.4-1/png/pngwrite.c **** 
 182:fltk-1.3.4-1/png/pngwrite.c **** #ifdef PNG_WRITE_UNKNOWN_CHUNKS_SUPPORTED
 183:fltk-1.3.4-1/png/pngwrite.c ****       write_unknown_chunks(png_ptr, info_ptr, PNG_HAVE_IHDR);
 184:fltk-1.3.4-1/png/pngwrite.c **** #endif
 185:fltk-1.3.4-1/png/pngwrite.c **** 
 186:fltk-1.3.4-1/png/pngwrite.c ****       png_ptr->mode |= PNG_WROTE_INFO_BEFORE_PLTE;
 187:fltk-1.3.4-1/png/pngwrite.c ****    }
 188:fltk-1.3.4-1/png/pngwrite.c **** }
 189:fltk-1.3.4-1/png/pngwrite.c **** 
 190:fltk-1.3.4-1/png/pngwrite.c **** void PNGAPI
 191:fltk-1.3.4-1/png/pngwrite.c **** png_write_info(png_structrp png_ptr, png_const_inforp info_ptr)
 192:fltk-1.3.4-1/png/pngwrite.c **** {
 193:fltk-1.3.4-1/png/pngwrite.c **** #if defined(PNG_WRITE_TEXT_SUPPORTED) || defined(PNG_WRITE_sPLT_SUPPORTED)
 194:fltk-1.3.4-1/png/pngwrite.c ****    int i;
 195:fltk-1.3.4-1/png/pngwrite.c **** #endif
 196:fltk-1.3.4-1/png/pngwrite.c **** 
 197:fltk-1.3.4-1/png/pngwrite.c ****    png_debug(1, "in png_write_info");
 198:fltk-1.3.4-1/png/pngwrite.c **** 
 199:fltk-1.3.4-1/png/pngwrite.c ****    if (png_ptr == NULL || info_ptr == NULL)
 200:fltk-1.3.4-1/png/pngwrite.c ****       return;
 201:fltk-1.3.4-1/png/pngwrite.c **** 
 202:fltk-1.3.4-1/png/pngwrite.c ****    png_write_info_before_PLTE(png_ptr, info_ptr);
 203:fltk-1.3.4-1/png/pngwrite.c **** 
 204:fltk-1.3.4-1/png/pngwrite.c ****    if ((info_ptr->valid & PNG_INFO_PLTE) != 0)
 205:fltk-1.3.4-1/png/pngwrite.c ****       png_write_PLTE(png_ptr, info_ptr->palette,
 206:fltk-1.3.4-1/png/pngwrite.c ****           (png_uint_32)info_ptr->num_palette);
 207:fltk-1.3.4-1/png/pngwrite.c **** 
 208:fltk-1.3.4-1/png/pngwrite.c ****    else if ((info_ptr->color_type == PNG_COLOR_TYPE_PALETTE) !=0)
 209:fltk-1.3.4-1/png/pngwrite.c ****       png_error(png_ptr, "Valid palette required for paletted images");
 210:fltk-1.3.4-1/png/pngwrite.c **** 
 211:fltk-1.3.4-1/png/pngwrite.c **** #ifdef PNG_WRITE_tRNS_SUPPORTED
 212:fltk-1.3.4-1/png/pngwrite.c ****    if ((info_ptr->valid & PNG_INFO_tRNS) !=0)
 213:fltk-1.3.4-1/png/pngwrite.c ****    {
 214:fltk-1.3.4-1/png/pngwrite.c **** #ifdef PNG_WRITE_INVERT_ALPHA_SUPPORTED
 215:fltk-1.3.4-1/png/pngwrite.c ****       /* Invert the alpha channel (in tRNS) */
 216:fltk-1.3.4-1/png/pngwrite.c ****       if ((png_ptr->transformations & PNG_INVERT_ALPHA) != 0 &&
 217:fltk-1.3.4-1/png/pngwrite.c ****           info_ptr->color_type == PNG_COLOR_TYPE_PALETTE)
 218:fltk-1.3.4-1/png/pngwrite.c ****       {
 219:fltk-1.3.4-1/png/pngwrite.c ****          int j;
 220:fltk-1.3.4-1/png/pngwrite.c ****          for (j = 0; j<(int)info_ptr->num_trans; j++)
 221:fltk-1.3.4-1/png/pngwrite.c ****             info_ptr->trans_alpha[j] =
 222:fltk-1.3.4-1/png/pngwrite.c ****                (png_byte)(255 - info_ptr->trans_alpha[j]);
 223:fltk-1.3.4-1/png/pngwrite.c ****       }
 224:fltk-1.3.4-1/png/pngwrite.c **** #endif
 225:fltk-1.3.4-1/png/pngwrite.c ****       png_write_tRNS(png_ptr, info_ptr->trans_alpha, &(info_ptr->trans_color),
 226:fltk-1.3.4-1/png/pngwrite.c ****           info_ptr->num_trans, info_ptr->color_type);
 227:fltk-1.3.4-1/png/pngwrite.c ****    }
 228:fltk-1.3.4-1/png/pngwrite.c **** #endif
 229:fltk-1.3.4-1/png/pngwrite.c **** #ifdef PNG_WRITE_bKGD_SUPPORTED
 230:fltk-1.3.4-1/png/pngwrite.c ****    if ((info_ptr->valid & PNG_INFO_bKGD) != 0)
 231:fltk-1.3.4-1/png/pngwrite.c ****       png_write_bKGD(png_ptr, &(info_ptr->background), info_ptr->color_type);
 232:fltk-1.3.4-1/png/pngwrite.c **** #endif
 233:fltk-1.3.4-1/png/pngwrite.c **** 
 234:fltk-1.3.4-1/png/pngwrite.c **** #ifdef PNG_WRITE_hIST_SUPPORTED
 235:fltk-1.3.4-1/png/pngwrite.c ****    if ((info_ptr->valid & PNG_INFO_hIST) != 0)
 236:fltk-1.3.4-1/png/pngwrite.c ****       png_write_hIST(png_ptr, info_ptr->hist, info_ptr->num_palette);
 237:fltk-1.3.4-1/png/pngwrite.c **** #endif
 238:fltk-1.3.4-1/png/pngwrite.c **** 
 239:fltk-1.3.4-1/png/pngwrite.c **** #ifdef PNG_WRITE_oFFs_SUPPORTED
 240:fltk-1.3.4-1/png/pngwrite.c ****    if ((info_ptr->valid & PNG_INFO_oFFs) != 0)
 241:fltk-1.3.4-1/png/pngwrite.c ****       png_write_oFFs(png_ptr, info_ptr->x_offset, info_ptr->y_offset,
 242:fltk-1.3.4-1/png/pngwrite.c ****           info_ptr->offset_unit_type);
 243:fltk-1.3.4-1/png/pngwrite.c **** #endif
 244:fltk-1.3.4-1/png/pngwrite.c **** 
 245:fltk-1.3.4-1/png/pngwrite.c **** #ifdef PNG_WRITE_pCAL_SUPPORTED
 246:fltk-1.3.4-1/png/pngwrite.c ****    if ((info_ptr->valid & PNG_INFO_pCAL) != 0)
 247:fltk-1.3.4-1/png/pngwrite.c ****       png_write_pCAL(png_ptr, info_ptr->pcal_purpose, info_ptr->pcal_X0,
 248:fltk-1.3.4-1/png/pngwrite.c ****           info_ptr->pcal_X1, info_ptr->pcal_type, info_ptr->pcal_nparams,
 249:fltk-1.3.4-1/png/pngwrite.c ****           info_ptr->pcal_units, info_ptr->pcal_params);
 250:fltk-1.3.4-1/png/pngwrite.c **** #endif
 251:fltk-1.3.4-1/png/pngwrite.c **** 
 252:fltk-1.3.4-1/png/pngwrite.c **** #ifdef PNG_WRITE_sCAL_SUPPORTED
 253:fltk-1.3.4-1/png/pngwrite.c ****    if ((info_ptr->valid & PNG_INFO_sCAL) != 0)
 254:fltk-1.3.4-1/png/pngwrite.c ****       png_write_sCAL_s(png_ptr, (int)info_ptr->scal_unit,
 255:fltk-1.3.4-1/png/pngwrite.c ****           info_ptr->scal_s_width, info_ptr->scal_s_height);
 256:fltk-1.3.4-1/png/pngwrite.c **** #endif /* sCAL */
 257:fltk-1.3.4-1/png/pngwrite.c **** 
 258:fltk-1.3.4-1/png/pngwrite.c **** #ifdef PNG_WRITE_pHYs_SUPPORTED
 259:fltk-1.3.4-1/png/pngwrite.c ****    if ((info_ptr->valid & PNG_INFO_pHYs) != 0)
 260:fltk-1.3.4-1/png/pngwrite.c ****       png_write_pHYs(png_ptr, info_ptr->x_pixels_per_unit,
 261:fltk-1.3.4-1/png/pngwrite.c ****           info_ptr->y_pixels_per_unit, info_ptr->phys_unit_type);
 262:fltk-1.3.4-1/png/pngwrite.c **** #endif /* pHYs */
 263:fltk-1.3.4-1/png/pngwrite.c **** 
 264:fltk-1.3.4-1/png/pngwrite.c **** #ifdef PNG_WRITE_tIME_SUPPORTED
 265:fltk-1.3.4-1/png/pngwrite.c ****    if ((info_ptr->valid & PNG_INFO_tIME) != 0)
 266:fltk-1.3.4-1/png/pngwrite.c ****    {
 267:fltk-1.3.4-1/png/pngwrite.c ****       png_write_tIME(png_ptr, &(info_ptr->mod_time));
 268:fltk-1.3.4-1/png/pngwrite.c ****       png_ptr->mode |= PNG_WROTE_tIME;
 269:fltk-1.3.4-1/png/pngwrite.c ****    }
 270:fltk-1.3.4-1/png/pngwrite.c **** #endif /* tIME */
 271:fltk-1.3.4-1/png/pngwrite.c **** 
 272:fltk-1.3.4-1/png/pngwrite.c **** #ifdef PNG_WRITE_sPLT_SUPPORTED
 273:fltk-1.3.4-1/png/pngwrite.c ****    if ((info_ptr->valid & PNG_INFO_sPLT) != 0)
 274:fltk-1.3.4-1/png/pngwrite.c ****       for (i = 0; i < (int)info_ptr->splt_palettes_num; i++)
 275:fltk-1.3.4-1/png/pngwrite.c ****          png_write_sPLT(png_ptr, info_ptr->splt_palettes + i);
 276:fltk-1.3.4-1/png/pngwrite.c **** #endif /* sPLT */
 277:fltk-1.3.4-1/png/pngwrite.c **** 
 278:fltk-1.3.4-1/png/pngwrite.c **** #ifdef PNG_WRITE_TEXT_SUPPORTED
 279:fltk-1.3.4-1/png/pngwrite.c ****    /* Check to see if we need to write text chunks */
 280:fltk-1.3.4-1/png/pngwrite.c ****    for (i = 0; i < info_ptr->num_text; i++)
 281:fltk-1.3.4-1/png/pngwrite.c ****    {
 282:fltk-1.3.4-1/png/pngwrite.c ****       png_debug2(2, "Writing header text chunk %d, type %d", i,
 283:fltk-1.3.4-1/png/pngwrite.c ****           info_ptr->text[i].compression);
 284:fltk-1.3.4-1/png/pngwrite.c ****       /* An internationalized chunk? */
 285:fltk-1.3.4-1/png/pngwrite.c ****       if (info_ptr->text[i].compression > 0)
 286:fltk-1.3.4-1/png/pngwrite.c ****       {
 287:fltk-1.3.4-1/png/pngwrite.c **** #ifdef PNG_WRITE_iTXt_SUPPORTED
 288:fltk-1.3.4-1/png/pngwrite.c ****          /* Write international chunk */
 289:fltk-1.3.4-1/png/pngwrite.c ****          png_write_iTXt(png_ptr,
 290:fltk-1.3.4-1/png/pngwrite.c ****              info_ptr->text[i].compression,
 291:fltk-1.3.4-1/png/pngwrite.c ****              info_ptr->text[i].key,
 292:fltk-1.3.4-1/png/pngwrite.c ****              info_ptr->text[i].lang,
 293:fltk-1.3.4-1/png/pngwrite.c ****              info_ptr->text[i].lang_key,
 294:fltk-1.3.4-1/png/pngwrite.c ****              info_ptr->text[i].text);
 295:fltk-1.3.4-1/png/pngwrite.c ****          /* Mark this chunk as written */
 296:fltk-1.3.4-1/png/pngwrite.c ****          if (info_ptr->text[i].compression == PNG_TEXT_COMPRESSION_NONE)
 297:fltk-1.3.4-1/png/pngwrite.c ****             info_ptr->text[i].compression = PNG_TEXT_COMPRESSION_NONE_WR;
 298:fltk-1.3.4-1/png/pngwrite.c ****          else
 299:fltk-1.3.4-1/png/pngwrite.c ****             info_ptr->text[i].compression = PNG_TEXT_COMPRESSION_zTXt_WR;
 300:fltk-1.3.4-1/png/pngwrite.c **** #else
 301:fltk-1.3.4-1/png/pngwrite.c ****          png_warning(png_ptr, "Unable to write international text");
 302:fltk-1.3.4-1/png/pngwrite.c **** #endif
 303:fltk-1.3.4-1/png/pngwrite.c ****       }
 304:fltk-1.3.4-1/png/pngwrite.c **** 
 305:fltk-1.3.4-1/png/pngwrite.c ****       /* If we want a compressed text chunk */
 306:fltk-1.3.4-1/png/pngwrite.c ****       else if (info_ptr->text[i].compression == PNG_TEXT_COMPRESSION_zTXt)
 307:fltk-1.3.4-1/png/pngwrite.c ****       {
 308:fltk-1.3.4-1/png/pngwrite.c **** #ifdef PNG_WRITE_zTXt_SUPPORTED
 309:fltk-1.3.4-1/png/pngwrite.c ****          /* Write compressed chunk */
 310:fltk-1.3.4-1/png/pngwrite.c ****          png_write_zTXt(png_ptr, info_ptr->text[i].key,
 311:fltk-1.3.4-1/png/pngwrite.c ****              info_ptr->text[i].text, info_ptr->text[i].compression);
 312:fltk-1.3.4-1/png/pngwrite.c ****          /* Mark this chunk as written */
 313:fltk-1.3.4-1/png/pngwrite.c ****          info_ptr->text[i].compression = PNG_TEXT_COMPRESSION_zTXt_WR;
 314:fltk-1.3.4-1/png/pngwrite.c **** #else
 315:fltk-1.3.4-1/png/pngwrite.c ****          png_warning(png_ptr, "Unable to write compressed text");
 316:fltk-1.3.4-1/png/pngwrite.c **** #endif
 317:fltk-1.3.4-1/png/pngwrite.c ****       }
 318:fltk-1.3.4-1/png/pngwrite.c **** 
 319:fltk-1.3.4-1/png/pngwrite.c ****       else if (info_ptr->text[i].compression == PNG_TEXT_COMPRESSION_NONE)
 320:fltk-1.3.4-1/png/pngwrite.c ****       {
 321:fltk-1.3.4-1/png/pngwrite.c **** #ifdef PNG_WRITE_tEXt_SUPPORTED
 322:fltk-1.3.4-1/png/pngwrite.c ****          /* Write uncompressed chunk */
 323:fltk-1.3.4-1/png/pngwrite.c ****          png_write_tEXt(png_ptr, info_ptr->text[i].key,
 324:fltk-1.3.4-1/png/pngwrite.c ****              info_ptr->text[i].text,
 325:fltk-1.3.4-1/png/pngwrite.c ****              0);
 326:fltk-1.3.4-1/png/pngwrite.c ****          /* Mark this chunk as written */
 327:fltk-1.3.4-1/png/pngwrite.c ****          info_ptr->text[i].compression = PNG_TEXT_COMPRESSION_NONE_WR;
 328:fltk-1.3.4-1/png/pngwrite.c **** #else
 329:fltk-1.3.4-1/png/pngwrite.c ****          /* Can't get here */
 330:fltk-1.3.4-1/png/pngwrite.c ****          png_warning(png_ptr, "Unable to write uncompressed text");
 331:fltk-1.3.4-1/png/pngwrite.c **** #endif
 332:fltk-1.3.4-1/png/pngwrite.c ****       }
 333:fltk-1.3.4-1/png/pngwrite.c ****    }
 334:fltk-1.3.4-1/png/pngwrite.c **** #endif /* tEXt */
 335:fltk-1.3.4-1/png/pngwrite.c **** 
 336:fltk-1.3.4-1/png/pngwrite.c **** #ifdef PNG_WRITE_UNKNOWN_CHUNKS_SUPPORTED
 337:fltk-1.3.4-1/png/pngwrite.c ****    write_unknown_chunks(png_ptr, info_ptr, PNG_HAVE_PLTE);
 338:fltk-1.3.4-1/png/pngwrite.c **** #endif
 339:fltk-1.3.4-1/png/pngwrite.c **** }
 340:fltk-1.3.4-1/png/pngwrite.c **** 
 341:fltk-1.3.4-1/png/pngwrite.c **** /* Writes the end of the PNG file.  If you don't want to write comments or
 342:fltk-1.3.4-1/png/pngwrite.c ****  * time information, you can pass NULL for info.  If you already wrote these
 343:fltk-1.3.4-1/png/pngwrite.c ****  * in png_write_info(), do not write them again here.  If you have long
 344:fltk-1.3.4-1/png/pngwrite.c ****  * comments, I suggest writing them here, and compressing them.
 345:fltk-1.3.4-1/png/pngwrite.c ****  */
 346:fltk-1.3.4-1/png/pngwrite.c **** void PNGAPI
 347:fltk-1.3.4-1/png/pngwrite.c **** png_write_end(png_structrp png_ptr, png_inforp info_ptr)
 348:fltk-1.3.4-1/png/pngwrite.c **** {
 349:fltk-1.3.4-1/png/pngwrite.c ****    png_debug(1, "in png_write_end");
 350:fltk-1.3.4-1/png/pngwrite.c **** 
 351:fltk-1.3.4-1/png/pngwrite.c ****    if (png_ptr == NULL)
 352:fltk-1.3.4-1/png/pngwrite.c ****       return;
 353:fltk-1.3.4-1/png/pngwrite.c **** 
 354:fltk-1.3.4-1/png/pngwrite.c ****    if ((png_ptr->mode & PNG_HAVE_IDAT) == 0)
 355:fltk-1.3.4-1/png/pngwrite.c ****       png_error(png_ptr, "No IDATs written into file");
 356:fltk-1.3.4-1/png/pngwrite.c **** 
 357:fltk-1.3.4-1/png/pngwrite.c **** #ifdef PNG_WRITE_CHECK_FOR_INVALID_INDEX_SUPPORTED
 358:fltk-1.3.4-1/png/pngwrite.c ****    if (png_ptr->num_palette_max > png_ptr->num_palette)
 359:fltk-1.3.4-1/png/pngwrite.c ****       png_benign_error(png_ptr, "Wrote palette index exceeding num_palette");
 360:fltk-1.3.4-1/png/pngwrite.c **** #endif
 361:fltk-1.3.4-1/png/pngwrite.c **** 
 362:fltk-1.3.4-1/png/pngwrite.c ****    /* See if user wants us to write information chunks */
 363:fltk-1.3.4-1/png/pngwrite.c ****    if (info_ptr != NULL)
 364:fltk-1.3.4-1/png/pngwrite.c ****    {
 365:fltk-1.3.4-1/png/pngwrite.c **** #ifdef PNG_WRITE_TEXT_SUPPORTED
 366:fltk-1.3.4-1/png/pngwrite.c ****       int i; /* local index variable */
 367:fltk-1.3.4-1/png/pngwrite.c **** #endif
 368:fltk-1.3.4-1/png/pngwrite.c **** #ifdef PNG_WRITE_tIME_SUPPORTED
 369:fltk-1.3.4-1/png/pngwrite.c ****       /* Check to see if user has supplied a time chunk */
 370:fltk-1.3.4-1/png/pngwrite.c ****       if ((info_ptr->valid & PNG_INFO_tIME) != 0 &&
 371:fltk-1.3.4-1/png/pngwrite.c ****           (png_ptr->mode & PNG_WROTE_tIME) == 0)
 372:fltk-1.3.4-1/png/pngwrite.c ****          png_write_tIME(png_ptr, &(info_ptr->mod_time));
 373:fltk-1.3.4-1/png/pngwrite.c **** 
 374:fltk-1.3.4-1/png/pngwrite.c **** #endif
 375:fltk-1.3.4-1/png/pngwrite.c **** #ifdef PNG_WRITE_TEXT_SUPPORTED
 376:fltk-1.3.4-1/png/pngwrite.c ****       /* Loop through comment chunks */
 377:fltk-1.3.4-1/png/pngwrite.c ****       for (i = 0; i < info_ptr->num_text; i++)
 378:fltk-1.3.4-1/png/pngwrite.c ****       {
 379:fltk-1.3.4-1/png/pngwrite.c ****          png_debug2(2, "Writing trailer text chunk %d, type %d", i,
 380:fltk-1.3.4-1/png/pngwrite.c ****             info_ptr->text[i].compression);
 381:fltk-1.3.4-1/png/pngwrite.c ****          /* An internationalized chunk? */
 382:fltk-1.3.4-1/png/pngwrite.c ****          if (info_ptr->text[i].compression > 0)
 383:fltk-1.3.4-1/png/pngwrite.c ****          {
 384:fltk-1.3.4-1/png/pngwrite.c **** #ifdef PNG_WRITE_iTXt_SUPPORTED
 385:fltk-1.3.4-1/png/pngwrite.c ****             /* Write international chunk */
 386:fltk-1.3.4-1/png/pngwrite.c ****             png_write_iTXt(png_ptr,
 387:fltk-1.3.4-1/png/pngwrite.c ****                 info_ptr->text[i].compression,
 388:fltk-1.3.4-1/png/pngwrite.c ****                 info_ptr->text[i].key,
 389:fltk-1.3.4-1/png/pngwrite.c ****                 info_ptr->text[i].lang,
 390:fltk-1.3.4-1/png/pngwrite.c ****                 info_ptr->text[i].lang_key,
 391:fltk-1.3.4-1/png/pngwrite.c ****                 info_ptr->text[i].text);
 392:fltk-1.3.4-1/png/pngwrite.c ****             /* Mark this chunk as written */
 393:fltk-1.3.4-1/png/pngwrite.c ****             if (info_ptr->text[i].compression == PNG_TEXT_COMPRESSION_NONE)
 394:fltk-1.3.4-1/png/pngwrite.c ****                info_ptr->text[i].compression = PNG_TEXT_COMPRESSION_NONE_WR;
 395:fltk-1.3.4-1/png/pngwrite.c ****             else
 396:fltk-1.3.4-1/png/pngwrite.c ****                info_ptr->text[i].compression = PNG_TEXT_COMPRESSION_zTXt_WR;
 397:fltk-1.3.4-1/png/pngwrite.c **** #else
 398:fltk-1.3.4-1/png/pngwrite.c ****             png_warning(png_ptr, "Unable to write international text");
 399:fltk-1.3.4-1/png/pngwrite.c **** #endif
 400:fltk-1.3.4-1/png/pngwrite.c ****          }
 401:fltk-1.3.4-1/png/pngwrite.c **** 
 402:fltk-1.3.4-1/png/pngwrite.c ****          else if (info_ptr->text[i].compression >= PNG_TEXT_COMPRESSION_zTXt)
 403:fltk-1.3.4-1/png/pngwrite.c ****          {
 404:fltk-1.3.4-1/png/pngwrite.c **** #ifdef PNG_WRITE_zTXt_SUPPORTED
 405:fltk-1.3.4-1/png/pngwrite.c ****             /* Write compressed chunk */
 406:fltk-1.3.4-1/png/pngwrite.c ****             png_write_zTXt(png_ptr, info_ptr->text[i].key,
 407:fltk-1.3.4-1/png/pngwrite.c ****                 info_ptr->text[i].text, info_ptr->text[i].compression);
 408:fltk-1.3.4-1/png/pngwrite.c ****             /* Mark this chunk as written */
 409:fltk-1.3.4-1/png/pngwrite.c ****             info_ptr->text[i].compression = PNG_TEXT_COMPRESSION_zTXt_WR;
 410:fltk-1.3.4-1/png/pngwrite.c **** #else
 411:fltk-1.3.4-1/png/pngwrite.c ****             png_warning(png_ptr, "Unable to write compressed text");
 412:fltk-1.3.4-1/png/pngwrite.c **** #endif
 413:fltk-1.3.4-1/png/pngwrite.c ****          }
 414:fltk-1.3.4-1/png/pngwrite.c **** 
 415:fltk-1.3.4-1/png/pngwrite.c ****          else if (info_ptr->text[i].compression == PNG_TEXT_COMPRESSION_NONE)
 416:fltk-1.3.4-1/png/pngwrite.c ****          {
 417:fltk-1.3.4-1/png/pngwrite.c **** #ifdef PNG_WRITE_tEXt_SUPPORTED
 418:fltk-1.3.4-1/png/pngwrite.c ****             /* Write uncompressed chunk */
 419:fltk-1.3.4-1/png/pngwrite.c ****             png_write_tEXt(png_ptr, info_ptr->text[i].key,
 420:fltk-1.3.4-1/png/pngwrite.c ****                 info_ptr->text[i].text, 0);
 421:fltk-1.3.4-1/png/pngwrite.c ****             /* Mark this chunk as written */
 422:fltk-1.3.4-1/png/pngwrite.c ****             info_ptr->text[i].compression = PNG_TEXT_COMPRESSION_NONE_WR;
 423:fltk-1.3.4-1/png/pngwrite.c **** #else
 424:fltk-1.3.4-1/png/pngwrite.c ****             png_warning(png_ptr, "Unable to write uncompressed text");
 425:fltk-1.3.4-1/png/pngwrite.c **** #endif
 426:fltk-1.3.4-1/png/pngwrite.c ****          }
 427:fltk-1.3.4-1/png/pngwrite.c ****       }
 428:fltk-1.3.4-1/png/pngwrite.c **** #endif
 429:fltk-1.3.4-1/png/pngwrite.c **** #ifdef PNG_WRITE_UNKNOWN_CHUNKS_SUPPORTED
 430:fltk-1.3.4-1/png/pngwrite.c ****       write_unknown_chunks(png_ptr, info_ptr, PNG_AFTER_IDAT);
 431:fltk-1.3.4-1/png/pngwrite.c **** #endif
 432:fltk-1.3.4-1/png/pngwrite.c ****    }
 433:fltk-1.3.4-1/png/pngwrite.c **** 
 434:fltk-1.3.4-1/png/pngwrite.c ****    png_ptr->mode |= PNG_AFTER_IDAT;
 435:fltk-1.3.4-1/png/pngwrite.c **** 
 436:fltk-1.3.4-1/png/pngwrite.c ****    /* Write end of PNG file */
 437:fltk-1.3.4-1/png/pngwrite.c ****    png_write_IEND(png_ptr);
 438:fltk-1.3.4-1/png/pngwrite.c **** 
 439:fltk-1.3.4-1/png/pngwrite.c ****    /* This flush, added in libpng-1.0.8, removed from libpng-1.0.9beta03,
 440:fltk-1.3.4-1/png/pngwrite.c ****     * and restored again in libpng-1.2.30, may cause some applications that
 441:fltk-1.3.4-1/png/pngwrite.c ****     * do not set png_ptr->output_flush_fn to crash.  If your application
 442:fltk-1.3.4-1/png/pngwrite.c ****     * experiences a problem, please try building libpng with
 443:fltk-1.3.4-1/png/pngwrite.c ****     * PNG_WRITE_FLUSH_AFTER_IEND_SUPPORTED defined, and report the event to
 444:fltk-1.3.4-1/png/pngwrite.c ****     * png-mng-implement at lists.sf.net .
 445:fltk-1.3.4-1/png/pngwrite.c ****     */
 446:fltk-1.3.4-1/png/pngwrite.c **** #ifdef PNG_WRITE_FLUSH_SUPPORTED
 447:fltk-1.3.4-1/png/pngwrite.c **** #  ifdef PNG_WRITE_FLUSH_AFTER_IEND_SUPPORTED
 448:fltk-1.3.4-1/png/pngwrite.c ****    png_flush(png_ptr);
 449:fltk-1.3.4-1/png/pngwrite.c **** #  endif
 450:fltk-1.3.4-1/png/pngwrite.c **** #endif
 451:fltk-1.3.4-1/png/pngwrite.c **** }
 452:fltk-1.3.4-1/png/pngwrite.c **** 
 453:fltk-1.3.4-1/png/pngwrite.c **** #ifdef PNG_CONVERT_tIME_SUPPORTED
 454:fltk-1.3.4-1/png/pngwrite.c **** void PNGAPI
 455:fltk-1.3.4-1/png/pngwrite.c **** png_convert_from_struct_tm(png_timep ptime, PNG_CONST struct tm * ttime)
 456:fltk-1.3.4-1/png/pngwrite.c **** {
 457:fltk-1.3.4-1/png/pngwrite.c ****    png_debug(1, "in png_convert_from_struct_tm");
 458:fltk-1.3.4-1/png/pngwrite.c **** 
 459:fltk-1.3.4-1/png/pngwrite.c ****    ptime->year = (png_uint_16)(1900 + ttime->tm_year);
 460:fltk-1.3.4-1/png/pngwrite.c ****    ptime->month = (png_byte)(ttime->tm_mon + 1);
 461:fltk-1.3.4-1/png/pngwrite.c ****    ptime->day = (png_byte)ttime->tm_mday;
 462:fltk-1.3.4-1/png/pngwrite.c ****    ptime->hour = (png_byte)ttime->tm_hour;
 463:fltk-1.3.4-1/png/pngwrite.c ****    ptime->minute = (png_byte)ttime->tm_min;
 464:fltk-1.3.4-1/png/pngwrite.c ****    ptime->second = (png_byte)ttime->tm_sec;
 465:fltk-1.3.4-1/png/pngwrite.c **** }
 466:fltk-1.3.4-1/png/pngwrite.c **** 
 467:fltk-1.3.4-1/png/pngwrite.c **** void PNGAPI
 468:fltk-1.3.4-1/png/pngwrite.c **** png_convert_from_time_t(png_timep ptime, time_t ttime)
 469:fltk-1.3.4-1/png/pngwrite.c **** {
 470:fltk-1.3.4-1/png/pngwrite.c ****    struct tm *tbuf;
 471:fltk-1.3.4-1/png/pngwrite.c **** 
 472:fltk-1.3.4-1/png/pngwrite.c ****    png_debug(1, "in png_convert_from_time_t");
 473:fltk-1.3.4-1/png/pngwrite.c **** 
 474:fltk-1.3.4-1/png/pngwrite.c ****    tbuf = gmtime(&ttime);
 475:fltk-1.3.4-1/png/pngwrite.c ****    png_convert_from_struct_tm(ptime, tbuf);
 476:fltk-1.3.4-1/png/pngwrite.c **** }
 477:fltk-1.3.4-1/png/pngwrite.c **** #endif
 478:fltk-1.3.4-1/png/pngwrite.c **** 
 479:fltk-1.3.4-1/png/pngwrite.c **** /* Initialize png_ptr structure, and allocate any memory needed */
 480:fltk-1.3.4-1/png/pngwrite.c **** PNG_FUNCTION(png_structp,PNGAPI
 481:fltk-1.3.4-1/png/pngwrite.c **** png_create_write_struct,(png_const_charp user_png_ver, png_voidp error_ptr,
 482:fltk-1.3.4-1/png/pngwrite.c ****     png_error_ptr error_fn, png_error_ptr warn_fn),PNG_ALLOCATED)
 483:fltk-1.3.4-1/png/pngwrite.c **** {
 484:fltk-1.3.4-1/png/pngwrite.c **** #ifndef PNG_USER_MEM_SUPPORTED
 485:fltk-1.3.4-1/png/pngwrite.c ****    png_structrp png_ptr = png_create_png_struct(user_png_ver, error_ptr,
 486:fltk-1.3.4-1/png/pngwrite.c ****        error_fn, warn_fn, NULL, NULL, NULL);
 487:fltk-1.3.4-1/png/pngwrite.c **** #else
 488:fltk-1.3.4-1/png/pngwrite.c ****    return png_create_write_struct_2(user_png_ver, error_ptr, error_fn,
 489:fltk-1.3.4-1/png/pngwrite.c ****        warn_fn, NULL, NULL, NULL);
 490:fltk-1.3.4-1/png/pngwrite.c **** }
 491:fltk-1.3.4-1/png/pngwrite.c **** 
 492:fltk-1.3.4-1/png/pngwrite.c **** /* Alternate initialize png_ptr structure, and allocate any memory needed */
 493:fltk-1.3.4-1/png/pngwrite.c **** PNG_FUNCTION(png_structp,PNGAPI
 494:fltk-1.3.4-1/png/pngwrite.c **** png_create_write_struct_2,(png_const_charp user_png_ver, png_voidp error_ptr,
 495:fltk-1.3.4-1/png/pngwrite.c ****     png_error_ptr error_fn, png_error_ptr warn_fn, png_voidp mem_ptr,
 496:fltk-1.3.4-1/png/pngwrite.c ****     png_malloc_ptr malloc_fn, png_free_ptr free_fn),PNG_ALLOCATED)
 497:fltk-1.3.4-1/png/pngwrite.c **** {
 498:fltk-1.3.4-1/png/pngwrite.c ****    png_structrp png_ptr = png_create_png_struct(user_png_ver, error_ptr,
 499:fltk-1.3.4-1/png/pngwrite.c ****        error_fn, warn_fn, mem_ptr, malloc_fn, free_fn);
 500:fltk-1.3.4-1/png/pngwrite.c **** #endif /* USER_MEM */
 501:fltk-1.3.4-1/png/pngwrite.c ****    if (png_ptr != NULL)
 502:fltk-1.3.4-1/png/pngwrite.c ****    {
 503:fltk-1.3.4-1/png/pngwrite.c ****       /* Set the zlib control values to defaults; they can be overridden by the
 504:fltk-1.3.4-1/png/pngwrite.c ****        * application after the struct has been created.
 505:fltk-1.3.4-1/png/pngwrite.c ****        */
 506:fltk-1.3.4-1/png/pngwrite.c ****       png_ptr->zbuffer_size = PNG_ZBUF_SIZE;
 507:fltk-1.3.4-1/png/pngwrite.c **** 
 508:fltk-1.3.4-1/png/pngwrite.c ****       /* The 'zlib_strategy' setting is irrelevant because png_default_claim in
 509:fltk-1.3.4-1/png/pngwrite.c ****        * pngwutil.c defaults it according to whether or not filters will be
 510:fltk-1.3.4-1/png/pngwrite.c ****        * used, and ignores this setting.
 511:fltk-1.3.4-1/png/pngwrite.c ****        */
 512:fltk-1.3.4-1/png/pngwrite.c ****       png_ptr->zlib_strategy = PNG_Z_DEFAULT_STRATEGY;
 513:fltk-1.3.4-1/png/pngwrite.c ****       png_ptr->zlib_level = PNG_Z_DEFAULT_COMPRESSION;
 514:fltk-1.3.4-1/png/pngwrite.c ****       png_ptr->zlib_mem_level = 8;
 515:fltk-1.3.4-1/png/pngwrite.c ****       png_ptr->zlib_window_bits = 15;
 516:fltk-1.3.4-1/png/pngwrite.c ****       png_ptr->zlib_method = 8;
 517:fltk-1.3.4-1/png/pngwrite.c **** 
 518:fltk-1.3.4-1/png/pngwrite.c **** #ifdef PNG_WRITE_COMPRESSED_TEXT_SUPPORTED
 519:fltk-1.3.4-1/png/pngwrite.c ****       png_ptr->zlib_text_strategy = PNG_TEXT_Z_DEFAULT_STRATEGY;
 520:fltk-1.3.4-1/png/pngwrite.c ****       png_ptr->zlib_text_level = PNG_TEXT_Z_DEFAULT_COMPRESSION;
 521:fltk-1.3.4-1/png/pngwrite.c ****       png_ptr->zlib_text_mem_level = 8;
 522:fltk-1.3.4-1/png/pngwrite.c ****       png_ptr->zlib_text_window_bits = 15;
 523:fltk-1.3.4-1/png/pngwrite.c ****       png_ptr->zlib_text_method = 8;
 524:fltk-1.3.4-1/png/pngwrite.c **** #endif /* WRITE_COMPRESSED_TEXT */
 525:fltk-1.3.4-1/png/pngwrite.c **** 
 526:fltk-1.3.4-1/png/pngwrite.c ****       /* This is a highly dubious configuration option; by default it is off,
 527:fltk-1.3.4-1/png/pngwrite.c ****        * but it may be appropriate for private builds that are testing
 528:fltk-1.3.4-1/png/pngwrite.c ****        * extensions not conformant to the current specification, or of
 529:fltk-1.3.4-1/png/pngwrite.c ****        * applications that must not fail to write at all costs!
 530:fltk-1.3.4-1/png/pngwrite.c ****        */
 531:fltk-1.3.4-1/png/pngwrite.c **** #ifdef PNG_BENIGN_WRITE_ERRORS_SUPPORTED
 532:fltk-1.3.4-1/png/pngwrite.c ****       /* In stable builds only warn if an application error can be completely
 533:fltk-1.3.4-1/png/pngwrite.c ****        * handled.
 534:fltk-1.3.4-1/png/pngwrite.c ****        */
 535:fltk-1.3.4-1/png/pngwrite.c ****       png_ptr->flags |= PNG_FLAG_BENIGN_ERRORS_WARN;
 536:fltk-1.3.4-1/png/pngwrite.c **** #endif
 537:fltk-1.3.4-1/png/pngwrite.c **** 
 538:fltk-1.3.4-1/png/pngwrite.c ****       /* App warnings are warnings in release (or release candidate) builds but
 539:fltk-1.3.4-1/png/pngwrite.c ****        * are errors during development.
 540:fltk-1.3.4-1/png/pngwrite.c ****        */
 541:fltk-1.3.4-1/png/pngwrite.c **** #if PNG_LIBPNG_BUILD_BASE_TYPE >= PNG_LIBPNG_BUILD_RC
 542:fltk-1.3.4-1/png/pngwrite.c ****       png_ptr->flags |= PNG_FLAG_APP_WARNINGS_WARN;
 543:fltk-1.3.4-1/png/pngwrite.c **** #endif
 544:fltk-1.3.4-1/png/pngwrite.c **** 
 545:fltk-1.3.4-1/png/pngwrite.c ****       /* TODO: delay this, it can be done in png_init_io() (if the app doesn't
 546:fltk-1.3.4-1/png/pngwrite.c ****        * do it itself) avoiding setting the default function if it is not
 547:fltk-1.3.4-1/png/pngwrite.c ****        * required.
 548:fltk-1.3.4-1/png/pngwrite.c ****        */
 549:fltk-1.3.4-1/png/pngwrite.c ****       png_set_write_fn(png_ptr, NULL, NULL, NULL);
 550:fltk-1.3.4-1/png/pngwrite.c ****    }
 551:fltk-1.3.4-1/png/pngwrite.c **** 
 552:fltk-1.3.4-1/png/pngwrite.c ****    return png_ptr;
 553:fltk-1.3.4-1/png/pngwrite.c **** }
 554:fltk-1.3.4-1/png/pngwrite.c **** 
 555:fltk-1.3.4-1/png/pngwrite.c **** 
 556:fltk-1.3.4-1/png/pngwrite.c **** /* Write a few rows of image data.  If the image is interlaced,
 557:fltk-1.3.4-1/png/pngwrite.c ****  * either you will have to write the 7 sub images, or, if you
 558:fltk-1.3.4-1/png/pngwrite.c ****  * have called png_set_interlace_handling(), you will have to
 559:fltk-1.3.4-1/png/pngwrite.c ****  * "write" the image seven times.
 560:fltk-1.3.4-1/png/pngwrite.c ****  */
 561:fltk-1.3.4-1/png/pngwrite.c **** void PNGAPI
 562:fltk-1.3.4-1/png/pngwrite.c **** png_write_rows(png_structrp png_ptr, png_bytepp row,
 563:fltk-1.3.4-1/png/pngwrite.c ****     png_uint_32 num_rows)
 564:fltk-1.3.4-1/png/pngwrite.c **** {
 565:fltk-1.3.4-1/png/pngwrite.c ****    png_uint_32 i; /* row counter */
 566:fltk-1.3.4-1/png/pngwrite.c ****    png_bytepp rp; /* row pointer */
 567:fltk-1.3.4-1/png/pngwrite.c **** 
 568:fltk-1.3.4-1/png/pngwrite.c ****    png_debug(1, "in png_write_rows");
 569:fltk-1.3.4-1/png/pngwrite.c **** 
 570:fltk-1.3.4-1/png/pngwrite.c ****    if (png_ptr == NULL)
 571:fltk-1.3.4-1/png/pngwrite.c ****       return;
 572:fltk-1.3.4-1/png/pngwrite.c **** 
 573:fltk-1.3.4-1/png/pngwrite.c ****    /* Loop through the rows */
 574:fltk-1.3.4-1/png/pngwrite.c ****    for (i = 0, rp = row; i < num_rows; i++, rp++)
 575:fltk-1.3.4-1/png/pngwrite.c ****    {
 576:fltk-1.3.4-1/png/pngwrite.c ****       png_write_row(png_ptr, *rp);
 577:fltk-1.3.4-1/png/pngwrite.c ****    }
 578:fltk-1.3.4-1/png/pngwrite.c **** }
 579:fltk-1.3.4-1/png/pngwrite.c **** 
 580:fltk-1.3.4-1/png/pngwrite.c **** /* Write the image.  You only need to call this function once, even
 581:fltk-1.3.4-1/png/pngwrite.c ****  * if you are writing an interlaced image.
 582:fltk-1.3.4-1/png/pngwrite.c ****  */
 583:fltk-1.3.4-1/png/pngwrite.c **** void PNGAPI
 584:fltk-1.3.4-1/png/pngwrite.c **** png_write_image(png_structrp png_ptr, png_bytepp image)
 585:fltk-1.3.4-1/png/pngwrite.c **** {
 586:fltk-1.3.4-1/png/pngwrite.c ****    png_uint_32 i; /* row index */
 587:fltk-1.3.4-1/png/pngwrite.c ****    int pass, num_pass; /* pass variables */
 588:fltk-1.3.4-1/png/pngwrite.c ****    png_bytepp rp; /* points to current row */
 589:fltk-1.3.4-1/png/pngwrite.c **** 
 590:fltk-1.3.4-1/png/pngwrite.c ****    if (png_ptr == NULL)
 591:fltk-1.3.4-1/png/pngwrite.c ****       return;
 592:fltk-1.3.4-1/png/pngwrite.c **** 
 593:fltk-1.3.4-1/png/pngwrite.c ****    png_debug(1, "in png_write_image");
 594:fltk-1.3.4-1/png/pngwrite.c **** 
 595:fltk-1.3.4-1/png/pngwrite.c **** #ifdef PNG_WRITE_INTERLACING_SUPPORTED
 596:fltk-1.3.4-1/png/pngwrite.c ****    /* Initialize interlace handling.  If image is not interlaced,
 597:fltk-1.3.4-1/png/pngwrite.c ****     * this will set pass to 1
 598:fltk-1.3.4-1/png/pngwrite.c ****     */
 599:fltk-1.3.4-1/png/pngwrite.c ****    num_pass = png_set_interlace_handling(png_ptr);
 600:fltk-1.3.4-1/png/pngwrite.c **** #else
 601:fltk-1.3.4-1/png/pngwrite.c ****    num_pass = 1;
 602:fltk-1.3.4-1/png/pngwrite.c **** #endif
 603:fltk-1.3.4-1/png/pngwrite.c ****    /* Loop through passes */
 604:fltk-1.3.4-1/png/pngwrite.c ****    for (pass = 0; pass < num_pass; pass++)
 605:fltk-1.3.4-1/png/pngwrite.c ****    {
 606:fltk-1.3.4-1/png/pngwrite.c ****       /* Loop through image */
 607:fltk-1.3.4-1/png/pngwrite.c ****       for (i = 0, rp = image; i < png_ptr->height; i++, rp++)
 608:fltk-1.3.4-1/png/pngwrite.c ****       {
 609:fltk-1.3.4-1/png/pngwrite.c ****          png_write_row(png_ptr, *rp);
 610:fltk-1.3.4-1/png/pngwrite.c ****       }
 611:fltk-1.3.4-1/png/pngwrite.c ****    }
 612:fltk-1.3.4-1/png/pngwrite.c **** }
 613:fltk-1.3.4-1/png/pngwrite.c **** 
 614:fltk-1.3.4-1/png/pngwrite.c **** #ifdef PNG_MNG_FEATURES_SUPPORTED
 615:fltk-1.3.4-1/png/pngwrite.c **** /* Performs intrapixel differencing  */
 616:fltk-1.3.4-1/png/pngwrite.c **** static void
 617:fltk-1.3.4-1/png/pngwrite.c **** png_do_write_intrapixel(png_row_infop row_info, png_bytep row)
 618:fltk-1.3.4-1/png/pngwrite.c **** {
 619:fltk-1.3.4-1/png/pngwrite.c ****    png_debug(1, "in png_do_write_intrapixel");
 620:fltk-1.3.4-1/png/pngwrite.c **** 
 621:fltk-1.3.4-1/png/pngwrite.c ****    if ((row_info->color_type & PNG_COLOR_MASK_COLOR) != 0)
 622:fltk-1.3.4-1/png/pngwrite.c ****    {
 623:fltk-1.3.4-1/png/pngwrite.c ****       int bytes_per_pixel;
 624:fltk-1.3.4-1/png/pngwrite.c ****       png_uint_32 row_width = row_info->width;
 625:fltk-1.3.4-1/png/pngwrite.c ****       if (row_info->bit_depth == 8)
 626:fltk-1.3.4-1/png/pngwrite.c ****       {
 627:fltk-1.3.4-1/png/pngwrite.c ****          png_bytep rp;
 628:fltk-1.3.4-1/png/pngwrite.c ****          png_uint_32 i;
 629:fltk-1.3.4-1/png/pngwrite.c **** 
 630:fltk-1.3.4-1/png/pngwrite.c ****          if (row_info->color_type == PNG_COLOR_TYPE_RGB)
 631:fltk-1.3.4-1/png/pngwrite.c ****             bytes_per_pixel = 3;
 632:fltk-1.3.4-1/png/pngwrite.c **** 
 633:fltk-1.3.4-1/png/pngwrite.c ****          else if (row_info->color_type == PNG_COLOR_TYPE_RGB_ALPHA)
 634:fltk-1.3.4-1/png/pngwrite.c ****             bytes_per_pixel = 4;
 635:fltk-1.3.4-1/png/pngwrite.c **** 
 636:fltk-1.3.4-1/png/pngwrite.c ****          else
 637:fltk-1.3.4-1/png/pngwrite.c ****             return;
 638:fltk-1.3.4-1/png/pngwrite.c **** 
 639:fltk-1.3.4-1/png/pngwrite.c ****          for (i = 0, rp = row; i < row_width; i++, rp += bytes_per_pixel)
 640:fltk-1.3.4-1/png/pngwrite.c ****          {
 641:fltk-1.3.4-1/png/pngwrite.c ****             *(rp)     = (png_byte)((*rp       - *(rp + 1)) & 0xff);
 642:fltk-1.3.4-1/png/pngwrite.c ****             *(rp + 2) = (png_byte)((*(rp + 2) - *(rp + 1)) & 0xff);
 643:fltk-1.3.4-1/png/pngwrite.c ****          }
 644:fltk-1.3.4-1/png/pngwrite.c ****       }
 645:fltk-1.3.4-1/png/pngwrite.c **** 
 646:fltk-1.3.4-1/png/pngwrite.c **** #ifdef PNG_WRITE_16BIT_SUPPORTED
 647:fltk-1.3.4-1/png/pngwrite.c ****       else if (row_info->bit_depth == 16)
 648:fltk-1.3.4-1/png/pngwrite.c ****       {
 649:fltk-1.3.4-1/png/pngwrite.c ****          png_bytep rp;
 650:fltk-1.3.4-1/png/pngwrite.c ****          png_uint_32 i;
 651:fltk-1.3.4-1/png/pngwrite.c **** 
 652:fltk-1.3.4-1/png/pngwrite.c ****          if (row_info->color_type == PNG_COLOR_TYPE_RGB)
 653:fltk-1.3.4-1/png/pngwrite.c ****             bytes_per_pixel = 6;
 654:fltk-1.3.4-1/png/pngwrite.c **** 
 655:fltk-1.3.4-1/png/pngwrite.c ****          else if (row_info->color_type == PNG_COLOR_TYPE_RGB_ALPHA)
 656:fltk-1.3.4-1/png/pngwrite.c ****             bytes_per_pixel = 8;
 657:fltk-1.3.4-1/png/pngwrite.c **** 
 658:fltk-1.3.4-1/png/pngwrite.c ****          else
 659:fltk-1.3.4-1/png/pngwrite.c ****             return;
 660:fltk-1.3.4-1/png/pngwrite.c **** 
 661:fltk-1.3.4-1/png/pngwrite.c ****          for (i = 0, rp = row; i < row_width; i++, rp += bytes_per_pixel)
 662:fltk-1.3.4-1/png/pngwrite.c ****          {
 663:fltk-1.3.4-1/png/pngwrite.c ****             png_uint_32 s0   = (*(rp    ) << 8) | *(rp + 1);
 664:fltk-1.3.4-1/png/pngwrite.c ****             png_uint_32 s1   = (*(rp + 2) << 8) | *(rp + 3);
 665:fltk-1.3.4-1/png/pngwrite.c ****             png_uint_32 s2   = (*(rp + 4) << 8) | *(rp + 5);
 666:fltk-1.3.4-1/png/pngwrite.c ****             png_uint_32 red  = (png_uint_32)((s0 - s1) & 0xffffL);
 667:fltk-1.3.4-1/png/pngwrite.c ****             png_uint_32 blue = (png_uint_32)((s2 - s1) & 0xffffL);
 668:fltk-1.3.4-1/png/pngwrite.c ****             *(rp    ) = (png_byte)((red >> 8) & 0xff);
 669:fltk-1.3.4-1/png/pngwrite.c ****             *(rp + 1) = (png_byte)(red & 0xff);
 670:fltk-1.3.4-1/png/pngwrite.c ****             *(rp + 4) = (png_byte)((blue >> 8) & 0xff);
 671:fltk-1.3.4-1/png/pngwrite.c ****             *(rp + 5) = (png_byte)(blue & 0xff);
 672:fltk-1.3.4-1/png/pngwrite.c ****          }
 673:fltk-1.3.4-1/png/pngwrite.c ****       }
 674:fltk-1.3.4-1/png/pngwrite.c **** #endif /* WRITE_16BIT */
 675:fltk-1.3.4-1/png/pngwrite.c ****    }
 676:fltk-1.3.4-1/png/pngwrite.c **** }
 677:fltk-1.3.4-1/png/pngwrite.c **** #endif /* MNG_FEATURES */
 678:fltk-1.3.4-1/png/pngwrite.c **** 
 679:fltk-1.3.4-1/png/pngwrite.c **** /* Called by user to write a row of image data */
 680:fltk-1.3.4-1/png/pngwrite.c **** void PNGAPI
 681:fltk-1.3.4-1/png/pngwrite.c **** png_write_row(png_structrp png_ptr, png_const_bytep row)
 682:fltk-1.3.4-1/png/pngwrite.c **** {
 683:fltk-1.3.4-1/png/pngwrite.c ****    /* 1.5.6: moved from png_struct to be a local structure: */
 684:fltk-1.3.4-1/png/pngwrite.c ****    png_row_info row_info;
 685:fltk-1.3.4-1/png/pngwrite.c **** 
 686:fltk-1.3.4-1/png/pngwrite.c ****    if (png_ptr == NULL)
 687:fltk-1.3.4-1/png/pngwrite.c ****       return;
 688:fltk-1.3.4-1/png/pngwrite.c **** 
 689:fltk-1.3.4-1/png/pngwrite.c ****    png_debug2(1, "in png_write_row (row %u, pass %d)",
 690:fltk-1.3.4-1/png/pngwrite.c ****       png_ptr->row_number, png_ptr->pass);
 691:fltk-1.3.4-1/png/pngwrite.c **** 
 692:fltk-1.3.4-1/png/pngwrite.c ****    /* Initialize transformations and other stuff if first time */
 693:fltk-1.3.4-1/png/pngwrite.c ****    if (png_ptr->row_number == 0 && png_ptr->pass == 0)
 694:fltk-1.3.4-1/png/pngwrite.c ****    {
 695:fltk-1.3.4-1/png/pngwrite.c ****       /* Make sure we wrote the header info */
 696:fltk-1.3.4-1/png/pngwrite.c ****       if ((png_ptr->mode & PNG_WROTE_INFO_BEFORE_PLTE) == 0)
 697:fltk-1.3.4-1/png/pngwrite.c ****          png_error(png_ptr,
 698:fltk-1.3.4-1/png/pngwrite.c ****              "png_write_info was never called before png_write_row");
 699:fltk-1.3.4-1/png/pngwrite.c **** 
 700:fltk-1.3.4-1/png/pngwrite.c ****       /* Check for transforms that have been set but were defined out */
 701:fltk-1.3.4-1/png/pngwrite.c **** #if !defined(PNG_WRITE_INVERT_SUPPORTED) && defined(PNG_READ_INVERT_SUPPORTED)
 702:fltk-1.3.4-1/png/pngwrite.c ****       if ((png_ptr->transformations & PNG_INVERT_MONO) != 0)
 703:fltk-1.3.4-1/png/pngwrite.c ****          png_warning(png_ptr, "PNG_WRITE_INVERT_SUPPORTED is not defined");
 704:fltk-1.3.4-1/png/pngwrite.c **** #endif
 705:fltk-1.3.4-1/png/pngwrite.c **** 
 706:fltk-1.3.4-1/png/pngwrite.c **** #if !defined(PNG_WRITE_FILLER_SUPPORTED) && defined(PNG_READ_FILLER_SUPPORTED)
 707:fltk-1.3.4-1/png/pngwrite.c ****       if ((png_ptr->transformations & PNG_FILLER) != 0)
 708:fltk-1.3.4-1/png/pngwrite.c ****          png_warning(png_ptr, "PNG_WRITE_FILLER_SUPPORTED is not defined");
 709:fltk-1.3.4-1/png/pngwrite.c **** #endif
 710:fltk-1.3.4-1/png/pngwrite.c **** #if !defined(PNG_WRITE_PACKSWAP_SUPPORTED) && \
 711:fltk-1.3.4-1/png/pngwrite.c ****     defined(PNG_READ_PACKSWAP_SUPPORTED)
 712:fltk-1.3.4-1/png/pngwrite.c ****       if ((png_ptr->transformations & PNG_PACKSWAP) != 0)
 713:fltk-1.3.4-1/png/pngwrite.c ****          png_warning(png_ptr,
 714:fltk-1.3.4-1/png/pngwrite.c ****              "PNG_WRITE_PACKSWAP_SUPPORTED is not defined");
 715:fltk-1.3.4-1/png/pngwrite.c **** #endif
 716:fltk-1.3.4-1/png/pngwrite.c **** 
 717:fltk-1.3.4-1/png/pngwrite.c **** #if !defined(PNG_WRITE_PACK_SUPPORTED) && defined(PNG_READ_PACK_SUPPORTED)
 718:fltk-1.3.4-1/png/pngwrite.c ****       if ((png_ptr->transformations & PNG_PACK) != 0)
 719:fltk-1.3.4-1/png/pngwrite.c ****          png_warning(png_ptr, "PNG_WRITE_PACK_SUPPORTED is not defined");
 720:fltk-1.3.4-1/png/pngwrite.c **** #endif
 721:fltk-1.3.4-1/png/pngwrite.c **** 
 722:fltk-1.3.4-1/png/pngwrite.c **** #if !defined(PNG_WRITE_SHIFT_SUPPORTED) && defined(PNG_READ_SHIFT_SUPPORTED)
 723:fltk-1.3.4-1/png/pngwrite.c ****       if ((png_ptr->transformations & PNG_SHIFT) != 0)
 724:fltk-1.3.4-1/png/pngwrite.c ****          png_warning(png_ptr, "PNG_WRITE_SHIFT_SUPPORTED is not defined");
 725:fltk-1.3.4-1/png/pngwrite.c **** #endif
 726:fltk-1.3.4-1/png/pngwrite.c **** 
 727:fltk-1.3.4-1/png/pngwrite.c **** #if !defined(PNG_WRITE_BGR_SUPPORTED) && defined(PNG_READ_BGR_SUPPORTED)
 728:fltk-1.3.4-1/png/pngwrite.c ****       if ((png_ptr->transformations & PNG_BGR) != 0)
 729:fltk-1.3.4-1/png/pngwrite.c ****          png_warning(png_ptr, "PNG_WRITE_BGR_SUPPORTED is not defined");
 730:fltk-1.3.4-1/png/pngwrite.c **** #endif
 731:fltk-1.3.4-1/png/pngwrite.c **** 
 732:fltk-1.3.4-1/png/pngwrite.c **** #if !defined(PNG_WRITE_SWAP_SUPPORTED) && defined(PNG_READ_SWAP_SUPPORTED)
 733:fltk-1.3.4-1/png/pngwrite.c ****       if ((png_ptr->transformations & PNG_SWAP_BYTES) != 0)
 734:fltk-1.3.4-1/png/pngwrite.c ****          png_warning(png_ptr, "PNG_WRITE_SWAP_SUPPORTED is not defined");
 735:fltk-1.3.4-1/png/pngwrite.c **** #endif
 736:fltk-1.3.4-1/png/pngwrite.c **** 
 737:fltk-1.3.4-1/png/pngwrite.c ****       png_write_start_row(png_ptr);
 738:fltk-1.3.4-1/png/pngwrite.c ****    }
 739:fltk-1.3.4-1/png/pngwrite.c **** 
 740:fltk-1.3.4-1/png/pngwrite.c **** #ifdef PNG_WRITE_INTERLACING_SUPPORTED
 741:fltk-1.3.4-1/png/pngwrite.c ****    /* If interlaced and not interested in row, return */
 742:fltk-1.3.4-1/png/pngwrite.c ****    if (png_ptr->interlaced != 0 &&
 743:fltk-1.3.4-1/png/pngwrite.c ****        (png_ptr->transformations & PNG_INTERLACE) != 0)
 744:fltk-1.3.4-1/png/pngwrite.c ****    {
 745:fltk-1.3.4-1/png/pngwrite.c ****       switch (png_ptr->pass)
 746:fltk-1.3.4-1/png/pngwrite.c ****       {
 747:fltk-1.3.4-1/png/pngwrite.c ****          case 0:
 748:fltk-1.3.4-1/png/pngwrite.c ****             if ((png_ptr->row_number & 0x07) != 0)
 749:fltk-1.3.4-1/png/pngwrite.c ****             {
 750:fltk-1.3.4-1/png/pngwrite.c ****                png_write_finish_row(png_ptr);
 751:fltk-1.3.4-1/png/pngwrite.c ****                return;
 752:fltk-1.3.4-1/png/pngwrite.c ****             }
 753:fltk-1.3.4-1/png/pngwrite.c ****             break;
 754:fltk-1.3.4-1/png/pngwrite.c **** 
 755:fltk-1.3.4-1/png/pngwrite.c ****          case 1:
 756:fltk-1.3.4-1/png/pngwrite.c ****             if ((png_ptr->row_number & 0x07) != 0 || png_ptr->width < 5)
 757:fltk-1.3.4-1/png/pngwrite.c ****             {
 758:fltk-1.3.4-1/png/pngwrite.c ****                png_write_finish_row(png_ptr);
 759:fltk-1.3.4-1/png/pngwrite.c ****                return;
 760:fltk-1.3.4-1/png/pngwrite.c ****             }
 761:fltk-1.3.4-1/png/pngwrite.c ****             break;
 762:fltk-1.3.4-1/png/pngwrite.c **** 
 763:fltk-1.3.4-1/png/pngwrite.c ****          case 2:
 764:fltk-1.3.4-1/png/pngwrite.c ****             if ((png_ptr->row_number & 0x07) != 4)
 765:fltk-1.3.4-1/png/pngwrite.c ****             {
 766:fltk-1.3.4-1/png/pngwrite.c ****                png_write_finish_row(png_ptr);
 767:fltk-1.3.4-1/png/pngwrite.c ****                return;
 768:fltk-1.3.4-1/png/pngwrite.c ****             }
 769:fltk-1.3.4-1/png/pngwrite.c ****             break;
 770:fltk-1.3.4-1/png/pngwrite.c **** 
 771:fltk-1.3.4-1/png/pngwrite.c ****          case 3:
 772:fltk-1.3.4-1/png/pngwrite.c ****             if ((png_ptr->row_number & 0x03) != 0 || png_ptr->width < 3)
 773:fltk-1.3.4-1/png/pngwrite.c ****             {
 774:fltk-1.3.4-1/png/pngwrite.c ****                png_write_finish_row(png_ptr);
 775:fltk-1.3.4-1/png/pngwrite.c ****                return;
 776:fltk-1.3.4-1/png/pngwrite.c ****             }
 777:fltk-1.3.4-1/png/pngwrite.c ****             break;
 778:fltk-1.3.4-1/png/pngwrite.c **** 
 779:fltk-1.3.4-1/png/pngwrite.c ****          case 4:
 780:fltk-1.3.4-1/png/pngwrite.c ****             if ((png_ptr->row_number & 0x03) != 2)
 781:fltk-1.3.4-1/png/pngwrite.c ****             {
 782:fltk-1.3.4-1/png/pngwrite.c ****                png_write_finish_row(png_ptr);
 783:fltk-1.3.4-1/png/pngwrite.c ****                return;
 784:fltk-1.3.4-1/png/pngwrite.c ****             }
 785:fltk-1.3.4-1/png/pngwrite.c ****             break;
 786:fltk-1.3.4-1/png/pngwrite.c **** 
 787:fltk-1.3.4-1/png/pngwrite.c ****          case 5:
 788:fltk-1.3.4-1/png/pngwrite.c ****             if ((png_ptr->row_number & 0x01) != 0 || png_ptr->width < 2)
 789:fltk-1.3.4-1/png/pngwrite.c ****             {
 790:fltk-1.3.4-1/png/pngwrite.c ****                png_write_finish_row(png_ptr);
 791:fltk-1.3.4-1/png/pngwrite.c ****                return;
 792:fltk-1.3.4-1/png/pngwrite.c ****             }
 793:fltk-1.3.4-1/png/pngwrite.c ****             break;
 794:fltk-1.3.4-1/png/pngwrite.c **** 
 795:fltk-1.3.4-1/png/pngwrite.c ****          case 6:
 796:fltk-1.3.4-1/png/pngwrite.c ****             if ((png_ptr->row_number & 0x01) == 0)
 797:fltk-1.3.4-1/png/pngwrite.c ****             {
 798:fltk-1.3.4-1/png/pngwrite.c ****                png_write_finish_row(png_ptr);
 799:fltk-1.3.4-1/png/pngwrite.c ****                return;
 800:fltk-1.3.4-1/png/pngwrite.c ****             }
 801:fltk-1.3.4-1/png/pngwrite.c ****             break;
 802:fltk-1.3.4-1/png/pngwrite.c **** 
 803:fltk-1.3.4-1/png/pngwrite.c ****          default: /* error: ignore it */
 804:fltk-1.3.4-1/png/pngwrite.c ****             break;
 805:fltk-1.3.4-1/png/pngwrite.c ****       }
 806:fltk-1.3.4-1/png/pngwrite.c ****    }
 807:fltk-1.3.4-1/png/pngwrite.c **** #endif
 808:fltk-1.3.4-1/png/pngwrite.c **** 
 809:fltk-1.3.4-1/png/pngwrite.c ****    /* Set up row info for transformations */
 810:fltk-1.3.4-1/png/pngwrite.c ****    row_info.color_type = png_ptr->color_type;
 811:fltk-1.3.4-1/png/pngwrite.c ****    row_info.width = png_ptr->usr_width;
 812:fltk-1.3.4-1/png/pngwrite.c ****    row_info.channels = png_ptr->usr_channels;
 813:fltk-1.3.4-1/png/pngwrite.c ****    row_info.bit_depth = png_ptr->usr_bit_depth;
 814:fltk-1.3.4-1/png/pngwrite.c ****    row_info.pixel_depth = (png_byte)(row_info.bit_depth * row_info.channels);
 815:fltk-1.3.4-1/png/pngwrite.c ****    row_info.rowbytes = PNG_ROWBYTES(row_info.pixel_depth, row_info.width);
 816:fltk-1.3.4-1/png/pngwrite.c **** 
 817:fltk-1.3.4-1/png/pngwrite.c ****    png_debug1(3, "row_info->color_type = %d", row_info.color_type);
 818:fltk-1.3.4-1/png/pngwrite.c ****    png_debug1(3, "row_info->width = %u", row_info.width);
 819:fltk-1.3.4-1/png/pngwrite.c ****    png_debug1(3, "row_info->channels = %d", row_info.channels);
 820:fltk-1.3.4-1/png/pngwrite.c ****    png_debug1(3, "row_info->bit_depth = %d", row_info.bit_depth);
 821:fltk-1.3.4-1/png/pngwrite.c ****    png_debug1(3, "row_info->pixel_depth = %d", row_info.pixel_depth);
 822:fltk-1.3.4-1/png/pngwrite.c ****    png_debug1(3, "row_info->rowbytes = %lu", (unsigned long)row_info.rowbytes);
 823:fltk-1.3.4-1/png/pngwrite.c **** 
 824:fltk-1.3.4-1/png/pngwrite.c ****    /* Copy user's row into buffer, leaving room for filter byte. */
 825:fltk-1.3.4-1/png/pngwrite.c ****    memcpy(png_ptr->row_buf + 1, row, row_info.rowbytes);
 826:fltk-1.3.4-1/png/pngwrite.c **** 
 827:fltk-1.3.4-1/png/pngwrite.c **** #ifdef PNG_WRITE_INTERLACING_SUPPORTED
 828:fltk-1.3.4-1/png/pngwrite.c ****    /* Handle interlacing */
 829:fltk-1.3.4-1/png/pngwrite.c ****    if (png_ptr->interlaced && png_ptr->pass < 6 &&
 830:fltk-1.3.4-1/png/pngwrite.c ****        (png_ptr->transformations & PNG_INTERLACE) != 0)
 831:fltk-1.3.4-1/png/pngwrite.c ****    {
 832:fltk-1.3.4-1/png/pngwrite.c ****       png_do_write_interlace(&row_info, png_ptr->row_buf + 1, png_ptr->pass);
 833:fltk-1.3.4-1/png/pngwrite.c ****       /* This should always get caught above, but still ... */
 834:fltk-1.3.4-1/png/pngwrite.c ****       if (row_info.width == 0)
 835:fltk-1.3.4-1/png/pngwrite.c ****       {
 836:fltk-1.3.4-1/png/pngwrite.c ****          png_write_finish_row(png_ptr);
 837:fltk-1.3.4-1/png/pngwrite.c ****          return;
 838:fltk-1.3.4-1/png/pngwrite.c ****       }
 839:fltk-1.3.4-1/png/pngwrite.c ****    }
 840:fltk-1.3.4-1/png/pngwrite.c **** #endif
 841:fltk-1.3.4-1/png/pngwrite.c **** 
 842:fltk-1.3.4-1/png/pngwrite.c **** #ifdef PNG_WRITE_TRANSFORMS_SUPPORTED
 843:fltk-1.3.4-1/png/pngwrite.c ****    /* Handle other transformations */
 844:fltk-1.3.4-1/png/pngwrite.c ****    if (png_ptr->transformations != 0)
 845:fltk-1.3.4-1/png/pngwrite.c ****       png_do_write_transformations(png_ptr, &row_info);
 846:fltk-1.3.4-1/png/pngwrite.c **** #endif
 847:fltk-1.3.4-1/png/pngwrite.c **** 
 848:fltk-1.3.4-1/png/pngwrite.c ****    /* At this point the row_info pixel depth must match the 'transformed' depth,
 849:fltk-1.3.4-1/png/pngwrite.c ****     * which is also the output depth.
 850:fltk-1.3.4-1/png/pngwrite.c ****     */
 851:fltk-1.3.4-1/png/pngwrite.c ****    if (row_info.pixel_depth != png_ptr->pixel_depth ||
 852:fltk-1.3.4-1/png/pngwrite.c ****       row_info.pixel_depth != png_ptr->transformed_pixel_depth)
 853:fltk-1.3.4-1/png/pngwrite.c ****       png_error(png_ptr, "internal write transform logic error");
 854:fltk-1.3.4-1/png/pngwrite.c **** 
 855:fltk-1.3.4-1/png/pngwrite.c **** #ifdef PNG_MNG_FEATURES_SUPPORTED
 856:fltk-1.3.4-1/png/pngwrite.c ****    /* Write filter_method 64 (intrapixel differencing) only if
 857:fltk-1.3.4-1/png/pngwrite.c ****     * 1. Libpng was compiled with PNG_MNG_FEATURES_SUPPORTED and
 858:fltk-1.3.4-1/png/pngwrite.c ****     * 2. Libpng did not write a PNG signature (this filter_method is only
 859:fltk-1.3.4-1/png/pngwrite.c ****     *    used in PNG datastreams that are embedded in MNG datastreams) and
 860:fltk-1.3.4-1/png/pngwrite.c ****     * 3. The application called png_permit_mng_features with a mask that
 861:fltk-1.3.4-1/png/pngwrite.c ****     *    included PNG_FLAG_MNG_FILTER_64 and
 862:fltk-1.3.4-1/png/pngwrite.c ****     * 4. The filter_method is 64 and
 863:fltk-1.3.4-1/png/pngwrite.c ****     * 5. The color_type is RGB or RGBA
 864:fltk-1.3.4-1/png/pngwrite.c ****     */
 865:fltk-1.3.4-1/png/pngwrite.c ****    if ((png_ptr->mng_features_permitted & PNG_FLAG_MNG_FILTER_64) != 0 &&
 866:fltk-1.3.4-1/png/pngwrite.c ****        (png_ptr->filter_type == PNG_INTRAPIXEL_DIFFERENCING))
 867:fltk-1.3.4-1/png/pngwrite.c ****    {
 868:fltk-1.3.4-1/png/pngwrite.c ****       /* Intrapixel differencing */
 869:fltk-1.3.4-1/png/pngwrite.c ****       png_do_write_intrapixel(&row_info, png_ptr->row_buf + 1);
 870:fltk-1.3.4-1/png/pngwrite.c ****    }
 871:fltk-1.3.4-1/png/pngwrite.c **** #endif
 872:fltk-1.3.4-1/png/pngwrite.c **** 
 873:fltk-1.3.4-1/png/pngwrite.c **** /* Added at libpng-1.5.10 */
 874:fltk-1.3.4-1/png/pngwrite.c **** #ifdef PNG_WRITE_CHECK_FOR_INVALID_INDEX_SUPPORTED
 875:fltk-1.3.4-1/png/pngwrite.c ****    /* Check for out-of-range palette index */
 876:fltk-1.3.4-1/png/pngwrite.c ****    if (row_info.color_type == PNG_COLOR_TYPE_PALETTE &&
 877:fltk-1.3.4-1/png/pngwrite.c ****        png_ptr->num_palette_max >= 0)
 878:fltk-1.3.4-1/png/pngwrite.c ****       png_do_check_palette_indexes(png_ptr, &row_info);
 879:fltk-1.3.4-1/png/pngwrite.c **** #endif
 880:fltk-1.3.4-1/png/pngwrite.c **** 
 881:fltk-1.3.4-1/png/pngwrite.c ****    /* Find a filter if necessary, filter the row and write it out. */
 882:fltk-1.3.4-1/png/pngwrite.c ****    png_write_find_filter(png_ptr, &row_info);
 883:fltk-1.3.4-1/png/pngwrite.c **** 
 884:fltk-1.3.4-1/png/pngwrite.c ****    if (png_ptr->write_row_fn != NULL)
 885:fltk-1.3.4-1/png/pngwrite.c ****       (*(png_ptr->write_row_fn))(png_ptr, png_ptr->row_number, png_ptr->pass);
 886:fltk-1.3.4-1/png/pngwrite.c **** }
 887:fltk-1.3.4-1/png/pngwrite.c **** 
 888:fltk-1.3.4-1/png/pngwrite.c **** #ifdef PNG_WRITE_FLUSH_SUPPORTED
 889:fltk-1.3.4-1/png/pngwrite.c **** /* Set the automatic flush interval or 0 to turn flushing off */
 890:fltk-1.3.4-1/png/pngwrite.c **** void PNGAPI
 891:fltk-1.3.4-1/png/pngwrite.c **** png_set_flush(png_structrp png_ptr, int nrows)
 892:fltk-1.3.4-1/png/pngwrite.c **** {
 893:fltk-1.3.4-1/png/pngwrite.c ****    png_debug(1, "in png_set_flush");
 894:fltk-1.3.4-1/png/pngwrite.c **** 
 895:fltk-1.3.4-1/png/pngwrite.c ****    if (png_ptr == NULL)
 896:fltk-1.3.4-1/png/pngwrite.c ****       return;
 897:fltk-1.3.4-1/png/pngwrite.c **** 
 898:fltk-1.3.4-1/png/pngwrite.c ****    png_ptr->flush_dist = (nrows < 0 ? 0 : nrows);
 899:fltk-1.3.4-1/png/pngwrite.c **** }
 900:fltk-1.3.4-1/png/pngwrite.c **** 
 901:fltk-1.3.4-1/png/pngwrite.c **** /* Flush the current output buffers now */
 902:fltk-1.3.4-1/png/pngwrite.c **** void PNGAPI
 903:fltk-1.3.4-1/png/pngwrite.c **** png_write_flush(png_structrp png_ptr)
 904:fltk-1.3.4-1/png/pngwrite.c **** {
 905:fltk-1.3.4-1/png/pngwrite.c ****    png_debug(1, "in png_write_flush");
 906:fltk-1.3.4-1/png/pngwrite.c **** 
 907:fltk-1.3.4-1/png/pngwrite.c ****    if (png_ptr == NULL)
 908:fltk-1.3.4-1/png/pngwrite.c ****       return;
 909:fltk-1.3.4-1/png/pngwrite.c **** 
 910:fltk-1.3.4-1/png/pngwrite.c ****    /* We have already written out all of the data */
 911:fltk-1.3.4-1/png/pngwrite.c ****    if (png_ptr->row_number >= png_ptr->num_rows)
 912:fltk-1.3.4-1/png/pngwrite.c ****       return;
 913:fltk-1.3.4-1/png/pngwrite.c **** 
 914:fltk-1.3.4-1/png/pngwrite.c ****    png_compress_IDAT(png_ptr, NULL, 0, Z_SYNC_FLUSH);
 915:fltk-1.3.4-1/png/pngwrite.c ****    png_ptr->flush_rows = 0;
 916:fltk-1.3.4-1/png/pngwrite.c ****    png_flush(png_ptr);
 917:fltk-1.3.4-1/png/pngwrite.c **** }
 918:fltk-1.3.4-1/png/pngwrite.c **** #endif /* WRITE_FLUSH */
 919:fltk-1.3.4-1/png/pngwrite.c **** 
 920:fltk-1.3.4-1/png/pngwrite.c **** #ifdef PNG_WRITE_WEIGHTED_FILTER_SUPPORTED
 921:fltk-1.3.4-1/png/pngwrite.c **** static void png_reset_filter_heuristics(png_structrp png_ptr);/* forward decl */
 922:fltk-1.3.4-1/png/pngwrite.c **** #endif
 923:fltk-1.3.4-1/png/pngwrite.c **** 
 924:fltk-1.3.4-1/png/pngwrite.c **** /* Free any memory used in png_ptr struct without freeing the struct itself. */
 925:fltk-1.3.4-1/png/pngwrite.c **** static void
 926:fltk-1.3.4-1/png/pngwrite.c **** png_write_destroy(png_structrp png_ptr)
 927:fltk-1.3.4-1/png/pngwrite.c **** {
 928:fltk-1.3.4-1/png/pngwrite.c ****    png_debug(1, "in png_write_destroy");
 929:fltk-1.3.4-1/png/pngwrite.c **** 
 930:fltk-1.3.4-1/png/pngwrite.c ****    /* Free any memory zlib uses */
 931:fltk-1.3.4-1/png/pngwrite.c ****    if ((png_ptr->flags & PNG_FLAG_ZSTREAM_INITIALIZED) != 0)
 932:fltk-1.3.4-1/png/pngwrite.c ****       deflateEnd(&png_ptr->zstream);
 933:fltk-1.3.4-1/png/pngwrite.c **** 
 934:fltk-1.3.4-1/png/pngwrite.c ****    /* Free our memory.  png_free checks NULL for us. */
 935:fltk-1.3.4-1/png/pngwrite.c ****    png_free_buffer_list(png_ptr, &png_ptr->zbuffer_list);
 936:fltk-1.3.4-1/png/pngwrite.c ****    png_free(png_ptr, png_ptr->row_buf);
 937:fltk-1.3.4-1/png/pngwrite.c ****    png_ptr->row_buf = NULL;
 938:fltk-1.3.4-1/png/pngwrite.c **** #ifdef PNG_WRITE_FILTER_SUPPORTED
 939:fltk-1.3.4-1/png/pngwrite.c ****    png_free(png_ptr, png_ptr->prev_row);
 940:fltk-1.3.4-1/png/pngwrite.c ****    png_free(png_ptr, png_ptr->sub_row);
 941:fltk-1.3.4-1/png/pngwrite.c ****    png_free(png_ptr, png_ptr->up_row);
 942:fltk-1.3.4-1/png/pngwrite.c ****    png_free(png_ptr, png_ptr->avg_row);
 943:fltk-1.3.4-1/png/pngwrite.c ****    png_free(png_ptr, png_ptr->paeth_row);
 944:fltk-1.3.4-1/png/pngwrite.c ****    png_ptr->prev_row = NULL;
 945:fltk-1.3.4-1/png/pngwrite.c ****    png_ptr->sub_row = NULL;
 946:fltk-1.3.4-1/png/pngwrite.c ****    png_ptr->up_row = NULL;
 947:fltk-1.3.4-1/png/pngwrite.c ****    png_ptr->avg_row = NULL;
 948:fltk-1.3.4-1/png/pngwrite.c ****    png_ptr->paeth_row = NULL;
 949:fltk-1.3.4-1/png/pngwrite.c **** #endif
 950:fltk-1.3.4-1/png/pngwrite.c **** 
 951:fltk-1.3.4-1/png/pngwrite.c **** #ifdef PNG_WRITE_WEIGHTED_FILTER_SUPPORTED
 952:fltk-1.3.4-1/png/pngwrite.c ****    /* Use this to save a little code space, it doesn't free the filter_costs */
 953:fltk-1.3.4-1/png/pngwrite.c ****    png_reset_filter_heuristics(png_ptr);
 954:fltk-1.3.4-1/png/pngwrite.c ****    png_free(png_ptr, png_ptr->filter_costs);
 955:fltk-1.3.4-1/png/pngwrite.c ****    png_free(png_ptr, png_ptr->inv_filter_costs);
 956:fltk-1.3.4-1/png/pngwrite.c ****    png_ptr->filter_costs = NULL;
 957:fltk-1.3.4-1/png/pngwrite.c ****    png_ptr->inv_filter_costs = NULL;
 958:fltk-1.3.4-1/png/pngwrite.c **** #endif
 959:fltk-1.3.4-1/png/pngwrite.c **** 
 960:fltk-1.3.4-1/png/pngwrite.c **** #ifdef PNG_SET_UNKNOWN_CHUNKS_SUPPORTED
 961:fltk-1.3.4-1/png/pngwrite.c ****    png_free(png_ptr, png_ptr->chunk_list);
 962:fltk-1.3.4-1/png/pngwrite.c ****    png_ptr->chunk_list = NULL;
 963:fltk-1.3.4-1/png/pngwrite.c **** #endif
 964:fltk-1.3.4-1/png/pngwrite.c **** 
 965:fltk-1.3.4-1/png/pngwrite.c ****    /* The error handling and memory handling information is left intact at this
 966:fltk-1.3.4-1/png/pngwrite.c ****     * point: the jmp_buf may still have to be freed.  See png_destroy_png_struct
 967:fltk-1.3.4-1/png/pngwrite.c ****     * for how this happens.
 968:fltk-1.3.4-1/png/pngwrite.c ****     */
 969:fltk-1.3.4-1/png/pngwrite.c **** }
 970:fltk-1.3.4-1/png/pngwrite.c **** 
 971:fltk-1.3.4-1/png/pngwrite.c **** /* Free all memory used by the write.
 972:fltk-1.3.4-1/png/pngwrite.c ****  * In libpng 1.6.0 this API changed quietly to no longer accept a NULL value for
 973:fltk-1.3.4-1/png/pngwrite.c ****  * *png_ptr_ptr.  Prior to 1.6.0 it would accept such a value and it would free
 974:fltk-1.3.4-1/png/pngwrite.c ****  * the passed in info_structs but it would quietly fail to free any of the data
 975:fltk-1.3.4-1/png/pngwrite.c ****  * inside them.  In 1.6.0 it quietly does nothing (it has to be quiet because it
 976:fltk-1.3.4-1/png/pngwrite.c ****  * has no png_ptr.)
 977:fltk-1.3.4-1/png/pngwrite.c ****  */
 978:fltk-1.3.4-1/png/pngwrite.c **** void PNGAPI
 979:fltk-1.3.4-1/png/pngwrite.c **** png_destroy_write_struct(png_structpp png_ptr_ptr, png_infopp info_ptr_ptr)
 980:fltk-1.3.4-1/png/pngwrite.c **** {
 981:fltk-1.3.4-1/png/pngwrite.c ****    png_debug(1, "in png_destroy_write_struct");
 982:fltk-1.3.4-1/png/pngwrite.c **** 
 983:fltk-1.3.4-1/png/pngwrite.c ****    if (png_ptr_ptr != NULL)
 984:fltk-1.3.4-1/png/pngwrite.c ****    {
 985:fltk-1.3.4-1/png/pngwrite.c ****       png_structrp png_ptr = *png_ptr_ptr;
 986:fltk-1.3.4-1/png/pngwrite.c **** 
 987:fltk-1.3.4-1/png/pngwrite.c ****       if (png_ptr != NULL) /* added in libpng 1.6.0 */
 988:fltk-1.3.4-1/png/pngwrite.c ****       {
 989:fltk-1.3.4-1/png/pngwrite.c ****          png_destroy_info_struct(png_ptr, info_ptr_ptr);
 990:fltk-1.3.4-1/png/pngwrite.c **** 
 991:fltk-1.3.4-1/png/pngwrite.c ****          *png_ptr_ptr = NULL;
 992:fltk-1.3.4-1/png/pngwrite.c ****          png_write_destroy(png_ptr);
 993:fltk-1.3.4-1/png/pngwrite.c ****          png_destroy_png_struct(png_ptr);
 994:fltk-1.3.4-1/png/pngwrite.c ****       }
 995:fltk-1.3.4-1/png/pngwrite.c ****    }
 996:fltk-1.3.4-1/png/pngwrite.c **** }
 997:fltk-1.3.4-1/png/pngwrite.c **** 
 998:fltk-1.3.4-1/png/pngwrite.c **** /* Allow the application to select one or more row filters to use. */
 999:fltk-1.3.4-1/png/pngwrite.c **** void PNGAPI
1000:fltk-1.3.4-1/png/pngwrite.c **** png_set_filter(png_structrp png_ptr, int method, int filters)
1001:fltk-1.3.4-1/png/pngwrite.c **** {
1002:fltk-1.3.4-1/png/pngwrite.c ****    png_debug(1, "in png_set_filter");
1003:fltk-1.3.4-1/png/pngwrite.c **** 
1004:fltk-1.3.4-1/png/pngwrite.c ****    if (png_ptr == NULL)
1005:fltk-1.3.4-1/png/pngwrite.c ****       return;
1006:fltk-1.3.4-1/png/pngwrite.c **** 
1007:fltk-1.3.4-1/png/pngwrite.c **** #ifdef PNG_MNG_FEATURES_SUPPORTED
1008:fltk-1.3.4-1/png/pngwrite.c ****    if ((png_ptr->mng_features_permitted & PNG_FLAG_MNG_FILTER_64) != 0 &&
1009:fltk-1.3.4-1/png/pngwrite.c ****        (method == PNG_INTRAPIXEL_DIFFERENCING))
1010:fltk-1.3.4-1/png/pngwrite.c ****       method = PNG_FILTER_TYPE_BASE;
1011:fltk-1.3.4-1/png/pngwrite.c **** 
1012:fltk-1.3.4-1/png/pngwrite.c **** #endif
1013:fltk-1.3.4-1/png/pngwrite.c ****    if (method == PNG_FILTER_TYPE_BASE)
1014:fltk-1.3.4-1/png/pngwrite.c ****    {
1015:fltk-1.3.4-1/png/pngwrite.c ****       switch (filters & (PNG_ALL_FILTERS | 0x07))
1016:fltk-1.3.4-1/png/pngwrite.c ****       {
1017:fltk-1.3.4-1/png/pngwrite.c **** #ifdef PNG_WRITE_FILTER_SUPPORTED
1018:fltk-1.3.4-1/png/pngwrite.c ****          case 5:
1019:fltk-1.3.4-1/png/pngwrite.c ****          case 6:
1020:fltk-1.3.4-1/png/pngwrite.c ****          case 7: png_app_error(png_ptr, "Unknown row filter for method 0");
1021:fltk-1.3.4-1/png/pngwrite.c ****             /* FALL THROUGH */
1022:fltk-1.3.4-1/png/pngwrite.c **** #endif /* WRITE_FILTER */
1023:fltk-1.3.4-1/png/pngwrite.c ****          case PNG_FILTER_VALUE_NONE:
1024:fltk-1.3.4-1/png/pngwrite.c ****             png_ptr->do_filter = PNG_FILTER_NONE; break;
1025:fltk-1.3.4-1/png/pngwrite.c **** 
1026:fltk-1.3.4-1/png/pngwrite.c **** #ifdef PNG_WRITE_FILTER_SUPPORTED
1027:fltk-1.3.4-1/png/pngwrite.c ****          case PNG_FILTER_VALUE_SUB:
1028:fltk-1.3.4-1/png/pngwrite.c ****             png_ptr->do_filter = PNG_FILTER_SUB; break;
1029:fltk-1.3.4-1/png/pngwrite.c **** 
1030:fltk-1.3.4-1/png/pngwrite.c ****          case PNG_FILTER_VALUE_UP:
1031:fltk-1.3.4-1/png/pngwrite.c ****             png_ptr->do_filter = PNG_FILTER_UP; break;
1032:fltk-1.3.4-1/png/pngwrite.c **** 
1033:fltk-1.3.4-1/png/pngwrite.c ****          case PNG_FILTER_VALUE_AVG:
1034:fltk-1.3.4-1/png/pngwrite.c ****             png_ptr->do_filter = PNG_FILTER_AVG; break;
1035:fltk-1.3.4-1/png/pngwrite.c **** 
1036:fltk-1.3.4-1/png/pngwrite.c ****          case PNG_FILTER_VALUE_PAETH:
1037:fltk-1.3.4-1/png/pngwrite.c ****             png_ptr->do_filter = PNG_FILTER_PAETH; break;
1038:fltk-1.3.4-1/png/pngwrite.c **** 
1039:fltk-1.3.4-1/png/pngwrite.c ****          default:
1040:fltk-1.3.4-1/png/pngwrite.c ****             png_ptr->do_filter = (png_byte)filters; break;
1041:fltk-1.3.4-1/png/pngwrite.c **** #else
1042:fltk-1.3.4-1/png/pngwrite.c ****          default:
1043:fltk-1.3.4-1/png/pngwrite.c ****             png_app_error(png_ptr, "Unknown row filter for method 0");
1044:fltk-1.3.4-1/png/pngwrite.c **** #endif /* WRITE_FILTER */
1045:fltk-1.3.4-1/png/pngwrite.c ****       }
1046:fltk-1.3.4-1/png/pngwrite.c **** 
1047:fltk-1.3.4-1/png/pngwrite.c ****       /* If we have allocated the row_buf, this means we have already started
1048:fltk-1.3.4-1/png/pngwrite.c ****        * with the image and we should have allocated all of the filter buffers
1049:fltk-1.3.4-1/png/pngwrite.c ****        * that have been selected.  If prev_row isn't already allocated, then
1050:fltk-1.3.4-1/png/pngwrite.c ****        * it is too late to start using the filters that need it, since we
1051:fltk-1.3.4-1/png/pngwrite.c ****        * will be missing the data in the previous row.  If an application
1052:fltk-1.3.4-1/png/pngwrite.c ****        * wants to start and stop using particular filters during compression,
1053:fltk-1.3.4-1/png/pngwrite.c ****        * it should start out with all of the filters, and then add and
1054:fltk-1.3.4-1/png/pngwrite.c ****        * remove them after the start of compression.
1055:fltk-1.3.4-1/png/pngwrite.c ****        */
1056:fltk-1.3.4-1/png/pngwrite.c ****       if (png_ptr->row_buf != NULL)
1057:fltk-1.3.4-1/png/pngwrite.c ****       {
1058:fltk-1.3.4-1/png/pngwrite.c **** #ifdef PNG_WRITE_FILTER_SUPPORTED
1059:fltk-1.3.4-1/png/pngwrite.c ****          if ((png_ptr->do_filter & PNG_FILTER_SUB) != 0 &&
1060:fltk-1.3.4-1/png/pngwrite.c ****              png_ptr->sub_row == NULL)
1061:fltk-1.3.4-1/png/pngwrite.c ****          {
1062:fltk-1.3.4-1/png/pngwrite.c ****             png_ptr->sub_row = (png_bytep)png_malloc(png_ptr,
1063:fltk-1.3.4-1/png/pngwrite.c ****                 (png_ptr->rowbytes + 1));
1064:fltk-1.3.4-1/png/pngwrite.c ****             png_ptr->sub_row[0] = PNG_FILTER_VALUE_SUB;
1065:fltk-1.3.4-1/png/pngwrite.c ****          }
1066:fltk-1.3.4-1/png/pngwrite.c **** 
1067:fltk-1.3.4-1/png/pngwrite.c ****          if ((png_ptr->do_filter & PNG_FILTER_UP) != 0 &&
1068:fltk-1.3.4-1/png/pngwrite.c ****               png_ptr->up_row == NULL)
1069:fltk-1.3.4-1/png/pngwrite.c ****          {
1070:fltk-1.3.4-1/png/pngwrite.c ****             if (png_ptr->prev_row == NULL)
1071:fltk-1.3.4-1/png/pngwrite.c ****             {
1072:fltk-1.3.4-1/png/pngwrite.c ****                png_warning(png_ptr, "Can't add Up filter after starting");
1073:fltk-1.3.4-1/png/pngwrite.c ****                png_ptr->do_filter = (png_byte)(png_ptr->do_filter &
1074:fltk-1.3.4-1/png/pngwrite.c ****                    ~PNG_FILTER_UP);
1075:fltk-1.3.4-1/png/pngwrite.c ****             }
1076:fltk-1.3.4-1/png/pngwrite.c **** 
1077:fltk-1.3.4-1/png/pngwrite.c ****             else
1078:fltk-1.3.4-1/png/pngwrite.c ****             {
1079:fltk-1.3.4-1/png/pngwrite.c ****                png_ptr->up_row = (png_bytep)png_malloc(png_ptr,
1080:fltk-1.3.4-1/png/pngwrite.c ****                    (png_ptr->rowbytes + 1));
1081:fltk-1.3.4-1/png/pngwrite.c ****                png_ptr->up_row[0] = PNG_FILTER_VALUE_UP;
1082:fltk-1.3.4-1/png/pngwrite.c ****             }
1083:fltk-1.3.4-1/png/pngwrite.c ****          }
1084:fltk-1.3.4-1/png/pngwrite.c **** 
1085:fltk-1.3.4-1/png/pngwrite.c ****          if ((png_ptr->do_filter & PNG_FILTER_AVG) != 0 &&
1086:fltk-1.3.4-1/png/pngwrite.c ****               png_ptr->avg_row == NULL)
1087:fltk-1.3.4-1/png/pngwrite.c ****          {
1088:fltk-1.3.4-1/png/pngwrite.c ****             if (png_ptr->prev_row == NULL)
1089:fltk-1.3.4-1/png/pngwrite.c ****             {
1090:fltk-1.3.4-1/png/pngwrite.c ****                png_warning(png_ptr, "Can't add Average filter after starting");
1091:fltk-1.3.4-1/png/pngwrite.c ****                png_ptr->do_filter = (png_byte)(png_ptr->do_filter &
1092:fltk-1.3.4-1/png/pngwrite.c ****                    ~PNG_FILTER_AVG);
1093:fltk-1.3.4-1/png/pngwrite.c ****             }
1094:fltk-1.3.4-1/png/pngwrite.c **** 
1095:fltk-1.3.4-1/png/pngwrite.c ****             else
1096:fltk-1.3.4-1/png/pngwrite.c ****             {
1097:fltk-1.3.4-1/png/pngwrite.c ****                png_ptr->avg_row = (png_bytep)png_malloc(png_ptr,
1098:fltk-1.3.4-1/png/pngwrite.c ****                    (png_ptr->rowbytes + 1));
1099:fltk-1.3.4-1/png/pngwrite.c ****                png_ptr->avg_row[0] = PNG_FILTER_VALUE_AVG;
1100:fltk-1.3.4-1/png/pngwrite.c ****             }
1101:fltk-1.3.4-1/png/pngwrite.c ****          }
1102:fltk-1.3.4-1/png/pngwrite.c **** 
1103:fltk-1.3.4-1/png/pngwrite.c ****          if ((png_ptr->do_filter & PNG_FILTER_PAETH) != 0 &&
1104:fltk-1.3.4-1/png/pngwrite.c ****              png_ptr->paeth_row == NULL)
1105:fltk-1.3.4-1/png/pngwrite.c ****          {
1106:fltk-1.3.4-1/png/pngwrite.c ****             if (png_ptr->prev_row == NULL)
1107:fltk-1.3.4-1/png/pngwrite.c ****             {
1108:fltk-1.3.4-1/png/pngwrite.c ****                png_warning(png_ptr, "Can't add Paeth filter after starting");
1109:fltk-1.3.4-1/png/pngwrite.c ****                png_ptr->do_filter &= (png_byte)(~PNG_FILTER_PAETH);
1110:fltk-1.3.4-1/png/pngwrite.c ****             }
1111:fltk-1.3.4-1/png/pngwrite.c **** 
1112:fltk-1.3.4-1/png/pngwrite.c ****             else
1113:fltk-1.3.4-1/png/pngwrite.c ****             {
1114:fltk-1.3.4-1/png/pngwrite.c ****                png_ptr->paeth_row = (png_bytep)png_malloc(png_ptr,
1115:fltk-1.3.4-1/png/pngwrite.c ****                    (png_ptr->rowbytes + 1));
1116:fltk-1.3.4-1/png/pngwrite.c ****                png_ptr->paeth_row[0] = PNG_FILTER_VALUE_PAETH;
1117:fltk-1.3.4-1/png/pngwrite.c ****             }
1118:fltk-1.3.4-1/png/pngwrite.c ****          }
1119:fltk-1.3.4-1/png/pngwrite.c **** 
1120:fltk-1.3.4-1/png/pngwrite.c ****          if (png_ptr->do_filter == PNG_NO_FILTERS)
1121:fltk-1.3.4-1/png/pngwrite.c **** #endif /* WRITE_FILTER */
1122:fltk-1.3.4-1/png/pngwrite.c ****             png_ptr->do_filter = PNG_FILTER_NONE;
1123:fltk-1.3.4-1/png/pngwrite.c ****       }
1124:fltk-1.3.4-1/png/pngwrite.c ****    }
1125:fltk-1.3.4-1/png/pngwrite.c ****    else
1126:fltk-1.3.4-1/png/pngwrite.c ****       png_error(png_ptr, "Unknown custom filter method");
1127:fltk-1.3.4-1/png/pngwrite.c **** }
1128:fltk-1.3.4-1/png/pngwrite.c **** 
1129:fltk-1.3.4-1/png/pngwrite.c **** /* This allows us to influence the way in which libpng chooses the "best"
1130:fltk-1.3.4-1/png/pngwrite.c ****  * filter for the current scanline.  While the "minimum-sum-of-absolute-
1131:fltk-1.3.4-1/png/pngwrite.c ****  * differences metric is relatively fast and effective, there is some
1132:fltk-1.3.4-1/png/pngwrite.c ****  * question as to whether it can be improved upon by trying to keep the
1133:fltk-1.3.4-1/png/pngwrite.c ****  * filtered data going to zlib more consistent, hopefully resulting in
1134:fltk-1.3.4-1/png/pngwrite.c ****  * better compression.
1135:fltk-1.3.4-1/png/pngwrite.c ****  */
1136:fltk-1.3.4-1/png/pngwrite.c **** #ifdef PNG_WRITE_WEIGHTED_FILTER_SUPPORTED      /* GRR 970116 */
1137:fltk-1.3.4-1/png/pngwrite.c **** /* Convenience reset API. */
1138:fltk-1.3.4-1/png/pngwrite.c **** static void
1139:fltk-1.3.4-1/png/pngwrite.c **** png_reset_filter_heuristics(png_structrp png_ptr)
1140:fltk-1.3.4-1/png/pngwrite.c **** {
  11              		.loc 1 1140 1 view -0
  12              		.cfi_startproc
1141:fltk-1.3.4-1/png/pngwrite.c ****    /* Clear out any old values in the 'weights' - this must be done because if
1142:fltk-1.3.4-1/png/pngwrite.c ****     * the app calls set_filter_heuristics multiple times with different
1143:fltk-1.3.4-1/png/pngwrite.c ****     * 'num_weights' values we would otherwise potentially have wrong sized
1144:fltk-1.3.4-1/png/pngwrite.c ****     * arrays.
1145:fltk-1.3.4-1/png/pngwrite.c ****     */
1146:fltk-1.3.4-1/png/pngwrite.c ****    png_ptr->num_prev_filters = 0;
  13              		.loc 1 1146 4 view .LVU1
1147:fltk-1.3.4-1/png/pngwrite.c ****    png_ptr->heuristic_method = PNG_FILTER_HEURISTIC_UNWEIGHTED;
  14              		.loc 1 1147 4 view .LVU2
1140:fltk-1.3.4-1/png/pngwrite.c ****    /* Clear out any old values in the 'weights' - this must be done because if
  15              		.loc 1 1140 1 is_stmt 0 view .LVU3
  16 0000 55       		pushq	%rbp
  17              		.cfi_def_cfa_offset 16
  18              		.cfi_offset 6, -16
1148:fltk-1.3.4-1/png/pngwrite.c ****    if (png_ptr->prev_filters != NULL)
  19              		.loc 1 1148 15 view .LVU4
  20 0001 488BB7A0 		movq	928(%rdi), %rsi
  20      030000
1147:fltk-1.3.4-1/png/pngwrite.c ****    png_ptr->heuristic_method = PNG_FILTER_HEURISTIC_UNWEIGHTED;
  21              		.loc 1 1147 30 view .LVU5
  22 0008 B8010000 		movl	$1, %eax
  22      00
1140:fltk-1.3.4-1/png/pngwrite.c ****    /* Clear out any old values in the 'weights' - this must be done because if
  23              		.loc 1 1140 1 view .LVU6
  24 000d 4889FD   		movq	%rdi, %rbp
1147:fltk-1.3.4-1/png/pngwrite.c ****    png_ptr->heuristic_method = PNG_FILTER_HEURISTIC_UNWEIGHTED;
  25              		.loc 1 1147 30 view .LVU7
  26 0010 66898798 		movw	%ax, 920(%rdi)
  26      030000
  27              		.loc 1 1148 4 is_stmt 1 view .LVU8
  28              		.loc 1 1148 7 is_stmt 0 view .LVU9
  29 0017 4885F6   		testq	%rsi, %rsi
  30 001a 7410     		je	.L2
  31              	.LBB99:
1149:fltk-1.3.4-1/png/pngwrite.c ****    {
1150:fltk-1.3.4-1/png/pngwrite.c ****       png_bytep old = png_ptr->prev_filters;
  32              		.loc 1 1150 7 is_stmt 1 view .LVU10
  33              	.LVL1:
1151:fltk-1.3.4-1/png/pngwrite.c ****       png_ptr->prev_filters = NULL;
  34              		.loc 1 1151 7 view .LVU11
  35              		.loc 1 1151 29 is_stmt 0 view .LVU12
  36 001c 48C787A0 		movq	$0, 928(%rdi)
  36      03000000 
  36      000000
1152:fltk-1.3.4-1/png/pngwrite.c ****       png_free(png_ptr, old);
  37              		.loc 1 1152 7 is_stmt 1 view .LVU13
  38 0027 E8000000 		call	png_free@PLT
  38      00
  39              	.LVL2:
  40              	.L2:
  41              		.loc 1 1152 7 is_stmt 0 view .LVU14
  42              	.LBE99:
1153:fltk-1.3.4-1/png/pngwrite.c ****    }
1154:fltk-1.3.4-1/png/pngwrite.c ****    if (png_ptr->filter_weights != NULL)
  43              		.loc 1 1154 4 is_stmt 1 view .LVU15
  44              		.loc 1 1154 15 is_stmt 0 view .LVU16
  45 002c 488BB5A8 		movq	936(%rbp), %rsi
  45      030000
  46              		.loc 1 1154 7 view .LVU17
  47 0033 4885F6   		testq	%rsi, %rsi
  48 0036 7413     		je	.L3
  49              	.LBB100:
1155:fltk-1.3.4-1/png/pngwrite.c ****    {
1156:fltk-1.3.4-1/png/pngwrite.c ****       png_uint_16p old = png_ptr->filter_weights;
  50              		.loc 1 1156 7 is_stmt 1 view .LVU18
  51              	.LVL3:
1157:fltk-1.3.4-1/png/pngwrite.c ****       png_ptr->filter_weights = NULL;
  52              		.loc 1 1157 7 view .LVU19
  53              		.loc 1 1157 31 is_stmt 0 view .LVU20
  54 0038 48C785A8 		movq	$0, 936(%rbp)
  54      03000000 
  54      000000
1158:fltk-1.3.4-1/png/pngwrite.c ****       png_free(png_ptr, old);
  55              		.loc 1 1158 7 is_stmt 1 view .LVU21
  56 0043 4889EF   		movq	%rbp, %rdi
  57 0046 E8000000 		call	png_free@PLT
  57      00
  58              	.LVL4:
  59              	.L3:
  60              		.loc 1 1158 7 is_stmt 0 view .LVU22
  61              	.LBE100:
1159:fltk-1.3.4-1/png/pngwrite.c ****    }
1160:fltk-1.3.4-1/png/pngwrite.c **** 
1161:fltk-1.3.4-1/png/pngwrite.c ****    if (png_ptr->inv_filter_weights != NULL)
  62              		.loc 1 1161 4 is_stmt 1 view .LVU23
  63              		.loc 1 1161 15 is_stmt 0 view .LVU24
  64 004b 488BB5B0 		movq	944(%rbp), %rsi
  64      030000
  65              		.loc 1 1161 7 view .LVU25
  66 0052 4885F6   		testq	%rsi, %rsi
  67 0055 7419     		je	.L1
  68              	.LBB101:
1162:fltk-1.3.4-1/png/pngwrite.c ****    {
1163:fltk-1.3.4-1/png/pngwrite.c ****       png_uint_16p old = png_ptr->inv_filter_weights;
  69              		.loc 1 1163 7 is_stmt 1 view .LVU26
  70              	.LVL5:
1164:fltk-1.3.4-1/png/pngwrite.c ****       png_ptr->inv_filter_weights = NULL;
  71              		.loc 1 1164 7 view .LVU27
  72              		.loc 1 1164 35 is_stmt 0 view .LVU28
  73 0057 48C785B0 		movq	$0, 944(%rbp)
  73      03000000 
  73      000000
1165:fltk-1.3.4-1/png/pngwrite.c ****       png_free(png_ptr, old);
  74              		.loc 1 1165 7 is_stmt 1 view .LVU29
  75 0062 4889EF   		movq	%rbp, %rdi
  76              	.LBE101:
1166:fltk-1.3.4-1/png/pngwrite.c ****    }
1167:fltk-1.3.4-1/png/pngwrite.c **** 
1168:fltk-1.3.4-1/png/pngwrite.c ****    /* Leave the filter_costs - this array is fixed size. */
1169:fltk-1.3.4-1/png/pngwrite.c **** }
  77              		.loc 1 1169 1 is_stmt 0 view .LVU30
  78 0065 5D       		popq	%rbp
  79              		.cfi_remember_state
  80              		.cfi_def_cfa_offset 8
  81              	.LVL6:
  82              	.LBB102:
1165:fltk-1.3.4-1/png/pngwrite.c ****       png_free(png_ptr, old);
  83              		.loc 1 1165 7 view .LVU31
  84 0066 E9000000 		jmp	png_free@PLT
  84      00
  85              	.LVL7:
  86 006b 0F1F4400 		.p2align 4,,10
  86      00
  87              		.p2align 3
  88              	.L1:
  89              		.cfi_restore_state
1165:fltk-1.3.4-1/png/pngwrite.c ****       png_free(png_ptr, old);
  90              		.loc 1 1165 7 view .LVU32
  91              	.LBE102:
  92              		.loc 1 1169 1 view .LVU33
  93 0070 5D       		popq	%rbp
  94              		.cfi_def_cfa_offset 8
  95              	.LVL8:
  96              		.loc 1 1169 1 view .LVU34
  97 0071 C3       		ret
  98              		.cfi_endproc
  99              	.LFE58:
 101              		.section	.text.png_unpremultiply.part.0,"ax",@progbits
 102              		.p2align 4
 104              	png_unpremultiply.part.0:
 105              	.LVL9:
 106              	.LFB83:
1170:fltk-1.3.4-1/png/pngwrite.c **** 
1171:fltk-1.3.4-1/png/pngwrite.c **** static int
1172:fltk-1.3.4-1/png/pngwrite.c **** png_init_filter_heuristics(png_structrp png_ptr, int heuristic_method,
1173:fltk-1.3.4-1/png/pngwrite.c ****    int num_weights)
1174:fltk-1.3.4-1/png/pngwrite.c **** {
1175:fltk-1.3.4-1/png/pngwrite.c ****    if (png_ptr == NULL)
1176:fltk-1.3.4-1/png/pngwrite.c ****       return 0;
1177:fltk-1.3.4-1/png/pngwrite.c **** 
1178:fltk-1.3.4-1/png/pngwrite.c ****    /* Clear out the arrays */
1179:fltk-1.3.4-1/png/pngwrite.c ****    png_reset_filter_heuristics(png_ptr);
1180:fltk-1.3.4-1/png/pngwrite.c **** 
1181:fltk-1.3.4-1/png/pngwrite.c ****    /* Check arguments; the 'reset' function makes the correct settings for the
1182:fltk-1.3.4-1/png/pngwrite.c ****     * unweighted case, but we must handle the weight case by initializing the
1183:fltk-1.3.4-1/png/pngwrite.c ****     * arrays for the caller.
1184:fltk-1.3.4-1/png/pngwrite.c ****     */
1185:fltk-1.3.4-1/png/pngwrite.c ****    if (heuristic_method == PNG_FILTER_HEURISTIC_WEIGHTED)
1186:fltk-1.3.4-1/png/pngwrite.c ****    {
1187:fltk-1.3.4-1/png/pngwrite.c ****       int i;
1188:fltk-1.3.4-1/png/pngwrite.c **** 
1189:fltk-1.3.4-1/png/pngwrite.c ****       if (num_weights > 0)
1190:fltk-1.3.4-1/png/pngwrite.c ****       {
1191:fltk-1.3.4-1/png/pngwrite.c ****          png_ptr->prev_filters = (png_bytep)png_malloc(png_ptr,
1192:fltk-1.3.4-1/png/pngwrite.c ****              (png_uint_32)((sizeof (png_byte)) * num_weights));
1193:fltk-1.3.4-1/png/pngwrite.c **** 
1194:fltk-1.3.4-1/png/pngwrite.c ****          /* To make sure that the weighting starts out fairly */
1195:fltk-1.3.4-1/png/pngwrite.c ****          for (i = 0; i < num_weights; i++)
1196:fltk-1.3.4-1/png/pngwrite.c ****          {
1197:fltk-1.3.4-1/png/pngwrite.c ****             png_ptr->prev_filters[i] = 255;
1198:fltk-1.3.4-1/png/pngwrite.c ****          }
1199:fltk-1.3.4-1/png/pngwrite.c **** 
1200:fltk-1.3.4-1/png/pngwrite.c ****          png_ptr->filter_weights = (png_uint_16p)png_malloc(png_ptr,
1201:fltk-1.3.4-1/png/pngwrite.c ****              (png_uint_32)((sizeof (png_uint_16)) * num_weights));
1202:fltk-1.3.4-1/png/pngwrite.c **** 
1203:fltk-1.3.4-1/png/pngwrite.c ****          png_ptr->inv_filter_weights = (png_uint_16p)png_malloc(png_ptr,
1204:fltk-1.3.4-1/png/pngwrite.c ****              (png_uint_32)((sizeof (png_uint_16)) * num_weights));
1205:fltk-1.3.4-1/png/pngwrite.c **** 
1206:fltk-1.3.4-1/png/pngwrite.c ****          for (i = 0; i < num_weights; i++)
1207:fltk-1.3.4-1/png/pngwrite.c ****          {
1208:fltk-1.3.4-1/png/pngwrite.c ****             png_ptr->inv_filter_weights[i] =
1209:fltk-1.3.4-1/png/pngwrite.c ****             png_ptr->filter_weights[i] = PNG_WEIGHT_FACTOR;
1210:fltk-1.3.4-1/png/pngwrite.c ****          }
1211:fltk-1.3.4-1/png/pngwrite.c **** 
1212:fltk-1.3.4-1/png/pngwrite.c ****          /* Safe to set this now */
1213:fltk-1.3.4-1/png/pngwrite.c ****          png_ptr->num_prev_filters = (png_byte)num_weights;
1214:fltk-1.3.4-1/png/pngwrite.c ****       }
1215:fltk-1.3.4-1/png/pngwrite.c **** 
1216:fltk-1.3.4-1/png/pngwrite.c ****       /* If, in the future, there are other filter methods, this would
1217:fltk-1.3.4-1/png/pngwrite.c ****        * need to be based on png_ptr->filter.
1218:fltk-1.3.4-1/png/pngwrite.c ****        */
1219:fltk-1.3.4-1/png/pngwrite.c ****       if (png_ptr->filter_costs == NULL)
1220:fltk-1.3.4-1/png/pngwrite.c ****       {
1221:fltk-1.3.4-1/png/pngwrite.c ****          png_ptr->filter_costs = (png_uint_16p)png_malloc(png_ptr,
1222:fltk-1.3.4-1/png/pngwrite.c ****              (png_uint_32)((sizeof (png_uint_16)) * PNG_FILTER_VALUE_LAST));
1223:fltk-1.3.4-1/png/pngwrite.c **** 
1224:fltk-1.3.4-1/png/pngwrite.c ****          png_ptr->inv_filter_costs = (png_uint_16p)png_malloc(png_ptr,
1225:fltk-1.3.4-1/png/pngwrite.c ****              (png_uint_32)((sizeof (png_uint_16)) * PNG_FILTER_VALUE_LAST));
1226:fltk-1.3.4-1/png/pngwrite.c ****       }
1227:fltk-1.3.4-1/png/pngwrite.c **** 
1228:fltk-1.3.4-1/png/pngwrite.c ****       for (i = 0; i < PNG_FILTER_VALUE_LAST; i++)
1229:fltk-1.3.4-1/png/pngwrite.c ****       {
1230:fltk-1.3.4-1/png/pngwrite.c ****          png_ptr->inv_filter_costs[i] =
1231:fltk-1.3.4-1/png/pngwrite.c ****          png_ptr->filter_costs[i] = PNG_COST_FACTOR;
1232:fltk-1.3.4-1/png/pngwrite.c ****       }
1233:fltk-1.3.4-1/png/pngwrite.c **** 
1234:fltk-1.3.4-1/png/pngwrite.c ****       /* All the arrays are inited, safe to set this: */
1235:fltk-1.3.4-1/png/pngwrite.c ****       png_ptr->heuristic_method = PNG_FILTER_HEURISTIC_WEIGHTED;
1236:fltk-1.3.4-1/png/pngwrite.c **** 
1237:fltk-1.3.4-1/png/pngwrite.c ****       /* Return the 'ok' code. */
1238:fltk-1.3.4-1/png/pngwrite.c ****       return 1;
1239:fltk-1.3.4-1/png/pngwrite.c ****    }
1240:fltk-1.3.4-1/png/pngwrite.c ****    else if (heuristic_method == PNG_FILTER_HEURISTIC_DEFAULT ||
1241:fltk-1.3.4-1/png/pngwrite.c ****       heuristic_method == PNG_FILTER_HEURISTIC_UNWEIGHTED)
1242:fltk-1.3.4-1/png/pngwrite.c ****    {
1243:fltk-1.3.4-1/png/pngwrite.c ****       return 1;
1244:fltk-1.3.4-1/png/pngwrite.c ****    }
1245:fltk-1.3.4-1/png/pngwrite.c ****    else
1246:fltk-1.3.4-1/png/pngwrite.c ****    {
1247:fltk-1.3.4-1/png/pngwrite.c ****       png_warning(png_ptr, "Unknown filter heuristic method");
1248:fltk-1.3.4-1/png/pngwrite.c ****       return 0;
1249:fltk-1.3.4-1/png/pngwrite.c ****    }
1250:fltk-1.3.4-1/png/pngwrite.c **** }
1251:fltk-1.3.4-1/png/pngwrite.c **** 
1252:fltk-1.3.4-1/png/pngwrite.c **** /* Provide floating and fixed point APIs */
1253:fltk-1.3.4-1/png/pngwrite.c **** #ifdef PNG_FLOATING_POINT_SUPPORTED
1254:fltk-1.3.4-1/png/pngwrite.c **** void PNGAPI
1255:fltk-1.3.4-1/png/pngwrite.c **** png_set_filter_heuristics(png_structrp png_ptr, int heuristic_method,
1256:fltk-1.3.4-1/png/pngwrite.c ****     int num_weights, png_const_doublep filter_weights,
1257:fltk-1.3.4-1/png/pngwrite.c ****     png_const_doublep filter_costs)
1258:fltk-1.3.4-1/png/pngwrite.c **** {
1259:fltk-1.3.4-1/png/pngwrite.c ****    png_debug(1, "in png_set_filter_heuristics");
1260:fltk-1.3.4-1/png/pngwrite.c **** 
1261:fltk-1.3.4-1/png/pngwrite.c ****    /* The internal API allocates all the arrays and ensures that the elements of
1262:fltk-1.3.4-1/png/pngwrite.c ****     * those arrays are set to the default value.
1263:fltk-1.3.4-1/png/pngwrite.c ****     */
1264:fltk-1.3.4-1/png/pngwrite.c ****    if (png_init_filter_heuristics(png_ptr, heuristic_method, num_weights) == 0)
1265:fltk-1.3.4-1/png/pngwrite.c ****       return;
1266:fltk-1.3.4-1/png/pngwrite.c **** 
1267:fltk-1.3.4-1/png/pngwrite.c ****    /* If using the weighted method copy in the weights. */
1268:fltk-1.3.4-1/png/pngwrite.c ****    if (heuristic_method == PNG_FILTER_HEURISTIC_WEIGHTED)
1269:fltk-1.3.4-1/png/pngwrite.c ****    {
1270:fltk-1.3.4-1/png/pngwrite.c ****       int i;
1271:fltk-1.3.4-1/png/pngwrite.c ****       for (i = 0; i < num_weights; i++)
1272:fltk-1.3.4-1/png/pngwrite.c ****       {
1273:fltk-1.3.4-1/png/pngwrite.c ****          if (filter_weights[i] <= 0.0)
1274:fltk-1.3.4-1/png/pngwrite.c ****          {
1275:fltk-1.3.4-1/png/pngwrite.c ****             png_ptr->inv_filter_weights[i] =
1276:fltk-1.3.4-1/png/pngwrite.c ****             png_ptr->filter_weights[i] = PNG_WEIGHT_FACTOR;
1277:fltk-1.3.4-1/png/pngwrite.c ****          }
1278:fltk-1.3.4-1/png/pngwrite.c **** 
1279:fltk-1.3.4-1/png/pngwrite.c ****          else
1280:fltk-1.3.4-1/png/pngwrite.c ****          {
1281:fltk-1.3.4-1/png/pngwrite.c ****             png_ptr->inv_filter_weights[i] =
1282:fltk-1.3.4-1/png/pngwrite.c ****                 (png_uint_16)(PNG_WEIGHT_FACTOR*filter_weights[i]+.5);
1283:fltk-1.3.4-1/png/pngwrite.c **** 
1284:fltk-1.3.4-1/png/pngwrite.c ****             png_ptr->filter_weights[i] =
1285:fltk-1.3.4-1/png/pngwrite.c ****                 (png_uint_16)(PNG_WEIGHT_FACTOR/filter_weights[i]+.5);
1286:fltk-1.3.4-1/png/pngwrite.c ****          }
1287:fltk-1.3.4-1/png/pngwrite.c ****       }
1288:fltk-1.3.4-1/png/pngwrite.c **** 
1289:fltk-1.3.4-1/png/pngwrite.c ****       /* Here is where we set the relative costs of the different filters.  We
1290:fltk-1.3.4-1/png/pngwrite.c ****        * should take the desired compression level into account when setting
1291:fltk-1.3.4-1/png/pngwrite.c ****        * the costs, so that Paeth, for instance, has a high relative cost at low
1292:fltk-1.3.4-1/png/pngwrite.c ****        * compression levels, while it has a lower relative cost at higher
1293:fltk-1.3.4-1/png/pngwrite.c ****        * compression settings.  The filter types are in order of increasing
1294:fltk-1.3.4-1/png/pngwrite.c ****        * relative cost, so it would be possible to do this with an algorithm.
1295:fltk-1.3.4-1/png/pngwrite.c ****        */
1296:fltk-1.3.4-1/png/pngwrite.c ****       for (i = 0; i < PNG_FILTER_VALUE_LAST; i++) if (filter_costs[i] >= 1.0)
1297:fltk-1.3.4-1/png/pngwrite.c ****       {
1298:fltk-1.3.4-1/png/pngwrite.c ****          png_ptr->inv_filter_costs[i] =
1299:fltk-1.3.4-1/png/pngwrite.c ****              (png_uint_16)(PNG_COST_FACTOR / filter_costs[i] + .5);
1300:fltk-1.3.4-1/png/pngwrite.c **** 
1301:fltk-1.3.4-1/png/pngwrite.c ****          png_ptr->filter_costs[i] =
1302:fltk-1.3.4-1/png/pngwrite.c ****              (png_uint_16)(PNG_COST_FACTOR * filter_costs[i] + .5);
1303:fltk-1.3.4-1/png/pngwrite.c ****       }
1304:fltk-1.3.4-1/png/pngwrite.c ****    }
1305:fltk-1.3.4-1/png/pngwrite.c **** }
1306:fltk-1.3.4-1/png/pngwrite.c **** #endif /* FLOATING_POINT */
1307:fltk-1.3.4-1/png/pngwrite.c **** 
1308:fltk-1.3.4-1/png/pngwrite.c **** #ifdef PNG_FIXED_POINT_SUPPORTED
1309:fltk-1.3.4-1/png/pngwrite.c **** void PNGAPI
1310:fltk-1.3.4-1/png/pngwrite.c **** png_set_filter_heuristics_fixed(png_structrp png_ptr, int heuristic_method,
1311:fltk-1.3.4-1/png/pngwrite.c ****     int num_weights, png_const_fixed_point_p filter_weights,
1312:fltk-1.3.4-1/png/pngwrite.c ****     png_const_fixed_point_p filter_costs)
1313:fltk-1.3.4-1/png/pngwrite.c **** {
1314:fltk-1.3.4-1/png/pngwrite.c ****    png_debug(1, "in png_set_filter_heuristics_fixed");
1315:fltk-1.3.4-1/png/pngwrite.c **** 
1316:fltk-1.3.4-1/png/pngwrite.c ****    /* The internal API allocates all the arrays and ensures that the elements of
1317:fltk-1.3.4-1/png/pngwrite.c ****     * those arrays are set to the default value.
1318:fltk-1.3.4-1/png/pngwrite.c ****     */
1319:fltk-1.3.4-1/png/pngwrite.c ****    if (png_init_filter_heuristics(png_ptr, heuristic_method, num_weights) == 0)
1320:fltk-1.3.4-1/png/pngwrite.c ****       return;
1321:fltk-1.3.4-1/png/pngwrite.c **** 
1322:fltk-1.3.4-1/png/pngwrite.c ****    /* If using the weighted method copy in the weights. */
1323:fltk-1.3.4-1/png/pngwrite.c ****    if (heuristic_method == PNG_FILTER_HEURISTIC_WEIGHTED)
1324:fltk-1.3.4-1/png/pngwrite.c ****    {
1325:fltk-1.3.4-1/png/pngwrite.c ****       int i;
1326:fltk-1.3.4-1/png/pngwrite.c ****       for (i = 0; i < num_weights; i++)
1327:fltk-1.3.4-1/png/pngwrite.c ****       {
1328:fltk-1.3.4-1/png/pngwrite.c ****          if (filter_weights[i] <= 0)
1329:fltk-1.3.4-1/png/pngwrite.c ****          {
1330:fltk-1.3.4-1/png/pngwrite.c ****             png_ptr->inv_filter_weights[i] =
1331:fltk-1.3.4-1/png/pngwrite.c ****             png_ptr->filter_weights[i] = PNG_WEIGHT_FACTOR;
1332:fltk-1.3.4-1/png/pngwrite.c ****          }
1333:fltk-1.3.4-1/png/pngwrite.c **** 
1334:fltk-1.3.4-1/png/pngwrite.c ****          else
1335:fltk-1.3.4-1/png/pngwrite.c ****          {
1336:fltk-1.3.4-1/png/pngwrite.c ****             png_ptr->inv_filter_weights[i] = (png_uint_16)
1337:fltk-1.3.4-1/png/pngwrite.c ****                ((PNG_WEIGHT_FACTOR*filter_weights[i]+PNG_FP_HALF)/PNG_FP_1);
1338:fltk-1.3.4-1/png/pngwrite.c **** 
1339:fltk-1.3.4-1/png/pngwrite.c ****             png_ptr->filter_weights[i] = (png_uint_16)((PNG_WEIGHT_FACTOR*
1340:fltk-1.3.4-1/png/pngwrite.c ****                PNG_FP_1+(filter_weights[i]/2))/filter_weights[i]);
1341:fltk-1.3.4-1/png/pngwrite.c ****          }
1342:fltk-1.3.4-1/png/pngwrite.c ****       }
1343:fltk-1.3.4-1/png/pngwrite.c **** 
1344:fltk-1.3.4-1/png/pngwrite.c ****       /* Here is where we set the relative costs of the different filters.  We
1345:fltk-1.3.4-1/png/pngwrite.c ****        * should take the desired compression level into account when setting
1346:fltk-1.3.4-1/png/pngwrite.c ****        * the costs, so that Paeth, for instance, has a high relative cost at low
1347:fltk-1.3.4-1/png/pngwrite.c ****        * compression levels, while it has a lower relative cost at higher
1348:fltk-1.3.4-1/png/pngwrite.c ****        * compression settings.  The filter types are in order of increasing
1349:fltk-1.3.4-1/png/pngwrite.c ****        * relative cost, so it would be possible to do this with an algorithm.
1350:fltk-1.3.4-1/png/pngwrite.c ****        */
1351:fltk-1.3.4-1/png/pngwrite.c ****       for (i = 0; i < PNG_FILTER_VALUE_LAST; i++)
1352:fltk-1.3.4-1/png/pngwrite.c ****          if (filter_costs[i] >= PNG_FP_1)
1353:fltk-1.3.4-1/png/pngwrite.c ****       {
1354:fltk-1.3.4-1/png/pngwrite.c ****          png_uint_32 tmp;
1355:fltk-1.3.4-1/png/pngwrite.c **** 
1356:fltk-1.3.4-1/png/pngwrite.c ****          /* Use a 32 bit unsigned temporary here because otherwise the
1357:fltk-1.3.4-1/png/pngwrite.c ****           * intermediate value will be a 32 bit *signed* integer (ANSI rules)
1358:fltk-1.3.4-1/png/pngwrite.c ****           * and this will get the wrong answer on division.
1359:fltk-1.3.4-1/png/pngwrite.c ****           */
1360:fltk-1.3.4-1/png/pngwrite.c ****          tmp = PNG_COST_FACTOR*PNG_FP_1 + (filter_costs[i]/2);
1361:fltk-1.3.4-1/png/pngwrite.c ****          tmp /= filter_costs[i];
1362:fltk-1.3.4-1/png/pngwrite.c **** 
1363:fltk-1.3.4-1/png/pngwrite.c ****          png_ptr->inv_filter_costs[i] = (png_uint_16)tmp;
1364:fltk-1.3.4-1/png/pngwrite.c **** 
1365:fltk-1.3.4-1/png/pngwrite.c ****          tmp = PNG_COST_FACTOR * filter_costs[i] + PNG_FP_HALF;
1366:fltk-1.3.4-1/png/pngwrite.c ****          tmp /= PNG_FP_1;
1367:fltk-1.3.4-1/png/pngwrite.c **** 
1368:fltk-1.3.4-1/png/pngwrite.c ****          png_ptr->filter_costs[i] = (png_uint_16)tmp;
1369:fltk-1.3.4-1/png/pngwrite.c ****       }
1370:fltk-1.3.4-1/png/pngwrite.c ****    }
1371:fltk-1.3.4-1/png/pngwrite.c **** }
1372:fltk-1.3.4-1/png/pngwrite.c **** #endif /* FIXED_POINT */
1373:fltk-1.3.4-1/png/pngwrite.c **** #endif /* WRITE_WEIGHTED_FILTER */
1374:fltk-1.3.4-1/png/pngwrite.c **** 
1375:fltk-1.3.4-1/png/pngwrite.c **** void PNGAPI
1376:fltk-1.3.4-1/png/pngwrite.c **** png_set_compression_level(png_structrp png_ptr, int level)
1377:fltk-1.3.4-1/png/pngwrite.c **** {
1378:fltk-1.3.4-1/png/pngwrite.c ****    png_debug(1, "in png_set_compression_level");
1379:fltk-1.3.4-1/png/pngwrite.c **** 
1380:fltk-1.3.4-1/png/pngwrite.c ****    if (png_ptr == NULL)
1381:fltk-1.3.4-1/png/pngwrite.c ****       return;
1382:fltk-1.3.4-1/png/pngwrite.c **** 
1383:fltk-1.3.4-1/png/pngwrite.c ****    png_ptr->zlib_level = level;
1384:fltk-1.3.4-1/png/pngwrite.c **** }
1385:fltk-1.3.4-1/png/pngwrite.c **** 
1386:fltk-1.3.4-1/png/pngwrite.c **** void PNGAPI
1387:fltk-1.3.4-1/png/pngwrite.c **** png_set_compression_mem_level(png_structrp png_ptr, int mem_level)
1388:fltk-1.3.4-1/png/pngwrite.c **** {
1389:fltk-1.3.4-1/png/pngwrite.c ****    png_debug(1, "in png_set_compression_mem_level");
1390:fltk-1.3.4-1/png/pngwrite.c **** 
1391:fltk-1.3.4-1/png/pngwrite.c ****    if (png_ptr == NULL)
1392:fltk-1.3.4-1/png/pngwrite.c ****       return;
1393:fltk-1.3.4-1/png/pngwrite.c **** 
1394:fltk-1.3.4-1/png/pngwrite.c ****    png_ptr->zlib_mem_level = mem_level;
1395:fltk-1.3.4-1/png/pngwrite.c **** }
1396:fltk-1.3.4-1/png/pngwrite.c **** 
1397:fltk-1.3.4-1/png/pngwrite.c **** void PNGAPI
1398:fltk-1.3.4-1/png/pngwrite.c **** png_set_compression_strategy(png_structrp png_ptr, int strategy)
1399:fltk-1.3.4-1/png/pngwrite.c **** {
1400:fltk-1.3.4-1/png/pngwrite.c ****    png_debug(1, "in png_set_compression_strategy");
1401:fltk-1.3.4-1/png/pngwrite.c **** 
1402:fltk-1.3.4-1/png/pngwrite.c ****    if (png_ptr == NULL)
1403:fltk-1.3.4-1/png/pngwrite.c ****       return;
1404:fltk-1.3.4-1/png/pngwrite.c **** 
1405:fltk-1.3.4-1/png/pngwrite.c ****    /* The flag setting here prevents the libpng dynamic selection of strategy.
1406:fltk-1.3.4-1/png/pngwrite.c ****     */
1407:fltk-1.3.4-1/png/pngwrite.c ****    png_ptr->flags |= PNG_FLAG_ZLIB_CUSTOM_STRATEGY;
1408:fltk-1.3.4-1/png/pngwrite.c ****    png_ptr->zlib_strategy = strategy;
1409:fltk-1.3.4-1/png/pngwrite.c **** }
1410:fltk-1.3.4-1/png/pngwrite.c **** 
1411:fltk-1.3.4-1/png/pngwrite.c **** /* If PNG_WRITE_OPTIMIZE_CMF_SUPPORTED is defined, libpng will use a
1412:fltk-1.3.4-1/png/pngwrite.c ****  * smaller value of window_bits if it can do so safely.
1413:fltk-1.3.4-1/png/pngwrite.c ****  */
1414:fltk-1.3.4-1/png/pngwrite.c **** void PNGAPI
1415:fltk-1.3.4-1/png/pngwrite.c **** png_set_compression_window_bits(png_structrp png_ptr, int window_bits)
1416:fltk-1.3.4-1/png/pngwrite.c **** {
1417:fltk-1.3.4-1/png/pngwrite.c ****    if (png_ptr == NULL)
1418:fltk-1.3.4-1/png/pngwrite.c ****       return;
1419:fltk-1.3.4-1/png/pngwrite.c **** 
1420:fltk-1.3.4-1/png/pngwrite.c ****    /* Prior to 1.6.0 this would warn but then set the window_bits value, this
1421:fltk-1.3.4-1/png/pngwrite.c ****     * meant that negative window bits values could be selected which would cause
1422:fltk-1.3.4-1/png/pngwrite.c ****     * libpng to write a non-standard PNG file with raw deflate or gzip
1423:fltk-1.3.4-1/png/pngwrite.c ****     * compressed IDAT or ancillary chunks.  Such files can be read and there is
1424:fltk-1.3.4-1/png/pngwrite.c ****     * no warning on read, so this seems like a very bad idea.
1425:fltk-1.3.4-1/png/pngwrite.c ****     */
1426:fltk-1.3.4-1/png/pngwrite.c ****    if (window_bits > 15)
1427:fltk-1.3.4-1/png/pngwrite.c ****    {
1428:fltk-1.3.4-1/png/pngwrite.c ****       png_warning(png_ptr, "Only compression windows <= 32k supported by PNG");
1429:fltk-1.3.4-1/png/pngwrite.c ****       window_bits = 15;
1430:fltk-1.3.4-1/png/pngwrite.c ****    }
1431:fltk-1.3.4-1/png/pngwrite.c **** 
1432:fltk-1.3.4-1/png/pngwrite.c ****    else if (window_bits < 8)
1433:fltk-1.3.4-1/png/pngwrite.c ****    {
1434:fltk-1.3.4-1/png/pngwrite.c ****       png_warning(png_ptr, "Only compression windows >= 256 supported by PNG");
1435:fltk-1.3.4-1/png/pngwrite.c ****       window_bits = 8;
1436:fltk-1.3.4-1/png/pngwrite.c ****    }
1437:fltk-1.3.4-1/png/pngwrite.c **** 
1438:fltk-1.3.4-1/png/pngwrite.c ****    png_ptr->zlib_window_bits = window_bits;
1439:fltk-1.3.4-1/png/pngwrite.c **** }
1440:fltk-1.3.4-1/png/pngwrite.c **** 
1441:fltk-1.3.4-1/png/pngwrite.c **** void PNGAPI
1442:fltk-1.3.4-1/png/pngwrite.c **** png_set_compression_method(png_structrp png_ptr, int method)
1443:fltk-1.3.4-1/png/pngwrite.c **** {
1444:fltk-1.3.4-1/png/pngwrite.c ****    png_debug(1, "in png_set_compression_method");
1445:fltk-1.3.4-1/png/pngwrite.c **** 
1446:fltk-1.3.4-1/png/pngwrite.c ****    if (png_ptr == NULL)
1447:fltk-1.3.4-1/png/pngwrite.c ****       return;
1448:fltk-1.3.4-1/png/pngwrite.c **** 
1449:fltk-1.3.4-1/png/pngwrite.c ****    /* This would produce an invalid PNG file if it worked, but it doesn't and
1450:fltk-1.3.4-1/png/pngwrite.c ****     * deflate will fault it, so it is harmless to just warn here.
1451:fltk-1.3.4-1/png/pngwrite.c ****     */
1452:fltk-1.3.4-1/png/pngwrite.c ****    if (method != 8)
1453:fltk-1.3.4-1/png/pngwrite.c ****       png_warning(png_ptr, "Only compression method 8 is supported by PNG");
1454:fltk-1.3.4-1/png/pngwrite.c **** 
1455:fltk-1.3.4-1/png/pngwrite.c ****    png_ptr->zlib_method = method;
1456:fltk-1.3.4-1/png/pngwrite.c **** }
1457:fltk-1.3.4-1/png/pngwrite.c **** 
1458:fltk-1.3.4-1/png/pngwrite.c **** /* The following were added to libpng-1.5.4 */
1459:fltk-1.3.4-1/png/pngwrite.c **** #ifdef PNG_WRITE_CUSTOMIZE_ZTXT_COMPRESSION_SUPPORTED
1460:fltk-1.3.4-1/png/pngwrite.c **** void PNGAPI
1461:fltk-1.3.4-1/png/pngwrite.c **** png_set_text_compression_level(png_structrp png_ptr, int level)
1462:fltk-1.3.4-1/png/pngwrite.c **** {
1463:fltk-1.3.4-1/png/pngwrite.c ****    png_debug(1, "in png_set_text_compression_level");
1464:fltk-1.3.4-1/png/pngwrite.c **** 
1465:fltk-1.3.4-1/png/pngwrite.c ****    if (png_ptr == NULL)
1466:fltk-1.3.4-1/png/pngwrite.c ****       return;
1467:fltk-1.3.4-1/png/pngwrite.c **** 
1468:fltk-1.3.4-1/png/pngwrite.c ****    png_ptr->zlib_text_level = level;
1469:fltk-1.3.4-1/png/pngwrite.c **** }
1470:fltk-1.3.4-1/png/pngwrite.c **** 
1471:fltk-1.3.4-1/png/pngwrite.c **** void PNGAPI
1472:fltk-1.3.4-1/png/pngwrite.c **** png_set_text_compression_mem_level(png_structrp png_ptr, int mem_level)
1473:fltk-1.3.4-1/png/pngwrite.c **** {
1474:fltk-1.3.4-1/png/pngwrite.c ****    png_debug(1, "in png_set_text_compression_mem_level");
1475:fltk-1.3.4-1/png/pngwrite.c **** 
1476:fltk-1.3.4-1/png/pngwrite.c ****    if (png_ptr == NULL)
1477:fltk-1.3.4-1/png/pngwrite.c ****       return;
1478:fltk-1.3.4-1/png/pngwrite.c **** 
1479:fltk-1.3.4-1/png/pngwrite.c ****    png_ptr->zlib_text_mem_level = mem_level;
1480:fltk-1.3.4-1/png/pngwrite.c **** }
1481:fltk-1.3.4-1/png/pngwrite.c **** 
1482:fltk-1.3.4-1/png/pngwrite.c **** void PNGAPI
1483:fltk-1.3.4-1/png/pngwrite.c **** png_set_text_compression_strategy(png_structrp png_ptr, int strategy)
1484:fltk-1.3.4-1/png/pngwrite.c **** {
1485:fltk-1.3.4-1/png/pngwrite.c ****    png_debug(1, "in png_set_text_compression_strategy");
1486:fltk-1.3.4-1/png/pngwrite.c **** 
1487:fltk-1.3.4-1/png/pngwrite.c ****    if (png_ptr == NULL)
1488:fltk-1.3.4-1/png/pngwrite.c ****       return;
1489:fltk-1.3.4-1/png/pngwrite.c **** 
1490:fltk-1.3.4-1/png/pngwrite.c ****    png_ptr->zlib_text_strategy = strategy;
1491:fltk-1.3.4-1/png/pngwrite.c **** }
1492:fltk-1.3.4-1/png/pngwrite.c **** 
1493:fltk-1.3.4-1/png/pngwrite.c **** /* If PNG_WRITE_OPTIMIZE_CMF_SUPPORTED is defined, libpng will use a
1494:fltk-1.3.4-1/png/pngwrite.c ****  * smaller value of window_bits if it can do so safely.
1495:fltk-1.3.4-1/png/pngwrite.c ****  */
1496:fltk-1.3.4-1/png/pngwrite.c **** void PNGAPI
1497:fltk-1.3.4-1/png/pngwrite.c **** png_set_text_compression_window_bits(png_structrp png_ptr, int window_bits)
1498:fltk-1.3.4-1/png/pngwrite.c **** {
1499:fltk-1.3.4-1/png/pngwrite.c ****    if (png_ptr == NULL)
1500:fltk-1.3.4-1/png/pngwrite.c ****       return;
1501:fltk-1.3.4-1/png/pngwrite.c **** 
1502:fltk-1.3.4-1/png/pngwrite.c ****    if (window_bits > 15)
1503:fltk-1.3.4-1/png/pngwrite.c ****    {
1504:fltk-1.3.4-1/png/pngwrite.c ****       png_warning(png_ptr, "Only compression windows <= 32k supported by PNG");
1505:fltk-1.3.4-1/png/pngwrite.c ****       window_bits = 15;
1506:fltk-1.3.4-1/png/pngwrite.c ****    }
1507:fltk-1.3.4-1/png/pngwrite.c **** 
1508:fltk-1.3.4-1/png/pngwrite.c ****    else if (window_bits < 8)
1509:fltk-1.3.4-1/png/pngwrite.c ****    {
1510:fltk-1.3.4-1/png/pngwrite.c ****       png_warning(png_ptr, "Only compression windows >= 256 supported by PNG");
1511:fltk-1.3.4-1/png/pngwrite.c ****       window_bits = 8;
1512:fltk-1.3.4-1/png/pngwrite.c ****    }
1513:fltk-1.3.4-1/png/pngwrite.c **** 
1514:fltk-1.3.4-1/png/pngwrite.c ****    png_ptr->zlib_text_window_bits = window_bits;
1515:fltk-1.3.4-1/png/pngwrite.c **** }
1516:fltk-1.3.4-1/png/pngwrite.c **** 
1517:fltk-1.3.4-1/png/pngwrite.c **** void PNGAPI
1518:fltk-1.3.4-1/png/pngwrite.c **** png_set_text_compression_method(png_structrp png_ptr, int method)
1519:fltk-1.3.4-1/png/pngwrite.c **** {
1520:fltk-1.3.4-1/png/pngwrite.c ****    png_debug(1, "in png_set_text_compression_method");
1521:fltk-1.3.4-1/png/pngwrite.c **** 
1522:fltk-1.3.4-1/png/pngwrite.c ****    if (png_ptr == NULL)
1523:fltk-1.3.4-1/png/pngwrite.c ****       return;
1524:fltk-1.3.4-1/png/pngwrite.c **** 
1525:fltk-1.3.4-1/png/pngwrite.c ****    if (method != 8)
1526:fltk-1.3.4-1/png/pngwrite.c ****       png_warning(png_ptr, "Only compression method 8 is supported by PNG");
1527:fltk-1.3.4-1/png/pngwrite.c **** 
1528:fltk-1.3.4-1/png/pngwrite.c ****    png_ptr->zlib_text_method = method;
1529:fltk-1.3.4-1/png/pngwrite.c **** }
1530:fltk-1.3.4-1/png/pngwrite.c **** #endif /* WRITE_CUSTOMIZE_ZTXT_COMPRESSION */
1531:fltk-1.3.4-1/png/pngwrite.c **** /* end of API added to libpng-1.5.4 */
1532:fltk-1.3.4-1/png/pngwrite.c **** 
1533:fltk-1.3.4-1/png/pngwrite.c **** void PNGAPI
1534:fltk-1.3.4-1/png/pngwrite.c **** png_set_write_status_fn(png_structrp png_ptr, png_write_status_ptr write_row_fn)
1535:fltk-1.3.4-1/png/pngwrite.c **** {
1536:fltk-1.3.4-1/png/pngwrite.c ****    if (png_ptr == NULL)
1537:fltk-1.3.4-1/png/pngwrite.c ****       return;
1538:fltk-1.3.4-1/png/pngwrite.c **** 
1539:fltk-1.3.4-1/png/pngwrite.c ****    png_ptr->write_row_fn = write_row_fn;
1540:fltk-1.3.4-1/png/pngwrite.c **** }
1541:fltk-1.3.4-1/png/pngwrite.c **** 
1542:fltk-1.3.4-1/png/pngwrite.c **** #ifdef PNG_WRITE_USER_TRANSFORM_SUPPORTED
1543:fltk-1.3.4-1/png/pngwrite.c **** void PNGAPI
1544:fltk-1.3.4-1/png/pngwrite.c **** png_set_write_user_transform_fn(png_structrp png_ptr, png_user_transform_ptr
1545:fltk-1.3.4-1/png/pngwrite.c ****     write_user_transform_fn)
1546:fltk-1.3.4-1/png/pngwrite.c **** {
1547:fltk-1.3.4-1/png/pngwrite.c ****    png_debug(1, "in png_set_write_user_transform_fn");
1548:fltk-1.3.4-1/png/pngwrite.c **** 
1549:fltk-1.3.4-1/png/pngwrite.c ****    if (png_ptr == NULL)
1550:fltk-1.3.4-1/png/pngwrite.c ****       return;
1551:fltk-1.3.4-1/png/pngwrite.c **** 
1552:fltk-1.3.4-1/png/pngwrite.c ****    png_ptr->transformations |= PNG_USER_TRANSFORM;
1553:fltk-1.3.4-1/png/pngwrite.c ****    png_ptr->write_user_transform_fn = write_user_transform_fn;
1554:fltk-1.3.4-1/png/pngwrite.c **** }
1555:fltk-1.3.4-1/png/pngwrite.c **** #endif
1556:fltk-1.3.4-1/png/pngwrite.c **** 
1557:fltk-1.3.4-1/png/pngwrite.c **** 
1558:fltk-1.3.4-1/png/pngwrite.c **** #ifdef PNG_INFO_IMAGE_SUPPORTED
1559:fltk-1.3.4-1/png/pngwrite.c **** void PNGAPI
1560:fltk-1.3.4-1/png/pngwrite.c **** png_write_png(png_structrp png_ptr, png_inforp info_ptr,
1561:fltk-1.3.4-1/png/pngwrite.c ****     int transforms, voidp params)
1562:fltk-1.3.4-1/png/pngwrite.c **** {
1563:fltk-1.3.4-1/png/pngwrite.c ****    if (png_ptr == NULL || info_ptr == NULL)
1564:fltk-1.3.4-1/png/pngwrite.c ****       return;
1565:fltk-1.3.4-1/png/pngwrite.c **** 
1566:fltk-1.3.4-1/png/pngwrite.c ****    if ((info_ptr->valid & PNG_INFO_IDAT) == 0)
1567:fltk-1.3.4-1/png/pngwrite.c ****    {
1568:fltk-1.3.4-1/png/pngwrite.c ****       png_app_error(png_ptr, "no rows for png_write_image to write");
1569:fltk-1.3.4-1/png/pngwrite.c ****       return;
1570:fltk-1.3.4-1/png/pngwrite.c ****    }
1571:fltk-1.3.4-1/png/pngwrite.c **** 
1572:fltk-1.3.4-1/png/pngwrite.c ****    /* Write the file header information. */
1573:fltk-1.3.4-1/png/pngwrite.c ****    png_write_info(png_ptr, info_ptr);
1574:fltk-1.3.4-1/png/pngwrite.c **** 
1575:fltk-1.3.4-1/png/pngwrite.c ****    /* ------ these transformations don't touch the info structure ------- */
1576:fltk-1.3.4-1/png/pngwrite.c **** 
1577:fltk-1.3.4-1/png/pngwrite.c ****    /* Invert monochrome pixels */
1578:fltk-1.3.4-1/png/pngwrite.c ****    if ((transforms & PNG_TRANSFORM_INVERT_MONO) != 0)
1579:fltk-1.3.4-1/png/pngwrite.c **** #ifdef PNG_WRITE_INVERT_SUPPORTED
1580:fltk-1.3.4-1/png/pngwrite.c ****       png_set_invert_mono(png_ptr);
1581:fltk-1.3.4-1/png/pngwrite.c **** #else
1582:fltk-1.3.4-1/png/pngwrite.c ****       png_app_error(png_ptr, "PNG_TRANSFORM_INVERT_MONO not supported");
1583:fltk-1.3.4-1/png/pngwrite.c **** #endif
1584:fltk-1.3.4-1/png/pngwrite.c **** 
1585:fltk-1.3.4-1/png/pngwrite.c ****    /* Shift the pixels up to a legal bit depth and fill in
1586:fltk-1.3.4-1/png/pngwrite.c ****     * as appropriate to correctly scale the image.
1587:fltk-1.3.4-1/png/pngwrite.c ****     */
1588:fltk-1.3.4-1/png/pngwrite.c ****    if ((transforms & PNG_TRANSFORM_SHIFT) != 0)
1589:fltk-1.3.4-1/png/pngwrite.c **** #ifdef PNG_WRITE_SHIFT_SUPPORTED
1590:fltk-1.3.4-1/png/pngwrite.c ****       if ((info_ptr->valid & PNG_INFO_sBIT) != 0)
1591:fltk-1.3.4-1/png/pngwrite.c ****          png_set_shift(png_ptr, &info_ptr->sig_bit);
1592:fltk-1.3.4-1/png/pngwrite.c **** #else
1593:fltk-1.3.4-1/png/pngwrite.c ****       png_app_error(png_ptr, "PNG_TRANSFORM_SHIFT not supported");
1594:fltk-1.3.4-1/png/pngwrite.c **** #endif
1595:fltk-1.3.4-1/png/pngwrite.c **** 
1596:fltk-1.3.4-1/png/pngwrite.c ****    /* Pack pixels into bytes */
1597:fltk-1.3.4-1/png/pngwrite.c ****    if ((transforms & PNG_TRANSFORM_PACKING) != 0)
1598:fltk-1.3.4-1/png/pngwrite.c **** #ifdef PNG_WRITE_PACK_SUPPORTED
1599:fltk-1.3.4-1/png/pngwrite.c ****       png_set_packing(png_ptr);
1600:fltk-1.3.4-1/png/pngwrite.c **** #else
1601:fltk-1.3.4-1/png/pngwrite.c ****       png_app_error(png_ptr, "PNG_TRANSFORM_PACKING not supported");
1602:fltk-1.3.4-1/png/pngwrite.c **** #endif
1603:fltk-1.3.4-1/png/pngwrite.c **** 
1604:fltk-1.3.4-1/png/pngwrite.c ****    /* Swap location of alpha bytes from ARGB to RGBA */
1605:fltk-1.3.4-1/png/pngwrite.c ****    if ((transforms & PNG_TRANSFORM_SWAP_ALPHA) != 0)
1606:fltk-1.3.4-1/png/pngwrite.c **** #ifdef PNG_WRITE_SWAP_ALPHA_SUPPORTED
1607:fltk-1.3.4-1/png/pngwrite.c ****       png_set_swap_alpha(png_ptr);
1608:fltk-1.3.4-1/png/pngwrite.c **** #else
1609:fltk-1.3.4-1/png/pngwrite.c ****       png_app_error(png_ptr, "PNG_TRANSFORM_SWAP_ALPHA not supported");
1610:fltk-1.3.4-1/png/pngwrite.c **** #endif
1611:fltk-1.3.4-1/png/pngwrite.c **** 
1612:fltk-1.3.4-1/png/pngwrite.c ****    /* Remove a filler (X) from XRGB/RGBX/AG/GA into to convert it into
1613:fltk-1.3.4-1/png/pngwrite.c ****     * RGB, note that the code expects the input color type to be G or RGB; no
1614:fltk-1.3.4-1/png/pngwrite.c ****     * alpha channel.
1615:fltk-1.3.4-1/png/pngwrite.c ****     */
1616:fltk-1.3.4-1/png/pngwrite.c ****    if ((transforms & (PNG_TRANSFORM_STRIP_FILLER_AFTER|
1617:fltk-1.3.4-1/png/pngwrite.c ****       PNG_TRANSFORM_STRIP_FILLER_BEFORE)) != 0)
1618:fltk-1.3.4-1/png/pngwrite.c ****    {
1619:fltk-1.3.4-1/png/pngwrite.c **** #ifdef PNG_WRITE_FILLER_SUPPORTED
1620:fltk-1.3.4-1/png/pngwrite.c ****       if ((transforms & PNG_TRANSFORM_STRIP_FILLER_AFTER) != 0)
1621:fltk-1.3.4-1/png/pngwrite.c ****       {
1622:fltk-1.3.4-1/png/pngwrite.c ****          if ((transforms & PNG_TRANSFORM_STRIP_FILLER_BEFORE) != 0)
1623:fltk-1.3.4-1/png/pngwrite.c ****             png_app_error(png_ptr,
1624:fltk-1.3.4-1/png/pngwrite.c ****                "PNG_TRANSFORM_STRIP_FILLER: BEFORE+AFTER not supported");
1625:fltk-1.3.4-1/png/pngwrite.c **** 
1626:fltk-1.3.4-1/png/pngwrite.c ****          /* Continue if ignored - this is the pre-1.6.10 behavior */
1627:fltk-1.3.4-1/png/pngwrite.c ****          png_set_filler(png_ptr, 0, PNG_FILLER_AFTER);
1628:fltk-1.3.4-1/png/pngwrite.c ****       }
1629:fltk-1.3.4-1/png/pngwrite.c **** 
1630:fltk-1.3.4-1/png/pngwrite.c ****       else if ((transforms & PNG_TRANSFORM_STRIP_FILLER_BEFORE) != 0)
1631:fltk-1.3.4-1/png/pngwrite.c ****          png_set_filler(png_ptr, 0, PNG_FILLER_BEFORE);
1632:fltk-1.3.4-1/png/pngwrite.c **** #else
1633:fltk-1.3.4-1/png/pngwrite.c ****       png_app_error(png_ptr, "PNG_TRANSFORM_STRIP_FILLER not supported");
1634:fltk-1.3.4-1/png/pngwrite.c **** #endif
1635:fltk-1.3.4-1/png/pngwrite.c ****    }
1636:fltk-1.3.4-1/png/pngwrite.c **** 
1637:fltk-1.3.4-1/png/pngwrite.c ****    /* Flip BGR pixels to RGB */
1638:fltk-1.3.4-1/png/pngwrite.c ****    if ((transforms & PNG_TRANSFORM_BGR) != 0)
1639:fltk-1.3.4-1/png/pngwrite.c **** #ifdef PNG_WRITE_BGR_SUPPORTED
1640:fltk-1.3.4-1/png/pngwrite.c ****       png_set_bgr(png_ptr);
1641:fltk-1.3.4-1/png/pngwrite.c **** #else
1642:fltk-1.3.4-1/png/pngwrite.c ****       png_app_error(png_ptr, "PNG_TRANSFORM_BGR not supported");
1643:fltk-1.3.4-1/png/pngwrite.c **** #endif
1644:fltk-1.3.4-1/png/pngwrite.c **** 
1645:fltk-1.3.4-1/png/pngwrite.c ****    /* Swap bytes of 16-bit files to most significant byte first */
1646:fltk-1.3.4-1/png/pngwrite.c ****    if ((transforms & PNG_TRANSFORM_SWAP_ENDIAN) != 0)
1647:fltk-1.3.4-1/png/pngwrite.c **** #ifdef PNG_WRITE_SWAP_SUPPORTED
1648:fltk-1.3.4-1/png/pngwrite.c ****       png_set_swap(png_ptr);
1649:fltk-1.3.4-1/png/pngwrite.c **** #else
1650:fltk-1.3.4-1/png/pngwrite.c ****       png_app_error(png_ptr, "PNG_TRANSFORM_SWAP_ENDIAN not supported");
1651:fltk-1.3.4-1/png/pngwrite.c **** #endif
1652:fltk-1.3.4-1/png/pngwrite.c **** 
1653:fltk-1.3.4-1/png/pngwrite.c ****    /* Swap bits of 1, 2, 4 bit packed pixel formats */
1654:fltk-1.3.4-1/png/pngwrite.c ****    if ((transforms & PNG_TRANSFORM_PACKSWAP) != 0)
1655:fltk-1.3.4-1/png/pngwrite.c **** #ifdef PNG_WRITE_PACKSWAP_SUPPORTED
1656:fltk-1.3.4-1/png/pngwrite.c ****       png_set_packswap(png_ptr);
1657:fltk-1.3.4-1/png/pngwrite.c **** #else
1658:fltk-1.3.4-1/png/pngwrite.c ****       png_app_error(png_ptr, "PNG_TRANSFORM_PACKSWAP not supported");
1659:fltk-1.3.4-1/png/pngwrite.c **** #endif
1660:fltk-1.3.4-1/png/pngwrite.c **** 
1661:fltk-1.3.4-1/png/pngwrite.c ****    /* Invert the alpha channel from opacity to transparency */
1662:fltk-1.3.4-1/png/pngwrite.c ****    if ((transforms & PNG_TRANSFORM_INVERT_ALPHA) != 0)
1663:fltk-1.3.4-1/png/pngwrite.c **** #ifdef PNG_WRITE_INVERT_ALPHA_SUPPORTED
1664:fltk-1.3.4-1/png/pngwrite.c ****       png_set_invert_alpha(png_ptr);
1665:fltk-1.3.4-1/png/pngwrite.c **** #else
1666:fltk-1.3.4-1/png/pngwrite.c ****       png_app_error(png_ptr, "PNG_TRANSFORM_INVERT_ALPHA not supported");
1667:fltk-1.3.4-1/png/pngwrite.c **** #endif
1668:fltk-1.3.4-1/png/pngwrite.c **** 
1669:fltk-1.3.4-1/png/pngwrite.c ****    /* ----------------------- end of transformations ------------------- */
1670:fltk-1.3.4-1/png/pngwrite.c **** 
1671:fltk-1.3.4-1/png/pngwrite.c ****    /* Write the bits */
1672:fltk-1.3.4-1/png/pngwrite.c ****    png_write_image(png_ptr, info_ptr->row_pointers);
1673:fltk-1.3.4-1/png/pngwrite.c **** 
1674:fltk-1.3.4-1/png/pngwrite.c ****    /* It is REQUIRED to call this to finish writing the rest of the file */
1675:fltk-1.3.4-1/png/pngwrite.c ****    png_write_end(png_ptr, info_ptr);
1676:fltk-1.3.4-1/png/pngwrite.c **** 
1677:fltk-1.3.4-1/png/pngwrite.c ****    PNG_UNUSED(params)
1678:fltk-1.3.4-1/png/pngwrite.c **** }
1679:fltk-1.3.4-1/png/pngwrite.c **** #endif
1680:fltk-1.3.4-1/png/pngwrite.c **** 
1681:fltk-1.3.4-1/png/pngwrite.c **** 
1682:fltk-1.3.4-1/png/pngwrite.c **** #ifdef PNG_SIMPLIFIED_WRITE_SUPPORTED
1683:fltk-1.3.4-1/png/pngwrite.c **** #ifdef PNG_STDIO_SUPPORTED /* currently required for png_image_write_* */
1684:fltk-1.3.4-1/png/pngwrite.c **** /* Initialize the write structure - general purpose utility. */
1685:fltk-1.3.4-1/png/pngwrite.c **** static int
1686:fltk-1.3.4-1/png/pngwrite.c **** png_image_write_init(png_imagep image)
1687:fltk-1.3.4-1/png/pngwrite.c **** {
1688:fltk-1.3.4-1/png/pngwrite.c ****    png_structp png_ptr = png_create_write_struct(PNG_LIBPNG_VER_STRING, image,
1689:fltk-1.3.4-1/png/pngwrite.c ****           png_safe_error, png_safe_warning);
1690:fltk-1.3.4-1/png/pngwrite.c **** 
1691:fltk-1.3.4-1/png/pngwrite.c ****    if (png_ptr != NULL)
1692:fltk-1.3.4-1/png/pngwrite.c ****    {
1693:fltk-1.3.4-1/png/pngwrite.c ****       png_infop info_ptr = png_create_info_struct(png_ptr);
1694:fltk-1.3.4-1/png/pngwrite.c **** 
1695:fltk-1.3.4-1/png/pngwrite.c ****       if (info_ptr != NULL)
1696:fltk-1.3.4-1/png/pngwrite.c ****       {
1697:fltk-1.3.4-1/png/pngwrite.c ****          png_controlp control = png_voidcast(png_controlp,
1698:fltk-1.3.4-1/png/pngwrite.c ****             png_malloc_warn(png_ptr, (sizeof *control)));
1699:fltk-1.3.4-1/png/pngwrite.c **** 
1700:fltk-1.3.4-1/png/pngwrite.c ****          if (control != NULL)
1701:fltk-1.3.4-1/png/pngwrite.c ****          {
1702:fltk-1.3.4-1/png/pngwrite.c ****             memset(control, 0, (sizeof *control));
1703:fltk-1.3.4-1/png/pngwrite.c **** 
1704:fltk-1.3.4-1/png/pngwrite.c ****             control->png_ptr = png_ptr;
1705:fltk-1.3.4-1/png/pngwrite.c ****             control->info_ptr = info_ptr;
1706:fltk-1.3.4-1/png/pngwrite.c ****             control->for_write = 1;
1707:fltk-1.3.4-1/png/pngwrite.c **** 
1708:fltk-1.3.4-1/png/pngwrite.c ****             image->opaque = control;
1709:fltk-1.3.4-1/png/pngwrite.c ****             return 1;
1710:fltk-1.3.4-1/png/pngwrite.c ****          }
1711:fltk-1.3.4-1/png/pngwrite.c **** 
1712:fltk-1.3.4-1/png/pngwrite.c ****          /* Error clean up */
1713:fltk-1.3.4-1/png/pngwrite.c ****          png_destroy_info_struct(png_ptr, &info_ptr);
1714:fltk-1.3.4-1/png/pngwrite.c ****       }
1715:fltk-1.3.4-1/png/pngwrite.c **** 
1716:fltk-1.3.4-1/png/pngwrite.c ****       png_destroy_write_struct(&png_ptr, NULL);
1717:fltk-1.3.4-1/png/pngwrite.c ****    }
1718:fltk-1.3.4-1/png/pngwrite.c **** 
1719:fltk-1.3.4-1/png/pngwrite.c ****    return png_image_error(image, "png_image_write_: out of memory");
1720:fltk-1.3.4-1/png/pngwrite.c **** }
1721:fltk-1.3.4-1/png/pngwrite.c **** 
1722:fltk-1.3.4-1/png/pngwrite.c **** /* Arguments to png_image_write_main: */
1723:fltk-1.3.4-1/png/pngwrite.c **** typedef struct
1724:fltk-1.3.4-1/png/pngwrite.c **** {
1725:fltk-1.3.4-1/png/pngwrite.c ****    /* Arguments: */
1726:fltk-1.3.4-1/png/pngwrite.c ****    png_imagep      image;
1727:fltk-1.3.4-1/png/pngwrite.c ****    png_const_voidp buffer;
1728:fltk-1.3.4-1/png/pngwrite.c ****    png_int_32      row_stride;
1729:fltk-1.3.4-1/png/pngwrite.c ****    png_const_voidp colormap;
1730:fltk-1.3.4-1/png/pngwrite.c ****    int             convert_to_8bit;
1731:fltk-1.3.4-1/png/pngwrite.c ****    /* Local variables: */
1732:fltk-1.3.4-1/png/pngwrite.c ****    png_const_voidp first_row;
1733:fltk-1.3.4-1/png/pngwrite.c ****    ptrdiff_t       row_bytes;
1734:fltk-1.3.4-1/png/pngwrite.c ****    png_voidp       local_row;
1735:fltk-1.3.4-1/png/pngwrite.c **** } png_image_write_control;
1736:fltk-1.3.4-1/png/pngwrite.c **** 
1737:fltk-1.3.4-1/png/pngwrite.c **** /* Write png_uint_16 input to a 16-bit PNG; the png_ptr has already been set to
1738:fltk-1.3.4-1/png/pngwrite.c ****  * do any necessary byte swapping.  The component order is defined by the
1739:fltk-1.3.4-1/png/pngwrite.c ****  * png_image format value.
1740:fltk-1.3.4-1/png/pngwrite.c ****  */
1741:fltk-1.3.4-1/png/pngwrite.c **** static int
1742:fltk-1.3.4-1/png/pngwrite.c **** png_write_image_16bit(png_voidp argument)
1743:fltk-1.3.4-1/png/pngwrite.c **** {
1744:fltk-1.3.4-1/png/pngwrite.c ****    png_image_write_control *display = png_voidcast(png_image_write_control*,
1745:fltk-1.3.4-1/png/pngwrite.c ****       argument);
1746:fltk-1.3.4-1/png/pngwrite.c ****    png_imagep image = display->image;
1747:fltk-1.3.4-1/png/pngwrite.c ****    png_structrp png_ptr = image->opaque->png_ptr;
1748:fltk-1.3.4-1/png/pngwrite.c **** 
1749:fltk-1.3.4-1/png/pngwrite.c ****    png_const_uint_16p input_row = png_voidcast(png_const_uint_16p,
1750:fltk-1.3.4-1/png/pngwrite.c ****       display->first_row);
1751:fltk-1.3.4-1/png/pngwrite.c ****    png_uint_16p output_row = png_voidcast(png_uint_16p, display->local_row);
1752:fltk-1.3.4-1/png/pngwrite.c ****    png_uint_16p row_end;
1753:fltk-1.3.4-1/png/pngwrite.c ****    const int channels = (image->format & PNG_FORMAT_FLAG_COLOR) != 0 ? 3 : 1;
1754:fltk-1.3.4-1/png/pngwrite.c ****    int aindex = 0;
1755:fltk-1.3.4-1/png/pngwrite.c ****    png_uint_32 y = image->height;
1756:fltk-1.3.4-1/png/pngwrite.c **** 
1757:fltk-1.3.4-1/png/pngwrite.c ****    if ((image->format & PNG_FORMAT_FLAG_ALPHA) != 0)
1758:fltk-1.3.4-1/png/pngwrite.c ****    {
1759:fltk-1.3.4-1/png/pngwrite.c **** #     ifdef PNG_SIMPLIFIED_WRITE_AFIRST_SUPPORTED
1760:fltk-1.3.4-1/png/pngwrite.c ****          if ((image->format & PNG_FORMAT_FLAG_AFIRST) != 0)
1761:fltk-1.3.4-1/png/pngwrite.c ****          {
1762:fltk-1.3.4-1/png/pngwrite.c ****             aindex = -1;
1763:fltk-1.3.4-1/png/pngwrite.c ****             ++input_row; /* To point to the first component */
1764:fltk-1.3.4-1/png/pngwrite.c ****             ++output_row;
1765:fltk-1.3.4-1/png/pngwrite.c ****          }
1766:fltk-1.3.4-1/png/pngwrite.c **** 
1767:fltk-1.3.4-1/png/pngwrite.c ****          else
1768:fltk-1.3.4-1/png/pngwrite.c **** #     endif
1769:fltk-1.3.4-1/png/pngwrite.c ****          aindex = channels;
1770:fltk-1.3.4-1/png/pngwrite.c ****    }
1771:fltk-1.3.4-1/png/pngwrite.c **** 
1772:fltk-1.3.4-1/png/pngwrite.c ****    else
1773:fltk-1.3.4-1/png/pngwrite.c ****       png_error(png_ptr, "png_write_image: internal call error");
1774:fltk-1.3.4-1/png/pngwrite.c **** 
1775:fltk-1.3.4-1/png/pngwrite.c ****    /* Work out the output row end and count over this, note that the increment
1776:fltk-1.3.4-1/png/pngwrite.c ****     * above to 'row' means that row_end can actually be beyond the end of the
1777:fltk-1.3.4-1/png/pngwrite.c ****     * row; this is correct.
1778:fltk-1.3.4-1/png/pngwrite.c ****     */
1779:fltk-1.3.4-1/png/pngwrite.c ****    row_end = output_row + image->width * (channels+1);
1780:fltk-1.3.4-1/png/pngwrite.c **** 
1781:fltk-1.3.4-1/png/pngwrite.c ****    while (y-- > 0)
1782:fltk-1.3.4-1/png/pngwrite.c ****    {
1783:fltk-1.3.4-1/png/pngwrite.c ****       png_const_uint_16p in_ptr = input_row;
1784:fltk-1.3.4-1/png/pngwrite.c ****       png_uint_16p out_ptr = output_row;
1785:fltk-1.3.4-1/png/pngwrite.c **** 
1786:fltk-1.3.4-1/png/pngwrite.c ****       while (out_ptr < row_end)
1787:fltk-1.3.4-1/png/pngwrite.c ****       {
1788:fltk-1.3.4-1/png/pngwrite.c ****          const png_uint_16 alpha = in_ptr[aindex];
1789:fltk-1.3.4-1/png/pngwrite.c ****          png_uint_32 reciprocal = 0;
1790:fltk-1.3.4-1/png/pngwrite.c ****          int c;
1791:fltk-1.3.4-1/png/pngwrite.c **** 
1792:fltk-1.3.4-1/png/pngwrite.c ****          out_ptr[aindex] = alpha;
1793:fltk-1.3.4-1/png/pngwrite.c **** 
1794:fltk-1.3.4-1/png/pngwrite.c ****          /* Calculate a reciprocal.  The correct calculation is simply
1795:fltk-1.3.4-1/png/pngwrite.c ****           * component/alpha*65535 << 15. (I.e. 15 bits of precision); this
1796:fltk-1.3.4-1/png/pngwrite.c ****           * allows correct rounding by adding .5 before the shift.  'reciprocal'
1797:fltk-1.3.4-1/png/pngwrite.c ****           * is only initialized when required.
1798:fltk-1.3.4-1/png/pngwrite.c ****           */
1799:fltk-1.3.4-1/png/pngwrite.c ****          if (alpha > 0 && alpha < 65535)
1800:fltk-1.3.4-1/png/pngwrite.c ****             reciprocal = ((0xffff<<15)+(alpha>>1))/alpha;
1801:fltk-1.3.4-1/png/pngwrite.c **** 
1802:fltk-1.3.4-1/png/pngwrite.c ****          c = channels;
1803:fltk-1.3.4-1/png/pngwrite.c ****          do /* always at least one channel */
1804:fltk-1.3.4-1/png/pngwrite.c ****          {
1805:fltk-1.3.4-1/png/pngwrite.c ****             png_uint_16 component = *in_ptr++;
1806:fltk-1.3.4-1/png/pngwrite.c **** 
1807:fltk-1.3.4-1/png/pngwrite.c ****             /* The following gives 65535 for an alpha of 0, which is fine,
1808:fltk-1.3.4-1/png/pngwrite.c ****              * otherwise if 0/0 is represented as some other value there is more
1809:fltk-1.3.4-1/png/pngwrite.c ****              * likely to be a discontinuity which will probably damage
1810:fltk-1.3.4-1/png/pngwrite.c ****              * compression when moving from a fully transparent area to a
1811:fltk-1.3.4-1/png/pngwrite.c ****              * nearly transparent one.  (The assumption here is that opaque
1812:fltk-1.3.4-1/png/pngwrite.c ****              * areas tend not to be 0 intensity.)
1813:fltk-1.3.4-1/png/pngwrite.c ****              */
1814:fltk-1.3.4-1/png/pngwrite.c ****             if (component >= alpha)
1815:fltk-1.3.4-1/png/pngwrite.c ****                component = 65535;
1816:fltk-1.3.4-1/png/pngwrite.c **** 
1817:fltk-1.3.4-1/png/pngwrite.c ****             /* component<alpha, so component/alpha is less than one and
1818:fltk-1.3.4-1/png/pngwrite.c ****              * component*reciprocal is less than 2^31.
1819:fltk-1.3.4-1/png/pngwrite.c ****              */
1820:fltk-1.3.4-1/png/pngwrite.c ****             else if (component > 0 && alpha < 65535)
1821:fltk-1.3.4-1/png/pngwrite.c ****             {
1822:fltk-1.3.4-1/png/pngwrite.c ****                png_uint_32 calc = component * reciprocal;
1823:fltk-1.3.4-1/png/pngwrite.c ****                calc += 16384; /* round to nearest */
1824:fltk-1.3.4-1/png/pngwrite.c ****                component = (png_uint_16)(calc >> 15);
1825:fltk-1.3.4-1/png/pngwrite.c ****             }
1826:fltk-1.3.4-1/png/pngwrite.c **** 
1827:fltk-1.3.4-1/png/pngwrite.c ****             *out_ptr++ = component;
1828:fltk-1.3.4-1/png/pngwrite.c ****          }
1829:fltk-1.3.4-1/png/pngwrite.c ****          while (--c > 0);
1830:fltk-1.3.4-1/png/pngwrite.c **** 
1831:fltk-1.3.4-1/png/pngwrite.c ****          /* Skip to next component (skip the intervening alpha channel) */
1832:fltk-1.3.4-1/png/pngwrite.c ****          ++in_ptr;
1833:fltk-1.3.4-1/png/pngwrite.c ****          ++out_ptr;
1834:fltk-1.3.4-1/png/pngwrite.c ****       }
1835:fltk-1.3.4-1/png/pngwrite.c **** 
1836:fltk-1.3.4-1/png/pngwrite.c ****       png_write_row(png_ptr, png_voidcast(png_const_bytep, display->local_row));
1837:fltk-1.3.4-1/png/pngwrite.c ****       input_row += display->row_bytes/(sizeof (png_uint_16));
1838:fltk-1.3.4-1/png/pngwrite.c ****    }
1839:fltk-1.3.4-1/png/pngwrite.c **** 
1840:fltk-1.3.4-1/png/pngwrite.c ****    return 1;
1841:fltk-1.3.4-1/png/pngwrite.c **** }
1842:fltk-1.3.4-1/png/pngwrite.c **** 
1843:fltk-1.3.4-1/png/pngwrite.c **** /* Given 16-bit input (1 to 4 channels) write 8-bit output.  If an alpha channel
1844:fltk-1.3.4-1/png/pngwrite.c ****  * is present it must be removed from the components, the components are then
1845:fltk-1.3.4-1/png/pngwrite.c ****  * written in sRGB encoding.  No components are added or removed.
1846:fltk-1.3.4-1/png/pngwrite.c ****  *
1847:fltk-1.3.4-1/png/pngwrite.c ****  * Calculate an alpha reciprocal to reverse pre-multiplication.  As above the
1848:fltk-1.3.4-1/png/pngwrite.c ****  * calculation can be done to 15 bits of accuracy; however, the output needs to
1849:fltk-1.3.4-1/png/pngwrite.c ****  * be scaled in the range 0..255*65535, so include that scaling here.
1850:fltk-1.3.4-1/png/pngwrite.c ****  */
1851:fltk-1.3.4-1/png/pngwrite.c **** #define UNP_RECIPROCAL(alpha) ((((0xffff*0xff)<<7)+(alpha>>1))/alpha)
1852:fltk-1.3.4-1/png/pngwrite.c **** 
1853:fltk-1.3.4-1/png/pngwrite.c **** static png_byte
1854:fltk-1.3.4-1/png/pngwrite.c **** png_unpremultiply(png_uint_32 component, png_uint_32 alpha,
 107              		.loc 1 1854 1 is_stmt 1 view -0
 108              		.cfi_startproc
1855:fltk-1.3.4-1/png/pngwrite.c ****    png_uint_32 reciprocal/*from the above macro*/)
1856:fltk-1.3.4-1/png/pngwrite.c **** {
1857:fltk-1.3.4-1/png/pngwrite.c ****    /* The following gives 1.0 for an alpha of 0, which is fine, otherwise if 0/0
1858:fltk-1.3.4-1/png/pngwrite.c ****     * is represented as some other value there is more likely to be a
1859:fltk-1.3.4-1/png/pngwrite.c ****     * discontinuity which will probably damage compression when moving from a
1860:fltk-1.3.4-1/png/pngwrite.c ****     * fully transparent area to a nearly transparent one.  (The assumption here
1861:fltk-1.3.4-1/png/pngwrite.c ****     * is that opaque areas tend not to be 0 intensity.)
1862:fltk-1.3.4-1/png/pngwrite.c ****     *
1863:fltk-1.3.4-1/png/pngwrite.c ****     * There is a rounding problem here; if alpha is less than 128 it will end up
1864:fltk-1.3.4-1/png/pngwrite.c ****     * as 0 when scaled to 8 bits.  To avoid introducing spurious colors into the
1865:fltk-1.3.4-1/png/pngwrite.c ****     * output change for this too.
1866:fltk-1.3.4-1/png/pngwrite.c ****     */
1867:fltk-1.3.4-1/png/pngwrite.c ****    if (component >= alpha || alpha < 128)
1868:fltk-1.3.4-1/png/pngwrite.c ****       return 255;
1869:fltk-1.3.4-1/png/pngwrite.c **** 
1870:fltk-1.3.4-1/png/pngwrite.c ****    /* component<alpha, so component/alpha is less than one and
1871:fltk-1.3.4-1/png/pngwrite.c ****     * component*reciprocal is less than 2^31.
1872:fltk-1.3.4-1/png/pngwrite.c ****     */
1873:fltk-1.3.4-1/png/pngwrite.c ****    else if (component > 0)
1874:fltk-1.3.4-1/png/pngwrite.c ****    {
1875:fltk-1.3.4-1/png/pngwrite.c ****       /* The test is that alpha/257 (rounded) is less than 255, the first value
1876:fltk-1.3.4-1/png/pngwrite.c ****        * that becomes 255 is 65407.
1877:fltk-1.3.4-1/png/pngwrite.c ****        * NOTE: this must agree with the PNG_DIV257 macro (which must, therefore,
1878:fltk-1.3.4-1/png/pngwrite.c ****        * be exact!)  [Could also test reciprocal != 0]
1879:fltk-1.3.4-1/png/pngwrite.c ****        */
1880:fltk-1.3.4-1/png/pngwrite.c ****       if (alpha < 65407)
 109              		.loc 1 1880 7 view .LVU36
 110              		.loc 1 1880 10 is_stmt 0 view .LVU37
 111 0000 81FE7EFF 		cmpl	$65406, %esi
 111      0000
 112 0006 7738     		ja	.L14
1881:fltk-1.3.4-1/png/pngwrite.c ****       {
1882:fltk-1.3.4-1/png/pngwrite.c ****          component *= reciprocal;
 113              		.loc 1 1882 10 is_stmt 1 view .LVU38
 114              		.loc 1 1882 20 is_stmt 0 view .LVU39
 115 0008 0FAFFA   		imull	%edx, %edi
 116              	.LVL10:
1883:fltk-1.3.4-1/png/pngwrite.c ****          component += 64; /* round to nearest */
 117              		.loc 1 1883 10 is_stmt 1 view .LVU40
 118              		.loc 1 1883 20 is_stmt 0 view .LVU41
 119 000b 8D5740   		leal	64(%rdi), %edx
 120              	.LVL11:
1884:fltk-1.3.4-1/png/pngwrite.c ****          component >>= 7;
 121              		.loc 1 1884 10 is_stmt 1 view .LVU42
 122              		.loc 1 1884 20 is_stmt 0 view .LVU43
 123 000e C1EA07   		shrl	$7, %edx
 124              	.LVL12:
 125              	.L15:
1885:fltk-1.3.4-1/png/pngwrite.c ****       }
1886:fltk-1.3.4-1/png/pngwrite.c **** 
1887:fltk-1.3.4-1/png/pngwrite.c ****       else
1888:fltk-1.3.4-1/png/pngwrite.c ****          component *= 255;
1889:fltk-1.3.4-1/png/pngwrite.c **** 
1890:fltk-1.3.4-1/png/pngwrite.c ****       /* Convert the component to sRGB. */
1891:fltk-1.3.4-1/png/pngwrite.c ****       return (png_byte)PNG_sRGB_FROM_LINEAR(component);
 126              		.loc 1 1891 7 is_stmt 1 view .LVU44
 127              		.loc 1 1891 24 is_stmt 0 view .LVU45
 128 0011 89D1     		movl	%edx, %ecx
 129 0013 89D0     		movl	%edx, %eax
 130 0015 488D1500 		leaq	png_sRGB_delta(%rip), %rdx
 130      000000
 131              	.LVL13:
 132              		.loc 1 1891 24 view .LVU46
 133 001c C1E90F   		shrl	$15, %ecx
 134 001f 25FF7F00 		andl	$32767, %eax
 134      00
 135              	.LVL14:
 136              		.loc 1 1891 24 view .LVU47
 137 0024 0FB6140A 		movzbl	(%rdx,%rcx), %edx
 138 0028 0FAFC2   		imull	%edx, %eax
 139 002b 488D1500 		leaq	png_sRGB_base(%rip), %rdx
 139      000000
 140 0032 0FB7144A 		movzwl	(%rdx,%rcx,2), %edx
 141 0036 C1E80C   		shrl	$12, %eax
 142 0039 01D0     		addl	%edx, %eax
 143 003b C1E808   		shrl	$8, %eax
1892:fltk-1.3.4-1/png/pngwrite.c ****    }
1893:fltk-1.3.4-1/png/pngwrite.c **** 
1894:fltk-1.3.4-1/png/pngwrite.c ****    else
1895:fltk-1.3.4-1/png/pngwrite.c ****       return 0;
1896:fltk-1.3.4-1/png/pngwrite.c **** }
 144              		.loc 1 1896 1 view .LVU48
 145 003e C3       		ret
 146              	.LVL15:
 147 003f 90       		.p2align 4,,10
 148              		.p2align 3
 149              	.L14:
1888:fltk-1.3.4-1/png/pngwrite.c **** 
 150              		.loc 1 1888 10 is_stmt 1 view .LVU49
1888:fltk-1.3.4-1/png/pngwrite.c **** 
 151              		.loc 1 1888 20 is_stmt 0 view .LVU50
 152 0040 89FA     		movl	%edi, %edx
 153              	.LVL16:
1888:fltk-1.3.4-1/png/pngwrite.c **** 
 154              		.loc 1 1888 20 view .LVU51
 155 0042 C1E208   		sall	$8, %edx
 156 0045 29FA     		subl	%edi, %edx
 157              	.LVL17:
1888:fltk-1.3.4-1/png/pngwrite.c **** 
 158              		.loc 1 1888 20 view .LVU52
 159 0047 EBC8     		jmp	.L15
 160              		.cfi_endproc
 161              	.LFE83:
 163              		.section	.rodata.write_unknown_chunks.isra.0.part.0.str1.8,"aMS",@progbits,1
 164              		.align 8
 165              	.LC0:
 166 0000 57726974 		.string	"Writing zero-length unknown chunk"
 166      696E6720 
 166      7A65726F 
 166      2D6C656E 
 166      67746820 
 167              		.section	.text.write_unknown_chunks.isra.0.part.0,"ax",@progbits
 168              		.p2align 4
 170              	write_unknown_chunks.isra.0.part.0:
 171              	.LVL18:
 172              	.LFB85:
  24:fltk-1.3.4-1/png/pngwrite.c ****    unsigned int where)
 173              		.loc 1 24 1 is_stmt 1 view -0
 174              		.cfi_startproc
 175              	.LBB103:
  29:fltk-1.3.4-1/png/pngwrite.c **** 
 176              		.loc 1 29 7 view .LVU54
  31:fltk-1.3.4-1/png/pngwrite.c **** 
 177              		.loc 1 31 7 view .LVU55
  33:fltk-1.3.4-1/png/pngwrite.c ****            up < info_ptr->unknown_chunks + info_ptr->unknown_chunks_num;
 178              		.loc 1 33 7 view .LVU56
 179              	.LBE103:
  24:fltk-1.3.4-1/png/pngwrite.c ****    unsigned int where)
 180              		.loc 1 24 1 is_stmt 0 view .LVU57
 181 0000 4157     		pushq	%r15
 182              		.cfi_def_cfa_offset 16
 183              		.cfi_offset 15, -16
 184 0002 4156     		pushq	%r14
 185              		.cfi_def_cfa_offset 24
 186              		.cfi_offset 14, -24
 187 0004 4155     		pushq	%r13
 188              		.cfi_def_cfa_offset 32
 189              		.cfi_offset 13, -32
 190 0006 4154     		pushq	%r12
 191              		.cfi_def_cfa_offset 40
 192              		.cfi_offset 12, -40
 193 0008 4989D4   		movq	%rdx, %r12
 194 000b 55       		pushq	%rbp
 195              		.cfi_def_cfa_offset 48
 196              		.cfi_offset 6, -48
 197 000c 53       		pushq	%rbx
 198              		.cfi_def_cfa_offset 56
 199              		.cfi_offset 3, -56
 200 000d 89CB     		movl	%ecx, %ebx
 201 000f 4883EC08 		subq	$8, %rsp
 202              		.cfi_def_cfa_offset 64
 203              	.LBB106:
  34:fltk-1.3.4-1/png/pngwrite.c ****            ++up)
 204              		.loc 1 34 52 view .LVU58
 205 0013 49630424 		movslq	(%r12), %rax
  33:fltk-1.3.4-1/png/pngwrite.c ****            up < info_ptr->unknown_chunks + info_ptr->unknown_chunks_num;
 206              		.loc 1 33 15 view .LVU59
 207 0017 488B16   		movq	(%rsi), %rdx
 208              	.LVL19:
  34:fltk-1.3.4-1/png/pngwrite.c ****            ++up)
 209              		.loc 1 34 12 is_stmt 1 view .LVU60
  34:fltk-1.3.4-1/png/pngwrite.c ****            ++up)
 210              		.loc 1 34 52 is_stmt 0 view .LVU61
 211 001a 4889C1   		movq	%rax, %rcx
 212              	.LVL20:
  34:fltk-1.3.4-1/png/pngwrite.c ****            ++up)
 213              		.loc 1 34 42 view .LVU62
 214 001d 48C1E005 		salq	$5, %rax
 215 0021 4801D0   		addq	%rdx, %rax
  33:fltk-1.3.4-1/png/pngwrite.c ****            up < info_ptr->unknown_chunks + info_ptr->unknown_chunks_num;
 216              		.loc 1 33 7 view .LVU63
 217 0024 4839C2   		cmpq	%rax, %rdx
 218 0027 0F839300 		jnb	.L16
 218      0000
 219 002d 4889FD   		movq	%rdi, %rbp
 220 0030 4989F5   		movq	%rsi, %r13
 221 0033 4C8D3500 		leaq	.LC0(%rip), %r14
 221      000000
 222 003a 4989D7   		movq	%rdx, %r15
 223 003d EB14     		jmp	.L17
 224              	.LVL21:
 225 003f 90       		.p2align 4,,10
 226              		.p2align 3
 227              	.L19:
  35:fltk-1.3.4-1/png/pngwrite.c ****          if ((up->location & where) != 0)
 228              		.loc 1 35 12 is_stmt 1 view .LVU64
  34:fltk-1.3.4-1/png/pngwrite.c ****            ++up)
 229              		.loc 1 34 52 is_stmt 0 view .LVU65
 230 0040 4863C1   		movslq	%ecx, %rax
  35:fltk-1.3.4-1/png/pngwrite.c ****          if ((up->location & where) != 0)
 231              		.loc 1 35 12 view .LVU66
 232 0043 4983C720 		addq	$32, %r15
 233              	.LVL22:
  34:fltk-1.3.4-1/png/pngwrite.c ****            ++up)
 234              		.loc 1 34 12 is_stmt 1 view .LVU67
  34:fltk-1.3.4-1/png/pngwrite.c ****            ++up)
 235              		.loc 1 34 42 is_stmt 0 view .LVU68
 236 0047 48C1E005 		salq	$5, %rax
 237 004b 4801D0   		addq	%rdx, %rax
  33:fltk-1.3.4-1/png/pngwrite.c ****            up < info_ptr->unknown_chunks + info_ptr->unknown_chunks_num;
 238              		.loc 1 33 7 view .LVU69
 239 004e 4939C7   		cmpq	%rax, %r15
 240 0051 736D     		jnb	.L16
 241              	.L17:
  36:fltk-1.3.4-1/png/pngwrite.c ****       {
 242              		.loc 1 36 10 is_stmt 1 view .LVU70
  36:fltk-1.3.4-1/png/pngwrite.c ****       {
 243              		.loc 1 36 17 is_stmt 0 view .LVU71
 244 0053 410FB647 		movzbl	24(%r15), %eax
 244      18
  36:fltk-1.3.4-1/png/pngwrite.c ****       {
 245              		.loc 1 36 13 view .LVU72
 246 0058 85D8     		testl	%ebx, %eax
 247 005a 74E4     		je	.L19
 248              	.LBB104:
  42:fltk-1.3.4-1/png/pngwrite.c **** 
 249              		.loc 1 42 10 is_stmt 1 view .LVU73
  42:fltk-1.3.4-1/png/pngwrite.c **** 
 250              		.loc 1 42 21 is_stmt 0 view .LVU74
 251 005c 4C89FE   		movq	%r15, %rsi
 252 005f 4889EF   		movq	%rbp, %rdi
 253 0062 E8000000 		call	png_handle_as_unknown@PLT
 253      00
 254              	.LVL23:
  56:fltk-1.3.4-1/png/pngwrite.c ****              ((up->name[3] & 0x20) /* safe-to-copy overrides everything */ ||
 255              		.loc 1 56 10 is_stmt 1 view .LVU75
  56:fltk-1.3.4-1/png/pngwrite.c ****              ((up->name[3] & 0x20) /* safe-to-copy overrides everything */ ||
 256              		.loc 1 56 13 is_stmt 0 view .LVU76
 257 0067 83F801   		cmpl	$1, %eax
 258 006a 741C     		je	.L33
  57:fltk-1.3.4-1/png/pngwrite.c ****               keep == PNG_HANDLE_CHUNK_ALWAYS ||
 259              		.loc 1 57 76 view .LVU77
 260 006c 41F64703 		testb	$32, 3(%r15)
 260      20
 261 0071 7525     		jne	.L21
 262 0073 83F803   		cmpl	$3, %eax
 263 0076 7420     		je	.L21
  58:fltk-1.3.4-1/png/pngwrite.c ****               (keep == PNG_HANDLE_CHUNK_AS_DEFAULT &&
 264              		.loc 1 58 47 view .LVU78
 265 0078 85C0     		testl	%eax, %eax
 266 007a 750C     		jne	.L33
  59:fltk-1.3.4-1/png/pngwrite.c ****                png_ptr->unknown_default == PNG_HANDLE_CHUNK_ALWAYS)))
 267              		.loc 1 59 52 view .LVU79
 268 007c 83BD0004 		cmpl	$3, 1024(%rbp)
 268      000003
 269 0083 7413     		je	.L21
 270              		.p2align 4,,10
 271 0085 0F1F00   		.p2align 3
 272              	.L33:
 273 0088 498B5500 		movq	0(%r13), %rdx
 274 008c 418B0C24 		movl	(%r12), %ecx
 275 0090 EBAE     		jmp	.L19
 276              		.p2align 4,,10
 277 0092 660F1F44 		.p2align 3
 277      0000
 278              	.L21:
  64:fltk-1.3.4-1/png/pngwrite.c ****                png_warning(png_ptr, "Writing zero-length unknown chunk");
 279              		.loc 1 64 13 is_stmt 1 view .LVU80
  64:fltk-1.3.4-1/png/pngwrite.c ****                png_warning(png_ptr, "Writing zero-length unknown chunk");
 280              		.loc 1 64 19 is_stmt 0 view .LVU81
 281 0098 498B4F10 		movq	16(%r15), %rcx
  64:fltk-1.3.4-1/png/pngwrite.c ****                png_warning(png_ptr, "Writing zero-length unknown chunk");
 282              		.loc 1 64 16 view .LVU82
 283 009c 4885C9   		testq	%rcx, %rcx
 284 009f 742F     		je	.L34
 285              	.LVL24:
 286              	.L22:
  67:fltk-1.3.4-1/png/pngwrite.c ****          }
 287              		.loc 1 67 13 is_stmt 1 view .LVU83
 288 00a1 498B5708 		movq	8(%r15), %rdx
 289 00a5 4C89FE   		movq	%r15, %rsi
 290 00a8 4889EF   		movq	%rbp, %rdi
 291 00ab E8000000 		call	png_write_chunk@PLT
 291      00
 292              	.LVL25:
 293 00b0 498B5500 		movq	0(%r13), %rdx
 294 00b4 418B0C24 		movl	(%r12), %ecx
 295 00b8 EB86     		jmp	.L19
 296              	.LVL26:
 297 00ba 660F1F44 		.p2align 4,,10
 297      0000
 298              		.p2align 3
 299              	.L16:
  67:fltk-1.3.4-1/png/pngwrite.c ****          }
 300              		.loc 1 67 13 is_stmt 0 view .LVU84
 301              	.LBE104:
 302              	.LBE106:
  71:fltk-1.3.4-1/png/pngwrite.c **** #endif /* WRITE_UNKNOWN_CHUNKS */
 303              		.loc 1 71 1 view .LVU85
 304 00c0 4883C408 		addq	$8, %rsp
 305              		.cfi_remember_state
 306              		.cfi_def_cfa_offset 56
 307 00c4 5B       		popq	%rbx
 308              		.cfi_def_cfa_offset 48
 309              	.LVL27:
  71:fltk-1.3.4-1/png/pngwrite.c **** #endif /* WRITE_UNKNOWN_CHUNKS */
 310              		.loc 1 71 1 view .LVU86
 311 00c5 5D       		popq	%rbp
 312              		.cfi_def_cfa_offset 40
 313 00c6 415C     		popq	%r12
 314              		.cfi_def_cfa_offset 32
 315 00c8 415D     		popq	%r13
 316              		.cfi_def_cfa_offset 24
 317 00ca 415E     		popq	%r14
 318              		.cfi_def_cfa_offset 16
 319 00cc 415F     		popq	%r15
 320              		.cfi_def_cfa_offset 8
 321 00ce C3       		ret
 322              	.LVL28:
 323 00cf 90       		.p2align 4,,10
 324              		.p2align 3
 325              	.L34:
 326              		.cfi_restore_state
 327              	.LBB107:
 328              	.LBB105:
  65:fltk-1.3.4-1/png/pngwrite.c **** 
 329              		.loc 1 65 16 is_stmt 1 view .LVU87
 330 00d0 4C89F6   		movq	%r14, %rsi
 331 00d3 4889EF   		movq	%rbp, %rdi
 332 00d6 E8000000 		call	png_warning@PLT
 332      00
 333              	.LVL29:
  65:fltk-1.3.4-1/png/pngwrite.c **** 
 334              		.loc 1 65 16 is_stmt 0 view .LVU88
 335 00db 498B4F10 		movq	16(%r15), %rcx
 336 00df EBC0     		jmp	.L22
 337              	.LBE105:
 338              	.LBE107:
 339              		.cfi_endproc
 340              	.LFE85:
 342              		.section	.rodata.png_init_filter_heuristics.str1.8,"aMS",@progbits,1
 343              		.align 8
 344              	.LC1:
 345 0000 556E6B6E 		.string	"Unknown filter heuristic method"
 345      6F776E20 
 345      66696C74 
 345      65722068 
 345      65757269 
 346              		.section	.text.png_init_filter_heuristics,"ax",@progbits
 347              		.p2align 4
 349              	png_init_filter_heuristics:
 350              	.LVL30:
 351              	.LFB59:
1174:fltk-1.3.4-1/png/pngwrite.c ****    if (png_ptr == NULL)
 352              		.loc 1 1174 1 is_stmt 1 view -0
 353              		.cfi_startproc
1175:fltk-1.3.4-1/png/pngwrite.c ****       return 0;
 354              		.loc 1 1175 4 view .LVU90
1176:fltk-1.3.4-1/png/pngwrite.c **** 
 355              		.loc 1 1176 14 is_stmt 0 view .LVU91
 356 0000 31C0     		xorl	%eax, %eax
1175:fltk-1.3.4-1/png/pngwrite.c ****       return 0;
 357              		.loc 1 1175 7 view .LVU92
 358 0002 4885FF   		testq	%rdi, %rdi
 359 0005 7459     		je	.L50
1174:fltk-1.3.4-1/png/pngwrite.c ****    if (png_ptr == NULL)
 360              		.loc 1 1174 1 view .LVU93
 361 0007 4155     		pushq	%r13
 362              		.cfi_def_cfa_offset 16
 363              		.cfi_offset 13, -16
 364 0009 4154     		pushq	%r12
 365              		.cfi_def_cfa_offset 24
 366              		.cfi_offset 12, -24
 367 000b 4189D4   		movl	%edx, %r12d
1179:fltk-1.3.4-1/png/pngwrite.c **** 
 368              		.loc 1 1179 4 is_stmt 1 view .LVU94
1174:fltk-1.3.4-1/png/pngwrite.c ****    if (png_ptr == NULL)
 369              		.loc 1 1174 1 is_stmt 0 view .LVU95
 370 000e 55       		pushq	%rbp
 371              		.cfi_def_cfa_offset 32
 372              		.cfi_offset 6, -32
 373 000f 4889FD   		movq	%rdi, %rbp
 374 0012 53       		pushq	%rbx
 375              		.cfi_def_cfa_offset 40
 376              		.cfi_offset 3, -40
 377 0013 89F3     		movl	%esi, %ebx
 378 0015 4883EC08 		subq	$8, %rsp
 379              		.cfi_def_cfa_offset 48
1179:fltk-1.3.4-1/png/pngwrite.c **** 
 380              		.loc 1 1179 4 view .LVU96
 381 0019 E8000000 		call	png_reset_filter_heuristics
 381      00
 382              	.LVL31:
1185:fltk-1.3.4-1/png/pngwrite.c ****    {
 383              		.loc 1 1185 4 is_stmt 1 view .LVU97
1185:fltk-1.3.4-1/png/pngwrite.c ****    {
 384              		.loc 1 1185 7 is_stmt 0 view .LVU98
 385 001e 83FB02   		cmpl	$2, %ebx
 386 0021 7445     		je	.L53
1240:fltk-1.3.4-1/png/pngwrite.c ****       heuristic_method == PNG_FILTER_HEURISTIC_UNWEIGHTED)
 387              		.loc 1 1240 9 is_stmt 1 view .LVU99
1243:fltk-1.3.4-1/png/pngwrite.c ****    }
 388              		.loc 1 1243 14 is_stmt 0 view .LVU100
 389 0023 B8010000 		movl	$1, %eax
 389      00
1240:fltk-1.3.4-1/png/pngwrite.c ****       heuristic_method == PNG_FILTER_HEURISTIC_UNWEIGHTED)
 390              		.loc 1 1240 12 view .LVU101
 391 0028 83FB01   		cmpl	$1, %ebx
 392 002b 7713     		ja	.L54
1250:fltk-1.3.4-1/png/pngwrite.c **** 
 393              		.loc 1 1250 1 view .LVU102
 394 002d 4883C408 		addq	$8, %rsp
 395              		.cfi_remember_state
 396              		.cfi_def_cfa_offset 40
 397 0031 5B       		popq	%rbx
 398              		.cfi_def_cfa_offset 32
 399              	.LVL32:
1250:fltk-1.3.4-1/png/pngwrite.c **** 
 400              		.loc 1 1250 1 view .LVU103
 401 0032 5D       		popq	%rbp
 402              		.cfi_def_cfa_offset 24
 403              	.LVL33:
1250:fltk-1.3.4-1/png/pngwrite.c **** 
 404              		.loc 1 1250 1 view .LVU104
 405 0033 415C     		popq	%r12
 406              		.cfi_def_cfa_offset 16
 407              	.LVL34:
1250:fltk-1.3.4-1/png/pngwrite.c **** 
 408              		.loc 1 1250 1 view .LVU105
 409 0035 415D     		popq	%r13
 410              		.cfi_def_cfa_offset 8
 411 0037 C3       		ret
 412              	.LVL35:
 413 0038 0F1F8400 		.p2align 4,,10
 413      00000000 
 414              		.p2align 3
 415              	.L54:
 416              		.cfi_restore_state
1247:fltk-1.3.4-1/png/pngwrite.c ****       return 0;
 417              		.loc 1 1247 7 is_stmt 1 view .LVU106
 418 0040 4889EF   		movq	%rbp, %rdi
 419 0043 488D3500 		leaq	.LC1(%rip), %rsi
 419      000000
 420 004a E8000000 		call	png_warning@PLT
 420      00
 421              	.LVL36:
1248:fltk-1.3.4-1/png/pngwrite.c ****    }
 422              		.loc 1 1248 7 view .LVU107
1250:fltk-1.3.4-1/png/pngwrite.c **** 
 423              		.loc 1 1250 1 is_stmt 0 view .LVU108
 424 004f 4883C408 		addq	$8, %rsp
 425              		.cfi_def_cfa_offset 40
1248:fltk-1.3.4-1/png/pngwrite.c ****    }
 426              		.loc 1 1248 14 view .LVU109
 427 0053 31C0     		xorl	%eax, %eax
1250:fltk-1.3.4-1/png/pngwrite.c **** 
 428              		.loc 1 1250 1 view .LVU110
 429 0055 5B       		popq	%rbx
 430              		.cfi_def_cfa_offset 32
 431              	.LVL37:
1250:fltk-1.3.4-1/png/pngwrite.c **** 
 432              		.loc 1 1250 1 view .LVU111
 433 0056 5D       		popq	%rbp
 434              		.cfi_def_cfa_offset 24
 435              	.LVL38:
1250:fltk-1.3.4-1/png/pngwrite.c **** 
 436              		.loc 1 1250 1 view .LVU112
 437 0057 415C     		popq	%r12
 438              		.cfi_def_cfa_offset 16
 439              	.LVL39:
1250:fltk-1.3.4-1/png/pngwrite.c **** 
 440              		.loc 1 1250 1 view .LVU113
 441 0059 415D     		popq	%r13
 442              		.cfi_def_cfa_offset 8
 443 005b C3       		ret
 444              	.LVL40:
 445 005c 0F1F4000 		.p2align 4,,10
 446              		.p2align 3
 447              	.L50:
 448              		.cfi_restore 3
 449              		.cfi_restore 6
 450              		.cfi_restore 12
 451              		.cfi_restore 13
1250:fltk-1.3.4-1/png/pngwrite.c **** 
 452              		.loc 1 1250 1 view .LVU114
 453 0060 C3       		ret
 454              	.LVL41:
 455              		.p2align 4,,10
 456 0061 0F1F8000 		.p2align 3
 456      000000
 457              	.L53:
 458              		.cfi_def_cfa_offset 48
 459              		.cfi_offset 3, -40
 460              		.cfi_offset 6, -32
 461              		.cfi_offset 12, -24
 462              		.cfi_offset 13, -16
 463              	.LBB111:
 464              	.LBI111:
1172:fltk-1.3.4-1/png/pngwrite.c ****    int num_weights)
 465              		.loc 1 1172 1 is_stmt 1 view .LVU115
 466              	.LBB112:
1187:fltk-1.3.4-1/png/pngwrite.c **** 
 467              		.loc 1 1187 7 view .LVU116
1189:fltk-1.3.4-1/png/pngwrite.c ****       {
 468              		.loc 1 1189 7 view .LVU117
1189:fltk-1.3.4-1/png/pngwrite.c ****       {
 469              		.loc 1 1189 10 is_stmt 0 view .LVU118
 470 0068 4585E4   		testl	%r12d, %r12d
 471 006b 7F63     		jg	.L55
 472              	.LVL42:
 473              	.L38:
1219:fltk-1.3.4-1/png/pngwrite.c ****       {
 474              		.loc 1 1219 7 is_stmt 1 view .LVU119
1219:fltk-1.3.4-1/png/pngwrite.c ****       {
 475              		.loc 1 1219 18 is_stmt 0 view .LVU120
 476 006d 488B95B8 		movq	952(%rbp), %rdx
 476      030000
1219:fltk-1.3.4-1/png/pngwrite.c ****       {
 477              		.loc 1 1219 10 view .LVU121
 478 0074 4885D2   		testq	%rdx, %rdx
 479 0077 0F84F300 		je	.L56
 479      0000
 480              	.L42:
1203:fltk-1.3.4-1/png/pngwrite.c ****              (png_uint_32)((sizeof (png_uint_16)) * num_weights));
 481              		.loc 1 1203 38 view .LVU122
 482 007d 31C0     		xorl	%eax, %eax
 483              	.L44:
1230:fltk-1.3.4-1/png/pngwrite.c ****          png_ptr->filter_costs[i] = PNG_COST_FACTOR;
 484              		.loc 1 1230 10 is_stmt 1 view .LVU123
1231:fltk-1.3.4-1/png/pngwrite.c ****       }
 485              		.loc 1 1231 35 is_stmt 0 view .LVU124
 486 007f B9080000 		movl	$8, %ecx
 486      00
1230:fltk-1.3.4-1/png/pngwrite.c ****          png_ptr->filter_costs[i] = PNG_COST_FACTOR;
 487              		.loc 1 1230 39 view .LVU125
 488 0084 BE080000 		movl	$8, %esi
 488      00
1231:fltk-1.3.4-1/png/pngwrite.c ****       }
 489              		.loc 1 1231 35 view .LVU126
 490 0089 66890C02 		movw	%cx, (%rdx,%rax)
1230:fltk-1.3.4-1/png/pngwrite.c ****          png_ptr->filter_costs[i] = PNG_COST_FACTOR;
 491              		.loc 1 1230 39 view .LVU127
 492 008d 488B95C0 		movq	960(%rbp), %rdx
 492      030000
 493 0094 66893402 		movw	%si, (%rdx,%rax)
1228:fltk-1.3.4-1/png/pngwrite.c ****       {
 494              		.loc 1 1228 46 is_stmt 1 view .LVU128
1228:fltk-1.3.4-1/png/pngwrite.c ****       {
 495              		.loc 1 1228 19 view .LVU129
 496 0098 4883C002 		addq	$2, %rax
1228:fltk-1.3.4-1/png/pngwrite.c ****       {
 497              		.loc 1 1228 7 is_stmt 0 view .LVU130
 498 009c 4883F80A 		cmpq	$10, %rax
 499 00a0 740E     		je	.L43
 500 00a2 488B95B8 		movq	952(%rbp), %rdx
 500      030000
 501 00a9 EBD4     		jmp	.L44
 502 00ab 0F1F4400 		.p2align 4,,10
 502      00
 503              		.p2align 3
 504              	.L43:
1235:fltk-1.3.4-1/png/pngwrite.c **** 
 505              		.loc 1 1235 7 is_stmt 1 view .LVU131
1235:fltk-1.3.4-1/png/pngwrite.c **** 
 506              		.loc 1 1235 33 is_stmt 0 view .LVU132
 507 00b0 C6859803 		movb	$2, 920(%rbp)
 507      000002
1238:fltk-1.3.4-1/png/pngwrite.c ****    }
 508              		.loc 1 1238 7 is_stmt 1 view .LVU133
 509              	.LVL43:
1238:fltk-1.3.4-1/png/pngwrite.c ****    }
 510              		.loc 1 1238 7 is_stmt 0 view .LVU134
 511              	.LBE112:
 512              	.LBE111:
1250:fltk-1.3.4-1/png/pngwrite.c **** 
 513              		.loc 1 1250 1 view .LVU135
 514 00b7 4883C408 		addq	$8, %rsp
 515              		.cfi_remember_state
 516              		.cfi_def_cfa_offset 40
 517              	.LBB115:
 518              	.LBB113:
1235:fltk-1.3.4-1/png/pngwrite.c **** 
 519              		.loc 1 1235 33 view .LVU136
 520 00bb B8010000 		movl	$1, %eax
 520      00
 521              	.LBE113:
 522              	.LBE115:
1250:fltk-1.3.4-1/png/pngwrite.c **** 
 523              		.loc 1 1250 1 view .LVU137
 524 00c0 5B       		popq	%rbx
 525              		.cfi_def_cfa_offset 32
 526 00c1 5D       		popq	%rbp
 527              		.cfi_def_cfa_offset 24
 528              	.LVL44:
1250:fltk-1.3.4-1/png/pngwrite.c **** 
 529              		.loc 1 1250 1 view .LVU138
 530 00c2 415C     		popq	%r12
 531              		.cfi_def_cfa_offset 16
 532              	.LVL45:
1250:fltk-1.3.4-1/png/pngwrite.c **** 
 533              		.loc 1 1250 1 view .LVU139
 534 00c4 415D     		popq	%r13
 535              		.cfi_def_cfa_offset 8
 536 00c6 C3       		ret
 537              	.LVL46:
 538 00c7 660F1F84 		.p2align 4,,10
 538      00000000 
 538      00
 539              		.p2align 3
 540              	.L55:
 541              		.cfi_restore_state
 542              	.LBB116:
 543              	.LBB114:
1191:fltk-1.3.4-1/png/pngwrite.c ****              (png_uint_32)((sizeof (png_byte)) * num_weights));
 544              		.loc 1 1191 10 is_stmt 1 view .LVU140
1192:fltk-1.3.4-1/png/pngwrite.c **** 
 545              		.loc 1 1192 14 is_stmt 0 view .LVU141
 546 00d0 4963F4   		movslq	%r12d, %rsi
1191:fltk-1.3.4-1/png/pngwrite.c ****              (png_uint_32)((sizeof (png_byte)) * num_weights));
 547              		.loc 1 1191 45 view .LVU142
 548 00d3 4889EF   		movq	%rbp, %rdi
 549 00d6 E8000000 		call	png_malloc@PLT
 549      00
 550              	.LVL47:
 551 00db 418D7424 		leal	-1(%r12), %esi
 551      FF
1191:fltk-1.3.4-1/png/pngwrite.c ****              (png_uint_32)((sizeof (png_byte)) * num_weights));
 552              		.loc 1 1191 32 view .LVU143
 553 00e0 31D2     		xorl	%edx, %edx
 554 00e2 488985A0 		movq	%rax, 928(%rbp)
 554      030000
1195:fltk-1.3.4-1/png/pngwrite.c ****          {
 555              		.loc 1 1195 10 is_stmt 1 view .LVU144
 556              	.LVL48:
1195:fltk-1.3.4-1/png/pngwrite.c ****          {
 557              		.loc 1 1195 22 view .LVU145
 558 00e9 488D5E01 		leaq	1(%rsi), %rbx
 559              	.LVL49:
1195:fltk-1.3.4-1/png/pngwrite.c ****          {
 560              		.loc 1 1195 22 is_stmt 0 view .LVU146
 561 00ed EB0B     		jmp	.L40
 562              	.LVL50:
 563 00ef 90       		.p2align 4,,10
 564              		.p2align 3
 565              	.L57:
1195:fltk-1.3.4-1/png/pngwrite.c ****          {
 566              		.loc 1 1195 22 view .LVU147
 567 00f0 488B85A0 		movq	928(%rbp), %rax
 567      030000
1195:fltk-1.3.4-1/png/pngwrite.c ****          {
 568              		.loc 1 1195 10 view .LVU148
 569 00f7 4889CA   		movq	%rcx, %rdx
 570              	.LVL51:
 571              	.L40:
1197:fltk-1.3.4-1/png/pngwrite.c ****          }
 572              		.loc 1 1197 13 is_stmt 1 view .LVU149
1197:fltk-1.3.4-1/png/pngwrite.c ****          }
 573              		.loc 1 1197 38 is_stmt 0 view .LVU150
 574 00fa C60410FF 		movb	$-1, (%rax,%rdx)
1195:fltk-1.3.4-1/png/pngwrite.c ****          {
 575              		.loc 1 1195 39 is_stmt 1 view .LVU151
 576              	.LVL52:
1195:fltk-1.3.4-1/png/pngwrite.c ****          {
 577              		.loc 1 1195 22 view .LVU152
 578 00fe 488D4A01 		leaq	1(%rdx), %rcx
1195:fltk-1.3.4-1/png/pngwrite.c ****          {
 579              		.loc 1 1195 10 is_stmt 0 view .LVU153
 580 0102 4839F2   		cmpq	%rsi, %rdx
 581 0105 75E9     		jne	.L57
1200:fltk-1.3.4-1/png/pngwrite.c ****              (png_uint_32)((sizeof (png_uint_16)) * num_weights));
 582              		.loc 1 1200 10 is_stmt 1 view .LVU154
1201:fltk-1.3.4-1/png/pngwrite.c **** 
 583              		.loc 1 1201 14 is_stmt 0 view .LVU155
 584 0107 478D2C24 		leal	(%r12,%r12), %r13d
1200:fltk-1.3.4-1/png/pngwrite.c ****              (png_uint_32)((sizeof (png_uint_16)) * num_weights));
 585              		.loc 1 1200 50 view .LVU156
 586 010b 4889EF   		movq	%rbp, %rdi
 587 010e 4C89EE   		movq	%r13, %rsi
 588 0111 E8000000 		call	png_malloc@PLT
 588      00
 589              	.LVL53:
1203:fltk-1.3.4-1/png/pngwrite.c ****              (png_uint_32)((sizeof (png_uint_16)) * num_weights));
 590              		.loc 1 1203 54 view .LVU157
 591 0116 4C89EE   		movq	%r13, %rsi
 592 0119 4889EF   		movq	%rbp, %rdi
1200:fltk-1.3.4-1/png/pngwrite.c ****              (png_uint_32)((sizeof (png_uint_16)) * num_weights));
 593              		.loc 1 1200 34 view .LVU158
 594 011c 488985A8 		movq	%rax, 936(%rbp)
 594      030000
1203:fltk-1.3.4-1/png/pngwrite.c ****              (png_uint_32)((sizeof (png_uint_16)) * num_weights));
 595              		.loc 1 1203 10 is_stmt 1 view .LVU159
1203:fltk-1.3.4-1/png/pngwrite.c ****              (png_uint_32)((sizeof (png_uint_16)) * num_weights));
 596              		.loc 1 1203 54 is_stmt 0 view .LVU160
 597 0123 E8000000 		call	png_malloc@PLT
 597      00
 598              	.LVL54:
 599 0128 488D0C1B 		leaq	(%rbx,%rbx), %rcx
1203:fltk-1.3.4-1/png/pngwrite.c ****              (png_uint_32)((sizeof (png_uint_16)) * num_weights));
 600              		.loc 1 1203 38 view .LVU161
 601 012c 488985B0 		movq	%rax, 944(%rbp)
 601      030000
1206:fltk-1.3.4-1/png/pngwrite.c ****          {
 602              		.loc 1 1206 10 is_stmt 1 view .LVU162
 603              	.LVL55:
1206:fltk-1.3.4-1/png/pngwrite.c ****          {
 604              		.loc 1 1206 22 view .LVU163
1203:fltk-1.3.4-1/png/pngwrite.c ****              (png_uint_32)((sizeof (png_uint_16)) * num_weights));
 605              		.loc 1 1203 38 is_stmt 0 view .LVU164
 606 0133 31C0     		xorl	%eax, %eax
 607              	.LVL56:
 608              		.p2align 4,,10
 609 0135 0F1F00   		.p2align 3
 610              	.L41:
1208:fltk-1.3.4-1/png/pngwrite.c ****             png_ptr->filter_weights[i] = PNG_WEIGHT_FACTOR;
 611              		.loc 1 1208 13 is_stmt 1 view .LVU165
1209:fltk-1.3.4-1/png/pngwrite.c ****          }
 612              		.loc 1 1209 40 is_stmt 0 view .LVU166
 613 0138 488B95A8 		movq	936(%rbp), %rdx
 613      030000
 614 013f BF000100 		movl	$256, %edi
 614      00
1208:fltk-1.3.4-1/png/pngwrite.c ****             png_ptr->filter_weights[i] = PNG_WEIGHT_FACTOR;
 615              		.loc 1 1208 44 view .LVU167
 616 0144 41B80001 		movl	$256, %r8d
 616      0000
1209:fltk-1.3.4-1/png/pngwrite.c ****          }
 617              		.loc 1 1209 40 view .LVU168
 618 014a 66893C02 		movw	%di, (%rdx,%rax)
1208:fltk-1.3.4-1/png/pngwrite.c ****             png_ptr->filter_weights[i] = PNG_WEIGHT_FACTOR;
 619              		.loc 1 1208 44 view .LVU169
 620 014e 488B95B0 		movq	944(%rbp), %rdx
 620      030000
 621 0155 66448904 		movw	%r8w, (%rdx,%rax)
 621      02
1206:fltk-1.3.4-1/png/pngwrite.c ****          {
 622              		.loc 1 1206 39 is_stmt 1 view .LVU170
1206:fltk-1.3.4-1/png/pngwrite.c ****          {
 623              		.loc 1 1206 22 view .LVU171
 624 015a 4883C002 		addq	$2, %rax
1206:fltk-1.3.4-1/png/pngwrite.c ****          {
 625              		.loc 1 1206 10 is_stmt 0 view .LVU172
 626 015e 4839C8   		cmpq	%rcx, %rax
 627 0161 75D5     		jne	.L41
1213:fltk-1.3.4-1/png/pngwrite.c ****       }
 628              		.loc 1 1213 10 is_stmt 1 view .LVU173
1213:fltk-1.3.4-1/png/pngwrite.c ****       }
 629              		.loc 1 1213 38 is_stmt 0 view .LVU174
 630 0163 4488A599 		movb	%r12b, 921(%rbp)
 630      030000
 631 016a E9FEFEFF 		jmp	.L38
 631      FF
 632 016f 90       		.p2align 4,,10
 633              		.p2align 3
 634              	.L56:
1221:fltk-1.3.4-1/png/pngwrite.c ****              (png_uint_32)((sizeof (png_uint_16)) * PNG_FILTER_VALUE_LAST));
 635              		.loc 1 1221 10 is_stmt 1 view .LVU175
1221:fltk-1.3.4-1/png/pngwrite.c ****              (png_uint_32)((sizeof (png_uint_16)) * PNG_FILTER_VALUE_LAST));
 636              		.loc 1 1221 48 is_stmt 0 view .LVU176
 637 0170 BE0A0000 		movl	$10, %esi
 637      00
 638 0175 4889EF   		movq	%rbp, %rdi
 639 0178 E8000000 		call	png_malloc@PLT
 639      00
 640              	.LVL57:
1224:fltk-1.3.4-1/png/pngwrite.c ****              (png_uint_32)((sizeof (png_uint_16)) * PNG_FILTER_VALUE_LAST));
 641              		.loc 1 1224 52 view .LVU177
 642 017d BE0A0000 		movl	$10, %esi
 642      00
 643 0182 4889EF   		movq	%rbp, %rdi
1221:fltk-1.3.4-1/png/pngwrite.c ****              (png_uint_32)((sizeof (png_uint_16)) * PNG_FILTER_VALUE_LAST));
 644              		.loc 1 1221 32 view .LVU178
 645 0185 488985B8 		movq	%rax, 952(%rbp)
 645      030000
1224:fltk-1.3.4-1/png/pngwrite.c ****              (png_uint_32)((sizeof (png_uint_16)) * PNG_FILTER_VALUE_LAST));
 646              		.loc 1 1224 10 is_stmt 1 view .LVU179
1224:fltk-1.3.4-1/png/pngwrite.c ****              (png_uint_32)((sizeof (png_uint_16)) * PNG_FILTER_VALUE_LAST));
 647              		.loc 1 1224 52 is_stmt 0 view .LVU180
 648 018c E8000000 		call	png_malloc@PLT
 648      00
 649              	.LVL58:
 650 0191 488B95B8 		movq	952(%rbp), %rdx
 650      030000
1224:fltk-1.3.4-1/png/pngwrite.c ****              (png_uint_32)((sizeof (png_uint_16)) * PNG_FILTER_VALUE_LAST));
 651              		.loc 1 1224 36 view .LVU181
 652 0198 488985C0 		movq	%rax, 960(%rbp)
 652      030000
 653 019f E9D9FEFF 		jmp	.L42
 653      FF
 654              	.LBE114:
 655              	.LBE116:
 656              		.cfi_endproc
 657              	.LFE59:
 659              		.section	.text.png_image_set_PLTE.isra.0,"ax",@progbits
 660              		.p2align 4
 662              	png_image_set_PLTE.isra.0:
 663              	.LFB87:
1897:fltk-1.3.4-1/png/pngwrite.c **** 
1898:fltk-1.3.4-1/png/pngwrite.c **** static int
1899:fltk-1.3.4-1/png/pngwrite.c **** png_write_image_8bit(png_voidp argument)
1900:fltk-1.3.4-1/png/pngwrite.c **** {
1901:fltk-1.3.4-1/png/pngwrite.c ****    png_image_write_control *display = png_voidcast(png_image_write_control*,
1902:fltk-1.3.4-1/png/pngwrite.c ****       argument);
1903:fltk-1.3.4-1/png/pngwrite.c ****    png_imagep image = display->image;
1904:fltk-1.3.4-1/png/pngwrite.c ****    png_structrp png_ptr = image->opaque->png_ptr;
1905:fltk-1.3.4-1/png/pngwrite.c **** 
1906:fltk-1.3.4-1/png/pngwrite.c ****    png_const_uint_16p input_row = png_voidcast(png_const_uint_16p,
1907:fltk-1.3.4-1/png/pngwrite.c ****       display->first_row);
1908:fltk-1.3.4-1/png/pngwrite.c ****    png_bytep output_row = png_voidcast(png_bytep, display->local_row);
1909:fltk-1.3.4-1/png/pngwrite.c ****    png_uint_32 y = image->height;
1910:fltk-1.3.4-1/png/pngwrite.c ****    const int channels = (image->format & PNG_FORMAT_FLAG_COLOR) != 0 ? 3 : 1;
1911:fltk-1.3.4-1/png/pngwrite.c **** 
1912:fltk-1.3.4-1/png/pngwrite.c ****    if ((image->format & PNG_FORMAT_FLAG_ALPHA) != 0)
1913:fltk-1.3.4-1/png/pngwrite.c ****    {
1914:fltk-1.3.4-1/png/pngwrite.c ****       png_bytep row_end;
1915:fltk-1.3.4-1/png/pngwrite.c ****       int aindex;
1916:fltk-1.3.4-1/png/pngwrite.c **** 
1917:fltk-1.3.4-1/png/pngwrite.c **** #     ifdef PNG_SIMPLIFIED_WRITE_AFIRST_SUPPORTED
1918:fltk-1.3.4-1/png/pngwrite.c ****          if ((image->format & PNG_FORMAT_FLAG_AFIRST) != 0)
1919:fltk-1.3.4-1/png/pngwrite.c ****          {
1920:fltk-1.3.4-1/png/pngwrite.c ****             aindex = -1;
1921:fltk-1.3.4-1/png/pngwrite.c ****             ++input_row; /* To point to the first component */
1922:fltk-1.3.4-1/png/pngwrite.c ****             ++output_row;
1923:fltk-1.3.4-1/png/pngwrite.c ****          }
1924:fltk-1.3.4-1/png/pngwrite.c **** 
1925:fltk-1.3.4-1/png/pngwrite.c ****          else
1926:fltk-1.3.4-1/png/pngwrite.c **** #     endif
1927:fltk-1.3.4-1/png/pngwrite.c ****          aindex = channels;
1928:fltk-1.3.4-1/png/pngwrite.c **** 
1929:fltk-1.3.4-1/png/pngwrite.c ****       /* Use row_end in place of a loop counter: */
1930:fltk-1.3.4-1/png/pngwrite.c ****       row_end = output_row + image->width * (channels+1);
1931:fltk-1.3.4-1/png/pngwrite.c **** 
1932:fltk-1.3.4-1/png/pngwrite.c ****       while (y-- > 0)
1933:fltk-1.3.4-1/png/pngwrite.c ****       {
1934:fltk-1.3.4-1/png/pngwrite.c ****          png_const_uint_16p in_ptr = input_row;
1935:fltk-1.3.4-1/png/pngwrite.c ****          png_bytep out_ptr = output_row;
1936:fltk-1.3.4-1/png/pngwrite.c **** 
1937:fltk-1.3.4-1/png/pngwrite.c ****          while (out_ptr < row_end)
1938:fltk-1.3.4-1/png/pngwrite.c ****          {
1939:fltk-1.3.4-1/png/pngwrite.c ****             png_uint_16 alpha = in_ptr[aindex];
1940:fltk-1.3.4-1/png/pngwrite.c ****             png_byte alphabyte = (png_byte)PNG_DIV257(alpha);
1941:fltk-1.3.4-1/png/pngwrite.c ****             png_uint_32 reciprocal = 0;
1942:fltk-1.3.4-1/png/pngwrite.c ****             int c;
1943:fltk-1.3.4-1/png/pngwrite.c **** 
1944:fltk-1.3.4-1/png/pngwrite.c ****             /* Scale and write the alpha channel. */
1945:fltk-1.3.4-1/png/pngwrite.c ****             out_ptr[aindex] = alphabyte;
1946:fltk-1.3.4-1/png/pngwrite.c **** 
1947:fltk-1.3.4-1/png/pngwrite.c ****             if (alphabyte > 0 && alphabyte < 255)
1948:fltk-1.3.4-1/png/pngwrite.c ****                reciprocal = UNP_RECIPROCAL(alpha);
1949:fltk-1.3.4-1/png/pngwrite.c **** 
1950:fltk-1.3.4-1/png/pngwrite.c ****             c = channels;
1951:fltk-1.3.4-1/png/pngwrite.c ****             do /* always at least one channel */
1952:fltk-1.3.4-1/png/pngwrite.c ****                *out_ptr++ = png_unpremultiply(*in_ptr++, alpha, reciprocal);
1953:fltk-1.3.4-1/png/pngwrite.c ****             while (--c > 0);
1954:fltk-1.3.4-1/png/pngwrite.c **** 
1955:fltk-1.3.4-1/png/pngwrite.c ****             /* Skip to next component (skip the intervening alpha channel) */
1956:fltk-1.3.4-1/png/pngwrite.c ****             ++in_ptr;
1957:fltk-1.3.4-1/png/pngwrite.c ****             ++out_ptr;
1958:fltk-1.3.4-1/png/pngwrite.c ****          } /* while out_ptr < row_end */
1959:fltk-1.3.4-1/png/pngwrite.c **** 
1960:fltk-1.3.4-1/png/pngwrite.c ****          png_write_row(png_ptr, png_voidcast(png_const_bytep,
1961:fltk-1.3.4-1/png/pngwrite.c ****             display->local_row));
1962:fltk-1.3.4-1/png/pngwrite.c ****          input_row += display->row_bytes/(sizeof (png_uint_16));
1963:fltk-1.3.4-1/png/pngwrite.c ****       } /* while y */
1964:fltk-1.3.4-1/png/pngwrite.c ****    }
1965:fltk-1.3.4-1/png/pngwrite.c **** 
1966:fltk-1.3.4-1/png/pngwrite.c ****    else
1967:fltk-1.3.4-1/png/pngwrite.c ****    {
1968:fltk-1.3.4-1/png/pngwrite.c ****       /* No alpha channel, so the row_end really is the end of the row and it
1969:fltk-1.3.4-1/png/pngwrite.c ****        * is sufficient to loop over the components one by one.
1970:fltk-1.3.4-1/png/pngwrite.c ****        */
1971:fltk-1.3.4-1/png/pngwrite.c ****       png_bytep row_end = output_row + image->width * channels;
1972:fltk-1.3.4-1/png/pngwrite.c **** 
1973:fltk-1.3.4-1/png/pngwrite.c ****       while (y-- > 0)
1974:fltk-1.3.4-1/png/pngwrite.c ****       {
1975:fltk-1.3.4-1/png/pngwrite.c ****          png_const_uint_16p in_ptr = input_row;
1976:fltk-1.3.4-1/png/pngwrite.c ****          png_bytep out_ptr = output_row;
1977:fltk-1.3.4-1/png/pngwrite.c **** 
1978:fltk-1.3.4-1/png/pngwrite.c ****          while (out_ptr < row_end)
1979:fltk-1.3.4-1/png/pngwrite.c ****          {
1980:fltk-1.3.4-1/png/pngwrite.c ****             png_uint_32 component = *in_ptr++;
1981:fltk-1.3.4-1/png/pngwrite.c **** 
1982:fltk-1.3.4-1/png/pngwrite.c ****             component *= 255;
1983:fltk-1.3.4-1/png/pngwrite.c ****             *out_ptr++ = (png_byte)PNG_sRGB_FROM_LINEAR(component);
1984:fltk-1.3.4-1/png/pngwrite.c ****          }
1985:fltk-1.3.4-1/png/pngwrite.c **** 
1986:fltk-1.3.4-1/png/pngwrite.c ****          png_write_row(png_ptr, output_row);
1987:fltk-1.3.4-1/png/pngwrite.c ****          input_row += display->row_bytes/(sizeof (png_uint_16));
1988:fltk-1.3.4-1/png/pngwrite.c ****       }
1989:fltk-1.3.4-1/png/pngwrite.c ****    }
1990:fltk-1.3.4-1/png/pngwrite.c **** 
1991:fltk-1.3.4-1/png/pngwrite.c ****    return 1;
1992:fltk-1.3.4-1/png/pngwrite.c **** }
1993:fltk-1.3.4-1/png/pngwrite.c **** 
1994:fltk-1.3.4-1/png/pngwrite.c **** static void
1995:fltk-1.3.4-1/png/pngwrite.c **** png_image_set_PLTE(png_image_write_control *display)
 664              		.loc 1 1995 1 is_stmt 1 view -0
 665              		.cfi_startproc
 666 0000 4157     		pushq	%r15
 667              		.cfi_def_cfa_offset 16
 668              		.cfi_offset 15, -16
 669              	.LBB117:
 670              	.LBB118:
 671              		.file 2 "/usr/include/x86_64-linux-gnu/bits/string_fortified.h"
   1:/usr/include/x86_64-linux-gnu/bits/string_fortified.h **** /* Copyright (C) 2004-2020 Free Software Foundation, Inc.
   2:/usr/include/x86_64-linux-gnu/bits/string_fortified.h ****    This file is part of the GNU C Library.
   3:/usr/include/x86_64-linux-gnu/bits/string_fortified.h **** 
   4:/usr/include/x86_64-linux-gnu/bits/string_fortified.h ****    The GNU C Library is free software; you can redistribute it and/or
   5:/usr/include/x86_64-linux-gnu/bits/string_fortified.h ****    modify it under the terms of the GNU Lesser General Public
   6:/usr/include/x86_64-linux-gnu/bits/string_fortified.h ****    License as published by the Free Software Foundation; either
   7:/usr/include/x86_64-linux-gnu/bits/string_fortified.h ****    version 2.1 of the License, or (at your option) any later version.
   8:/usr/include/x86_64-linux-gnu/bits/string_fortified.h **** 
   9:/usr/include/x86_64-linux-gnu/bits/string_fortified.h ****    The GNU C Library is distributed in the hope that it will be useful,
  10:/usr/include/x86_64-linux-gnu/bits/string_fortified.h ****    but WITHOUT ANY WARRANTY; without even the implied warranty of
  11:/usr/include/x86_64-linux-gnu/bits/string_fortified.h ****    MERCHANTABILITY or FITNESS FOR A PARTICULAR PURPOSE.  See the GNU
  12:/usr/include/x86_64-linux-gnu/bits/string_fortified.h ****    Lesser General Public License for more details.
  13:/usr/include/x86_64-linux-gnu/bits/string_fortified.h **** 
  14:/usr/include/x86_64-linux-gnu/bits/string_fortified.h ****    You should have received a copy of the GNU Lesser General Public
  15:/usr/include/x86_64-linux-gnu/bits/string_fortified.h ****    License along with the GNU C Library; if not, see
  16:/usr/include/x86_64-linux-gnu/bits/string_fortified.h ****    <https://www.gnu.org/licenses/>.  */
  17:/usr/include/x86_64-linux-gnu/bits/string_fortified.h **** 
  18:/usr/include/x86_64-linux-gnu/bits/string_fortified.h **** #ifndef _BITS_STRING_FORTIFIED_H
  19:/usr/include/x86_64-linux-gnu/bits/string_fortified.h **** #define _BITS_STRING_FORTIFIED_H 1
  20:/usr/include/x86_64-linux-gnu/bits/string_fortified.h **** 
  21:/usr/include/x86_64-linux-gnu/bits/string_fortified.h **** #ifndef _STRING_H
  22:/usr/include/x86_64-linux-gnu/bits/string_fortified.h **** # error "Never use <bits/string_fortified.h> directly; include <string.h> instead."
  23:/usr/include/x86_64-linux-gnu/bits/string_fortified.h **** #endif
  24:/usr/include/x86_64-linux-gnu/bits/string_fortified.h **** 
  25:/usr/include/x86_64-linux-gnu/bits/string_fortified.h **** #if !__GNUC_PREREQ (5,0)
  26:/usr/include/x86_64-linux-gnu/bits/string_fortified.h **** __warndecl (__warn_memset_zero_len,
  27:/usr/include/x86_64-linux-gnu/bits/string_fortified.h **** 	    "memset used with constant zero length parameter; this could be due to transposed parameters")
  28:/usr/include/x86_64-linux-gnu/bits/string_fortified.h **** #endif
  29:/usr/include/x86_64-linux-gnu/bits/string_fortified.h **** 
  30:/usr/include/x86_64-linux-gnu/bits/string_fortified.h **** __fortify_function void *
  31:/usr/include/x86_64-linux-gnu/bits/string_fortified.h **** __NTH (memcpy (void *__restrict __dest, const void *__restrict __src,
  32:/usr/include/x86_64-linux-gnu/bits/string_fortified.h **** 	       size_t __len))
  33:/usr/include/x86_64-linux-gnu/bits/string_fortified.h **** {
  34:/usr/include/x86_64-linux-gnu/bits/string_fortified.h ****   return __builtin___memcpy_chk (__dest, __src, __len, __bos0 (__dest));
  35:/usr/include/x86_64-linux-gnu/bits/string_fortified.h **** }
  36:/usr/include/x86_64-linux-gnu/bits/string_fortified.h **** 
  37:/usr/include/x86_64-linux-gnu/bits/string_fortified.h **** __fortify_function void *
  38:/usr/include/x86_64-linux-gnu/bits/string_fortified.h **** __NTH (memmove (void *__dest, const void *__src, size_t __len))
  39:/usr/include/x86_64-linux-gnu/bits/string_fortified.h **** {
  40:/usr/include/x86_64-linux-gnu/bits/string_fortified.h ****   return __builtin___memmove_chk (__dest, __src, __len, __bos0 (__dest));
  41:/usr/include/x86_64-linux-gnu/bits/string_fortified.h **** }
  42:/usr/include/x86_64-linux-gnu/bits/string_fortified.h **** 
  43:/usr/include/x86_64-linux-gnu/bits/string_fortified.h **** #ifdef __USE_GNU
  44:/usr/include/x86_64-linux-gnu/bits/string_fortified.h **** __fortify_function void *
  45:/usr/include/x86_64-linux-gnu/bits/string_fortified.h **** __NTH (mempcpy (void *__restrict __dest, const void *__restrict __src,
  46:/usr/include/x86_64-linux-gnu/bits/string_fortified.h **** 		size_t __len))
  47:/usr/include/x86_64-linux-gnu/bits/string_fortified.h **** {
  48:/usr/include/x86_64-linux-gnu/bits/string_fortified.h ****   return __builtin___mempcpy_chk (__dest, __src, __len, __bos0 (__dest));
  49:/usr/include/x86_64-linux-gnu/bits/string_fortified.h **** }
  50:/usr/include/x86_64-linux-gnu/bits/string_fortified.h **** #endif
  51:/usr/include/x86_64-linux-gnu/bits/string_fortified.h **** 
  52:/usr/include/x86_64-linux-gnu/bits/string_fortified.h **** 
  53:/usr/include/x86_64-linux-gnu/bits/string_fortified.h **** /* The first two tests here help to catch a somewhat common problem
  54:/usr/include/x86_64-linux-gnu/bits/string_fortified.h ****    where the second and third parameter are transposed.  This is
  55:/usr/include/x86_64-linux-gnu/bits/string_fortified.h ****    especially problematic if the intended fill value is zero.  In this
  56:/usr/include/x86_64-linux-gnu/bits/string_fortified.h ****    case no work is done at all.  We detect these problems by referring
  57:/usr/include/x86_64-linux-gnu/bits/string_fortified.h ****    non-existing functions.  */
  58:/usr/include/x86_64-linux-gnu/bits/string_fortified.h **** __fortify_function void *
  59:/usr/include/x86_64-linux-gnu/bits/string_fortified.h **** __NTH (memset (void *__dest, int __ch, size_t __len))
  60:/usr/include/x86_64-linux-gnu/bits/string_fortified.h **** {
  61:/usr/include/x86_64-linux-gnu/bits/string_fortified.h ****   /* GCC-5.0 and newer implements these checks in the compiler, so we don't
  62:/usr/include/x86_64-linux-gnu/bits/string_fortified.h ****      need them here.  */
  63:/usr/include/x86_64-linux-gnu/bits/string_fortified.h **** #if !__GNUC_PREREQ (5,0)
  64:/usr/include/x86_64-linux-gnu/bits/string_fortified.h ****   if (__builtin_constant_p (__len) && __len == 0
  65:/usr/include/x86_64-linux-gnu/bits/string_fortified.h ****       && (!__builtin_constant_p (__ch) || __ch != 0))
  66:/usr/include/x86_64-linux-gnu/bits/string_fortified.h ****     {
  67:/usr/include/x86_64-linux-gnu/bits/string_fortified.h ****       __warn_memset_zero_len ();
  68:/usr/include/x86_64-linux-gnu/bits/string_fortified.h ****       return __dest;
  69:/usr/include/x86_64-linux-gnu/bits/string_fortified.h ****     }
  70:/usr/include/x86_64-linux-gnu/bits/string_fortified.h **** #endif
  71:/usr/include/x86_64-linux-gnu/bits/string_fortified.h ****   return __builtin___memset_chk (__dest, __ch, __len, __bos0 (__dest));
 672              		.loc 2 71 10 is_stmt 0 view .LVU183
 673 0002 660F76C0 		pcmpeqd	%xmm0, %xmm0
 674              	.LBE118:
 675              	.LBE117:
 676              		.loc 1 1995 1 view .LVU184
 677 0006 4989FF   		movq	%rdi, %r15
 678              	.LBB123:
 679              	.LBB124:
 680              		.loc 2 71 10 view .LVU185
 681 0009 B9600000 		movl	$96, %ecx
 681      00
 682              	.LBE124:
 683              	.LBE123:
 684              		.loc 1 1995 1 view .LVU186
 685 000e 4156     		pushq	%r14
 686              		.cfi_def_cfa_offset 24
 687              		.cfi_offset 14, -24
 688 0010 4155     		pushq	%r13
 689              		.cfi_def_cfa_offset 32
 690              		.cfi_offset 13, -32
 691 0012 4154     		pushq	%r12
 692              		.cfi_def_cfa_offset 40
 693              		.cfi_offset 12, -40
 694 0014 55       		pushq	%rbp
 695              		.cfi_def_cfa_offset 48
 696              		.cfi_offset 6, -48
 697 0015 4889F5   		movq	%rsi, %rbp
 698 0018 53       		pushq	%rbx
 699              		.cfi_def_cfa_offset 56
 700              		.cfi_offset 3, -56
 701 0019 4881EC98 		subq	$1176, %rsp
 701      040000
 702              		.cfi_def_cfa_offset 1232
1996:fltk-1.3.4-1/png/pngwrite.c **** {
1997:fltk-1.3.4-1/png/pngwrite.c ****    const png_imagep image = display->image;
1998:fltk-1.3.4-1/png/pngwrite.c ****    const void *cmap = display->colormap;
1999:fltk-1.3.4-1/png/pngwrite.c ****    const int entries = image->colormap_entries > 256 ? 256 :
2000:fltk-1.3.4-1/png/pngwrite.c ****       (int)image->colormap_entries;
2001:fltk-1.3.4-1/png/pngwrite.c **** 
2002:fltk-1.3.4-1/png/pngwrite.c ****    /* NOTE: the caller must check for cmap != NULL and entries != 0 */
2003:fltk-1.3.4-1/png/pngwrite.c ****    const png_uint_32 format = image->format;
 703              		.loc 1 2003 22 view .LVU187
 704 0020 8B5F14   		movl	20(%rdi), %ebx
1999:fltk-1.3.4-1/png/pngwrite.c ****       (int)image->colormap_entries;
 705              		.loc 1 1999 29 view .LVU188
 706 0023 448B4F1C 		movl	28(%rdi), %r9d
1995:fltk-1.3.4-1/png/pngwrite.c **** {
 707              		.loc 1 1995 1 view .LVU189
 708 0027 48897C24 		movq	%rdi, 40(%rsp)
 708      28
 709              	.LBB130:
 710              	.LBB125:
 711              		.loc 2 71 10 view .LVU190
 712 002c 4C8DAC24 		leaq	128(%rsp), %r13
 712      80000000 
 713              	.LBE125:
 714              	.LBE130:
2004:fltk-1.3.4-1/png/pngwrite.c ****    const int channels = PNG_IMAGE_SAMPLE_CHANNELS(format);
2005:fltk-1.3.4-1/png/pngwrite.c **** 
2006:fltk-1.3.4-1/png/pngwrite.c **** #  if defined(PNG_FORMAT_BGR_SUPPORTED) &&\
2007:fltk-1.3.4-1/png/pngwrite.c ****       defined(PNG_SIMPLIFIED_WRITE_AFIRST_SUPPORTED)
2008:fltk-1.3.4-1/png/pngwrite.c ****       const int afirst = (format & PNG_FORMAT_FLAG_AFIRST) != 0 &&
 715              		.loc 1 2008 65 view .LVU191
 716 0034 4189DE   		movl	%ebx, %r14d
2004:fltk-1.3.4-1/png/pngwrite.c ****    const int channels = PNG_IMAGE_SAMPLE_CHANNELS(format);
 717              		.loc 1 2004 25 view .LVU192
 718 0037 89DE     		movl	%ebx, %esi
 719              	.LBB131:
 720              	.LBB126:
 721              		.loc 2 71 10 view .LVU193
 722 0039 4C89EF   		movq	%r13, %rdi
 723              	.LBE126:
 724              	.LBE131:
2009:fltk-1.3.4-1/png/pngwrite.c ****          (format & PNG_FORMAT_FLAG_ALPHA) != 0;
2010:fltk-1.3.4-1/png/pngwrite.c **** #  else
2011:fltk-1.3.4-1/png/pngwrite.c **** #     define afirst 0
2012:fltk-1.3.4-1/png/pngwrite.c **** #  endif
2013:fltk-1.3.4-1/png/pngwrite.c **** 
2014:fltk-1.3.4-1/png/pngwrite.c **** #  ifdef PNG_FORMAT_BGR_SUPPORTED
2015:fltk-1.3.4-1/png/pngwrite.c ****       const int bgr = (format & PNG_FORMAT_FLAG_BGR) != 0 ? 2 : 0;
 725              		.loc 1 2015 63 view .LVU194
 726 003c 4189D8   		movl	%ebx, %r8d
1995:fltk-1.3.4-1/png/pngwrite.c **** {
 727              		.loc 1 1995 1 view .LVU195
 728 003f 64488B04 		movq	%fs:40, %rax
 728      25280000 
 728      00
 729 0048 48898424 		movq	%rax, 1160(%rsp)
 729      88040000 
 730 0050 31C0     		xorl	%eax, %eax
1997:fltk-1.3.4-1/png/pngwrite.c ****    const void *cmap = display->colormap;
 731              		.loc 1 1997 4 is_stmt 1 view .LVU196
1998:fltk-1.3.4-1/png/pngwrite.c ****    const int entries = image->colormap_entries > 256 ? 256 :
 732              		.loc 1 1998 4 view .LVU197
 733              	.LVL59:
1999:fltk-1.3.4-1/png/pngwrite.c ****       (int)image->colormap_entries;
 734              		.loc 1 1999 4 view .LVU198
1999:fltk-1.3.4-1/png/pngwrite.c ****       (int)image->colormap_entries;
 735              		.loc 1 1999 60 is_stmt 0 view .LVU199
 736 0052 4181F900 		cmpl	$256, %r9d
 736      010000
 737 0059 B8000100 		movl	$256, %eax
 737      00
 738              	.LBB132:
 739              	.LBB127:
 740              		.loc 2 71 10 view .LVU200
 741 005e 4C896C24 		movq	%r13, 64(%rsp)
 741      40
 742              	.LBE127:
 743              	.LBE132:
1999:fltk-1.3.4-1/png/pngwrite.c ****       (int)image->colormap_entries;
 744              		.loc 1 1999 60 view .LVU201
 745 0063 410F46C1 		cmovbe	%r9d, %eax
2008:fltk-1.3.4-1/png/pngwrite.c ****          (format & PNG_FORMAT_FLAG_ALPHA) != 0;
 746              		.loc 1 2008 65 view .LVU202
 747 0067 4183E621 		andl	$33, %r14d
2004:fltk-1.3.4-1/png/pngwrite.c **** 
 748              		.loc 1 2004 25 view .LVU203
 749 006b 83E603   		andl	$3, %esi
 750              	.LBB133:
 751              	.LBB119:
 752              		.loc 2 71 10 view .LVU204
 753 006e 0F298424 		movaps	%xmm0, 896(%rsp)
 753      80030000 
 754              	.LBE119:
 755              	.LBE133:
2008:fltk-1.3.4-1/png/pngwrite.c ****          (format & PNG_FORMAT_FLAG_ALPHA) != 0;
 756              		.loc 1 2008 65 view .LVU205
 757 0076 4183FE21 		cmpl	$33, %r14d
 758 007a 44897424 		movl	%r14d, 52(%rsp)
 758      34
 759 007f 0F94C2   		sete	%dl
1999:fltk-1.3.4-1/png/pngwrite.c ****       (int)image->colormap_entries;
 760              		.loc 1 1999 60 view .LVU206
 761 0082 89442430 		movl	%eax, 48(%rsp)
 762 0086 4189C2   		movl	%eax, %r10d
 763              	.LVL60:
2003:fltk-1.3.4-1/png/pngwrite.c ****    const int channels = PNG_IMAGE_SAMPLE_CHANNELS(format);
 764              		.loc 1 2003 4 is_stmt 1 view .LVU207
2004:fltk-1.3.4-1/png/pngwrite.c **** 
 765              		.loc 1 2004 4 view .LVU208
2008:fltk-1.3.4-1/png/pngwrite.c ****          (format & PNG_FORMAT_FLAG_ALPHA) != 0;
 766              		.loc 1 2008 7 view .LVU209
 767              		.loc 1 2015 7 view .LVU210
 768              	.LBB134:
 769              	.LBB128:
 770              		.loc 2 71 10 is_stmt 0 view .LVU211
 771 0089 31C0     		xorl	%eax, %eax
 772              	.LVL61:
 773              		.loc 2 71 10 view .LVU212
 774 008b F348AB   		rep stosq
 775              	.LBE128:
 776              	.LBE134:
 777              	.LBB135:
 778              	.LBB120:
 779 008e 0F298424 		movaps	%xmm0, 912(%rsp)
 779      90030000 
 780              	.LBE120:
 781              	.LBE135:
 782              		.loc 1 2015 63 view .LVU213
 783 0096 41C1E803 		shrl	$3, %r8d
 784              	.LBB136:
 785              	.LBB121:
 786              		.loc 2 71 10 view .LVU214
 787 009a 0F298424 		movaps	%xmm0, 928(%rsp)
 787      A0030000 
 788              	.LBE121:
 789              	.LBE136:
 790              		.loc 1 2015 17 view .LVU215
 791 00a2 4183E002 		andl	$2, %r8d
 792              	.LVL62:
2016:fltk-1.3.4-1/png/pngwrite.c **** #  else
2017:fltk-1.3.4-1/png/pngwrite.c **** #     define bgr 0
2018:fltk-1.3.4-1/png/pngwrite.c **** #  endif
2019:fltk-1.3.4-1/png/pngwrite.c **** 
2020:fltk-1.3.4-1/png/pngwrite.c ****    int i, num_trans;
 793              		.loc 1 2020 4 is_stmt 1 view .LVU216
2021:fltk-1.3.4-1/png/pngwrite.c ****    png_color palette[256];
 794              		.loc 1 2021 4 view .LVU217
2022:fltk-1.3.4-1/png/pngwrite.c ****    png_byte tRNS[256];
 795              		.loc 1 2022 4 view .LVU218
2023:fltk-1.3.4-1/png/pngwrite.c **** 
2024:fltk-1.3.4-1/png/pngwrite.c ****    memset(tRNS, 255, (sizeof tRNS));
 796              		.loc 1 2024 4 view .LVU219
 797              	.LBB137:
 798              	.LBI117:
  59:/usr/include/x86_64-linux-gnu/bits/string_fortified.h **** {
 799              		.loc 2 59 1 view .LVU220
 800              	.LBB122:
 801              		.loc 2 71 3 view .LVU221
 802              		.loc 2 71 10 is_stmt 0 view .LVU222
 803 00a6 0F298424 		movaps	%xmm0, 944(%rsp)
 803      B0030000 
 804 00ae 0F298424 		movaps	%xmm0, 960(%rsp)
 804      C0030000 
 805 00b6 0F298424 		movaps	%xmm0, 976(%rsp)
 805      D0030000 
 806 00be 0F298424 		movaps	%xmm0, 992(%rsp)
 806      E0030000 
 807 00c6 0F298424 		movaps	%xmm0, 1008(%rsp)
 807      F0030000 
 808 00ce 0F298424 		movaps	%xmm0, 1024(%rsp)
 808      00040000 
 809 00d6 0F298424 		movaps	%xmm0, 1040(%rsp)
 809      10040000 
 810 00de 0F298424 		movaps	%xmm0, 1056(%rsp)
 810      20040000 
 811 00e6 0F298424 		movaps	%xmm0, 1072(%rsp)
 811      30040000 
 812 00ee 0F298424 		movaps	%xmm0, 1088(%rsp)
 812      40040000 
 813 00f6 0F298424 		movaps	%xmm0, 1104(%rsp)
 813      50040000 
 814 00fe 0F298424 		movaps	%xmm0, 1120(%rsp)
 814      60040000 
 815 0106 0F298424 		movaps	%xmm0, 1136(%rsp)
 815      70040000 
 816              	.LVL63:
 817              		.loc 2 71 10 view .LVU223
 818              	.LBE122:
 819              	.LBE137:
2025:fltk-1.3.4-1/png/pngwrite.c ****    memset(palette, 0, (sizeof palette));
 820              		.loc 1 2025 4 is_stmt 1 view .LVU224
 821              	.LBB138:
 822              	.LBI123:
  59:/usr/include/x86_64-linux-gnu/bits/string_fortified.h **** {
 823              		.loc 2 59 1 view .LVU225
 824              	.LBB129:
 825              		.loc 2 71 3 view .LVU226
 826              		.loc 2 71 3 is_stmt 0 view .LVU227
 827              	.LBE129:
 828              	.LBE138:
2026:fltk-1.3.4-1/png/pngwrite.c **** 
2027:fltk-1.3.4-1/png/pngwrite.c ****    for (i=num_trans=0; i<entries; ++i)
 829              		.loc 1 2027 4 is_stmt 1 view .LVU228
 830              		.loc 1 2027 24 view .LVU229
 831 010e 498B0F   		movq	(%r15), %rcx
 832 0111 48894C24 		movq	%rcx, 56(%rsp)
 832      38
 833              		.loc 1 2027 4 is_stmt 0 view .LVU230
 834 0116 4585C9   		testl	%r9d, %r9d
 835 0119 0F84A104 		je	.L59
 835      0000
 836 011f 31C9     		xorl	%ecx, %ecx
 837 0121 4183FE21 		cmpl	$33, %r14d
 838 0125 448D5E01 		leal	1(%rsi), %r11d
 839              	.LVL64:
 840              	.LBB139:
2028:fltk-1.3.4-1/png/pngwrite.c ****    {
2029:fltk-1.3.4-1/png/pngwrite.c ****       /* This gets automatically converted to sRGB with reversal of the
2030:fltk-1.3.4-1/png/pngwrite.c ****        * pre-multiplication if the color-map has an alpha channel.
2031:fltk-1.3.4-1/png/pngwrite.c ****        */
2032:fltk-1.3.4-1/png/pngwrite.c ****       if ((format & PNG_FORMAT_FLAG_LINEAR) != 0)
2033:fltk-1.3.4-1/png/pngwrite.c ****       {
2034:fltk-1.3.4-1/png/pngwrite.c ****          png_const_uint_16p entry = png_voidcast(png_const_uint_16p, cmap);
2035:fltk-1.3.4-1/png/pngwrite.c **** 
2036:fltk-1.3.4-1/png/pngwrite.c ****          entry += i * channels;
2037:fltk-1.3.4-1/png/pngwrite.c **** 
2038:fltk-1.3.4-1/png/pngwrite.c ****          if ((channels & 1) != 0) /* no alpha */
2039:fltk-1.3.4-1/png/pngwrite.c ****          {
2040:fltk-1.3.4-1/png/pngwrite.c ****             if (channels >= 3) /* RGB */
2041:fltk-1.3.4-1/png/pngwrite.c ****             {
2042:fltk-1.3.4-1/png/pngwrite.c ****                palette[i].blue = (png_byte)PNG_sRGB_FROM_LINEAR(255 *
2043:fltk-1.3.4-1/png/pngwrite.c ****                   entry[(2 ^ bgr)]);
2044:fltk-1.3.4-1/png/pngwrite.c ****                palette[i].green = (png_byte)PNG_sRGB_FROM_LINEAR(255 *
2045:fltk-1.3.4-1/png/pngwrite.c ****                   entry[1]);
2046:fltk-1.3.4-1/png/pngwrite.c ****                palette[i].red = (png_byte)PNG_sRGB_FROM_LINEAR(255 *
 841              		.loc 1 2046 43 view .LVU231
 842 0129 41B90100 		movl	$1, %r9d
 842      0000
 843 012f 0F95C1   		setne	%cl
 844              	.LBB140:
2047:fltk-1.3.4-1/png/pngwrite.c ****                   entry[bgr]);
2048:fltk-1.3.4-1/png/pngwrite.c ****             }
2049:fltk-1.3.4-1/png/pngwrite.c **** 
2050:fltk-1.3.4-1/png/pngwrite.c ****             else /* Gray */
2051:fltk-1.3.4-1/png/pngwrite.c ****                palette[i].blue = palette[i].red = palette[i].green =
2052:fltk-1.3.4-1/png/pngwrite.c ****                   (png_byte)PNG_sRGB_FROM_LINEAR(255 * *entry);
2053:fltk-1.3.4-1/png/pngwrite.c ****          }
2054:fltk-1.3.4-1/png/pngwrite.c **** 
2055:fltk-1.3.4-1/png/pngwrite.c ****          else /* alpha */
2056:fltk-1.3.4-1/png/pngwrite.c ****          {
2057:fltk-1.3.4-1/png/pngwrite.c ****             png_uint_16 alpha = entry[afirst ? 0 : channels-1];
 845              		.loc 1 2057 38 view .LVU232
 846 0132 4801F6   		addq	%rsi, %rsi
 847 0135 4183FE21 		cmpl	$33, %r14d
2058:fltk-1.3.4-1/png/pngwrite.c ****             png_byte alphabyte = (png_byte)PNG_DIV257(alpha);
2059:fltk-1.3.4-1/png/pngwrite.c ****             png_uint_32 reciprocal = 0;
2060:fltk-1.3.4-1/png/pngwrite.c **** 
2061:fltk-1.3.4-1/png/pngwrite.c ****             /* Calculate a reciprocal, as in the png_write_image_8bit code above
2062:fltk-1.3.4-1/png/pngwrite.c ****              * this is designed to produce a value scaled to 255*65535 when
2063:fltk-1.3.4-1/png/pngwrite.c ****              * divided by 128 (i.e. asr 7).
2064:fltk-1.3.4-1/png/pngwrite.c ****              */
2065:fltk-1.3.4-1/png/pngwrite.c ****             if (alphabyte > 0 && alphabyte < 255)
2066:fltk-1.3.4-1/png/pngwrite.c ****                reciprocal = (((0xffff*0xff)<<7)+(alpha>>1))/alpha;
2067:fltk-1.3.4-1/png/pngwrite.c **** 
2068:fltk-1.3.4-1/png/pngwrite.c ****             tRNS[i] = alphabyte;
2069:fltk-1.3.4-1/png/pngwrite.c ****             if (alphabyte < 255)
2070:fltk-1.3.4-1/png/pngwrite.c ****                num_trans = i+1;
2071:fltk-1.3.4-1/png/pngwrite.c **** 
2072:fltk-1.3.4-1/png/pngwrite.c ****             if (channels >= 3) /* RGB */
2073:fltk-1.3.4-1/png/pngwrite.c ****             {
2074:fltk-1.3.4-1/png/pngwrite.c ****                palette[i].blue = png_unpremultiply(entry[afirst + (2 ^ bgr)],
2075:fltk-1.3.4-1/png/pngwrite.c ****                   alpha, reciprocal);
2076:fltk-1.3.4-1/png/pngwrite.c ****                palette[i].green = png_unpremultiply(entry[afirst + 1], alpha,
2077:fltk-1.3.4-1/png/pngwrite.c ****                   reciprocal);
2078:fltk-1.3.4-1/png/pngwrite.c ****                palette[i].red = png_unpremultiply(entry[afirst + bgr], alpha,
2079:fltk-1.3.4-1/png/pngwrite.c ****                   reciprocal);
2080:fltk-1.3.4-1/png/pngwrite.c ****             }
2081:fltk-1.3.4-1/png/pngwrite.c **** 
2082:fltk-1.3.4-1/png/pngwrite.c ****             else /* gray */
2083:fltk-1.3.4-1/png/pngwrite.c ****                palette[i].blue = palette[i].red = palette[i].green =
2084:fltk-1.3.4-1/png/pngwrite.c ****                   png_unpremultiply(entry[afirst], alpha, reciprocal);
 848              		.loc 1 2084 42 view .LVU233
 849 0139 440FB6F2 		movzbl	%dl, %r14d
 850 013d 488D0C49 		leaq	(%rcx,%rcx,2), %rcx
 851 0141 480F45C6 		cmovne	%rsi, %rax
 852 0145 0FB6D2   		movzbl	%dl, %edx
 853              	.LVL65:
 854              		.loc 1 2084 42 view .LVU234
 855 0148 83E304   		andl	$4, %ebx
 856              	.LVL66:
 857              		.loc 1 2084 42 view .LVU235
 858 014b 48894C24 		movq	%rcx, 112(%rsp)
 858      70
2074:fltk-1.3.4-1/png/pngwrite.c ****                   alpha, reciprocal);
 859              		.loc 1 2074 70 view .LVU236
 860 0150 4489C1   		movl	%r8d, %ecx
 861              		.loc 1 2084 42 view .LVU237
 862 0153 4B8D3436 		leaq	(%r14,%r14), %rsi
 863 0157 4589DC   		movl	%r11d, %r12d
2074:fltk-1.3.4-1/png/pngwrite.c ****                   alpha, reciprocal);
 864              		.loc 1 2074 70 view .LVU238
 865 015a 83F102   		xorl	$2, %ecx
2057:fltk-1.3.4-1/png/pngwrite.c ****             png_byte alphabyte = (png_byte)PNG_DIV257(alpha);
 866              		.loc 1 2057 25 view .LVU239
 867 015d 4829E8   		subq	%rbp, %rax
2074:fltk-1.3.4-1/png/pngwrite.c ****                   alpha, reciprocal);
 868              		.loc 1 2074 70 view .LVU240
 869 0160 4863F9   		movslq	%ecx, %rdi
2057:fltk-1.3.4-1/png/pngwrite.c ****             png_byte alphabyte = (png_byte)PNG_DIV257(alpha);
 870              		.loc 1 2057 25 view .LVU241
 871 0163 48894424 		movq	%rax, 32(%rsp)
 871      20
2074:fltk-1.3.4-1/png/pngwrite.c ****                   alpha, reciprocal);
 872              		.loc 1 2074 65 view .LVU242
 873 0168 8D0C3A   		leal	(%rdx,%rdi), %ecx
2078:fltk-1.3.4-1/png/pngwrite.c ****                   reciprocal);
 874              		.loc 1 2078 64 view .LVU243
 875 016b 4401C2   		addl	%r8d, %edx
 876              	.LVL67:
2078:fltk-1.3.4-1/png/pngwrite.c ****                   reciprocal);
 877              		.loc 1 2078 64 view .LVU244
 878              	.LBE140:
2046:fltk-1.3.4-1/png/pngwrite.c ****                   entry[bgr]);
 879              		.loc 1 2046 43 view .LVU245
 880 016e 4D63C0   		movslq	%r8d, %r8
 881              	.LBB161:
2074:fltk-1.3.4-1/png/pngwrite.c ****                   alpha, reciprocal);
 882              		.loc 1 2074 57 view .LVU246
 883 0171 4C8D3C09 		leaq	(%rcx,%rcx), %r15
 884              	.LVL68:
2074:fltk-1.3.4-1/png/pngwrite.c ****                   alpha, reciprocal);
 885              		.loc 1 2074 57 view .LVU247
 886              	.LBE161:
 887              	.LBE139:
 888              	.LBB168:
2085:fltk-1.3.4-1/png/pngwrite.c ****          }
2086:fltk-1.3.4-1/png/pngwrite.c ****       }
2087:fltk-1.3.4-1/png/pngwrite.c **** 
2088:fltk-1.3.4-1/png/pngwrite.c ****       else /* Color-map has sRGB values */
2089:fltk-1.3.4-1/png/pngwrite.c ****       {
2090:fltk-1.3.4-1/png/pngwrite.c ****          png_const_bytep entry = png_voidcast(png_const_bytep, cmap);
2091:fltk-1.3.4-1/png/pngwrite.c **** 
2092:fltk-1.3.4-1/png/pngwrite.c ****          entry += i * channels;
2093:fltk-1.3.4-1/png/pngwrite.c **** 
2094:fltk-1.3.4-1/png/pngwrite.c ****          switch (channels)
2095:fltk-1.3.4-1/png/pngwrite.c ****          {
2096:fltk-1.3.4-1/png/pngwrite.c ****             case 4:
2097:fltk-1.3.4-1/png/pngwrite.c ****                tRNS[i] = entry[afirst ? 0 : 3];
2098:fltk-1.3.4-1/png/pngwrite.c ****                if (tRNS[i] < 255)
2099:fltk-1.3.4-1/png/pngwrite.c ****                   num_trans = i+1;
2100:fltk-1.3.4-1/png/pngwrite.c ****                /* FALL THROUGH */
2101:fltk-1.3.4-1/png/pngwrite.c ****             case 3:
2102:fltk-1.3.4-1/png/pngwrite.c ****                palette[i].blue = entry[afirst + (2 ^ bgr)];
 889              		.loc 1 2102 39 view .LVU248
 890 0175 48894C24 		movq	%rcx, 16(%rsp)
 890      10
 891              	.LBE168:
 892              	.LBB169:
2038:fltk-1.3.4-1/png/pngwrite.c ****          {
 893              		.loc 1 2038 24 view .LVU249
 894 017a 4489D9   		movl	%r11d, %ecx
 895              	.LBB162:
2074:fltk-1.3.4-1/png/pngwrite.c ****                   alpha, reciprocal);
 896              		.loc 1 2074 57 view .LVU250
 897 017d 4C897C24 		movq	%r15, 88(%rsp)
 897      58
2076:fltk-1.3.4-1/png/pngwrite.c ****                   reciprocal);
 898              		.loc 1 2076 58 view .LVU251
 899 0182 4C8D7E02 		leaq	2(%rsi), %r15
 900              	.LBE162:
2038:fltk-1.3.4-1/png/pngwrite.c ****          {
 901              		.loc 1 2038 24 view .LVU252
 902 0186 83E101   		andl	$1, %ecx
 903              	.LBB163:
2084:fltk-1.3.4-1/png/pngwrite.c ****          }
 904              		.loc 1 2084 42 view .LVU253
 905 0189 4829EE   		subq	%rbp, %rsi
2076:fltk-1.3.4-1/png/pngwrite.c ****                   reciprocal);
 906              		.loc 1 2076 58 view .LVU254
 907 018c 4C897C24 		movq	%r15, 96(%rsp)
 907      60
2078:fltk-1.3.4-1/png/pngwrite.c ****                   reciprocal);
 908              		.loc 1 2078 56 view .LVU255
 909 0191 4C8D3C12 		leaq	(%rdx,%rdx), %r15
 910 0195 4C897C24 		movq	%r15, 104(%rsp)
 910      68
 911              	.LBE163:
2042:fltk-1.3.4-1/png/pngwrite.c ****                   entry[(2 ^ bgr)]);
 912              		.loc 1 2042 44 view .LVU256
 913 019a 4C8D3C3F 		leaq	(%rdi,%rdi), %r15
 914 019e 418D7AFF 		leal	-1(%r10), %edi
2046:fltk-1.3.4-1/png/pngwrite.c ****                   entry[bgr]);
 915              		.loc 1 2046 43 view .LVU257
 916 01a2 4989EA   		movq	%rbp, %r10
 917              	.LVL69:
2042:fltk-1.3.4-1/png/pngwrite.c ****                   entry[(2 ^ bgr)]);
 918              		.loc 1 2042 44 view .LVU258
 919 01a5 4C897C24 		movq	%r15, 72(%rsp)
 919      48
2046:fltk-1.3.4-1/png/pngwrite.c ****                   entry[bgr]);
 920              		.loc 1 2046 43 view .LVU259
 921 01aa 4F8D3C00 		leaq	(%r8,%r8), %r15
 922 01ae 4D89E8   		movq	%r13, %r8
 923              	.LVL70:
2046:fltk-1.3.4-1/png/pngwrite.c ****                   entry[bgr]);
 924              		.loc 1 2046 43 view .LVU260
 925              	.LBE169:
2027:fltk-1.3.4-1/png/pngwrite.c ****    {
 926              		.loc 1 2027 20 view .LVU261
 927 01b1 4531ED   		xorl	%r13d, %r13d
 928              	.LBB170:
2046:fltk-1.3.4-1/png/pngwrite.c ****                   entry[bgr]);
 929              		.loc 1 2046 43 view .LVU262
 930 01b4 4C897C24 		movq	%r15, 80(%rsp)
 930      50
 931 01b9 4C8D7F02 		leaq	2(%rdi), %r15
 932              	.LBE170:
 933              	.LBB171:
2097:fltk-1.3.4-1/png/pngwrite.c ****                if (tRNS[i] < 255)
 934              		.loc 1 2097 24 view .LVU263
 935 01bd 488DBC24 		leaq	895(%rsp), %rdi
 935      7F030000 
2103:fltk-1.3.4-1/png/pngwrite.c ****                palette[i].green = entry[afirst + 1];
2104:fltk-1.3.4-1/png/pngwrite.c ****                palette[i].red = entry[afirst + bgr];
 936              		.loc 1 2104 38 view .LVU264
 937 01c5 48895424 		movq	%rdx, 24(%rsp)
 937      18
2097:fltk-1.3.4-1/png/pngwrite.c ****                if (tRNS[i] < 255)
 938              		.loc 1 2097 24 view .LVU265
 939 01ca 48893C24 		movq	%rdi, (%rsp)
 940              	.LBE171:
 941              	.LBB172:
2038:fltk-1.3.4-1/png/pngwrite.c ****          {
 942              		.loc 1 2038 24 view .LVU266
 943 01ce 894C2408 		movl	%ecx, 8(%rsp)
 944              	.LBB164:
2084:fltk-1.3.4-1/png/pngwrite.c ****          }
 945              		.loc 1 2084 42 view .LVU267
 946 01d2 48897424 		movq	%rsi, 120(%rsp)
 946      78
 947 01d7 E9DE0000 		jmp	.L76
 947      00
 948              	.LVL71:
 949 01dc 0F1F4000 		.p2align 4,,10
 950              		.p2align 3
 951              	.L109:
2084:fltk-1.3.4-1/png/pngwrite.c ****          }
 952              		.loc 1 2084 42 view .LVU268
 953              	.LBE164:
2034:fltk-1.3.4-1/png/pngwrite.c **** 
 954              		.loc 1 2034 10 is_stmt 1 view .LVU269
2036:fltk-1.3.4-1/png/pngwrite.c **** 
 955              		.loc 1 2036 10 view .LVU270
2038:fltk-1.3.4-1/png/pngwrite.c ****          {
 956              		.loc 1 2038 10 view .LVU271
2038:fltk-1.3.4-1/png/pngwrite.c ****          {
 957              		.loc 1 2038 13 is_stmt 0 view .LVU272
 958 01e0 8B442408 		movl	8(%rsp), %eax
 959 01e4 85C0     		testl	%eax, %eax
 960 01e6 0F847401 		je	.L61
 960      0000
2040:fltk-1.3.4-1/png/pngwrite.c ****             {
 961              		.loc 1 2040 13 is_stmt 1 view .LVU273
2040:fltk-1.3.4-1/png/pngwrite.c ****             {
 962              		.loc 1 2040 16 is_stmt 0 view .LVU274
 963 01ec 4183FB02 		cmpl	$2, %r11d
 964 01f0 0F8E0A03 		jle	.L62
 964      0000
2042:fltk-1.3.4-1/png/pngwrite.c ****                   entry[(2 ^ bgr)]);
 965              		.loc 1 2042 16 is_stmt 1 view .LVU275
2042:fltk-1.3.4-1/png/pngwrite.c ****                   entry[(2 ^ bgr)]);
 966              		.loc 1 2042 44 is_stmt 0 view .LVU276
 967 01f6 488B4424 		movq	72(%rsp), %rax
 967      48
 968 01fb 488D3500 		leaq	png_sRGB_delta(%rip), %rsi
 968      000000
 969 0202 488D3D00 		leaq	png_sRGB_base(%rip), %rdi
 969      000000
 970              	.LVL72:
2042:fltk-1.3.4-1/png/pngwrite.c ****                   entry[(2 ^ bgr)]);
 971              		.loc 1 2042 44 view .LVU277
 972 0209 4829E8   		subq	%rbp, %rax
 973 020c 420FB714 		movzwl	(%rax,%r10,2), %edx
 973      50
 974 0211 89D0     		movl	%edx, %eax
 975 0213 C1E008   		sall	$8, %eax
 976 0216 29D0     		subl	%edx, %eax
 977 0218 89C2     		movl	%eax, %edx
 978 021a 25FF7F00 		andl	$32767, %eax
 978      00
 979 021f C1FA0F   		sarl	$15, %edx
 980 0222 4863D2   		movslq	%edx, %rdx
 981 0225 0FB60C16 		movzbl	(%rsi,%rdx), %ecx
 982 0229 0FB71457 		movzwl	(%rdi,%rdx,2), %edx
 983 022d 0FAFC1   		imull	%ecx, %eax
 984 0230 C1F80C   		sarl	$12, %eax
 985 0233 01D0     		addl	%edx, %eax
2042:fltk-1.3.4-1/png/pngwrite.c ****                   entry[(2 ^ bgr)]);
 986              		.loc 1 2042 34 view .LVU278
 987 0235 0FB6C4   		movzbl	%ah, %eax
 988 0238 41884002 		movb	%al, 2(%r8)
2044:fltk-1.3.4-1/png/pngwrite.c ****                   entry[1]);
 989              		.loc 1 2044 16 is_stmt 1 view .LVU279
2044:fltk-1.3.4-1/png/pngwrite.c ****                   entry[1]);
 990              		.loc 1 2044 45 is_stmt 0 view .LVU280
 991 023c 4889E8   		movq	%rbp, %rax
 992 023f 48F7D8   		negq	%rax
 993 0242 420FB754 		movzwl	2(%rax,%r10,2), %edx
 993      5002
 994 0248 89D0     		movl	%edx, %eax
 995 024a C1E008   		sall	$8, %eax
 996 024d 29D0     		subl	%edx, %eax
 997 024f 89C2     		movl	%eax, %edx
 998 0251 25FF7F00 		andl	$32767, %eax
 998      00
 999 0256 C1FA0F   		sarl	$15, %edx
 1000 0259 4863D2   		movslq	%edx, %rdx
 1001 025c 0FB60C16 		movzbl	(%rsi,%rdx), %ecx
 1002 0260 0FB71457 		movzwl	(%rdi,%rdx,2), %edx
 1003 0264 0FAFC1   		imull	%ecx, %eax
 1004 0267 C1F80C   		sarl	$12, %eax
 1005 026a 01D0     		addl	%edx, %eax
2044:fltk-1.3.4-1/png/pngwrite.c ****                   entry[1]);
 1006              		.loc 1 2044 35 view .LVU281
 1007 026c 0FB6C4   		movzbl	%ah, %eax
 1008 026f 41884001 		movb	%al, 1(%r8)
2046:fltk-1.3.4-1/png/pngwrite.c ****                   entry[bgr]);
 1009              		.loc 1 2046 16 is_stmt 1 view .LVU282
2046:fltk-1.3.4-1/png/pngwrite.c ****                   entry[bgr]);
 1010              		.loc 1 2046 43 is_stmt 0 view .LVU283
 1011 0273 488B4424 		movq	80(%rsp), %rax
 1011      50
 1012 0278 4829E8   		subq	%rbp, %rax
 1013 027b 420FB714 		movzwl	(%rax,%r10,2), %edx
 1013      50
 1014 0280 89D0     		movl	%edx, %eax
 1015 0282 C1E008   		sall	$8, %eax
 1016 0285 29D0     		subl	%edx, %eax
 1017 0287 89C2     		movl	%eax, %edx
 1018 0289 25FF7F00 		andl	$32767, %eax
 1018      00
 1019 028e C1FA0F   		sarl	$15, %edx
 1020 0291 4863D2   		movslq	%edx, %rdx
 1021 0294 0FB60C16 		movzbl	(%rsi,%rdx), %ecx
 1022 0298 0FB71457 		movzwl	(%rdi,%rdx,2), %edx
 1023 029c 0FAFC1   		imull	%ecx, %eax
 1024 029f C1F80C   		sarl	$12, %eax
 1025 02a2 01D0     		addl	%edx, %eax
2046:fltk-1.3.4-1/png/pngwrite.c ****                   entry[bgr]);
 1026              		.loc 1 2046 33 view .LVU284
 1027 02a4 0FB6C4   		movzbl	%ah, %eax
 1028 02a7 418800   		movb	%al, (%r8)
 1029              	.L63:
2046:fltk-1.3.4-1/png/pngwrite.c ****                   entry[bgr]);
 1030              		.loc 1 2046 33 view .LVU285
 1031              	.LBE172:
2027:fltk-1.3.4-1/png/pngwrite.c ****    {
 1032              		.loc 1 2027 35 is_stmt 1 view .LVU286
 1033              	.LVL73:
2027:fltk-1.3.4-1/png/pngwrite.c ****    {
 1034              		.loc 1 2027 24 view .LVU287
 1035 02aa 4983C101 		addq	$1, %r9
 1036              	.LVL74:
2027:fltk-1.3.4-1/png/pngwrite.c ****    {
 1037              		.loc 1 2027 24 is_stmt 0 view .LVU288
 1038 02ae 4983C003 		addq	$3, %r8
 1039 02b2 4D01E2   		addq	%r12, %r10
2027:fltk-1.3.4-1/png/pngwrite.c ****    {
 1040              		.loc 1 2027 4 view .LVU289
 1041 02b5 4D39CF   		cmpq	%r9, %r15
 1042 02b8 744A     		je	.L108
 1043              	.LVL75:
 1044              	.L76:
2032:fltk-1.3.4-1/png/pngwrite.c ****       {
 1045              		.loc 1 2032 7 is_stmt 1 view .LVU290
 1046 02ba 4489CF   		movl	%r9d, %edi
2032:fltk-1.3.4-1/png/pngwrite.c ****       {
 1047              		.loc 1 2032 10 is_stmt 0 view .LVU291
 1048 02bd 85DB     		testl	%ebx, %ebx
 1049 02bf 0F851BFF 		jne	.L109
 1049      FFFF
 1050              	.LBB173:
2090:fltk-1.3.4-1/png/pngwrite.c **** 
 1051              		.loc 1 2090 10 is_stmt 1 view .LVU292
 1052              	.LVL76:
2092:fltk-1.3.4-1/png/pngwrite.c **** 
 1053              		.loc 1 2092 10 view .LVU293
2094:fltk-1.3.4-1/png/pngwrite.c ****          {
 1054              		.loc 1 2094 10 view .LVU294
 1055 02c5 4183FB03 		cmpl	$3, %r11d
 1056 02c9 0F849101 		je	.L72
 1056      0000
 1057 02cf 4183FB04 		cmpl	$4, %r11d
 1058 02d3 0F846F01 		je	.L73
 1058      0000
 1059 02d9 4183FB02 		cmpl	$2, %r11d
 1060 02dd 0F846D02 		je	.L110
 1060      0000
 1061              	.LVL77:
 1062              	.L75:
2105:fltk-1.3.4-1/png/pngwrite.c ****                break;
2106:fltk-1.3.4-1/png/pngwrite.c **** 
2107:fltk-1.3.4-1/png/pngwrite.c ****             case 2:
2108:fltk-1.3.4-1/png/pngwrite.c ****                tRNS[i] = entry[1 ^ afirst];
2109:fltk-1.3.4-1/png/pngwrite.c ****                if (tRNS[i] < 255)
2110:fltk-1.3.4-1/png/pngwrite.c ****                   num_trans = i+1;
2111:fltk-1.3.4-1/png/pngwrite.c ****                /* FALL THROUGH */
2112:fltk-1.3.4-1/png/pngwrite.c ****             case 1:
2113:fltk-1.3.4-1/png/pngwrite.c ****                palette[i].blue = palette[i].red = palette[i].green =
 1063              		.loc 1 2113 16 view .LVU295
2114:fltk-1.3.4-1/png/pngwrite.c ****                   entry[afirst];
 1064              		.loc 1 2114 24 is_stmt 0 view .LVU296
 1065 02e3 430FB604 		movzbl	(%r10,%r14), %eax
 1065      32
 1066              	.LVL78:
 1067              	.L107:
 1068              		.loc 1 2114 24 view .LVU297
 1069 02e8 4983C101 		addq	$1, %r9
 1070              	.LVL79:
2113:fltk-1.3.4-1/png/pngwrite.c ****                   entry[afirst];
 1071              		.loc 1 2113 68 view .LVU298
 1072 02ec 41884001 		movb	%al, 1(%r8)
 1073 02f0 4D01E2   		addq	%r12, %r10
 1074 02f3 4983C003 		addq	$3, %r8
2113:fltk-1.3.4-1/png/pngwrite.c ****                   entry[afirst];
 1075              		.loc 1 2113 49 view .LVU299
 1076 02f7 418840FD 		movb	%al, -3(%r8)
2113:fltk-1.3.4-1/png/pngwrite.c ****                   entry[afirst];
 1077              		.loc 1 2113 32 view .LVU300
 1078 02fb 418840FF 		movb	%al, -1(%r8)
2115:fltk-1.3.4-1/png/pngwrite.c ****                break;
 1079              		.loc 1 2115 16 is_stmt 1 view .LVU301
 1080              		.loc 1 2115 16 is_stmt 0 view .LVU302
 1081              	.LBE173:
2027:fltk-1.3.4-1/png/pngwrite.c ****    {
 1082              		.loc 1 2027 35 is_stmt 1 view .LVU303
2027:fltk-1.3.4-1/png/pngwrite.c ****    {
 1083              		.loc 1 2027 24 view .LVU304
2027:fltk-1.3.4-1/png/pngwrite.c ****    {
 1084              		.loc 1 2027 4 is_stmt 0 view .LVU305
 1085 02ff 4D39CF   		cmpq	%r9, %r15
 1086 0302 75B6     		jne	.L76
 1087              	.L108:
2116:fltk-1.3.4-1/png/pngwrite.c **** 
2117:fltk-1.3.4-1/png/pngwrite.c ****             default:
2118:fltk-1.3.4-1/png/pngwrite.c ****                break;
2119:fltk-1.3.4-1/png/pngwrite.c ****          }
2120:fltk-1.3.4-1/png/pngwrite.c ****       }
2121:fltk-1.3.4-1/png/pngwrite.c ****    }
2122:fltk-1.3.4-1/png/pngwrite.c **** 
2123:fltk-1.3.4-1/png/pngwrite.c **** #  ifdef afirst
2124:fltk-1.3.4-1/png/pngwrite.c **** #     undef afirst
2125:fltk-1.3.4-1/png/pngwrite.c **** #  endif
2126:fltk-1.3.4-1/png/pngwrite.c **** #  ifdef bgr
2127:fltk-1.3.4-1/png/pngwrite.c **** #     undef bgr
2128:fltk-1.3.4-1/png/pngwrite.c **** #  endif
2129:fltk-1.3.4-1/png/pngwrite.c **** 
2130:fltk-1.3.4-1/png/pngwrite.c ****    png_set_PLTE(image->opaque->png_ptr, image->opaque->info_ptr, palette,
 1088              		.loc 1 2130 4 is_stmt 1 view .LVU306
 1089 0304 488B4424 		movq	56(%rsp), %rax
 1089      38
 1090 0309 8B4C2430 		movl	48(%rsp), %ecx
 1091 030d 488B5424 		movq	64(%rsp), %rdx
 1091      40
 1092 0312 488B7008 		movq	8(%rax), %rsi
 1093 0316 488B38   		movq	(%rax), %rdi
 1094 0319 E8000000 		call	png_set_PLTE@PLT
 1094      00
 1095              	.LVL80:
2131:fltk-1.3.4-1/png/pngwrite.c ****       entries);
2132:fltk-1.3.4-1/png/pngwrite.c **** 
2133:fltk-1.3.4-1/png/pngwrite.c ****    if (num_trans > 0)
 1096              		.loc 1 2133 4 view .LVU307
 1097              		.loc 1 2133 7 is_stmt 0 view .LVU308
 1098 031e 4585ED   		testl	%r13d, %r13d
 1099 0321 0F855102 		jne	.L111
 1099      0000
 1100              	.LVL81:
 1101              	.L77:
2134:fltk-1.3.4-1/png/pngwrite.c ****       png_set_tRNS(image->opaque->png_ptr, image->opaque->info_ptr, tRNS,
2135:fltk-1.3.4-1/png/pngwrite.c ****          num_trans, NULL);
2136:fltk-1.3.4-1/png/pngwrite.c **** 
2137:fltk-1.3.4-1/png/pngwrite.c ****    image->colormap_entries = entries;
 1102              		.loc 1 2137 4 is_stmt 1 view .LVU309
 1103              		.loc 1 2137 28 is_stmt 0 view .LVU310
 1104 0327 488B4424 		movq	40(%rsp), %rax
 1104      28
 1105 032c 8B5C2430 		movl	48(%rsp), %ebx
 1106 0330 89581C   		movl	%ebx, 28(%rax)
2138:fltk-1.3.4-1/png/pngwrite.c **** }
 1107              		.loc 1 2138 1 view .LVU311
 1108 0333 488B8424 		movq	1160(%rsp), %rax
 1108      88040000 
 1109 033b 64483304 		xorq	%fs:40, %rax
 1109      25280000 
 1109      00
 1110 0344 0F859302 		jne	.L112
 1110      0000
 1111 034a 4881C498 		addq	$1176, %rsp
 1111      040000
 1112              		.cfi_remember_state
 1113              		.cfi_def_cfa_offset 56
 1114 0351 5B       		popq	%rbx
 1115              		.cfi_def_cfa_offset 48
 1116 0352 5D       		popq	%rbp
 1117              		.cfi_def_cfa_offset 40
 1118              	.LVL82:
 1119              		.loc 1 2138 1 view .LVU312
 1120 0353 415C     		popq	%r12
 1121              		.cfi_def_cfa_offset 32
 1122 0355 415D     		popq	%r13
 1123              		.cfi_def_cfa_offset 24
 1124 0357 415E     		popq	%r14
 1125              		.cfi_def_cfa_offset 16
 1126 0359 415F     		popq	%r15
 1127              		.cfi_def_cfa_offset 8
 1128 035b C3       		ret
 1129              	.LVL83:
 1130 035c 0F1F4000 		.p2align 4,,10
 1131              		.p2align 3
 1132              	.L61:
 1133              		.cfi_restore_state
 1134              	.LBB174:
 1135              	.LBB165:
2057:fltk-1.3.4-1/png/pngwrite.c ****             png_byte alphabyte = (png_byte)PNG_DIV257(alpha);
 1136              		.loc 1 2057 13 is_stmt 1 view .LVU313
2057:fltk-1.3.4-1/png/pngwrite.c ****             png_byte alphabyte = (png_byte)PNG_DIV257(alpha);
 1137              		.loc 1 2057 25 is_stmt 0 view .LVU314
 1138 0360 488B4424 		movq	32(%rsp), %rax
 1138      20
 1139 0365 420FB734 		movzwl	(%rax,%r10,2), %esi
 1139      50
2058:fltk-1.3.4-1/png/pngwrite.c ****             png_uint_32 reciprocal = 0;
 1140              		.loc 1 2058 44 view .LVU315
 1141 036a 89F1     		movl	%esi, %ecx
2057:fltk-1.3.4-1/png/pngwrite.c ****             png_byte alphabyte = (png_byte)PNG_DIV257(alpha);
 1142              		.loc 1 2057 25 view .LVU316
 1143 036c 89F0     		movl	%esi, %eax
 1144              	.LVL84:
2058:fltk-1.3.4-1/png/pngwrite.c ****             png_uint_32 reciprocal = 0;
 1145              		.loc 1 2058 13 is_stmt 1 view .LVU317
2058:fltk-1.3.4-1/png/pngwrite.c ****             png_uint_32 reciprocal = 0;
 1146              		.loc 1 2058 44 is_stmt 0 view .LVU318
 1147 036e C1E108   		sall	$8, %ecx
 1148 0371 29F1     		subl	%esi, %ecx
 1149 0373 81C17F80 		addl	$32895, %ecx
 1149      0000
 1150 0379 C1E910   		shrl	$16, %ecx
 1151              	.LVL85:
2059:fltk-1.3.4-1/png/pngwrite.c **** 
 1152              		.loc 1 2059 13 is_stmt 1 view .LVU319
2065:fltk-1.3.4-1/png/pngwrite.c ****                reciprocal = (((0xffff*0xff)<<7)+(alpha>>1))/alpha;
 1153              		.loc 1 2065 13 view .LVU320
2065:fltk-1.3.4-1/png/pngwrite.c ****                reciprocal = (((0xffff*0xff)<<7)+(alpha>>1))/alpha;
 1154              		.loc 1 2065 31 is_stmt 0 view .LVU321
 1155 037c 8D51FF   		leal	-1(%rcx), %edx
2065:fltk-1.3.4-1/png/pngwrite.c ****                reciprocal = (((0xffff*0xff)<<7)+(alpha>>1))/alpha;
 1156              		.loc 1 2065 16 view .LVU322
 1157 037f 80FAFD   		cmpb	$-3, %dl
 1158 0382 0F870801 		ja	.L64
 1158      0000
2066:fltk-1.3.4-1/png/pngwrite.c **** 
 1159              		.loc 1 2066 16 is_stmt 1 view .LVU323
2066:fltk-1.3.4-1/png/pngwrite.c **** 
 1160              		.loc 1 2066 55 is_stmt 0 view .LVU324
 1161 0388 66D1E8   		shrw	%ax
 1162 038b 0FB7C0   		movzwl	%ax, %eax
2066:fltk-1.3.4-1/png/pngwrite.c **** 
 1163              		.loc 1 2066 48 view .LVU325
 1164 038e 0580807F 		addl	$2139062400, %eax
 1164      7F
2066:fltk-1.3.4-1/png/pngwrite.c **** 
 1165              		.loc 1 2066 27 view .LVU326
 1166 0393 99       		cltd
 1167 0394 F7FE     		idivl	%esi
 1168 0396 8944240C 		movl	%eax, 12(%rsp)
 1169              	.LVL86:
2068:fltk-1.3.4-1/png/pngwrite.c ****             if (alphabyte < 255)
 1170              		.loc 1 2068 13 is_stmt 1 view .LVU327
2068:fltk-1.3.4-1/png/pngwrite.c ****             if (alphabyte < 255)
 1171              		.loc 1 2068 21 is_stmt 0 view .LVU328
 1172 039a 488B0424 		movq	(%rsp), %rax
 1173              	.LVL87:
2068:fltk-1.3.4-1/png/pngwrite.c ****             if (alphabyte < 255)
 1174              		.loc 1 2068 21 view .LVU329
 1175 039e 42880C08 		movb	%cl, (%rax,%r9)
2069:fltk-1.3.4-1/png/pngwrite.c ****                num_trans = i+1;
 1176              		.loc 1 2069 13 is_stmt 1 view .LVU330
 1177              	.LVL88:
 1178              	.L65:
2070:fltk-1.3.4-1/png/pngwrite.c **** 
 1179              		.loc 1 2070 16 view .LVU331
2070:fltk-1.3.4-1/png/pngwrite.c **** 
 1180              		.loc 1 2070 26 is_stmt 0 view .LVU332
 1181 03a2 4189FD   		movl	%edi, %r13d
 1182              	.LVL89:
 1183              	.L66:
2072:fltk-1.3.4-1/png/pngwrite.c ****             {
 1184              		.loc 1 2072 13 is_stmt 1 view .LVU333
2072:fltk-1.3.4-1/png/pngwrite.c ****             {
 1185              		.loc 1 2072 16 is_stmt 0 view .LVU334
 1186 03a5 4183FB02 		cmpl	$2, %r11d
 1187 03a9 0F8E1101 		jle	.L67
 1187      0000
2074:fltk-1.3.4-1/png/pngwrite.c ****                   alpha, reciprocal);
 1188              		.loc 1 2074 16 is_stmt 1 view .LVU335
2074:fltk-1.3.4-1/png/pngwrite.c ****                   alpha, reciprocal);
 1189              		.loc 1 2074 57 is_stmt 0 view .LVU336
 1190 03af 488B4424 		movq	88(%rsp), %rax
 1190      58
 1191              	.LBB141:
 1192              	.LBB142:
1867:fltk-1.3.4-1/png/pngwrite.c ****       return 255;
 1193              		.loc 1 1867 7 view .LVU337
 1194 03b4 BA7F0000 		movl	$127, %edx
 1194      00
 1195              	.LBE142:
 1196              	.LBE141:
2074:fltk-1.3.4-1/png/pngwrite.c ****                   alpha, reciprocal);
 1197              		.loc 1 2074 57 view .LVU338
 1198 03b9 4829E8   		subq	%rbp, %rax
2074:fltk-1.3.4-1/png/pngwrite.c ****                   alpha, reciprocal);
 1199              		.loc 1 2074 34 view .LVU339
 1200 03bc 420FB73C 		movzwl	(%rax,%r10,2), %edi
 1200      50
 1201              	.LVL90:
 1202              	.LBB145:
 1203              	.LBI141:
1854:fltk-1.3.4-1/png/pngwrite.c ****    png_uint_32 reciprocal/*from the above macro*/)
 1204              		.loc 1 1854 1 is_stmt 1 view .LVU340
 1205              	.LBB143:
1867:fltk-1.3.4-1/png/pngwrite.c ****       return 255;
 1206              		.loc 1 1867 4 view .LVU341
1868:fltk-1.3.4-1/png/pngwrite.c **** 
 1207              		.loc 1 1868 14 is_stmt 0 view .LVU342
 1208 03c1 B8FFFFFF 		movl	$-1, %eax
 1208      FF
1867:fltk-1.3.4-1/png/pngwrite.c ****       return 255;
 1209              		.loc 1 1867 7 view .LVU343
 1210 03c6 83FF7F   		cmpl	$127, %edi
 1211 03c9 0F43D7   		cmovnb	%edi, %edx
 1212 03cc 39D6     		cmpl	%edx, %esi
 1213 03ce 760A     		jbe	.L68
1873:fltk-1.3.4-1/png/pngwrite.c ****    {
 1214              		.loc 1 1873 9 is_stmt 1 view .LVU344
1895:fltk-1.3.4-1/png/pngwrite.c **** }
 1215              		.loc 1 1895 14 is_stmt 0 view .LVU345
 1216 03d0 31C0     		xorl	%eax, %eax
1873:fltk-1.3.4-1/png/pngwrite.c ****    {
 1217              		.loc 1 1873 12 view .LVU346
 1218 03d2 85FF     		testl	%edi, %edi
 1219 03d4 0F85D601 		jne	.L113
 1219      0000
 1220              	.LVL91:
 1221              	.L68:
1873:fltk-1.3.4-1/png/pngwrite.c ****    {
 1222              		.loc 1 1873 12 view .LVU347
 1223              	.LBE143:
 1224              	.LBE145:
2074:fltk-1.3.4-1/png/pngwrite.c ****                   alpha, reciprocal);
 1225              		.loc 1 2074 32 view .LVU348
 1226 03da 41884002 		movb	%al, 2(%r8)
2076:fltk-1.3.4-1/png/pngwrite.c ****                   reciprocal);
 1227              		.loc 1 2076 16 is_stmt 1 view .LVU349
2076:fltk-1.3.4-1/png/pngwrite.c ****                   reciprocal);
 1228              		.loc 1 2076 58 is_stmt 0 view .LVU350
 1229 03de 488B4424 		movq	96(%rsp), %rax
 1229      60
 1230              	.LBB146:
 1231              	.LBB147:
1867:fltk-1.3.4-1/png/pngwrite.c ****       return 255;
 1232              		.loc 1 1867 7 view .LVU351
 1233 03e3 BA7F0000 		movl	$127, %edx
 1233      00
 1234              	.LBE147:
 1235              	.LBE146:
2076:fltk-1.3.4-1/png/pngwrite.c ****                   reciprocal);
 1236              		.loc 1 2076 58 view .LVU352
 1237 03e8 4829E8   		subq	%rbp, %rax
2076:fltk-1.3.4-1/png/pngwrite.c ****                   reciprocal);
 1238              		.loc 1 2076 35 view .LVU353
 1239 03eb 420FB73C 		movzwl	(%rax,%r10,2), %edi
 1239      50
 1240              	.LVL92:
 1241              	.LBB150:
 1242              	.LBI146:
1854:fltk-1.3.4-1/png/pngwrite.c ****    png_uint_32 reciprocal/*from the above macro*/)
 1243              		.loc 1 1854 1 is_stmt 1 view .LVU354
 1244              	.LBB148:
1867:fltk-1.3.4-1/png/pngwrite.c ****       return 255;
 1245              		.loc 1 1867 4 view .LVU355
1868:fltk-1.3.4-1/png/pngwrite.c **** 
 1246              		.loc 1 1868 14 is_stmt 0 view .LVU356
 1247 03f0 B8FFFFFF 		movl	$-1, %eax
 1247      FF
1867:fltk-1.3.4-1/png/pngwrite.c ****       return 255;
 1248              		.loc 1 1867 7 view .LVU357
 1249 03f5 83FF7F   		cmpl	$127, %edi
 1250 03f8 0F43D7   		cmovnb	%edi, %edx
 1251 03fb 39D6     		cmpl	%edx, %esi
 1252 03fd 760A     		jbe	.L69
1873:fltk-1.3.4-1/png/pngwrite.c ****    {
 1253              		.loc 1 1873 9 is_stmt 1 view .LVU358
1895:fltk-1.3.4-1/png/pngwrite.c **** }
 1254              		.loc 1 1895 14 is_stmt 0 view .LVU359
 1255 03ff 31C0     		xorl	%eax, %eax
1873:fltk-1.3.4-1/png/pngwrite.c ****    {
 1256              		.loc 1 1873 12 view .LVU360
 1257 0401 85FF     		testl	%edi, %edi
 1258 0403 0F859701 		jne	.L114
 1258      0000
 1259              	.LVL93:
 1260              	.L69:
1873:fltk-1.3.4-1/png/pngwrite.c ****    {
 1261              		.loc 1 1873 12 view .LVU361
 1262              	.LBE148:
 1263              	.LBE150:
2076:fltk-1.3.4-1/png/pngwrite.c ****                   reciprocal);
 1264              		.loc 1 2076 33 view .LVU362
 1265 0409 41884001 		movb	%al, 1(%r8)
2078:fltk-1.3.4-1/png/pngwrite.c ****                   reciprocal);
 1266              		.loc 1 2078 16 is_stmt 1 view .LVU363
2078:fltk-1.3.4-1/png/pngwrite.c ****                   reciprocal);
 1267              		.loc 1 2078 56 is_stmt 0 view .LVU364
 1268 040d 488B4424 		movq	104(%rsp), %rax
 1268      68
 1269              	.LBB151:
 1270              	.LBB152:
1867:fltk-1.3.4-1/png/pngwrite.c ****       return 255;
 1271              		.loc 1 1867 7 view .LVU365
 1272 0412 BA7F0000 		movl	$127, %edx
 1272      00
 1273              	.LBE152:
 1274              	.LBE151:
2078:fltk-1.3.4-1/png/pngwrite.c ****                   reciprocal);
 1275              		.loc 1 2078 56 view .LVU366
 1276 0417 4829E8   		subq	%rbp, %rax
2078:fltk-1.3.4-1/png/pngwrite.c ****                   reciprocal);
 1277              		.loc 1 2078 33 view .LVU367
 1278 041a 420FB73C 		movzwl	(%rax,%r10,2), %edi
 1278      50
 1279              	.LVL94:
 1280              	.LBB154:
 1281              	.LBI151:
1854:fltk-1.3.4-1/png/pngwrite.c ****    png_uint_32 reciprocal/*from the above macro*/)
 1282              		.loc 1 1854 1 is_stmt 1 view .LVU368
 1283              	.LBB153:
1867:fltk-1.3.4-1/png/pngwrite.c ****       return 255;
 1284              		.loc 1 1867 4 view .LVU369
1868:fltk-1.3.4-1/png/pngwrite.c **** 
 1285              		.loc 1 1868 14 is_stmt 0 view .LVU370
 1286 041f B8FFFFFF 		movl	$-1, %eax
 1286      FF
1867:fltk-1.3.4-1/png/pngwrite.c ****       return 255;
 1287              		.loc 1 1867 7 view .LVU371
 1288 0424 83FF7F   		cmpl	$127, %edi
 1289 0427 0F43D7   		cmovnb	%edi, %edx
 1290 042a 39D6     		cmpl	%edx, %esi
 1291 042c 760F     		jbe	.L106
1873:fltk-1.3.4-1/png/pngwrite.c ****    {
 1292              		.loc 1 1873 9 is_stmt 1 view .LVU372
1895:fltk-1.3.4-1/png/pngwrite.c **** }
 1293              		.loc 1 1895 14 is_stmt 0 view .LVU373
 1294 042e 31C0     		xorl	%eax, %eax
1873:fltk-1.3.4-1/png/pngwrite.c ****    {
 1295              		.loc 1 1873 12 view .LVU374
 1296 0430 85FF     		testl	%edi, %edi
 1297 0432 7409     		je	.L106
 1298 0434 8B54240C 		movl	12(%rsp), %edx
 1299 0438 E8000000 		call	png_unpremultiply.part.0
 1299      00
 1300              	.LVL95:
 1301              	.L106:
1873:fltk-1.3.4-1/png/pngwrite.c ****    {
 1302              		.loc 1 1873 12 view .LVU375
 1303              	.LBE153:
 1304              	.LBE154:
 1305              	.LBE165:
 1306              	.LBE174:
 1307              	.LBB175:
2104:fltk-1.3.4-1/png/pngwrite.c ****                break;
 1308              		.loc 1 2104 31 view .LVU376
 1309 043d 418800   		movb	%al, (%r8)
2105:fltk-1.3.4-1/png/pngwrite.c **** 
 1310              		.loc 1 2105 16 is_stmt 1 view .LVU377
 1311 0440 E965FEFF 		jmp	.L63
 1311      FF
 1312              	.LVL96:
 1313              		.p2align 4,,10
 1314 0445 0F1F00   		.p2align 3
 1315              	.L73:
2097:fltk-1.3.4-1/png/pngwrite.c ****                if (tRNS[i] < 255)
 1316              		.loc 1 2097 16 view .LVU378
2097:fltk-1.3.4-1/png/pngwrite.c ****                if (tRNS[i] < 255)
 1317              		.loc 1 2097 31 is_stmt 0 view .LVU379
 1318 0448 488B4424 		movq	112(%rsp), %rax
 1318      70
2097:fltk-1.3.4-1/png/pngwrite.c ****                if (tRNS[i] < 255)
 1319              		.loc 1 2097 24 view .LVU380
 1320 044d 488B0C24 		movq	(%rsp), %rcx
2097:fltk-1.3.4-1/png/pngwrite.c ****                if (tRNS[i] < 255)
 1321              		.loc 1 2097 31 view .LVU381
 1322 0451 410FB604 		movzbl	(%r10,%rax), %eax
 1322      02
2099:fltk-1.3.4-1/png/pngwrite.c ****                /* FALL THROUGH */
 1323              		.loc 1 2099 29 view .LVU382
 1324 0456 3CFF     		cmpb	$-1, %al
2097:fltk-1.3.4-1/png/pngwrite.c ****                if (tRNS[i] < 255)
 1325              		.loc 1 2097 24 view .LVU383
 1326 0458 42880409 		movb	%al, (%rcx,%r9)
2098:fltk-1.3.4-1/png/pngwrite.c ****                   num_trans = i+1;
 1327              		.loc 1 2098 16 is_stmt 1 view .LVU384
2099:fltk-1.3.4-1/png/pngwrite.c ****                /* FALL THROUGH */
 1328              		.loc 1 2099 29 is_stmt 0 view .LVU385
 1329 045c 450F45E9 		cmovne	%r9d, %r13d
 1330              	.LVL97:
 1331              	.L72:
2102:fltk-1.3.4-1/png/pngwrite.c ****                palette[i].green = entry[afirst + 1];
 1332              		.loc 1 2102 16 is_stmt 1 view .LVU386
2102:fltk-1.3.4-1/png/pngwrite.c ****                palette[i].green = entry[afirst + 1];
 1333              		.loc 1 2102 39 is_stmt 0 view .LVU387
 1334 0460 488B4424 		movq	16(%rsp), %rax
 1334      10
 1335 0465 410FB604 		movzbl	(%r10,%rax), %eax
 1335      02
2102:fltk-1.3.4-1/png/pngwrite.c ****                palette[i].green = entry[afirst + 1];
 1336              		.loc 1 2102 32 view .LVU388
 1337 046a 41884002 		movb	%al, 2(%r8)
2103:fltk-1.3.4-1/png/pngwrite.c ****                palette[i].red = entry[afirst + bgr];
 1338              		.loc 1 2103 16 is_stmt 1 view .LVU389
2103:fltk-1.3.4-1/png/pngwrite.c ****                palette[i].red = entry[afirst + bgr];
 1339              		.loc 1 2103 40 is_stmt 0 view .LVU390
 1340 046e 430FB644 		movzbl	1(%r10,%r14), %eax
 1340      3201
2103:fltk-1.3.4-1/png/pngwrite.c ****                palette[i].red = entry[afirst + bgr];
 1341              		.loc 1 2103 33 view .LVU391
 1342 0474 41884001 		movb	%al, 1(%r8)
2104:fltk-1.3.4-1/png/pngwrite.c ****                break;
 1343              		.loc 1 2104 16 is_stmt 1 view .LVU392
2104:fltk-1.3.4-1/png/pngwrite.c ****                break;
 1344              		.loc 1 2104 38 is_stmt 0 view .LVU393
 1345 0478 488B4424 		movq	24(%rsp), %rax
 1345      18
 1346 047d 410FB604 		movzbl	(%r10,%rax), %eax
 1346      02
2104:fltk-1.3.4-1/png/pngwrite.c ****                break;
 1347              		.loc 1 2104 31 view .LVU394
 1348 0482 418800   		movb	%al, (%r8)
2105:fltk-1.3.4-1/png/pngwrite.c **** 
 1349              		.loc 1 2105 16 is_stmt 1 view .LVU395
 1350 0485 E920FEFF 		jmp	.L63
 1350      FF
 1351              	.LVL98:
 1352 048a 660F1F44 		.p2align 4,,10
 1352      0000
 1353              		.p2align 3
 1354              	.L64:
2105:fltk-1.3.4-1/png/pngwrite.c **** 
 1355              		.loc 1 2105 16 is_stmt 0 view .LVU396
 1356              	.LBE175:
 1357              	.LBB176:
 1358              	.LBB166:
2068:fltk-1.3.4-1/png/pngwrite.c ****             if (alphabyte < 255)
 1359              		.loc 1 2068 13 is_stmt 1 view .LVU397
2068:fltk-1.3.4-1/png/pngwrite.c ****             if (alphabyte < 255)
 1360              		.loc 1 2068 21 is_stmt 0 view .LVU398
 1361 0490 488B0424 		movq	(%rsp), %rax
2059:fltk-1.3.4-1/png/pngwrite.c **** 
 1362              		.loc 1 2059 25 view .LVU399
 1363 0494 C744240C 		movl	$0, 12(%rsp)
 1363      00000000 
2068:fltk-1.3.4-1/png/pngwrite.c ****             if (alphabyte < 255)
 1364              		.loc 1 2068 21 view .LVU400
 1365 049c 42880C08 		movb	%cl, (%rax,%r9)
2069:fltk-1.3.4-1/png/pngwrite.c ****                num_trans = i+1;
 1366              		.loc 1 2069 13 is_stmt 1 view .LVU401
2069:fltk-1.3.4-1/png/pngwrite.c ****                num_trans = i+1;
 1367              		.loc 1 2069 16 is_stmt 0 view .LVU402
 1368 04a0 81F9FF00 		cmpl	$255, %ecx
 1368      0000
 1369 04a6 0F84F9FE 		je	.L66
 1369      FFFF
2059:fltk-1.3.4-1/png/pngwrite.c **** 
 1370              		.loc 1 2059 25 view .LVU403
 1371 04ac 8B442408 		movl	8(%rsp), %eax
 1372 04b0 8944240C 		movl	%eax, 12(%rsp)
 1373 04b4 E9E9FEFF 		jmp	.L65
 1373      FF
 1374              	.LVL99:
 1375 04b9 0F1F8000 		.p2align 4,,10
 1375      000000
 1376              		.p2align 3
 1377              	.L67:
2083:fltk-1.3.4-1/png/pngwrite.c ****                   png_unpremultiply(entry[afirst], alpha, reciprocal);
 1378              		.loc 1 2083 16 is_stmt 1 view .LVU404
2084:fltk-1.3.4-1/png/pngwrite.c ****          }
 1379              		.loc 1 2084 19 is_stmt 0 view .LVU405
 1380 04c0 488B4424 		movq	120(%rsp), %rax
 1380      78
 1381              	.LBB155:
 1382              	.LBB156:
1867:fltk-1.3.4-1/png/pngwrite.c ****       return 255;
 1383              		.loc 1 1867 7 view .LVU406
 1384 04c5 BA7F0000 		movl	$127, %edx
 1384      00
 1385              	.LBE156:
 1386              	.LBE155:
2084:fltk-1.3.4-1/png/pngwrite.c ****          }
 1387              		.loc 1 2084 19 view .LVU407
 1388 04ca 420FB73C 		movzwl	(%rax,%r10,2), %edi
 1388      50
 1389              	.LVL100:
 1390              	.LBB158:
 1391              	.LBI155:
1854:fltk-1.3.4-1/png/pngwrite.c ****    png_uint_32 reciprocal/*from the above macro*/)
 1392              		.loc 1 1854 1 is_stmt 1 view .LVU408
 1393              	.LBB157:
1867:fltk-1.3.4-1/png/pngwrite.c ****       return 255;
 1394              		.loc 1 1867 4 view .LVU409
1868:fltk-1.3.4-1/png/pngwrite.c **** 
 1395              		.loc 1 1868 14 is_stmt 0 view .LVU410
 1396 04cf B8FFFFFF 		movl	$-1, %eax
 1396      FF
1867:fltk-1.3.4-1/png/pngwrite.c ****       return 255;
 1397              		.loc 1 1867 7 view .LVU411
 1398 04d4 83FF7F   		cmpl	$127, %edi
 1399 04d7 0F43D7   		cmovnb	%edi, %edx
 1400 04da 39D6     		cmpl	%edx, %esi
 1401 04dc 0F8606FE 		jbe	.L107
 1401      FFFF
1873:fltk-1.3.4-1/png/pngwrite.c ****    {
 1402              		.loc 1 1873 9 is_stmt 1 view .LVU412
1895:fltk-1.3.4-1/png/pngwrite.c **** }
 1403              		.loc 1 1895 14 is_stmt 0 view .LVU413
 1404 04e2 31C0     		xorl	%eax, %eax
1873:fltk-1.3.4-1/png/pngwrite.c ****    {
 1405              		.loc 1 1873 12 view .LVU414
 1406 04e4 85FF     		testl	%edi, %edi
 1407 04e6 0F84FCFD 		je	.L107
 1407      FFFF
 1408 04ec 8B54240C 		movl	12(%rsp), %edx
 1409 04f0 E8000000 		call	png_unpremultiply.part.0
 1409      00
 1410              	.LVL101:
1873:fltk-1.3.4-1/png/pngwrite.c ****    {
 1411              		.loc 1 1873 12 view .LVU415
 1412 04f5 E9EEFDFF 		jmp	.L107
 1412      FF
 1413              	.LVL102:
 1414 04fa 660F1F44 		.p2align 4,,10
 1414      0000
 1415              		.p2align 3
 1416              	.L62:
1873:fltk-1.3.4-1/png/pngwrite.c ****    {
 1417              		.loc 1 1873 12 view .LVU416
 1418              	.LBE157:
 1419              	.LBE158:
 1420              	.LBE166:
2051:fltk-1.3.4-1/png/pngwrite.c ****                   (png_byte)PNG_sRGB_FROM_LINEAR(255 * *entry);
 1421              		.loc 1 2051 16 is_stmt 1 view .LVU417
2052:fltk-1.3.4-1/png/pngwrite.c ****          }
 1422              		.loc 1 2052 29 is_stmt 0 view .LVU418
 1423 0500 4889E8   		movq	%rbp, %rax
 1424 0503 488D0D00 		leaq	png_sRGB_delta(%rip), %rcx
 1424      000000
 1425 050a 488D3500 		leaq	png_sRGB_base(%rip), %rsi
 1425      000000
 1426 0511 48F7D8   		negq	%rax
 1427 0514 420FB714 		movzwl	(%rax,%r10,2), %edx
 1427      50
 1428 0519 89D0     		movl	%edx, %eax
 1429 051b C1E008   		sall	$8, %eax
 1430 051e 29D0     		subl	%edx, %eax
 1431 0520 89C2     		movl	%eax, %edx
 1432 0522 25FF7F00 		andl	$32767, %eax
 1432      00
 1433 0527 C1FA0F   		sarl	$15, %edx
 1434 052a 4863D2   		movslq	%edx, %rdx
 1435 052d 0FB60C11 		movzbl	(%rcx,%rdx), %ecx
 1436 0531 0FB71456 		movzwl	(%rsi,%rdx,2), %edx
 1437 0535 0FAFC1   		imull	%ecx, %eax
 1438 0538 C1F80C   		sarl	$12, %eax
 1439 053b 01D0     		addl	%edx, %eax
 1440 053d C1F808   		sarl	$8, %eax
2051:fltk-1.3.4-1/png/pngwrite.c ****                   (png_byte)PNG_sRGB_FROM_LINEAR(255 * *entry);
 1441              		.loc 1 2051 68 view .LVU419
 1442 0540 41884001 		movb	%al, 1(%r8)
2051:fltk-1.3.4-1/png/pngwrite.c ****                   (png_byte)PNG_sRGB_FROM_LINEAR(255 * *entry);
 1443              		.loc 1 2051 49 view .LVU420
 1444 0544 418800   		movb	%al, (%r8)
2051:fltk-1.3.4-1/png/pngwrite.c ****                   (png_byte)PNG_sRGB_FROM_LINEAR(255 * *entry);
 1445              		.loc 1 2051 32 view .LVU421
 1446 0547 41884002 		movb	%al, 2(%r8)
 1447 054b E95AFDFF 		jmp	.L63
 1447      FF
 1448              	.LVL103:
 1449              		.p2align 4,,10
 1450              		.p2align 3
 1451              	.L110:
2051:fltk-1.3.4-1/png/pngwrite.c ****                   (png_byte)PNG_sRGB_FROM_LINEAR(255 * *entry);
 1452              		.loc 1 2051 32 view .LVU422
 1453              	.LBE176:
 1454              	.LBB177:
2108:fltk-1.3.4-1/png/pngwrite.c ****                if (tRNS[i] < 255)
 1455              		.loc 1 2108 16 is_stmt 1 view .LVU423
2108:fltk-1.3.4-1/png/pngwrite.c ****                if (tRNS[i] < 255)
 1456              		.loc 1 2108 34 is_stmt 0 view .LVU424
 1457 0550 31C0     		xorl	%eax, %eax
 1458 0552 837C2434 		cmpl	$33, 52(%rsp)
 1458      21
2108:fltk-1.3.4-1/png/pngwrite.c ****                if (tRNS[i] < 255)
 1459              		.loc 1 2108 24 view .LVU425
 1460 0557 488B3424 		movq	(%rsp), %rsi
2108:fltk-1.3.4-1/png/pngwrite.c ****                if (tRNS[i] < 255)
 1461              		.loc 1 2108 34 view .LVU426
 1462 055b 0F95C0   		setne	%al
2108:fltk-1.3.4-1/png/pngwrite.c ****                if (tRNS[i] < 255)
 1463              		.loc 1 2108 31 view .LVU427
 1464 055e 410FB604 		movzbl	(%r10,%rax), %eax
 1464      02
2110:fltk-1.3.4-1/png/pngwrite.c ****                /* FALL THROUGH */
 1465              		.loc 1 2110 29 view .LVU428
 1466 0563 3CFF     		cmpb	$-1, %al
2108:fltk-1.3.4-1/png/pngwrite.c ****                if (tRNS[i] < 255)
 1467              		.loc 1 2108 24 view .LVU429
 1468 0565 4288040E 		movb	%al, (%rsi,%r9)
2109:fltk-1.3.4-1/png/pngwrite.c ****                   num_trans = i+1;
 1469              		.loc 1 2109 16 is_stmt 1 view .LVU430
2110:fltk-1.3.4-1/png/pngwrite.c ****                /* FALL THROUGH */
 1470              		.loc 1 2110 29 is_stmt 0 view .LVU431
 1471 0569 450F45E9 		cmovne	%r9d, %r13d
 1472              	.LVL104:
2110:fltk-1.3.4-1/png/pngwrite.c ****                /* FALL THROUGH */
 1473              		.loc 1 2110 29 view .LVU432
 1474 056d E971FDFF 		jmp	.L75
 1474      FF
 1475              	.LVL105:
 1476              		.p2align 4,,10
 1477 0572 660F1F44 		.p2align 3
 1477      0000
 1478              	.L111:
2110:fltk-1.3.4-1/png/pngwrite.c ****                /* FALL THROUGH */
 1479              		.loc 1 2110 29 view .LVU433
 1480              	.LBE177:
2134:fltk-1.3.4-1/png/pngwrite.c ****          num_trans, NULL);
 1481              		.loc 1 2134 7 is_stmt 1 view .LVU434
2134:fltk-1.3.4-1/png/pngwrite.c ****          num_trans, NULL);
 1482              		.loc 1 2134 49 is_stmt 0 view .LVU435
 1483 0578 488B4424 		movq	40(%rsp), %rax
 1483      28
2134:fltk-1.3.4-1/png/pngwrite.c ****          num_trans, NULL);
 1484              		.loc 1 2134 7 view .LVU436
 1485 057d 488D9424 		leaq	896(%rsp), %rdx
 1485      80030000 
 1486 0585 4531C0   		xorl	%r8d, %r8d
 1487 0588 4489E9   		movl	%r13d, %ecx
2134:fltk-1.3.4-1/png/pngwrite.c ****          num_trans, NULL);
 1488              		.loc 1 2134 49 view .LVU437
 1489 058b 488B00   		movq	(%rax), %rax
2134:fltk-1.3.4-1/png/pngwrite.c ****          num_trans, NULL);
 1490              		.loc 1 2134 7 view .LVU438
 1491 058e 488B7008 		movq	8(%rax), %rsi
 1492 0592 488B38   		movq	(%rax), %rdi
 1493 0595 E8000000 		call	png_set_tRNS@PLT
 1493      00
 1494              	.LVL106:
 1495 059a E988FDFF 		jmp	.L77
 1495      FF
 1496              	.LVL107:
 1497 059f 90       		.p2align 4,,10
 1498              		.p2align 3
 1499              	.L114:
 1500              	.LBB178:
 1501              	.LBB167:
 1502              	.LBB159:
 1503              	.LBB149:
2134:fltk-1.3.4-1/png/pngwrite.c ****          num_trans, NULL);
 1504              		.loc 1 2134 7 view .LVU439
 1505 05a0 8B54240C 		movl	12(%rsp), %edx
 1506 05a4 E8000000 		call	png_unpremultiply.part.0
 1506      00
 1507              	.LVL108:
2134:fltk-1.3.4-1/png/pngwrite.c ****          num_trans, NULL);
 1508              		.loc 1 2134 7 view .LVU440
 1509 05a9 E95BFEFF 		jmp	.L69
 1509      FF
 1510              	.LVL109:
 1511 05ae 6690     		.p2align 4,,10
 1512              		.p2align 3
 1513              	.L113:
2134:fltk-1.3.4-1/png/pngwrite.c ****          num_trans, NULL);
 1514              		.loc 1 2134 7 view .LVU441
 1515              	.LBE149:
 1516              	.LBE159:
 1517              	.LBB160:
 1518              	.LBB144:
 1519 05b0 8B54240C 		movl	12(%rsp), %edx
 1520 05b4 E8000000 		call	png_unpremultiply.part.0
 1520      00
 1521              	.LVL110:
2134:fltk-1.3.4-1/png/pngwrite.c ****          num_trans, NULL);
 1522              		.loc 1 2134 7 view .LVU442
 1523 05b9 E91CFEFF 		jmp	.L68
 1523      FF
 1524              	.LVL111:
 1525 05be 6690     		.p2align 4,,10
 1526              		.p2align 3
 1527              	.L59:
2134:fltk-1.3.4-1/png/pngwrite.c ****          num_trans, NULL);
 1528              		.loc 1 2134 7 view .LVU443
 1529              	.LBE144:
 1530              	.LBE160:
 1531              	.LBE167:
 1532              	.LBE178:
2130:fltk-1.3.4-1/png/pngwrite.c ****       entries);
 1533              		.loc 1 2130 4 is_stmt 1 view .LVU444
 1534 05c0 488B4424 		movq	56(%rsp), %rax
 1534      38
 1535 05c5 488B5424 		movq	64(%rsp), %rdx
 1535      40
 1536              	.LVL112:
2130:fltk-1.3.4-1/png/pngwrite.c ****       entries);
 1537              		.loc 1 2130 4 is_stmt 0 view .LVU445
 1538 05ca 31C9     		xorl	%ecx, %ecx
 1539 05cc 488B7008 		movq	8(%rax), %rsi
 1540              	.LVL113:
2130:fltk-1.3.4-1/png/pngwrite.c ****       entries);
 1541              		.loc 1 2130 4 view .LVU446
 1542 05d0 488B38   		movq	(%rax), %rdi
 1543 05d3 E8000000 		call	png_set_PLTE@PLT
 1543      00
 1544              	.LVL114:
2133:fltk-1.3.4-1/png/pngwrite.c ****       png_set_tRNS(image->opaque->png_ptr, image->opaque->info_ptr, tRNS,
 1545              		.loc 1 2133 4 is_stmt 1 view .LVU447
 1546 05d8 E94AFDFF 		jmp	.L77
 1546      FF
 1547              	.LVL115:
 1548              	.L112:
 1549              		.loc 1 2138 1 is_stmt 0 view .LVU448
 1550 05dd E8000000 		call	__stack_chk_fail@PLT
 1550      00
 1551              	.LVL116:
 1552              		.cfi_endproc
 1553              	.LFE87:
 1555              		.section	.rodata.png_write_info_before_PLTE.str1.8,"aMS",@progbits,1
 1556              		.align 8
 1557              	.LC2:
 1558 0000 4D4E4720 		.string	"MNG features are not allowed in a PNG datastream"
 1558      66656174 
 1558      75726573 
 1558      20617265 
 1558      206E6F74 
 1559 0031 00000000 		.align 8
 1559      000000
 1560              	.LC3:
 1561 0038 70726F66 		.string	"profile matches sRGB but writing iCCP instead"
 1561      696C6520 
 1561      6D617463 
 1561      68657320 
 1561      73524742 
 1562              		.section	.text.png_write_info_before_PLTE,"ax",@progbits
 1563              		.p2align 4
 1564              		.globl	png_write_info_before_PLTE
 1566              	png_write_info_before_PLTE:
 1567              	.LVL117:
 1568              	.LFB42:
  85:fltk-1.3.4-1/png/pngwrite.c ****    png_debug(1, "in png_write_info_before_PLTE");
 1569              		.loc 1 85 1 is_stmt 1 view -0
 1570              		.cfi_startproc
  85:fltk-1.3.4-1/png/pngwrite.c ****    png_debug(1, "in png_write_info_before_PLTE");
 1571              		.loc 1 85 1 is_stmt 0 view .LVU450
 1572 0000 F30F1EFA 		endbr64
  86:fltk-1.3.4-1/png/pngwrite.c **** 
 1573              		.loc 1 86 4 is_stmt 1 view .LVU451
  88:fltk-1.3.4-1/png/pngwrite.c ****       return;
 1574              		.loc 1 88 4 view .LVU452
  88:fltk-1.3.4-1/png/pngwrite.c ****       return;
 1575              		.loc 1 88 7 is_stmt 0 view .LVU453
 1576 0004 4885FF   		testq	%rdi, %rdi
 1577 0007 0F844301 		je	.L154
 1577      0000
  85:fltk-1.3.4-1/png/pngwrite.c ****    png_debug(1, "in png_write_info_before_PLTE");
 1578              		.loc 1 85 1 view .LVU454
 1579 000d 55       		pushq	%rbp
 1580              		.cfi_def_cfa_offset 16
 1581              		.cfi_offset 6, -16
 1582 000e 53       		pushq	%rbx
 1583              		.cfi_def_cfa_offset 24
 1584              		.cfi_offset 3, -24
 1585 000f 4889F3   		movq	%rsi, %rbx
 1586 0012 4883EC08 		subq	$8, %rsp
 1587              		.cfi_def_cfa_offset 32
  88:fltk-1.3.4-1/png/pngwrite.c ****       return;
 1588              		.loc 1 88 7 view .LVU455
 1589 0016 4885F6   		testq	%rsi, %rsi
 1590 0019 740C     		je	.L115
 1591 001b 4889FD   		movq	%rdi, %rbp
  91:fltk-1.3.4-1/png/pngwrite.c ****    {
 1592              		.loc 1 91 4 is_stmt 1 view .LVU456
  91:fltk-1.3.4-1/png/pngwrite.c ****    {
 1593              		.loc 1 91 7 is_stmt 0 view .LVU457
 1594 001e F6872D01 		testb	$4, 301(%rdi)
 1594      000004
 1595 0025 7409     		je	.L157
 1596              	.L115:
 188:fltk-1.3.4-1/png/pngwrite.c **** 
 1597              		.loc 1 188 1 view .LVU458
 1598 0027 4883C408 		addq	$8, %rsp
 1599              		.cfi_remember_state
 1600              		.cfi_def_cfa_offset 24
 1601 002b 5B       		popq	%rbx
 1602              		.cfi_def_cfa_offset 16
 1603 002c 5D       		popq	%rbp
 1604              		.cfi_def_cfa_offset 8
 1605 002d C3       		ret
 1606              	.LVL118:
 1607 002e 6690     		.p2align 4,,10
 1608              		.p2align 3
 1609              	.L157:
 1610              		.cfi_restore_state
 1611              	.LBB184:
 1612              	.LBI184:
  84:fltk-1.3.4-1/png/pngwrite.c **** {
 1613              		.loc 1 84 1 is_stmt 1 view .LVU459
 1614              	.LBB185:
  94:fltk-1.3.4-1/png/pngwrite.c **** 
 1615              		.loc 1 94 4 view .LVU460
 1616 0030 E8000000 		call	png_write_sig@PLT
 1616      00
 1617              	.LVL119:
  97:fltk-1.3.4-1/png/pngwrite.c ****        png_ptr->mng_features_permitted != 0)
 1618              		.loc 1 97 4 view .LVU461
  97:fltk-1.3.4-1/png/pngwrite.c ****        png_ptr->mng_features_permitted != 0)
 1619              		.loc 1 97 7 is_stmt 0 view .LVU462
 1620 0035 F6852D01 		testb	$16, 301(%rbp)
 1620      000010
 1621 003c 740E     		je	.L117
  97:fltk-1.3.4-1/png/pngwrite.c ****        png_ptr->mng_features_permitted != 0)
 1622              		.loc 1 97 54 view .LVU463
 1623 003e 8BB51804 		movl	1048(%rbp), %esi
 1623      0000
 1624 0044 85F6     		testl	%esi, %esi
 1625 0046 0F851C01 		jne	.L158
 1625      0000
 1626              	.L117:
 106:fltk-1.3.4-1/png/pngwrite.c ****        info_ptr->bit_depth, info_ptr->color_type, info_ptr->compression_type,
 1627              		.loc 1 106 4 is_stmt 1 view .LVU464
 1628 004c 0FB64328 		movzbl	40(%rbx), %eax
 1629 0050 0FB64B24 		movzbl	36(%rbx), %ecx
 1630 0054 4889EF   		movq	%rbp, %rdi
 1631 0057 8B5304   		movl	4(%rbx), %edx
 1632 005a 50       		pushq	%rax
 1633              		.cfi_def_cfa_offset 40
 1634 005b 0FB64327 		movzbl	39(%rbx), %eax
 1635 005f 50       		pushq	%rax
 1636              		.cfi_def_cfa_offset 48
 1637 0060 440FB64B 		movzbl	38(%rbx), %r9d
 1637      26
 1638 0065 440FB643 		movzbl	37(%rbx), %r8d
 1638      25
 1639 006a 8B33     		movl	(%rbx), %esi
 1640 006c E8000000 		call	png_write_IHDR@PLT
 1640      00
 1641              	.LVL120:
