   1              		.file	"pngwtran.c"
   2              		.text
   3              	.Ltext0:
   4              		.section	.text.png_do_write_transformations,"ax",@progbits
   5              		.p2align 4
   6              		.globl	png_do_write_transformations
   8              	png_do_write_transformations:
   9              	.LVL0:
  10              	.LFB45:
  11              		.file 1 "fltk-1.3.4-1/png/pngwtran.c"
   1:fltk-1.3.4-1/png/pngwtran.c **** 
   2:fltk-1.3.4-1/png/pngwtran.c **** /* pngwtran.c - transforms the data in a row for PNG writers
   3:fltk-1.3.4-1/png/pngwtran.c ****  *
   4:fltk-1.3.4-1/png/pngwtran.c ****  * Last changed in libpng 1.6.15 [November 20, 2014]
   5:fltk-1.3.4-1/png/pngwtran.c ****  * Copyright (c) 1998-2014 Glenn Randers-Pehrson
   6:fltk-1.3.4-1/png/pngwtran.c ****  * (Version 0.96 Copyright (c) 1996, 1997 Andreas Dilger)
   7:fltk-1.3.4-1/png/pngwtran.c ****  * (Version 0.88 Copyright (c) 1995, 1996 Guy Eric Schalnat, Group 42, Inc.)
   8:fltk-1.3.4-1/png/pngwtran.c ****  *
   9:fltk-1.3.4-1/png/pngwtran.c ****  * This code is released under the libpng license.
  10:fltk-1.3.4-1/png/pngwtran.c ****  * For conditions of distribution and use, see the disclaimer
  11:fltk-1.3.4-1/png/pngwtran.c ****  * and license in png.h
  12:fltk-1.3.4-1/png/pngwtran.c ****  */
  13:fltk-1.3.4-1/png/pngwtran.c **** 
  14:fltk-1.3.4-1/png/pngwtran.c **** #include "pngpriv.h"
  15:fltk-1.3.4-1/png/pngwtran.c **** 
  16:fltk-1.3.4-1/png/pngwtran.c **** #ifdef PNG_WRITE_SUPPORTED
  17:fltk-1.3.4-1/png/pngwtran.c **** #ifdef PNG_WRITE_TRANSFORMS_SUPPORTED
  18:fltk-1.3.4-1/png/pngwtran.c **** 
  19:fltk-1.3.4-1/png/pngwtran.c **** #ifdef PNG_WRITE_PACK_SUPPORTED
  20:fltk-1.3.4-1/png/pngwtran.c **** /* Pack pixels into bytes.  Pass the true bit depth in bit_depth.  The
  21:fltk-1.3.4-1/png/pngwtran.c ****  * row_info bit depth should be 8 (one pixel per byte).  The channels
  22:fltk-1.3.4-1/png/pngwtran.c ****  * should be 1 (this only happens on grayscale and paletted images).
  23:fltk-1.3.4-1/png/pngwtran.c ****  */
  24:fltk-1.3.4-1/png/pngwtran.c **** static void
  25:fltk-1.3.4-1/png/pngwtran.c **** png_do_pack(png_row_infop row_info, png_bytep row, png_uint_32 bit_depth)
  26:fltk-1.3.4-1/png/pngwtran.c **** {
  27:fltk-1.3.4-1/png/pngwtran.c ****    png_debug(1, "in png_do_pack");
  28:fltk-1.3.4-1/png/pngwtran.c **** 
  29:fltk-1.3.4-1/png/pngwtran.c ****    if (row_info->bit_depth == 8 &&
  30:fltk-1.3.4-1/png/pngwtran.c ****       row_info->channels == 1)
  31:fltk-1.3.4-1/png/pngwtran.c ****    {
  32:fltk-1.3.4-1/png/pngwtran.c ****       switch ((int)bit_depth)
  33:fltk-1.3.4-1/png/pngwtran.c ****       {
  34:fltk-1.3.4-1/png/pngwtran.c ****          case 1:
  35:fltk-1.3.4-1/png/pngwtran.c ****          {
  36:fltk-1.3.4-1/png/pngwtran.c ****             png_bytep sp, dp;
  37:fltk-1.3.4-1/png/pngwtran.c ****             int mask, v;
  38:fltk-1.3.4-1/png/pngwtran.c ****             png_uint_32 i;
  39:fltk-1.3.4-1/png/pngwtran.c ****             png_uint_32 row_width = row_info->width;
  40:fltk-1.3.4-1/png/pngwtran.c **** 
  41:fltk-1.3.4-1/png/pngwtran.c ****             sp = row;
  42:fltk-1.3.4-1/png/pngwtran.c ****             dp = row;
  43:fltk-1.3.4-1/png/pngwtran.c ****             mask = 0x80;
  44:fltk-1.3.4-1/png/pngwtran.c ****             v = 0;
  45:fltk-1.3.4-1/png/pngwtran.c **** 
  46:fltk-1.3.4-1/png/pngwtran.c ****             for (i = 0; i < row_width; i++)
  47:fltk-1.3.4-1/png/pngwtran.c ****             {
  48:fltk-1.3.4-1/png/pngwtran.c ****                if (*sp != 0)
  49:fltk-1.3.4-1/png/pngwtran.c ****                   v |= mask;
  50:fltk-1.3.4-1/png/pngwtran.c **** 
  51:fltk-1.3.4-1/png/pngwtran.c ****                sp++;
  52:fltk-1.3.4-1/png/pngwtran.c **** 
  53:fltk-1.3.4-1/png/pngwtran.c ****                if (mask > 1)
  54:fltk-1.3.4-1/png/pngwtran.c ****                   mask >>= 1;
  55:fltk-1.3.4-1/png/pngwtran.c **** 
  56:fltk-1.3.4-1/png/pngwtran.c ****                else
  57:fltk-1.3.4-1/png/pngwtran.c ****                {
  58:fltk-1.3.4-1/png/pngwtran.c ****                   mask = 0x80;
  59:fltk-1.3.4-1/png/pngwtran.c ****                   *dp = (png_byte)v;
  60:fltk-1.3.4-1/png/pngwtran.c ****                   dp++;
  61:fltk-1.3.4-1/png/pngwtran.c ****                   v = 0;
  62:fltk-1.3.4-1/png/pngwtran.c ****                }
  63:fltk-1.3.4-1/png/pngwtran.c ****             }
  64:fltk-1.3.4-1/png/pngwtran.c **** 
  65:fltk-1.3.4-1/png/pngwtran.c ****             if (mask != 0x80)
  66:fltk-1.3.4-1/png/pngwtran.c ****                *dp = (png_byte)v;
  67:fltk-1.3.4-1/png/pngwtran.c **** 
  68:fltk-1.3.4-1/png/pngwtran.c ****             break;
  69:fltk-1.3.4-1/png/pngwtran.c ****          }
  70:fltk-1.3.4-1/png/pngwtran.c **** 
  71:fltk-1.3.4-1/png/pngwtran.c ****          case 2:
  72:fltk-1.3.4-1/png/pngwtran.c ****          {
  73:fltk-1.3.4-1/png/pngwtran.c ****             png_bytep sp, dp;
  74:fltk-1.3.4-1/png/pngwtran.c ****             int shift, v;
  75:fltk-1.3.4-1/png/pngwtran.c ****             png_uint_32 i;
  76:fltk-1.3.4-1/png/pngwtran.c ****             png_uint_32 row_width = row_info->width;
  77:fltk-1.3.4-1/png/pngwtran.c **** 
  78:fltk-1.3.4-1/png/pngwtran.c ****             sp = row;
  79:fltk-1.3.4-1/png/pngwtran.c ****             dp = row;
  80:fltk-1.3.4-1/png/pngwtran.c ****             shift = 6;
  81:fltk-1.3.4-1/png/pngwtran.c ****             v = 0;
  82:fltk-1.3.4-1/png/pngwtran.c **** 
  83:fltk-1.3.4-1/png/pngwtran.c ****             for (i = 0; i < row_width; i++)
  84:fltk-1.3.4-1/png/pngwtran.c ****             {
  85:fltk-1.3.4-1/png/pngwtran.c ****                png_byte value;
  86:fltk-1.3.4-1/png/pngwtran.c **** 
  87:fltk-1.3.4-1/png/pngwtran.c ****                value = (png_byte)(*sp & 0x03);
  88:fltk-1.3.4-1/png/pngwtran.c ****                v |= (value << shift);
  89:fltk-1.3.4-1/png/pngwtran.c **** 
  90:fltk-1.3.4-1/png/pngwtran.c ****                if (shift == 0)
  91:fltk-1.3.4-1/png/pngwtran.c ****                {
  92:fltk-1.3.4-1/png/pngwtran.c ****                   shift = 6;
  93:fltk-1.3.4-1/png/pngwtran.c ****                   *dp = (png_byte)v;
  94:fltk-1.3.4-1/png/pngwtran.c ****                   dp++;
  95:fltk-1.3.4-1/png/pngwtran.c ****                   v = 0;
  96:fltk-1.3.4-1/png/pngwtran.c ****                }
  97:fltk-1.3.4-1/png/pngwtran.c **** 
  98:fltk-1.3.4-1/png/pngwtran.c ****                else
  99:fltk-1.3.4-1/png/pngwtran.c ****                   shift -= 2;
 100:fltk-1.3.4-1/png/pngwtran.c **** 
 101:fltk-1.3.4-1/png/pngwtran.c ****                sp++;
 102:fltk-1.3.4-1/png/pngwtran.c ****             }
 103:fltk-1.3.4-1/png/pngwtran.c **** 
 104:fltk-1.3.4-1/png/pngwtran.c ****             if (shift != 6)
 105:fltk-1.3.4-1/png/pngwtran.c ****                *dp = (png_byte)v;
 106:fltk-1.3.4-1/png/pngwtran.c **** 
 107:fltk-1.3.4-1/png/pngwtran.c ****             break;
 108:fltk-1.3.4-1/png/pngwtran.c ****          }
 109:fltk-1.3.4-1/png/pngwtran.c **** 
 110:fltk-1.3.4-1/png/pngwtran.c ****          case 4:
 111:fltk-1.3.4-1/png/pngwtran.c ****          {
 112:fltk-1.3.4-1/png/pngwtran.c ****             png_bytep sp, dp;
 113:fltk-1.3.4-1/png/pngwtran.c ****             int shift, v;
 114:fltk-1.3.4-1/png/pngwtran.c ****             png_uint_32 i;
 115:fltk-1.3.4-1/png/pngwtran.c ****             png_uint_32 row_width = row_info->width;
 116:fltk-1.3.4-1/png/pngwtran.c **** 
 117:fltk-1.3.4-1/png/pngwtran.c ****             sp = row;
 118:fltk-1.3.4-1/png/pngwtran.c ****             dp = row;
 119:fltk-1.3.4-1/png/pngwtran.c ****             shift = 4;
 120:fltk-1.3.4-1/png/pngwtran.c ****             v = 0;
 121:fltk-1.3.4-1/png/pngwtran.c **** 
 122:fltk-1.3.4-1/png/pngwtran.c ****             for (i = 0; i < row_width; i++)
 123:fltk-1.3.4-1/png/pngwtran.c ****             {
 124:fltk-1.3.4-1/png/pngwtran.c ****                png_byte value;
 125:fltk-1.3.4-1/png/pngwtran.c **** 
 126:fltk-1.3.4-1/png/pngwtran.c ****                value = (png_byte)(*sp & 0x0f);
 127:fltk-1.3.4-1/png/pngwtran.c ****                v |= (value << shift);
 128:fltk-1.3.4-1/png/pngwtran.c **** 
 129:fltk-1.3.4-1/png/pngwtran.c ****                if (shift == 0)
 130:fltk-1.3.4-1/png/pngwtran.c ****                {
 131:fltk-1.3.4-1/png/pngwtran.c ****                   shift = 4;
 132:fltk-1.3.4-1/png/pngwtran.c ****                   *dp = (png_byte)v;
 133:fltk-1.3.4-1/png/pngwtran.c ****                   dp++;
 134:fltk-1.3.4-1/png/pngwtran.c ****                   v = 0;
 135:fltk-1.3.4-1/png/pngwtran.c ****                }
 136:fltk-1.3.4-1/png/pngwtran.c **** 
 137:fltk-1.3.4-1/png/pngwtran.c ****                else
 138:fltk-1.3.4-1/png/pngwtran.c ****                   shift -= 4;
 139:fltk-1.3.4-1/png/pngwtran.c **** 
 140:fltk-1.3.4-1/png/pngwtran.c ****                sp++;
 141:fltk-1.3.4-1/png/pngwtran.c ****             }
 142:fltk-1.3.4-1/png/pngwtran.c **** 
 143:fltk-1.3.4-1/png/pngwtran.c ****             if (shift != 4)
 144:fltk-1.3.4-1/png/pngwtran.c ****                *dp = (png_byte)v;
 145:fltk-1.3.4-1/png/pngwtran.c **** 
 146:fltk-1.3.4-1/png/pngwtran.c ****             break;
 147:fltk-1.3.4-1/png/pngwtran.c ****          }
 148:fltk-1.3.4-1/png/pngwtran.c **** 
 149:fltk-1.3.4-1/png/pngwtran.c ****          default:
 150:fltk-1.3.4-1/png/pngwtran.c ****             break;
 151:fltk-1.3.4-1/png/pngwtran.c ****       }
 152:fltk-1.3.4-1/png/pngwtran.c **** 
 153:fltk-1.3.4-1/png/pngwtran.c ****       row_info->bit_depth = (png_byte)bit_depth;
 154:fltk-1.3.4-1/png/pngwtran.c ****       row_info->pixel_depth = (png_byte)(bit_depth * row_info->channels);
 155:fltk-1.3.4-1/png/pngwtran.c ****       row_info->rowbytes = PNG_ROWBYTES(row_info->pixel_depth,
 156:fltk-1.3.4-1/png/pngwtran.c ****           row_info->width);
 157:fltk-1.3.4-1/png/pngwtran.c ****    }
 158:fltk-1.3.4-1/png/pngwtran.c **** }
 159:fltk-1.3.4-1/png/pngwtran.c **** #endif
 160:fltk-1.3.4-1/png/pngwtran.c **** 
 161:fltk-1.3.4-1/png/pngwtran.c **** #ifdef PNG_WRITE_SHIFT_SUPPORTED
 162:fltk-1.3.4-1/png/pngwtran.c **** /* Shift pixel values to take advantage of whole range.  Pass the
 163:fltk-1.3.4-1/png/pngwtran.c ****  * true number of bits in bit_depth.  The row should be packed
 164:fltk-1.3.4-1/png/pngwtran.c ****  * according to row_info->bit_depth.  Thus, if you had a row of
 165:fltk-1.3.4-1/png/pngwtran.c ****  * bit depth 4, but the pixels only had values from 0 to 7, you
 166:fltk-1.3.4-1/png/pngwtran.c ****  * would pass 3 as bit_depth, and this routine would translate the
 167:fltk-1.3.4-1/png/pngwtran.c ****  * data to 0 to 15.
 168:fltk-1.3.4-1/png/pngwtran.c ****  */
 169:fltk-1.3.4-1/png/pngwtran.c **** static void
 170:fltk-1.3.4-1/png/pngwtran.c **** png_do_shift(png_row_infop row_info, png_bytep row,
 171:fltk-1.3.4-1/png/pngwtran.c ****     png_const_color_8p bit_depth)
 172:fltk-1.3.4-1/png/pngwtran.c **** {
 173:fltk-1.3.4-1/png/pngwtran.c ****    png_debug(1, "in png_do_shift");
 174:fltk-1.3.4-1/png/pngwtran.c **** 
 175:fltk-1.3.4-1/png/pngwtran.c ****    if (row_info->color_type != PNG_COLOR_TYPE_PALETTE)
 176:fltk-1.3.4-1/png/pngwtran.c ****    {
 177:fltk-1.3.4-1/png/pngwtran.c ****       int shift_start[4], shift_dec[4];
 178:fltk-1.3.4-1/png/pngwtran.c ****       int channels = 0;
 179:fltk-1.3.4-1/png/pngwtran.c **** 
 180:fltk-1.3.4-1/png/pngwtran.c ****       if ((row_info->color_type & PNG_COLOR_MASK_COLOR) != 0)
 181:fltk-1.3.4-1/png/pngwtran.c ****       {
 182:fltk-1.3.4-1/png/pngwtran.c ****          shift_start[channels] = row_info->bit_depth - bit_depth->red;
 183:fltk-1.3.4-1/png/pngwtran.c ****          shift_dec[channels] = bit_depth->red;
 184:fltk-1.3.4-1/png/pngwtran.c ****          channels++;
 185:fltk-1.3.4-1/png/pngwtran.c **** 
 186:fltk-1.3.4-1/png/pngwtran.c ****          shift_start[channels] = row_info->bit_depth - bit_depth->green;
 187:fltk-1.3.4-1/png/pngwtran.c ****          shift_dec[channels] = bit_depth->green;
 188:fltk-1.3.4-1/png/pngwtran.c ****          channels++;
 189:fltk-1.3.4-1/png/pngwtran.c **** 
 190:fltk-1.3.4-1/png/pngwtran.c ****          shift_start[channels] = row_info->bit_depth - bit_depth->blue;
 191:fltk-1.3.4-1/png/pngwtran.c ****          shift_dec[channels] = bit_depth->blue;
 192:fltk-1.3.4-1/png/pngwtran.c ****          channels++;
 193:fltk-1.3.4-1/png/pngwtran.c ****       }
 194:fltk-1.3.4-1/png/pngwtran.c **** 
 195:fltk-1.3.4-1/png/pngwtran.c ****       else
 196:fltk-1.3.4-1/png/pngwtran.c ****       {
 197:fltk-1.3.4-1/png/pngwtran.c ****          shift_start[channels] = row_info->bit_depth - bit_depth->gray;
 198:fltk-1.3.4-1/png/pngwtran.c ****          shift_dec[channels] = bit_depth->gray;
 199:fltk-1.3.4-1/png/pngwtran.c ****          channels++;
 200:fltk-1.3.4-1/png/pngwtran.c ****       }
 201:fltk-1.3.4-1/png/pngwtran.c **** 
 202:fltk-1.3.4-1/png/pngwtran.c ****       if ((row_info->color_type & PNG_COLOR_MASK_ALPHA) != 0)
 203:fltk-1.3.4-1/png/pngwtran.c ****       {
 204:fltk-1.3.4-1/png/pngwtran.c ****          shift_start[channels] = row_info->bit_depth - bit_depth->alpha;
 205:fltk-1.3.4-1/png/pngwtran.c ****          shift_dec[channels] = bit_depth->alpha;
 206:fltk-1.3.4-1/png/pngwtran.c ****          channels++;
 207:fltk-1.3.4-1/png/pngwtran.c ****       }
 208:fltk-1.3.4-1/png/pngwtran.c **** 
 209:fltk-1.3.4-1/png/pngwtran.c ****       /* With low row depths, could only be grayscale, so one channel */
 210:fltk-1.3.4-1/png/pngwtran.c ****       if (row_info->bit_depth < 8)
 211:fltk-1.3.4-1/png/pngwtran.c ****       {
 212:fltk-1.3.4-1/png/pngwtran.c ****          png_bytep bp = row;
 213:fltk-1.3.4-1/png/pngwtran.c ****          png_size_t i;
 214:fltk-1.3.4-1/png/pngwtran.c ****          unsigned int mask;
 215:fltk-1.3.4-1/png/pngwtran.c ****          png_size_t row_bytes = row_info->rowbytes;
 216:fltk-1.3.4-1/png/pngwtran.c **** 
 217:fltk-1.3.4-1/png/pngwtran.c ****          if (bit_depth->gray == 1 && row_info->bit_depth == 2)
 218:fltk-1.3.4-1/png/pngwtran.c ****             mask = 0x55;
 219:fltk-1.3.4-1/png/pngwtran.c **** 
 220:fltk-1.3.4-1/png/pngwtran.c ****          else if (row_info->bit_depth == 4 && bit_depth->gray == 3)
 221:fltk-1.3.4-1/png/pngwtran.c ****             mask = 0x11;
 222:fltk-1.3.4-1/png/pngwtran.c **** 
 223:fltk-1.3.4-1/png/pngwtran.c ****          else
 224:fltk-1.3.4-1/png/pngwtran.c ****             mask = 0xff;
 225:fltk-1.3.4-1/png/pngwtran.c **** 
 226:fltk-1.3.4-1/png/pngwtran.c ****          for (i = 0; i < row_bytes; i++, bp++)
 227:fltk-1.3.4-1/png/pngwtran.c ****          {
 228:fltk-1.3.4-1/png/pngwtran.c ****             int j;
 229:fltk-1.3.4-1/png/pngwtran.c ****             unsigned int v, out;
 230:fltk-1.3.4-1/png/pngwtran.c **** 
 231:fltk-1.3.4-1/png/pngwtran.c ****             v = *bp;
 232:fltk-1.3.4-1/png/pngwtran.c ****             out = 0;
 233:fltk-1.3.4-1/png/pngwtran.c **** 
 234:fltk-1.3.4-1/png/pngwtran.c ****             for (j = shift_start[0]; j > -shift_dec[0]; j -= shift_dec[0])
 235:fltk-1.3.4-1/png/pngwtran.c ****             {
 236:fltk-1.3.4-1/png/pngwtran.c ****                if (j > 0)
 237:fltk-1.3.4-1/png/pngwtran.c ****                   out |= v << j;
 238:fltk-1.3.4-1/png/pngwtran.c **** 
 239:fltk-1.3.4-1/png/pngwtran.c ****                else
 240:fltk-1.3.4-1/png/pngwtran.c ****                   out |= (v >> (-j)) & mask;
 241:fltk-1.3.4-1/png/pngwtran.c ****             }
 242:fltk-1.3.4-1/png/pngwtran.c **** 
 243:fltk-1.3.4-1/png/pngwtran.c ****             *bp = (png_byte)(out & 0xff);
 244:fltk-1.3.4-1/png/pngwtran.c ****          }
 245:fltk-1.3.4-1/png/pngwtran.c ****       }
 246:fltk-1.3.4-1/png/pngwtran.c **** 
 247:fltk-1.3.4-1/png/pngwtran.c ****       else if (row_info->bit_depth == 8)
 248:fltk-1.3.4-1/png/pngwtran.c ****       {
 249:fltk-1.3.4-1/png/pngwtran.c ****          png_bytep bp = row;
 250:fltk-1.3.4-1/png/pngwtran.c ****          png_uint_32 i;
 251:fltk-1.3.4-1/png/pngwtran.c ****          png_uint_32 istop = channels * row_info->width;
 252:fltk-1.3.4-1/png/pngwtran.c **** 
 253:fltk-1.3.4-1/png/pngwtran.c ****          for (i = 0; i < istop; i++, bp++)
 254:fltk-1.3.4-1/png/pngwtran.c ****          {
 255:fltk-1.3.4-1/png/pngwtran.c **** 
 256:fltk-1.3.4-1/png/pngwtran.c ****             const unsigned int c = i%channels;
 257:fltk-1.3.4-1/png/pngwtran.c ****             int j;
 258:fltk-1.3.4-1/png/pngwtran.c ****             unsigned int v, out;
 259:fltk-1.3.4-1/png/pngwtran.c **** 
 260:fltk-1.3.4-1/png/pngwtran.c ****             v = *bp;
 261:fltk-1.3.4-1/png/pngwtran.c ****             out = 0;
 262:fltk-1.3.4-1/png/pngwtran.c **** 
 263:fltk-1.3.4-1/png/pngwtran.c ****             for (j = shift_start[c]; j > -shift_dec[c]; j -= shift_dec[c])
 264:fltk-1.3.4-1/png/pngwtran.c ****             {
 265:fltk-1.3.4-1/png/pngwtran.c ****                if (j > 0)
 266:fltk-1.3.4-1/png/pngwtran.c ****                   out |= v << j;
 267:fltk-1.3.4-1/png/pngwtran.c **** 
 268:fltk-1.3.4-1/png/pngwtran.c ****                else
 269:fltk-1.3.4-1/png/pngwtran.c ****                   out |= v >> (-j);
 270:fltk-1.3.4-1/png/pngwtran.c ****             }
 271:fltk-1.3.4-1/png/pngwtran.c **** 
 272:fltk-1.3.4-1/png/pngwtran.c ****             *bp = (png_byte)(out & 0xff);
 273:fltk-1.3.4-1/png/pngwtran.c ****          }
 274:fltk-1.3.4-1/png/pngwtran.c ****       }
 275:fltk-1.3.4-1/png/pngwtran.c **** 
 276:fltk-1.3.4-1/png/pngwtran.c ****       else
 277:fltk-1.3.4-1/png/pngwtran.c ****       {
 278:fltk-1.3.4-1/png/pngwtran.c ****          png_bytep bp;
 279:fltk-1.3.4-1/png/pngwtran.c ****          png_uint_32 i;
 280:fltk-1.3.4-1/png/pngwtran.c ****          png_uint_32 istop = channels * row_info->width;
 281:fltk-1.3.4-1/png/pngwtran.c **** 
 282:fltk-1.3.4-1/png/pngwtran.c ****          for (bp = row, i = 0; i < istop; i++)
 283:fltk-1.3.4-1/png/pngwtran.c ****          {
 284:fltk-1.3.4-1/png/pngwtran.c ****             const unsigned int c = i%channels;
 285:fltk-1.3.4-1/png/pngwtran.c ****             int j;
 286:fltk-1.3.4-1/png/pngwtran.c ****             unsigned int value, v;
 287:fltk-1.3.4-1/png/pngwtran.c **** 
 288:fltk-1.3.4-1/png/pngwtran.c ****             v = png_get_uint_16(bp);
 289:fltk-1.3.4-1/png/pngwtran.c ****             value = 0;
 290:fltk-1.3.4-1/png/pngwtran.c **** 
 291:fltk-1.3.4-1/png/pngwtran.c ****             for (j = shift_start[c]; j > -shift_dec[c]; j -= shift_dec[c])
 292:fltk-1.3.4-1/png/pngwtran.c ****             {
 293:fltk-1.3.4-1/png/pngwtran.c ****                if (j > 0)
 294:fltk-1.3.4-1/png/pngwtran.c ****                   value |= v << j;
 295:fltk-1.3.4-1/png/pngwtran.c **** 
 296:fltk-1.3.4-1/png/pngwtran.c ****                else
 297:fltk-1.3.4-1/png/pngwtran.c ****                   value |= v >> (-j);
 298:fltk-1.3.4-1/png/pngwtran.c ****             }
 299:fltk-1.3.4-1/png/pngwtran.c ****             *bp++ = (png_byte)((value >> 8) & 0xff);
 300:fltk-1.3.4-1/png/pngwtran.c ****             *bp++ = (png_byte)(value & 0xff);
 301:fltk-1.3.4-1/png/pngwtran.c ****          }
 302:fltk-1.3.4-1/png/pngwtran.c ****       }
 303:fltk-1.3.4-1/png/pngwtran.c ****    }
 304:fltk-1.3.4-1/png/pngwtran.c **** }
 305:fltk-1.3.4-1/png/pngwtran.c **** #endif
 306:fltk-1.3.4-1/png/pngwtran.c **** 
 307:fltk-1.3.4-1/png/pngwtran.c **** #ifdef PNG_WRITE_SWAP_ALPHA_SUPPORTED
 308:fltk-1.3.4-1/png/pngwtran.c **** static void
 309:fltk-1.3.4-1/png/pngwtran.c **** png_do_write_swap_alpha(png_row_infop row_info, png_bytep row)
 310:fltk-1.3.4-1/png/pngwtran.c **** {
 311:fltk-1.3.4-1/png/pngwtran.c ****    png_debug(1, "in png_do_write_swap_alpha");
 312:fltk-1.3.4-1/png/pngwtran.c **** 
 313:fltk-1.3.4-1/png/pngwtran.c ****    {
 314:fltk-1.3.4-1/png/pngwtran.c ****       if (row_info->color_type == PNG_COLOR_TYPE_RGB_ALPHA)
 315:fltk-1.3.4-1/png/pngwtran.c ****       {
 316:fltk-1.3.4-1/png/pngwtran.c ****          if (row_info->bit_depth == 8)
 317:fltk-1.3.4-1/png/pngwtran.c ****          {
 318:fltk-1.3.4-1/png/pngwtran.c ****             /* This converts from ARGB to RGBA */
 319:fltk-1.3.4-1/png/pngwtran.c ****             png_bytep sp, dp;
 320:fltk-1.3.4-1/png/pngwtran.c ****             png_uint_32 i;
 321:fltk-1.3.4-1/png/pngwtran.c ****             png_uint_32 row_width = row_info->width;
 322:fltk-1.3.4-1/png/pngwtran.c **** 
 323:fltk-1.3.4-1/png/pngwtran.c ****             for (i = 0, sp = dp = row; i < row_width; i++)
 324:fltk-1.3.4-1/png/pngwtran.c ****             {
 325:fltk-1.3.4-1/png/pngwtran.c ****                png_byte save = *(sp++);
 326:fltk-1.3.4-1/png/pngwtran.c ****                *(dp++) = *(sp++);
 327:fltk-1.3.4-1/png/pngwtran.c ****                *(dp++) = *(sp++);
 328:fltk-1.3.4-1/png/pngwtran.c ****                *(dp++) = *(sp++);
 329:fltk-1.3.4-1/png/pngwtran.c ****                *(dp++) = save;
 330:fltk-1.3.4-1/png/pngwtran.c ****             }
 331:fltk-1.3.4-1/png/pngwtran.c ****          }
 332:fltk-1.3.4-1/png/pngwtran.c **** 
 333:fltk-1.3.4-1/png/pngwtran.c **** #ifdef PNG_WRITE_16BIT_SUPPORTED
 334:fltk-1.3.4-1/png/pngwtran.c ****          else
 335:fltk-1.3.4-1/png/pngwtran.c ****          {
 336:fltk-1.3.4-1/png/pngwtran.c ****             /* This converts from AARRGGBB to RRGGBBAA */
 337:fltk-1.3.4-1/png/pngwtran.c ****             png_bytep sp, dp;
 338:fltk-1.3.4-1/png/pngwtran.c ****             png_uint_32 i;
 339:fltk-1.3.4-1/png/pngwtran.c ****             png_uint_32 row_width = row_info->width;
 340:fltk-1.3.4-1/png/pngwtran.c **** 
 341:fltk-1.3.4-1/png/pngwtran.c ****             for (i = 0, sp = dp = row; i < row_width; i++)
 342:fltk-1.3.4-1/png/pngwtran.c ****             {
 343:fltk-1.3.4-1/png/pngwtran.c ****                png_byte save[2];
 344:fltk-1.3.4-1/png/pngwtran.c ****                save[0] = *(sp++);
 345:fltk-1.3.4-1/png/pngwtran.c ****                save[1] = *(sp++);
 346:fltk-1.3.4-1/png/pngwtran.c ****                *(dp++) = *(sp++);
 347:fltk-1.3.4-1/png/pngwtran.c ****                *(dp++) = *(sp++);
 348:fltk-1.3.4-1/png/pngwtran.c ****                *(dp++) = *(sp++);
 349:fltk-1.3.4-1/png/pngwtran.c ****                *(dp++) = *(sp++);
 350:fltk-1.3.4-1/png/pngwtran.c ****                *(dp++) = *(sp++);
 351:fltk-1.3.4-1/png/pngwtran.c ****                *(dp++) = *(sp++);
 352:fltk-1.3.4-1/png/pngwtran.c ****                *(dp++) = save[0];
 353:fltk-1.3.4-1/png/pngwtran.c ****                *(dp++) = save[1];
 354:fltk-1.3.4-1/png/pngwtran.c ****             }
 355:fltk-1.3.4-1/png/pngwtran.c ****          }
 356:fltk-1.3.4-1/png/pngwtran.c **** #endif /* WRITE_16BIT */
 357:fltk-1.3.4-1/png/pngwtran.c ****       }
 358:fltk-1.3.4-1/png/pngwtran.c **** 
 359:fltk-1.3.4-1/png/pngwtran.c ****       else if (row_info->color_type == PNG_COLOR_TYPE_GRAY_ALPHA)
 360:fltk-1.3.4-1/png/pngwtran.c ****       {
 361:fltk-1.3.4-1/png/pngwtran.c ****          if (row_info->bit_depth == 8)
 362:fltk-1.3.4-1/png/pngwtran.c ****          {
 363:fltk-1.3.4-1/png/pngwtran.c ****             /* This converts from AG to GA */
 364:fltk-1.3.4-1/png/pngwtran.c ****             png_bytep sp, dp;
 365:fltk-1.3.4-1/png/pngwtran.c ****             png_uint_32 i;
 366:fltk-1.3.4-1/png/pngwtran.c ****             png_uint_32 row_width = row_info->width;
 367:fltk-1.3.4-1/png/pngwtran.c **** 
 368:fltk-1.3.4-1/png/pngwtran.c ****             for (i = 0, sp = dp = row; i < row_width; i++)
 369:fltk-1.3.4-1/png/pngwtran.c ****             {
 370:fltk-1.3.4-1/png/pngwtran.c ****                png_byte save = *(sp++);
 371:fltk-1.3.4-1/png/pngwtran.c ****                *(dp++) = *(sp++);
 372:fltk-1.3.4-1/png/pngwtran.c ****                *(dp++) = save;
 373:fltk-1.3.4-1/png/pngwtran.c ****             }
 374:fltk-1.3.4-1/png/pngwtran.c ****          }
 375:fltk-1.3.4-1/png/pngwtran.c **** 
 376:fltk-1.3.4-1/png/pngwtran.c **** #ifdef PNG_WRITE_16BIT_SUPPORTED
 377:fltk-1.3.4-1/png/pngwtran.c ****          else
 378:fltk-1.3.4-1/png/pngwtran.c ****          {
 379:fltk-1.3.4-1/png/pngwtran.c ****             /* This converts from AAGG to GGAA */
 380:fltk-1.3.4-1/png/pngwtran.c ****             png_bytep sp, dp;
 381:fltk-1.3.4-1/png/pngwtran.c ****             png_uint_32 i;
 382:fltk-1.3.4-1/png/pngwtran.c ****             png_uint_32 row_width = row_info->width;
 383:fltk-1.3.4-1/png/pngwtran.c **** 
 384:fltk-1.3.4-1/png/pngwtran.c ****             for (i = 0, sp = dp = row; i < row_width; i++)
 385:fltk-1.3.4-1/png/pngwtran.c ****             {
 386:fltk-1.3.4-1/png/pngwtran.c ****                png_byte save[2];
 387:fltk-1.3.4-1/png/pngwtran.c ****                save[0] = *(sp++);
 388:fltk-1.3.4-1/png/pngwtran.c ****                save[1] = *(sp++);
 389:fltk-1.3.4-1/png/pngwtran.c ****                *(dp++) = *(sp++);
 390:fltk-1.3.4-1/png/pngwtran.c ****                *(dp++) = *(sp++);
 391:fltk-1.3.4-1/png/pngwtran.c ****                *(dp++) = save[0];
 392:fltk-1.3.4-1/png/pngwtran.c ****                *(dp++) = save[1];
 393:fltk-1.3.4-1/png/pngwtran.c ****             }
 394:fltk-1.3.4-1/png/pngwtran.c ****          }
 395:fltk-1.3.4-1/png/pngwtran.c **** #endif /* WRITE_16BIT */
 396:fltk-1.3.4-1/png/pngwtran.c ****       }
 397:fltk-1.3.4-1/png/pngwtran.c ****    }
 398:fltk-1.3.4-1/png/pngwtran.c **** }
 399:fltk-1.3.4-1/png/pngwtran.c **** #endif
 400:fltk-1.3.4-1/png/pngwtran.c **** 
 401:fltk-1.3.4-1/png/pngwtran.c **** #ifdef PNG_WRITE_INVERT_ALPHA_SUPPORTED
 402:fltk-1.3.4-1/png/pngwtran.c **** static void
 403:fltk-1.3.4-1/png/pngwtran.c **** png_do_write_invert_alpha(png_row_infop row_info, png_bytep row)
 404:fltk-1.3.4-1/png/pngwtran.c **** {
 405:fltk-1.3.4-1/png/pngwtran.c ****    png_debug(1, "in png_do_write_invert_alpha");
 406:fltk-1.3.4-1/png/pngwtran.c **** 
 407:fltk-1.3.4-1/png/pngwtran.c ****    {
 408:fltk-1.3.4-1/png/pngwtran.c ****       if (row_info->color_type == PNG_COLOR_TYPE_RGB_ALPHA)
 409:fltk-1.3.4-1/png/pngwtran.c ****       {
 410:fltk-1.3.4-1/png/pngwtran.c ****          if (row_info->bit_depth == 8)
 411:fltk-1.3.4-1/png/pngwtran.c ****          {
 412:fltk-1.3.4-1/png/pngwtran.c ****             /* This inverts the alpha channel in RGBA */
 413:fltk-1.3.4-1/png/pngwtran.c ****             png_bytep sp, dp;
 414:fltk-1.3.4-1/png/pngwtran.c ****             png_uint_32 i;
 415:fltk-1.3.4-1/png/pngwtran.c ****             png_uint_32 row_width = row_info->width;
 416:fltk-1.3.4-1/png/pngwtran.c **** 
 417:fltk-1.3.4-1/png/pngwtran.c ****             for (i = 0, sp = dp = row; i < row_width; i++)
 418:fltk-1.3.4-1/png/pngwtran.c ****             {
 419:fltk-1.3.4-1/png/pngwtran.c ****                /* Does nothing
 420:fltk-1.3.4-1/png/pngwtran.c ****                *(dp++) = *(sp++);
 421:fltk-1.3.4-1/png/pngwtran.c ****                *(dp++) = *(sp++);
 422:fltk-1.3.4-1/png/pngwtran.c ****                *(dp++) = *(sp++);
 423:fltk-1.3.4-1/png/pngwtran.c ****                */
 424:fltk-1.3.4-1/png/pngwtran.c ****                sp+=3; dp = sp;
 425:fltk-1.3.4-1/png/pngwtran.c ****                *(dp++) = (png_byte)(255 - *(sp++));
 426:fltk-1.3.4-1/png/pngwtran.c ****             }
 427:fltk-1.3.4-1/png/pngwtran.c ****          }
 428:fltk-1.3.4-1/png/pngwtran.c **** 
 429:fltk-1.3.4-1/png/pngwtran.c **** #ifdef PNG_WRITE_16BIT_SUPPORTED
 430:fltk-1.3.4-1/png/pngwtran.c ****          else
 431:fltk-1.3.4-1/png/pngwtran.c ****          {
 432:fltk-1.3.4-1/png/pngwtran.c ****             /* This inverts the alpha channel in RRGGBBAA */
 433:fltk-1.3.4-1/png/pngwtran.c ****             png_bytep sp, dp;
 434:fltk-1.3.4-1/png/pngwtran.c ****             png_uint_32 i;
 435:fltk-1.3.4-1/png/pngwtran.c ****             png_uint_32 row_width = row_info->width;
 436:fltk-1.3.4-1/png/pngwtran.c **** 
 437:fltk-1.3.4-1/png/pngwtran.c ****             for (i = 0, sp = dp = row; i < row_width; i++)
 438:fltk-1.3.4-1/png/pngwtran.c ****             {
 439:fltk-1.3.4-1/png/pngwtran.c ****                /* Does nothing
 440:fltk-1.3.4-1/png/pngwtran.c ****                *(dp++) = *(sp++);
 441:fltk-1.3.4-1/png/pngwtran.c ****                *(dp++) = *(sp++);
 442:fltk-1.3.4-1/png/pngwtran.c ****                *(dp++) = *(sp++);
 443:fltk-1.3.4-1/png/pngwtran.c ****                *(dp++) = *(sp++);
 444:fltk-1.3.4-1/png/pngwtran.c ****                *(dp++) = *(sp++);
 445:fltk-1.3.4-1/png/pngwtran.c ****                *(dp++) = *(sp++);
 446:fltk-1.3.4-1/png/pngwtran.c ****                */
 447:fltk-1.3.4-1/png/pngwtran.c ****                sp+=6; dp = sp;
 448:fltk-1.3.4-1/png/pngwtran.c ****                *(dp++) = (png_byte)(255 - *(sp++));
 449:fltk-1.3.4-1/png/pngwtran.c ****                *(dp++) = (png_byte)(255 - *(sp++));
 450:fltk-1.3.4-1/png/pngwtran.c ****             }
 451:fltk-1.3.4-1/png/pngwtran.c ****          }
 452:fltk-1.3.4-1/png/pngwtran.c **** #endif /* WRITE_16BIT */
 453:fltk-1.3.4-1/png/pngwtran.c ****       }
 454:fltk-1.3.4-1/png/pngwtran.c **** 
 455:fltk-1.3.4-1/png/pngwtran.c ****       else if (row_info->color_type == PNG_COLOR_TYPE_GRAY_ALPHA)
 456:fltk-1.3.4-1/png/pngwtran.c ****       {
 457:fltk-1.3.4-1/png/pngwtran.c ****          if (row_info->bit_depth == 8)
 458:fltk-1.3.4-1/png/pngwtran.c ****          {
 459:fltk-1.3.4-1/png/pngwtran.c ****             /* This inverts the alpha channel in GA */
 460:fltk-1.3.4-1/png/pngwtran.c ****             png_bytep sp, dp;
 461:fltk-1.3.4-1/png/pngwtran.c ****             png_uint_32 i;
 462:fltk-1.3.4-1/png/pngwtran.c ****             png_uint_32 row_width = row_info->width;
 463:fltk-1.3.4-1/png/pngwtran.c **** 
 464:fltk-1.3.4-1/png/pngwtran.c ****             for (i = 0, sp = dp = row; i < row_width; i++)
 465:fltk-1.3.4-1/png/pngwtran.c ****             {
 466:fltk-1.3.4-1/png/pngwtran.c ****                *(dp++) = *(sp++);
 467:fltk-1.3.4-1/png/pngwtran.c ****                *(dp++) = (png_byte)(255 - *(sp++));
 468:fltk-1.3.4-1/png/pngwtran.c ****             }
 469:fltk-1.3.4-1/png/pngwtran.c ****          }
 470:fltk-1.3.4-1/png/pngwtran.c **** 
 471:fltk-1.3.4-1/png/pngwtran.c **** #ifdef PNG_WRITE_16BIT_SUPPORTED
 472:fltk-1.3.4-1/png/pngwtran.c ****          else
 473:fltk-1.3.4-1/png/pngwtran.c ****          {
 474:fltk-1.3.4-1/png/pngwtran.c ****             /* This inverts the alpha channel in GGAA */
 475:fltk-1.3.4-1/png/pngwtran.c ****             png_bytep sp, dp;
 476:fltk-1.3.4-1/png/pngwtran.c ****             png_uint_32 i;
 477:fltk-1.3.4-1/png/pngwtran.c ****             png_uint_32 row_width = row_info->width;
 478:fltk-1.3.4-1/png/pngwtran.c **** 
 479:fltk-1.3.4-1/png/pngwtran.c ****             for (i = 0, sp = dp = row; i < row_width; i++)
 480:fltk-1.3.4-1/png/pngwtran.c ****             {
 481:fltk-1.3.4-1/png/pngwtran.c ****                /* Does nothing
 482:fltk-1.3.4-1/png/pngwtran.c ****                *(dp++) = *(sp++);
 483:fltk-1.3.4-1/png/pngwtran.c ****                *(dp++) = *(sp++);
 484:fltk-1.3.4-1/png/pngwtran.c ****                */
 485:fltk-1.3.4-1/png/pngwtran.c ****                sp+=2; dp = sp;
 486:fltk-1.3.4-1/png/pngwtran.c ****                *(dp++) = (png_byte)(255 - *(sp++));
 487:fltk-1.3.4-1/png/pngwtran.c ****                *(dp++) = (png_byte)(255 - *(sp++));
 488:fltk-1.3.4-1/png/pngwtran.c ****             }
 489:fltk-1.3.4-1/png/pngwtran.c ****          }
 490:fltk-1.3.4-1/png/pngwtran.c **** #endif /* WRITE_16BIT */
 491:fltk-1.3.4-1/png/pngwtran.c ****       }
 492:fltk-1.3.4-1/png/pngwtran.c ****    }
 493:fltk-1.3.4-1/png/pngwtran.c **** }
 494:fltk-1.3.4-1/png/pngwtran.c **** #endif
 495:fltk-1.3.4-1/png/pngwtran.c **** 
 496:fltk-1.3.4-1/png/pngwtran.c **** /* Transform the data according to the user's wishes.  The order of
 497:fltk-1.3.4-1/png/pngwtran.c ****  * transformations is significant.
 498:fltk-1.3.4-1/png/pngwtran.c ****  */
 499:fltk-1.3.4-1/png/pngwtran.c **** void /* PRIVATE */
 500:fltk-1.3.4-1/png/pngwtran.c **** png_do_write_transformations(png_structrp png_ptr, png_row_infop row_info)
 501:fltk-1.3.4-1/png/pngwtran.c **** {
  12              		.loc 1 501 1 view -0
  13              		.cfi_startproc
  14              		.loc 1 501 1 is_stmt 0 view .LVU1
  15 0000 F30F1EFA 		endbr64
  16 0004 4156     		pushq	%r14
  17              		.cfi_def_cfa_offset 16
  18              		.cfi_offset 14, -16
  19 0006 4155     		pushq	%r13
  20              		.cfi_def_cfa_offset 24
  21              		.cfi_offset 13, -24
  22 0008 4154     		pushq	%r12
  23              		.cfi_def_cfa_offset 32
  24              		.cfi_offset 12, -32
  25 000a 55       		pushq	%rbp
  26              		.cfi_def_cfa_offset 40
  27              		.cfi_offset 6, -40
  28 000b 53       		pushq	%rbx
  29              		.cfi_def_cfa_offset 48
  30              		.cfi_offset 3, -48
  31 000c 4883EC30 		subq	$48, %rsp
  32              		.cfi_def_cfa_offset 96
  33              		.loc 1 501 1 view .LVU2
  34 0010 64488B04 		movq	%fs:40, %rax
  34      25280000 
  34      00
  35 0019 48894424 		movq	%rax, 40(%rsp)
  35      28
  36 001e 31C0     		xorl	%eax, %eax
 502:fltk-1.3.4-1/png/pngwtran.c ****    png_debug(1, "in png_do_write_transformations");
  37              		.loc 1 502 4 is_stmt 1 view .LVU3
 503:fltk-1.3.4-1/png/pngwtran.c **** 
 504:fltk-1.3.4-1/png/pngwtran.c ****    if (png_ptr == NULL)
  38              		.loc 1 504 4 view .LVU4
  39              		.loc 1 504 7 is_stmt 0 view .LVU5
  40 0020 4885FF   		testq	%rdi, %rdi
  41 0023 7474     		je	.L1
 505:fltk-1.3.4-1/png/pngwtran.c ****       return;
 506:fltk-1.3.4-1/png/pngwtran.c **** 
 507:fltk-1.3.4-1/png/pngwtran.c **** #ifdef PNG_WRITE_USER_TRANSFORM_SUPPORTED
 508:fltk-1.3.4-1/png/pngwtran.c ****    if ((png_ptr->transformations & PNG_USER_TRANSFORM) != 0)
  42              		.loc 1 508 16 view .LVU6
  43 0025 8B973401 		movl	308(%rdi), %edx
  43      0000
  44 002b 4889FB   		movq	%rdi, %rbx
  45 002e 4889F5   		movq	%rsi, %rbp
  46              		.loc 1 508 4 is_stmt 1 view .LVU7
  47              		.loc 1 508 16 is_stmt 0 view .LVU8
  48 0031 89D1     		movl	%edx, %ecx
  49              		.loc 1 508 7 view .LVU9
  50 0033 F7C20000 		testl	$1048576, %edx
  50      1000
  51 0039 0F858100 		jne	.L181
  51      0000
  52              	.L4:
 509:fltk-1.3.4-1/png/pngwtran.c ****       if (png_ptr->write_user_transform_fn != NULL)
 510:fltk-1.3.4-1/png/pngwtran.c ****          (*(png_ptr->write_user_transform_fn)) /* User write transform
 511:fltk-1.3.4-1/png/pngwtran.c ****                                                  function */
 512:fltk-1.3.4-1/png/pngwtran.c ****              (png_ptr,  /* png_ptr */
 513:fltk-1.3.4-1/png/pngwtran.c ****              row_info,  /* row_info: */
 514:fltk-1.3.4-1/png/pngwtran.c ****                 /*  png_uint_32 width;       width of row */
 515:fltk-1.3.4-1/png/pngwtran.c ****                 /*  png_size_t rowbytes;     number of bytes in row */
 516:fltk-1.3.4-1/png/pngwtran.c ****                 /*  png_byte color_type;     color type of pixels */
 517:fltk-1.3.4-1/png/pngwtran.c ****                 /*  png_byte bit_depth;      bit depth of samples */
 518:fltk-1.3.4-1/png/pngwtran.c ****                 /*  png_byte channels;       number of channels (1-4) */
 519:fltk-1.3.4-1/png/pngwtran.c ****                 /*  png_byte pixel_depth;    bits per pixel (depth*channels) */
 520:fltk-1.3.4-1/png/pngwtran.c ****              png_ptr->row_buf + 1);      /* start of pixel data for row */
 521:fltk-1.3.4-1/png/pngwtran.c **** #endif
 522:fltk-1.3.4-1/png/pngwtran.c **** 
 523:fltk-1.3.4-1/png/pngwtran.c **** #ifdef PNG_WRITE_FILLER_SUPPORTED
 524:fltk-1.3.4-1/png/pngwtran.c ****    if ((png_ptr->transformations & PNG_FILLER) != 0)
  53              		.loc 1 524 4 is_stmt 1 view .LVU10
  54              		.loc 1 524 7 is_stmt 0 view .LVU11
  55 003f F6C680   		testb	$-128, %dh
  56 0042 0F85A900 		jne	.L182
  56      0000
  57              	.LVL1:
  58              	.L5:
 525:fltk-1.3.4-1/png/pngwtran.c ****       png_do_strip_channel(row_info, png_ptr->row_buf + 1,
 526:fltk-1.3.4-1/png/pngwtran.c ****          !(png_ptr->flags & PNG_FLAG_FILLER_AFTER));
 527:fltk-1.3.4-1/png/pngwtran.c **** #endif
 528:fltk-1.3.4-1/png/pngwtran.c **** 
 529:fltk-1.3.4-1/png/pngwtran.c **** #ifdef PNG_WRITE_PACKSWAP_SUPPORTED
 530:fltk-1.3.4-1/png/pngwtran.c ****    if ((png_ptr->transformations & PNG_PACKSWAP) != 0)
  59              		.loc 1 530 4 is_stmt 1 view .LVU12
  60              		.loc 1 530 7 is_stmt 0 view .LVU13
  61 0048 F7C20000 		testl	$65536, %edx
  61      0100
  62 004e 0F85D300 		jne	.L183
  62      0000
  63              	.L6:
 531:fltk-1.3.4-1/png/pngwtran.c ****       png_do_packswap(row_info, png_ptr->row_buf + 1);
 532:fltk-1.3.4-1/png/pngwtran.c **** #endif
 533:fltk-1.3.4-1/png/pngwtran.c **** 
 534:fltk-1.3.4-1/png/pngwtran.c **** #ifdef PNG_WRITE_PACK_SUPPORTED
 535:fltk-1.3.4-1/png/pngwtran.c ****    if ((png_ptr->transformations & PNG_PACK) != 0)
  64              		.loc 1 535 4 is_stmt 1 view .LVU14
  65              		.loc 1 535 7 is_stmt 0 view .LVU15
  66 0054 F6C204   		testb	$4, %dl
  67 0057 0F85EE00 		jne	.L184
  67      0000
  68              	.L7:
 536:fltk-1.3.4-1/png/pngwtran.c ****       png_do_pack(row_info, png_ptr->row_buf + 1,
 537:fltk-1.3.4-1/png/pngwtran.c ****           (png_uint_32)png_ptr->bit_depth);
 538:fltk-1.3.4-1/png/pngwtran.c **** #endif
 539:fltk-1.3.4-1/png/pngwtran.c **** 
 540:fltk-1.3.4-1/png/pngwtran.c **** #ifdef PNG_WRITE_SWAP_SUPPORTED
 541:fltk-1.3.4-1/png/pngwtran.c **** #  ifdef PNG_16BIT_SUPPORTED
 542:fltk-1.3.4-1/png/pngwtran.c ****    if ((png_ptr->transformations & PNG_SWAP_BYTES) != 0)
  69              		.loc 1 542 4 is_stmt 1 view .LVU16
  70              		.loc 1 542 7 is_stmt 0 view .LVU17
  71 005d F6C210   		testb	$16, %dl
  72 0060 0F855A03 		jne	.L185
  72      0000
  73              	.L26:
 543:fltk-1.3.4-1/png/pngwtran.c ****       png_do_swap(row_info, png_ptr->row_buf + 1);
 544:fltk-1.3.4-1/png/pngwtran.c **** #  endif
 545:fltk-1.3.4-1/png/pngwtran.c **** #endif
 546:fltk-1.3.4-1/png/pngwtran.c **** 
 547:fltk-1.3.4-1/png/pngwtran.c **** #ifdef PNG_WRITE_SHIFT_SUPPORTED
 548:fltk-1.3.4-1/png/pngwtran.c ****    if ((png_ptr->transformations & PNG_SHIFT) != 0)
  74              		.loc 1 548 4 is_stmt 1 view .LVU18
  75              		.loc 1 548 7 is_stmt 0 view .LVU19
  76 0066 F6C208   		testb	$8, %dl
  77 0069 0F858902 		jne	.L186
  77      0000
  78              	.L27:
 549:fltk-1.3.4-1/png/pngwtran.c ****       png_do_shift(row_info, png_ptr->row_buf + 1,
 550:fltk-1.3.4-1/png/pngwtran.c ****           &(png_ptr->shift));
 551:fltk-1.3.4-1/png/pngwtran.c **** #endif
 552:fltk-1.3.4-1/png/pngwtran.c **** 
 553:fltk-1.3.4-1/png/pngwtran.c **** #ifdef PNG_WRITE_SWAP_ALPHA_SUPPORTED
 554:fltk-1.3.4-1/png/pngwtran.c ****    if ((png_ptr->transformations & PNG_SWAP_ALPHA) != 0)
  79              		.loc 1 554 4 is_stmt 1 view .LVU20
  80              		.loc 1 554 7 is_stmt 0 view .LVU21
  81 006f F7C20000 		testl	$131072, %edx
  81      0200
  82 0075 0F853D01 		jne	.L187
  82      0000
  83              	.L53:
 555:fltk-1.3.4-1/png/pngwtran.c ****       png_do_write_swap_alpha(row_info, png_ptr->row_buf + 1);
 556:fltk-1.3.4-1/png/pngwtran.c **** #endif
 557:fltk-1.3.4-1/png/pngwtran.c **** 
 558:fltk-1.3.4-1/png/pngwtran.c **** #ifdef PNG_WRITE_INVERT_ALPHA_SUPPORTED
 559:fltk-1.3.4-1/png/pngwtran.c ****    if ((png_ptr->transformations & PNG_INVERT_ALPHA) != 0)
  84              		.loc 1 559 4 is_stmt 1 view .LVU22
  85              		.loc 1 559 7 is_stmt 0 view .LVU23
  86 007b F7C20000 		testl	$524288, %edx
  86      0800
  87 0081 0F85B901 		jne	.L188
  87      0000
  88              	.L60:
 560:fltk-1.3.4-1/png/pngwtran.c ****       png_do_write_invert_alpha(row_info, png_ptr->row_buf + 1);
 561:fltk-1.3.4-1/png/pngwtran.c **** #endif
 562:fltk-1.3.4-1/png/pngwtran.c **** 
 563:fltk-1.3.4-1/png/pngwtran.c **** #ifdef PNG_WRITE_BGR_SUPPORTED
 564:fltk-1.3.4-1/png/pngwtran.c ****    if ((png_ptr->transformations & PNG_BGR) != 0)
  89              		.loc 1 564 4 is_stmt 1 view .LVU24
  90              		.loc 1 564 7 is_stmt 0 view .LVU25
  91 0087 F6C101   		testb	$1, %cl
  92 008a 0F851002 		jne	.L189
  92      0000
  93              	.L77:
 565:fltk-1.3.4-1/png/pngwtran.c ****       png_do_bgr(row_info, png_ptr->row_buf + 1);
 566:fltk-1.3.4-1/png/pngwtran.c **** #endif
 567:fltk-1.3.4-1/png/pngwtran.c **** 
 568:fltk-1.3.4-1/png/pngwtran.c **** #ifdef PNG_WRITE_INVERT_SUPPORTED
 569:fltk-1.3.4-1/png/pngwtran.c ****    if ((png_ptr->transformations & PNG_INVERT_MONO) != 0)
  94              		.loc 1 569 4 is_stmt 1 view .LVU26
  95              		.loc 1 569 7 is_stmt 0 view .LVU27
  96 0090 83E120   		andl	$32, %ecx
  97 0093 0F852902 		jne	.L190
  97      0000
  98              	.LVL2:
  99              	.L1:
 570:fltk-1.3.4-1/png/pngwtran.c ****       png_do_invert(row_info, png_ptr->row_buf + 1);
 571:fltk-1.3.4-1/png/pngwtran.c **** #endif
 572:fltk-1.3.4-1/png/pngwtran.c **** }
 100              		.loc 1 572 1 view .LVU28
 101 0099 488B4424 		movq	40(%rsp), %rax
 101      28
 102 009e 64483304 		xorq	%fs:40, %rax
 102      25280000 
 102      00
 103 00a7 0F855608 		jne	.L178
 103      0000
 104 00ad 4883C430 		addq	$48, %rsp
 105              		.cfi_remember_state
 106              		.cfi_def_cfa_offset 48
 107 00b1 5B       		popq	%rbx
 108              		.cfi_def_cfa_offset 40
 109 00b2 5D       		popq	%rbp
 110              		.cfi_def_cfa_offset 32
 111 00b3 415C     		popq	%r12
 112              		.cfi_def_cfa_offset 24
 113 00b5 415D     		popq	%r13
 114              		.cfi_def_cfa_offset 16
 115 00b7 415E     		popq	%r14
 116              		.cfi_def_cfa_offset 8
 117 00b9 C3       		ret
 118              	.LVL3:
 119 00ba 660F1F44 		.p2align 4,,10
 119      0000
 120              		.p2align 3
 121              	.L181:
 122              		.cfi_restore_state
 509:fltk-1.3.4-1/png/pngwtran.c ****          (*(png_ptr->write_user_transform_fn)) /* User write transform
 123              		.loc 1 509 7 is_stmt 1 view .LVU29
 509:fltk-1.3.4-1/png/pngwtran.c ****          (*(png_ptr->write_user_transform_fn)) /* User write transform
 124              		.loc 1 509 18 is_stmt 0 view .LVU30
 125 00c0 488B8718 		movq	280(%rdi), %rax
 125      010000
 509:fltk-1.3.4-1/png/pngwtran.c ****          (*(png_ptr->write_user_transform_fn)) /* User write transform
 126              		.loc 1 509 10 view .LVU31
 127 00c7 4885C0   		testq	%rax, %rax
 128 00ca 0F846FFF 		je	.L4
 128      FFFF
 510:fltk-1.3.4-1/png/pngwtran.c ****                                                  function */
 129              		.loc 1 510 10 is_stmt 1 view .LVU32
 510:fltk-1.3.4-1/png/pngwtran.c ****                                                  function */
 130              		.loc 1 510 11 is_stmt 0 view .LVU33
 131 00d0 488BBF28 		movq	552(%rdi), %rdi
 131      020000
 132 00d7 488D5701 		leaq	1(%rdi), %rdx
 133 00db 4889DF   		movq	%rbx, %rdi
 134 00de FFD0     		call	*%rax
 135              	.LVL4:
 510:fltk-1.3.4-1/png/pngwtran.c ****                                                  function */
 136              		.loc 1 510 11 view .LVU34
 137 00e0 8B933401 		movl	308(%rbx), %edx
 137      0000
 138 00e6 89D1     		movl	%edx, %ecx
 524:fltk-1.3.4-1/png/pngwtran.c ****       png_do_strip_channel(row_info, png_ptr->row_buf + 1,
 139              		.loc 1 524 4 is_stmt 1 view .LVU35
 524:fltk-1.3.4-1/png/pngwtran.c ****       png_do_strip_channel(row_info, png_ptr->row_buf + 1,
 140              		.loc 1 524 7 is_stmt 0 view .LVU36
 141 00e8 F6C680   		testb	$-128, %dh
 142 00eb 0F8457FF 		je	.L5
 142      FFFF
 143              	.L182:
 525:fltk-1.3.4-1/png/pngwtran.c ****          !(png_ptr->flags & PNG_FLAG_FILLER_AFTER));
 144              		.loc 1 525 7 is_stmt 1 view .LVU37
 145 00f1 8B933001 		movl	304(%rbx), %edx
 145      0000
 146 00f7 488B8328 		movq	552(%rbx), %rax
 146      020000
 147 00fe 4889EF   		movq	%rbp, %rdi
 148 0101 C1EA07   		shrl	$7, %edx
 149 0104 488D7001 		leaq	1(%rax), %rsi
 150 0108 83F201   		xorl	$1, %edx
 151 010b 83E201   		andl	$1, %edx
 152 010e E8000000 		call	png_do_strip_channel@PLT
 152      00
 153              	.LVL5:
 154 0113 8B933401 		movl	308(%rbx), %edx
 154      0000
 155 0119 89D1     		movl	%edx, %ecx
 530:fltk-1.3.4-1/png/pngwtran.c ****       png_do_packswap(row_info, png_ptr->row_buf + 1);
 156              		.loc 1 530 4 view .LVU38
 530:fltk-1.3.4-1/png/pngwtran.c ****       png_do_packswap(row_info, png_ptr->row_buf + 1);
 157              		.loc 1 530 7 is_stmt 0 view .LVU39
 158 011b F7C20000 		testl	$65536, %edx
 158      0100
 159 0121 0F842DFF 		je	.L6
 159      FFFF
 160              	.L183:
 531:fltk-1.3.4-1/png/pngwtran.c **** #endif
 161              		.loc 1 531 7 is_stmt 1 view .LVU40
 162 0127 488B8328 		movq	552(%rbx), %rax
 162      020000
 163 012e 4889EF   		movq	%rbp, %rdi
 164 0131 488D7001 		leaq	1(%rax), %rsi
 165 0135 E8000000 		call	png_do_packswap@PLT
 165      00
 166              	.LVL6:
 167 013a 8B933401 		movl	308(%rbx), %edx
 167      0000
 168 0140 89D1     		movl	%edx, %ecx
 535:fltk-1.3.4-1/png/pngwtran.c ****       png_do_pack(row_info, png_ptr->row_buf + 1,
 169              		.loc 1 535 4 view .LVU41
 535:fltk-1.3.4-1/png/pngwtran.c ****       png_do_pack(row_info, png_ptr->row_buf + 1,
 170              		.loc 1 535 7 is_stmt 0 view .LVU42
 171 0142 F6C204   		testb	$4, %dl
 172 0145 0F8412FF 		je	.L7
 172      FFFF
 173              	.L184:
 536:fltk-1.3.4-1/png/pngwtran.c ****           (png_uint_32)png_ptr->bit_depth);
 174              		.loc 1 536 7 is_stmt 1 view .LVU43
 175              	.LVL7:
 176              	.LBB34:
 177              	.LBI34:
  25:fltk-1.3.4-1/png/pngwtran.c **** {
 178              		.loc 1 25 1 view .LVU44
 179              	.LBB35:
  27:fltk-1.3.4-1/png/pngwtran.c **** 
 180              		.loc 1 27 4 view .LVU45
  29:fltk-1.3.4-1/png/pngwtran.c ****       row_info->channels == 1)
 181              		.loc 1 29 4 view .LVU46
  29:fltk-1.3.4-1/png/pngwtran.c ****       row_info->channels == 1)
 182              		.loc 1 29 33 is_stmt 0 view .LVU47
 183 014b 8B4510   		movl	16(%rbp), %eax
 184 014e 2500FFFF 		andl	$16776960, %eax
 184      00
  29:fltk-1.3.4-1/png/pngwtran.c ****       row_info->channels == 1)
 185              		.loc 1 29 7 view .LVU48
 186 0153 3D000801 		cmpl	$67584, %eax
 186      00
 187 0158 0F85FFFE 		jne	.L7
 187      FFFF
 188              	.LBE35:
 189              	.LBE34:
 536:fltk-1.3.4-1/png/pngwtran.c ****           (png_uint_32)png_ptr->bit_depth);
 190              		.loc 1 536 36 view .LVU49
 191 015e 4C8B8328 		movq	552(%rbx), %r8
 191      020000
 537:fltk-1.3.4-1/png/pngwtran.c **** #endif
 192              		.loc 1 537 31 view .LVU50
 193 0165 0FB68378 		movzbl	632(%rbx), %eax
 193      020000
 194 016c 8B7D00   		movl	0(%rbp), %edi
 536:fltk-1.3.4-1/png/pngwtran.c ****           (png_uint_32)png_ptr->bit_depth);
 195              		.loc 1 536 7 view .LVU51
 196 016f 498D7001 		leaq	1(%r8), %rsi
 197              	.LBB49:
 198              	.LBB46:
  32:fltk-1.3.4-1/png/pngwtran.c ****       {
 199              		.loc 1 32 7 is_stmt 1 view .LVU52
 200 0173 3C02     		cmpb	$2, %al
 201 0175 0F84D506 		je	.L8
 201      0000
 202 017b 3C04     		cmpb	$4, %al
 203 017d 0F847D06 		je	.L9
 203      0000
 204 0183 3C01     		cmpb	$1, %al
 205 0185 0F842506 		je	.L191
 205      0000
 206              	.LVL8:
 207              	.L10:
 153:fltk-1.3.4-1/png/pngwtran.c ****       row_info->pixel_depth = (png_byte)(bit_depth * row_info->channels);
 208              		.loc 1 153 7 view .LVU53
 153:fltk-1.3.4-1/png/pngwtran.c ****       row_info->pixel_depth = (png_byte)(bit_depth * row_info->channels);
 209              		.loc 1 153 27 is_stmt 0 view .LVU54
 210 018b 884511   		movb	%al, 17(%rbp)
 154:fltk-1.3.4-1/png/pngwtran.c ****       row_info->rowbytes = PNG_ROWBYTES(row_info->pixel_depth,
 211              		.loc 1 154 7 is_stmt 1 view .LVU55
 154:fltk-1.3.4-1/png/pngwtran.c ****       row_info->rowbytes = PNG_ROWBYTES(row_info->pixel_depth,
 212              		.loc 1 154 31 is_stmt 0 view .LVU56
 213 018e F66512   		mulb	18(%rbp)
 214              	.LVL9:
 154:fltk-1.3.4-1/png/pngwtran.c ****       row_info->rowbytes = PNG_ROWBYTES(row_info->pixel_depth,
 215              		.loc 1 154 29 view .LVU57
 216 0191 884513   		movb	%al, 19(%rbp)
 155:fltk-1.3.4-1/png/pngwtran.c ****           row_info->width);
 217              		.loc 1 155 7 is_stmt 1 view .LVU58
 155:fltk-1.3.4-1/png/pngwtran.c ****           row_info->width);
 218              		.loc 1 155 28 is_stmt 0 view .LVU59
 219 0194 3C07     		cmpb	$7, %al
 220 0196 0F87A404 		ja	.L192
 220      0000
 155:fltk-1.3.4-1/png/pngwtran.c ****           row_info->width);
 221              		.loc 1 155 28 view .LVU60
 222 019c 0FB6C0   		movzbl	%al, %eax
 223 019f 480FAFC7 		imulq	%rdi, %rax
 224 01a3 4883C007 		addq	$7, %rax
 225 01a7 48C1E803 		shrq	$3, %rax
 226              	.L25:
 155:fltk-1.3.4-1/png/pngwtran.c ****           row_info->width);
 227              		.loc 1 155 26 view .LVU61
 228 01ab 48894508 		movq	%rax, 8(%rbp)
 229 01af E9A9FEFF 		jmp	.L7
 229      FF
 230              	.LVL10:
 231              		.p2align 4,,10
 232 01b4 0F1F4000 		.p2align 3
 233              	.L187:
 155:fltk-1.3.4-1/png/pngwtran.c ****           row_info->width);
 234              		.loc 1 155 26 view .LVU62
 235              	.LBE46:
 236              	.LBE49:
 555:fltk-1.3.4-1/png/pngwtran.c **** #endif
 237              		.loc 1 555 7 is_stmt 1 view .LVU63
 555:fltk-1.3.4-1/png/pngwtran.c **** #endif
 238              		.loc 1 555 48 is_stmt 0 view .LVU64
 239 01b8 488BBB28 		movq	552(%rbx), %rdi
 239      020000
 240              	.LBB50:
 241              	.LBB51:
 314:fltk-1.3.4-1/png/pngwtran.c ****       {
 242              		.loc 1 314 19 view .LVU65
 243 01bf 0FB67510 		movzbl	16(%rbp), %esi
 244              	.LBE51:
 245              	.LBE50:
 555:fltk-1.3.4-1/png/pngwtran.c **** #endif
 246              		.loc 1 555 7 view .LVU66
 247 01c3 488D4701 		leaq	1(%rdi), %rax
 248              	.LVL11:
 249              	.LBB64:
 250              	.LBI50:
 309:fltk-1.3.4-1/png/pngwtran.c **** {
 251              		.loc 1 309 1 is_stmt 1 view .LVU67
 252              	.LBB60:
 311:fltk-1.3.4-1/png/pngwtran.c **** 
 253              		.loc 1 311 4 view .LVU68
 314:fltk-1.3.4-1/png/pngwtran.c ****       {
 254              		.loc 1 314 7 view .LVU69
 314:fltk-1.3.4-1/png/pngwtran.c ****       {
 255              		.loc 1 314 10 is_stmt 0 view .LVU70
 256 01c7 4080FE06 		cmpb	$6, %sil
 257 01cb 0F840F02 		je	.L193
 257      0000
 359:fltk-1.3.4-1/png/pngwtran.c ****       {
 258              		.loc 1 359 12 is_stmt 1 view .LVU71
 359:fltk-1.3.4-1/png/pngwtran.c ****       {
 259              		.loc 1 359 15 is_stmt 0 view .LVU72
 260 01d1 4080FE04 		cmpb	$4, %sil
 261 01d5 0F85ACFE 		jne	.L60
 261      FFFF
 361:fltk-1.3.4-1/png/pngwtran.c ****          {
 262              		.loc 1 361 10 is_stmt 1 view .LVU73
 361:fltk-1.3.4-1/png/pngwtran.c ****          {
 263              		.loc 1 361 13 is_stmt 0 view .LVU74
 264 01db 807D1108 		cmpb	$8, 17(%rbp)
 265 01df 8B7500   		movl	0(%rbp), %esi
 266 01e2 0F846804 		je	.L194
 266      0000
 267              	.LBB52:
 380:fltk-1.3.4-1/png/pngwtran.c ****             png_uint_32 i;
 268              		.loc 1 380 13 is_stmt 1 view .LVU75
 381:fltk-1.3.4-1/png/pngwtran.c ****             png_uint_32 row_width = row_info->width;
 269              		.loc 1 381 13 view .LVU76
 382:fltk-1.3.4-1/png/pngwtran.c **** 
 270              		.loc 1 382 13 view .LVU77
 271              	.LVL12:
 384:fltk-1.3.4-1/png/pngwtran.c ****             {
 272              		.loc 1 384 13 view .LVU78
 384:fltk-1.3.4-1/png/pngwtran.c ****             {
 273              		.loc 1 384 40 view .LVU79
 384:fltk-1.3.4-1/png/pngwtran.c ****             {
 274              		.loc 1 384 13 is_stmt 0 view .LVU80
 275 01e8 85F6     		testl	%esi, %esi
 276 01ea 0F840007 		je	.L64
 276      0000
 277 01f0 8D56FF   		leal	-1(%rsi), %edx
 278 01f3 488D7C97 		leaq	5(%rdi,%rdx,4), %rdi
 278      05
 279              	.LVL13:
 280 01f8 0F1F8400 		.p2align 4,,10
 280      00000000 
 281              		.p2align 3
 282              	.L65:
 283              	.LBB53:
 386:fltk-1.3.4-1/png/pngwtran.c ****                save[0] = *(sp++);
 284              		.loc 1 386 16 is_stmt 1 view .LVU81
 387:fltk-1.3.4-1/png/pngwtran.c ****                save[1] = *(sp++);
 285              		.loc 1 387 16 view .LVU82
 389:fltk-1.3.4-1/png/pngwtran.c ****                *(dp++) = *(sp++);
 286              		.loc 1 389 24 is_stmt 0 view .LVU83
 287 0200 0FB67002 		movzbl	2(%rax), %esi
 387:fltk-1.3.4-1/png/pngwtran.c ****                save[1] = *(sp++);
 288              		.loc 1 387 26 view .LVU84
 289 0204 0FB608   		movzbl	(%rax), %ecx
 290              	.LVL14:
 388:fltk-1.3.4-1/png/pngwtran.c ****                *(dp++) = *(sp++);
 291              		.loc 1 388 16 is_stmt 1 view .LVU85
 388:fltk-1.3.4-1/png/pngwtran.c ****                *(dp++) = *(sp++);
 292              		.loc 1 388 16 is_stmt 0 view .LVU86
 293 0207 4883C004 		addq	$4, %rax
 294              	.LVL15:
 388:fltk-1.3.4-1/png/pngwtran.c ****                *(dp++) = *(sp++);
 295              		.loc 1 388 26 view .LVU87
 296 020b 0FB650FD 		movzbl	-3(%rax), %edx
 297              	.LVL16:
 389:fltk-1.3.4-1/png/pngwtran.c ****                *(dp++) = *(sp++);
 298              		.loc 1 389 16 is_stmt 1 view .LVU88
 389:fltk-1.3.4-1/png/pngwtran.c ****                *(dp++) = *(sp++);
 299              		.loc 1 389 24 is_stmt 0 view .LVU89
 300 020f 408870FC 		movb	%sil, -4(%rax)
 390:fltk-1.3.4-1/png/pngwtran.c ****                *(dp++) = save[0];
 301              		.loc 1 390 16 is_stmt 1 view .LVU90
 302              	.LVL17:
 390:fltk-1.3.4-1/png/pngwtran.c ****                *(dp++) = save[0];
 303              		.loc 1 390 24 is_stmt 0 view .LVU91
 304 0213 0FB670FF 		movzbl	-1(%rax), %esi
 391:fltk-1.3.4-1/png/pngwtran.c ****                *(dp++) = save[1];
 305              		.loc 1 391 24 view .LVU92
 306 0217 8848FE   		movb	%cl, -2(%rax)
 390:fltk-1.3.4-1/png/pngwtran.c ****                *(dp++) = save[0];
 307              		.loc 1 390 24 view .LVU93
 308 021a 408870FD 		movb	%sil, -3(%rax)
 391:fltk-1.3.4-1/png/pngwtran.c ****                *(dp++) = save[1];
 309              		.loc 1 391 16 is_stmt 1 view .LVU94
 310              	.LVL18:
 392:fltk-1.3.4-1/png/pngwtran.c ****             }
 311              		.loc 1 392 16 view .LVU95
 392:fltk-1.3.4-1/png/pngwtran.c ****             }
 312              		.loc 1 392 24 is_stmt 0 view .LVU96
 313 021e 8850FF   		movb	%dl, -1(%rax)
 314              	.LBE53:
 384:fltk-1.3.4-1/png/pngwtran.c ****             {
 315              		.loc 1 384 55 is_stmt 1 view .LVU97
 384:fltk-1.3.4-1/png/pngwtran.c ****             {
 316              		.loc 1 384 40 view .LVU98
 384:fltk-1.3.4-1/png/pngwtran.c ****             {
 317              		.loc 1 384 13 is_stmt 0 view .LVU99
 318 0221 4839F8   		cmpq	%rdi, %rax
 319 0224 75DA     		jne	.L65
 320              	.LVL19:
 321              	.L174:
 384:fltk-1.3.4-1/png/pngwtran.c ****             {
 322              		.loc 1 384 13 view .LVU100
 323 0226 8B933401 		movl	308(%rbx), %edx
 323      0000
 324 022c 89D1     		movl	%edx, %ecx
 325              	.LVL20:
 384:fltk-1.3.4-1/png/pngwtran.c ****             {
 326              		.loc 1 384 13 view .LVU101
 327              	.LBE52:
 328              	.LBE60:
 329              	.LBE64:
 559:fltk-1.3.4-1/png/pngwtran.c ****       png_do_write_invert_alpha(row_info, png_ptr->row_buf + 1);
 330              		.loc 1 559 4 is_stmt 1 view .LVU102
 559:fltk-1.3.4-1/png/pngwtran.c ****       png_do_write_invert_alpha(row_info, png_ptr->row_buf + 1);
 331              		.loc 1 559 7 is_stmt 0 view .LVU103
 332 022e F7C20000 		testl	$524288, %edx
 332      0800
 333 0234 0F844DFE 		je	.L60
 333      FFFF
 334 023a 660F1F44 		.p2align 4,,10
 334      0000
 335              		.p2align 3
 336              	.L188:
 560:fltk-1.3.4-1/png/pngwtran.c **** #endif
 337              		.loc 1 560 7 is_stmt 1 view .LVU104
 338 0240 488B8328 		movq	552(%rbx), %rax
 338      020000
 339              	.LBB65:
 340              	.LBB66:
 408:fltk-1.3.4-1/png/pngwtran.c ****       {
 341              		.loc 1 408 19 is_stmt 0 view .LVU105
 342 0247 0FB67510 		movzbl	16(%rbp), %esi
 343              	.LBE66:
 344              	.LBE65:
 560:fltk-1.3.4-1/png/pngwtran.c **** #endif
 345              		.loc 1 560 7 view .LVU106
 346 024b 4883C001 		addq	$1, %rax
 347              	.LVL21:
 348              	.LBB75:
 349              	.LBI65:
 403:fltk-1.3.4-1/png/pngwtran.c **** {
 350              		.loc 1 403 1 is_stmt 1 view .LVU107
 351              	.LBB71:
 405:fltk-1.3.4-1/png/pngwtran.c **** 
 352              		.loc 1 405 4 view .LVU108
 408:fltk-1.3.4-1/png/pngwtran.c ****       {
 353              		.loc 1 408 7 view .LVU109
 408:fltk-1.3.4-1/png/pngwtran.c ****       {
 354              		.loc 1 408 10 is_stmt 0 view .LVU110
 355 024f 4080FE06 		cmpb	$6, %sil
 356 0253 0F840F02 		je	.L195
 356      0000
 455:fltk-1.3.4-1/png/pngwtran.c ****       {
 357              		.loc 1 455 12 is_stmt 1 view .LVU111
 455:fltk-1.3.4-1/png/pngwtran.c ****       {
 358              		.loc 1 455 15 is_stmt 0 view .LVU112
 359 0259 4080FE04 		cmpb	$4, %sil
 360 025d 0F8524FE 		jne	.L60
 360      FFFF
 457:fltk-1.3.4-1/png/pngwtran.c ****          {
 361              		.loc 1 457 13 view .LVU113
 362 0263 807D1108 		cmpb	$8, 17(%rbp)
 363 0267 8B4D00   		movl	0(%rbp), %ecx
 457:fltk-1.3.4-1/png/pngwtran.c ****          {
 364              		.loc 1 457 10 is_stmt 1 view .LVU114
 457:fltk-1.3.4-1/png/pngwtran.c ****          {
 365              		.loc 1 457 13 is_stmt 0 view .LVU115
 366 026a 0F841004 		je	.L196
 366      0000
 367              	.LBB67:
 475:fltk-1.3.4-1/png/pngwtran.c ****             png_uint_32 i;
 368              		.loc 1 475 13 is_stmt 1 view .LVU116
 476:fltk-1.3.4-1/png/pngwtran.c ****             png_uint_32 row_width = row_info->width;
 369              		.loc 1 476 13 view .LVU117
 477:fltk-1.3.4-1/png/pngwtran.c **** 
 370              		.loc 1 477 13 view .LVU118
 371              	.LVL22:
 479:fltk-1.3.4-1/png/pngwtran.c ****             {
 372              		.loc 1 479 13 view .LVU119
 479:fltk-1.3.4-1/png/pngwtran.c ****             {
 373              		.loc 1 479 40 view .LVU120
 479:fltk-1.3.4-1/png/pngwtran.c ****             {
 374              		.loc 1 479 13 is_stmt 0 view .LVU121
 375 0270 85C9     		testl	%ecx, %ecx
 376 0272 0F848406 		je	.L75
 376      0000
 377 0278 8D51FF   		leal	-1(%rcx), %edx
 378 027b 488D5490 		leaq	4(%rax,%rdx,4), %rdx
 378      04
 379              	.LVL23:
 380              		.p2align 4,,10
 381              		.p2align 3
 382              	.L76:
 485:fltk-1.3.4-1/png/pngwtran.c ****                *(dp++) = (png_byte)(255 - *(sp++));
 383              		.loc 1 485 16 is_stmt 1 view .LVU122
 485:fltk-1.3.4-1/png/pngwtran.c ****                *(dp++) = (png_byte)(255 - *(sp++));
 384              		.loc 1 485 23 view .LVU123
 486:fltk-1.3.4-1/png/pngwtran.c ****                *(dp++) = (png_byte)(255 - *(sp++));
 385              		.loc 1 486 16 view .LVU124
 486:fltk-1.3.4-1/png/pngwtran.c ****                *(dp++) = (png_byte)(255 - *(sp++));
 386              		.loc 1 486 26 is_stmt 0 view .LVU125
 387 0280 F65002   		notb	2(%rax)
 487:fltk-1.3.4-1/png/pngwtran.c ****             }
 388              		.loc 1 487 16 is_stmt 1 view .LVU126
 389 0283 4883C004 		addq	$4, %rax
 390              	.LVL24:
 487:fltk-1.3.4-1/png/pngwtran.c ****             }
 391              		.loc 1 487 26 is_stmt 0 view .LVU127
 392 0287 F650FF   		notb	-1(%rax)
 479:fltk-1.3.4-1/png/pngwtran.c ****             {
 393              		.loc 1 479 55 is_stmt 1 view .LVU128
 479:fltk-1.3.4-1/png/pngwtran.c ****             {
 394              		.loc 1 479 40 view .LVU129
 479:fltk-1.3.4-1/png/pngwtran.c ****             {
 395              		.loc 1 479 13 is_stmt 0 view .LVU130
 396 028a 4839D0   		cmpq	%rdx, %rax
 397 028d 75F1     		jne	.L76
 398              	.LVL25:
 399              	.L177:
 479:fltk-1.3.4-1/png/pngwtran.c ****             {
 400              		.loc 1 479 13 view .LVU131
 401 028f 8B8B3401 		movl	308(%rbx), %ecx
 401      0000
 402              	.LVL26:
 479:fltk-1.3.4-1/png/pngwtran.c ****             {
 403              		.loc 1 479 13 view .LVU132
 404              	.LBE67:
 405              	.LBE71:
 406              	.LBE75:
 564:fltk-1.3.4-1/png/pngwtran.c ****       png_do_bgr(row_info, png_ptr->row_buf + 1);
 407              		.loc 1 564 4 is_stmt 1 view .LVU133
 564:fltk-1.3.4-1/png/pngwtran.c ****       png_do_bgr(row_info, png_ptr->row_buf + 1);
 408              		.loc 1 564 7 is_stmt 0 view .LVU134
 409 0295 F6C101   		testb	$1, %cl
 410 0298 0F84F2FD 		je	.L77
 410      FFFF
 411 029e 6690     		.p2align 4,,10
 412              		.p2align 3
 413              	.L189:
 565:fltk-1.3.4-1/png/pngwtran.c **** #endif
 414              		.loc 1 565 7 is_stmt 1 view .LVU135
 415 02a0 488B8328 		movq	552(%rbx), %rax
 415      020000
 416 02a7 4889EF   		movq	%rbp, %rdi
 417 02aa 488D7001 		leaq	1(%rax), %rsi
 418 02ae E8000000 		call	png_do_bgr@PLT
 418      00
 419              	.LVL27:
 420 02b3 8B8B3401 		movl	308(%rbx), %ecx
 420      0000
 569:fltk-1.3.4-1/png/pngwtran.c ****       png_do_invert(row_info, png_ptr->row_buf + 1);
 421              		.loc 1 569 4 view .LVU136
 569:fltk-1.3.4-1/png/pngwtran.c ****       png_do_invert(row_info, png_ptr->row_buf + 1);
 422              		.loc 1 569 7 is_stmt 0 view .LVU137
 423 02b9 83E120   		andl	$32, %ecx
 424 02bc 0F84D7FD 		je	.L1
 424      FFFF
 425              	.L190:
 570:fltk-1.3.4-1/png/pngwtran.c **** #endif
 426              		.loc 1 570 7 is_stmt 1 view .LVU138
 427 02c2 488B4424 		movq	40(%rsp), %rax
 427      28
 428 02c7 64483304 		xorq	%fs:40, %rax
 428      25280000 
 428      00
 429 02d0 0F852D06 		jne	.L178
 429      0000
 430 02d6 488BB328 		movq	552(%rbx), %rsi
 430      020000
 431              		.loc 1 572 1 is_stmt 0 view .LVU139
 432 02dd 4883C430 		addq	$48, %rsp
 433              		.cfi_remember_state
 434              		.cfi_def_cfa_offset 48
 570:fltk-1.3.4-1/png/pngwtran.c **** #endif
 435              		.loc 1 570 7 view .LVU140
 436 02e1 4889EF   		movq	%rbp, %rdi
 437              		.loc 1 572 1 view .LVU141
 438 02e4 5B       		popq	%rbx
 439              		.cfi_def_cfa_offset 40
 440              	.LVL28:
 441              		.loc 1 572 1 view .LVU142
 442 02e5 5D       		popq	%rbp
 443              		.cfi_def_cfa_offset 32
 444              	.LVL29:
 570:fltk-1.3.4-1/png/pngwtran.c **** #endif
 445              		.loc 1 570 7 view .LVU143
 446 02e6 4883C601 		addq	$1, %rsi
 447              		.loc 1 572 1 view .LVU144
 448 02ea 415C     		popq	%r12
 449              		.cfi_def_cfa_offset 24
 450 02ec 415D     		popq	%r13
 451              		.cfi_def_cfa_offset 16
 452 02ee 415E     		popq	%r14
 453              		.cfi_def_cfa_offset 8
 570:fltk-1.3.4-1/png/pngwtran.c **** #endif
 454              		.loc 1 570 7 view .LVU145
 455 02f0 E9000000 		jmp	png_do_invert@PLT
 455      00
 456              	.LVL30:
 457              		.p2align 4,,10
 458 02f5 0F1F00   		.p2align 3
 459              	.L186:
 460              		.cfi_restore_state
 549:fltk-1.3.4-1/png/pngwtran.c ****           &(png_ptr->shift));
 461              		.loc 1 549 7 is_stmt 1 view .LVU146
 462              	.LBB76:
 463              	.LBI76:
 170:fltk-1.3.4-1/png/pngwtran.c ****     png_const_color_8p bit_depth)
 464              		.loc 1 170 1 view .LVU147
 465              	.LBB77:
 173:fltk-1.3.4-1/png/pngwtran.c **** 
 466              		.loc 1 173 4 view .LVU148
 175:fltk-1.3.4-1/png/pngwtran.c ****    {
 467              		.loc 1 175 4 view .LVU149
 175:fltk-1.3.4-1/png/pngwtran.c ****    {
 468              		.loc 1 175 16 is_stmt 0 view .LVU150
 469 02f8 0FB64510 		movzbl	16(%rbp), %eax
 175:fltk-1.3.4-1/png/pngwtran.c ****    {
 470              		.loc 1 175 7 view .LVU151
 471 02fc 3C03     		cmpb	$3, %al
 472 02fe 0F844C01 		je	.L28
 472      0000
 473 0304 0FB67511 		movzbl	17(%rbp), %esi
 474              	.LBE77:
 475              	.LBE76:
 549:fltk-1.3.4-1/png/pngwtran.c ****           &(png_ptr->shift));
 476              		.loc 1 549 37 view .LVU152
 477 0308 488BBB28 		movq	552(%rbx), %rdi
 477      020000
 478              	.LBB102:
 479              	.LBB97:
 480              	.LBB78:
 177:fltk-1.3.4-1/png/pngwtran.c ****       int channels = 0;
 481              		.loc 1 177 7 is_stmt 1 view .LVU153
 178:fltk-1.3.4-1/png/pngwtran.c **** 
 482              		.loc 1 178 7 view .LVU154
 483              	.LVL31:
 180:fltk-1.3.4-1/png/pngwtran.c ****       {
 484              		.loc 1 180 7 view .LVU155
 485 030f 4189F1   		movl	%esi, %r9d
 180:fltk-1.3.4-1/png/pngwtran.c ****       {
 486              		.loc 1 180 10 is_stmt 0 view .LVU156
 487 0312 A802     		testb	$2, %al
 488 0314 0F84E602 		je	.L29
 488      0000
 182:fltk-1.3.4-1/png/pngwtran.c ****          shift_dec[channels] = bit_depth->red;
 489              		.loc 1 182 10 is_stmt 1 view .LVU157
 182:fltk-1.3.4-1/png/pngwtran.c ****          shift_dec[channels] = bit_depth->red;
 490              		.loc 1 182 65 is_stmt 0 view .LVU158
 491 031a 440FB683 		movzbl	749(%rbx), %r8d
 491      ED020000 
 182:fltk-1.3.4-1/png/pngwtran.c ****          shift_dec[channels] = bit_depth->red;
 492              		.loc 1 182 54 view .LVU159
 493 0322 4189F2   		movl	%esi, %r10d
 494 0325 4529C2   		subl	%r8d, %r10d
 183:fltk-1.3.4-1/png/pngwtran.c ****          channels++;
 495              		.loc 1 183 30 view .LVU160
 496 0328 44894424 		movl	%r8d, 16(%rsp)
 496      10
 186:fltk-1.3.4-1/png/pngwtran.c ****          shift_dec[channels] = bit_depth->green;
 497              		.loc 1 186 65 view .LVU161
 498 032d 440FB683 		movzbl	750(%rbx), %r8d
 498      EE020000 
 182:fltk-1.3.4-1/png/pngwtran.c ****          shift_dec[channels] = bit_depth->red;
 499              		.loc 1 182 54 view .LVU162
 500 0335 44891424 		movl	%r10d, (%rsp)
 183:fltk-1.3.4-1/png/pngwtran.c ****          channels++;
 501              		.loc 1 183 10 is_stmt 1 view .LVU163
 184:fltk-1.3.4-1/png/pngwtran.c **** 
 502              		.loc 1 184 10 view .LVU164
 503              	.LVL32:
 186:fltk-1.3.4-1/png/pngwtran.c ****          shift_dec[channels] = bit_depth->green;
 504              		.loc 1 186 10 view .LVU165
 186:fltk-1.3.4-1/png/pngwtran.c ****          shift_dec[channels] = bit_depth->green;
 505              		.loc 1 186 54 is_stmt 0 view .LVU166
 506 0339 4189F2   		movl	%esi, %r10d
 507 033c 4529C2   		subl	%r8d, %r10d
 187:fltk-1.3.4-1/png/pngwtran.c ****          channels++;
 508              		.loc 1 187 30 view .LVU167
 509 033f 44894424 		movl	%r8d, 20(%rsp)
 509      14
 190:fltk-1.3.4-1/png/pngwtran.c ****          shift_dec[channels] = bit_depth->blue;
 510              		.loc 1 190 65 view .LVU168
 511 0344 440FB683 		movzbl	751(%rbx), %r8d
 511      EF020000 
 186:fltk-1.3.4-1/png/pngwtran.c ****          shift_dec[channels] = bit_depth->green;
 512              		.loc 1 186 54 view .LVU169
 513 034c 44895424 		movl	%r10d, 4(%rsp)
 513      04
 187:fltk-1.3.4-1/png/pngwtran.c ****          channels++;
 514              		.loc 1 187 10 is_stmt 1 view .LVU170
 188:fltk-1.3.4-1/png/pngwtran.c **** 
 515              		.loc 1 188 10 view .LVU171
 516              	.LVL33:
 190:fltk-1.3.4-1/png/pngwtran.c ****          shift_dec[channels] = bit_depth->blue;
 517              		.loc 1 190 10 view .LVU172
 190:fltk-1.3.4-1/png/pngwtran.c ****          shift_dec[channels] = bit_depth->blue;
 518              		.loc 1 190 54 is_stmt 0 view .LVU173
 519 0351 4189F2   		movl	%esi, %r10d
 520 0354 4529C2   		subl	%r8d, %r10d
 191:fltk-1.3.4-1/png/pngwtran.c ****          channels++;
 521              		.loc 1 191 30 view .LVU174
 522 0357 44894424 		movl	%r8d, 24(%rsp)
 522      18
 192:fltk-1.3.4-1/png/pngwtran.c ****       }
 523              		.loc 1 192 18 view .LVU175
 524 035c 41B80300 		movl	$3, %r8d
 524      0000
 190:fltk-1.3.4-1/png/pngwtran.c ****          shift_dec[channels] = bit_depth->blue;
 525              		.loc 1 190 54 view .LVU176
 526 0362 44895424 		movl	%r10d, 8(%rsp)
 526      08
 191:fltk-1.3.4-1/png/pngwtran.c ****          channels++;
 527              		.loc 1 191 10 is_stmt 1 view .LVU177
 192:fltk-1.3.4-1/png/pngwtran.c ****       }
 528              		.loc 1 192 10 view .LVU178
 529              	.LVL34:
 530              	.L30:
 202:fltk-1.3.4-1/png/pngwtran.c ****       {
 531              		.loc 1 202 7 view .LVU179
 202:fltk-1.3.4-1/png/pngwtran.c ****       {
 532              		.loc 1 202 10 is_stmt 0 view .LVU180
 533 0367 A804     		testb	$4, %al
 534 0369 741A     		je	.L31
 204:fltk-1.3.4-1/png/pngwtran.c ****          shift_dec[channels] = bit_depth->alpha;
 535              		.loc 1 204 10 is_stmt 1 view .LVU181
 204:fltk-1.3.4-1/png/pngwtran.c ****          shift_dec[channels] = bit_depth->alpha;
 536              		.loc 1 204 65 is_stmt 0 view .LVU182
 537 036b 440FB693 		movzbl	753(%rbx), %r10d
 537      F1020000 
 204:fltk-1.3.4-1/png/pngwtran.c ****          shift_dec[channels] = bit_depth->alpha;
 538              		.loc 1 204 32 view .LVU183
 539 0373 4963C0   		movslq	%r8d, %rax
 206:fltk-1.3.4-1/png/pngwtran.c ****       }
 540              		.loc 1 206 18 view .LVU184
 541 0376 4183C001 		addl	$1, %r8d
 204:fltk-1.3.4-1/png/pngwtran.c ****          shift_dec[channels] = bit_depth->alpha;
 542              		.loc 1 204 54 view .LVU185
 543 037a 4429D6   		subl	%r10d, %esi
 205:fltk-1.3.4-1/png/pngwtran.c ****          channels++;
 544              		.loc 1 205 30 view .LVU186
 545 037d 44895484 		movl	%r10d, 16(%rsp,%rax,4)
 545      10
 204:fltk-1.3.4-1/png/pngwtran.c ****          shift_dec[channels] = bit_depth->alpha;
 546              		.loc 1 204 54 view .LVU187
 547 0382 893484   		movl	%esi, (%rsp,%rax,4)
 205:fltk-1.3.4-1/png/pngwtran.c ****          channels++;
 548              		.loc 1 205 10 is_stmt 1 view .LVU188
 206:fltk-1.3.4-1/png/pngwtran.c ****       }
 549              		.loc 1 206 10 view .LVU189
 550              	.LVL35:
 551              	.L31:
 206:fltk-1.3.4-1/png/pngwtran.c ****       }
 552              		.loc 1 206 10 is_stmt 0 view .LVU190
 553              	.LBE78:
 554              	.LBE97:
 555              	.LBE102:
 549:fltk-1.3.4-1/png/pngwtran.c ****           &(png_ptr->shift));
 556              		.loc 1 549 7 view .LVU191
 557 0385 488D7701 		leaq	1(%rdi), %rsi
 558              	.LBB103:
 559              	.LBB98:
 560              	.LBB93:
 210:fltk-1.3.4-1/png/pngwtran.c ****       {
 561              		.loc 1 210 7 is_stmt 1 view .LVU192
 210:fltk-1.3.4-1/png/pngwtran.c ****       {
 562              		.loc 1 210 10 is_stmt 0 view .LVU193
 563 0389 4180F907 		cmpb	$7, %r9b
 564 038d 0F87BD01 		ja	.L32
 564      0000
 565              	.LBB79:
 212:fltk-1.3.4-1/png/pngwtran.c ****          png_size_t i;
 566              		.loc 1 212 10 is_stmt 1 view .LVU194
 567              	.LVL36:
 213:fltk-1.3.4-1/png/pngwtran.c ****          unsigned int mask;
 568              		.loc 1 213 10 view .LVU195
 214:fltk-1.3.4-1/png/pngwtran.c ****          png_size_t row_bytes = row_info->rowbytes;
 569              		.loc 1 214 10 view .LVU196
 215:fltk-1.3.4-1/png/pngwtran.c **** 
 570              		.loc 1 215 10 view .LVU197
 217:fltk-1.3.4-1/png/pngwtran.c ****             mask = 0x55;
 571              		.loc 1 217 23 is_stmt 0 view .LVU198
 572 0393 440FB683 		movzbl	752(%rbx), %r8d
 572      F0020000 
 215:fltk-1.3.4-1/png/pngwtran.c **** 
 573              		.loc 1 215 21 view .LVU199
 574 039b 488B4508 		movq	8(%rbp), %rax
 575              	.LVL37:
 217:fltk-1.3.4-1/png/pngwtran.c ****             mask = 0x55;
 576              		.loc 1 217 10 is_stmt 1 view .LVU200
 217:fltk-1.3.4-1/png/pngwtran.c ****             mask = 0x55;
 577              		.loc 1 217 35 is_stmt 0 view .LVU201
 578 039f 4180F801 		cmpb	$1, %r8b
 579 03a3 0F85F700 		jne	.L87
 579      0000
 580 03a9 4180F902 		cmpb	$2, %r9b
 581 03ad 0F85ED00 		jne	.L87
 581      0000
 218:fltk-1.3.4-1/png/pngwtran.c **** 
 582              		.loc 1 218 18 view .LVU202
 583 03b3 41B95500 		movl	$85, %r9d
 583      0000
 584 03b9 E9000100 		jmp	.L33
 584      00
 585              	.LVL38:
 586 03be 6690     		.p2align 4,,10
 587              		.p2align 3
 588              	.L185:
 218:fltk-1.3.4-1/png/pngwtran.c **** 
 589              		.loc 1 218 18 view .LVU203
 590              	.LBE79:
 591              	.LBE93:
 592              	.LBE98:
 593              	.LBE103:
 543:fltk-1.3.4-1/png/pngwtran.c **** #  endif
 594              		.loc 1 543 7 is_stmt 1 view .LVU204
 595 03c0 488B8328 		movq	552(%rbx), %rax
 595      020000
 596 03c7 4889EF   		movq	%rbp, %rdi
 597 03ca 488D7001 		leaq	1(%rax), %rsi
 598 03ce E8000000 		call	png_do_swap@PLT
 598      00
 599              	.LVL39:
 600 03d3 8B933401 		movl	308(%rbx), %edx
 600      0000
 601 03d9 89D1     		movl	%edx, %ecx
 602 03db E986FCFF 		jmp	.L26
 602      FF
 603              	.LVL40:
 604              		.p2align 4,,10
 605              		.p2align 3
 606              	.L193:
 607              	.LBB104:
 608              	.LBB61:
 316:fltk-1.3.4-1/png/pngwtran.c ****          {
 609              		.loc 1 316 10 view .LVU205
 316:fltk-1.3.4-1/png/pngwtran.c ****          {
 610              		.loc 1 316 13 is_stmt 0 view .LVU206
 611 03e0 807D1108 		cmpb	$8, 17(%rbp)
 612 03e4 8B7500   		movl	0(%rbp), %esi
 613 03e7 0F84BB02 		je	.L197
 613      0000
 614              	.LBB54:
 337:fltk-1.3.4-1/png/pngwtran.c ****             png_uint_32 i;
 615              		.loc 1 337 13 is_stmt 1 view .LVU207
 338:fltk-1.3.4-1/png/pngwtran.c ****             png_uint_32 row_width = row_info->width;
 616              		.loc 1 338 13 view .LVU208
 339:fltk-1.3.4-1/png/pngwtran.c **** 
 617              		.loc 1 339 13 view .LVU209
 618              	.LVL41:
 341:fltk-1.3.4-1/png/pngwtran.c ****             {
 619              		.loc 1 341 13 view .LVU210
 341:fltk-1.3.4-1/png/pngwtran.c ****             {
 620              		.loc 1 341 40 view .LVU211
 341:fltk-1.3.4-1/png/pngwtran.c ****             {
 621              		.loc 1 341 13 is_stmt 0 view .LVU212
 622 03ed 85F6     		testl	%esi, %esi
 623 03ef 0F84FB04 		je	.L64
 623      0000
 624 03f5 8D56FF   		leal	-1(%rsi), %edx
 625 03f8 488D7CD7 		leaq	9(%rdi,%rdx,8), %rdi
 625      09
 626              	.LVL42:
 627 03fd 0F1F00   		.p2align 4,,10
 628              		.p2align 3
 629              	.L59:
 630              	.LBB55:
 343:fltk-1.3.4-1/png/pngwtran.c ****                save[0] = *(sp++);
 631              		.loc 1 343 16 is_stmt 1 view .LVU213
 344:fltk-1.3.4-1/png/pngwtran.c ****                save[1] = *(sp++);
 632              		.loc 1 344 16 view .LVU214
 346:fltk-1.3.4-1/png/pngwtran.c ****                *(dp++) = *(sp++);
 633              		.loc 1 346 24 is_stmt 0 view .LVU215
 634 0400 0FB67002 		movzbl	2(%rax), %esi
 344:fltk-1.3.4-1/png/pngwtran.c ****                save[1] = *(sp++);
 635              		.loc 1 344 26 view .LVU216
 636 0404 0FB608   		movzbl	(%rax), %ecx
 637              	.LVL43:
 345:fltk-1.3.4-1/png/pngwtran.c ****                *(dp++) = *(sp++);
 638              		.loc 1 345 16 is_stmt 1 view .LVU217
 345:fltk-1.3.4-1/png/pngwtran.c ****                *(dp++) = *(sp++);
 639              		.loc 1 345 16 is_stmt 0 view .LVU218
 640 0407 4883C008 		addq	$8, %rax
 641              	.LVL44:
 345:fltk-1.3.4-1/png/pngwtran.c ****                *(dp++) = *(sp++);
 642              		.loc 1 345 26 view .LVU219
 643 040b 0FB650F9 		movzbl	-7(%rax), %edx
 644              	.LVL45:
 346:fltk-1.3.4-1/png/pngwtran.c ****                *(dp++) = *(sp++);
 645              		.loc 1 346 16 is_stmt 1 view .LVU220
 346:fltk-1.3.4-1/png/pngwtran.c ****                *(dp++) = *(sp++);
 646              		.loc 1 346 24 is_stmt 0 view .LVU221
 647 040f 408870F8 		movb	%sil, -8(%rax)
 347:fltk-1.3.4-1/png/pngwtran.c ****                *(dp++) = *(sp++);
 648              		.loc 1 347 16 is_stmt 1 view .LVU222
 649              	.LVL46:
 347:fltk-1.3.4-1/png/pngwtran.c ****                *(dp++) = *(sp++);
 650              		.loc 1 347 24 is_stmt 0 view .LVU223
 651 0413 0FB670FB 		movzbl	-5(%rax), %esi
 652 0417 408870F9 		movb	%sil, -7(%rax)
 348:fltk-1.3.4-1/png/pngwtran.c ****                *(dp++) = *(sp++);
 653              		.loc 1 348 16 is_stmt 1 view .LVU224
 654              	.LVL47:
 348:fltk-1.3.4-1/png/pngwtran.c ****                *(dp++) = *(sp++);
 655              		.loc 1 348 24 is_stmt 0 view .LVU225
 656 041b 0FB670FC 		movzbl	-4(%rax), %esi
 657 041f 408870FA 		movb	%sil, -6(%rax)
 349:fltk-1.3.4-1/png/pngwtran.c ****                *(dp++) = *(sp++);
 658              		.loc 1 349 16 is_stmt 1 view .LVU226
 659              	.LVL48:
 349:fltk-1.3.4-1/png/pngwtran.c ****                *(dp++) = *(sp++);
 660              		.loc 1 349 24 is_stmt 0 view .LVU227
 661 0423 0FB670FD 		movzbl	-3(%rax), %esi
 662 0427 408870FB 		movb	%sil, -5(%rax)
 350:fltk-1.3.4-1/png/pngwtran.c ****                *(dp++) = *(sp++);
 663              		.loc 1 350 16 is_stmt 1 view .LVU228
 664              	.LVL49:
 350:fltk-1.3.4-1/png/pngwtran.c ****                *(dp++) = *(sp++);
 665              		.loc 1 350 24 is_stmt 0 view .LVU229
 666 042b 0FB670FE 		movzbl	-2(%rax), %esi
 667 042f 408870FC 		movb	%sil, -4(%rax)
 351:fltk-1.3.4-1/png/pngwtran.c ****                *(dp++) = save[0];
 668              		.loc 1 351 16 is_stmt 1 view .LVU230
 669              	.LVL50:
 351:fltk-1.3.4-1/png/pngwtran.c ****                *(dp++) = save[0];
 670              		.loc 1 351 24 is_stmt 0 view .LVU231
 671 0433 0FB670FF 		movzbl	-1(%rax), %esi
 352:fltk-1.3.4-1/png/pngwtran.c ****                *(dp++) = save[1];
 672              		.loc 1 352 24 view .LVU232
 673 0437 8848FE   		movb	%cl, -2(%rax)
 351:fltk-1.3.4-1/png/pngwtran.c ****                *(dp++) = save[0];
 674              		.loc 1 351 24 view .LVU233
 675 043a 408870FD 		movb	%sil, -3(%rax)
 352:fltk-1.3.4-1/png/pngwtran.c ****                *(dp++) = save[1];
 676              		.loc 1 352 16 is_stmt 1 view .LVU234
 677              	.LVL51:
 353:fltk-1.3.4-1/png/pngwtran.c ****             }
 678              		.loc 1 353 16 view .LVU235
 353:fltk-1.3.4-1/png/pngwtran.c ****             }
 679              		.loc 1 353 24 is_stmt 0 view .LVU236
 680 043e 8850FF   		movb	%dl, -1(%rax)
 681              	.LBE55:
 341:fltk-1.3.4-1/png/pngwtran.c ****             {
 682              		.loc 1 341 55 is_stmt 1 view .LVU237
 341:fltk-1.3.4-1/png/pngwtran.c ****             {
 683              		.loc 1 341 40 view .LVU238
 341:fltk-1.3.4-1/png/pngwtran.c ****             {
 684              		.loc 1 341 13 is_stmt 0 view .LVU239
 685 0441 4839F8   		cmpq	%rdi, %rax
 686 0444 75BA     		jne	.L59
 687 0446 E9DBFDFF 		jmp	.L174
 687      FF
 688              	.LVL52:
 689 044b 0F1F4400 		.p2align 4,,10
 689      00
 690              		.p2align 3
 691              	.L28:
 341:fltk-1.3.4-1/png/pngwtran.c ****             {
 692              		.loc 1 341 13 view .LVU240
 693              	.LBE54:
 694              	.LBE61:
 695              	.LBE104:
 554:fltk-1.3.4-1/png/pngwtran.c ****       png_do_write_swap_alpha(row_info, png_ptr->row_buf + 1);
 696              		.loc 1 554 4 is_stmt 1 view .LVU241
 554:fltk-1.3.4-1/png/pngwtran.c ****       png_do_write_swap_alpha(row_info, png_ptr->row_buf + 1);
 697              		.loc 1 554 7 is_stmt 0 view .LVU242
 698 0450 F7C20000 		testl	$131072, %edx
 698      0200
 699 0456 0F841FFC 		je	.L53
 699      FFFF
 700 045c E926FCFF 		jmp	.L60
 700      FF
 701              	.LVL53:
 702              		.p2align 4,,10
 703 0461 0F1F8000 		.p2align 3
 703      000000
 704              	.L195:
 705              	.LBB105:
 706              	.LBB72:
 410:fltk-1.3.4-1/png/pngwtran.c ****          {
 707              		.loc 1 410 13 view .LVU243
 708 0468 807D1108 		cmpb	$8, 17(%rbp)
 709 046c 8B4D00   		movl	0(%rbp), %ecx
 410:fltk-1.3.4-1/png/pngwtran.c ****          {
 710              		.loc 1 410 10 is_stmt 1 view .LVU244
 410:fltk-1.3.4-1/png/pngwtran.c ****          {
 711              		.loc 1 410 13 is_stmt 0 view .LVU245
 712 046f 0F840303 		je	.L198
 712      0000
 713              	.LBB68:
 433:fltk-1.3.4-1/png/pngwtran.c ****             png_uint_32 i;
 714              		.loc 1 433 13 is_stmt 1 view .LVU246
 434:fltk-1.3.4-1/png/pngwtran.c ****             png_uint_32 row_width = row_info->width;
 715              		.loc 1 434 13 view .LVU247
 435:fltk-1.3.4-1/png/pngwtran.c **** 
 716              		.loc 1 435 13 view .LVU248
 717              	.LVL54:
 437:fltk-1.3.4-1/png/pngwtran.c ****             {
 718              		.loc 1 437 13 view .LVU249
 437:fltk-1.3.4-1/png/pngwtran.c ****             {
 719              		.loc 1 437 40 view .LVU250
 437:fltk-1.3.4-1/png/pngwtran.c ****             {
 720              		.loc 1 437 13 is_stmt 0 view .LVU251
 721 0475 85C9     		testl	%ecx, %ecx
 722 0477 0F847F04 		je	.L75
 722      0000
 723 047d 8D51FF   		leal	-1(%rcx), %edx
 724 0480 488D54D0 		leaq	8(%rax,%rdx,8), %rdx
 724      08
 725              	.LVL55:
 726              		.p2align 4,,10
 727 0485 0F1F00   		.p2align 3
 728              	.L71:
 447:fltk-1.3.4-1/png/pngwtran.c ****                *(dp++) = (png_byte)(255 - *(sp++));
 729              		.loc 1 447 16 is_stmt 1 view .LVU252
 447:fltk-1.3.4-1/png/pngwtran.c ****                *(dp++) = (png_byte)(255 - *(sp++));
 730              		.loc 1 447 23 view .LVU253
 448:fltk-1.3.4-1/png/pngwtran.c ****                *(dp++) = (png_byte)(255 - *(sp++));
 731              		.loc 1 448 16 view .LVU254
 448:fltk-1.3.4-1/png/pngwtran.c ****                *(dp++) = (png_byte)(255 - *(sp++));
 732              		.loc 1 448 26 is_stmt 0 view .LVU255
 733 0488 F65006   		notb	6(%rax)
 449:fltk-1.3.4-1/png/pngwtran.c ****             }
 734              		.loc 1 449 16 is_stmt 1 view .LVU256
 735 048b 4883C008 		addq	$8, %rax
 736              	.LVL56:
 449:fltk-1.3.4-1/png/pngwtran.c ****             }
 737              		.loc 1 449 26 is_stmt 0 view .LVU257
 738 048f F650FF   		notb	-1(%rax)
 437:fltk-1.3.4-1/png/pngwtran.c ****             {
 739              		.loc 1 437 55 is_stmt 1 view .LVU258
 437:fltk-1.3.4-1/png/pngwtran.c ****             {
 740              		.loc 1 437 40 view .LVU259
 437:fltk-1.3.4-1/png/pngwtran.c ****             {
 741              		.loc 1 437 13 is_stmt 0 view .LVU260
 742 0492 4839D0   		cmpq	%rdx, %rax
 743 0495 75F1     		jne	.L71
 744 0497 E9F3FDFF 		jmp	.L177
 744      FF
 745              	.LVL57:
 746 049c 0F1F4000 		.p2align 4,,10
 747              		.p2align 3
 748              	.L87:
 437:fltk-1.3.4-1/png/pngwtran.c ****             {
 749              		.loc 1 437 13 view .LVU261
 750              	.LBE68:
 751              	.LBE72:
 752              	.LBE105:
 753              	.LBB106:
 754              	.LBB99:
 755              	.LBB94:
 756              	.LBB82:
 220:fltk-1.3.4-1/png/pngwtran.c ****             mask = 0x11;
 757              		.loc 1 220 15 is_stmt 1 view .LVU262
 220:fltk-1.3.4-1/png/pngwtran.c ****             mask = 0x11;
 758              		.loc 1 220 44 is_stmt 0 view .LVU263
 759 04a0 4180F904 		cmpb	$4, %r9b
 760 04a4 7512     		jne	.L88
 761 04a6 4180F803 		cmpb	$3, %r8b
 762 04aa 750C     		jne	.L88
 221:fltk-1.3.4-1/png/pngwtran.c **** 
 763              		.loc 1 221 18 view .LVU264
 764 04ac 41B91100 		movl	$17, %r9d
 764      0000
 765 04b2 EB0A     		jmp	.L33
 766              		.p2align 4,,10
 767 04b4 0F1F4000 		.p2align 3
 768              	.L88:
 224:fltk-1.3.4-1/png/pngwtran.c **** 
 769              		.loc 1 224 18 view .LVU265
 770 04b8 41B9FF00 		movl	$255, %r9d
 770      0000
 771              	.L33:
 772              	.LVL58:
 226:fltk-1.3.4-1/png/pngwtran.c ****          {
 773              		.loc 1 226 10 is_stmt 1 view .LVU266
 226:fltk-1.3.4-1/png/pngwtran.c ****          {
 774              		.loc 1 226 22 view .LVU267
 226:fltk-1.3.4-1/png/pngwtran.c ****          {
 775              		.loc 1 226 10 is_stmt 0 view .LVU268
 776 04be 4885C0   		testq	%rax, %rax
 777 04c1 0F84A8FB 		je	.L27
 777      FFFF
 778              	.LBB80:
 234:fltk-1.3.4-1/png/pngwtran.c ****             {
 779              		.loc 1 234 52 view .LVU269
 780 04c7 448B4424 		movl	16(%rsp), %r8d
 780      10
 234:fltk-1.3.4-1/png/pngwtran.c ****             {
 781              		.loc 1 234 20 view .LVU270
 782 04cc 448B1424 		movl	(%rsp), %r10d
 783 04d0 4C8D6407 		leaq	1(%rdi,%rax), %r12
 783      01
 234:fltk-1.3.4-1/png/pngwtran.c ****             {
 784              		.loc 1 234 42 view .LVU271
 785 04d5 4589C3   		movl	%r8d, %r11d
 786 04d8 41F7DB   		negl	%r11d
 787              	.LVL59:
 788 04db 0F1F4400 		.p2align 4,,10
 788      00
 789              		.p2align 3
 790              	.L41:
 228:fltk-1.3.4-1/png/pngwtran.c ****             unsigned int v, out;
 791              		.loc 1 228 13 is_stmt 1 view .LVU272
 229:fltk-1.3.4-1/png/pngwtran.c **** 
 792              		.loc 1 229 13 view .LVU273
 231:fltk-1.3.4-1/png/pngwtran.c ****             out = 0;
 793              		.loc 1 231 13 view .LVU274
 231:fltk-1.3.4-1/png/pngwtran.c ****             out = 0;
 794              		.loc 1 231 15 is_stmt 0 view .LVU275
 795 04e0 440FB62E 		movzbl	(%rsi), %r13d
 796              	.LVL60:
 232:fltk-1.3.4-1/png/pngwtran.c **** 
 797              		.loc 1 232 13 is_stmt 1 view .LVU276
 234:fltk-1.3.4-1/png/pngwtran.c ****             {
 798              		.loc 1 234 13 view .LVU277
 234:fltk-1.3.4-1/png/pngwtran.c ****             {
 799              		.loc 1 234 38 view .LVU278
 234:fltk-1.3.4-1/png/pngwtran.c ****             {
 800              		.loc 1 234 13 is_stmt 0 view .LVU279
 801 04e4 4539DA   		cmpl	%r11d, %r10d
 802 04e7 0F8E3B01 		jle	.L83
 802      0000
 803 04ed 4489D7   		movl	%r10d, %edi
 804 04f0 4489D2   		movl	%r10d, %edx
 232:fltk-1.3.4-1/png/pngwtran.c **** 
 805              		.loc 1 232 17 view .LVU280
 806 04f3 31C0     		xorl	%eax, %eax
 807 04f5 F7DF     		negl	%edi
 808 04f7 EB1A     		jmp	.L40
 809              	.LVL61:
 810 04f9 0F1F8000 		.p2align 4,,10
 810      000000
 811              		.p2align 3
 812              	.L199:
 237:fltk-1.3.4-1/png/pngwtran.c **** 
 813              		.loc 1 237 19 is_stmt 1 view .LVU281
 237:fltk-1.3.4-1/png/pngwtran.c **** 
 814              		.loc 1 237 28 is_stmt 0 view .LVU282
 815 0500 89D1     		movl	%edx, %ecx
 234:fltk-1.3.4-1/png/pngwtran.c ****             {
 816              		.loc 1 234 59 view .LVU283
 817 0502 4429C2   		subl	%r8d, %edx
 818              	.LVL62:
 234:fltk-1.3.4-1/png/pngwtran.c ****             {
 819              		.loc 1 234 59 view .LVU284
 820 0505 4401C7   		addl	%r8d, %edi
 237:fltk-1.3.4-1/png/pngwtran.c **** 
 821              		.loc 1 237 28 view .LVU285
 822 0508 41D3E6   		sall	%cl, %r14d
 237:fltk-1.3.4-1/png/pngwtran.c **** 
 823              		.loc 1 237 23 view .LVU286
 824 050b 4409F0   		orl	%r14d, %eax
 825              	.LVL63:
 234:fltk-1.3.4-1/png/pngwtran.c ****             {
 826              		.loc 1 234 57 is_stmt 1 view .LVU287
 234:fltk-1.3.4-1/png/pngwtran.c ****             {
 827              		.loc 1 234 38 view .LVU288
 234:fltk-1.3.4-1/png/pngwtran.c ****             {
 828              		.loc 1 234 13 is_stmt 0 view .LVU289
 829 050e 4439DA   		cmpl	%r11d, %edx
 830 0511 7E1F     		jle	.L37
 831              	.LVL64:
 832              	.L40:
 236:fltk-1.3.4-1/png/pngwtran.c ****                   out |= v << j;
 833              		.loc 1 236 16 is_stmt 1 view .LVU290
 237:fltk-1.3.4-1/png/pngwtran.c **** 
 834              		.loc 1 237 28 is_stmt 0 view .LVU291
 835 0513 4589EE   		movl	%r13d, %r14d
 236:fltk-1.3.4-1/png/pngwtran.c ****                   out |= v << j;
 836              		.loc 1 236 19 view .LVU292
 837 0516 85D2     		testl	%edx, %edx
 838 0518 7FE6     		jg	.L199
 240:fltk-1.3.4-1/png/pngwtran.c ****             }
 839              		.loc 1 240 19 is_stmt 1 view .LVU293
 240:fltk-1.3.4-1/png/pngwtran.c ****             }
 840              		.loc 1 240 29 is_stmt 0 view .LVU294
 841 051a 89F9     		movl	%edi, %ecx
 234:fltk-1.3.4-1/png/pngwtran.c ****             {
 842              		.loc 1 234 59 view .LVU295
 843 051c 4429C2   		subl	%r8d, %edx
 844              	.LVL65:
 234:fltk-1.3.4-1/png/pngwtran.c ****             {
 845              		.loc 1 234 59 view .LVU296
 846 051f 4401C7   		addl	%r8d, %edi
 240:fltk-1.3.4-1/png/pngwtran.c ****             }
 847              		.loc 1 240 29 view .LVU297
 848 0522 41D3EE   		shrl	%cl, %r14d
 849 0525 4489F1   		movl	%r14d, %ecx
 240:fltk-1.3.4-1/png/pngwtran.c ****             }
 850              		.loc 1 240 38 view .LVU298
 851 0528 4421C9   		andl	%r9d, %ecx
 240:fltk-1.3.4-1/png/pngwtran.c ****             }
 852              		.loc 1 240 23 view .LVU299
 853 052b 09C8     		orl	%ecx, %eax
 854              	.LVL66:
 234:fltk-1.3.4-1/png/pngwtran.c ****             {
 855              		.loc 1 234 57 is_stmt 1 view .LVU300
 234:fltk-1.3.4-1/png/pngwtran.c ****             {
 856              		.loc 1 234 38 view .LVU301
 234:fltk-1.3.4-1/png/pngwtran.c ****             {
 857              		.loc 1 234 13 is_stmt 0 view .LVU302
 858 052d 4439DA   		cmpl	%r11d, %edx
 859 0530 7FE1     		jg	.L40
 860              	.LVL67:
 861              	.L37:
 243:fltk-1.3.4-1/png/pngwtran.c ****          }
 862              		.loc 1 243 13 is_stmt 1 view .LVU303
 243:fltk-1.3.4-1/png/pngwtran.c ****          }
 863              		.loc 1 243 17 is_stmt 0 view .LVU304
 864 0532 8806     		movb	%al, (%rsi)
 865              	.LBE80:
 226:fltk-1.3.4-1/png/pngwtran.c ****          {
 866              		.loc 1 226 37 is_stmt 1 view .LVU305
 226:fltk-1.3.4-1/png/pngwtran.c ****          {
 867              		.loc 1 226 44 is_stmt 0 view .LVU306
 868 0534 4883C601 		addq	$1, %rsi
 869              	.LVL68:
 226:fltk-1.3.4-1/png/pngwtran.c ****          {
 870              		.loc 1 226 22 is_stmt 1 view .LVU307
 226:fltk-1.3.4-1/png/pngwtran.c ****          {
 871              		.loc 1 226 10 is_stmt 0 view .LVU308
 872 0538 4939F4   		cmpq	%rsi, %r12
 873 053b 75A3     		jne	.L41
 874              	.LVL69:
 875              	.L173:
 226:fltk-1.3.4-1/png/pngwtran.c ****          {
 876              		.loc 1 226 10 view .LVU309
 877 053d 8B933401 		movl	308(%rbx), %edx
 877      0000
 878 0543 89D1     		movl	%edx, %ecx
 879 0545 E925FBFF 		jmp	.L27
 879      FF
 880              	.LVL70:
 881 054a 660F1F44 		.p2align 4,,10
 881      0000
 882              		.p2align 3
 883              	.L32:
 226:fltk-1.3.4-1/png/pngwtran.c ****          {
 884              		.loc 1 226 10 view .LVU310
 885              	.LBE82:
 247:fltk-1.3.4-1/png/pngwtran.c ****       {
 886              		.loc 1 247 12 is_stmt 1 view .LVU311
 887 0550 448B5500 		movl	0(%rbp), %r10d
 888 0554 450FAFD0 		imull	%r8d, %r10d
 247:fltk-1.3.4-1/png/pngwtran.c ****       {
 889              		.loc 1 247 15 is_stmt 0 view .LVU312
 890 0558 4180F908 		cmpb	$8, %r9b
 891 055c 0F848E01 		je	.L200
 891      0000
 892              	.LBB83:
 278:fltk-1.3.4-1/png/pngwtran.c ****          png_uint_32 i;
 893              		.loc 1 278 10 is_stmt 1 view .LVU313
 279:fltk-1.3.4-1/png/pngwtran.c ****          png_uint_32 istop = channels * row_info->width;
 894              		.loc 1 279 10 view .LVU314
 280:fltk-1.3.4-1/png/pngwtran.c **** 
 895              		.loc 1 280 10 view .LVU315
 896              	.LVL71:
 282:fltk-1.3.4-1/png/pngwtran.c ****          {
 897              		.loc 1 282 10 view .LVU316
 282:fltk-1.3.4-1/png/pngwtran.c ****          {
 898              		.loc 1 282 32 view .LVU317
 282:fltk-1.3.4-1/png/pngwtran.c ****          {
 899              		.loc 1 282 10 is_stmt 0 view .LVU318
 900 0562 4585D2   		testl	%r10d, %r10d
 901 0565 0F8404FB 		je	.L27
 901      FFFF
 282:fltk-1.3.4-1/png/pngwtran.c ****          {
 902              		.loc 1 282 27 view .LVU319
 903 056b 4531E4   		xorl	%r12d, %r12d
 904              	.LVL72:
 905 056e 6690     		.p2align 4,,10
 906              		.p2align 3
 907              	.L52:
 908              	.LBB84:
 284:fltk-1.3.4-1/png/pngwtran.c ****             int j;
 909              		.loc 1 284 13 is_stmt 1 view .LVU320
 285:fltk-1.3.4-1/png/pngwtran.c ****             unsigned int value, v;
 910              		.loc 1 285 13 view .LVU321
 286:fltk-1.3.4-1/png/pngwtran.c **** 
 911              		.loc 1 286 13 view .LVU322
 288:fltk-1.3.4-1/png/pngwtran.c ****             value = 0;
 912              		.loc 1 288 13 view .LVU323
 288:fltk-1.3.4-1/png/pngwtran.c ****             value = 0;
 913              		.loc 1 288 17 is_stmt 0 view .LVU324
 914 0570 0FB63E   		movzbl	(%rsi), %edi
 915 0573 0FB64601 		movzbl	1(%rsi), %eax
 291:fltk-1.3.4-1/png/pngwtran.c ****             {
 916              		.loc 1 291 20 view .LVU325
 917 0577 31D2     		xorl	%edx, %edx
 288:fltk-1.3.4-1/png/pngwtran.c ****             value = 0;
 918              		.loc 1 288 17 view .LVU326
 919 0579 C1E708   		sall	$8, %edi
 920 057c 01C7     		addl	%eax, %edi
 291:fltk-1.3.4-1/png/pngwtran.c ****             {
 921              		.loc 1 291 20 view .LVU327
 922 057e 4489E0   		movl	%r12d, %eax
 923 0581 41F7F0   		divl	%r8d
 288:fltk-1.3.4-1/png/pngwtran.c ****             value = 0;
 924              		.loc 1 288 15 view .LVU328
 925 0584 0FB7FF   		movzwl	%di, %edi
 926              	.LVL73:
 289:fltk-1.3.4-1/png/pngwtran.c **** 
 927              		.loc 1 289 13 is_stmt 1 view .LVU329
 291:fltk-1.3.4-1/png/pngwtran.c ****             {
 928              		.loc 1 291 13 view .LVU330
 291:fltk-1.3.4-1/png/pngwtran.c ****             {
 929              		.loc 1 291 52 is_stmt 0 view .LVU331
 930 0587 448B5C94 		movl	16(%rsp,%rdx,4), %r11d
 930      10
 291:fltk-1.3.4-1/png/pngwtran.c ****             {
 931              		.loc 1 291 20 view .LVU332
 932 058c 8B0494   		movl	(%rsp,%rdx,4), %eax
 933              	.LVL74:
 291:fltk-1.3.4-1/png/pngwtran.c ****             {
 934              		.loc 1 291 38 is_stmt 1 view .LVU333
 291:fltk-1.3.4-1/png/pngwtran.c ****             {
 935              		.loc 1 291 42 is_stmt 0 view .LVU334
 936 058f 4589DD   		movl	%r11d, %r13d
 937 0592 41F7DD   		negl	%r13d
 291:fltk-1.3.4-1/png/pngwtran.c ****             {
 938              		.loc 1 291 13 view .LVU335
 939 0595 4439E8   		cmpl	%r13d, %eax
 940 0598 0F8E9200 		jle	.L86
 940      0000
 941 059e 4189C1   		movl	%eax, %r9d
 289:fltk-1.3.4-1/png/pngwtran.c **** 
 942              		.loc 1 289 19 view .LVU336
 943 05a1 31D2     		xorl	%edx, %edx
 944 05a3 41F7D9   		negl	%r9d
 945 05a6 EB1B     		jmp	.L51
 946              	.LVL75:
 947 05a8 0F1F8400 		.p2align 4,,10
 947      00000000 
 948              		.p2align 3
 949              	.L202:
 294:fltk-1.3.4-1/png/pngwtran.c **** 
 950              		.loc 1 294 19 is_stmt 1 view .LVU337
 294:fltk-1.3.4-1/png/pngwtran.c **** 
 951              		.loc 1 294 30 is_stmt 0 view .LVU338
 952 05b0 89C1     		movl	%eax, %ecx
 291:fltk-1.3.4-1/png/pngwtran.c ****             {
 953              		.loc 1 291 59 view .LVU339
 954 05b2 4429D8   		subl	%r11d, %eax
 955              	.LVL76:
 291:fltk-1.3.4-1/png/pngwtran.c ****             {
 956              		.loc 1 291 59 view .LVU340
 957 05b5 4501D9   		addl	%r11d, %r9d
 294:fltk-1.3.4-1/png/pngwtran.c **** 
 958              		.loc 1 294 30 view .LVU341
 959 05b8 41D3E6   		sall	%cl, %r14d
 294:fltk-1.3.4-1/png/pngwtran.c **** 
 960              		.loc 1 294 25 view .LVU342
 961 05bb 4409F2   		orl	%r14d, %edx
 962              	.LVL77:
 291:fltk-1.3.4-1/png/pngwtran.c ****             {
 963              		.loc 1 291 57 is_stmt 1 view .LVU343
 291:fltk-1.3.4-1/png/pngwtran.c ****             {
 964              		.loc 1 291 38 view .LVU344
 291:fltk-1.3.4-1/png/pngwtran.c ****             {
 965              		.loc 1 291 13 is_stmt 0 view .LVU345
 966 05be 4439E8   		cmpl	%r13d, %eax
 967 05c1 7E1B     		jle	.L201
 968              	.LVL78:
 969              	.L51:
 293:fltk-1.3.4-1/png/pngwtran.c ****                   value |= v << j;
 970              		.loc 1 293 16 is_stmt 1 view .LVU346
 294:fltk-1.3.4-1/png/pngwtran.c **** 
 971              		.loc 1 294 30 is_stmt 0 view .LVU347
 972 05c3 4189FE   		movl	%edi, %r14d
 293:fltk-1.3.4-1/png/pngwtran.c ****                   value |= v << j;
 973              		.loc 1 293 19 view .LVU348
 974 05c6 85C0     		testl	%eax, %eax
 975 05c8 7FE6     		jg	.L202
 297:fltk-1.3.4-1/png/pngwtran.c ****             }
 976              		.loc 1 297 19 is_stmt 1 view .LVU349
 297:fltk-1.3.4-1/png/pngwtran.c ****             }
 977              		.loc 1 297 30 is_stmt 0 view .LVU350
 978 05ca 4489C9   		movl	%r9d, %ecx
 291:fltk-1.3.4-1/png/pngwtran.c ****             {
 979              		.loc 1 291 59 view .LVU351
 980 05cd 4429D8   		subl	%r11d, %eax
 981              	.LVL79:
 291:fltk-1.3.4-1/png/pngwtran.c ****             {
 982              		.loc 1 291 59 view .LVU352
 983 05d0 4501D9   		addl	%r11d, %r9d
 297:fltk-1.3.4-1/png/pngwtran.c ****             }
 984              		.loc 1 297 30 view .LVU353
 985 05d3 41D3EE   		shrl	%cl, %r14d
 297:fltk-1.3.4-1/png/pngwtran.c ****             }
 986              		.loc 1 297 25 view .LVU354
 987 05d6 4409F2   		orl	%r14d, %edx
 988              	.LVL80:
 291:fltk-1.3.4-1/png/pngwtran.c ****             {
 989              		.loc 1 291 57 is_stmt 1 view .LVU355
 291:fltk-1.3.4-1/png/pngwtran.c ****             {
 990              		.loc 1 291 38 view .LVU356
 291:fltk-1.3.4-1/png/pngwtran.c ****             {
 991              		.loc 1 291 13 is_stmt 0 view .LVU357
 992 05d9 4439E8   		cmpl	%r13d, %eax
 993 05dc 7FE5     		jg	.L51
 994              	.L201:
 291:fltk-1.3.4-1/png/pngwtran.c ****             {
 995              		.loc 1 291 13 view .LVU358
 996 05de 0FB6C6   		movzbl	%dh, %eax
 997              	.LVL81:
 998              	.L48:
 299:fltk-1.3.4-1/png/pngwtran.c ****             *bp++ = (png_byte)(value & 0xff);
 999              		.loc 1 299 13 is_stmt 1 view .LVU359
 299:fltk-1.3.4-1/png/pngwtran.c ****             *bp++ = (png_byte)(value & 0xff);
 1000              		.loc 1 299 19 is_stmt 0 view .LVU360
 1001 05e1 8806     		movb	%al, (%rsi)
 300:fltk-1.3.4-1/png/pngwtran.c ****          }
 1002              		.loc 1 300 13 is_stmt 1 view .LVU361
 1003              	.LBE84:
 282:fltk-1.3.4-1/png/pngwtran.c ****          {
 1004              		.loc 1 282 44 is_stmt 0 view .LVU362
 1005 05e3 4183C401 		addl	$1, %r12d
 1006              	.LVL82:
 282:fltk-1.3.4-1/png/pngwtran.c ****          {
 1007              		.loc 1 282 44 view .LVU363
 1008 05e7 4883C602 		addq	$2, %rsi
 1009              	.LVL83:
 1010              	.LBB85:
 300:fltk-1.3.4-1/png/pngwtran.c ****          }
 1011              		.loc 1 300 19 view .LVU364
 1012 05eb 8856FF   		movb	%dl, -1(%rsi)
 1013              	.LBE85:
 282:fltk-1.3.4-1/png/pngwtran.c ****          {
 1014              		.loc 1 282 43 is_stmt 1 view .LVU365
 1015              	.LVL84:
 282:fltk-1.3.4-1/png/pngwtran.c ****          {
 1016              		.loc 1 282 32 view .LVU366
 282:fltk-1.3.4-1/png/pngwtran.c ****          {
 1017              		.loc 1 282 10 is_stmt 0 view .LVU367
 1018 05ee 4539D4   		cmpl	%r10d, %r12d
 1019 05f1 0F8579FF 		jne	.L52
 1019      FFFF
 1020 05f7 E941FFFF 		jmp	.L173
 1020      FF
 1021              	.LVL85:
 1022 05fc 0F1F4000 		.p2align 4,,10
 1023              		.p2align 3
 1024              	.L29:
 282:fltk-1.3.4-1/png/pngwtran.c ****          {
 1025              		.loc 1 282 10 view .LVU368
 1026              	.LBE83:
 197:fltk-1.3.4-1/png/pngwtran.c ****          shift_dec[channels] = bit_depth->gray;
 1027              		.loc 1 197 10 is_stmt 1 view .LVU369
 197:fltk-1.3.4-1/png/pngwtran.c ****          shift_dec[channels] = bit_depth->gray;
 1028              		.loc 1 197 65 is_stmt 0 view .LVU370
 1029 0600 440FB683 		movzbl	752(%rbx), %r8d
 1029      F0020000 
 197:fltk-1.3.4-1/png/pngwtran.c ****          shift_dec[channels] = bit_depth->gray;
 1030              		.loc 1 197 54 view .LVU371
 1031 0608 4189F2   		movl	%esi, %r10d
 1032 060b 4529C2   		subl	%r8d, %r10d
 198:fltk-1.3.4-1/png/pngwtran.c ****          channels++;
 1033              		.loc 1 198 30 view .LVU372
 1034 060e 44894424 		movl	%r8d, 16(%rsp)
 1034      10
 199:fltk-1.3.4-1/png/pngwtran.c ****       }
 1035              		.loc 1 199 18 view .LVU373
 1036 0613 41B80100 		movl	$1, %r8d
 1036      0000
 197:fltk-1.3.4-1/png/pngwtran.c ****          shift_dec[channels] = bit_depth->gray;
 1037              		.loc 1 197 54 view .LVU374
 1038 0619 44891424 		movl	%r10d, (%rsp)
 198:fltk-1.3.4-1/png/pngwtran.c ****          channels++;
 1039              		.loc 1 198 10 is_stmt 1 view .LVU375
 199:fltk-1.3.4-1/png/pngwtran.c ****       }
 1040              		.loc 1 199 10 view .LVU376
 1041              	.LVL86:
 199:fltk-1.3.4-1/png/pngwtran.c ****       }
 1042              		.loc 1 199 10 is_stmt 0 view .LVU377
 1043 061d E945FDFF 		jmp	.L30
 1043      FF
 1044              	.LVL87:
 1045              		.p2align 4,,10
 1046 0622 660F1F44 		.p2align 3
 1046      0000
 1047              	.L83:
 1048              	.LBB87:
 1049              	.LBB81:
 234:fltk-1.3.4-1/png/pngwtran.c ****             {
 1050              		.loc 1 234 13 view .LVU378
 1051 0628 31C0     		xorl	%eax, %eax
 1052 062a E903FFFF 		jmp	.L37
 1052      FF
 1053              	.LVL88:
 1054 062f 90       		.p2align 4,,10
 1055              		.p2align 3
 1056              	.L86:
 234:fltk-1.3.4-1/png/pngwtran.c ****             {
 1057              		.loc 1 234 13 view .LVU379
 1058              	.LBE81:
 1059              	.LBE87:
 1060              	.LBB88:
 1061              	.LBB86:
 291:fltk-1.3.4-1/png/pngwtran.c ****             {
 1062              		.loc 1 291 13 view .LVU380
 1063 0630 31D2     		xorl	%edx, %edx
 1064 0632 31C0     		xorl	%eax, %eax
 1065              	.LVL89:
 291:fltk-1.3.4-1/png/pngwtran.c ****             {
 1066              		.loc 1 291 13 view .LVU381
 1067 0634 EBAB     		jmp	.L48
 1068              	.LVL90:
 1069 0636 662E0F1F 		.p2align 4,,10
 1069      84000000 
 1069      0000
 1070              		.p2align 3
 1071              	.L192:
 291:fltk-1.3.4-1/png/pngwtran.c ****             {
 1072              		.loc 1 291 13 view .LVU382
 1073              	.LBE86:
 1074              	.LBE88:
 1075              	.LBE94:
 1076              	.LBE99:
 1077              	.LBE106:
 1078              	.LBB107:
 1079              	.LBB47:
 155:fltk-1.3.4-1/png/pngwtran.c ****           row_info->width);
 1080              		.loc 1 155 28 view .LVU383
 1081 0640 C0E803   		shrb	$3, %al
 1082 0643 0FB6C0   		movzbl	%al, %eax
 1083 0646 480FAFC7 		imulq	%rdi, %rax
 1084 064a E95CFBFF 		jmp	.L25
 1084      FF
 1085              	.LVL91:
 1086 064f 90       		.p2align 4,,10
 1087              		.p2align 3
 1088              	.L194:
 155:fltk-1.3.4-1/png/pngwtran.c ****           row_info->width);
 1089              		.loc 1 155 28 view .LVU384
 1090              	.LBE47:
 1091              	.LBE107:
 1092              	.LBB108:
 1093              	.LBB62:
 1094              	.LBB56:
 364:fltk-1.3.4-1/png/pngwtran.c ****             png_uint_32 i;
 1095              		.loc 1 364 13 is_stmt 1 view .LVU385
 365:fltk-1.3.4-1/png/pngwtran.c ****             png_uint_32 row_width = row_info->width;
 1096              		.loc 1 365 13 view .LVU386
 366:fltk-1.3.4-1/png/pngwtran.c **** 
 1097              		.loc 1 366 13 view .LVU387
 368:fltk-1.3.4-1/png/pngwtran.c ****             {
 1098              		.loc 1 368 13 view .LVU388
 368:fltk-1.3.4-1/png/pngwtran.c ****             {
 1099              		.loc 1 368 40 view .LVU389
 368:fltk-1.3.4-1/png/pngwtran.c ****             {
 1100              		.loc 1 368 13 is_stmt 0 view .LVU390
 1101 0650 85F6     		testl	%esi, %esi
 1102 0652 0F849802 		je	.L64
 1102      0000
 1103 0658 8D56FF   		leal	-1(%rsi), %edx
 1104 065b 488D7457 		leaq	3(%rdi,%rdx,2), %rsi
 1104      03
 1105              	.LVL92:
 1106              		.p2align 4,,10
 1107              		.p2align 3
 1108              	.L63:
 1109              	.LBB57:
 370:fltk-1.3.4-1/png/pngwtran.c ****                *(dp++) = *(sp++);
 1110              		.loc 1 370 16 is_stmt 1 view .LVU391
 370:fltk-1.3.4-1/png/pngwtran.c ****                *(dp++) = *(sp++);
 1111              		.loc 1 370 25 is_stmt 0 view .LVU392
 1112 0660 0FB610   		movzbl	(%rax), %edx
 1113              	.LVL93:
 371:fltk-1.3.4-1/png/pngwtran.c ****                *(dp++) = save;
 1114              		.loc 1 371 16 is_stmt 1 view .LVU393
 371:fltk-1.3.4-1/png/pngwtran.c ****                *(dp++) = save;
 1115              		.loc 1 371 24 is_stmt 0 view .LVU394
 1116 0663 0FB64801 		movzbl	1(%rax), %ecx
 1117 0667 4883C002 		addq	$2, %rax
 1118              	.LVL94:
 371:fltk-1.3.4-1/png/pngwtran.c ****                *(dp++) = save;
 1119              		.loc 1 371 24 view .LVU395
 1120 066b 8848FE   		movb	%cl, -2(%rax)
 372:fltk-1.3.4-1/png/pngwtran.c ****             }
 1121              		.loc 1 372 16 is_stmt 1 view .LVU396
 1122              	.LVL95:
 372:fltk-1.3.4-1/png/pngwtran.c ****             }
 1123              		.loc 1 372 24 is_stmt 0 view .LVU397
 1124 066e 8850FF   		movb	%dl, -1(%rax)
 1125              	.LBE57:
 368:fltk-1.3.4-1/png/pngwtran.c ****             {
 1126              		.loc 1 368 55 is_stmt 1 view .LVU398
 368:fltk-1.3.4-1/png/pngwtran.c ****             {
 1127              		.loc 1 368 40 view .LVU399
 368:fltk-1.3.4-1/png/pngwtran.c ****             {
 1128              		.loc 1 368 13 is_stmt 0 view .LVU400
 1129 0671 4839F0   		cmpq	%rsi, %rax
 1130 0674 75EA     		jne	.L63
 1131 0676 E9ABFBFF 		jmp	.L174
 1131      FF
 1132              	.LVL96:
 1133 067b 0F1F4400 		.p2align 4,,10
 1133      00
 1134              		.p2align 3
 1135              	.L196:
 368:fltk-1.3.4-1/png/pngwtran.c ****             {
 1136              		.loc 1 368 13 view .LVU401
 1137              	.LBE56:
 1138              	.LBE62:
 1139              	.LBE108:
 1140              	.LBB109:
 1141              	.LBB73:
 1142              	.LBB69:
 460:fltk-1.3.4-1/png/pngwtran.c ****             png_uint_32 i;
 1143              		.loc 1 460 13 is_stmt 1 view .LVU402
 461:fltk-1.3.4-1/png/pngwtran.c ****             png_uint_32 row_width = row_info->width;
 1144              		.loc 1 461 13 view .LVU403
 462:fltk-1.3.4-1/png/pngwtran.c **** 
 1145              		.loc 1 462 13 view .LVU404
 464:fltk-1.3.4-1/png/pngwtran.c ****             {
 1146              		.loc 1 464 13 view .LVU405
 464:fltk-1.3.4-1/png/pngwtran.c ****             {
 1147              		.loc 1 464 40 view .LVU406
 464:fltk-1.3.4-1/png/pngwtran.c ****             {
 1148              		.loc 1 464 13 is_stmt 0 view .LVU407
 1149 0680 85C9     		testl	%ecx, %ecx
 1150 0682 0F847402 		je	.L75
 1150      0000
 1151 0688 8D51FF   		leal	-1(%rcx), %edx
 1152 068b 488D5450 		leaq	2(%rax,%rdx,2), %rdx
 1152      02
 1153              	.LVL97:
 1154              		.p2align 4,,10
 1155              		.p2align 3
 1156              	.L74:
 466:fltk-1.3.4-1/png/pngwtran.c ****                *(dp++) = (png_byte)(255 - *(sp++));
 1157              		.loc 1 466 16 is_stmt 1 view .LVU408
 467:fltk-1.3.4-1/png/pngwtran.c ****             }
 1158              		.loc 1 467 16 view .LVU409
 1159 0690 4883C002 		addq	$2, %rax
 1160              	.LVL98:
 467:fltk-1.3.4-1/png/pngwtran.c ****             }
 1161              		.loc 1 467 26 is_stmt 0 view .LVU410
 1162 0694 F650FF   		notb	-1(%rax)
 464:fltk-1.3.4-1/png/pngwtran.c ****             {
 1163              		.loc 1 464 55 is_stmt 1 view .LVU411
 464:fltk-1.3.4-1/png/pngwtran.c ****             {
 1164              		.loc 1 464 40 view .LVU412
 464:fltk-1.3.4-1/png/pngwtran.c ****             {
 1165              		.loc 1 464 13 is_stmt 0 view .LVU413
 1166 0697 4839D0   		cmpq	%rdx, %rax
 1167 069a 75F4     		jne	.L74
 1168 069c E9EEFBFF 		jmp	.L177
 1168      FF
 1169              	.LVL99:
 1170              		.p2align 4,,10
 1171 06a1 0F1F8000 		.p2align 3
 1171      000000
 1172              	.L197:
 464:fltk-1.3.4-1/png/pngwtran.c ****             {
 1173              		.loc 1 464 13 view .LVU414
 1174              	.LBE69:
 1175              	.LBE73:
 1176              	.LBE109:
 1177              	.LBB110:
 1178              	.LBB63:
 1179              	.LBB58:
 319:fltk-1.3.4-1/png/pngwtran.c ****             png_uint_32 i;
 1180              		.loc 1 319 13 is_stmt 1 view .LVU415
 320:fltk-1.3.4-1/png/pngwtran.c ****             png_uint_32 row_width = row_info->width;
 1181              		.loc 1 320 13 view .LVU416
 321:fltk-1.3.4-1/png/pngwtran.c **** 
 1182              		.loc 1 321 13 view .LVU417
 323:fltk-1.3.4-1/png/pngwtran.c ****             {
 1183              		.loc 1 323 13 view .LVU418
 323:fltk-1.3.4-1/png/pngwtran.c ****             {
 1184              		.loc 1 323 40 view .LVU419
 323:fltk-1.3.4-1/png/pngwtran.c ****             {
 1185              		.loc 1 323 13 is_stmt 0 view .LVU420
 1186 06a8 85F6     		testl	%esi, %esi
 1187 06aa 0F844002 		je	.L64
 1187      0000
 1188 06b0 8D56FF   		leal	-1(%rsi), %edx
 1189 06b3 488D7497 		leaq	5(%rdi,%rdx,4), %rsi
 1189      05
 1190              	.LVL100:
 1191 06b8 0F1F8400 		.p2align 4,,10
 1191      00000000 
 1192              		.p2align 3
 1193              	.L57:
 1194              	.LBB59:
 325:fltk-1.3.4-1/png/pngwtran.c ****                *(dp++) = *(sp++);
 1195              		.loc 1 325 16 is_stmt 1 view .LVU421
 326:fltk-1.3.4-1/png/pngwtran.c ****                *(dp++) = *(sp++);
 1196              		.loc 1 326 24 is_stmt 0 view .LVU422
 1197 06c0 0FB64801 		movzbl	1(%rax), %ecx
 325:fltk-1.3.4-1/png/pngwtran.c ****                *(dp++) = *(sp++);
 1198              		.loc 1 325 25 view .LVU423
 1199 06c4 0FB610   		movzbl	(%rax), %edx
 1200              	.LVL101:
 326:fltk-1.3.4-1/png/pngwtran.c ****                *(dp++) = *(sp++);
 1201              		.loc 1 326 16 is_stmt 1 view .LVU424
 326:fltk-1.3.4-1/png/pngwtran.c ****                *(dp++) = *(sp++);
 1202              		.loc 1 326 16 is_stmt 0 view .LVU425
 1203 06c7 4883C004 		addq	$4, %rax
 1204              	.LVL102:
 326:fltk-1.3.4-1/png/pngwtran.c ****                *(dp++) = *(sp++);
 1205              		.loc 1 326 24 view .LVU426
 1206 06cb 8848FC   		movb	%cl, -4(%rax)
 327:fltk-1.3.4-1/png/pngwtran.c ****                *(dp++) = *(sp++);
 1207              		.loc 1 327 16 is_stmt 1 view .LVU427
 1208              	.LVL103:
 327:fltk-1.3.4-1/png/pngwtran.c ****                *(dp++) = *(sp++);
 1209              		.loc 1 327 24 is_stmt 0 view .LVU428
 1210 06ce 0FB648FE 		movzbl	-2(%rax), %ecx
 1211 06d2 8848FD   		movb	%cl, -3(%rax)
 328:fltk-1.3.4-1/png/pngwtran.c ****                *(dp++) = save;
 1212              		.loc 1 328 16 is_stmt 1 view .LVU429
 1213              	.LVL104:
 328:fltk-1.3.4-1/png/pngwtran.c ****                *(dp++) = save;
 1214              		.loc 1 328 24 is_stmt 0 view .LVU430
 1215 06d5 0FB648FF 		movzbl	-1(%rax), %ecx
 329:fltk-1.3.4-1/png/pngwtran.c ****             }
 1216              		.loc 1 329 24 view .LVU431
 1217 06d9 8850FF   		movb	%dl, -1(%rax)
 328:fltk-1.3.4-1/png/pngwtran.c ****                *(dp++) = save;
 1218              		.loc 1 328 24 view .LVU432
 1219 06dc 8848FE   		movb	%cl, -2(%rax)
 329:fltk-1.3.4-1/png/pngwtran.c ****             }
 1220              		.loc 1 329 16 is_stmt 1 view .LVU433
 1221              	.LVL105:
 329:fltk-1.3.4-1/png/pngwtran.c ****             }
 1222              		.loc 1 329 16 is_stmt 0 view .LVU434
 1223              	.LBE59:
 323:fltk-1.3.4-1/png/pngwtran.c ****             {
 1224              		.loc 1 323 55 is_stmt 1 view .LVU435
 323:fltk-1.3.4-1/png/pngwtran.c ****             {
 1225              		.loc 1 323 40 view .LVU436
 323:fltk-1.3.4-1/png/pngwtran.c ****             {
 1226              		.loc 1 323 13 is_stmt 0 view .LVU437
 1227 06df 4839F0   		cmpq	%rsi, %rax
 1228 06e2 75DC     		jne	.L57
 1229 06e4 E93DFBFF 		jmp	.L174
 1229      FF
 1230              	.LVL106:
 1231 06e9 0F1F8000 		.p2align 4,,10
 1231      000000
 1232              		.p2align 3
 1233              	.L200:
 323:fltk-1.3.4-1/png/pngwtran.c ****             {
 1234              		.loc 1 323 13 view .LVU438
 1235              	.LBE58:
 1236              	.LBE63:
 1237              	.LBE110:
 1238              	.LBB111:
 1239              	.LBB100:
 1240              	.LBB95:
 1241              	.LBB89:
 249:fltk-1.3.4-1/png/pngwtran.c ****          png_uint_32 i;
 1242              		.loc 1 249 10 is_stmt 1 view .LVU439
 250:fltk-1.3.4-1/png/pngwtran.c ****          png_uint_32 istop = channels * row_info->width;
 1243              		.loc 1 250 10 view .LVU440
 251:fltk-1.3.4-1/png/pngwtran.c **** 
 1244              		.loc 1 251 10 view .LVU441
 253:fltk-1.3.4-1/png/pngwtran.c ****          {
 1245              		.loc 1 253 10 view .LVU442
 253:fltk-1.3.4-1/png/pngwtran.c ****          {
 1246              		.loc 1 253 22 view .LVU443
 253:fltk-1.3.4-1/png/pngwtran.c ****          {
 1247              		.loc 1 253 10 is_stmt 0 view .LVU444
 1248 06f0 4585D2   		testl	%r10d, %r10d
 1249 06f3 0F8476F9 		je	.L27
 1249      FFFF
 1250 06f9 458D62FF 		leal	-1(%r10), %r12d
 1251 06fd 4531DB   		xorl	%r11d, %r11d
 1252              	.LVL107:
 1253              		.p2align 4,,10
 1254              		.p2align 3
 1255              	.L47:
 1256              	.LBB90:
 256:fltk-1.3.4-1/png/pngwtran.c ****             int j;
 1257              		.loc 1 256 13 is_stmt 1 view .LVU445
 257:fltk-1.3.4-1/png/pngwtran.c ****             unsigned int v, out;
 1258              		.loc 1 257 13 view .LVU446
 258:fltk-1.3.4-1/png/pngwtran.c **** 
 1259              		.loc 1 258 13 view .LVU447
 260:fltk-1.3.4-1/png/pngwtran.c ****             out = 0;
 1260              		.loc 1 260 13 view .LVU448
 263:fltk-1.3.4-1/png/pngwtran.c ****             {
 1261              		.loc 1 263 20 is_stmt 0 view .LVU449
 1262 0700 4489D8   		movl	%r11d, %eax
 1263 0703 31D2     		xorl	%edx, %edx
 260:fltk-1.3.4-1/png/pngwtran.c ****             out = 0;
 1264              		.loc 1 260 15 view .LVU450
 1265 0705 460FB654 		movzbl	1(%rdi,%r11), %r10d
 1265      1F01
 1266              	.LVL108:
 261:fltk-1.3.4-1/png/pngwtran.c **** 
 1267              		.loc 1 261 13 is_stmt 1 view .LVU451
 263:fltk-1.3.4-1/png/pngwtran.c ****             {
 1268              		.loc 1 263 13 view .LVU452
 263:fltk-1.3.4-1/png/pngwtran.c ****             {
 1269              		.loc 1 263 20 is_stmt 0 view .LVU453
 1270 070b 41F7F0   		divl	%r8d
 263:fltk-1.3.4-1/png/pngwtran.c ****             {
 1271              		.loc 1 263 52 view .LVU454
 1272 070e 448B4C94 		movl	16(%rsp,%rdx,4), %r9d
 1272      10
 263:fltk-1.3.4-1/png/pngwtran.c ****             {
 1273              		.loc 1 263 20 view .LVU455
 1274 0713 8B0494   		movl	(%rsp,%rdx,4), %eax
 1275              	.LVL109:
 263:fltk-1.3.4-1/png/pngwtran.c ****             {
 1276              		.loc 1 263 38 is_stmt 1 view .LVU456
 263:fltk-1.3.4-1/png/pngwtran.c ****             {
 1277              		.loc 1 263 42 is_stmt 0 view .LVU457
 1278 0716 4589CD   		movl	%r9d, %r13d
 1279 0719 41F7DD   		negl	%r13d
 263:fltk-1.3.4-1/png/pngwtran.c ****             {
 1280              		.loc 1 263 13 view .LVU458
 1281 071c 4439E8   		cmpl	%r13d, %eax
 1282 071f 0F8E8300 		jle	.L84
 1282      0000
 1283 0725 89C6     		movl	%eax, %esi
 261:fltk-1.3.4-1/png/pngwtran.c **** 
 1284              		.loc 1 261 17 view .LVU459
 1285 0727 31D2     		xorl	%edx, %edx
 1286 0729 F7DE     		negl	%esi
 1287 072b EB16     		jmp	.L46
 1288              	.LVL110:
 1289 072d 0F1F00   		.p2align 4,,10
 1290              		.p2align 3
 1291              	.L203:
 266:fltk-1.3.4-1/png/pngwtran.c **** 
 1292              		.loc 1 266 19 is_stmt 1 view .LVU460
 266:fltk-1.3.4-1/png/pngwtran.c **** 
 1293              		.loc 1 266 28 is_stmt 0 view .LVU461
 1294 0730 89C1     		movl	%eax, %ecx
 263:fltk-1.3.4-1/png/pngwtran.c ****             {
 1295              		.loc 1 263 59 view .LVU462
 1296 0732 4429C8   		subl	%r9d, %eax
 1297              	.LVL111:
 263:fltk-1.3.4-1/png/pngwtran.c ****             {
 1298              		.loc 1 263 59 view .LVU463
 1299 0735 4401CE   		addl	%r9d, %esi
 266:fltk-1.3.4-1/png/pngwtran.c **** 
 1300              		.loc 1 266 28 view .LVU464
 1301 0738 41D3E6   		sall	%cl, %r14d
 266:fltk-1.3.4-1/png/pngwtran.c **** 
 1302              		.loc 1 266 23 view .LVU465
 1303 073b 4409F2   		orl	%r14d, %edx
 1304              	.LVL112:
 263:fltk-1.3.4-1/png/pngwtran.c ****             {
 1305              		.loc 1 263 57 is_stmt 1 view .LVU466
 263:fltk-1.3.4-1/png/pngwtran.c ****             {
 1306              		.loc 1 263 38 view .LVU467
 263:fltk-1.3.4-1/png/pngwtran.c ****             {
 1307              		.loc 1 263 13 is_stmt 0 view .LVU468
 1308 073e 4439E8   		cmpl	%r13d, %eax
 1309 0741 7E1A     		jle	.L43
 1310              	.LVL113:
 1311              	.L46:
 265:fltk-1.3.4-1/png/pngwtran.c ****                   out |= v << j;
 1312              		.loc 1 265 16 is_stmt 1 view .LVU469
 266:fltk-1.3.4-1/png/pngwtran.c **** 
 1313              		.loc 1 266 28 is_stmt 0 view .LVU470
 1314 0743 4589D6   		movl	%r10d, %r14d
 265:fltk-1.3.4-1/png/pngwtran.c ****                   out |= v << j;
 1315              		.loc 1 265 19 view .LVU471
 1316 0746 85C0     		testl	%eax, %eax
 1317 0748 7FE6     		jg	.L203
 269:fltk-1.3.4-1/png/pngwtran.c ****             }
 1318              		.loc 1 269 19 is_stmt 1 view .LVU472
 269:fltk-1.3.4-1/png/pngwtran.c ****             }
 1319              		.loc 1 269 28 is_stmt 0 view .LVU473
 1320 074a 89F1     		movl	%esi, %ecx
 263:fltk-1.3.4-1/png/pngwtran.c ****             {
 1321              		.loc 1 263 59 view .LVU474
 1322 074c 4429C8   		subl	%r9d, %eax
 1323              	.LVL114:
 263:fltk-1.3.4-1/png/pngwtran.c ****             {
 1324              		.loc 1 263 59 view .LVU475
 1325 074f 4401CE   		addl	%r9d, %esi
 269:fltk-1.3.4-1/png/pngwtran.c ****             }
 1326              		.loc 1 269 28 view .LVU476
 1327 0752 41D3EE   		shrl	%cl, %r14d
 269:fltk-1.3.4-1/png/pngwtran.c ****             }
 1328              		.loc 1 269 23 view .LVU477
 1329 0755 4409F2   		orl	%r14d, %edx
 1330              	.LVL115:
 263:fltk-1.3.4-1/png/pngwtran.c ****             {
 1331              		.loc 1 263 57 is_stmt 1 view .LVU478
 263:fltk-1.3.4-1/png/pngwtran.c ****             {
 1332              		.loc 1 263 38 view .LVU479
 263:fltk-1.3.4-1/png/pngwtran.c ****             {
 1333              		.loc 1 263 13 is_stmt 0 view .LVU480
 1334 0758 4439E8   		cmpl	%r13d, %eax
 1335 075b 7FE6     		jg	.L46
 1336              	.LVL116:
 1337              	.L43:
 272:fltk-1.3.4-1/png/pngwtran.c ****          }
 1338              		.loc 1 272 13 is_stmt 1 view .LVU481
 272:fltk-1.3.4-1/png/pngwtran.c ****          }
 1339              		.loc 1 272 17 is_stmt 0 view .LVU482
 1340 075d 4288541F 		movb	%dl, 1(%rdi,%r11)
 1340      01
 1341              	.LBE90:
 253:fltk-1.3.4-1/png/pngwtran.c ****          {
 1342              		.loc 1 253 33 is_stmt 1 view .LVU483
 1343              	.LVL117:
 253:fltk-1.3.4-1/png/pngwtran.c ****          {
 1344              		.loc 1 253 22 view .LVU484
 1345 0762 498D4301 		leaq	1(%r11), %rax
 1346              	.LVL118:
 253:fltk-1.3.4-1/png/pngwtran.c ****          {
 1347              		.loc 1 253 10 is_stmt 0 view .LVU485
 1348 0766 4D39DC   		cmpq	%r11, %r12
 1349 0769 0F84CEFD 		je	.L173
 1349      FFFF
 1350 076f 4989C3   		movq	%rax, %r11
 1351              	.LVL119:
 253:fltk-1.3.4-1/png/pngwtran.c ****          {
 1352              		.loc 1 253 10 view .LVU486
 1353 0772 EB8C     		jmp	.L47
 1354              	.LVL120:
 1355              		.p2align 4,,10
 1356 0774 0F1F4000 		.p2align 3
 1357              	.L198:
 253:fltk-1.3.4-1/png/pngwtran.c ****          {
 1358              		.loc 1 253 10 view .LVU487
 1359              	.LBE89:
 1360              	.LBE95:
 1361              	.LBE100:
 1362              	.LBE111:
 1363              	.LBB112:
 1364              	.LBB74:
 1365              	.LBB70:
 413:fltk-1.3.4-1/png/pngwtran.c ****             png_uint_32 i;
 1366              		.loc 1 413 13 is_stmt 1 view .LVU488
 414:fltk-1.3.4-1/png/pngwtran.c ****             png_uint_32 row_width = row_info->width;
 1367              		.loc 1 414 13 view .LVU489
 415:fltk-1.3.4-1/png/pngwtran.c **** 
 1368              		.loc 1 415 13 view .LVU490
 417:fltk-1.3.4-1/png/pngwtran.c ****             {
 1369              		.loc 1 417 13 view .LVU491
 417:fltk-1.3.4-1/png/pngwtran.c ****             {
 1370              		.loc 1 417 40 view .LVU492
 417:fltk-1.3.4-1/png/pngwtran.c ****             {
 1371              		.loc 1 417 13 is_stmt 0 view .LVU493
 1372 0778 85C9     		testl	%ecx, %ecx
 1373 077a 0F847C01 		je	.L75
 1373      0000
 1374 0780 8D51FF   		leal	-1(%rcx), %edx
 1375 0783 488D5490 		leaq	4(%rax,%rdx,4), %rdx
 1375      04
 1376              	.LVL121:
 1377 0788 0F1F8400 		.p2align 4,,10
 1377      00000000 
 1378              		.p2align 3
 1379              	.L69:
 424:fltk-1.3.4-1/png/pngwtran.c ****                *(dp++) = (png_byte)(255 - *(sp++));
 1380              		.loc 1 424 16 is_stmt 1 view .LVU494
 424:fltk-1.3.4-1/png/pngwtran.c ****                *(dp++) = (png_byte)(255 - *(sp++));
 1381              		.loc 1 424 23 view .LVU495
 425:fltk-1.3.4-1/png/pngwtran.c ****             }
 1382              		.loc 1 425 16 view .LVU496
 1383 0790 4883C004 		addq	$4, %rax
 1384              	.LVL122:
 425:fltk-1.3.4-1/png/pngwtran.c ****             }
 1385              		.loc 1 425 26 is_stmt 0 view .LVU497
 1386 0794 F650FF   		notb	-1(%rax)
 417:fltk-1.3.4-1/png/pngwtran.c ****             {
 1387              		.loc 1 417 55 is_stmt 1 view .LVU498
 417:fltk-1.3.4-1/png/pngwtran.c ****             {
 1388              		.loc 1 417 40 view .LVU499
 417:fltk-1.3.4-1/png/pngwtran.c ****             {
 1389              		.loc 1 417 13 is_stmt 0 view .LVU500
 1390 0797 4839D0   		cmpq	%rdx, %rax
 1391 079a 75F4     		jne	.L69
 1392 079c E9EEFAFF 		jmp	.L177
 1392      FF
 1393              	.LVL123:
 1394              		.p2align 4,,10
 1395 07a1 0F1F8000 		.p2align 3
 1395      000000
 1396              	.L84:
 417:fltk-1.3.4-1/png/pngwtran.c ****             {
 1397              		.loc 1 417 13 view .LVU501
 1398              	.LBE70:
 1399              	.LBE74:
 1400              	.LBE112:
 1401              	.LBB113:
 1402              	.LBB101:
 1403              	.LBB96:
 1404              	.LBB92:
 1405              	.LBB91:
 263:fltk-1.3.4-1/png/pngwtran.c ****             {
 1406              		.loc 1 263 13 view .LVU502
 1407 07a8 31D2     		xorl	%edx, %edx
 1408 07aa EBB1     		jmp	.L43
 1409              	.LVL124:
 1410 07ac 0F1F4000 		.p2align 4,,10
 1411              		.p2align 3
 1412              	.L191:
 263:fltk-1.3.4-1/png/pngwtran.c ****             {
 1413              		.loc 1 263 13 view .LVU503
 1414              	.LBE91:
 1415              	.LBE92:
 1416              	.LBE96:
 1417              	.LBE101:
 1418              	.LBE113:
 1419              	.LBB114:
 1420              	.LBB48:
 1421              	.LBB36:
  36:fltk-1.3.4-1/png/pngwtran.c ****             int mask, v;
 1422              		.loc 1 36 13 is_stmt 1 view .LVU504
  37:fltk-1.3.4-1/png/pngwtran.c ****             png_uint_32 i;
 1423              		.loc 1 37 13 view .LVU505
  38:fltk-1.3.4-1/png/pngwtran.c ****             png_uint_32 row_width = row_info->width;
 1424              		.loc 1 38 13 view .LVU506
  39:fltk-1.3.4-1/png/pngwtran.c **** 
 1425              		.loc 1 39 13 view .LVU507
  41:fltk-1.3.4-1/png/pngwtran.c ****             dp = row;
 1426              		.loc 1 41 13 view .LVU508
  42:fltk-1.3.4-1/png/pngwtran.c ****             mask = 0x80;
 1427              		.loc 1 42 13 view .LVU509
  43:fltk-1.3.4-1/png/pngwtran.c ****             v = 0;
 1428              		.loc 1 43 13 view .LVU510
  44:fltk-1.3.4-1/png/pngwtran.c **** 
 1429              		.loc 1 44 13 view .LVU511
  46:fltk-1.3.4-1/png/pngwtran.c ****             {
 1430              		.loc 1 46 13 view .LVU512
  46:fltk-1.3.4-1/png/pngwtran.c ****             {
 1431              		.loc 1 46 25 view .LVU513
  46:fltk-1.3.4-1/png/pngwtran.c ****             {
 1432              		.loc 1 46 13 is_stmt 0 view .LVU514
 1433 07b0 85FF     		testl	%edi, %edi
 1434 07b2 0F84D3F9 		je	.L10
 1434      FFFF
 1435 07b8 8D57FF   		leal	-1(%rdi), %edx
  43:fltk-1.3.4-1/png/pngwtran.c ****             v = 0;
 1436              		.loc 1 43 18 view .LVU515
 1437 07bb B9800000 		movl	$128, %ecx
 1437      00
 1438 07c0 4D8D4C10 		leaq	2(%r8,%rdx), %r9
 1438      02
  42:fltk-1.3.4-1/png/pngwtran.c ****             mask = 0x80;
 1439              		.loc 1 42 16 view .LVU516
 1440 07c5 4989F0   		movq	%rsi, %r8
 1441              	.LVL125:
  44:fltk-1.3.4-1/png/pngwtran.c **** 
 1442              		.loc 1 44 15 view .LVU517
 1443 07c8 31D2     		xorl	%edx, %edx
 1444 07ca EB0F     		jmp	.L14
 1445              	.LVL126:
 1446 07cc 0F1F4000 		.p2align 4,,10
 1447              		.p2align 3
 1448              	.L205:
  54:fltk-1.3.4-1/png/pngwtran.c **** 
 1449              		.loc 1 54 19 is_stmt 1 view .LVU518
  54:fltk-1.3.4-1/png/pngwtran.c **** 
 1450              		.loc 1 54 24 is_stmt 0 view .LVU519
 1451 07d0 D1F9     		sarl	%ecx
 1452              	.LVL127:
 1453              	.L13:
  46:fltk-1.3.4-1/png/pngwtran.c ****             {
 1454              		.loc 1 46 40 is_stmt 1 view .LVU520
  46:fltk-1.3.4-1/png/pngwtran.c ****             {
 1455              		.loc 1 46 25 view .LVU521
  46:fltk-1.3.4-1/png/pngwtran.c ****             {
 1456              		.loc 1 46 13 is_stmt 0 view .LVU522
 1457 07d2 4C39CE   		cmpq	%r9, %rsi
 1458 07d5 0F84F500 		je	.L204
 1458      0000
 1459              	.LVL128:
 1460              	.L14:
  48:fltk-1.3.4-1/png/pngwtran.c ****                   v |= mask;
 1461              		.loc 1 48 16 is_stmt 1 view .LVU523
  49:fltk-1.3.4-1/png/pngwtran.c **** 
 1462              		.loc 1 49 21 is_stmt 0 view .LVU524
 1463 07db 89D7     		movl	%edx, %edi
 1464 07dd 09CF     		orl	%ecx, %edi
 1465 07df 803E00   		cmpb	$0, (%rsi)
 1466 07e2 0F45D7   		cmovne	%edi, %edx
 1467              	.LVL129:
  51:fltk-1.3.4-1/png/pngwtran.c **** 
 1468              		.loc 1 51 16 is_stmt 1 view .LVU525
  51:fltk-1.3.4-1/png/pngwtran.c **** 
 1469              		.loc 1 51 18 is_stmt 0 view .LVU526
 1470 07e5 4883C601 		addq	$1, %rsi
 1471              	.LVL130:
  53:fltk-1.3.4-1/png/pngwtran.c ****                   mask >>= 1;
 1472              		.loc 1 53 16 is_stmt 1 view .LVU527
  53:fltk-1.3.4-1/png/pngwtran.c ****                   mask >>= 1;
 1473              		.loc 1 53 19 is_stmt 0 view .LVU528
 1474 07e9 83F901   		cmpl	$1, %ecx
 1475 07ec 7FE2     		jg	.L205
  58:fltk-1.3.4-1/png/pngwtran.c ****                   *dp = (png_byte)v;
 1476              		.loc 1 58 19 is_stmt 1 view .LVU529
 1477              	.LVL131:
  59:fltk-1.3.4-1/png/pngwtran.c ****                   dp++;
 1478              		.loc 1 59 19 view .LVU530
  59:fltk-1.3.4-1/png/pngwtran.c ****                   dp++;
 1479              		.loc 1 59 25 is_stmt 0 view .LVU531
 1480 07ee 418810   		movb	%dl, (%r8)
  60:fltk-1.3.4-1/png/pngwtran.c ****                   v = 0;
 1481              		.loc 1 60 19 is_stmt 1 view .LVU532
  58:fltk-1.3.4-1/png/pngwtran.c ****                   *dp = (png_byte)v;
 1482              		.loc 1 58 24 is_stmt 0 view .LVU533
 1483 07f1 B9800000 		movl	$128, %ecx
 1483      00
  60:fltk-1.3.4-1/png/pngwtran.c ****                   v = 0;
 1484              		.loc 1 60 21 view .LVU534
 1485 07f6 4983C001 		addq	$1, %r8
 1486              	.LVL132:
  61:fltk-1.3.4-1/png/pngwtran.c ****                }
 1487              		.loc 1 61 19 is_stmt 1 view .LVU535
  61:fltk-1.3.4-1/png/pngwtran.c ****                }
 1488              		.loc 1 61 21 is_stmt 0 view .LVU536
 1489 07fa 31D2     		xorl	%edx, %edx
 1490 07fc EBD4     		jmp	.L13
 1491              	.LVL133:
 1492 07fe 6690     		.p2align 4,,10
 1493              		.p2align 3
 1494              	.L9:
  61:fltk-1.3.4-1/png/pngwtran.c ****                }
 1495              		.loc 1 61 21 view .LVU537
 1496              	.LBE36:
 1497              	.LBB37:
 112:fltk-1.3.4-1/png/pngwtran.c ****             int shift, v;
 1498              		.loc 1 112 13 is_stmt 1 view .LVU538
 113:fltk-1.3.4-1/png/pngwtran.c ****             png_uint_32 i;
 1499              		.loc 1 113 13 view .LVU539
 114:fltk-1.3.4-1/png/pngwtran.c ****             png_uint_32 row_width = row_info->width;
 1500              		.loc 1 114 13 view .LVU540
 115:fltk-1.3.4-1/png/pngwtran.c **** 
 1501              		.loc 1 115 13 view .LVU541
 117:fltk-1.3.4-1/png/pngwtran.c ****             dp = row;
 1502              		.loc 1 117 13 view .LVU542
 118:fltk-1.3.4-1/png/pngwtran.c ****             shift = 4;
 1503              		.loc 1 118 13 view .LVU543
 119:fltk-1.3.4-1/png/pngwtran.c ****             v = 0;
 1504              		.loc 1 119 13 view .LVU544
 120:fltk-1.3.4-1/png/pngwtran.c **** 
 1505              		.loc 1 120 13 view .LVU545
 122:fltk-1.3.4-1/png/pngwtran.c ****             {
 1506              		.loc 1 122 13 view .LVU546
 122:fltk-1.3.4-1/png/pngwtran.c ****             {
 1507              		.loc 1 122 25 view .LVU547
 122:fltk-1.3.4-1/png/pngwtran.c ****             {
 1508              		.loc 1 122 13 is_stmt 0 view .LVU548
 1509 0800 85FF     		testl	%edi, %edi
 1510 0802 0F8483F9 		je	.L10
 1510      FFFF
 1511 0808 8D57FF   		leal	-1(%rdi), %edx
 119:fltk-1.3.4-1/png/pngwtran.c ****             v = 0;
 1512              		.loc 1 119 19 view .LVU549
 1513 080b B9040000 		movl	$4, %ecx
 1513      00
 117:fltk-1.3.4-1/png/pngwtran.c ****             dp = row;
 1514              		.loc 1 117 16 view .LVU550
 1515 0810 4889F7   		movq	%rsi, %rdi
 1516 0813 4D8D4C10 		leaq	2(%r8,%rdx), %r9
 1516      02
 120:fltk-1.3.4-1/png/pngwtran.c **** 
 1517              		.loc 1 120 15 view .LVU551
 1518 0818 4531C0   		xorl	%r8d, %r8d
 1519              	.LVL134:
 120:fltk-1.3.4-1/png/pngwtran.c **** 
 1520              		.loc 1 120 15 view .LVU552
 1521 081b EB1B     		jmp	.L22
 1522              	.LVL135:
 1523 081d 0F1F00   		.p2align 4,,10
 1524              		.p2align 3
 1525              	.L207:
 1526              	.LBB38:
 131:fltk-1.3.4-1/png/pngwtran.c ****                   *dp = (png_byte)v;
 1527              		.loc 1 131 19 is_stmt 1 view .LVU553
 132:fltk-1.3.4-1/png/pngwtran.c ****                   dp++;
 1528              		.loc 1 132 19 view .LVU554
 132:fltk-1.3.4-1/png/pngwtran.c ****                   dp++;
 1529              		.loc 1 132 25 is_stmt 0 view .LVU555
 1530 0820 448806   		movb	%r8b, (%rsi)
 1531              	.LVL136:
 133:fltk-1.3.4-1/png/pngwtran.c ****                   v = 0;
 1532              		.loc 1 133 19 is_stmt 1 view .LVU556
 131:fltk-1.3.4-1/png/pngwtran.c ****                   *dp = (png_byte)v;
 1533              		.loc 1 131 25 is_stmt 0 view .LVU557
 1534 0823 B9040000 		movl	$4, %ecx
 1534      00
 133:fltk-1.3.4-1/png/pngwtran.c ****                   v = 0;
 1535              		.loc 1 133 21 view .LVU558
 1536 0828 4883C601 		addq	$1, %rsi
 1537              	.LVL137:
 134:fltk-1.3.4-1/png/pngwtran.c ****                }
 1538              		.loc 1 134 19 is_stmt 1 view .LVU559
 134:fltk-1.3.4-1/png/pngwtran.c ****                }
 1539              		.loc 1 134 21 is_stmt 0 view .LVU560
 1540 082c 4531C0   		xorl	%r8d, %r8d
 1541              	.LVL138:
 1542              	.L21:
 140:fltk-1.3.4-1/png/pngwtran.c ****             }
 1543              		.loc 1 140 16 is_stmt 1 view .LVU561
 140:fltk-1.3.4-1/png/pngwtran.c ****             }
 1544              		.loc 1 140 18 is_stmt 0 view .LVU562
 1545 082f 4883C701 		addq	$1, %rdi
 1546              	.LVL139:
 140:fltk-1.3.4-1/png/pngwtran.c ****             }
 1547              		.loc 1 140 18 view .LVU563
 1548              	.LBE38:
 122:fltk-1.3.4-1/png/pngwtran.c ****             {
 1549              		.loc 1 122 40 is_stmt 1 view .LVU564
 122:fltk-1.3.4-1/png/pngwtran.c ****             {
 1550              		.loc 1 122 25 view .LVU565
 122:fltk-1.3.4-1/png/pngwtran.c ****             {
 1551              		.loc 1 122 13 is_stmt 0 view .LVU566
 1552 0833 4939F9   		cmpq	%rdi, %r9
 1553 0836 7468     		je	.L206
 1554              	.LVL140:
 1555              	.L22:
 1556              	.LBB39:
 124:fltk-1.3.4-1/png/pngwtran.c **** 
 1557              		.loc 1 124 16 is_stmt 1 view .LVU567
 126:fltk-1.3.4-1/png/pngwtran.c ****                v |= (value << shift);
 1558              		.loc 1 126 16 view .LVU568
 127:fltk-1.3.4-1/png/pngwtran.c **** 
 1559              		.loc 1 127 16 view .LVU569
 126:fltk-1.3.4-1/png/pngwtran.c ****                v |= (value << shift);
 1560              		.loc 1 126 22 is_stmt 0 view .LVU570
 1561 0838 0FB617   		movzbl	(%rdi), %edx
 127:fltk-1.3.4-1/png/pngwtran.c **** 
 1562              		.loc 1 127 28 view .LVU571
 1563 083b 83E20F   		andl	$15, %edx
 1564 083e D3E2     		sall	%cl, %edx
 127:fltk-1.3.4-1/png/pngwtran.c **** 
 1565              		.loc 1 127 18 view .LVU572
 1566 0840 4109D0   		orl	%edx, %r8d
 1567              	.LVL141:
 129:fltk-1.3.4-1/png/pngwtran.c ****                {
 1568              		.loc 1 129 16 is_stmt 1 view .LVU573
 129:fltk-1.3.4-1/png/pngwtran.c ****                {
 1569              		.loc 1 129 19 is_stmt 0 view .LVU574
 1570 0843 85C9     		testl	%ecx, %ecx
 1571 0845 74D9     		je	.L207
 138:fltk-1.3.4-1/png/pngwtran.c **** 
 1572              		.loc 1 138 19 is_stmt 1 view .LVU575
 138:fltk-1.3.4-1/png/pngwtran.c **** 
 1573              		.loc 1 138 25 is_stmt 0 view .LVU576
 1574 0847 83E904   		subl	$4, %ecx
 1575              	.LVL142:
 138:fltk-1.3.4-1/png/pngwtran.c **** 
 1576              		.loc 1 138 25 view .LVU577
 1577 084a EBE3     		jmp	.L21
 1578              	.LVL143:
 1579 084c 0F1F4000 		.p2align 4,,10
 1580              		.p2align 3
 1581              	.L8:
 138:fltk-1.3.4-1/png/pngwtran.c **** 
 1582              		.loc 1 138 25 view .LVU578
 1583              	.LBE39:
 1584              	.LBE37:
 1585              	.LBB40:
  73:fltk-1.3.4-1/png/pngwtran.c ****             int shift, v;
 1586              		.loc 1 73 13 is_stmt 1 view .LVU579
  74:fltk-1.3.4-1/png/pngwtran.c ****             png_uint_32 i;
 1587              		.loc 1 74 13 view .LVU580
  75:fltk-1.3.4-1/png/pngwtran.c ****             png_uint_32 row_width = row_info->width;
 1588              		.loc 1 75 13 view .LVU581
  76:fltk-1.3.4-1/png/pngwtran.c **** 
 1589              		.loc 1 76 13 view .LVU582
  78:fltk-1.3.4-1/png/pngwtran.c ****             dp = row;
 1590              		.loc 1 78 13 view .LVU583
  79:fltk-1.3.4-1/png/pngwtran.c ****             shift = 6;
 1591              		.loc 1 79 13 view .LVU584
  80:fltk-1.3.4-1/png/pngwtran.c ****             v = 0;
 1592              		.loc 1 80 13 view .LVU585
  81:fltk-1.3.4-1/png/pngwtran.c **** 
 1593              		.loc 1 81 13 view .LVU586
  83:fltk-1.3.4-1/png/pngwtran.c ****             {
 1594              		.loc 1 83 13 view .LVU587
  83:fltk-1.3.4-1/png/pngwtran.c ****             {
 1595              		.loc 1 83 25 view .LVU588
  83:fltk-1.3.4-1/png/pngwtran.c ****             {
 1596              		.loc 1 83 13 is_stmt 0 view .LVU589
 1597 0850 85FF     		testl	%edi, %edi
 1598 0852 0F8433F9 		je	.L10
 1598      FFFF
 1599 0858 8D57FF   		leal	-1(%rdi), %edx
  80:fltk-1.3.4-1/png/pngwtran.c ****             v = 0;
 1600              		.loc 1 80 19 view .LVU590
 1601 085b B9060000 		movl	$6, %ecx
 1601      00
  78:fltk-1.3.4-1/png/pngwtran.c ****             dp = row;
 1602              		.loc 1 78 16 view .LVU591
 1603 0860 4889F7   		movq	%rsi, %rdi
 1604 0863 4D8D4C10 		leaq	2(%r8,%rdx), %r9
 1604      02
  81:fltk-1.3.4-1/png/pngwtran.c **** 
 1605              		.loc 1 81 15 view .LVU592
 1606 0868 4531C0   		xorl	%r8d, %r8d
 1607              	.LVL144:
  81:fltk-1.3.4-1/png/pngwtran.c **** 
 1608              		.loc 1 81 15 view .LVU593
 1609 086b EB1B     		jmp	.L18
 1610              	.LVL145:
 1611 086d 0F1F00   		.p2align 4,,10
 1612              		.p2align 3
 1613              	.L209:
 1614              	.LBB41:
  92:fltk-1.3.4-1/png/pngwtran.c ****                   *dp = (png_byte)v;
 1615              		.loc 1 92 19 is_stmt 1 view .LVU594
  93:fltk-1.3.4-1/png/pngwtran.c ****                   dp++;
 1616              		.loc 1 93 19 view .LVU595
  93:fltk-1.3.4-1/png/pngwtran.c ****                   dp++;
 1617              		.loc 1 93 25 is_stmt 0 view .LVU596
 1618 0870 448806   		movb	%r8b, (%rsi)
 1619              	.LVL146:
  94:fltk-1.3.4-1/png/pngwtran.c ****                   v = 0;
 1620              		.loc 1 94 19 is_stmt 1 view .LVU597
  92:fltk-1.3.4-1/png/pngwtran.c ****                   *dp = (png_byte)v;
 1621              		.loc 1 92 25 is_stmt 0 view .LVU598
 1622 0873 B9060000 		movl	$6, %ecx
 1622      00
  94:fltk-1.3.4-1/png/pngwtran.c ****                   v = 0;
 1623              		.loc 1 94 21 view .LVU599
 1624 0878 4883C601 		addq	$1, %rsi
 1625              	.LVL147:
  95:fltk-1.3.4-1/png/pngwtran.c ****                }
 1626              		.loc 1 95 19 is_stmt 1 view .LVU600
  95:fltk-1.3.4-1/png/pngwtran.c ****                }
 1627              		.loc 1 95 21 is_stmt 0 view .LVU601
 1628 087c 4531C0   		xorl	%r8d, %r8d
 1629              	.LVL148:
 1630              	.L17:
 101:fltk-1.3.4-1/png/pngwtran.c ****             }
 1631              		.loc 1 101 16 is_stmt 1 view .LVU602
 101:fltk-1.3.4-1/png/pngwtran.c ****             }
 1632              		.loc 1 101 18 is_stmt 0 view .LVU603
 1633 087f 4883C701 		addq	$1, %rdi
 1634              	.LVL149:
 101:fltk-1.3.4-1/png/pngwtran.c ****             }
 1635              		.loc 1 101 18 view .LVU604
 1636              	.LBE41:
  83:fltk-1.3.4-1/png/pngwtran.c ****             {
 1637              		.loc 1 83 40 is_stmt 1 view .LVU605
  83:fltk-1.3.4-1/png/pngwtran.c ****             {
 1638              		.loc 1 83 25 view .LVU606
  83:fltk-1.3.4-1/png/pngwtran.c ****             {
 1639              		.loc 1 83 13 is_stmt 0 view .LVU607
 1640 0883 4C39CF   		cmpq	%r9, %rdi
 1641 0886 7438     		je	.L208
 1642              	.LVL150:
 1643              	.L18:
 1644              	.LBB42:
  85:fltk-1.3.4-1/png/pngwtran.c **** 
 1645              		.loc 1 85 16 is_stmt 1 view .LVU608
  87:fltk-1.3.4-1/png/pngwtran.c ****                v |= (value << shift);
 1646              		.loc 1 87 16 view .LVU609
  88:fltk-1.3.4-1/png/pngwtran.c **** 
 1647              		.loc 1 88 16 view .LVU610
  87:fltk-1.3.4-1/png/pngwtran.c ****                v |= (value << shift);
 1648              		.loc 1 87 22 is_stmt 0 view .LVU611
 1649 0888 0FB617   		movzbl	(%rdi), %edx
  88:fltk-1.3.4-1/png/pngwtran.c **** 
 1650              		.loc 1 88 28 view .LVU612
 1651 088b 83E203   		andl	$3, %edx
 1652 088e D3E2     		sall	%cl, %edx
  88:fltk-1.3.4-1/png/pngwtran.c **** 
 1653              		.loc 1 88 18 view .LVU613
 1654 0890 4109D0   		orl	%edx, %r8d
 1655              	.LVL151:
  90:fltk-1.3.4-1/png/pngwtran.c ****                {
 1656              		.loc 1 90 16 is_stmt 1 view .LVU614
  90:fltk-1.3.4-1/png/pngwtran.c ****                {
 1657              		.loc 1 90 19 is_stmt 0 view .LVU615
 1658 0893 85C9     		testl	%ecx, %ecx
 1659 0895 74D9     		je	.L209
  99:fltk-1.3.4-1/png/pngwtran.c **** 
 1660              		.loc 1 99 19 is_stmt 1 view .LVU616
  99:fltk-1.3.4-1/png/pngwtran.c **** 
 1661              		.loc 1 99 25 is_stmt 0 view .LVU617
 1662 0897 83E902   		subl	$2, %ecx
 1663              	.LVL152:
  99:fltk-1.3.4-1/png/pngwtran.c **** 
 1664              		.loc 1 99 25 view .LVU618
 1665 089a EBE3     		jmp	.L17
 1666              	.LVL153:
 1667 089c 0F1F4000 		.p2align 4,,10
 1668              		.p2align 3
 1669              	.L206:
  99:fltk-1.3.4-1/png/pngwtran.c **** 
 1670              		.loc 1 99 25 view .LVU619
 1671              	.LBE42:
 1672              	.LBE40:
 1673              	.LBB43:
 143:fltk-1.3.4-1/png/pngwtran.c ****                *dp = (png_byte)v;
 1674              		.loc 1 143 13 is_stmt 1 view .LVU620
 143:fltk-1.3.4-1/png/pngwtran.c ****                *dp = (png_byte)v;
 1675              		.loc 1 143 16 is_stmt 0 view .LVU621
 1676 08a0 83F904   		cmpl	$4, %ecx
 1677 08a3 7403     		je	.L172
 1678              	.LVL154:
 1679              	.L23:
 144:fltk-1.3.4-1/png/pngwtran.c **** 
 1680              		.loc 1 144 16 is_stmt 1 view .LVU622
 144:fltk-1.3.4-1/png/pngwtran.c **** 
 1681              		.loc 1 144 22 is_stmt 0 view .LVU623
 1682 08a5 448806   		movb	%r8b, (%rsi)
 1683              	.L172:
 1684 08a8 8B933401 		movl	308(%rbx), %edx
 1684      0000
 1685 08ae 8B7D00   		movl	0(%rbp), %edi
 1686 08b1 89D1     		movl	%edx, %ecx
 1687 08b3 E9D3F8FF 		jmp	.L10
 1687      FF
 1688              	.LVL155:
 1689 08b8 0F1F8400 		.p2align 4,,10
 1689      00000000 
 1690              		.p2align 3
 1691              	.L208:
 144:fltk-1.3.4-1/png/pngwtran.c **** 
 1692              		.loc 1 144 22 view .LVU624
 1693              	.LBE43:
 1694              	.LBB44:
 104:fltk-1.3.4-1/png/pngwtran.c ****                *dp = (png_byte)v;
 1695              		.loc 1 104 13 is_stmt 1 view .LVU625
 104:fltk-1.3.4-1/png/pngwtran.c ****                *dp = (png_byte)v;
 1696              		.loc 1 104 16 is_stmt 0 view .LVU626
 1697 08c0 83F906   		cmpl	$6, %ecx
 1698 08c3 75E0     		jne	.L23
 1699 08c5 EBE1     		jmp	.L172
 1700              	.LVL156:
 1701 08c7 660F1F84 		.p2align 4,,10
 1701      00000000 
 1701      00
 1702              		.p2align 3
 1703              	.L204:
 104:fltk-1.3.4-1/png/pngwtran.c ****                *dp = (png_byte)v;
 1704              		.loc 1 104 16 view .LVU627
 1705              	.LBE44:
 1706              	.LBB45:
  65:fltk-1.3.4-1/png/pngwtran.c ****                *dp = (png_byte)v;
 1707              		.loc 1 65 13 is_stmt 1 view .LVU628
  65:fltk-1.3.4-1/png/pngwtran.c ****                *dp = (png_byte)v;
 1708              		.loc 1 65 16 is_stmt 0 view .LVU629
 1709 08d0 81F98000 		cmpl	$128, %ecx
 1709      0000
 1710 08d6 74D0     		je	.L172
  66:fltk-1.3.4-1/png/pngwtran.c **** 
 1711              		.loc 1 66 16 is_stmt 1 view .LVU630
  66:fltk-1.3.4-1/png/pngwtran.c **** 
 1712              		.loc 1 66 22 is_stmt 0 view .LVU631
 1713 08d8 418810   		movb	%dl, (%r8)
 1714 08db 8B933401 		movl	308(%rbx), %edx
 1714      0000
 1715              	.LVL157:
  66:fltk-1.3.4-1/png/pngwtran.c **** 
 1716              		.loc 1 66 22 view .LVU632
 1717 08e1 8B7D00   		movl	0(%rbp), %edi
 1718 08e4 89D1     		movl	%edx, %ecx
 1719              	.LVL158:
  66:fltk-1.3.4-1/png/pngwtran.c **** 
 1720              		.loc 1 66 22 view .LVU633
 1721 08e6 E9A0F8FF 		jmp	.L10
 1721      FF
 1722              	.LVL159:
 1723 08eb 0F1F4400 		.p2align 4,,10
 1723      00
 1724              		.p2align 3
 1725              	.L64:
  66:fltk-1.3.4-1/png/pngwtran.c **** 
 1726              		.loc 1 66 22 view .LVU634
 1727              	.LBE45:
 1728              	.LBE48:
 1729              	.LBE114:
 559:fltk-1.3.4-1/png/pngwtran.c ****       png_do_write_invert_alpha(row_info, png_ptr->row_buf + 1);
 1730              		.loc 1 559 4 is_stmt 1 view .LVU635
 559:fltk-1.3.4-1/png/pngwtran.c ****       png_do_write_invert_alpha(row_info, png_ptr->row_buf + 1);
 1731              		.loc 1 559 7 is_stmt 0 view .LVU636
 1732 08f0 F7C20000 		testl	$524288, %edx
 1732      0800
 1733 08f6 0F848BF7 		je	.L60
 1733      FFFF
 1734              	.L75:
 559:fltk-1.3.4-1/png/pngwtran.c ****       png_do_write_invert_alpha(row_info, png_ptr->row_buf + 1);
 1735              		.loc 1 559 7 view .LVU637
 1736 08fc 89D1     		movl	%edx, %ecx
 1737 08fe E984F7FF 		jmp	.L60
 1737      FF
 1738              	.LVL160:
 1739              	.L178:
 1740              		.loc 1 572 1 view .LVU638
 1741 0903 E8000000 		call	__stack_chk_fail@PLT
 1741      00
 1742              	.LVL161:
 1743              		.cfi_endproc
 1744              	.LFE45:
 1746              		.text
 1747              	.Letext0:
 1748              		.file 2 "/usr/lib/gcc/x86_64-linux-gnu/9/include/stddef.h"
 1749              		.file 3 "/usr/include/x86_64-linux-gnu/bits/types.h"
 1750              		.file 4 "/usr/include/x86_64-linux-gnu/bits/types/struct_FILE.h"
 1751              		.file 5 "/usr/include/x86_64-linux-gnu/bits/types/FILE.h"
 1752              		.file 6 "/usr/include/stdio.h"
 1753              		.file 7 "/usr/include/x86_64-linux-gnu/bits/setjmp.h"
 1754              		.file 8 "/usr/include/x86_64-linux-gnu/bits/types/__sigset_t.h"
 1755              		.file 9 "/usr/include/setjmp.h"
 1756              		.file 10 "/usr/include/time.h"
 1757              		.file 11 "fltk-1.3.4-1/png/pngconf.h"
 1758              		.file 12 "fltk-1.3.4-1/png/png.h"
 1759              		.file 13 "fltk-1.3.4-1/png/pngstruct.h"
 1760              		.file 14 "fltk-1.3.4-1/png/pnginfo.h"
 1761              		.file 15 "/usr/include/zconf.h"
 1762              		.file 16 "/usr/include/unistd.h"
 1763              		.file 17 "/usr/include/x86_64-linux-gnu/bits/getopt_core.h"
 1764              		.file 18 "/usr/include/zlib.h"
 1765              		.file 19 "fltk-1.3.4-1/png/pngpriv.h"
 23361              		.section	.note.gnu.property,"a"
 23362              		.align 8
 23363 0000 04000000 		.long	 1f - 0f
 23364 0004 10000000 		.long	 4f - 1f
 23365 0008 05000000 		.long	 5
 23366              	0:
 23367 000c 474E5500 		.string	 "GNU"
 23368              	1:
 23369              		.align 8
 23370 0010 020000C0 		.long	 0xc0000002
 23371 0014 04000000 		.long	 3f - 2f
 23372              	2:
 23373 0018 03000000 		.long	 0x3
 23374              	3:
 23375 001c 00000000 		.align 8
 23376              	4: