   1              		.file	"pngwio.c"
   2              		.text
   3              	.Ltext0:
   4              		.section	.text.png_default_flush,"ax",@progbits
   5              		.p2align 4
   6              		.globl	png_default_flush
   8              	png_default_flush:
   9              	.LVL0:
  10              	.LFB44:
  11              		.file 1 "fltk-1.3.4-1/png/pngwio.c"
   1:fltk-1.3.4-1/png/pngwio.c **** 
   2:fltk-1.3.4-1/png/pngwio.c **** /* pngwio.c - functions for data output
   3:fltk-1.3.4-1/png/pngwio.c ****  *
   4:fltk-1.3.4-1/png/pngwio.c ****  * Last changed in libpng 1.6.15 [November 20, 2014]
   5:fltk-1.3.4-1/png/pngwio.c ****  * Copyright (c) 1998-2014 Glenn Randers-Pehrson
   6:fltk-1.3.4-1/png/pngwio.c ****  * (Version 0.96 Copyright (c) 1996, 1997 Andreas Dilger)
   7:fltk-1.3.4-1/png/pngwio.c ****  * (Version 0.88 Copyright (c) 1995, 1996 Guy Eric Schalnat, Group 42, Inc.)
   8:fltk-1.3.4-1/png/pngwio.c ****  *
   9:fltk-1.3.4-1/png/pngwio.c ****  * This code is released under the libpng license.
  10:fltk-1.3.4-1/png/pngwio.c ****  * For conditions of distribution and use, see the disclaimer
  11:fltk-1.3.4-1/png/pngwio.c ****  * and license in png.h
  12:fltk-1.3.4-1/png/pngwio.c ****  *
  13:fltk-1.3.4-1/png/pngwio.c ****  * This file provides a location for all output.  Users who need
  14:fltk-1.3.4-1/png/pngwio.c ****  * special handling are expected to write functions that have the same
  15:fltk-1.3.4-1/png/pngwio.c ****  * arguments as these and perform similar functions, but that possibly
  16:fltk-1.3.4-1/png/pngwio.c ****  * use different output methods.  Note that you shouldn't change these
  17:fltk-1.3.4-1/png/pngwio.c ****  * functions, but rather write replacement functions and then change
  18:fltk-1.3.4-1/png/pngwio.c ****  * them at run time with png_set_write_fn(...).
  19:fltk-1.3.4-1/png/pngwio.c ****  */
  20:fltk-1.3.4-1/png/pngwio.c **** 
  21:fltk-1.3.4-1/png/pngwio.c **** #include "pngpriv.h"
  22:fltk-1.3.4-1/png/pngwio.c **** 
  23:fltk-1.3.4-1/png/pngwio.c **** #ifdef PNG_WRITE_SUPPORTED
  24:fltk-1.3.4-1/png/pngwio.c **** 
  25:fltk-1.3.4-1/png/pngwio.c **** /* Write the data to whatever output you are using.  The default routine
  26:fltk-1.3.4-1/png/pngwio.c ****  * writes to a file pointer.  Note that this routine sometimes gets called
  27:fltk-1.3.4-1/png/pngwio.c ****  * with very small lengths, so you should implement some kind of simple
  28:fltk-1.3.4-1/png/pngwio.c ****  * buffering if you are using unbuffered writes.  This should never be asked
  29:fltk-1.3.4-1/png/pngwio.c ****  * to write more than 64K on a 16 bit machine.
  30:fltk-1.3.4-1/png/pngwio.c ****  */
  31:fltk-1.3.4-1/png/pngwio.c **** 
  32:fltk-1.3.4-1/png/pngwio.c **** void /* PRIVATE */
  33:fltk-1.3.4-1/png/pngwio.c **** png_write_data(png_structrp png_ptr, png_const_bytep data, png_size_t length)
  34:fltk-1.3.4-1/png/pngwio.c **** {
  35:fltk-1.3.4-1/png/pngwio.c ****    /* NOTE: write_data_fn must not change the buffer! */
  36:fltk-1.3.4-1/png/pngwio.c ****    if (png_ptr->write_data_fn != NULL )
  37:fltk-1.3.4-1/png/pngwio.c ****       (*(png_ptr->write_data_fn))(png_ptr, png_constcast(png_bytep,data),
  38:fltk-1.3.4-1/png/pngwio.c ****          length);
  39:fltk-1.3.4-1/png/pngwio.c **** 
  40:fltk-1.3.4-1/png/pngwio.c ****    else
  41:fltk-1.3.4-1/png/pngwio.c ****       png_error(png_ptr, "Call to NULL write function");
  42:fltk-1.3.4-1/png/pngwio.c **** }
  43:fltk-1.3.4-1/png/pngwio.c **** 
  44:fltk-1.3.4-1/png/pngwio.c **** #ifdef PNG_STDIO_SUPPORTED
  45:fltk-1.3.4-1/png/pngwio.c **** /* This is the function that does the actual writing of data.  If you are
  46:fltk-1.3.4-1/png/pngwio.c ****  * not writing to a standard C stream, you should create a replacement
  47:fltk-1.3.4-1/png/pngwio.c ****  * write_data function and use it at run time with png_set_write_fn(), rather
  48:fltk-1.3.4-1/png/pngwio.c ****  * than changing the library.
  49:fltk-1.3.4-1/png/pngwio.c ****  */
  50:fltk-1.3.4-1/png/pngwio.c **** void PNGCBAPI
  51:fltk-1.3.4-1/png/pngwio.c **** png_default_write_data(png_structp png_ptr, png_bytep data, png_size_t length)
  52:fltk-1.3.4-1/png/pngwio.c **** {
  53:fltk-1.3.4-1/png/pngwio.c ****    png_size_t check;
  54:fltk-1.3.4-1/png/pngwio.c **** 
  55:fltk-1.3.4-1/png/pngwio.c ****    if (png_ptr == NULL)
  56:fltk-1.3.4-1/png/pngwio.c ****       return;
  57:fltk-1.3.4-1/png/pngwio.c **** 
  58:fltk-1.3.4-1/png/pngwio.c ****    check = fwrite(data, 1, length, (png_FILE_p)(png_ptr->io_ptr));
  59:fltk-1.3.4-1/png/pngwio.c **** 
  60:fltk-1.3.4-1/png/pngwio.c ****    if (check != length)
  61:fltk-1.3.4-1/png/pngwio.c ****       png_error(png_ptr, "Write Error");
  62:fltk-1.3.4-1/png/pngwio.c **** }
  63:fltk-1.3.4-1/png/pngwio.c **** #endif
  64:fltk-1.3.4-1/png/pngwio.c **** 
  65:fltk-1.3.4-1/png/pngwio.c **** /* This function is called to output any data pending writing (normally
  66:fltk-1.3.4-1/png/pngwio.c ****  * to disk).  After png_flush is called, there should be no data pending
  67:fltk-1.3.4-1/png/pngwio.c ****  * writing in any buffers.
  68:fltk-1.3.4-1/png/pngwio.c ****  */
  69:fltk-1.3.4-1/png/pngwio.c **** #ifdef PNG_WRITE_FLUSH_SUPPORTED
  70:fltk-1.3.4-1/png/pngwio.c **** void /* PRIVATE */
  71:fltk-1.3.4-1/png/pngwio.c **** png_flush(png_structrp png_ptr)
  72:fltk-1.3.4-1/png/pngwio.c **** {
  73:fltk-1.3.4-1/png/pngwio.c ****    if (png_ptr->output_flush_fn != NULL)
  74:fltk-1.3.4-1/png/pngwio.c ****       (*(png_ptr->output_flush_fn))(png_ptr);
  75:fltk-1.3.4-1/png/pngwio.c **** }
  76:fltk-1.3.4-1/png/pngwio.c **** 
  77:fltk-1.3.4-1/png/pngwio.c **** #  ifdef PNG_STDIO_SUPPORTED
  78:fltk-1.3.4-1/png/pngwio.c **** void PNGCBAPI
  79:fltk-1.3.4-1/png/pngwio.c **** png_default_flush(png_structp png_ptr)
  80:fltk-1.3.4-1/png/pngwio.c **** {
  12              		.loc 1 80 1 view -0
  13              		.cfi_startproc
  14              		.loc 1 80 1 is_stmt 0 view .LVU1
  15 0000 F30F1EFA 		endbr64
  81:fltk-1.3.4-1/png/pngwio.c ****    png_FILE_p io_ptr;
  16              		.loc 1 81 4 is_stmt 1 view .LVU2
  82:fltk-1.3.4-1/png/pngwio.c **** 
  83:fltk-1.3.4-1/png/pngwio.c ****    if (png_ptr == NULL)
  17              		.loc 1 83 4 view .LVU3
  18              		.loc 1 83 7 is_stmt 0 view .LVU4
  19 0004 4885FF   		testq	%rdi, %rdi
  20 0007 740F     		je	.L1
  84:fltk-1.3.4-1/png/pngwio.c ****       return;
  85:fltk-1.3.4-1/png/pngwio.c **** 
  86:fltk-1.3.4-1/png/pngwio.c ****    io_ptr = png_voidcast(png_FILE_p, (png_ptr->io_ptr));
  21              		.loc 1 86 4 is_stmt 1 view .LVU5
  22              	.LVL1:
  87:fltk-1.3.4-1/png/pngwio.c ****    fflush(io_ptr);
  23              		.loc 1 87 4 view .LVU6
  24 0009 488BBF08 		movq	264(%rdi), %rdi
  24      010000
  25              	.LVL2:
  26              		.loc 1 87 4 is_stmt 0 view .LVU7
  27 0010 E9000000 		jmp	fflush@PLT
  27      00
  28              	.LVL3:
  29              		.p2align 4,,10
  30 0015 0F1F00   		.p2align 3
  31              	.L1:
  88:fltk-1.3.4-1/png/pngwio.c **** }
  32              		.loc 1 88 1 view .LVU8
  33 0018 C3       		ret
  34              		.cfi_endproc
  35              	.LFE44:
  37              		.section	.rodata.png_default_write_data.str1.1,"aMS",@progbits,1
  38              	.LC0:
  39 0000 57726974 		.string	"Write Error"
  39      65204572 
  39      726F7200 
  40              		.section	.text.png_default_write_data,"ax",@progbits
  41              		.p2align 4
  42              		.globl	png_default_write_data
  44              	png_default_write_data:
  45              	.LVL4:
  46              	.LFB42:
  52:fltk-1.3.4-1/png/pngwio.c ****    png_size_t check;
  47              		.loc 1 52 1 is_stmt 1 view -0
  48              		.cfi_startproc
  52:fltk-1.3.4-1/png/pngwio.c ****    png_size_t check;
  49              		.loc 1 52 1 is_stmt 0 view .LVU10
  50 0000 F30F1EFA 		endbr64
  53:fltk-1.3.4-1/png/pngwio.c **** 
  51              		.loc 1 53 4 is_stmt 1 view .LVU11
  55:fltk-1.3.4-1/png/pngwio.c ****       return;
  52              		.loc 1 55 4 view .LVU12
  52:fltk-1.3.4-1/png/pngwio.c ****    png_size_t check;
  53              		.loc 1 52 1 is_stmt 0 view .LVU13
  54 0004 55       		pushq	%rbp
  55              		.cfi_def_cfa_offset 16
  56              		.cfi_offset 6, -16
  57 0005 4889FD   		movq	%rdi, %rbp
  58 0008 53       		pushq	%rbx
  59              		.cfi_def_cfa_offset 24
  60              		.cfi_offset 3, -24
  61 0009 4883EC08 		subq	$8, %rsp
  62              		.cfi_def_cfa_offset 32
  55:fltk-1.3.4-1/png/pngwio.c ****       return;
  63              		.loc 1 55 7 view .LVU14
  64 000d 4885FF   		testq	%rdi, %rdi
  65 0010 741C     		je	.L4
  66              	.LBB4:
  67              	.LBB5:
  58:fltk-1.3.4-1/png/pngwio.c **** 
  68              		.loc 1 58 12 view .LVU15
  69 0012 488B8D08 		movq	264(%rbp), %rcx
  69      010000
  70 0019 4889F7   		movq	%rsi, %rdi
  71              	.LVL5:
  58:fltk-1.3.4-1/png/pngwio.c **** 
  72              		.loc 1 58 12 view .LVU16
  73 001c BE010000 		movl	$1, %esi
  73      00
  74              	.LVL6:
  58:fltk-1.3.4-1/png/pngwio.c **** 
  75              		.loc 1 58 12 view .LVU17
  76 0021 4889D3   		movq	%rdx, %rbx
  77              	.LVL7:
  58:fltk-1.3.4-1/png/pngwio.c **** 
  78              		.loc 1 58 12 view .LVU18
  79              	.LBE5:
  80              	.LBI4:
  51:fltk-1.3.4-1/png/pngwio.c **** {
  81              		.loc 1 51 1 is_stmt 1 view .LVU19
  82              	.LBB6:
  58:fltk-1.3.4-1/png/pngwio.c **** 
  83              		.loc 1 58 4 view .LVU20
  58:fltk-1.3.4-1/png/pngwio.c **** 
  84              		.loc 1 58 12 is_stmt 0 view .LVU21
  85 0024 E8000000 		call	fwrite@PLT
  85      00
  86              	.LVL8:
  60:fltk-1.3.4-1/png/pngwio.c ****       png_error(png_ptr, "Write Error");
  87              		.loc 1 60 4 is_stmt 1 view .LVU22
  60:fltk-1.3.4-1/png/pngwio.c ****       png_error(png_ptr, "Write Error");
  88              		.loc 1 60 7 is_stmt 0 view .LVU23
  89 0029 4839C3   		cmpq	%rax, %rbx
  90 002c 7507     		jne	.L10
  91              	.LVL9:
  92              	.L4:
  60:fltk-1.3.4-1/png/pngwio.c ****       png_error(png_ptr, "Write Error");
  93              		.loc 1 60 7 view .LVU24
  94              	.LBE6:
  95              	.LBE4:
  62:fltk-1.3.4-1/png/pngwio.c **** #endif
  96              		.loc 1 62 1 view .LVU25
  97 002e 4883C408 		addq	$8, %rsp
  98              		.cfi_remember_state
  99              		.cfi_def_cfa_offset 24
 100 0032 5B       		popq	%rbx
 101              		.cfi_def_cfa_offset 16
 102 0033 5D       		popq	%rbp
 103              		.cfi_def_cfa_offset 8
 104              	.LVL10:
  62:fltk-1.3.4-1/png/pngwio.c **** #endif
 105              		.loc 1 62 1 view .LVU26
 106 0034 C3       		ret
 107              	.LVL11:
 108              	.L10:
 109              		.cfi_restore_state
 110              	.LBB8:
 111              	.LBB7:
  61:fltk-1.3.4-1/png/pngwio.c **** }
 112              		.loc 1 61 7 is_stmt 1 view .LVU27
 113 0035 488D3500 		leaq	.LC0(%rip), %rsi
 113      000000
 114 003c 4889EF   		movq	%rbp, %rdi
 115 003f E8000000 		call	png_error@PLT
 115      00
 116              	.LVL12:
  61:fltk-1.3.4-1/png/pngwio.c **** }
 117              		.loc 1 61 7 is_stmt 0 view .LVU28
 118              	.LBE7:
 119              	.LBE8:
 120              		.cfi_endproc
 121              	.LFE42:
 123              		.section	.rodata.png_write_data.str1.1,"aMS",@progbits,1
 124              	.LC1:
 125 0000 43616C6C 		.string	"Call to NULL write function"
 125      20746F20 
 125      4E554C4C 
 125      20777269 
 125      74652066 
 126              		.section	.text.png_write_data,"ax",@progbits
 127              		.p2align 4
 128              		.globl	png_write_data
 130              	png_write_data:
 131              	.LVL13:
 132              	.LFB41:
  34:fltk-1.3.4-1/png/pngwio.c ****    /* NOTE: write_data_fn must not change the buffer! */
 133              		.loc 1 34 1 is_stmt 1 view -0
 134              		.cfi_startproc
  34:fltk-1.3.4-1/png/pngwio.c ****    /* NOTE: write_data_fn must not change the buffer! */
 135              		.loc 1 34 1 is_stmt 0 view .LVU30
 136 0000 F30F1EFA 		endbr64
  36:fltk-1.3.4-1/png/pngwio.c ****       (*(png_ptr->write_data_fn))(png_ptr, png_constcast(png_bytep,data),
 137              		.loc 1 36 4 is_stmt 1 view .LVU31
  36:fltk-1.3.4-1/png/pngwio.c ****       (*(png_ptr->write_data_fn))(png_ptr, png_constcast(png_bytep,data),
 138              		.loc 1 36 15 is_stmt 0 view .LVU32
 139 0004 488B87F8 		movq	248(%rdi), %rax
 139      000000
  36:fltk-1.3.4-1/png/pngwio.c ****       (*(png_ptr->write_data_fn))(png_ptr, png_constcast(png_bytep,data),
 140              		.loc 1 36 7 view .LVU33
 141 000b 4885C0   		testq	%rax, %rax
 142 000e 7402     		je	.L12
  37:fltk-1.3.4-1/png/pngwio.c ****          length);
 143              		.loc 1 37 7 is_stmt 1 view .LVU34
  37:fltk-1.3.4-1/png/pngwio.c ****          length);
 144              		.loc 1 37 8 is_stmt 0 view .LVU35
 145 0010 FFE0     		jmp	*%rax
 146              	.LVL14:
 147              	.L12:
  41:fltk-1.3.4-1/png/pngwio.c **** }
 148              		.loc 1 41 7 is_stmt 1 view .LVU36
  34:fltk-1.3.4-1/png/pngwio.c ****    /* NOTE: write_data_fn must not change the buffer! */
 149              		.loc 1 34 1 is_stmt 0 view .LVU37
 150 0012 50       		pushq	%rax
 151              		.cfi_def_cfa_offset 16
  41:fltk-1.3.4-1/png/pngwio.c **** }
 152              		.loc 1 41 7 view .LVU38
 153 0013 488D3500 		leaq	.LC1(%rip), %rsi
 153      000000
 154              	.LVL15:
  41:fltk-1.3.4-1/png/pngwio.c **** }
 155              		.loc 1 41 7 view .LVU39
 156 001a E8000000 		call	png_error@PLT
 156      00
 157              	.LVL16:
  41:fltk-1.3.4-1/png/pngwio.c **** }
 158              		.loc 1 41 7 view .LVU40
 159              		.cfi_endproc
 160              	.LFE41:
 162              		.section	.text.png_flush,"ax",@progbits
 163              		.p2align 4
 164              		.globl	png_flush
 166              	png_flush:
 167              	.LVL17:
 168              	.LFB43:
  72:fltk-1.3.4-1/png/pngwio.c ****    if (png_ptr->output_flush_fn != NULL)
 169              		.loc 1 72 1 is_stmt 1 view -0
 170              		.cfi_startproc
  72:fltk-1.3.4-1/png/pngwio.c ****    if (png_ptr->output_flush_fn != NULL)
 171              		.loc 1 72 1 is_stmt 0 view .LVU42
 172 0000 F30F1EFA 		endbr64
  73:fltk-1.3.4-1/png/pngwio.c ****       (*(png_ptr->output_flush_fn))(png_ptr);
 173              		.loc 1 73 4 is_stmt 1 view .LVU43
  73:fltk-1.3.4-1/png/pngwio.c ****       (*(png_ptr->output_flush_fn))(png_ptr);
 174              		.loc 1 73 15 is_stmt 0 view .LVU44
 175 0004 488B87A0 		movq	672(%rdi), %rax
 175      020000
  73:fltk-1.3.4-1/png/pngwio.c ****       (*(png_ptr->output_flush_fn))(png_ptr);
 176              		.loc 1 73 7 view .LVU45
 177 000b 4885C0   		testq	%rax, %rax
 178 000e 7408     		je	.L15
  74:fltk-1.3.4-1/png/pngwio.c **** }
 179              		.loc 1 74 7 is_stmt 1 view .LVU46
  74:fltk-1.3.4-1/png/pngwio.c **** }
 180              		.loc 1 74 8 is_stmt 0 view .LVU47
 181 0010 FFE0     		jmp	*%rax
 182              	.LVL18:
 183              		.p2align 4,,10
 184 0012 660F1F44 		.p2align 3
 184      0000
 185              	.L15:
  75:fltk-1.3.4-1/png/pngwio.c **** 
 186              		.loc 1 75 1 view .LVU48
 187 0018 C3       		ret
 188              		.cfi_endproc
 189              	.LFE43:
 191              		.section	.rodata.png_set_write_fn.str1.8,"aMS",@progbits,1
 192              		.align 8
 193              	.LC2:
 194 0000 43616E27 		.string	"Can't set both read_data_fn and write_data_fn in the same structure"
 194      74207365 
 194      7420626F 
 194      74682072 
 194      6561645F 
 195              		.section	.text.png_set_write_fn,"ax",@progbits
 196              		.p2align 4
 197              		.globl	png_set_write_fn
 199              	png_set_write_fn:
 200              	.LVL19:
 201              	.LFB45:
  89:fltk-1.3.4-1/png/pngwio.c **** #  endif
  90:fltk-1.3.4-1/png/pngwio.c **** #endif
  91:fltk-1.3.4-1/png/pngwio.c **** 
  92:fltk-1.3.4-1/png/pngwio.c **** /* This function allows the application to supply new output functions for
  93:fltk-1.3.4-1/png/pngwio.c ****  * libpng if standard C streams aren't being used.
  94:fltk-1.3.4-1/png/pngwio.c ****  *
  95:fltk-1.3.4-1/png/pngwio.c ****  * This function takes as its arguments:
  96:fltk-1.3.4-1/png/pngwio.c ****  * png_ptr       - pointer to a png output data structure
  97:fltk-1.3.4-1/png/pngwio.c ****  * io_ptr        - pointer to user supplied structure containing info about
  98:fltk-1.3.4-1/png/pngwio.c ****  *                 the output functions.  May be NULL.
  99:fltk-1.3.4-1/png/pngwio.c ****  * write_data_fn - pointer to a new output function that takes as its
 100:fltk-1.3.4-1/png/pngwio.c ****  *                 arguments a pointer to a png_struct, a pointer to
 101:fltk-1.3.4-1/png/pngwio.c ****  *                 data to be written, and a 32-bit unsigned int that is
 102:fltk-1.3.4-1/png/pngwio.c ****  *                 the number of bytes to be written.  The new write
 103:fltk-1.3.4-1/png/pngwio.c ****  *                 function should call png_error(png_ptr, "Error msg")
 104:fltk-1.3.4-1/png/pngwio.c ****  *                 to exit and output any fatal error messages.  May be
 105:fltk-1.3.4-1/png/pngwio.c ****  *                 NULL, in which case libpng's default function will
 106:fltk-1.3.4-1/png/pngwio.c ****  *                 be used.
 107:fltk-1.3.4-1/png/pngwio.c ****  * flush_data_fn - pointer to a new flush function that takes as its
 108:fltk-1.3.4-1/png/pngwio.c ****  *                 arguments a pointer to a png_struct.  After a call to
 109:fltk-1.3.4-1/png/pngwio.c ****  *                 the flush function, there should be no data in any buffers
 110:fltk-1.3.4-1/png/pngwio.c ****  *                 or pending transmission.  If the output method doesn't do
 111:fltk-1.3.4-1/png/pngwio.c ****  *                 any buffering of output, a function prototype must still be
 112:fltk-1.3.4-1/png/pngwio.c ****  *                 supplied although it doesn't have to do anything.  If
 113:fltk-1.3.4-1/png/pngwio.c ****  *                 PNG_WRITE_FLUSH_SUPPORTED is not defined at libpng compile
 114:fltk-1.3.4-1/png/pngwio.c ****  *                 time, output_flush_fn will be ignored, although it must be
 115:fltk-1.3.4-1/png/pngwio.c ****  *                 supplied for compatibility.  May be NULL, in which case
 116:fltk-1.3.4-1/png/pngwio.c ****  *                 libpng's default function will be used, if
 117:fltk-1.3.4-1/png/pngwio.c ****  *                 PNG_WRITE_FLUSH_SUPPORTED is defined.  This is not
 118:fltk-1.3.4-1/png/pngwio.c ****  *                 a good idea if io_ptr does not point to a standard
 119:fltk-1.3.4-1/png/pngwio.c ****  *                 *FILE structure.
 120:fltk-1.3.4-1/png/pngwio.c ****  */
 121:fltk-1.3.4-1/png/pngwio.c **** void PNGAPI
 122:fltk-1.3.4-1/png/pngwio.c **** png_set_write_fn(png_structrp png_ptr, png_voidp io_ptr,
 123:fltk-1.3.4-1/png/pngwio.c ****     png_rw_ptr write_data_fn, png_flush_ptr output_flush_fn)
 124:fltk-1.3.4-1/png/pngwio.c **** {
 202              		.loc 1 124 1 is_stmt 1 view -0
 203              		.cfi_startproc
 204              		.loc 1 124 1 is_stmt 0 view .LVU50
 205 0000 F30F1EFA 		endbr64
 125:fltk-1.3.4-1/png/pngwio.c ****    if (png_ptr == NULL)
 206              		.loc 1 125 4 is_stmt 1 view .LVU51
 207              		.loc 1 125 7 is_stmt 0 view .LVU52
 208 0004 4885FF   		testq	%rdi, %rdi
 209 0007 7457     		je	.L17
 126:fltk-1.3.4-1/png/pngwio.c ****       return;
 127:fltk-1.3.4-1/png/pngwio.c **** 
 128:fltk-1.3.4-1/png/pngwio.c ****    png_ptr->io_ptr = io_ptr;
 210              		.loc 1 128 4 is_stmt 1 view .LVU53
 129:fltk-1.3.4-1/png/pngwio.c **** 
 130:fltk-1.3.4-1/png/pngwio.c **** #ifdef PNG_STDIO_SUPPORTED
 131:fltk-1.3.4-1/png/pngwio.c ****    if (write_data_fn != NULL)
 132:fltk-1.3.4-1/png/pngwio.c ****       png_ptr->write_data_fn = write_data_fn;
 133:fltk-1.3.4-1/png/pngwio.c **** 
 134:fltk-1.3.4-1/png/pngwio.c ****    else
 135:fltk-1.3.4-1/png/pngwio.c ****       png_ptr->write_data_fn = png_default_write_data;
 211              		.loc 1 135 30 is_stmt 0 view .LVU54
 212 0009 4885D2   		testq	%rdx, %rdx
 213 000c 488D0500 		leaq	png_default_write_data(%rip), %rax
 213      000000
 128:fltk-1.3.4-1/png/pngwio.c **** 
 214              		.loc 1 128 20 view .LVU55
 215 0013 4889B708 		movq	%rsi, 264(%rdi)
 215      010000
 131:fltk-1.3.4-1/png/pngwio.c ****       png_ptr->write_data_fn = write_data_fn;
 216              		.loc 1 131 4 is_stmt 1 view .LVU56
 217              		.loc 1 135 30 is_stmt 0 view .LVU57
 218 001a 480F44D0 		cmove	%rax, %rdx
 219              	.LVL20:
 136:fltk-1.3.4-1/png/pngwio.c **** #else
 137:fltk-1.3.4-1/png/pngwio.c ****    png_ptr->write_data_fn = write_data_fn;
 138:fltk-1.3.4-1/png/pngwio.c **** #endif
 139:fltk-1.3.4-1/png/pngwio.c **** 
 140:fltk-1.3.4-1/png/pngwio.c **** #ifdef PNG_WRITE_FLUSH_SUPPORTED
 141:fltk-1.3.4-1/png/pngwio.c **** #  ifdef PNG_STDIO_SUPPORTED
 142:fltk-1.3.4-1/png/pngwio.c **** 
 143:fltk-1.3.4-1/png/pngwio.c ****    if (output_flush_fn != NULL)
 144:fltk-1.3.4-1/png/pngwio.c ****       png_ptr->output_flush_fn = output_flush_fn;
 145:fltk-1.3.4-1/png/pngwio.c **** 
 146:fltk-1.3.4-1/png/pngwio.c ****    else
 147:fltk-1.3.4-1/png/pngwio.c ****       png_ptr->output_flush_fn = png_default_flush;
 220              		.loc 1 147 32 view .LVU58
 221 001e 4885C9   		testq	%rcx, %rcx
 222 0021 488D0500 		leaq	png_default_flush(%rip), %rax
 222      000000
 223 0028 480F44C8 		cmove	%rax, %rcx
 224              	.LVL21:
 148:fltk-1.3.4-1/png/pngwio.c **** 
 149:fltk-1.3.4-1/png/pngwio.c **** #  else
 150:fltk-1.3.4-1/png/pngwio.c ****    png_ptr->output_flush_fn = output_flush_fn;
 151:fltk-1.3.4-1/png/pngwio.c **** #  endif
 152:fltk-1.3.4-1/png/pngwio.c **** #else
 153:fltk-1.3.4-1/png/pngwio.c ****    PNG_UNUSED(output_flush_fn)
 154:fltk-1.3.4-1/png/pngwio.c **** #endif /* WRITE_FLUSH */
 155:fltk-1.3.4-1/png/pngwio.c **** 
 156:fltk-1.3.4-1/png/pngwio.c **** #ifdef PNG_READ_SUPPORTED
 157:fltk-1.3.4-1/png/pngwio.c ****    /* It is an error to read while writing a png file */
 158:fltk-1.3.4-1/png/pngwio.c ****    if (png_ptr->read_data_fn != NULL)
 225              		.loc 1 158 7 view .LVU59
 226 002c 4883BF00 		cmpq	$0, 256(%rdi)
 226      01000000 
 227 0034 488997F8 		movq	%rdx, 248(%rdi)
 227      000000
 143:fltk-1.3.4-1/png/pngwio.c ****       png_ptr->output_flush_fn = output_flush_fn;
 228              		.loc 1 143 4 is_stmt 1 view .LVU60
 229 003b 48898FA0 		movq	%rcx, 672(%rdi)
 229      020000
 230              		.loc 1 158 4 view .LVU61
 231              		.loc 1 158 7 is_stmt 0 view .LVU62
 232 0042 741C     		je	.L17
 159:fltk-1.3.4-1/png/pngwio.c ****    {
 160:fltk-1.3.4-1/png/pngwio.c ****       png_ptr->read_data_fn = NULL;
 233              		.loc 1 160 7 is_stmt 1 view .LVU63
 234              		.loc 1 160 29 is_stmt 0 view .LVU64
 235 0044 48C78700 		movq	$0, 256(%rdi)
 235      01000000 
 235      000000
 161:fltk-1.3.4-1/png/pngwio.c **** 
 162:fltk-1.3.4-1/png/pngwio.c ****       png_warning(png_ptr,
 236              		.loc 1 162 7 is_stmt 1 view .LVU65
 237 004f 488D3500 		leaq	.LC2(%rip), %rsi
 237      000000
 238              	.LVL22:
 239              		.loc 1 162 7 is_stmt 0 view .LVU66
 240 0056 E9000000 		jmp	png_warning@PLT
 240      00
 241              	.LVL23:
 242 005b 0F1F4400 		.p2align 4,,10
 242      00
 243              		.p2align 3
 244              	.L17:
 163:fltk-1.3.4-1/png/pngwio.c ****           "Can't set both read_data_fn and write_data_fn in the"
 164:fltk-1.3.4-1/png/pngwio.c ****           " same structure");
 165:fltk-1.3.4-1/png/pngwio.c ****    }
 166:fltk-1.3.4-1/png/pngwio.c **** #endif
 167:fltk-1.3.4-1/png/pngwio.c **** }
 245              		.loc 1 167 1 view .LVU67
 246 0060 C3       		ret
 247              		.cfi_endproc
 248              	.LFE45:
 250              		.text
 251              	.Letext0:
 252              		.file 2 "/usr/lib/gcc/x86_64-linux-gnu/9/include/stddef.h"
 253              		.file 3 "/usr/include/x86_64-linux-gnu/bits/types.h"
 254              		.file 4 "/usr/include/x86_64-linux-gnu/bits/types/struct_FILE.h"
 255              		.file 5 "/usr/include/x86_64-linux-gnu/bits/types/FILE.h"
 256              		.file 6 "/usr/include/stdio.h"
 257              		.file 7 "/usr/include/x86_64-linux-gnu/bits/setjmp.h"
 258              		.file 8 "/usr/include/x86_64-linux-gnu/bits/types/__sigset_t.h"
 259              		.file 9 "/usr/include/setjmp.h"
 260              		.file 10 "/usr/include/time.h"
 261              		.file 11 "fltk-1.3.4-1/png/pngconf.h"
 262              		.file 12 "fltk-1.3.4-1/png/png.h"
 263              		.file 13 "fltk-1.3.4-1/png/pngstruct.h"
 264              		.file 14 "fltk-1.3.4-1/png/pnginfo.h"
 265              		.file 15 "/usr/include/zconf.h"
 266              		.file 16 "/usr/include/unistd.h"
 267              		.file 17 "/usr/include/x86_64-linux-gnu/bits/getopt_core.h"
 268              		.file 18 "/usr/include/zlib.h"
 269              		.file 19 "fltk-1.3.4-1/png/pngpriv.h"
 18727              		.section	.note.gnu.property,"a"
 18728              		.align 8
 18729 0000 04000000 		.long	 1f - 0f
 18730 0004 10000000 		.long	 4f - 1f
 18731 0008 05000000 		.long	 5
 18732              	0:
 18733 000c 474E5500 		.string	 "GNU"
 18734              	1:
 18735              		.align 8
 18736 0010 020000C0 		.long	 0xc0000002
 18737 0014 04000000 		.long	 3f - 2f
 18738              	2:
 18739 0018 03000000 		.long	 0x3
 18740              	3:
 18741 001c 00000000 		.align 8
 18742              	4: