   1              		.file	"pngwutil.c"
   2              		.text
   3              	.Ltext0:
   4              		.section	.text.png_image_size,"ax",@progbits
   5              		.p2align 4
   7              	png_image_size:
   8              	.LVL0:
   9              	.LFB50:
  10              		.file 1 "fltk-1.3.4-1/png/pngwutil.c"
   1:fltk-1.3.4-1/png/pngwutil.c **** 
   2:fltk-1.3.4-1/png/pngwutil.c **** /* pngwutil.c - utilities to write a PNG file
   3:fltk-1.3.4-1/png/pngwutil.c ****  *
   4:fltk-1.3.4-1/png/pngwutil.c ****  * Last changed in libpng 1.6.15 [November 20, 2014]
   5:fltk-1.3.4-1/png/pngwutil.c ****  * Copyright (c) 1998-2014 Glenn Randers-Pehrson
   6:fltk-1.3.4-1/png/pngwutil.c ****  * (Version 0.96 Copyright (c) 1996, 1997 Andreas Dilger)
   7:fltk-1.3.4-1/png/pngwutil.c ****  * (Version 0.88 Copyright (c) 1995, 1996 Guy Eric Schalnat, Group 42, Inc.)
   8:fltk-1.3.4-1/png/pngwutil.c ****  *
   9:fltk-1.3.4-1/png/pngwutil.c ****  * This code is released under the libpng license.
  10:fltk-1.3.4-1/png/pngwutil.c ****  * For conditions of distribution and use, see the disclaimer
  11:fltk-1.3.4-1/png/pngwutil.c ****  * and license in png.h
  12:fltk-1.3.4-1/png/pngwutil.c ****  */
  13:fltk-1.3.4-1/png/pngwutil.c **** 
  14:fltk-1.3.4-1/png/pngwutil.c **** #include "pngpriv.h"
  15:fltk-1.3.4-1/png/pngwutil.c **** 
  16:fltk-1.3.4-1/png/pngwutil.c **** #ifdef PNG_WRITE_SUPPORTED
  17:fltk-1.3.4-1/png/pngwutil.c **** 
  18:fltk-1.3.4-1/png/pngwutil.c **** #ifdef PNG_WRITE_INT_FUNCTIONS_SUPPORTED
  19:fltk-1.3.4-1/png/pngwutil.c **** /* Place a 32-bit number into a buffer in PNG byte order.  We work
  20:fltk-1.3.4-1/png/pngwutil.c ****  * with unsigned numbers for convenience, although one supported
  21:fltk-1.3.4-1/png/pngwutil.c ****  * ancillary chunk uses signed (two's complement) numbers.
  22:fltk-1.3.4-1/png/pngwutil.c ****  */
  23:fltk-1.3.4-1/png/pngwutil.c **** void PNGAPI
  24:fltk-1.3.4-1/png/pngwutil.c **** png_save_uint_32(png_bytep buf, png_uint_32 i)
  25:fltk-1.3.4-1/png/pngwutil.c **** {
  26:fltk-1.3.4-1/png/pngwutil.c ****    buf[0] = (png_byte)((i >> 24) & 0xff);
  27:fltk-1.3.4-1/png/pngwutil.c ****    buf[1] = (png_byte)((i >> 16) & 0xff);
  28:fltk-1.3.4-1/png/pngwutil.c ****    buf[2] = (png_byte)((i >> 8) & 0xff);
  29:fltk-1.3.4-1/png/pngwutil.c ****    buf[3] = (png_byte)(i & 0xff);
  30:fltk-1.3.4-1/png/pngwutil.c **** }
  31:fltk-1.3.4-1/png/pngwutil.c **** 
  32:fltk-1.3.4-1/png/pngwutil.c **** /* Place a 16-bit number into a buffer in PNG byte order.
  33:fltk-1.3.4-1/png/pngwutil.c ****  * The parameter is declared unsigned int, not png_uint_16,
  34:fltk-1.3.4-1/png/pngwutil.c ****  * just to avoid potential problems on pre-ANSI C compilers.
  35:fltk-1.3.4-1/png/pngwutil.c ****  */
  36:fltk-1.3.4-1/png/pngwutil.c **** void PNGAPI
  37:fltk-1.3.4-1/png/pngwutil.c **** png_save_uint_16(png_bytep buf, unsigned int i)
  38:fltk-1.3.4-1/png/pngwutil.c **** {
  39:fltk-1.3.4-1/png/pngwutil.c ****    buf[0] = (png_byte)((i >> 8) & 0xff);
  40:fltk-1.3.4-1/png/pngwutil.c ****    buf[1] = (png_byte)(i & 0xff);
  41:fltk-1.3.4-1/png/pngwutil.c **** }
  42:fltk-1.3.4-1/png/pngwutil.c **** #endif
  43:fltk-1.3.4-1/png/pngwutil.c **** 
  44:fltk-1.3.4-1/png/pngwutil.c **** /* Simple function to write the signature.  If we have already written
  45:fltk-1.3.4-1/png/pngwutil.c ****  * the magic bytes of the signature, or more likely, the PNG stream is
  46:fltk-1.3.4-1/png/pngwutil.c ****  * being embedded into another stream and doesn't need its own signature,
  47:fltk-1.3.4-1/png/pngwutil.c ****  * we should call png_set_sig_bytes() to tell libpng how many of the
  48:fltk-1.3.4-1/png/pngwutil.c ****  * bytes have already been written.
  49:fltk-1.3.4-1/png/pngwutil.c ****  */
  50:fltk-1.3.4-1/png/pngwutil.c **** void PNGAPI
  51:fltk-1.3.4-1/png/pngwutil.c **** png_write_sig(png_structrp png_ptr)
  52:fltk-1.3.4-1/png/pngwutil.c **** {
  53:fltk-1.3.4-1/png/pngwutil.c ****    png_byte png_signature[8] = {137, 80, 78, 71, 13, 10, 26, 10};
  54:fltk-1.3.4-1/png/pngwutil.c **** 
  55:fltk-1.3.4-1/png/pngwutil.c **** #ifdef PNG_IO_STATE_SUPPORTED
  56:fltk-1.3.4-1/png/pngwutil.c ****    /* Inform the I/O callback that the signature is being written */
  57:fltk-1.3.4-1/png/pngwutil.c ****    png_ptr->io_state = PNG_IO_WRITING | PNG_IO_SIGNATURE;
  58:fltk-1.3.4-1/png/pngwutil.c **** #endif
  59:fltk-1.3.4-1/png/pngwutil.c **** 
  60:fltk-1.3.4-1/png/pngwutil.c ****    /* Write the rest of the 8 byte signature */
  61:fltk-1.3.4-1/png/pngwutil.c ****    png_write_data(png_ptr, &png_signature[png_ptr->sig_bytes],
  62:fltk-1.3.4-1/png/pngwutil.c ****       (png_size_t)(8 - png_ptr->sig_bytes));
  63:fltk-1.3.4-1/png/pngwutil.c **** 
  64:fltk-1.3.4-1/png/pngwutil.c ****    if (png_ptr->sig_bytes < 3)
  65:fltk-1.3.4-1/png/pngwutil.c ****       png_ptr->mode |= PNG_HAVE_PNG_SIGNATURE;
  66:fltk-1.3.4-1/png/pngwutil.c **** }
  67:fltk-1.3.4-1/png/pngwutil.c **** 
  68:fltk-1.3.4-1/png/pngwutil.c **** /* Write the start of a PNG chunk.  The type is the chunk type.
  69:fltk-1.3.4-1/png/pngwutil.c ****  * The total_length is the sum of the lengths of all the data you will be
  70:fltk-1.3.4-1/png/pngwutil.c ****  * passing in png_write_chunk_data().
  71:fltk-1.3.4-1/png/pngwutil.c ****  */
  72:fltk-1.3.4-1/png/pngwutil.c **** static void
  73:fltk-1.3.4-1/png/pngwutil.c **** png_write_chunk_header(png_structrp png_ptr, png_uint_32 chunk_name,
  74:fltk-1.3.4-1/png/pngwutil.c ****     png_uint_32 length)
  75:fltk-1.3.4-1/png/pngwutil.c **** {
  76:fltk-1.3.4-1/png/pngwutil.c ****    png_byte buf[8];
  77:fltk-1.3.4-1/png/pngwutil.c **** 
  78:fltk-1.3.4-1/png/pngwutil.c **** #if defined(PNG_DEBUG) && (PNG_DEBUG > 0)
  79:fltk-1.3.4-1/png/pngwutil.c ****    PNG_CSTRING_FROM_CHUNK(buf, chunk_name);
  80:fltk-1.3.4-1/png/pngwutil.c ****    png_debug2(0, "Writing %s chunk, length = %lu", buf, (unsigned long)length);
  81:fltk-1.3.4-1/png/pngwutil.c **** #endif
  82:fltk-1.3.4-1/png/pngwutil.c **** 
  83:fltk-1.3.4-1/png/pngwutil.c ****    if (png_ptr == NULL)
  84:fltk-1.3.4-1/png/pngwutil.c ****       return;
  85:fltk-1.3.4-1/png/pngwutil.c **** 
  86:fltk-1.3.4-1/png/pngwutil.c **** #ifdef PNG_IO_STATE_SUPPORTED
  87:fltk-1.3.4-1/png/pngwutil.c ****    /* Inform the I/O callback that the chunk header is being written.
  88:fltk-1.3.4-1/png/pngwutil.c ****     * PNG_IO_CHUNK_HDR requires a single I/O call.
  89:fltk-1.3.4-1/png/pngwutil.c ****     */
  90:fltk-1.3.4-1/png/pngwutil.c ****    png_ptr->io_state = PNG_IO_WRITING | PNG_IO_CHUNK_HDR;
  91:fltk-1.3.4-1/png/pngwutil.c **** #endif
  92:fltk-1.3.4-1/png/pngwutil.c **** 
  93:fltk-1.3.4-1/png/pngwutil.c ****    /* Write the length and the chunk name */
  94:fltk-1.3.4-1/png/pngwutil.c ****    png_save_uint_32(buf, length);
  95:fltk-1.3.4-1/png/pngwutil.c ****    png_save_uint_32(buf + 4, chunk_name);
  96:fltk-1.3.4-1/png/pngwutil.c ****    png_write_data(png_ptr, buf, 8);
  97:fltk-1.3.4-1/png/pngwutil.c **** 
  98:fltk-1.3.4-1/png/pngwutil.c ****    /* Put the chunk name into png_ptr->chunk_name */
  99:fltk-1.3.4-1/png/pngwutil.c ****    png_ptr->chunk_name = chunk_name;
 100:fltk-1.3.4-1/png/pngwutil.c **** 
 101:fltk-1.3.4-1/png/pngwutil.c ****    /* Reset the crc and run it over the chunk name */
 102:fltk-1.3.4-1/png/pngwutil.c ****    png_reset_crc(png_ptr);
 103:fltk-1.3.4-1/png/pngwutil.c **** 
 104:fltk-1.3.4-1/png/pngwutil.c ****    png_calculate_crc(png_ptr, buf + 4, 4);
 105:fltk-1.3.4-1/png/pngwutil.c **** 
 106:fltk-1.3.4-1/png/pngwutil.c **** #ifdef PNG_IO_STATE_SUPPORTED
 107:fltk-1.3.4-1/png/pngwutil.c ****    /* Inform the I/O callback that chunk data will (possibly) be written.
 108:fltk-1.3.4-1/png/pngwutil.c ****     * PNG_IO_CHUNK_DATA does NOT require a specific number of I/O calls.
 109:fltk-1.3.4-1/png/pngwutil.c ****     */
 110:fltk-1.3.4-1/png/pngwutil.c ****    png_ptr->io_state = PNG_IO_WRITING | PNG_IO_CHUNK_DATA;
 111:fltk-1.3.4-1/png/pngwutil.c **** #endif
 112:fltk-1.3.4-1/png/pngwutil.c **** }
 113:fltk-1.3.4-1/png/pngwutil.c **** 
 114:fltk-1.3.4-1/png/pngwutil.c **** void PNGAPI
 115:fltk-1.3.4-1/png/pngwutil.c **** png_write_chunk_start(png_structrp png_ptr, png_const_bytep chunk_string,
 116:fltk-1.3.4-1/png/pngwutil.c ****     png_uint_32 length)
 117:fltk-1.3.4-1/png/pngwutil.c **** {
 118:fltk-1.3.4-1/png/pngwutil.c ****    png_write_chunk_header(png_ptr, PNG_CHUNK_FROM_STRING(chunk_string), length);
 119:fltk-1.3.4-1/png/pngwutil.c **** }
 120:fltk-1.3.4-1/png/pngwutil.c **** 
 121:fltk-1.3.4-1/png/pngwutil.c **** /* Write the data of a PNG chunk started with png_write_chunk_header().
 122:fltk-1.3.4-1/png/pngwutil.c ****  * Note that multiple calls to this function are allowed, and that the
 123:fltk-1.3.4-1/png/pngwutil.c ****  * sum of the lengths from these calls *must* add up to the total_length
 124:fltk-1.3.4-1/png/pngwutil.c ****  * given to png_write_chunk_header().
 125:fltk-1.3.4-1/png/pngwutil.c ****  */
 126:fltk-1.3.4-1/png/pngwutil.c **** void PNGAPI
 127:fltk-1.3.4-1/png/pngwutil.c **** png_write_chunk_data(png_structrp png_ptr, png_const_bytep data,
 128:fltk-1.3.4-1/png/pngwutil.c ****     png_size_t length)
 129:fltk-1.3.4-1/png/pngwutil.c **** {
 130:fltk-1.3.4-1/png/pngwutil.c ****    /* Write the data, and run the CRC over it */
 131:fltk-1.3.4-1/png/pngwutil.c ****    if (png_ptr == NULL)
 132:fltk-1.3.4-1/png/pngwutil.c ****       return;
 133:fltk-1.3.4-1/png/pngwutil.c **** 
 134:fltk-1.3.4-1/png/pngwutil.c ****    if (data != NULL && length > 0)
 135:fltk-1.3.4-1/png/pngwutil.c ****    {
 136:fltk-1.3.4-1/png/pngwutil.c ****       png_write_data(png_ptr, data, length);
 137:fltk-1.3.4-1/png/pngwutil.c **** 
 138:fltk-1.3.4-1/png/pngwutil.c ****       /* Update the CRC after writing the data,
 139:fltk-1.3.4-1/png/pngwutil.c ****        * in case the user I/O routine alters it.
 140:fltk-1.3.4-1/png/pngwutil.c ****        */
 141:fltk-1.3.4-1/png/pngwutil.c ****       png_calculate_crc(png_ptr, data, length);
 142:fltk-1.3.4-1/png/pngwutil.c ****    }
 143:fltk-1.3.4-1/png/pngwutil.c **** }
 144:fltk-1.3.4-1/png/pngwutil.c **** 
 145:fltk-1.3.4-1/png/pngwutil.c **** /* Finish a chunk started with png_write_chunk_header(). */
 146:fltk-1.3.4-1/png/pngwutil.c **** void PNGAPI
 147:fltk-1.3.4-1/png/pngwutil.c **** png_write_chunk_end(png_structrp png_ptr)
 148:fltk-1.3.4-1/png/pngwutil.c **** {
 149:fltk-1.3.4-1/png/pngwutil.c ****    png_byte buf[4];
 150:fltk-1.3.4-1/png/pngwutil.c **** 
 151:fltk-1.3.4-1/png/pngwutil.c ****    if (png_ptr == NULL) return;
 152:fltk-1.3.4-1/png/pngwutil.c **** 
 153:fltk-1.3.4-1/png/pngwutil.c **** #ifdef PNG_IO_STATE_SUPPORTED
 154:fltk-1.3.4-1/png/pngwutil.c ****    /* Inform the I/O callback that the chunk CRC is being written.
 155:fltk-1.3.4-1/png/pngwutil.c ****     * PNG_IO_CHUNK_CRC requires a single I/O function call.
 156:fltk-1.3.4-1/png/pngwutil.c ****     */
 157:fltk-1.3.4-1/png/pngwutil.c ****    png_ptr->io_state = PNG_IO_WRITING | PNG_IO_CHUNK_CRC;
 158:fltk-1.3.4-1/png/pngwutil.c **** #endif
 159:fltk-1.3.4-1/png/pngwutil.c **** 
 160:fltk-1.3.4-1/png/pngwutil.c ****    /* Write the crc in a single operation */
 161:fltk-1.3.4-1/png/pngwutil.c ****    png_save_uint_32(buf, png_ptr->crc);
 162:fltk-1.3.4-1/png/pngwutil.c **** 
 163:fltk-1.3.4-1/png/pngwutil.c ****    png_write_data(png_ptr, buf, (png_size_t)4);
 164:fltk-1.3.4-1/png/pngwutil.c **** }
 165:fltk-1.3.4-1/png/pngwutil.c **** 
 166:fltk-1.3.4-1/png/pngwutil.c **** /* Write a PNG chunk all at once.  The type is an array of ASCII characters
 167:fltk-1.3.4-1/png/pngwutil.c ****  * representing the chunk name.  The array must be at least 4 bytes in
 168:fltk-1.3.4-1/png/pngwutil.c ****  * length, and does not need to be null terminated.  To be safe, pass the
 169:fltk-1.3.4-1/png/pngwutil.c ****  * pre-defined chunk names here, and if you need a new one, define it
 170:fltk-1.3.4-1/png/pngwutil.c ****  * where the others are defined.  The length is the length of the data.
 171:fltk-1.3.4-1/png/pngwutil.c ****  * All the data must be present.  If that is not possible, use the
 172:fltk-1.3.4-1/png/pngwutil.c ****  * png_write_chunk_start(), png_write_chunk_data(), and png_write_chunk_end()
 173:fltk-1.3.4-1/png/pngwutil.c ****  * functions instead.
 174:fltk-1.3.4-1/png/pngwutil.c ****  */
 175:fltk-1.3.4-1/png/pngwutil.c **** static void
 176:fltk-1.3.4-1/png/pngwutil.c **** png_write_complete_chunk(png_structrp png_ptr, png_uint_32 chunk_name,
 177:fltk-1.3.4-1/png/pngwutil.c ****    png_const_bytep data, png_size_t length)
 178:fltk-1.3.4-1/png/pngwutil.c **** {
 179:fltk-1.3.4-1/png/pngwutil.c ****    if (png_ptr == NULL)
 180:fltk-1.3.4-1/png/pngwutil.c ****       return;
 181:fltk-1.3.4-1/png/pngwutil.c **** 
 182:fltk-1.3.4-1/png/pngwutil.c ****    /* On 64 bit architectures 'length' may not fit in a png_uint_32. */
 183:fltk-1.3.4-1/png/pngwutil.c ****    if (length > PNG_UINT_31_MAX)
 184:fltk-1.3.4-1/png/pngwutil.c ****       png_error(png_ptr, "length exceeds PNG maximum");
 185:fltk-1.3.4-1/png/pngwutil.c **** 
 186:fltk-1.3.4-1/png/pngwutil.c ****    png_write_chunk_header(png_ptr, chunk_name, (png_uint_32)length);
 187:fltk-1.3.4-1/png/pngwutil.c ****    png_write_chunk_data(png_ptr, data, length);
 188:fltk-1.3.4-1/png/pngwutil.c ****    png_write_chunk_end(png_ptr);
 189:fltk-1.3.4-1/png/pngwutil.c **** }
 190:fltk-1.3.4-1/png/pngwutil.c **** 
 191:fltk-1.3.4-1/png/pngwutil.c **** /* This is the API that calls the internal function above. */
 192:fltk-1.3.4-1/png/pngwutil.c **** void PNGAPI
 193:fltk-1.3.4-1/png/pngwutil.c **** png_write_chunk(png_structrp png_ptr, png_const_bytep chunk_string,
 194:fltk-1.3.4-1/png/pngwutil.c ****    png_const_bytep data, png_size_t length)
 195:fltk-1.3.4-1/png/pngwutil.c **** {
 196:fltk-1.3.4-1/png/pngwutil.c ****    png_write_complete_chunk(png_ptr, PNG_CHUNK_FROM_STRING(chunk_string), data,
 197:fltk-1.3.4-1/png/pngwutil.c ****       length);
 198:fltk-1.3.4-1/png/pngwutil.c **** }
 199:fltk-1.3.4-1/png/pngwutil.c **** 
 200:fltk-1.3.4-1/png/pngwutil.c **** /* This is used below to find the size of an image to pass to png_deflate_claim,
 201:fltk-1.3.4-1/png/pngwutil.c ****  * so it only needs to be accurate if the size is less than 16384 bytes (the
 202:fltk-1.3.4-1/png/pngwutil.c ****  * point at which a lower LZ window size can be used.)
 203:fltk-1.3.4-1/png/pngwutil.c ****  */
 204:fltk-1.3.4-1/png/pngwutil.c **** static png_alloc_size_t
 205:fltk-1.3.4-1/png/pngwutil.c **** png_image_size(png_structrp png_ptr)
 206:fltk-1.3.4-1/png/pngwutil.c **** {
  11              		.loc 1 206 1 view -0
  12              		.cfi_startproc
 207:fltk-1.3.4-1/png/pngwutil.c ****    /* Only return sizes up to the maximum of a png_uint_32; do this by limiting
 208:fltk-1.3.4-1/png/pngwutil.c ****     * the width and height used to 15 bits.
 209:fltk-1.3.4-1/png/pngwutil.c ****     */
 210:fltk-1.3.4-1/png/pngwutil.c ****    png_uint_32 h = png_ptr->height;
  13              		.loc 1 210 4 view .LVU1
  14              		.loc 1 210 16 is_stmt 0 view .LVU2
  15 0000 448B8FFC 		movl	508(%rdi), %r9d
  15      010000
  16              	.LVL1:
 211:fltk-1.3.4-1/png/pngwutil.c **** 
 212:fltk-1.3.4-1/png/pngwutil.c ****    if (png_ptr->rowbytes < 32768 && h < 32768)
  17              		.loc 1 212 4 is_stmt 1 view .LVU3
  18              		.loc 1 212 15 is_stmt 0 view .LVU4
  19 0007 488B8708 		movq	520(%rdi), %rax
  19      020000
  20              		.loc 1 212 34 view .LVU5
  21 000e 4181F9FF 		cmpl	$32767, %r9d
  21      7F0000
  22 0015 0F873D01 		ja	.L12
  22      0000
  23 001b 483DFF7F 		cmpq	$32767, %rax
  23      0000
  24 0021 0F873101 		ja	.L12
  24      0000
 213:fltk-1.3.4-1/png/pngwutil.c ****    {
 214:fltk-1.3.4-1/png/pngwutil.c ****       if (png_ptr->interlaced != 0)
  25              		.loc 1 214 7 is_stmt 1 view .LVU6
  26              		.loc 1 214 10 is_stmt 0 view .LVU7
  27 0027 80BF7402 		cmpb	$0, 628(%rdi)
  27      000000
  28 002e 0F840401 		je	.L3
  28      0000
  29              	.LBB201:
 215:fltk-1.3.4-1/png/pngwutil.c ****       {
 216:fltk-1.3.4-1/png/pngwutil.c ****          /* Interlacing makes the image larger because of the replication of
 217:fltk-1.3.4-1/png/pngwutil.c ****           * both the filter byte and the padding to a byte boundary.
 218:fltk-1.3.4-1/png/pngwutil.c ****           */
 219:fltk-1.3.4-1/png/pngwutil.c ****          png_uint_32 w = png_ptr->width;
  30              		.loc 1 219 10 is_stmt 1 view .LVU8
  31              	.LBE201:
 206:fltk-1.3.4-1/png/pngwutil.c ****    /* Only return sizes up to the maximum of a png_uint_32; do this by limiting
  32              		.loc 1 206 1 is_stmt 0 view .LVU9
  33 0034 4157     		pushq	%r15
  34              		.cfi_def_cfa_offset 16
  35              		.cfi_offset 15, -16
  36              	.LBB210:
  37              	.LBB202:
 220:fltk-1.3.4-1/png/pngwutil.c ****          unsigned int pd = png_ptr->pixel_depth;
 221:fltk-1.3.4-1/png/pngwutil.c ****          png_alloc_size_t cb_base;
 222:fltk-1.3.4-1/png/pngwutil.c ****          int pass;
 223:fltk-1.3.4-1/png/pngwutil.c **** 
 224:fltk-1.3.4-1/png/pngwutil.c ****          for (cb_base=0, pass=0; pass<=6; ++pass)
 225:fltk-1.3.4-1/png/pngwutil.c ****          {
 226:fltk-1.3.4-1/png/pngwutil.c ****             png_uint_32 pw = PNG_PASS_COLS(w, pass);
 227:fltk-1.3.4-1/png/pngwutil.c **** 
 228:fltk-1.3.4-1/png/pngwutil.c ****             if (pw > 0)
 229:fltk-1.3.4-1/png/pngwutil.c ****                cb_base += (PNG_ROWBYTES(pd, pw)+1) * PNG_PASS_ROWS(h, pass);
  38              		.loc 1 229 28 view .LVU10
  39 0036 31F6     		xorl	%esi, %esi
  40 0038 41BB0300 		movl	$3, %r11d
  40      0000
  41              	.LBE202:
  42              	.LBE210:
 206:fltk-1.3.4-1/png/pngwutil.c ****    /* Only return sizes up to the maximum of a png_uint_32; do this by limiting
  43              		.loc 1 206 1 view .LVU11
  44 003e 4156     		pushq	%r14
  45              		.cfi_def_cfa_offset 24
  46              		.cfi_offset 14, -24
  47              	.LBB211:
  48              	.LBB203:
  49              		.loc 1 229 54 view .LVU12
  50 0040 41BE0800 		movl	$8, %r14d
  50      0000
  51              	.LBE203:
  52              	.LBE211:
 206:fltk-1.3.4-1/png/pngwutil.c ****    /* Only return sizes up to the maximum of a png_uint_32; do this by limiting
  53              		.loc 1 206 1 view .LVU13
  54 0046 4155     		pushq	%r13
  55              		.cfi_def_cfa_offset 32
  56              		.cfi_offset 13, -32
  57 0048 4154     		pushq	%r12
  58              		.cfi_def_cfa_offset 40
  59              		.cfi_offset 12, -40
  60              	.LBB212:
  61              	.LBB204:
 226:fltk-1.3.4-1/png/pngwutil.c **** 
  62              		.loc 1 226 30 view .LVU14
  63 004a 41BC0700 		movl	$7, %r12d
  63      0000
  64              	.LBE204:
  65              	.LBE212:
 206:fltk-1.3.4-1/png/pngwutil.c ****    /* Only return sizes up to the maximum of a png_uint_32; do this by limiting
  66              		.loc 1 206 1 view .LVU15
  67 0050 55       		pushq	%rbp
  68              		.cfi_def_cfa_offset 48
  69              		.cfi_offset 6, -48
  70 0051 53       		pushq	%rbx
  71              		.cfi_def_cfa_offset 56
  72              		.cfi_offset 3, -56
  73              	.LBB213:
 220:fltk-1.3.4-1/png/pngwutil.c ****          unsigned int pd = png_ptr->pixel_depth;
  74              		.loc 1 220 35 view .LVU16
  75 0052 440FB6AF 		movzbl	634(%rdi), %r13d
  75      7A020000 
  76              	.LBB205:
 226:fltk-1.3.4-1/png/pngwutil.c **** 
  77              		.loc 1 226 30 view .LVU17
  78 005a BB010000 		movl	$1, %ebx
  78      00
  79              	.LBE205:
 219:fltk-1.3.4-1/png/pngwutil.c ****          unsigned int pd = png_ptr->pixel_depth;
  80              		.loc 1 219 22 view .LVU18
  81 005f 8BAFF801 		movl	504(%rdi), %ebp
  81      0000
  82              	.LVL2:
 220:fltk-1.3.4-1/png/pngwutil.c ****          unsigned int pd = png_ptr->pixel_depth;
  83              		.loc 1 220 10 is_stmt 1 view .LVU19
 221:fltk-1.3.4-1/png/pngwutil.c ****          int pass;
  84              		.loc 1 221 10 view .LVU20
 222:fltk-1.3.4-1/png/pngwutil.c **** 
  85              		.loc 1 222 10 view .LVU21
 224:fltk-1.3.4-1/png/pngwutil.c ****          {
  86              		.loc 1 224 10 view .LVU22
 224:fltk-1.3.4-1/png/pngwutil.c ****          {
  87              		.loc 1 224 34 view .LVU23
  88              	.LBB206:
  89              		.loc 1 229 28 is_stmt 0 view .LVU24
  90 0065 4489E8   		movl	%r13d, %eax
  91 0068 410FB6FD 		movzbl	%r13b, %edi
  92              	.LVL3:
  93              		.loc 1 229 28 view .LVU25
  94 006c C1E803   		shrl	$3, %eax
  95 006f 48897C24 		movq	%rdi, -8(%rsp)
  95      F8
  96 0074 48894424 		movq	%rax, -16(%rsp)
  96      F0
  97              	.LBE206:
 224:fltk-1.3.4-1/png/pngwutil.c ****          {
  98              		.loc 1 224 22 view .LVU26
  99 0079 31C0     		xorl	%eax, %eax
 100 007b EB51     		jmp	.L9
 101              	.LVL4:
 102 007d 0F1F00   		.p2align 4,,10
 103              		.p2align 3
 104              	.L29:
 105              	.LBB207:
 106              		.loc 1 229 28 discriminator 1 view .LVU27
 107 0080 480FAF54 		imulq	-16(%rsp), %rdx
 107      24F0
 108              	.LVL5:
 109              		.loc 1 229 48 discriminator 1 view .LVU28
 110 0086 4883C201 		addq	$1, %rdx
 111              	.L7:
 112              		.loc 1 229 48 discriminator 1 view .LVU29
 113 008a 41D1F8   		sarl	%r8d
 114              	.LVL6:
 115              		.loc 1 229 48 discriminator 1 view .LVU30
 116 008d 4489D9   		movl	%r11d, %ecx
 117 0090 83F701   		xorl	$1, %edi
 118 0093 4429C1   		subl	%r8d, %ecx
 119 0096 D3E7     		sall	%cl, %edi
 120              		.loc 1 229 54 discriminator 4 view .LVU31
 121 0098 4183FA02 		cmpl	$2, %r10d
 122 009c 0F86BE00 		jbe	.L8
 122      0000
 123              		.loc 1 229 54 discriminator 5 view .LVU32
 124 00a2 4489F1   		movl	%r14d, %ecx
 125 00a5 4189D8   		movl	%ebx, %r8d
 126 00a8 83E707   		andl	$7, %edi
 127 00ab 4429D1   		subl	%r10d, %ecx
 128 00ae D1F9     		sarl	%ecx
 129 00b0 41D3E0   		sall	%cl, %r8d
 130 00b3 4183E801 		subl	$1, %r8d
 131 00b7 4129F8   		subl	%edi, %r8d
 132 00ba 4489C7   		movl	%r8d, %edi
 133 00bd 4401CF   		addl	%r9d, %edi
 134              	.L10:
 135              		.loc 1 229 54 discriminator 12 view .LVU33
 136 00c0 D3EF     		shrl	%cl, %edi
 137              		.loc 1 229 52 discriminator 12 view .LVU34
 138 00c2 480FAFD7 		imulq	%rdi, %rdx
 139              		.loc 1 229 24 discriminator 12 view .LVU35
 140 00c6 4801D0   		addq	%rdx, %rax
 141              	.LVL7:
 142              	.L5:
 143              		.loc 1 229 24 discriminator 12 view .LVU36
 144              	.LBE207:
 224:fltk-1.3.4-1/png/pngwutil.c ****          {
 145              		.loc 1 224 34 is_stmt 1 discriminator 1 view .LVU37
 224:fltk-1.3.4-1/png/pngwutil.c ****          {
 146              		.loc 1 224 10 is_stmt 0 discriminator 1 view .LVU38
 147 00c9 83FE07   		cmpl	$7, %esi
 148 00cc 747A     		je	.L28
 149              	.LVL8:
 150              	.L9:
 224:fltk-1.3.4-1/png/pngwutil.c ****          {
 151              		.loc 1 224 10 discriminator 1 view .LVU39
 152 00ce 89F7     		movl	%esi, %edi
 153 00d0 4189F0   		movl	%esi, %r8d
 154              	.LVL9:
 155              	.LBB208:
 226:fltk-1.3.4-1/png/pngwutil.c **** 
 156              		.loc 1 226 13 is_stmt 1 view .LVU40
 157 00d3 4189F2   		movl	%esi, %r10d
 158 00d6 83C601   		addl	$1, %esi
 159              	.LVL10:
 226:fltk-1.3.4-1/png/pngwutil.c **** 
 160              		.loc 1 226 13 is_stmt 0 view .LVU41
 161 00d9 89F2     		movl	%esi, %edx
 162 00db 83E701   		andl	$1, %edi
 163              	.LVL11:
 226:fltk-1.3.4-1/png/pngwutil.c **** 
 164              		.loc 1 226 13 view .LVU42
 165 00de 4489D9   		movl	%r11d, %ecx
 166 00e1 D1FA     		sarl	%edx
 167 00e3 4189FF   		movl	%edi, %r15d
 168 00e6 29D1     		subl	%edx, %ecx
 169 00e8 41D3E7   		sall	%cl, %r15d
 226:fltk-1.3.4-1/png/pngwutil.c **** 
 170              		.loc 1 226 30 view .LVU43
 171 00eb 4183F801 		cmpl	$1, %r8d
 172 00ef 0F868300 		jbe	.L4
 172      0000
 226:fltk-1.3.4-1/png/pngwutil.c **** 
 173              		.loc 1 226 30 discriminator 1 view .LVU44
 174 00f5 4489E1   		movl	%r12d, %ecx
 175 00f8 89DA     		movl	%ebx, %edx
 176 00fa 4183E707 		andl	$7, %r15d
 177 00fe 4429C1   		subl	%r8d, %ecx
 178 0101 D1F9     		sarl	%ecx
 179 0103 D3E2     		sall	%cl, %edx
 180 0105 83EA01   		subl	$1, %edx
 181 0108 4429FA   		subl	%r15d, %edx
 182 010b 01EA     		addl	%ebp, %edx
 183              	.L11:
 226:fltk-1.3.4-1/png/pngwutil.c **** 
 184              		.loc 1 226 25 discriminator 8 view .LVU45
 185 010d D3EA     		shrl	%cl, %edx
 186              	.LVL12:
 228:fltk-1.3.4-1/png/pngwutil.c ****                cb_base += (PNG_ROWBYTES(pd, pw)+1) * PNG_PASS_ROWS(h, pass);
 187              		.loc 1 228 13 is_stmt 1 discriminator 8 view .LVU46
 228:fltk-1.3.4-1/png/pngwutil.c ****                cb_base += (PNG_ROWBYTES(pd, pw)+1) * PNG_PASS_ROWS(h, pass);
 188              		.loc 1 228 16 is_stmt 0 discriminator 8 view .LVU47
 189 010f 85D2     		testl	%edx, %edx
 190 0111 74B6     		je	.L5
 191              		.loc 1 229 16 is_stmt 1 view .LVU48
 192              		.loc 1 229 48 is_stmt 0 view .LVU49
 193 0113 4183FD07 		cmpl	$7, %r13d
 194 0117 0F8763FF 		ja	.L29
 194      FFFF
 195              		.loc 1 229 28 discriminator 2 view .LVU50
 196 011d 480FAF54 		imulq	-8(%rsp), %rdx
 196      24F8
 197              	.LVL13:
 198              		.loc 1 229 28 discriminator 2 view .LVU51
 199 0123 4883C207 		addq	$7, %rdx
 200 0127 48C1EA03 		shrq	$3, %rdx
 201              		.loc 1 229 48 discriminator 2 view .LVU52
 202 012b 4883C201 		addq	$1, %rdx
 203 012f E956FFFF 		jmp	.L7
 203      FF
 204              	.LVL14:
 205              		.p2align 4,,10
 206 0134 0F1F4000 		.p2align 3
 207              	.L3:
 208              		.cfi_def_cfa_offset 8
 209              		.cfi_restore 3
 210              		.cfi_restore 6
 211              		.cfi_restore 12
 212              		.cfi_restore 13
 213              		.cfi_restore 14
 214              		.cfi_restore 15
 215              		.loc 1 229 48 discriminator 2 view .LVU53
 216              	.LBE208:
 217              	.LBE213:
 230:fltk-1.3.4-1/png/pngwutil.c ****          }
 231:fltk-1.3.4-1/png/pngwutil.c **** 
 232:fltk-1.3.4-1/png/pngwutil.c ****          return cb_base;
 233:fltk-1.3.4-1/png/pngwutil.c ****       }
 234:fltk-1.3.4-1/png/pngwutil.c **** 
 235:fltk-1.3.4-1/png/pngwutil.c ****       else
 236:fltk-1.3.4-1/png/pngwutil.c ****          return (png_ptr->rowbytes+1) * h;
 218              		.loc 1 236 10 is_stmt 1 view .LVU54
 219              		.loc 1 236 35 is_stmt 0 view .LVU55
 220 0138 488D5001 		leaq	1(%rax), %rdx
 221              		.loc 1 236 39 view .LVU56
 222 013c 4489C8   		movl	%r9d, %eax
 223 013f 480FAFC2 		imulq	%rdx, %rax
 224 0143 C3       		ret
 225              	.LVL15:
 226              		.p2align 4,,10
 227 0144 0F1F4000 		.p2align 3
 228              	.L28:
 229              		.cfi_def_cfa_offset 56
 230              		.cfi_offset 3, -56
 231              		.cfi_offset 6, -48
 232              		.cfi_offset 12, -40
 233              		.cfi_offset 13, -32
 234              		.cfi_offset 14, -24
 235              		.cfi_offset 15, -16
 237:fltk-1.3.4-1/png/pngwutil.c ****    }
 238:fltk-1.3.4-1/png/pngwutil.c **** 
 239:fltk-1.3.4-1/png/pngwutil.c ****    else
 240:fltk-1.3.4-1/png/pngwutil.c ****       return 0xffffffffU;
 241:fltk-1.3.4-1/png/pngwutil.c **** }
 236              		.loc 1 241 1 view .LVU57
 237 0148 5B       		popq	%rbx
 238              		.cfi_def_cfa_offset 48
 239 0149 5D       		popq	%rbp
 240              		.cfi_def_cfa_offset 40
 241              	.LVL16:
 242              		.loc 1 241 1 view .LVU58
 243 014a 415C     		popq	%r12
 244              		.cfi_def_cfa_offset 32
 245 014c 415D     		popq	%r13
 246              		.cfi_def_cfa_offset 24
 247              	.LVL17:
 248              		.loc 1 241 1 view .LVU59
 249 014e 415E     		popq	%r14
 250              		.cfi_def_cfa_offset 16
 251 0150 415F     		popq	%r15
 252              		.cfi_def_cfa_offset 8
 253 0152 C3       		ret
 254              	.LVL18:
 255              		.p2align 4,,10
 256 0153 0F1F4400 		.p2align 3
 256      00
 257              	.L12:
 258              		.cfi_restore 3
 259              		.cfi_restore 6
 260              		.cfi_restore 12
 261              		.cfi_restore 13
 262              		.cfi_restore 14
 263              		.cfi_restore 15
 240:fltk-1.3.4-1/png/pngwutil.c **** }
 264              		.loc 1 240 14 view .LVU60
 265 0158 B8FFFFFF 		movl	$4294967295, %eax
 265      FF
 266              		.loc 1 241 1 view .LVU61
 267 015d C3       		ret
 268              	.LVL19:
 269 015e 6690     		.p2align 4,,10
 270              		.p2align 3
 271              	.L8:
 272              		.cfi_def_cfa_offset 56
 273              		.cfi_offset 3, -56
 274              		.cfi_offset 6, -48
 275              		.cfi_offset 12, -40
 276              		.cfi_offset 13, -32
 277              		.cfi_offset 14, -24
 278              		.cfi_offset 15, -16
 279              	.LBB214:
 280              	.LBB209:
 229:fltk-1.3.4-1/png/pngwutil.c ****          }
 281              		.loc 1 229 54 view .LVU62
 282 0160 F7D7     		notl	%edi
 283 0162 B9030000 		movl	$3, %ecx
 283      00
 284 0167 83E707   		andl	$7, %edi
 285 016a 4401CF   		addl	%r9d, %edi
 286 016d E94EFFFF 		jmp	.L10
 286      FF
 287              	.LVL20:
 288              		.p2align 4,,10
 289 0172 660F1F44 		.p2align 3
 289      0000
 290              	.L4:
 226:fltk-1.3.4-1/png/pngwutil.c **** 
 291              		.loc 1 226 30 view .LVU63
 292 0178 41F7D7   		notl	%r15d
 293 017b B9030000 		movl	$3, %ecx
 293      00
 294 0180 4183E707 		andl	$7, %r15d
 295 0184 418D142F 		leal	(%r15,%rbp), %edx
 296 0188 E980FFFF 		jmp	.L11
 296      FF
 297              	.LBE209:
 298              	.LBE214:
 299              		.cfi_endproc
 300              	.LFE50:
 302              		.section	.rodata.png_deflate_claim.str1.1,"aMS",@progbits,1
 303              	.LC0:
 304 0000 20757369 		.string	" using zstream"
 304      6E67207A 
 304      73747265 
 304      616D00
 305              	.LC1:
 306 000f 696E2075 		.string	"in use by IDAT"
 306      73652062 
 306      79204944 
 306      415400
 307              	.LC2:
 308 001e 6465666C 		.string	"deflateEnd failed (ignored)"
 308      61746545 
 308      6E642066 
 308      61696C65 
 308      64202869 
 309              	.LC3:
 310 003a 312E322E 		.string	"1.2.11"
 310      313100
 311              		.section	.text.png_deflate_claim,"ax",@progbits
 312              		.p2align 4
 314              	png_deflate_claim:
 315              	.LVL21:
 316              	.LFB52:
 242:fltk-1.3.4-1/png/pngwutil.c **** 
 243:fltk-1.3.4-1/png/pngwutil.c **** #ifdef PNG_WRITE_OPTIMIZE_CMF_SUPPORTED
 244:fltk-1.3.4-1/png/pngwutil.c ****    /* This is the code to hack the first two bytes of the deflate stream (the
 245:fltk-1.3.4-1/png/pngwutil.c ****     * deflate header) to correct the windowBits value to match the actual data
 246:fltk-1.3.4-1/png/pngwutil.c ****     * size.  Note that the second argument is the *uncompressed* size but the
 247:fltk-1.3.4-1/png/pngwutil.c ****     * first argument is the *compressed* data (and it must be deflate
 248:fltk-1.3.4-1/png/pngwutil.c ****     * compressed.)
 249:fltk-1.3.4-1/png/pngwutil.c ****     */
 250:fltk-1.3.4-1/png/pngwutil.c **** static void
 251:fltk-1.3.4-1/png/pngwutil.c **** optimize_cmf(png_bytep data, png_alloc_size_t data_size)
 252:fltk-1.3.4-1/png/pngwutil.c **** {
 253:fltk-1.3.4-1/png/pngwutil.c ****    /* Optimize the CMF field in the zlib stream.  The resultant zlib stream is
 254:fltk-1.3.4-1/png/pngwutil.c ****     * still compliant to the stream specification.
 255:fltk-1.3.4-1/png/pngwutil.c ****     */
 256:fltk-1.3.4-1/png/pngwutil.c ****    if (data_size <= 16384) /* else windowBits must be 15 */
 257:fltk-1.3.4-1/png/pngwutil.c ****    {
 258:fltk-1.3.4-1/png/pngwutil.c ****       unsigned int z_cmf = data[0];  /* zlib compression method and flags */
 259:fltk-1.3.4-1/png/pngwutil.c **** 
 260:fltk-1.3.4-1/png/pngwutil.c ****       if ((z_cmf & 0x0f) == 8 && (z_cmf & 0xf0) <= 0x70)
 261:fltk-1.3.4-1/png/pngwutil.c ****       {
 262:fltk-1.3.4-1/png/pngwutil.c ****          unsigned int z_cinfo;
 263:fltk-1.3.4-1/png/pngwutil.c ****          unsigned int half_z_window_size;
 264:fltk-1.3.4-1/png/pngwutil.c **** 
 265:fltk-1.3.4-1/png/pngwutil.c ****          z_cinfo = z_cmf >> 4;
 266:fltk-1.3.4-1/png/pngwutil.c ****          half_z_window_size = 1U << (z_cinfo + 7);
 267:fltk-1.3.4-1/png/pngwutil.c **** 
 268:fltk-1.3.4-1/png/pngwutil.c ****          if (data_size <= half_z_window_size) /* else no change */
 269:fltk-1.3.4-1/png/pngwutil.c ****          {
 270:fltk-1.3.4-1/png/pngwutil.c ****             unsigned int tmp;
 271:fltk-1.3.4-1/png/pngwutil.c **** 
 272:fltk-1.3.4-1/png/pngwutil.c ****             do
 273:fltk-1.3.4-1/png/pngwutil.c ****             {
 274:fltk-1.3.4-1/png/pngwutil.c ****                half_z_window_size >>= 1;
 275:fltk-1.3.4-1/png/pngwutil.c ****                --z_cinfo;
 276:fltk-1.3.4-1/png/pngwutil.c ****             }
 277:fltk-1.3.4-1/png/pngwutil.c ****             while (z_cinfo > 0 && data_size <= half_z_window_size);
 278:fltk-1.3.4-1/png/pngwutil.c **** 
 279:fltk-1.3.4-1/png/pngwutil.c ****             z_cmf = (z_cmf & 0x0f) | (z_cinfo << 4);
 280:fltk-1.3.4-1/png/pngwutil.c **** 
 281:fltk-1.3.4-1/png/pngwutil.c ****             data[0] = (png_byte)z_cmf;
 282:fltk-1.3.4-1/png/pngwutil.c ****             tmp = data[1] & 0xe0;
 283:fltk-1.3.4-1/png/pngwutil.c ****             tmp += 0x1f - ((z_cmf << 8) + tmp) % 0x1f;
 284:fltk-1.3.4-1/png/pngwutil.c ****             data[1] = (png_byte)tmp;
 285:fltk-1.3.4-1/png/pngwutil.c ****          }
 286:fltk-1.3.4-1/png/pngwutil.c ****       }
 287:fltk-1.3.4-1/png/pngwutil.c ****    }
 288:fltk-1.3.4-1/png/pngwutil.c **** }
 289:fltk-1.3.4-1/png/pngwutil.c **** #endif /* WRITE_OPTIMIZE_CMF */
 290:fltk-1.3.4-1/png/pngwutil.c **** 
 291:fltk-1.3.4-1/png/pngwutil.c **** /* Initialize the compressor for the appropriate type of compression. */
 292:fltk-1.3.4-1/png/pngwutil.c **** static int
 293:fltk-1.3.4-1/png/pngwutil.c **** png_deflate_claim(png_structrp png_ptr, png_uint_32 owner,
 294:fltk-1.3.4-1/png/pngwutil.c ****    png_alloc_size_t data_size)
 295:fltk-1.3.4-1/png/pngwutil.c **** {
 317              		.loc 1 295 1 is_stmt 1 view -0
 318              		.cfi_startproc
 319              		.loc 1 295 1 is_stmt 0 view .LVU65
 320 0000 4157     		pushq	%r15
 321              		.cfi_def_cfa_offset 16
 322              		.cfi_offset 15, -16
 323 0002 4156     		pushq	%r14
 324              		.cfi_def_cfa_offset 24
 325              		.cfi_offset 14, -24
 326 0004 4155     		pushq	%r13
 327              		.cfi_def_cfa_offset 32
 328              		.cfi_offset 13, -32
 329 0006 4154     		pushq	%r12
 330              		.cfi_def_cfa_offset 40
 331              		.cfi_offset 12, -40
 332 0008 4189F4   		movl	%esi, %r12d
 333 000b 55       		pushq	%rbp
 334              		.cfi_def_cfa_offset 48
 335              		.cfi_offset 6, -48
 336 000c 4889FD   		movq	%rdi, %rbp
 337 000f 53       		pushq	%rbx
 338              		.cfi_def_cfa_offset 56
 339              		.cfi_offset 3, -56
 340 0010 4889D3   		movq	%rdx, %rbx
 341 0013 4883EC68 		subq	$104, %rsp
 342              		.cfi_def_cfa_offset 160
 343              		.loc 1 295 1 view .LVU66
 344 0017 64488B04 		movq	%fs:40, %rax
 344      25280000 
 344      00
 345 0020 48894424 		movq	%rax, 88(%rsp)
 345      58
 346 0025 31C0     		xorl	%eax, %eax
 296:fltk-1.3.4-1/png/pngwutil.c ****    if (png_ptr->zowner != 0)
 347              		.loc 1 296 4 is_stmt 1 view .LVU67
 348 0027 8B873801 		movl	312(%rdi), %eax
 348      0000
 349              		.loc 1 296 7 is_stmt 0 view .LVU68
 350 002d 8BBF3801 		movl	312(%rdi), %edi
 350      0000
 351              	.LVL22:
 352              		.loc 1 296 7 view .LVU69
 353 0033 85FF     		testl	%edi, %edi
 354 0035 0F858501 		jne	.L56
 354      0000
 355              	.LVL23:
 356              	.L31:
 357              	.LBB215:
 297:fltk-1.3.4-1/png/pngwutil.c ****    {
 298:fltk-1.3.4-1/png/pngwutil.c **** #if defined(PNG_WARNINGS_SUPPORTED) || defined(PNG_ERROR_TEXT_SUPPORTED)
 299:fltk-1.3.4-1/png/pngwutil.c ****       char msg[64];
 300:fltk-1.3.4-1/png/pngwutil.c **** 
 301:fltk-1.3.4-1/png/pngwutil.c ****       PNG_STRING_FROM_CHUNK(msg, owner);
 302:fltk-1.3.4-1/png/pngwutil.c ****       msg[4] = ':';
 303:fltk-1.3.4-1/png/pngwutil.c ****       msg[5] = ' ';
 304:fltk-1.3.4-1/png/pngwutil.c ****       PNG_STRING_FROM_CHUNK(msg+6, png_ptr->zowner);
 305:fltk-1.3.4-1/png/pngwutil.c ****       /* So the message that results is "<chunk> using zstream"; this is an
 306:fltk-1.3.4-1/png/pngwutil.c ****        * internal error, but is very useful for debugging.  i18n requirements
 307:fltk-1.3.4-1/png/pngwutil.c ****        * are minimal.
 308:fltk-1.3.4-1/png/pngwutil.c ****        */
 309:fltk-1.3.4-1/png/pngwutil.c ****       (void)png_safecat(msg, (sizeof msg), 10, " using zstream");
 310:fltk-1.3.4-1/png/pngwutil.c **** #endif
 311:fltk-1.3.4-1/png/pngwutil.c **** #if PNG_LIBPNG_BUILD_BASE_TYPE >= PNG_LIBPNG_BUILD_RC
 312:fltk-1.3.4-1/png/pngwutil.c ****          png_warning(png_ptr, msg);
 313:fltk-1.3.4-1/png/pngwutil.c **** 
 314:fltk-1.3.4-1/png/pngwutil.c ****          /* Attempt sane error recovery */
 315:fltk-1.3.4-1/png/pngwutil.c ****          if (png_ptr->zowner == png_IDAT) /* don't steal from IDAT */
 316:fltk-1.3.4-1/png/pngwutil.c ****          {
 317:fltk-1.3.4-1/png/pngwutil.c ****             png_ptr->zstream.msg = PNGZ_MSG_CAST("in use by IDAT");
 318:fltk-1.3.4-1/png/pngwutil.c ****             return Z_STREAM_ERROR;
 319:fltk-1.3.4-1/png/pngwutil.c ****          }
 320:fltk-1.3.4-1/png/pngwutil.c **** 
 321:fltk-1.3.4-1/png/pngwutil.c ****          png_ptr->zowner = 0;
 322:fltk-1.3.4-1/png/pngwutil.c **** #else
 323:fltk-1.3.4-1/png/pngwutil.c ****          png_error(png_ptr, msg);
 324:fltk-1.3.4-1/png/pngwutil.c **** #endif
 325:fltk-1.3.4-1/png/pngwutil.c ****    }
 326:fltk-1.3.4-1/png/pngwutil.c **** 
 327:fltk-1.3.4-1/png/pngwutil.c ****    {
 328:fltk-1.3.4-1/png/pngwutil.c ****       int level = png_ptr->zlib_level;
 358              		.loc 1 328 7 is_stmt 1 view .LVU70
 329:fltk-1.3.4-1/png/pngwutil.c ****       int method = png_ptr->zlib_method;
 359              		.loc 1 329 7 view .LVU71
 330:fltk-1.3.4-1/png/pngwutil.c ****       int windowBits = png_ptr->zlib_window_bits;
 360              		.loc 1 330 7 view .LVU72
 331:fltk-1.3.4-1/png/pngwutil.c ****       int memLevel = png_ptr->zlib_mem_level;
 361              		.loc 1 331 7 view .LVU73
 332:fltk-1.3.4-1/png/pngwutil.c ****       int strategy; /* set below */
 362              		.loc 1 332 7 view .LVU74
 333:fltk-1.3.4-1/png/pngwutil.c ****       int ret; /* zlib return code */
 363              		.loc 1 333 7 view .LVU75
 334:fltk-1.3.4-1/png/pngwutil.c **** 
 335:fltk-1.3.4-1/png/pngwutil.c ****       if (owner == png_IDAT)
 364              		.loc 1 335 7 view .LVU76
 365 003b 8BBD3001 		movl	304(%rbp), %edi
 365      0000
 366              		.loc 1 335 10 is_stmt 0 view .LVU77
 367 0041 4181FC54 		cmpl	$1229209940, %r12d
 367      414449
 368 0048 0F844201 		je	.L57
 368      0000
 336:fltk-1.3.4-1/png/pngwutil.c ****       {
 337:fltk-1.3.4-1/png/pngwutil.c ****          if ((png_ptr->flags & PNG_FLAG_ZLIB_CUSTOM_STRATEGY) != 0)
 338:fltk-1.3.4-1/png/pngwutil.c ****             strategy = png_ptr->zlib_strategy;
 339:fltk-1.3.4-1/png/pngwutil.c **** 
 340:fltk-1.3.4-1/png/pngwutil.c ****          else if (png_ptr->do_filter != PNG_FILTER_NONE)
 341:fltk-1.3.4-1/png/pngwutil.c ****             strategy = PNG_Z_DEFAULT_STRATEGY;
 342:fltk-1.3.4-1/png/pngwutil.c **** 
 343:fltk-1.3.4-1/png/pngwutil.c ****          else
 344:fltk-1.3.4-1/png/pngwutil.c ****             strategy = PNG_Z_DEFAULT_NOFILTER_STRATEGY;
 345:fltk-1.3.4-1/png/pngwutil.c ****       }
 346:fltk-1.3.4-1/png/pngwutil.c **** 
 347:fltk-1.3.4-1/png/pngwutil.c ****       else
 348:fltk-1.3.4-1/png/pngwutil.c ****       {
 349:fltk-1.3.4-1/png/pngwutil.c **** #ifdef PNG_WRITE_CUSTOMIZE_ZTXT_COMPRESSION_SUPPORTED
 350:fltk-1.3.4-1/png/pngwutil.c ****             level = png_ptr->zlib_text_level;
 369              		.loc 1 350 13 is_stmt 1 view .LVU78
 370              		.loc 1 350 19 is_stmt 0 view .LVU79
 371 004e 448BB5D0 		movl	464(%rbp), %r14d
 371      010000
 372              	.LVL24:
 351:fltk-1.3.4-1/png/pngwutil.c ****             method = png_ptr->zlib_text_method;
 373              		.loc 1 351 13 is_stmt 1 view .LVU80
 374              		.loc 1 351 20 is_stmt 0 view .LVU81
 375 0055 448BBDD4 		movl	468(%rbp), %r15d
 375      010000
 376              	.LVL25:
 352:fltk-1.3.4-1/png/pngwutil.c ****             windowBits = png_ptr->zlib_text_window_bits;
 377              		.loc 1 352 13 is_stmt 1 view .LVU82
 378              		.loc 1 352 24 is_stmt 0 view .LVU83
 379 005c 448BADD8 		movl	472(%rbp), %r13d
 379      010000
 380              	.LVL26:
 353:fltk-1.3.4-1/png/pngwutil.c ****             memLevel = png_ptr->zlib_text_mem_level;
 381              		.loc 1 353 13 is_stmt 1 view .LVU84
 382              		.loc 1 353 22 is_stmt 0 view .LVU85
 383 0063 448B85DC 		movl	476(%rbp), %r8d
 383      010000
 384              	.LVL27:
 354:fltk-1.3.4-1/png/pngwutil.c ****             strategy = png_ptr->zlib_text_strategy;
 385              		.loc 1 354 13 is_stmt 1 view .LVU86
 386              		.loc 1 354 22 is_stmt 0 view .LVU87
 387 006a 448B8DE0 		movl	480(%rbp), %r9d
 387      010000
 388              	.LVL28:
 389              	.L36:
 355:fltk-1.3.4-1/png/pngwutil.c **** #else
 356:fltk-1.3.4-1/png/pngwutil.c ****             /* If customization is not supported the values all come from the
 357:fltk-1.3.4-1/png/pngwutil.c ****              * IDAT values except for the strategy, which is fixed to the
 358:fltk-1.3.4-1/png/pngwutil.c ****              * default.  (This is the pre-1.6.0 behavior too, although it was
 359:fltk-1.3.4-1/png/pngwutil.c ****              * implemented in a very different way.)
 360:fltk-1.3.4-1/png/pngwutil.c ****              */
 361:fltk-1.3.4-1/png/pngwutil.c ****             strategy = Z_DEFAULT_STRATEGY;
 362:fltk-1.3.4-1/png/pngwutil.c **** #endif
 363:fltk-1.3.4-1/png/pngwutil.c ****       }
 364:fltk-1.3.4-1/png/pngwutil.c **** 
 365:fltk-1.3.4-1/png/pngwutil.c ****       /* Adjust 'windowBits' down if larger than 'data_size'; to stop this
 366:fltk-1.3.4-1/png/pngwutil.c ****        * happening just pass 32768 as the data_size parameter.  Notice that zlib
 367:fltk-1.3.4-1/png/pngwutil.c ****        * requires an extra 262 bytes in the window in addition to the data to be
 368:fltk-1.3.4-1/png/pngwutil.c ****        * able to see the whole of the data, so if data_size+262 takes us to the
 369:fltk-1.3.4-1/png/pngwutil.c ****        * next windowBits size we need to fix up the value later.  (Because even
 370:fltk-1.3.4-1/png/pngwutil.c ****        * though deflate needs the extra window, inflate does not!)
 371:fltk-1.3.4-1/png/pngwutil.c ****        */
 372:fltk-1.3.4-1/png/pngwutil.c ****       if (data_size <= 16384)
 390              		.loc 1 372 7 is_stmt 1 view .LVU88
 391              		.loc 1 372 10 is_stmt 0 view .LVU89
 392 0071 4881FB00 		cmpq	$16384, %rbx
 392      400000
 393 0078 772D     		ja	.L37
 394              	.LBB216:
 373:fltk-1.3.4-1/png/pngwutil.c ****       {
 374:fltk-1.3.4-1/png/pngwutil.c ****          /* IMPLEMENTATION NOTE: this 'half_window_size' stuff is only here to
 375:fltk-1.3.4-1/png/pngwutil.c ****           * work round a Microsoft Visual C misbehavior which, contrary to C-90,
 376:fltk-1.3.4-1/png/pngwutil.c ****           * widens the result of the following shift to 64-bits if (and,
 377:fltk-1.3.4-1/png/pngwutil.c ****           * apparently, only if) it is used in a test.
 378:fltk-1.3.4-1/png/pngwutil.c ****           */
 379:fltk-1.3.4-1/png/pngwutil.c ****          unsigned int half_window_size = 1U << (windowBits-1);
 395              		.loc 1 379 10 is_stmt 1 view .LVU90
 396              		.loc 1 379 59 is_stmt 0 view .LVU91
 397 007a 418D4DFF 		leal	-1(%r13), %ecx
 398              		.loc 1 379 23 view .LVU92
 399 007e B8010000 		movl	$1, %eax
 399      00
 380:fltk-1.3.4-1/png/pngwutil.c **** 
 381:fltk-1.3.4-1/png/pngwutil.c ****          while (data_size + 262 <= half_window_size)
 400              		.loc 1 381 27 view .LVU93
 401 0083 4881C306 		addq	$262, %rbx
 401      010000
 402              	.LVL29:
 379:fltk-1.3.4-1/png/pngwutil.c **** 
 403              		.loc 1 379 23 view .LVU94
 404 008a D3E0     		sall	%cl, %eax
 405              	.LVL30:
 406              		.loc 1 381 10 is_stmt 1 view .LVU95
 407              		.loc 1 381 16 view .LVU96
 408              		.loc 1 381 33 is_stmt 0 view .LVU97
 409 008c 89C2     		movl	%eax, %edx
 410              		.loc 1 381 16 view .LVU98
 411 008e 4839DA   		cmpq	%rbx, %rdx
 412 0091 7308     		jnb	.L38
 413              		.loc 1 381 16 view .LVU99
 414 0093 EB12     		jmp	.L37
 415              	.LVL31:
 416              		.p2align 4,,10
 417 0095 0F1F00   		.p2align 3
 418              	.L58:
 419              		.loc 1 381 16 view .LVU100
 420 0098 83E901   		subl	$1, %ecx
 421              	.LVL32:
 422              	.L38:
 382:fltk-1.3.4-1/png/pngwutil.c ****          {
 383:fltk-1.3.4-1/png/pngwutil.c ****             half_window_size >>= 1;
 423              		.loc 1 383 13 is_stmt 1 view .LVU101
 424              		.loc 1 383 30 is_stmt 0 view .LVU102
 425 009b D1E8     		shrl	%eax
 426              	.LVL33:
 384:fltk-1.3.4-1/png/pngwutil.c ****             --windowBits;
 427              		.loc 1 384 13 is_stmt 1 view .LVU103
 428              		.loc 1 384 13 is_stmt 0 view .LVU104
 429 009d 4189CD   		movl	%ecx, %r13d
 381:fltk-1.3.4-1/png/pngwutil.c ****          {
 430              		.loc 1 381 16 is_stmt 1 view .LVU105
 381:fltk-1.3.4-1/png/pngwutil.c ****          {
 431              		.loc 1 381 33 is_stmt 0 view .LVU106
 432 00a0 89C6     		movl	%eax, %esi
 381:fltk-1.3.4-1/png/pngwutil.c ****          {
 433              		.loc 1 381 16 view .LVU107
 434 00a2 4839DE   		cmpq	%rbx, %rsi
 435 00a5 73F1     		jnb	.L58
 436              	.LVL34:
 437              	.L37:
 381:fltk-1.3.4-1/png/pngwutil.c ****          {
 438              		.loc 1 381 16 view .LVU108
 439              	.LBE216:
 385:fltk-1.3.4-1/png/pngwutil.c ****          }
 386:fltk-1.3.4-1/png/pngwutil.c ****       }
 387:fltk-1.3.4-1/png/pngwutil.c **** 
 388:fltk-1.3.4-1/png/pngwutil.c ****       /* Check against the previous initialized values, if any. */
 389:fltk-1.3.4-1/png/pngwutil.c ****       if ((png_ptr->flags & PNG_FLAG_ZSTREAM_INITIALIZED) != 0 &&
 440              		.loc 1 389 7 is_stmt 1 view .LVU109
 441              		.loc 1 389 10 is_stmt 0 view .LVU110
 442 00a7 83E702   		andl	$2, %edi
 443 00aa 488D9D40 		leaq	320(%rbp), %rbx
 443      010000
 444 00b1 7441     		je	.L55
 445              		.loc 1 389 64 discriminator 1 view .LVU111
 446 00b3 4439B5E4 		cmpl	%r14d, 484(%rbp)
 446      010000
 447 00ba 750D     		jne	.L40
 390:fltk-1.3.4-1/png/pngwutil.c ****          (png_ptr->zlib_set_level != level ||
 448              		.loc 1 390 44 view .LVU112
 449 00bc 4439BDE8 		cmpl	%r15d, 488(%rbp)
 449      010000
 450 00c3 0F846F01 		je	.L59
 450      0000
 451              	.L40:
 391:fltk-1.3.4-1/png/pngwutil.c ****          png_ptr->zlib_set_method != method ||
 392:fltk-1.3.4-1/png/pngwutil.c ****          png_ptr->zlib_set_window_bits != windowBits ||
 393:fltk-1.3.4-1/png/pngwutil.c ****          png_ptr->zlib_set_mem_level != memLevel ||
 394:fltk-1.3.4-1/png/pngwutil.c ****          png_ptr->zlib_set_strategy != strategy))
 395:fltk-1.3.4-1/png/pngwutil.c ****       {
 396:fltk-1.3.4-1/png/pngwutil.c ****          if (deflateEnd(&png_ptr->zstream) != Z_OK)
 452              		.loc 1 396 14 view .LVU113
 453 00c9 4889DF   		movq	%rbx, %rdi
 454 00cc 44894C24 		movl	%r9d, 12(%rsp)
 454      0C
 455 00d1 44894424 		movl	%r8d, 8(%rsp)
 455      08
 456              		.loc 1 396 10 is_stmt 1 view .LVU114
 457              		.loc 1 396 14 is_stmt 0 view .LVU115
 458 00d6 E8000000 		call	deflateEnd@PLT
 458      00
 459              	.LVL35:
 460              		.loc 1 396 13 view .LVU116
 461 00db 448B4424 		movl	8(%rsp), %r8d
 461      08
 462 00e0 448B4C24 		movl	12(%rsp), %r9d
 462      0C
 463 00e5 85C0     		testl	%eax, %eax
 464 00e7 0F85B301 		jne	.L60
 464      0000
 465              	.L42:
 397:fltk-1.3.4-1/png/pngwutil.c ****             png_warning(png_ptr, "deflateEnd failed (ignored)");
 398:fltk-1.3.4-1/png/pngwutil.c **** 
 399:fltk-1.3.4-1/png/pngwutil.c ****          png_ptr->flags &= ~PNG_FLAG_ZSTREAM_INITIALIZED;
 466              		.loc 1 399 10 is_stmt 1 view .LVU117
 467              		.loc 1 399 25 is_stmt 0 view .LVU118
 468 00ed 83A53001 		andl	$-3, 304(%rbp)
 468      0000FD
 469              	.LVL36:
 470              	.L55:
 400:fltk-1.3.4-1/png/pngwutil.c ****       }
 401:fltk-1.3.4-1/png/pngwutil.c **** 
 402:fltk-1.3.4-1/png/pngwutil.c ****       /* For safety clear out the input and output pointers (currently zlib
 403:fltk-1.3.4-1/png/pngwutil.c ****        * doesn't use them on Init, but it might in the future).
 404:fltk-1.3.4-1/png/pngwutil.c ****        */
 405:fltk-1.3.4-1/png/pngwutil.c ****       png_ptr->zstream.next_in = NULL;
 471              		.loc 1 405 7 is_stmt 1 view .LVU119
 406:fltk-1.3.4-1/png/pngwutil.c ****       png_ptr->zstream.avail_in = 0;
 407:fltk-1.3.4-1/png/pngwutil.c ****       png_ptr->zstream.next_out = NULL;
 408:fltk-1.3.4-1/png/pngwutil.c ****       png_ptr->zstream.avail_out = 0;
 409:fltk-1.3.4-1/png/pngwutil.c **** 
 410:fltk-1.3.4-1/png/pngwutil.c ****       /* Now initialize if required, setting the new parameters, otherwise just
 411:fltk-1.3.4-1/png/pngwutil.c ****        * to a simple reset to the previous parameters.
 412:fltk-1.3.4-1/png/pngwutil.c ****        */
 413:fltk-1.3.4-1/png/pngwutil.c ****       if ((png_ptr->flags & PNG_FLAG_ZSTREAM_INITIALIZED) != 0)
 414:fltk-1.3.4-1/png/pngwutil.c ****          ret = deflateReset(&png_ptr->zstream);
 415:fltk-1.3.4-1/png/pngwutil.c **** 
 416:fltk-1.3.4-1/png/pngwutil.c ****       else
 417:fltk-1.3.4-1/png/pngwutil.c ****       {
 418:fltk-1.3.4-1/png/pngwutil.c ****          ret = deflateInit2(&png_ptr->zstream, level, method, windowBits,
 472              		.loc 1 418 16 is_stmt 0 view .LVU120
 473 00f4 488D0500 		leaq	.LC3(%rip), %rax
 473      000000
 474 00fb 6A70     		pushq	$112
 475              		.cfi_def_cfa_offset 168
 476 00fd 4489E9   		movl	%r13d, %ecx
 477 0100 4489FA   		movl	%r15d, %edx
 478 0103 50       		pushq	%rax
 479              		.cfi_def_cfa_offset 176
 480 0104 4489F6   		movl	%r14d, %esi
 481 0107 4889DF   		movq	%rbx, %rdi
 405:fltk-1.3.4-1/png/pngwutil.c ****       png_ptr->zstream.avail_in = 0;
 482              		.loc 1 405 32 view .LVU121
 483 010a 48C78540 		movq	$0, 320(%rbp)
 483      01000000 
 483      000000
 406:fltk-1.3.4-1/png/pngwutil.c ****       png_ptr->zstream.avail_in = 0;
 484              		.loc 1 406 7 is_stmt 1 view .LVU122
 406:fltk-1.3.4-1/png/pngwutil.c ****       png_ptr->zstream.avail_in = 0;
 485              		.loc 1 406 33 is_stmt 0 view .LVU123
 486 0115 C7854801 		movl	$0, 328(%rbp)
 486      00000000 
 486      0000
 407:fltk-1.3.4-1/png/pngwutil.c ****       png_ptr->zstream.avail_out = 0;
 487              		.loc 1 407 7 is_stmt 1 view .LVU124
 407:fltk-1.3.4-1/png/pngwutil.c ****       png_ptr->zstream.avail_out = 0;
 488              		.loc 1 407 33 is_stmt 0 view .LVU125
 489 011f 48C78558 		movq	$0, 344(%rbp)
 489      01000000 
 489      000000
 408:fltk-1.3.4-1/png/pngwutil.c **** 
 490              		.loc 1 408 7 is_stmt 1 view .LVU126
 408:fltk-1.3.4-1/png/pngwutil.c **** 
 491              		.loc 1 408 34 is_stmt 0 view .LVU127
 492 012a C7856001 		movl	$0, 352(%rbp)
 492      00000000 
 492      0000
 413:fltk-1.3.4-1/png/pngwutil.c ****          ret = deflateReset(&png_ptr->zstream);
 493              		.loc 1 413 7 is_stmt 1 view .LVU128
 494              		.loc 1 418 10 view .LVU129
 495              		.loc 1 418 16 is_stmt 0 view .LVU130
 496 0134 E8000000 		call	deflateInit2_@PLT
 496      00
 497              	.LVL37:
 419:fltk-1.3.4-1/png/pngwutil.c ****             memLevel, strategy);
 420:fltk-1.3.4-1/png/pngwutil.c **** 
 421:fltk-1.3.4-1/png/pngwutil.c ****          if (ret == Z_OK)
 498              		.loc 1 421 10 is_stmt 1 view .LVU131
 499              		.loc 1 421 13 is_stmt 0 view .LVU132
 500 0139 5A       		popq	%rdx
 501              		.cfi_def_cfa_offset 168
 502 013a 59       		popq	%rcx
 503              		.cfi_def_cfa_offset 160
 504 013b 85C0     		testl	%eax, %eax
 505 013d 7439     		je	.L61
 506              	.L43:
 422:fltk-1.3.4-1/png/pngwutil.c ****             png_ptr->flags |= PNG_FLAG_ZSTREAM_INITIALIZED;
 423:fltk-1.3.4-1/png/pngwutil.c ****       }
 424:fltk-1.3.4-1/png/pngwutil.c **** 
 425:fltk-1.3.4-1/png/pngwutil.c ****       /* The return code is from either deflateReset or deflateInit2; they have
 426:fltk-1.3.4-1/png/pngwutil.c ****        * pretty much the same set of error codes.
 427:fltk-1.3.4-1/png/pngwutil.c ****        */
 428:fltk-1.3.4-1/png/pngwutil.c ****       if (ret == Z_OK)
 429:fltk-1.3.4-1/png/pngwutil.c ****          png_ptr->zowner = owner;
 430:fltk-1.3.4-1/png/pngwutil.c **** 
 431:fltk-1.3.4-1/png/pngwutil.c ****       else
 432:fltk-1.3.4-1/png/pngwutil.c ****          png_zstream_error(png_ptr, ret);
 507              		.loc 1 432 10 is_stmt 1 view .LVU133
 508 013f 89C6     		movl	%eax, %esi
 509 0141 4889EF   		movq	%rbp, %rdi
 510 0144 89442408 		movl	%eax, 8(%rsp)
 511 0148 E8000000 		call	png_zstream_error@PLT
 511      00
 512              	.LVL38:
 513              		.loc 1 432 10 is_stmt 0 view .LVU134
 514 014d 8B442408 		movl	8(%rsp), %eax
 515              	.LVL39:
 516              	.L30:
 517              		.loc 1 432 10 view .LVU135
 518              	.LBE215:
 433:fltk-1.3.4-1/png/pngwutil.c **** 
 434:fltk-1.3.4-1/png/pngwutil.c ****       return ret;
 435:fltk-1.3.4-1/png/pngwutil.c ****    }
 436:fltk-1.3.4-1/png/pngwutil.c **** }
 519              		.loc 1 436 1 view .LVU136
 520 0151 488B5424 		movq	88(%rsp), %rdx
 520      58
 521 0156 64483314 		xorq	%fs:40, %rdx
 521      25280000 
 521      00
 522 015f 0F857101 		jne	.L62
 522      0000
 523 0165 4883C468 		addq	$104, %rsp
 524              		.cfi_remember_state
 525              		.cfi_def_cfa_offset 56
 526 0169 5B       		popq	%rbx
 527              		.cfi_def_cfa_offset 48
 528 016a 5D       		popq	%rbp
 529              		.cfi_def_cfa_offset 40
 530              	.LVL40:
 531              		.loc 1 436 1 view .LVU137
 532 016b 415C     		popq	%r12
 533              		.cfi_def_cfa_offset 32
 534              	.LVL41:
 535              		.loc 1 436 1 view .LVU138
 536 016d 415D     		popq	%r13
 537              		.cfi_def_cfa_offset 24
 538 016f 415E     		popq	%r14
 539              		.cfi_def_cfa_offset 16
 540 0171 415F     		popq	%r15
 541              		.cfi_def_cfa_offset 8
 542 0173 C3       		ret
 543              	.LVL42:
 544              		.p2align 4,,10
 545 0174 0F1F4000 		.p2align 3
 546              	.L61:
 547              		.cfi_restore_state
 548              	.LBB217:
 422:fltk-1.3.4-1/png/pngwutil.c ****             png_ptr->flags |= PNG_FLAG_ZSTREAM_INITIALIZED;
 549              		.loc 1 422 13 is_stmt 1 view .LVU139
 422:fltk-1.3.4-1/png/pngwutil.c ****             png_ptr->flags |= PNG_FLAG_ZSTREAM_INITIALIZED;
 550              		.loc 1 422 28 is_stmt 0 view .LVU140
 551 0178 838D3001 		orl	$2, 304(%rbp)
 551      000002
 552              	.LVL43:
 428:fltk-1.3.4-1/png/pngwutil.c ****          png_ptr->zowner = owner;
 553              		.loc 1 428 7 is_stmt 1 view .LVU141
 554              	.L44:
 429:fltk-1.3.4-1/png/pngwutil.c **** 
 555              		.loc 1 429 10 view .LVU142
 429:fltk-1.3.4-1/png/pngwutil.c **** 
 556              		.loc 1 429 26 is_stmt 0 view .LVU143
 557 017f 4489A538 		movl	%r12d, 312(%rbp)
 557      010000
 558 0186 31C0     		xorl	%eax, %eax
 559 0188 EBC7     		jmp	.L30
 560              	.LVL44:
 561 018a 660F1F44 		.p2align 4,,10
 561      0000
 562              		.p2align 3
 563              	.L57:
 328:fltk-1.3.4-1/png/pngwutil.c ****       int method = png_ptr->zlib_method;
 564              		.loc 1 328 11 view .LVU144
 565 0190 448BB5BC 		movl	444(%rbp), %r14d
 565      010000
 329:fltk-1.3.4-1/png/pngwutil.c ****       int windowBits = png_ptr->zlib_window_bits;
 566              		.loc 1 329 11 view .LVU145
 567 0197 448BBDC0 		movl	448(%rbp), %r15d
 567      010000
 330:fltk-1.3.4-1/png/pngwutil.c ****       int memLevel = png_ptr->zlib_mem_level;
 568              		.loc 1 330 11 view .LVU146
 569 019e 448BADC4 		movl	452(%rbp), %r13d
 569      010000
 331:fltk-1.3.4-1/png/pngwutil.c ****       int strategy; /* set below */
 570              		.loc 1 331 11 view .LVU147
 571 01a5 448B85C8 		movl	456(%rbp), %r8d
 571      010000
 337:fltk-1.3.4-1/png/pngwutil.c ****             strategy = png_ptr->zlib_strategy;
 572              		.loc 1 337 10 is_stmt 1 view .LVU148
 337:fltk-1.3.4-1/png/pngwutil.c ****             strategy = png_ptr->zlib_strategy;
 573              		.loc 1 337 13 is_stmt 0 view .LVU149
 574 01ac 40F6C701 		testb	$1, %dil
 575 01b0 746E     		je	.L35
 338:fltk-1.3.4-1/png/pngwutil.c **** 
 576              		.loc 1 338 13 is_stmt 1 view .LVU150
 338:fltk-1.3.4-1/png/pngwutil.c **** 
 577              		.loc 1 338 22 is_stmt 0 view .LVU151
 578 01b2 448B8DCC 		movl	460(%rbp), %r9d
 578      010000
 579              	.LVL45:
 338:fltk-1.3.4-1/png/pngwutil.c **** 
 580              		.loc 1 338 22 view .LVU152
 581 01b9 E9B3FEFF 		jmp	.L36
 581      FF
 582              	.LVL46:
 583 01be 6690     		.p2align 4,,10
 584              		.p2align 3
 585              	.L56:
 338:fltk-1.3.4-1/png/pngwutil.c **** 
 586              		.loc 1 338 22 view .LVU153
 587 01c0 89F2     		movl	%esi, %edx
 588              	.LVL47:
 338:fltk-1.3.4-1/png/pngwutil.c **** 
 589              		.loc 1 338 22 view .LVU154
 590              	.LBE217:
 591              	.LBB218:
 309:fltk-1.3.4-1/png/pngwutil.c **** #endif
 592              		.loc 1 309 13 view .LVU155
 593 01c2 4C8D6C24 		leaq	16(%rsp), %r13
 593      10
 302:fltk-1.3.4-1/png/pngwutil.c ****       msg[5] = ' ';
 594              		.loc 1 302 14 view .LVU156
 595 01c7 BE3A2000 		movl	$8250, %esi
 595      00
 596              	.LVL48:
 302:fltk-1.3.4-1/png/pngwutil.c ****       msg[5] = ' ';
 597              		.loc 1 302 14 view .LVU157
 598 01cc 0FC8     		bswap	%eax
 299:fltk-1.3.4-1/png/pngwutil.c **** 
 599              		.loc 1 299 7 is_stmt 1 view .LVU158
 301:fltk-1.3.4-1/png/pngwutil.c ****       msg[4] = ':';
 600              		.loc 1 301 7 view .LVU159
 309:fltk-1.3.4-1/png/pngwutil.c **** #endif
 601              		.loc 1 309 13 is_stmt 0 view .LVU160
 602 01ce 488D0D00 		leaq	.LC0(%rip), %rcx
 602      000000
 302:fltk-1.3.4-1/png/pngwutil.c ****       msg[5] = ' ';
 603              		.loc 1 302 14 view .LVU161
 604 01d5 66897424 		movw	%si, 20(%rsp)
 604      14
 309:fltk-1.3.4-1/png/pngwutil.c **** #endif
 605              		.loc 1 309 13 view .LVU162
 606 01da 4C89EF   		movq	%r13, %rdi
 607 01dd BE400000 		movl	$64, %esi
 607      00
 608 01e2 0FCA     		bswap	%edx
 301:fltk-1.3.4-1/png/pngwutil.c ****       msg[4] = ':';
 609              		.loc 1 301 7 view .LVU163
 610 01e4 89542410 		movl	%edx, 16(%rsp)
 302:fltk-1.3.4-1/png/pngwutil.c ****       msg[5] = ' ';
 611              		.loc 1 302 7 is_stmt 1 view .LVU164
 303:fltk-1.3.4-1/png/pngwutil.c ****       PNG_STRING_FROM_CHUNK(msg+6, png_ptr->zowner);
 612              		.loc 1 303 7 view .LVU165
 304:fltk-1.3.4-1/png/pngwutil.c ****       /* So the message that results is "<chunk> using zstream"; this is an
 613              		.loc 1 304 7 view .LVU166
 309:fltk-1.3.4-1/png/pngwutil.c **** #endif
 614              		.loc 1 309 13 is_stmt 0 view .LVU167
 615 01e8 BA0A0000 		movl	$10, %edx
 615      00
 304:fltk-1.3.4-1/png/pngwutil.c ****       /* So the message that results is "<chunk> using zstream"; this is an
 616              		.loc 1 304 7 view .LVU168
 617 01ed 89442416 		movl	%eax, 22(%rsp)
 309:fltk-1.3.4-1/png/pngwutil.c **** #endif
 618              		.loc 1 309 7 is_stmt 1 view .LVU169
 309:fltk-1.3.4-1/png/pngwutil.c **** #endif
 619              		.loc 1 309 13 is_stmt 0 view .LVU170
 620 01f1 E8000000 		call	png_safecat@PLT
 620      00
 621              	.LVL49:
 312:fltk-1.3.4-1/png/pngwutil.c **** 
 622              		.loc 1 312 10 is_stmt 1 view .LVU171
 623 01f6 4C89EE   		movq	%r13, %rsi
 624 01f9 4889EF   		movq	%rbp, %rdi
 625 01fc E8000000 		call	png_warning@PLT
 625      00
 626              	.LVL50:
 315:fltk-1.3.4-1/png/pngwutil.c ****          {
 627              		.loc 1 315 10 view .LVU172
 315:fltk-1.3.4-1/png/pngwutil.c ****          {
 628              		.loc 1 315 13 is_stmt 0 view .LVU173
 629 0201 81BD3801 		cmpl	$1229209940, 312(%rbp)
 629      00005441 
 629      4449
 630 020b 0F84AD00 		je	.L63
 630      0000
 321:fltk-1.3.4-1/png/pngwutil.c **** #else
 631              		.loc 1 321 10 is_stmt 1 view .LVU174
 321:fltk-1.3.4-1/png/pngwutil.c **** #else
 632              		.loc 1 321 26 is_stmt 0 view .LVU175
 633 0211 C7853801 		movl	$0, 312(%rbp)
 633      00000000 
 633      0000
 634 021b E91BFEFF 		jmp	.L31
 634      FF
 635              	.LVL51:
 636              		.p2align 4,,10
 637              		.p2align 3
 638              	.L35:
 321:fltk-1.3.4-1/png/pngwutil.c **** #else
 639              		.loc 1 321 26 view .LVU176
 640              	.LBE218:
 641              	.LBB219:
 340:fltk-1.3.4-1/png/pngwutil.c ****             strategy = PNG_Z_DEFAULT_STRATEGY;
 642              		.loc 1 340 15 is_stmt 1 view .LVU177
 340:fltk-1.3.4-1/png/pngwutil.c ****             strategy = PNG_Z_DEFAULT_STRATEGY;
 643              		.loc 1 340 18 is_stmt 0 view .LVU178
 644 0220 4531C9   		xorl	%r9d, %r9d
 645 0223 80BD7602 		cmpb	$8, 630(%rbp)
 645      000008
 646 022a 410F95C1 		setne	%r9b
 647 022e E93EFEFF 		jmp	.L36
 647      FF
 648              	.LVL52:
 649              		.p2align 4,,10
 650 0233 0F1F4400 		.p2align 3
 650      00
 651              	.L59:
 391:fltk-1.3.4-1/png/pngwutil.c ****          png_ptr->zlib_set_window_bits != windowBits ||
 652              		.loc 1 391 45 view .LVU179
 653 0238 4439ADEC 		cmpl	%r13d, 492(%rbp)
 653      010000
 654 023f 0F8584FE 		jne	.L40
 654      FFFF
 392:fltk-1.3.4-1/png/pngwutil.c ****          png_ptr->zlib_set_mem_level != memLevel ||
 655              		.loc 1 392 54 view .LVU180
 656 0245 443985F0 		cmpl	%r8d, 496(%rbp)
 656      010000
 657 024c 0F8577FE 		jne	.L40
 657      FFFF
 393:fltk-1.3.4-1/png/pngwutil.c ****          png_ptr->zlib_set_strategy != strategy))
 658              		.loc 1 393 50 view .LVU181
 659 0252 44398DF4 		cmpl	%r9d, 500(%rbp)
 659      010000
 660 0259 0F856AFE 		jne	.L40
 660      FFFF
 405:fltk-1.3.4-1/png/pngwutil.c ****       png_ptr->zstream.avail_in = 0;
 661              		.loc 1 405 7 is_stmt 1 view .LVU182
 405:fltk-1.3.4-1/png/pngwutil.c ****       png_ptr->zstream.avail_in = 0;
 662              		.loc 1 405 32 is_stmt 0 view .LVU183
 663 025f 48C78540 		movq	$0, 320(%rbp)
 663      01000000 
 663      000000
 406:fltk-1.3.4-1/png/pngwutil.c ****       png_ptr->zstream.next_out = NULL;
 664              		.loc 1 406 7 is_stmt 1 view .LVU184
 414:fltk-1.3.4-1/png/pngwutil.c **** 
 665              		.loc 1 414 16 is_stmt 0 view .LVU185
 666 026a 4889DF   		movq	%rbx, %rdi
 406:fltk-1.3.4-1/png/pngwutil.c ****       png_ptr->zstream.next_out = NULL;
 667              		.loc 1 406 33 view .LVU186
 668 026d C7854801 		movl	$0, 328(%rbp)
 668      00000000 
 668      0000
 407:fltk-1.3.4-1/png/pngwutil.c ****       png_ptr->zstream.avail_out = 0;
 669              		.loc 1 407 7 is_stmt 1 view .LVU187
 407:fltk-1.3.4-1/png/pngwutil.c ****       png_ptr->zstream.avail_out = 0;
 670              		.loc 1 407 33 is_stmt 0 view .LVU188
 671 0277 48C78558 		movq	$0, 344(%rbp)
 671      01000000 
 671      000000
 408:fltk-1.3.4-1/png/pngwutil.c **** 
 672              		.loc 1 408 7 is_stmt 1 view .LVU189
 408:fltk-1.3.4-1/png/pngwutil.c **** 
 673              		.loc 1 408 34 is_stmt 0 view .LVU190
 674 0282 C7856001 		movl	$0, 352(%rbp)
 674      00000000 
 674      0000
 413:fltk-1.3.4-1/png/pngwutil.c ****          ret = deflateReset(&png_ptr->zstream);
 675              		.loc 1 413 7 is_stmt 1 view .LVU191
 414:fltk-1.3.4-1/png/pngwutil.c **** 
 676              		.loc 1 414 10 view .LVU192
 414:fltk-1.3.4-1/png/pngwutil.c **** 
 677              		.loc 1 414 16 is_stmt 0 view .LVU193
 678 028c E8000000 		call	deflateReset@PLT
 678      00
 679              	.LVL53:
 428:fltk-1.3.4-1/png/pngwutil.c ****          png_ptr->zowner = owner;
 680              		.loc 1 428 7 is_stmt 1 view .LVU194
 428:fltk-1.3.4-1/png/pngwutil.c ****          png_ptr->zowner = owner;
 681              		.loc 1 428 10 is_stmt 0 view .LVU195
 682 0291 85C0     		testl	%eax, %eax
 683 0293 0F84E6FE 		je	.L44
 683      FFFF
 684 0299 E9A1FEFF 		jmp	.L43
 684      FF
 685              	.LVL54:
 686 029e 6690     		.p2align 4,,10
 687              		.p2align 3
 688              	.L60:
 397:fltk-1.3.4-1/png/pngwutil.c **** 
 689              		.loc 1 397 13 is_stmt 1 view .LVU196
 690 02a0 488D3500 		leaq	.LC2(%rip), %rsi
 690      000000
 691 02a7 4889EF   		movq	%rbp, %rdi
 692 02aa E8000000 		call	png_warning@PLT
 692      00
 693              	.LVL55:
 694 02af 448B4C24 		movl	12(%rsp), %r9d
 694      0C
 695 02b4 448B4424 		movl	8(%rsp), %r8d
 695      08
 696 02b9 E92FFEFF 		jmp	.L42
 696      FF
 697              	.LVL56:
 698              	.L63:
 397:fltk-1.3.4-1/png/pngwutil.c **** 
 699              		.loc 1 397 13 is_stmt 0 view .LVU197
 700              	.LBE219:
 701              	.LBB220:
 317:fltk-1.3.4-1/png/pngwutil.c ****             return Z_STREAM_ERROR;
 702              		.loc 1 317 13 is_stmt 1 view .LVU198
 317:fltk-1.3.4-1/png/pngwutil.c ****             return Z_STREAM_ERROR;
 703              		.loc 1 317 34 is_stmt 0 view .LVU199
 704 02be 488D0500 		leaq	.LC1(%rip), %rax
 704      000000
 705 02c5 48898570 		movq	%rax, 368(%rbp)
 705      010000
 318:fltk-1.3.4-1/png/pngwutil.c ****          }
 706              		.loc 1 318 13 is_stmt 1 view .LVU200
 318:fltk-1.3.4-1/png/pngwutil.c ****          }
 707              		.loc 1 318 20 is_stmt 0 view .LVU201
 708 02cc B8FEFFFF 		movl	$-2, %eax
 708      FF
 709 02d1 E97BFEFF 		jmp	.L30
 709      FF
 710              	.LVL57:
 711              	.L62:
 318:fltk-1.3.4-1/png/pngwutil.c ****          }
 712              		.loc 1 318 20 view .LVU202
 713              	.LBE220:
 714              		.loc 1 436 1 view .LVU203
 715 02d6 E8000000 		call	__stack_chk_fail@PLT
 715      00
 716              	.LVL58:
 717              		.cfi_endproc
 718              	.LFE52:
 720              		.section	.text.optimize_cmf.part.0,"ax",@progbits
 721              		.p2align 4
 723              	optimize_cmf.part.0:
 724              	.LVL59:
 725              	.LFB84:
 251:fltk-1.3.4-1/png/pngwutil.c **** {
 726              		.loc 1 251 1 is_stmt 1 view -0
 727              		.cfi_startproc
 728              	.LBB221:
 258:fltk-1.3.4-1/png/pngwutil.c **** 
 729              		.loc 1 258 7 view .LVU205
 258:fltk-1.3.4-1/png/pngwutil.c **** 
 730              		.loc 1 258 32 is_stmt 0 view .LVU206
 731 0000 0FB607   		movzbl	(%rdi), %eax
 732              	.LVL60:
 260:fltk-1.3.4-1/png/pngwutil.c ****       {
 733              		.loc 1 260 7 is_stmt 1 view .LVU207
 734 0003 4189C0   		movl	%eax, %r8d
 735 0006 4183E00F 		andl	$15, %r8d
 260:fltk-1.3.4-1/png/pngwutil.c ****       {
 736              		.loc 1 260 10 is_stmt 0 view .LVU208
 737 000a 4180F808 		cmpb	$8, %r8b
 738 000e 7408     		je	.L70
 739              	.LVL61:
 740              	.L64:
 260:fltk-1.3.4-1/png/pngwutil.c ****       {
 741              		.loc 1 260 10 view .LVU209
 742              	.LBE221:
 288:fltk-1.3.4-1/png/pngwutil.c **** #endif /* WRITE_OPTIMIZE_CMF */
 743              		.loc 1 288 1 view .LVU210
 744 0010 C3       		ret
 745              	.LVL62:
 746              		.p2align 4,,10
 747 0011 0F1F8000 		.p2align 3
 747      000000
 748              	.L70:
 749              	.LBB224:
 260:fltk-1.3.4-1/png/pngwutil.c ****       {
 750              		.loc 1 260 31 view .LVU211
 751 0018 89C2     		movl	%eax, %edx
 752 001a 83E2F0   		andl	$-16, %edx
 753 001d 80FA70   		cmpb	$112, %dl
 754 0020 77EE     		ja	.L64
 755              	.LBB222:
 262:fltk-1.3.4-1/png/pngwutil.c ****          unsigned int half_z_window_size;
 756              		.loc 1 262 10 is_stmt 1 view .LVU212
 263:fltk-1.3.4-1/png/pngwutil.c **** 
 757              		.loc 1 263 10 view .LVU213
 265:fltk-1.3.4-1/png/pngwutil.c ****          half_z_window_size = 1U << (z_cinfo + 7);
 758              		.loc 1 265 10 view .LVU214
 265:fltk-1.3.4-1/png/pngwutil.c ****          half_z_window_size = 1U << (z_cinfo + 7);
 759              		.loc 1 265 18 is_stmt 0 view .LVU215
 760 0022 C1E804   		shrl	$4, %eax
 761              	.LVL63:
 266:fltk-1.3.4-1/png/pngwutil.c **** 
 762              		.loc 1 266 10 is_stmt 1 view .LVU216
 266:fltk-1.3.4-1/png/pngwutil.c **** 
 763              		.loc 1 266 29 is_stmt 0 view .LVU217
 764 0025 BA010000 		movl	$1, %edx
 764      00
 266:fltk-1.3.4-1/png/pngwutil.c **** 
 765              		.loc 1 266 46 view .LVU218
 766 002a 8D4807   		leal	7(%rax), %ecx
 266:fltk-1.3.4-1/png/pngwutil.c **** 
 767              		.loc 1 266 29 view .LVU219
 768 002d D3E2     		sall	%cl, %edx
 769              	.LVL64:
 268:fltk-1.3.4-1/png/pngwutil.c ****          {
 770              		.loc 1 268 10 is_stmt 1 view .LVU220
 268:fltk-1.3.4-1/png/pngwutil.c ****          {
 771              		.loc 1 268 24 is_stmt 0 view .LVU221
 772 002f 89D1     		movl	%edx, %ecx
 268:fltk-1.3.4-1/png/pngwutil.c ****          {
 773              		.loc 1 268 13 view .LVU222
 774 0031 4839F1   		cmpq	%rsi, %rcx
 775 0034 72DA     		jb	.L64
 776 0036 EB0F     		jmp	.L67
 777 0038 0F1F8400 		.p2align 4,,10
 777      00000000 
 778              		.p2align 3
 779              	.L72:
 780              	.LBB223:
 277:fltk-1.3.4-1/png/pngwutil.c **** 
 781              		.loc 1 277 45 view .LVU223
 782 0040 89D1     		movl	%edx, %ecx
 277:fltk-1.3.4-1/png/pngwutil.c **** 
 783              		.loc 1 277 32 view .LVU224
 784 0042 4839CE   		cmpq	%rcx, %rsi
 785 0045 7749     		ja	.L71
 786              	.L67:
 270:fltk-1.3.4-1/png/pngwutil.c **** 
 787              		.loc 1 270 13 is_stmt 1 view .LVU225
 272:fltk-1.3.4-1/png/pngwutil.c ****             {
 788              		.loc 1 272 13 view .LVU226
 274:fltk-1.3.4-1/png/pngwutil.c ****                --z_cinfo;
 789              		.loc 1 274 16 view .LVU227
 274:fltk-1.3.4-1/png/pngwutil.c ****                --z_cinfo;
 790              		.loc 1 274 35 is_stmt 0 view .LVU228
 791 0047 D1EA     		shrl	%edx
 792              	.LVL65:
 275:fltk-1.3.4-1/png/pngwutil.c ****             }
 793              		.loc 1 275 16 is_stmt 1 view .LVU229
 277:fltk-1.3.4-1/png/pngwutil.c **** 
 794              		.loc 1 277 19 view .LVU230
 277:fltk-1.3.4-1/png/pngwutil.c **** 
 795              		.loc 1 277 13 is_stmt 0 view .LVU231
 796 0049 83E801   		subl	$1, %eax
 797              	.LVL66:
 277:fltk-1.3.4-1/png/pngwutil.c **** 
 798              		.loc 1 277 13 view .LVU232
 799 004c 75F2     		jne	.L72
 800 004e B8000800 		movl	$2048, %eax
 800      00
 801              	.LVL67:
 802              	.L66:
 279:fltk-1.3.4-1/png/pngwutil.c **** 
 803              		.loc 1 279 13 is_stmt 1 view .LVU233
 281:fltk-1.3.4-1/png/pngwutil.c ****             tmp = data[1] & 0xe0;
 804              		.loc 1 281 13 view .LVU234
 282:fltk-1.3.4-1/png/pngwutil.c ****             tmp += 0x1f - ((z_cmf << 8) + tmp) % 0x1f;
 805              		.loc 1 282 17 is_stmt 0 view .LVU235
 806 0053 0FB64F01 		movzbl	1(%rdi), %ecx
 281:fltk-1.3.4-1/png/pngwutil.c ****             tmp = data[1] & 0xe0;
 807              		.loc 1 281 21 view .LVU236
 808 0057 448807   		movb	%r8b, (%rdi)
 282:fltk-1.3.4-1/png/pngwutil.c ****             tmp += 0x1f - ((z_cmf << 8) + tmp) % 0x1f;
 809              		.loc 1 282 13 is_stmt 1 view .LVU237
 282:fltk-1.3.4-1/png/pngwutil.c ****             tmp += 0x1f - ((z_cmf << 8) + tmp) % 0x1f;
 810              		.loc 1 282 17 is_stmt 0 view .LVU238
 811 005a 81E1E000 		andl	$224, %ecx
 811      0000
 812              	.LVL68:
 283:fltk-1.3.4-1/png/pngwutil.c ****             data[1] = (png_byte)tmp;
 813              		.loc 1 283 13 is_stmt 1 view .LVU239
 283:fltk-1.3.4-1/png/pngwutil.c ****             data[1] = (png_byte)tmp;
 814              		.loc 1 283 41 is_stmt 0 view .LVU240
 815 0060 8D1408   		leal	(%rax,%rcx), %edx
 816              	.LVL69:
 283:fltk-1.3.4-1/png/pngwutil.c ****             data[1] = (png_byte)tmp;
 817              		.loc 1 283 41 view .LVU241
 818 0063 4889D0   		movq	%rdx, %rax
 283:fltk-1.3.4-1/png/pngwutil.c ****             data[1] = (png_byte)tmp;
 819              		.loc 1 283 48 view .LVU242
 820 0066 4869D285 		imulq	$138547333, %rdx, %rdx
 820      104208
 821 006d 29C1     		subl	%eax, %ecx
 822              	.LVL70:
 283:fltk-1.3.4-1/png/pngwutil.c ****             data[1] = (png_byte)tmp;
 823              		.loc 1 283 48 view .LVU243
 824 006f 48C1EA20 		shrq	$32, %rdx
 825 0073 4889D6   		movq	%rdx, %rsi
 826              	.LVL71:
 283:fltk-1.3.4-1/png/pngwutil.c ****             data[1] = (png_byte)tmp;
 827              		.loc 1 283 48 view .LVU244
 828 0076 89C2     		movl	%eax, %edx
 829 0078 29F2     		subl	%esi, %edx
 830 007a D1EA     		shrl	%edx
 831 007c 01F2     		addl	%esi, %edx
 832 007e C1EA04   		shrl	$4, %edx
 833 0081 89D6     		movl	%edx, %esi
 834 0083 C1E605   		sall	$5, %esi
 835 0086 29D6     		subl	%edx, %esi
 284:fltk-1.3.4-1/png/pngwutil.c ****          }
 836              		.loc 1 284 13 is_stmt 1 view .LVU245
 283:fltk-1.3.4-1/png/pngwutil.c ****             data[1] = (png_byte)tmp;
 837              		.loc 1 283 17 is_stmt 0 view .LVU246
 838 0088 8D44311F 		leal	31(%rcx,%rsi), %eax
 284:fltk-1.3.4-1/png/pngwutil.c ****          }
 839              		.loc 1 284 23 view .LVU247
 840 008c 884701   		movb	%al, 1(%rdi)
 841              	.LBE223:
 842              	.LBE222:
 843              	.LBE224:
 288:fltk-1.3.4-1/png/pngwutil.c **** #endif /* WRITE_OPTIMIZE_CMF */
 844              		.loc 1 288 1 view .LVU248
 845 008f C3       		ret
 846              	.LVL72:
 847              		.p2align 4,,10
 848              		.p2align 3
 849              	.L71:
 288:fltk-1.3.4-1/png/pngwutil.c **** #endif /* WRITE_OPTIMIZE_CMF */
 850              		.loc 1 288 1 view .LVU249
 851 0090 C1E004   		sall	$4, %eax
 852              	.LVL73:
 288:fltk-1.3.4-1/png/pngwutil.c **** #endif /* WRITE_OPTIMIZE_CMF */
 853              		.loc 1 288 1 view .LVU250
 854 0093 83C808   		orl	$8, %eax
 855 0096 4189C0   		movl	%eax, %r8d
 856 0099 C1E008   		sall	$8, %eax
 857 009c EBB5     		jmp	.L66
 858              		.cfi_endproc
 859              	.LFE84:
 861              		.section	.rodata.png_check_keyword.part.0.str1.1,"aMS",@progbits,1
 862              	.LC4:
 863 0000 6B657977 		.string	"keyword truncated"
 863      6F726420 
 863      7472756E 
 863      63617465 
 863      6400
 864              		.section	.rodata.png_check_keyword.part.0.str1.8,"aMS",@progbits,1
 865              		.align 8
 866              	.LC5:
 867 0000 6B657977 		.string	"keyword \"@1\": bad character '0x@2'"
 867      6F726420 
 867      22403122 
 867      3A206261 
 867      64206368 
 868              		.section	.text.png_check_keyword.part.0,"ax",@progbits
 869              		.p2align 4
 871              	png_check_keyword.part.0:
 872              	.LVL74:
 873              	.LFB85:
 437:fltk-1.3.4-1/png/pngwutil.c **** 
 438:fltk-1.3.4-1/png/pngwutil.c **** /* Clean up (or trim) a linked list of compression buffers. */
 439:fltk-1.3.4-1/png/pngwutil.c **** void /* PRIVATE */
 440:fltk-1.3.4-1/png/pngwutil.c **** png_free_buffer_list(png_structrp png_ptr, png_compression_bufferp *listp)
 441:fltk-1.3.4-1/png/pngwutil.c **** {
 442:fltk-1.3.4-1/png/pngwutil.c ****    png_compression_bufferp list = *listp;
 443:fltk-1.3.4-1/png/pngwutil.c **** 
 444:fltk-1.3.4-1/png/pngwutil.c ****    if (list != NULL)
 445:fltk-1.3.4-1/png/pngwutil.c ****    {
 446:fltk-1.3.4-1/png/pngwutil.c ****       *listp = NULL;
 447:fltk-1.3.4-1/png/pngwutil.c **** 
 448:fltk-1.3.4-1/png/pngwutil.c ****       do
 449:fltk-1.3.4-1/png/pngwutil.c ****       {
 450:fltk-1.3.4-1/png/pngwutil.c ****          png_compression_bufferp next = list->next;
 451:fltk-1.3.4-1/png/pngwutil.c **** 
 452:fltk-1.3.4-1/png/pngwutil.c ****          png_free(png_ptr, list);
 453:fltk-1.3.4-1/png/pngwutil.c ****          list = next;
 454:fltk-1.3.4-1/png/pngwutil.c ****       }
 455:fltk-1.3.4-1/png/pngwutil.c ****       while (list != NULL);
 456:fltk-1.3.4-1/png/pngwutil.c ****    }
 457:fltk-1.3.4-1/png/pngwutil.c **** }
 458:fltk-1.3.4-1/png/pngwutil.c **** 
 459:fltk-1.3.4-1/png/pngwutil.c **** #ifdef PNG_WRITE_COMPRESSED_TEXT_SUPPORTED
 460:fltk-1.3.4-1/png/pngwutil.c **** /* This pair of functions encapsulates the operation of (a) compressing a
 461:fltk-1.3.4-1/png/pngwutil.c ****  * text string, and (b) issuing it later as a series of chunk data writes.
 462:fltk-1.3.4-1/png/pngwutil.c ****  * The compression_state structure is shared context for these functions
 463:fltk-1.3.4-1/png/pngwutil.c ****  * set up by the caller to allow access to the relevant local variables.
 464:fltk-1.3.4-1/png/pngwutil.c ****  *
 465:fltk-1.3.4-1/png/pngwutil.c ****  * compression_buffer (new in 1.6.0) is just a linked list of zbuffer_size
 466:fltk-1.3.4-1/png/pngwutil.c ****  * temporary buffers.  From 1.6.0 it is retained in png_struct so that it will
 467:fltk-1.3.4-1/png/pngwutil.c ****  * be correctly freed in the event of a write error (previous implementations
 468:fltk-1.3.4-1/png/pngwutil.c ****  * just leaked memory.)
 469:fltk-1.3.4-1/png/pngwutil.c ****  */
 470:fltk-1.3.4-1/png/pngwutil.c **** typedef struct
 471:fltk-1.3.4-1/png/pngwutil.c **** {
 472:fltk-1.3.4-1/png/pngwutil.c ****    png_const_bytep      input;        /* The uncompressed input data */
 473:fltk-1.3.4-1/png/pngwutil.c ****    png_alloc_size_t     input_len;    /* Its length */
 474:fltk-1.3.4-1/png/pngwutil.c ****    png_uint_32          output_len;   /* Final compressed length */
 475:fltk-1.3.4-1/png/pngwutil.c ****    png_byte             output[1024]; /* First block of output */
 476:fltk-1.3.4-1/png/pngwutil.c **** } compression_state;
 477:fltk-1.3.4-1/png/pngwutil.c **** 
 478:fltk-1.3.4-1/png/pngwutil.c **** static void
 479:fltk-1.3.4-1/png/pngwutil.c **** png_text_compress_init(compression_state *comp, png_const_bytep input,
 480:fltk-1.3.4-1/png/pngwutil.c ****    png_alloc_size_t input_len)
 481:fltk-1.3.4-1/png/pngwutil.c **** {
 482:fltk-1.3.4-1/png/pngwutil.c ****    comp->input = input;
 483:fltk-1.3.4-1/png/pngwutil.c ****    comp->input_len = input_len;
 484:fltk-1.3.4-1/png/pngwutil.c ****    comp->output_len = 0;
 485:fltk-1.3.4-1/png/pngwutil.c **** }
 486:fltk-1.3.4-1/png/pngwutil.c **** 
 487:fltk-1.3.4-1/png/pngwutil.c **** /* Compress the data in the compression state input */
 488:fltk-1.3.4-1/png/pngwutil.c **** static int
 489:fltk-1.3.4-1/png/pngwutil.c **** png_text_compress(png_structrp png_ptr, png_uint_32 chunk_name,
 490:fltk-1.3.4-1/png/pngwutil.c ****    compression_state *comp, png_uint_32 prefix_len)
 491:fltk-1.3.4-1/png/pngwutil.c **** {
 492:fltk-1.3.4-1/png/pngwutil.c ****    int ret;
 493:fltk-1.3.4-1/png/pngwutil.c **** 
 494:fltk-1.3.4-1/png/pngwutil.c ****    /* To find the length of the output it is necessary to first compress the
 495:fltk-1.3.4-1/png/pngwutil.c ****     * input. The result is buffered rather than using the two-pass algorithm
 496:fltk-1.3.4-1/png/pngwutil.c ****     * that is used on the inflate side; deflate is assumed to be slower and a
 497:fltk-1.3.4-1/png/pngwutil.c ****     * PNG writer is assumed to have more memory available than a PNG reader.
 498:fltk-1.3.4-1/png/pngwutil.c ****     *
 499:fltk-1.3.4-1/png/pngwutil.c ****     * IMPLEMENTATION NOTE: the zlib API deflateBound() can be used to find an
 500:fltk-1.3.4-1/png/pngwutil.c ****     * upper limit on the output size, but it is always bigger than the input
 501:fltk-1.3.4-1/png/pngwutil.c ****     * size so it is likely to be more efficient to use this linked-list
 502:fltk-1.3.4-1/png/pngwutil.c ****     * approach.
 503:fltk-1.3.4-1/png/pngwutil.c ****     */
 504:fltk-1.3.4-1/png/pngwutil.c ****    ret = png_deflate_claim(png_ptr, chunk_name, comp->input_len);
 505:fltk-1.3.4-1/png/pngwutil.c **** 
 506:fltk-1.3.4-1/png/pngwutil.c ****    if (ret != Z_OK)
 507:fltk-1.3.4-1/png/pngwutil.c ****       return ret;
 508:fltk-1.3.4-1/png/pngwutil.c **** 
 509:fltk-1.3.4-1/png/pngwutil.c ****    /* Set up the compression buffers, we need a loop here to avoid overflowing a
 510:fltk-1.3.4-1/png/pngwutil.c ****     * uInt.  Use ZLIB_IO_MAX to limit the input.  The output is always limited
 511:fltk-1.3.4-1/png/pngwutil.c ****     * by the output buffer size, so there is no need to check that.  Since this
 512:fltk-1.3.4-1/png/pngwutil.c ****     * is ANSI-C we know that an 'int', hence a uInt, is always at least 16 bits
 513:fltk-1.3.4-1/png/pngwutil.c ****     * in size.
 514:fltk-1.3.4-1/png/pngwutil.c ****     */
 515:fltk-1.3.4-1/png/pngwutil.c ****    {
 516:fltk-1.3.4-1/png/pngwutil.c ****       png_compression_bufferp *end = &png_ptr->zbuffer_list;
 517:fltk-1.3.4-1/png/pngwutil.c ****       png_alloc_size_t input_len = comp->input_len; /* may be zero! */
 518:fltk-1.3.4-1/png/pngwutil.c ****       png_uint_32 output_len;
 519:fltk-1.3.4-1/png/pngwutil.c **** 
 520:fltk-1.3.4-1/png/pngwutil.c ****       /* zlib updates these for us: */
 521:fltk-1.3.4-1/png/pngwutil.c ****       png_ptr->zstream.next_in = PNGZ_INPUT_CAST(comp->input);
 522:fltk-1.3.4-1/png/pngwutil.c ****       png_ptr->zstream.avail_in = 0; /* Set below */
 523:fltk-1.3.4-1/png/pngwutil.c ****       png_ptr->zstream.next_out = comp->output;
 524:fltk-1.3.4-1/png/pngwutil.c ****       png_ptr->zstream.avail_out = (sizeof comp->output);
 525:fltk-1.3.4-1/png/pngwutil.c **** 
 526:fltk-1.3.4-1/png/pngwutil.c ****       output_len = png_ptr->zstream.avail_out;
 527:fltk-1.3.4-1/png/pngwutil.c **** 
 528:fltk-1.3.4-1/png/pngwutil.c ****       do
 529:fltk-1.3.4-1/png/pngwutil.c ****       {
 530:fltk-1.3.4-1/png/pngwutil.c ****          uInt avail_in = ZLIB_IO_MAX;
 531:fltk-1.3.4-1/png/pngwutil.c **** 
 532:fltk-1.3.4-1/png/pngwutil.c ****          if (avail_in > input_len)
 533:fltk-1.3.4-1/png/pngwutil.c ****             avail_in = (uInt)input_len;
 534:fltk-1.3.4-1/png/pngwutil.c **** 
 535:fltk-1.3.4-1/png/pngwutil.c ****          input_len -= avail_in;
 536:fltk-1.3.4-1/png/pngwutil.c **** 
 537:fltk-1.3.4-1/png/pngwutil.c ****          png_ptr->zstream.avail_in = avail_in;
 538:fltk-1.3.4-1/png/pngwutil.c **** 
 539:fltk-1.3.4-1/png/pngwutil.c ****          if (png_ptr->zstream.avail_out == 0)
 540:fltk-1.3.4-1/png/pngwutil.c ****          {
 541:fltk-1.3.4-1/png/pngwutil.c ****             png_compression_buffer *next;
 542:fltk-1.3.4-1/png/pngwutil.c **** 
 543:fltk-1.3.4-1/png/pngwutil.c ****             /* Chunk data is limited to 2^31 bytes in length, so the prefix
 544:fltk-1.3.4-1/png/pngwutil.c ****              * length must be counted here.
 545:fltk-1.3.4-1/png/pngwutil.c ****              */
 546:fltk-1.3.4-1/png/pngwutil.c ****             if (output_len + prefix_len > PNG_UINT_31_MAX)
 547:fltk-1.3.4-1/png/pngwutil.c ****             {
 548:fltk-1.3.4-1/png/pngwutil.c ****                ret = Z_MEM_ERROR;
 549:fltk-1.3.4-1/png/pngwutil.c ****                break;
 550:fltk-1.3.4-1/png/pngwutil.c ****             }
 551:fltk-1.3.4-1/png/pngwutil.c **** 
 552:fltk-1.3.4-1/png/pngwutil.c ****             /* Need a new (malloc'ed) buffer, but there may be one present
 553:fltk-1.3.4-1/png/pngwutil.c ****              * already.
 554:fltk-1.3.4-1/png/pngwutil.c ****              */
 555:fltk-1.3.4-1/png/pngwutil.c ****             next = *end;
 556:fltk-1.3.4-1/png/pngwutil.c ****             if (next == NULL)
 557:fltk-1.3.4-1/png/pngwutil.c ****             {
 558:fltk-1.3.4-1/png/pngwutil.c ****                next = png_voidcast(png_compression_bufferp, png_malloc_base
 559:fltk-1.3.4-1/png/pngwutil.c ****                   (png_ptr, PNG_COMPRESSION_BUFFER_SIZE(png_ptr)));
 560:fltk-1.3.4-1/png/pngwutil.c **** 
 561:fltk-1.3.4-1/png/pngwutil.c ****                if (next == NULL)
 562:fltk-1.3.4-1/png/pngwutil.c ****                {
 563:fltk-1.3.4-1/png/pngwutil.c ****                   ret = Z_MEM_ERROR;
 564:fltk-1.3.4-1/png/pngwutil.c ****                   break;
 565:fltk-1.3.4-1/png/pngwutil.c ****                }
 566:fltk-1.3.4-1/png/pngwutil.c **** 
 567:fltk-1.3.4-1/png/pngwutil.c ****                /* Link in this buffer (so that it will be freed later) */
 568:fltk-1.3.4-1/png/pngwutil.c ****                next->next = NULL;
 569:fltk-1.3.4-1/png/pngwutil.c ****                *end = next;
 570:fltk-1.3.4-1/png/pngwutil.c ****             }
 571:fltk-1.3.4-1/png/pngwutil.c **** 
 572:fltk-1.3.4-1/png/pngwutil.c ****             png_ptr->zstream.next_out = next->output;
 573:fltk-1.3.4-1/png/pngwutil.c ****             png_ptr->zstream.avail_out = png_ptr->zbuffer_size;
 574:fltk-1.3.4-1/png/pngwutil.c ****             output_len += png_ptr->zstream.avail_out;
 575:fltk-1.3.4-1/png/pngwutil.c **** 
 576:fltk-1.3.4-1/png/pngwutil.c ****             /* Move 'end' to the next buffer pointer. */
 577:fltk-1.3.4-1/png/pngwutil.c ****             end = &next->next;
 578:fltk-1.3.4-1/png/pngwutil.c ****          }
 579:fltk-1.3.4-1/png/pngwutil.c **** 
 580:fltk-1.3.4-1/png/pngwutil.c ****          /* Compress the data */
 581:fltk-1.3.4-1/png/pngwutil.c ****          ret = deflate(&png_ptr->zstream,
 582:fltk-1.3.4-1/png/pngwutil.c ****             input_len > 0 ? Z_NO_FLUSH : Z_FINISH);
 583:fltk-1.3.4-1/png/pngwutil.c **** 
 584:fltk-1.3.4-1/png/pngwutil.c ****          /* Claw back input data that was not consumed (because avail_in is
 585:fltk-1.3.4-1/png/pngwutil.c ****           * reset above every time round the loop).
 586:fltk-1.3.4-1/png/pngwutil.c ****           */
 587:fltk-1.3.4-1/png/pngwutil.c ****          input_len += png_ptr->zstream.avail_in;
 588:fltk-1.3.4-1/png/pngwutil.c ****          png_ptr->zstream.avail_in = 0; /* safety */
 589:fltk-1.3.4-1/png/pngwutil.c ****       }
 590:fltk-1.3.4-1/png/pngwutil.c ****       while (ret == Z_OK);
 591:fltk-1.3.4-1/png/pngwutil.c **** 
 592:fltk-1.3.4-1/png/pngwutil.c ****       /* There may be some space left in the last output buffer. This needs to
 593:fltk-1.3.4-1/png/pngwutil.c ****        * be subtracted from output_len.
 594:fltk-1.3.4-1/png/pngwutil.c ****        */
 595:fltk-1.3.4-1/png/pngwutil.c ****       output_len -= png_ptr->zstream.avail_out;
 596:fltk-1.3.4-1/png/pngwutil.c ****       png_ptr->zstream.avail_out = 0; /* safety */
 597:fltk-1.3.4-1/png/pngwutil.c ****       comp->output_len = output_len;
 598:fltk-1.3.4-1/png/pngwutil.c **** 
 599:fltk-1.3.4-1/png/pngwutil.c ****       /* Now double check the output length, put in a custom message if it is
 600:fltk-1.3.4-1/png/pngwutil.c ****        * too long.  Otherwise ensure the z_stream::msg pointer is set to
 601:fltk-1.3.4-1/png/pngwutil.c ****        * something.
 602:fltk-1.3.4-1/png/pngwutil.c ****        */
 603:fltk-1.3.4-1/png/pngwutil.c ****       if (output_len + prefix_len >= PNG_UINT_31_MAX)
 604:fltk-1.3.4-1/png/pngwutil.c ****       {
 605:fltk-1.3.4-1/png/pngwutil.c ****          png_ptr->zstream.msg = PNGZ_MSG_CAST("compressed data too long");
 606:fltk-1.3.4-1/png/pngwutil.c ****          ret = Z_MEM_ERROR;
 607:fltk-1.3.4-1/png/pngwutil.c ****       }
 608:fltk-1.3.4-1/png/pngwutil.c **** 
 609:fltk-1.3.4-1/png/pngwutil.c ****       else
 610:fltk-1.3.4-1/png/pngwutil.c ****          png_zstream_error(png_ptr, ret);
 611:fltk-1.3.4-1/png/pngwutil.c **** 
 612:fltk-1.3.4-1/png/pngwutil.c ****       /* Reset zlib for another zTXt/iTXt or image data */
 613:fltk-1.3.4-1/png/pngwutil.c ****       png_ptr->zowner = 0;
 614:fltk-1.3.4-1/png/pngwutil.c **** 
 615:fltk-1.3.4-1/png/pngwutil.c ****       /* The only success case is Z_STREAM_END, input_len must be 0; if not this
 616:fltk-1.3.4-1/png/pngwutil.c ****        * is an internal error.
 617:fltk-1.3.4-1/png/pngwutil.c ****        */
 618:fltk-1.3.4-1/png/pngwutil.c ****       if (ret == Z_STREAM_END && input_len == 0)
 619:fltk-1.3.4-1/png/pngwutil.c ****       {
 620:fltk-1.3.4-1/png/pngwutil.c **** #ifdef PNG_WRITE_OPTIMIZE_CMF_SUPPORTED
 621:fltk-1.3.4-1/png/pngwutil.c ****          /* Fix up the deflate header, if required */
 622:fltk-1.3.4-1/png/pngwutil.c ****          optimize_cmf(comp->output, comp->input_len);
 623:fltk-1.3.4-1/png/pngwutil.c **** #endif
 624:fltk-1.3.4-1/png/pngwutil.c ****          /* But Z_OK is returned, not Z_STREAM_END; this allows the claim
 625:fltk-1.3.4-1/png/pngwutil.c ****           * function above to return Z_STREAM_END on an error (though it never
 626:fltk-1.3.4-1/png/pngwutil.c ****           * does in the current versions of zlib.)
 627:fltk-1.3.4-1/png/pngwutil.c ****           */
 628:fltk-1.3.4-1/png/pngwutil.c ****          return Z_OK;
 629:fltk-1.3.4-1/png/pngwutil.c ****       }
 630:fltk-1.3.4-1/png/pngwutil.c **** 
 631:fltk-1.3.4-1/png/pngwutil.c ****       else
 632:fltk-1.3.4-1/png/pngwutil.c ****          return ret;
 633:fltk-1.3.4-1/png/pngwutil.c ****    }
 634:fltk-1.3.4-1/png/pngwutil.c **** }
 635:fltk-1.3.4-1/png/pngwutil.c **** 
 636:fltk-1.3.4-1/png/pngwutil.c **** /* Ship the compressed text out via chunk writes */
 637:fltk-1.3.4-1/png/pngwutil.c **** static void
 638:fltk-1.3.4-1/png/pngwutil.c **** png_write_compressed_data_out(png_structrp png_ptr, compression_state *comp)
 639:fltk-1.3.4-1/png/pngwutil.c **** {
 640:fltk-1.3.4-1/png/pngwutil.c ****    png_uint_32 output_len = comp->output_len;
 641:fltk-1.3.4-1/png/pngwutil.c ****    png_const_bytep output = comp->output;
 642:fltk-1.3.4-1/png/pngwutil.c ****    png_uint_32 avail = (sizeof comp->output);
 643:fltk-1.3.4-1/png/pngwutil.c ****    png_compression_buffer *next = png_ptr->zbuffer_list;
 644:fltk-1.3.4-1/png/pngwutil.c **** 
 645:fltk-1.3.4-1/png/pngwutil.c ****    for (;;)
 646:fltk-1.3.4-1/png/pngwutil.c ****    {
 647:fltk-1.3.4-1/png/pngwutil.c ****       if (avail > output_len)
 648:fltk-1.3.4-1/png/pngwutil.c ****          avail = output_len;
 649:fltk-1.3.4-1/png/pngwutil.c **** 
 650:fltk-1.3.4-1/png/pngwutil.c ****       png_write_chunk_data(png_ptr, output, avail);
 651:fltk-1.3.4-1/png/pngwutil.c **** 
 652:fltk-1.3.4-1/png/pngwutil.c ****       output_len -= avail;
 653:fltk-1.3.4-1/png/pngwutil.c **** 
 654:fltk-1.3.4-1/png/pngwutil.c ****       if (output_len == 0 || next == NULL)
 655:fltk-1.3.4-1/png/pngwutil.c ****          break;
 656:fltk-1.3.4-1/png/pngwutil.c **** 
 657:fltk-1.3.4-1/png/pngwutil.c ****       avail = png_ptr->zbuffer_size;
 658:fltk-1.3.4-1/png/pngwutil.c ****       output = next->output;
 659:fltk-1.3.4-1/png/pngwutil.c ****       next = next->next;
 660:fltk-1.3.4-1/png/pngwutil.c ****    }
 661:fltk-1.3.4-1/png/pngwutil.c **** 
 662:fltk-1.3.4-1/png/pngwutil.c ****    /* This is an internal error; 'next' must have been NULL! */
 663:fltk-1.3.4-1/png/pngwutil.c ****    if (output_len > 0)
 664:fltk-1.3.4-1/png/pngwutil.c ****       png_error(png_ptr, "error writing ancillary chunked compressed data");
 665:fltk-1.3.4-1/png/pngwutil.c **** }
 666:fltk-1.3.4-1/png/pngwutil.c **** #endif /* WRITE_COMPRESSED_TEXT */
 667:fltk-1.3.4-1/png/pngwutil.c **** 
 668:fltk-1.3.4-1/png/pngwutil.c **** #if defined(PNG_WRITE_TEXT_SUPPORTED) || defined(PNG_WRITE_pCAL_SUPPORTED) || \
 669:fltk-1.3.4-1/png/pngwutil.c ****     defined(PNG_WRITE_iCCP_SUPPORTED) || defined(PNG_WRITE_sPLT_SUPPORTED)
 670:fltk-1.3.4-1/png/pngwutil.c **** /* Check that the tEXt or zTXt keyword is valid per PNG 1.0 specification,
 671:fltk-1.3.4-1/png/pngwutil.c ****  * and if invalid, correct the keyword rather than discarding the entire
 672:fltk-1.3.4-1/png/pngwutil.c ****  * chunk.  The PNG 1.0 specification requires keywords 1-79 characters in
 673:fltk-1.3.4-1/png/pngwutil.c ****  * length, forbids leading or trailing whitespace, multiple internal spaces,
 674:fltk-1.3.4-1/png/pngwutil.c ****  * and the non-break space (0x80) from ISO 8859-1.  Returns keyword length.
 675:fltk-1.3.4-1/png/pngwutil.c ****  *
 676:fltk-1.3.4-1/png/pngwutil.c ****  * The 'new_key' buffer must be 80 characters in size (for the keyword plus a
 677:fltk-1.3.4-1/png/pngwutil.c ****  * trailing '\0').  If this routine returns 0 then there was no keyword, or a
 678:fltk-1.3.4-1/png/pngwutil.c ****  * valid one could not be generated, and the caller must png_error.
 679:fltk-1.3.4-1/png/pngwutil.c ****  */
 680:fltk-1.3.4-1/png/pngwutil.c **** static png_uint_32
 681:fltk-1.3.4-1/png/pngwutil.c **** png_check_keyword(png_structrp png_ptr, png_const_charp key, png_bytep new_key)
 874              		.loc 1 681 1 is_stmt 1 view -0
 875              		.cfi_startproc
 876              		.loc 1 681 1 is_stmt 0 view .LVU252
 877 0000 4156     		pushq	%r14
 878              		.cfi_def_cfa_offset 16
 879              		.cfi_offset 14, -16
 880 0002 4155     		pushq	%r13
 881              		.cfi_def_cfa_offset 24
 882              		.cfi_offset 13, -24
 883 0004 4154     		pushq	%r12
 884              		.cfi_def_cfa_offset 32
 885              		.cfi_offset 12, -32
 886 0006 55       		pushq	%rbp
 887              		.cfi_def_cfa_offset 40
 888              		.cfi_offset 6, -40
 889 0007 4881EC18 		subq	$280, %rsp
 889      010000
 890              		.cfi_def_cfa_offset 320
 891              		.loc 1 681 1 view .LVU253
 892 000e 64488B04 		movq	%fs:40, %rax
 892      25280000 
 892      00
 893 0017 48898424 		movq	%rax, 264(%rsp)
 893      08010000 
 894 001f 31C0     		xorl	%eax, %eax
 895              	.LVL75:
 682:fltk-1.3.4-1/png/pngwutil.c **** {
 683:fltk-1.3.4-1/png/pngwutil.c ****    png_const_charp orig_key = key;
 684:fltk-1.3.4-1/png/pngwutil.c ****    png_uint_32 key_len = 0;
 685:fltk-1.3.4-1/png/pngwutil.c ****    int bad_character = 0;
 686:fltk-1.3.4-1/png/pngwutil.c ****    int space = 1;
 687:fltk-1.3.4-1/png/pngwutil.c **** 
 688:fltk-1.3.4-1/png/pngwutil.c ****    png_debug(1, "in png_check_keyword");
 689:fltk-1.3.4-1/png/pngwutil.c **** 
 690:fltk-1.3.4-1/png/pngwutil.c ****    if (key == NULL)
 691:fltk-1.3.4-1/png/pngwutil.c ****    {
 692:fltk-1.3.4-1/png/pngwutil.c ****       *new_key = 0;
 693:fltk-1.3.4-1/png/pngwutil.c ****       return 0;
 694:fltk-1.3.4-1/png/pngwutil.c ****    }
 695:fltk-1.3.4-1/png/pngwutil.c **** 
 696:fltk-1.3.4-1/png/pngwutil.c ****    while (*key && key_len < 79)
 896              		.loc 1 696 10 is_stmt 1 view .LVU254
 897              		.loc 1 696 11 is_stmt 0 view .LVU255
 898 0021 0FB606   		movzbl	(%rsi), %eax
 899              		.loc 1 696 16 view .LVU256
 900 0024 84C0     		testb	%al, %al
 901 0026 0F845401 		je	.L105
 901      0000
 902 002c 4889FD   		movq	%rdi, %rbp
 903 002f 4889F1   		movq	%rsi, %rcx
 685:fltk-1.3.4-1/png/pngwutil.c ****    int space = 1;
 904              		.loc 1 685 8 view .LVU257
 905 0032 4531ED   		xorl	%r13d, %r13d
 686:fltk-1.3.4-1/png/pngwutil.c **** 
 906              		.loc 1 686 8 view .LVU258
 907 0035 41B80100 		movl	$1, %r8d
 907      0000
 684:fltk-1.3.4-1/png/pngwutil.c ****    int bad_character = 0;
 908              		.loc 1 684 16 view .LVU259
 909 003b 4531E4   		xorl	%r12d, %r12d
 910 003e EB36     		jmp	.L74
 911              	.LVL76:
 912              		.p2align 4,,10
 913              		.p2align 3
 914              	.L76:
 915              	.LBB225:
 697:fltk-1.3.4-1/png/pngwutil.c ****    {
 698:fltk-1.3.4-1/png/pngwutil.c ****       png_byte ch = (png_byte)(0xff & *key++);
 699:fltk-1.3.4-1/png/pngwutil.c **** 
 700:fltk-1.3.4-1/png/pngwutil.c ****       if ((ch > 32 && ch <= 126) || (ch >= 161 /*&& ch <= 255*/))
 701:fltk-1.3.4-1/png/pngwutil.c ****          *new_key++ = ch, ++key_len, space = 0;
 702:fltk-1.3.4-1/png/pngwutil.c **** 
 703:fltk-1.3.4-1/png/pngwutil.c ****       else if (space == 0)
 916              		.loc 1 703 12 is_stmt 1 view .LVU260
 917              		.loc 1 703 15 is_stmt 0 view .LVU261
 918 0040 4585C0   		testl	%r8d, %r8d
 919 0043 0F85AF00 		jne	.L79
 919      0000
 704:fltk-1.3.4-1/png/pngwutil.c ****       {
 705:fltk-1.3.4-1/png/pngwutil.c ****          /* A space or an invalid character when one wasn't seen immediately
 706:fltk-1.3.4-1/png/pngwutil.c ****           * before; output just a space.
 707:fltk-1.3.4-1/png/pngwutil.c ****           */
 708:fltk-1.3.4-1/png/pngwutil.c ****          *new_key++ = 32, ++key_len, space = 1;
 920              		.loc 1 708 10 is_stmt 1 view .LVU262
 921              		.loc 1 708 21 is_stmt 0 view .LVU263
 922 0049 C60220   		movb	$32, (%rdx)
 923              		.loc 1 708 18 view .LVU264
 924 004c 488D7A01 		leaq	1(%rdx), %rdi
 925              	.LVL77:
 926              		.loc 1 708 27 view .LVU265
 927 0050 4183C401 		addl	$1, %r12d
 928              	.LVL78:
 709:fltk-1.3.4-1/png/pngwutil.c **** 
 710:fltk-1.3.4-1/png/pngwutil.c ****          /* If the character was not a space then it is invalid. */
 711:fltk-1.3.4-1/png/pngwutil.c ****          if (ch != 32)
 929              		.loc 1 711 10 is_stmt 1 view .LVU266
 930              		.loc 1 711 13 is_stmt 0 view .LVU267
 931 0054 3C20     		cmpb	$32, %al
 932 0056 0F84AC00 		je	.L85
 932      0000
 712:fltk-1.3.4-1/png/pngwutil.c ****             bad_character = ch;
 933              		.loc 1 712 13 is_stmt 1 view .LVU268
 934              		.loc 1 712 27 is_stmt 0 view .LVU269
 935 005c 440FB6E8 		movzbl	%al, %r13d
 936              	.LVL79:
 708:fltk-1.3.4-1/png/pngwutil.c **** 
 937              		.loc 1 708 18 view .LVU270
 938 0060 4889FA   		movq	%rdi, %rdx
 708:fltk-1.3.4-1/png/pngwutil.c **** 
 939              		.loc 1 708 44 view .LVU271
 940 0063 41B80100 		movl	$1, %r8d
 940      0000
 941              	.LVL80:
 942              	.L78:
 708:fltk-1.3.4-1/png/pngwutil.c **** 
 943              		.loc 1 708 44 view .LVU272
 944              	.LBE225:
 696:fltk-1.3.4-1/png/pngwutil.c ****    {
 945              		.loc 1 696 10 is_stmt 1 view .LVU273
 696:fltk-1.3.4-1/png/pngwutil.c ****    {
 946              		.loc 1 696 11 is_stmt 0 view .LVU274
 947 0069 0FB601   		movzbl	(%rcx), %eax
 948              	.LVL81:
 696:fltk-1.3.4-1/png/pngwutil.c ****    {
 949              		.loc 1 696 16 view .LVU275
 950 006c 84C0     		testb	%al, %al
 951 006e 742B     		je	.L87
 952              	.L106:
 696:fltk-1.3.4-1/png/pngwutil.c ****    {
 953              		.loc 1 696 16 view .LVU276
 954 0070 4183FC4E 		cmpl	$78, %r12d
 955 0074 7725     		ja	.L87
 956              	.LVL82:
 957              	.L74:
 958              	.LBB226:
 698:fltk-1.3.4-1/png/pngwutil.c **** 
 959              		.loc 1 698 7 is_stmt 1 view .LVU277
 700:fltk-1.3.4-1/png/pngwutil.c ****          *new_key++ = ch, ++key_len, space = 0;
 960              		.loc 1 700 20 is_stmt 0 view .LVU278
 961 0076 8D78DF   		leal	-33(%rax), %edi
 698:fltk-1.3.4-1/png/pngwutil.c **** 
 962              		.loc 1 698 43 view .LVU279
 963 0079 4883C101 		addq	$1, %rcx
 964              	.LVL83:
 700:fltk-1.3.4-1/png/pngwutil.c ****          *new_key++ = ch, ++key_len, space = 0;
 965              		.loc 1 700 7 is_stmt 1 view .LVU280
 700:fltk-1.3.4-1/png/pngwutil.c ****          *new_key++ = ch, ++key_len, space = 0;
 966              		.loc 1 700 10 is_stmt 0 view .LVU281
 967 007d 4080FF5D 		cmpb	$93, %dil
 968 0081 7604     		jbe	.L86
 700:fltk-1.3.4-1/png/pngwutil.c ****          *new_key++ = ch, ++key_len, space = 0;
 969              		.loc 1 700 10 view .LVU282
 970 0083 3CA0     		cmpb	$-96, %al
 971 0085 76B9     		jbe	.L76
 972              	.L86:
 701:fltk-1.3.4-1/png/pngwutil.c **** 
 973              		.loc 1 701 10 is_stmt 1 view .LVU283
 974              	.LVL84:
 701:fltk-1.3.4-1/png/pngwutil.c **** 
 975              		.loc 1 701 21 is_stmt 0 view .LVU284
 976 0087 8802     		movb	%al, (%rdx)
 977              	.LBE226:
 696:fltk-1.3.4-1/png/pngwutil.c ****    {
 978              		.loc 1 696 11 view .LVU285
 979 0089 0FB601   		movzbl	(%rcx), %eax
 980              	.LVL85:
 981              	.LBB227:
 701:fltk-1.3.4-1/png/pngwutil.c **** 
 982              		.loc 1 701 27 view .LVU286
 983 008c 4183C401 		addl	$1, %r12d
 984              	.LVL86:
 701:fltk-1.3.4-1/png/pngwutil.c **** 
 985              		.loc 1 701 18 view .LVU287
 986 0090 4883C201 		addq	$1, %rdx
 987              	.LVL87:
 701:fltk-1.3.4-1/png/pngwutil.c **** 
 988              		.loc 1 701 44 view .LVU288
 989 0094 4531C0   		xorl	%r8d, %r8d
 990              	.LVL88:
 701:fltk-1.3.4-1/png/pngwutil.c **** 
 991              		.loc 1 701 44 view .LVU289
 992              	.LBE227:
 696:fltk-1.3.4-1/png/pngwutil.c ****    {
 993              		.loc 1 696 10 is_stmt 1 view .LVU290
 696:fltk-1.3.4-1/png/pngwutil.c ****    {
 994              		.loc 1 696 16 is_stmt 0 view .LVU291
 995 0097 84C0     		testb	%al, %al
 996 0099 75D5     		jne	.L106
 997              	.LVL89:
 998              	.L87:
 713:fltk-1.3.4-1/png/pngwutil.c ****       }
 714:fltk-1.3.4-1/png/pngwutil.c **** 
 715:fltk-1.3.4-1/png/pngwutil.c ****       else if (bad_character == 0)
 716:fltk-1.3.4-1/png/pngwutil.c ****          bad_character = ch; /* just skip it, record the first error */
 717:fltk-1.3.4-1/png/pngwutil.c ****    }
 718:fltk-1.3.4-1/png/pngwutil.c **** 
 719:fltk-1.3.4-1/png/pngwutil.c ****    if (key_len > 0 && space != 0) /* trailing space */
 999              		.loc 1 719 4 is_stmt 1 view .LVU292
 1000              		.loc 1 719 7 is_stmt 0 view .LVU293
 1001 009b 4585E4   		testl	%r12d, %r12d
 1002 009e 7419     		je	.L81
 1003              		.loc 1 719 7 view .LVU294
 1004 00a0 4585C0   		testl	%r8d, %r8d
 1005 00a3 7414     		je	.L81
 720:fltk-1.3.4-1/png/pngwutil.c ****    {
 721:fltk-1.3.4-1/png/pngwutil.c ****       --key_len, --new_key;
 1006              		.loc 1 721 7 is_stmt 1 view .LVU295
 1007 00a5 4183EC01 		subl	$1, %r12d
 1008              	.LVL90:
 1009              		.loc 1 721 18 is_stmt 0 view .LVU296
 1010 00a9 4883EA01 		subq	$1, %rdx
 1011              	.LVL91:
 722:fltk-1.3.4-1/png/pngwutil.c ****       if (bad_character == 0)
 1012              		.loc 1 722 7 is_stmt 1 view .LVU297
 723:fltk-1.3.4-1/png/pngwutil.c ****          bad_character = 32;
 1013              		.loc 1 723 24 is_stmt 0 view .LVU298
 1014 00ad B8200000 		movl	$32, %eax
 1014      00
 1015 00b2 4585ED   		testl	%r13d, %r13d
 1016 00b5 440F44E8 		cmove	%eax, %r13d
 1017              	.LVL92:
 1018              	.L81:
 724:fltk-1.3.4-1/png/pngwutil.c ****    }
 725:fltk-1.3.4-1/png/pngwutil.c **** 
 726:fltk-1.3.4-1/png/pngwutil.c ****    /* Terminate the keyword */
 727:fltk-1.3.4-1/png/pngwutil.c ****    *new_key = 0;
 1019              		.loc 1 727 4 is_stmt 1 view .LVU299
 1020              		.loc 1 727 13 is_stmt 0 view .LVU300
 1021 00b9 C60200   		movb	$0, (%rdx)
 728:fltk-1.3.4-1/png/pngwutil.c **** 
 729:fltk-1.3.4-1/png/pngwutil.c ****    if (key_len == 0)
 1022              		.loc 1 729 4 is_stmt 1 view .LVU301
 1023              		.loc 1 729 7 is_stmt 0 view .LVU302
 1024 00bc 4585E4   		testl	%r12d, %r12d
 1025 00bf 740A     		je	.L73
 730:fltk-1.3.4-1/png/pngwutil.c ****       return 0;
 731:fltk-1.3.4-1/png/pngwutil.c **** 
 732:fltk-1.3.4-1/png/pngwutil.c **** #ifdef PNG_WARNINGS_SUPPORTED
 733:fltk-1.3.4-1/png/pngwutil.c ****    /* Try to only output one warning per keyword: */
 734:fltk-1.3.4-1/png/pngwutil.c ****    if (*key != 0) /* keyword too long */
 1026              		.loc 1 734 4 is_stmt 1 view .LVU303
 1027              		.loc 1 734 7 is_stmt 0 view .LVU304
 1028 00c1 803900   		cmpb	$0, (%rcx)
 1029 00c4 755A     		jne	.L107
 735:fltk-1.3.4-1/png/pngwutil.c ****       png_warning(png_ptr, "keyword truncated");
 736:fltk-1.3.4-1/png/pngwutil.c **** 
 737:fltk-1.3.4-1/png/pngwutil.c ****    else if (bad_character != 0)
 1030              		.loc 1 737 9 is_stmt 1 view .LVU305
 1031              		.loc 1 737 12 is_stmt 0 view .LVU306
 1032 00c6 4585ED   		testl	%r13d, %r13d
 1033 00c9 756D     		jne	.L108
 1034              	.LVL93:
 1035              	.L73:
 738:fltk-1.3.4-1/png/pngwutil.c ****    {
 739:fltk-1.3.4-1/png/pngwutil.c ****       PNG_WARNING_PARAMETERS(p)
 740:fltk-1.3.4-1/png/pngwutil.c **** 
 741:fltk-1.3.4-1/png/pngwutil.c ****       png_warning_parameter(p, 1, orig_key);
 742:fltk-1.3.4-1/png/pngwutil.c ****       png_warning_parameter_signed(p, 2, PNG_NUMBER_FORMAT_02x, bad_character);
 743:fltk-1.3.4-1/png/pngwutil.c **** 
 744:fltk-1.3.4-1/png/pngwutil.c ****       png_formatted_warning(png_ptr, p, "keyword \"@1\": bad character '0x@2'");
 745:fltk-1.3.4-1/png/pngwutil.c ****    }
 746:fltk-1.3.4-1/png/pngwutil.c **** #endif /* WARNINGS */
 747:fltk-1.3.4-1/png/pngwutil.c **** 
 748:fltk-1.3.4-1/png/pngwutil.c ****    return key_len;
 749:fltk-1.3.4-1/png/pngwutil.c **** }
 1036              		.loc 1 749 1 view .LVU307
 1037 00cb 488B8424 		movq	264(%rsp), %rax
 1037      08010000 
 1038 00d3 64483304 		xorq	%fs:40, %rax
 1038      25280000 
 1038      00
 1039 00dc 0F85A900 		jne	.L109
 1039      0000
 1040 00e2 4881C418 		addq	$280, %rsp
 1040      010000
 1041              		.cfi_remember_state
 1042              		.cfi_def_cfa_offset 40
 1043 00e9 4489E0   		movl	%r12d, %eax
 1044 00ec 5D       		popq	%rbp
 1045              		.cfi_def_cfa_offset 32
 1046 00ed 415C     		popq	%r12
 1047              		.cfi_def_cfa_offset 24
 1048 00ef 415D     		popq	%r13
 1049              		.cfi_def_cfa_offset 16
 1050 00f1 415E     		popq	%r14
 1051              		.cfi_def_cfa_offset 8
 1052 00f3 C3       		ret
 1053              	.LVL94:
 1054              		.p2align 4,,10
 1055 00f4 0F1F4000 		.p2align 3
 1056              	.L79:
 1057              		.cfi_restore_state
 1058              	.LBB228:
 715:fltk-1.3.4-1/png/pngwutil.c ****          bad_character = ch; /* just skip it, record the first error */
 1059              		.loc 1 715 12 is_stmt 1 view .LVU308
 716:fltk-1.3.4-1/png/pngwutil.c ****    }
 1060              		.loc 1 716 24 is_stmt 0 view .LVU309
 1061 00f8 4585ED   		testl	%r13d, %r13d
 1062 00fb 440F44E8 		cmove	%eax, %r13d
 1063              	.LVL95:
 716:fltk-1.3.4-1/png/pngwutil.c ****    }
 1064              		.loc 1 716 24 view .LVU310
 1065 00ff E965FFFF 		jmp	.L78
 1065      FF
 1066              	.LVL96:
 1067              		.p2align 4,,10
 1068 0104 0F1F4000 		.p2align 3
 1069              	.L85:
 708:fltk-1.3.4-1/png/pngwutil.c **** 
 1070              		.loc 1 708 18 view .LVU311
 1071 0108 4889FA   		movq	%rdi, %rdx
 708:fltk-1.3.4-1/png/pngwutil.c **** 
 1072              		.loc 1 708 44 view .LVU312
 1073 010b 41B80100 		movl	$1, %r8d
 1073      0000
 1074 0111 E953FFFF 		jmp	.L78
 1074      FF
 1075              	.LVL97:
 1076 0116 662E0F1F 		.p2align 4,,10
 1076      84000000 
 1076      0000
 1077              		.p2align 3
 1078              	.L107:
 708:fltk-1.3.4-1/png/pngwutil.c **** 
 1079              		.loc 1 708 44 view .LVU313
 1080              	.LBE228:
 735:fltk-1.3.4-1/png/pngwutil.c **** 
 1081              		.loc 1 735 7 is_stmt 1 view .LVU314
 1082 0120 488D3500 		leaq	.LC4(%rip), %rsi
 1082      000000
 1083 0127 4889EF   		movq	%rbp, %rdi
 1084 012a E8000000 		call	png_warning@PLT
 1084      00
 1085              	.LVL98:
 735:fltk-1.3.4-1/png/pngwutil.c **** 
 1086              		.loc 1 735 7 is_stmt 0 view .LVU315
 1087 012f EB9A     		jmp	.L73
 1088              	.LVL99:
 1089              		.p2align 4,,10
 1090 0131 0F1F8000 		.p2align 3
 1090      000000
 1091              	.L108:
 1092              	.LBB229:
 739:fltk-1.3.4-1/png/pngwutil.c **** 
 1093              		.loc 1 739 7 is_stmt 1 view .LVU316
 741:fltk-1.3.4-1/png/pngwutil.c ****       png_warning_parameter_signed(p, 2, PNG_NUMBER_FORMAT_02x, bad_character);
 1094              		.loc 1 741 7 view .LVU317
 1095 0138 4989E6   		movq	%rsp, %r14
 1096 013b 4889F2   		movq	%rsi, %rdx
 1097              	.LVL100:
 741:fltk-1.3.4-1/png/pngwutil.c ****       png_warning_parameter_signed(p, 2, PNG_NUMBER_FORMAT_02x, bad_character);
 1098              		.loc 1 741 7 is_stmt 0 view .LVU318
 1099 013e BE010000 		movl	$1, %esi
 1099      00
 1100 0143 4C89F7   		movq	%r14, %rdi
 1101 0146 E8000000 		call	png_warning_parameter@PLT
 1101      00
 1102              	.LVL101:
 742:fltk-1.3.4-1/png/pngwutil.c **** 
 1103              		.loc 1 742 7 is_stmt 1 view .LVU319
 1104 014b 4C89F7   		movq	%r14, %rdi
 1105 014e 4489E9   		movl	%r13d, %ecx
 1106 0151 BA040000 		movl	$4, %edx
 1106      00
 1107 0156 BE020000 		movl	$2, %esi
 1107      00
 1108 015b E8000000 		call	png_warning_parameter_signed@PLT
 1108      00
 1109              	.LVL102:
 744:fltk-1.3.4-1/png/pngwutil.c ****    }
 1110              		.loc 1 744 7 view .LVU320
 1111 0160 488D1500 		leaq	.LC5(%rip), %rdx
 1111      000000
 1112 0167 4C89F6   		movq	%r14, %rsi
 1113 016a 4889EF   		movq	%rbp, %rdi
 1114 016d E8000000 		call	png_formatted_warning@PLT
 1114      00
 1115              	.LVL103:
 1116 0172 E954FFFF 		jmp	.L73
 1116      FF
 1117              	.LVL104:
 1118 0177 660F1F84 		.p2align 4,,10
 1118      00000000 
 1118      00
 1119              		.p2align 3
 1120              	.L105:
 744:fltk-1.3.4-1/png/pngwutil.c ****    }
 1121              		.loc 1 744 7 is_stmt 0 view .LVU321
 1122              	.LBE229:
 727:fltk-1.3.4-1/png/pngwutil.c **** 
 1123              		.loc 1 727 4 is_stmt 1 view .LVU322
 727:fltk-1.3.4-1/png/pngwutil.c **** 
 1124              		.loc 1 727 13 is_stmt 0 view .LVU323
 1125 0180 C60200   		movb	$0, (%rdx)
 729:fltk-1.3.4-1/png/pngwutil.c ****       return 0;
 1126              		.loc 1 729 4 is_stmt 1 view .LVU324
 730:fltk-1.3.4-1/png/pngwutil.c **** 
 1127              		.loc 1 730 14 is_stmt 0 view .LVU325
 1128 0183 4531E4   		xorl	%r12d, %r12d
 1129 0186 E940FFFF 		jmp	.L73
 1129      FF
 1130              	.LVL105:
 1131              	.L109:
 1132              		.loc 1 749 1 view .LVU326
 1133 018b E8000000 		call	__stack_chk_fail@PLT
 1133      00
 1134              	.LVL106:
 1135              		.cfi_endproc
 1136              	.LFE85:
 1138              		.section	.rodata.png_text_compress.str1.1,"aMS",@progbits,1
 1139              	.LC6:
 1140 0000 636F6D70 		.string	"compressed data too long"
 1140      72657373 
 1140      65642064 
 1140      61746120 
 1140      746F6F20 
 1141              		.section	.text.png_text_compress,"ax",@progbits
 1142              		.p2align 4
 1144              	png_text_compress:
 1145              	.LVL107:
 1146              	.LFB55:
 491:fltk-1.3.4-1/png/pngwutil.c ****    int ret;
 1147              		.loc 1 491 1 is_stmt 1 view -0
 1148              		.cfi_startproc
 491:fltk-1.3.4-1/png/pngwutil.c ****    int ret;
 1149              		.loc 1 491 1 is_stmt 0 view .LVU328
 1150 0000 4157     		pushq	%r15
 1151              		.cfi_def_cfa_offset 16
 1152              		.cfi_offset 15, -16
 1153 0002 4989FF   		movq	%rdi, %r15
 492:fltk-1.3.4-1/png/pngwutil.c **** 
 1154              		.loc 1 492 4 is_stmt 1 view .LVU329
 504:fltk-1.3.4-1/png/pngwutil.c **** 
 1155              		.loc 1 504 4 view .LVU330
 491:fltk-1.3.4-1/png/pngwutil.c ****    int ret;
 1156              		.loc 1 491 1 is_stmt 0 view .LVU331
 1157 0005 4156     		pushq	%r14
 1158              		.cfi_def_cfa_offset 24
 1159              		.cfi_offset 14, -24
 1160 0007 4155     		pushq	%r13
 1161              		.cfi_def_cfa_offset 32
 1162              		.cfi_offset 13, -32
 1163 0009 4154     		pushq	%r12
 1164              		.cfi_def_cfa_offset 40
 1165              		.cfi_offset 12, -40
 1166 000b 55       		pushq	%rbp
 1167              		.cfi_def_cfa_offset 48
 1168              		.cfi_offset 6, -48
 1169 000c 53       		pushq	%rbx
 1170              		.cfi_def_cfa_offset 56
 1171              		.cfi_offset 3, -56
 1172 000d 4889D3   		movq	%rdx, %rbx
 1173 0010 4883EC28 		subq	$40, %rsp
 1174              		.cfi_def_cfa_offset 96
 491:fltk-1.3.4-1/png/pngwutil.c ****    int ret;
 1175              		.loc 1 491 1 view .LVU332
 1176 0014 48895424 		movq	%rdx, 8(%rsp)
 1176      08
 504:fltk-1.3.4-1/png/pngwutil.c **** 
 1177              		.loc 1 504 10 view .LVU333
 1178 0019 488B5208 		movq	8(%rdx), %rdx
 1179              	.LVL108:
 491:fltk-1.3.4-1/png/pngwutil.c ****    int ret;
 1180              		.loc 1 491 1 view .LVU334
 1181 001d 890C24   		movl	%ecx, (%rsp)
 504:fltk-1.3.4-1/png/pngwutil.c **** 
 1182              		.loc 1 504 10 view .LVU335
 1183 0020 E8000000 		call	png_deflate_claim
 1183      00
 1184              	.LVL109:
 504:fltk-1.3.4-1/png/pngwutil.c **** 
 1185              		.loc 1 504 10 view .LVU336
 1186 0025 89442404 		movl	%eax, 4(%rsp)
 1187              	.LVL110:
 506:fltk-1.3.4-1/png/pngwutil.c ****       return ret;
 1188              		.loc 1 506 4 is_stmt 1 view .LVU337
 506:fltk-1.3.4-1/png/pngwutil.c ****       return ret;
 1189              		.loc 1 506 7 is_stmt 0 view .LVU338
 1190 0029 85C0     		testl	%eax, %eax
 1191 002b 0F859B01 		jne	.L110
 1191      0000
 1192              	.LVL111:
 1193              	.LBB239:
 1194              	.LBI239:
 489:fltk-1.3.4-1/png/pngwutil.c ****    compression_state *comp, png_uint_32 prefix_len)
 1195              		.loc 1 489 1 is_stmt 1 view .LVU339
 1196              	.LBB240:
 1197              	.LBB241:
 516:fltk-1.3.4-1/png/pngwutil.c ****       png_alloc_size_t input_len = comp->input_len; /* may be zero! */
 1198              		.loc 1 516 7 view .LVU340
 521:fltk-1.3.4-1/png/pngwutil.c ****       png_ptr->zstream.avail_in = 0; /* Set below */
 1199              		.loc 1 521 32 is_stmt 0 view .LVU341
 1200 0031 488B03   		movq	(%rbx), %rax
 1201              	.LVL112:
 517:fltk-1.3.4-1/png/pngwutil.c ****       png_uint_32 output_len;
 1202              		.loc 1 517 24 view .LVU342
 1203 0034 488B5308 		movq	8(%rbx), %rdx
 524:fltk-1.3.4-1/png/pngwutil.c **** 
 1204              		.loc 1 524 34 view .LVU343
 1205 0038 41C78760 		movl	$1024, 352(%r15)
 1205      01000000 
 1205      040000
 516:fltk-1.3.4-1/png/pngwutil.c ****       png_alloc_size_t input_len = comp->input_len; /* may be zero! */
 1206              		.loc 1 516 32 view .LVU344
 1207 0043 498DAFB0 		leaq	432(%r15), %rbp
 1207      010000
 1208              	.LVL113:
 517:fltk-1.3.4-1/png/pngwutil.c ****       png_uint_32 output_len;
 1209              		.loc 1 517 7 is_stmt 1 view .LVU345
 518:fltk-1.3.4-1/png/pngwutil.c **** 
 1210              		.loc 1 518 7 view .LVU346
 521:fltk-1.3.4-1/png/pngwutil.c ****       png_ptr->zstream.avail_in = 0; /* Set below */
 1211              		.loc 1 521 7 view .LVU347
 1212              	.LBB242:
 532:fltk-1.3.4-1/png/pngwutil.c ****             avail_in = (uInt)input_len;
 1213              		.loc 1 532 13 is_stmt 0 view .LVU348
 1214 004a 41BCFEFF 		movl	$4294967294, %r12d
 1214      FFFF
 581:fltk-1.3.4-1/png/pngwutil.c ****             input_len > 0 ? Z_NO_FLUSH : Z_FINISH);
 1215              		.loc 1 581 16 view .LVU349
 1216 0050 4D8DAF40 		leaq	320(%r15), %r13
 1216      010000
 1217              	.LBE242:
 521:fltk-1.3.4-1/png/pngwutil.c ****       png_ptr->zstream.avail_in = 0; /* Set below */
 1218              		.loc 1 521 32 view .LVU350
 1219 0057 49898740 		movq	%rax, 320(%r15)
 1219      010000
 522:fltk-1.3.4-1/png/pngwutil.c ****       png_ptr->zstream.next_out = comp->output;
 1220              		.loc 1 522 7 is_stmt 1 view .LVU351
 523:fltk-1.3.4-1/png/pngwutil.c ****       png_ptr->zstream.avail_out = (sizeof comp->output);
 1221              		.loc 1 523 7 view .LVU352
 523:fltk-1.3.4-1/png/pngwutil.c ****       png_ptr->zstream.avail_out = (sizeof comp->output);
 1222              		.loc 1 523 35 is_stmt 0 view .LVU353
 1223 005e 488D4314 		leaq	20(%rbx), %rax
 526:fltk-1.3.4-1/png/pngwutil.c **** 
 1224              		.loc 1 526 18 view .LVU354
 1225 0062 BB000400 		movl	$1024, %ebx
 1225      00
 1226              	.LVL114:
 523:fltk-1.3.4-1/png/pngwutil.c ****       png_ptr->zstream.avail_out = (sizeof comp->output);
 1227              		.loc 1 523 35 view .LVU355
 1228 0067 48894424 		movq	%rax, 16(%rsp)
 1228      10
 523:fltk-1.3.4-1/png/pngwutil.c ****       png_ptr->zstream.avail_out = (sizeof comp->output);
 1229              		.loc 1 523 33 view .LVU356
 1230 006c 49898758 		movq	%rax, 344(%r15)
 1230      010000
 524:fltk-1.3.4-1/png/pngwutil.c **** 
 1231              		.loc 1 524 7 is_stmt 1 view .LVU357
 526:fltk-1.3.4-1/png/pngwutil.c **** 
 1232              		.loc 1 526 7 view .LVU358
 1233              	.LVL115:
 524:fltk-1.3.4-1/png/pngwutil.c **** 
 1234              		.loc 1 524 34 is_stmt 0 view .LVU359
 1235 0073 B8000400 		movl	$1024, %eax
 1235      00
 1236 0078 E9870000 		jmp	.L119
 1236      00
 1237              	.LVL116:
 1238 007d 0F1F00   		.p2align 4,,10
 1239              		.p2align 3
 1240              	.L137:
 1241              	.LBB246:
 535:fltk-1.3.4-1/png/pngwutil.c **** 
 1242              		.loc 1 535 10 is_stmt 1 view .LVU360
 535:fltk-1.3.4-1/png/pngwutil.c **** 
 1243              		.loc 1 535 20 is_stmt 0 view .LVU361
 1244 0080 48BF0100 		movabsq	$-4294967295, %rdi
 1244      0000FFFF 
 1244      FFFF
 537:fltk-1.3.4-1/png/pngwutil.c **** 
 1245              		.loc 1 537 36 view .LVU362
 1246 008a 41C78748 		movl	$-1, 328(%r15)
 1246      010000FF 
 1246      FFFFFF
 535:fltk-1.3.4-1/png/pngwutil.c **** 
 1247              		.loc 1 535 20 view .LVU363
 1248 0095 4C8D343A 		leaq	(%rdx,%rdi), %r14
 1249              	.LVL117:
 537:fltk-1.3.4-1/png/pngwutil.c **** 
 1250              		.loc 1 537 10 is_stmt 1 view .LVU364
 539:fltk-1.3.4-1/png/pngwutil.c ****          {
 1251              		.loc 1 539 10 view .LVU365
 539:fltk-1.3.4-1/png/pngwutil.c ****          {
 1252              		.loc 1 539 13 is_stmt 0 view .LVU366
 1253 0099 85C0     		testl	%eax, %eax
 1254 009b 7532     		jne	.L113
 1255              	.LVL118:
 1256              	.L121:
 1257              	.LBB243:
 541:fltk-1.3.4-1/png/pngwutil.c **** 
 1258              		.loc 1 541 13 is_stmt 1 view .LVU367
 546:fltk-1.3.4-1/png/pngwutil.c ****             {
 1259              		.loc 1 546 13 view .LVU368
 546:fltk-1.3.4-1/png/pngwutil.c ****             {
 1260              		.loc 1 546 16 is_stmt 0 view .LVU369
 1261 009d 8B0424   		movl	(%rsp), %eax
 1262 00a0 01D8     		addl	%ebx, %eax
 1263 00a2 0F883801 		js	.L124
 1263      0000
 555:fltk-1.3.4-1/png/pngwutil.c ****             if (next == NULL)
 1264              		.loc 1 555 13 is_stmt 1 view .LVU370
 555:fltk-1.3.4-1/png/pngwutil.c ****             if (next == NULL)
 1265              		.loc 1 555 18 is_stmt 0 view .LVU371
 1266 00a8 488B4500 		movq	0(%rbp), %rax
 1267              	.LVL119:
 556:fltk-1.3.4-1/png/pngwutil.c ****             {
 1268              		.loc 1 556 13 is_stmt 1 view .LVU372
 1269 00ac 418BB7B8 		movl	440(%r15), %esi
 1269      010000
 556:fltk-1.3.4-1/png/pngwutil.c ****             {
 1270              		.loc 1 556 16 is_stmt 0 view .LVU373
 1271 00b3 4885C0   		testq	%rax, %rax
 1272 00b6 7470     		je	.L136
 1273              	.L115:
 572:fltk-1.3.4-1/png/pngwutil.c ****             png_ptr->zstream.avail_out = png_ptr->zbuffer_size;
 1274              		.loc 1 572 13 is_stmt 1 view .LVU374
 572:fltk-1.3.4-1/png/pngwutil.c ****             png_ptr->zstream.avail_out = png_ptr->zbuffer_size;
 1275              		.loc 1 572 41 is_stmt 0 view .LVU375
 1276 00b8 488D4808 		leaq	8(%rax), %rcx
 573:fltk-1.3.4-1/png/pngwutil.c ****             output_len += png_ptr->zstream.avail_out;
 1277              		.loc 1 573 40 view .LVU376
 1278 00bc 4189B760 		movl	%esi, 352(%r15)
 1278      010000
 574:fltk-1.3.4-1/png/pngwutil.c **** 
 1279              		.loc 1 574 24 view .LVU377
 1280 00c3 01F3     		addl	%esi, %ebx
 1281              	.LVL120:
 577:fltk-1.3.4-1/png/pngwutil.c ****          }
 1282              		.loc 1 577 17 view .LVU378
 1283 00c5 4889C5   		movq	%rax, %rbp
 1284              	.LVL121:
 572:fltk-1.3.4-1/png/pngwutil.c ****             png_ptr->zstream.avail_out = png_ptr->zbuffer_size;
 1285              		.loc 1 572 41 view .LVU379
 1286 00c8 49898F58 		movq	%rcx, 344(%r15)
 1286      010000
 573:fltk-1.3.4-1/png/pngwutil.c ****             output_len += png_ptr->zstream.avail_out;
 1287              		.loc 1 573 13 is_stmt 1 view .LVU380
 574:fltk-1.3.4-1/png/pngwutil.c **** 
 1288              		.loc 1 574 13 view .LVU381
 1289              	.LVL122:
 577:fltk-1.3.4-1/png/pngwutil.c ****          }
 1290              		.loc 1 577 13 view .LVU382
 1291              	.L113:
 577:fltk-1.3.4-1/png/pngwutil.c ****          }
 1292              		.loc 1 577 13 is_stmt 0 view .LVU383
 1293              	.LBE243:
 581:fltk-1.3.4-1/png/pngwutil.c ****             input_len > 0 ? Z_NO_FLUSH : Z_FINISH);
 1294              		.loc 1 581 10 is_stmt 1 view .LVU384
 581:fltk-1.3.4-1/png/pngwutil.c ****             input_len > 0 ? Z_NO_FLUSH : Z_FINISH);
 1295              		.loc 1 581 16 is_stmt 0 view .LVU385
 1296 00cf 31F6     		xorl	%esi, %esi
 1297 00d1 4D85F6   		testq	%r14, %r14
 1298 00d4 400F94C6 		sete	%sil
 1299 00d8 C1E602   		sall	$2, %esi
 1300              	.L117:
 1301              	.LVL123:
 581:fltk-1.3.4-1/png/pngwutil.c ****             input_len > 0 ? Z_NO_FLUSH : Z_FINISH);
 1302              		.loc 1 581 16 view .LVU386
 1303 00db 4C89EF   		movq	%r13, %rdi
 1304 00de E8000000 		call	deflate@PLT
 1304      00
 1305              	.LVL124:
 587:fltk-1.3.4-1/png/pngwutil.c ****          png_ptr->zstream.avail_in = 0; /* safety */
 1306              		.loc 1 587 10 is_stmt 1 view .LVU387
 587:fltk-1.3.4-1/png/pngwutil.c ****          png_ptr->zstream.avail_in = 0; /* safety */
 1307              		.loc 1 587 39 is_stmt 0 view .LVU388
 1308 00e3 418B8F48 		movl	328(%r15), %ecx
 1308      010000
 588:fltk-1.3.4-1/png/pngwutil.c ****       }
 1309              		.loc 1 588 36 view .LVU389
 1310 00ea 41C78748 		movl	$0, 328(%r15)
 1310      01000000 
 1310      000000
 587:fltk-1.3.4-1/png/pngwutil.c ****          png_ptr->zstream.avail_in = 0; /* safety */
 1311              		.loc 1 587 20 view .LVU390
 1312 00f5 4A8D1431 		leaq	(%rcx,%r14), %rdx
 1313              	.LVL125:
 588:fltk-1.3.4-1/png/pngwutil.c ****       }
 1314              		.loc 1 588 10 is_stmt 1 view .LVU391
 1315              	.LBE246:
 590:fltk-1.3.4-1/png/pngwutil.c **** 
 1316              		.loc 1 590 13 view .LVU392
 590:fltk-1.3.4-1/png/pngwutil.c **** 
 1317              		.loc 1 590 7 is_stmt 0 view .LVU393
 1318 00f9 85C0     		testl	%eax, %eax
 1319 00fb 755B     		jne	.L118
 1320 00fd 418B8760 		movl	352(%r15), %eax
 1320      010000
 1321              	.LVL126:
 1322              	.L119:
 528:fltk-1.3.4-1/png/pngwutil.c ****       {
 1323              		.loc 1 528 7 is_stmt 1 view .LVU394
 1324              	.LBB247:
 530:fltk-1.3.4-1/png/pngwutil.c **** 
 1325              		.loc 1 530 10 view .LVU395
 532:fltk-1.3.4-1/png/pngwutil.c ****             avail_in = (uInt)input_len;
 1326              		.loc 1 532 10 view .LVU396
 532:fltk-1.3.4-1/png/pngwutil.c ****             avail_in = (uInt)input_len;
 1327              		.loc 1 532 13 is_stmt 0 view .LVU397
 1328 0104 4C39E2   		cmpq	%r12, %rdx
 1329 0107 0F8773FF 		ja	.L137
 1329      FFFF
 533:fltk-1.3.4-1/png/pngwutil.c **** 
 1330              		.loc 1 533 13 is_stmt 1 view .LVU398
 1331              	.LVL127:
 535:fltk-1.3.4-1/png/pngwutil.c **** 
 1332              		.loc 1 535 10 view .LVU399
 537:fltk-1.3.4-1/png/pngwutil.c **** 
 1333              		.loc 1 537 10 view .LVU400
 537:fltk-1.3.4-1/png/pngwutil.c **** 
 1334              		.loc 1 537 36 is_stmt 0 view .LVU401
 1335 010d 41899748 		movl	%edx, 328(%r15)
 1335      010000
 539:fltk-1.3.4-1/png/pngwutil.c ****          {
 1336              		.loc 1 539 10 is_stmt 1 view .LVU402
 535:fltk-1.3.4-1/png/pngwutil.c **** 
 1337              		.loc 1 535 20 is_stmt 0 view .LVU403
 1338 0114 4531F6   		xorl	%r14d, %r14d
 581:fltk-1.3.4-1/png/pngwutil.c ****             input_len > 0 ? Z_NO_FLUSH : Z_FINISH);
 1339              		.loc 1 581 16 view .LVU404
 1340 0117 BE040000 		movl	$4, %esi
 1340      00
 539:fltk-1.3.4-1/png/pngwutil.c ****          {
 1341              		.loc 1 539 13 view .LVU405
 1342 011c 85C0     		testl	%eax, %eax
 1343 011e 75BB     		jne	.L117
 1344 0120 E978FFFF 		jmp	.L121
 1344      FF
 1345              	.LVL128:
 1346              		.p2align 4,,10
 1347 0125 0F1F00   		.p2align 3
 1348              	.L136:
 1349              	.LBB244:
 558:fltk-1.3.4-1/png/pngwutil.c ****                   (png_ptr, PNG_COMPRESSION_BUFFER_SIZE(png_ptr)));
 1350              		.loc 1 558 16 is_stmt 1 view .LVU406
 558:fltk-1.3.4-1/png/pngwutil.c ****                   (png_ptr, PNG_COMPRESSION_BUFFER_SIZE(png_ptr)));
 1351              		.loc 1 558 23 is_stmt 0 view .LVU407
 1352 0128 4883C608 		addq	$8, %rsi
 1353 012c 4C89FF   		movq	%r15, %rdi
 1354 012f E8000000 		call	png_malloc_base@PLT
 1354      00
 1355              	.LVL129:
 561:fltk-1.3.4-1/png/pngwutil.c ****                {
 1356              		.loc 1 561 16 is_stmt 1 view .LVU408
 561:fltk-1.3.4-1/png/pngwutil.c ****                {
 1357              		.loc 1 561 19 is_stmt 0 view .LVU409
 1358 0134 4885C0   		testq	%rax, %rax
 1359 0137 0F841301 		je	.L138
 1359      0000
 568:fltk-1.3.4-1/png/pngwutil.c ****                *end = next;
 1360              		.loc 1 568 16 is_stmt 1 view .LVU410
 568:fltk-1.3.4-1/png/pngwutil.c ****                *end = next;
 1361              		.loc 1 568 27 is_stmt 0 view .LVU411
 1362 013d 48C70000 		movq	$0, (%rax)
 1362      000000
 569:fltk-1.3.4-1/png/pngwutil.c ****             }
 1363              		.loc 1 569 16 is_stmt 1 view .LVU412
 569:fltk-1.3.4-1/png/pngwutil.c ****             }
 1364              		.loc 1 569 21 is_stmt 0 view .LVU413
 1365 0144 48894500 		movq	%rax, 0(%rbp)
 1366 0148 418BB7B8 		movl	440(%r15), %esi
 1366      010000
 1367 014f E964FFFF 		jmp	.L115
 1367      FF
 1368              	.LVL130:
 1369              		.p2align 4,,10
 1370 0154 0F1F4000 		.p2align 3
 1371              	.L118:
 569:fltk-1.3.4-1/png/pngwutil.c ****             }
 1372              		.loc 1 569 21 view .LVU414
 1373              	.LBE244:
 1374              	.LBE247:
 595:fltk-1.3.4-1/png/pngwutil.c ****       png_ptr->zstream.avail_out = 0; /* safety */
 1375              		.loc 1 595 7 is_stmt 1 view .LVU415
 597:fltk-1.3.4-1/png/pngwutil.c **** 
 1376              		.loc 1 597 24 is_stmt 0 view .LVU416
 1377 0158 488B7C24 		movq	8(%rsp), %rdi
 1377      08
 595:fltk-1.3.4-1/png/pngwutil.c ****       png_ptr->zstream.avail_out = 0; /* safety */
 1378              		.loc 1 595 18 view .LVU417
 1379 015d 412B9F60 		subl	352(%r15), %ebx
 1379      010000
 1380              	.LVL131:
 596:fltk-1.3.4-1/png/pngwutil.c ****       comp->output_len = output_len;
 1381              		.loc 1 596 7 is_stmt 1 view .LVU418
 596:fltk-1.3.4-1/png/pngwutil.c ****       comp->output_len = output_len;
 1382              		.loc 1 596 34 is_stmt 0 view .LVU419
 1383 0164 41C78760 		movl	$0, 352(%r15)
 1383      01000000 
 1383      000000
 597:fltk-1.3.4-1/png/pngwutil.c **** 
 1384              		.loc 1 597 7 is_stmt 1 view .LVU420
 597:fltk-1.3.4-1/png/pngwutil.c **** 
 1385              		.loc 1 597 24 is_stmt 0 view .LVU421
 1386 016f 895F10   		movl	%ebx, 16(%rdi)
 603:fltk-1.3.4-1/png/pngwutil.c ****       {
 1387              		.loc 1 603 7 is_stmt 1 view .LVU422
 603:fltk-1.3.4-1/png/pngwutil.c ****       {
 1388              		.loc 1 603 22 is_stmt 0 view .LVU423
 1389 0172 031C24   		addl	(%rsp), %ebx
 1390              	.LVL132:
 603:fltk-1.3.4-1/png/pngwutil.c ****       {
 1391              		.loc 1 603 10 view .LVU424
 1392 0175 81FBFEFF 		cmpl	$2147483646, %ebx
 1392      FF7F
 1393 017b 0F878100 		ja	.L122
 1393      0000
 610:fltk-1.3.4-1/png/pngwutil.c **** 
 1394              		.loc 1 610 10 view .LVU425
 1395 0181 89C6     		movl	%eax, %esi
 1396 0183 4C89FF   		movq	%r15, %rdi
 1397              	.LVL133:
 610:fltk-1.3.4-1/png/pngwutil.c **** 
 1398              		.loc 1 610 10 view .LVU426
 1399 0186 890424   		movl	%eax, (%rsp)
 1400              	.LVL134:
 610:fltk-1.3.4-1/png/pngwutil.c **** 
 1401              		.loc 1 610 10 view .LVU427
 1402 0189 48895424 		movq	%rdx, 24(%rsp)
 1402      18
 610:fltk-1.3.4-1/png/pngwutil.c **** 
 1403              		.loc 1 610 10 is_stmt 1 view .LVU428
 1404 018e E8000000 		call	png_zstream_error@PLT
 1404      00
 1405              	.LVL135:
 613:fltk-1.3.4-1/png/pngwutil.c **** 
 1406              		.loc 1 613 7 view .LVU429
 618:fltk-1.3.4-1/png/pngwutil.c ****       {
 1407              		.loc 1 618 10 is_stmt 0 view .LVU430
 1408 0193 8B0424   		movl	(%rsp), %eax
 613:fltk-1.3.4-1/png/pngwutil.c **** 
 1409              		.loc 1 613 23 view .LVU431
 1410 0196 41C78738 		movl	$0, 312(%r15)
 1410      01000000 
 1410      000000
 618:fltk-1.3.4-1/png/pngwutil.c ****       {
 1411              		.loc 1 618 7 is_stmt 1 view .LVU432
 618:fltk-1.3.4-1/png/pngwutil.c ****       {
 1412              		.loc 1 618 10 is_stmt 0 view .LVU433
 1413 01a1 83F801   		cmpl	$1, %eax
 1414 01a4 757F     		jne	.L126
 618:fltk-1.3.4-1/png/pngwutil.c ****       {
 1415              		.loc 1 618 10 view .LVU434
 1416 01a6 488B5424 		movq	24(%rsp), %rdx
 1416      18
 1417 01ab 4885D2   		testq	%rdx, %rdx
 1418 01ae 7575     		jne	.L126
 622:fltk-1.3.4-1/png/pngwutil.c **** #endif
 1419              		.loc 1 622 10 is_stmt 1 view .LVU435
 1420 01b0 488B4424 		movq	8(%rsp), %rax
 1420      08
 1421 01b5 488B7008 		movq	8(%rax), %rsi
 1422              	.LVL136:
 1423              	.LBB248:
 1424              	.LBI248:
 251:fltk-1.3.4-1/png/pngwutil.c **** {
 1425              		.loc 1 251 1 view .LVU436
 1426              	.LBB249:
 256:fltk-1.3.4-1/png/pngwutil.c ****    {
 1427              		.loc 1 256 4 view .LVU437
 256:fltk-1.3.4-1/png/pngwutil.c ****    {
 1428              		.loc 1 256 7 is_stmt 0 view .LVU438
 1429 01b9 4881FE00 		cmpq	$16384, %rsi
 1429      400000
 1430 01c0 770A     		ja	.L110
 1431 01c2 488B7C24 		movq	16(%rsp), %rdi
 1431      10
 1432 01c7 E8000000 		call	optimize_cmf.part.0
 1432      00
 1433              	.LVL137:
 1434              	.L110:
 256:fltk-1.3.4-1/png/pngwutil.c ****    {
 1435              		.loc 1 256 7 view .LVU439
 1436              	.LBE249:
 1437              	.LBE248:
 1438              	.LBE241:
 1439              	.LBE240:
 1440              	.LBE239:
 634:fltk-1.3.4-1/png/pngwutil.c **** 
 1441              		.loc 1 634 1 view .LVU440
 1442 01cc 8B442404 		movl	4(%rsp), %eax
 1443 01d0 4883C428 		addq	$40, %rsp
 1444              		.cfi_remember_state
 1445              		.cfi_def_cfa_offset 56
 1446 01d4 5B       		popq	%rbx
 1447              		.cfi_def_cfa_offset 48
 1448 01d5 5D       		popq	%rbp
 1449              		.cfi_def_cfa_offset 40
 1450 01d6 415C     		popq	%r12
 1451              		.cfi_def_cfa_offset 32
 1452 01d8 415D     		popq	%r13
 1453              		.cfi_def_cfa_offset 24
 1454 01da 415E     		popq	%r14
 1455              		.cfi_def_cfa_offset 16
 1456 01dc 415F     		popq	%r15
 1457              		.cfi_def_cfa_offset 8
 1458              	.LVL138:
 634:fltk-1.3.4-1/png/pngwutil.c **** 
 1459              		.loc 1 634 1 view .LVU441
 1460 01de C3       		ret
 1461              	.LVL139:
 1462 01df 90       		.p2align 4,,10
 1463              		.p2align 3
 1464              	.L124:
 1465              		.cfi_restore_state
 1466              	.LBB253:
 1467              	.LBB252:
 1468              	.LBB251:
 1469              	.LBB250:
 1470              	.LBB245:
 634:fltk-1.3.4-1/png/pngwutil.c **** 
 1471              		.loc 1 634 1 view .LVU442
 1472 01e0 31C0     		xorl	%eax, %eax
 1473              	.L114:
 1474              	.LVL140:
 634:fltk-1.3.4-1/png/pngwutil.c **** 
 1475              		.loc 1 634 1 view .LVU443
 1476              	.LBE245:
 1477              	.LBE250:
 595:fltk-1.3.4-1/png/pngwutil.c ****       png_ptr->zstream.avail_out = 0; /* safety */
 1478              		.loc 1 595 7 is_stmt 1 view .LVU444
 596:fltk-1.3.4-1/png/pngwutil.c ****       comp->output_len = output_len;
 1479              		.loc 1 596 34 is_stmt 0 view .LVU445
 1480 01e2 41C78760 		movl	$0, 352(%r15)
 1480      01000000 
 1480      000000
 595:fltk-1.3.4-1/png/pngwutil.c ****       png_ptr->zstream.avail_out = 0; /* safety */
 1481              		.loc 1 595 18 view .LVU446
 1482 01ed 29C3     		subl	%eax, %ebx
 1483              	.LVL141:
 596:fltk-1.3.4-1/png/pngwutil.c ****       comp->output_len = output_len;
 1484              		.loc 1 596 7 is_stmt 1 view .LVU447
 597:fltk-1.3.4-1/png/pngwutil.c **** 
 1485              		.loc 1 597 7 view .LVU448
 597:fltk-1.3.4-1/png/pngwutil.c **** 
 1486              		.loc 1 597 24 is_stmt 0 view .LVU449
 1487 01ef 488B4424 		movq	8(%rsp), %rax
 1487      08
 1488 01f4 895810   		movl	%ebx, 16(%rax)
 603:fltk-1.3.4-1/png/pngwutil.c ****       {
 1489              		.loc 1 603 7 is_stmt 1 view .LVU450
 603:fltk-1.3.4-1/png/pngwutil.c ****       {
 1490              		.loc 1 603 22 is_stmt 0 view .LVU451
 1491 01f7 031C24   		addl	(%rsp), %ebx
 1492              	.LVL142:
 603:fltk-1.3.4-1/png/pngwutil.c ****       {
 1493              		.loc 1 603 10 view .LVU452
 1494 01fa 81FBFEFF 		cmpl	$2147483646, %ebx
 1494      FF7F
 1495 0200 7629     		jbe	.L139
 1496              	.LVL143:
 1497              	.L122:
 605:fltk-1.3.4-1/png/pngwutil.c ****          ret = Z_MEM_ERROR;
 1498              		.loc 1 605 10 is_stmt 1 view .LVU453
 605:fltk-1.3.4-1/png/pngwutil.c ****          ret = Z_MEM_ERROR;
 1499              		.loc 1 605 31 is_stmt 0 view .LVU454
 1500 0202 488D0500 		leaq	.LC6(%rip), %rax
 1500      000000
 606:fltk-1.3.4-1/png/pngwutil.c ****       }
 1501              		.loc 1 606 14 view .LVU455
 1502 0209 C7442404 		movl	$-4, 4(%rsp)
 1502      FCFFFFFF 
 1503              	.LVL144:
 605:fltk-1.3.4-1/png/pngwutil.c ****          ret = Z_MEM_ERROR;
 1504              		.loc 1 605 31 view .LVU456
 1505 0211 49898770 		movq	%rax, 368(%r15)
 1505      010000
 606:fltk-1.3.4-1/png/pngwutil.c ****       }
 1506              		.loc 1 606 10 is_stmt 1 view .LVU457
 1507              	.LVL145:
 613:fltk-1.3.4-1/png/pngwutil.c **** 
 1508              		.loc 1 613 7 view .LVU458
 613:fltk-1.3.4-1/png/pngwutil.c **** 
 1509              		.loc 1 613 23 is_stmt 0 view .LVU459
 1510 0218 41C78738 		movl	$0, 312(%r15)
 1510      01000000 
 1510      000000
 618:fltk-1.3.4-1/png/pngwutil.c ****       {
 1511              		.loc 1 618 7 is_stmt 1 view .LVU460
 1512 0223 EBA7     		jmp	.L110
 1513              	.LVL146:
 1514              	.L126:
 618:fltk-1.3.4-1/png/pngwutil.c ****       {
 1515              		.loc 1 618 7 is_stmt 0 view .LVU461
 1516 0225 89442404 		movl	%eax, 4(%rsp)
 1517              	.LVL147:
 618:fltk-1.3.4-1/png/pngwutil.c ****       {
 1518              		.loc 1 618 7 view .LVU462
 1519 0229 EBA1     		jmp	.L110
 1520              	.LVL148:
 1521              	.L139:
 610:fltk-1.3.4-1/png/pngwutil.c **** 
 1522              		.loc 1 610 10 is_stmt 1 view .LVU463
 1523 022b BEFCFFFF 		movl	$-4, %esi
 1523      FF
 1524 0230 4C89FF   		movq	%r15, %rdi
 1525 0233 E8000000 		call	png_zstream_error@PLT
 1525      00
 1526              	.LVL149:
 613:fltk-1.3.4-1/png/pngwutil.c **** 
 1527              		.loc 1 613 7 view .LVU464
 613:fltk-1.3.4-1/png/pngwutil.c **** 
 1528              		.loc 1 613 23 is_stmt 0 view .LVU465
 1529 0238 C7442404 		movl	$-4, 4(%rsp)
 1529      FCFFFFFF 
 1530              	.LVL150:
 613:fltk-1.3.4-1/png/pngwutil.c **** 
 1531              		.loc 1 613 23 view .LVU466
 1532 0240 41C78738 		movl	$0, 312(%r15)
 1532      01000000 
 1532      000000
 618:fltk-1.3.4-1/png/pngwutil.c ****       {
 1533              		.loc 1 618 7 is_stmt 1 view .LVU467
 1534 024b E97CFFFF 		jmp	.L110
 1534      FF
 1535              	.LVL151:
 1536              	.L138:
 618:fltk-1.3.4-1/png/pngwutil.c ****       {
 1537              		.loc 1 618 7 is_stmt 0 view .LVU468
 1538 0250 418B8760 		movl	352(%r15), %eax
 1538      010000
 1539              	.LVL152:
 618:fltk-1.3.4-1/png/pngwutil.c ****       {
 1540              		.loc 1 618 7 view .LVU469
 1541 0257 EB89     		jmp	.L114
 1542              	.LBE251:
 1543              	.LBE252:
 1544              	.LBE253:
 1545              		.cfi_endproc
 1546              	.LFE55:
 1548              		.section	.text.png_write_chunk_header.part.0,"ax",@progbits
 1549              		.p2align 4
 1551              	png_write_chunk_header.part.0:
 1552              	.LVL153:
 1553              	.LFB87:
  73:fltk-1.3.4-1/png/pngwutil.c ****     png_uint_32 length)
 1554              		.loc 1 73 1 is_stmt 1 view -0
 1555              		.cfi_startproc
  73:fltk-1.3.4-1/png/pngwutil.c ****     png_uint_32 length)
 1556              		.loc 1 73 1 is_stmt 0 view .LVU471
 1557 0000 55       		pushq	%rbp
 1558              		.cfi_def_cfa_offset 16
 1559              		.cfi_offset 6, -16
 1560 0001 0FCA     		bswap	%edx
 1561              	.LVL154:
  73:fltk-1.3.4-1/png/pngwutil.c ****     png_uint_32 length)
 1562              		.loc 1 73 1 view .LVU472
 1563 0003 89F5     		movl	%esi, %ebp
 1564 0005 53       		pushq	%rbx
 1565              		.cfi_def_cfa_offset 24
 1566              		.cfi_offset 3, -24
 1567 0006 4889FB   		movq	%rdi, %rbx
 1568 0009 4883EC18 		subq	$24, %rsp
 1569              		.cfi_def_cfa_offset 48
  73:fltk-1.3.4-1/png/pngwutil.c ****     png_uint_32 length)
 1570              		.loc 1 73 1 view .LVU473
 1571 000d 64488B04 		movq	%fs:40, %rax
 1571      25280000 
 1571      00
 1572 0016 48894424 		movq	%rax, 8(%rsp)
 1572      08
 1573 001b 31C0     		xorl	%eax, %eax
  90:fltk-1.3.4-1/png/pngwutil.c **** #endif
 1574              		.loc 1 90 4 is_stmt 1 view .LVU474
 1575              	.LBB254:
 1576              	.LBB255:
  26:fltk-1.3.4-1/png/pngwutil.c ****    buf[1] = (png_byte)((i >> 16) & 0xff);
 1577              		.loc 1 26 11 is_stmt 0 view .LVU475
 1578 001d 891424   		movl	%edx, (%rsp)
 1579 0020 89F0     		movl	%esi, %eax
 1580              	.LBE255:
 1581              	.LBE254:
  96:fltk-1.3.4-1/png/pngwutil.c **** 
 1582              		.loc 1 96 4 view .LVU476
 1583 0022 BA080000 		movl	$8, %edx
 1583      00
  90:fltk-1.3.4-1/png/pngwutil.c **** #endif
 1584              		.loc 1 90 22 view .LVU477
 1585 0027 C787AC04 		movl	$34, 1196(%rdi)
 1585      00002200 
 1585      0000
  94:fltk-1.3.4-1/png/pngwutil.c ****    png_save_uint_32(buf + 4, chunk_name);
 1586              		.loc 1 94 4 is_stmt 1 view .LVU478
 1587              	.LVL155:
 1588              	.LBB257:
 1589              	.LBI254:
  24:fltk-1.3.4-1/png/pngwutil.c **** {
 1590              		.loc 1 24 1 view .LVU479
 1591              	.LBB256:
  26:fltk-1.3.4-1/png/pngwutil.c ****    buf[1] = (png_byte)((i >> 16) & 0xff);
 1592              		.loc 1 26 4 view .LVU480
  27:fltk-1.3.4-1/png/pngwutil.c ****    buf[2] = (png_byte)((i >> 8) & 0xff);
 1593              		.loc 1 27 4 view .LVU481
  28:fltk-1.3.4-1/png/pngwutil.c ****    buf[3] = (png_byte)(i & 0xff);
 1594              		.loc 1 28 4 view .LVU482
  29:fltk-1.3.4-1/png/pngwutil.c **** }
 1595              		.loc 1 29 4 view .LVU483
  29:fltk-1.3.4-1/png/pngwutil.c **** }
 1596              		.loc 1 29 4 is_stmt 0 view .LVU484
 1597              	.LBE256:
 1598              	.LBE257:
  95:fltk-1.3.4-1/png/pngwutil.c ****    png_write_data(png_ptr, buf, 8);
 1599              		.loc 1 95 4 is_stmt 1 view .LVU485
 1600              	.LBB258:
 1601              	.LBI258:
  24:fltk-1.3.4-1/png/pngwutil.c **** {
 1602              		.loc 1 24 1 view .LVU486
 1603              	.LBB259:
  26:fltk-1.3.4-1/png/pngwutil.c ****    buf[1] = (png_byte)((i >> 16) & 0xff);
 1604              		.loc 1 26 4 view .LVU487
  27:fltk-1.3.4-1/png/pngwutil.c ****    buf[2] = (png_byte)((i >> 8) & 0xff);
 1605              		.loc 1 27 4 view .LVU488
  28:fltk-1.3.4-1/png/pngwutil.c ****    buf[3] = (png_byte)(i & 0xff);
 1606              		.loc 1 28 4 view .LVU489
  29:fltk-1.3.4-1/png/pngwutil.c **** }
 1607              		.loc 1 29 4 view .LVU490
 1608              	.LBE259:
 1609              	.LBE258:
  96:fltk-1.3.4-1/png/pngwutil.c **** 
 1610              		.loc 1 96 4 is_stmt 0 view .LVU491
 1611 0031 4889E6   		movq	%rsp, %rsi
 1612              	.LVL156:
  96:fltk-1.3.4-1/png/pngwutil.c **** 
 1613              		.loc 1 96 4 view .LVU492
 1614 0034 0FC8     		bswap	%eax
 1615              	.LVL157:
 1616              	.LBB261:
 1617              	.LBB260:
  26:fltk-1.3.4-1/png/pngwutil.c ****    buf[1] = (png_byte)((i >> 16) & 0xff);
 1618              		.loc 1 26 11 view .LVU493
 1619 0036 89442404 		movl	%eax, 4(%rsp)
 1620              	.LVL158:
  26:fltk-1.3.4-1/png/pngwutil.c ****    buf[1] = (png_byte)((i >> 16) & 0xff);
 1621              		.loc 1 26 11 view .LVU494
 1622              	.LBE260:
 1623              	.LBE261:
  96:fltk-1.3.4-1/png/pngwutil.c **** 
 1624              		.loc 1 96 4 is_stmt 1 view .LVU495
 1625 003a E8000000 		call	png_write_data@PLT
 1625      00
 1626              	.LVL159:
  99:fltk-1.3.4-1/png/pngwutil.c **** 
 1627              		.loc 1 99 4 view .LVU496
  99:fltk-1.3.4-1/png/pngwutil.c **** 
 1628              		.loc 1 99 24 is_stmt 0 view .LVU497
 1629 003f 89AB1802 		movl	%ebp, 536(%rbx)
 1629      0000
 102:fltk-1.3.4-1/png/pngwutil.c **** 
 1630              		.loc 1 102 4 is_stmt 1 view .LVU498
 1631 0045 4889DF   		movq	%rbx, %rdi
 1632 0048 E8000000 		call	png_reset_crc@PLT
 1632      00
 1633              	.LVL160:
 104:fltk-1.3.4-1/png/pngwutil.c **** 
 1634              		.loc 1 104 4 view .LVU499
 1635 004d 488D7424 		leaq	4(%rsp), %rsi
 1635      04
 1636 0052 BA040000 		movl	$4, %edx
 1636      00
 1637 0057 4889DF   		movq	%rbx, %rdi
 1638 005a E8000000 		call	png_calculate_crc@PLT
 1638      00
 1639              	.LVL161:
 110:fltk-1.3.4-1/png/pngwutil.c **** #endif
 1640              		.loc 1 110 4 view .LVU500
 110:fltk-1.3.4-1/png/pngwutil.c **** #endif
 1641              		.loc 1 110 22 is_stmt 0 view .LVU501
 1642 005f C783AC04 		movl	$66, 1196(%rbx)
 1642      00004200 
 1642      0000
 112:fltk-1.3.4-1/png/pngwutil.c **** 
 1643              		.loc 1 112 1 view .LVU502
 1644 0069 488B4424 		movq	8(%rsp), %rax
 1644      08
 1645 006e 64483304 		xorq	%fs:40, %rax
 1645      25280000 
 1645      00
 1646 0077 7507     		jne	.L143
 1647 0079 4883C418 		addq	$24, %rsp
 1648              		.cfi_remember_state
 1649              		.cfi_def_cfa_offset 24
 1650 007d 5B       		popq	%rbx
 1651              		.cfi_def_cfa_offset 16
 1652              	.LVL162:
 112:fltk-1.3.4-1/png/pngwutil.c **** 
 1653              		.loc 1 112 1 view .LVU503
 1654 007e 5D       		popq	%rbp
 1655              		.cfi_def_cfa_offset 8
 1656              	.LVL163:
 112:fltk-1.3.4-1/png/pngwutil.c **** 
 1657              		.loc 1 112 1 view .LVU504
 1658 007f C3       		ret
 1659              	.LVL164:
 1660              	.L143:
 1661              		.cfi_restore_state
 112:fltk-1.3.4-1/png/pngwutil.c **** 
 1662              		.loc 1 112 1 view .LVU505
 1663 0080 E8000000 		call	__stack_chk_fail@PLT
 1663      00
 1664              	.LVL165:
 1665              		.cfi_endproc
 1666              	.LFE87:
 1668              		.section	.text.png_write_chunk_data.part.0,"ax",@progbits
 1669              		.p2align 4
 1671              	png_write_chunk_data.part.0:
 1672              	.LVL166:
 1673              	.LFB88:
 127:fltk-1.3.4-1/png/pngwutil.c ****     png_size_t length)
 1674              		.loc 1 127 1 is_stmt 1 view -0
 1675              		.cfi_startproc
 136:fltk-1.3.4-1/png/pngwutil.c **** 
 1676              		.loc 1 136 7 view .LVU507
 127:fltk-1.3.4-1/png/pngwutil.c ****     png_size_t length)
 1677              		.loc 1 127 1 is_stmt 0 view .LVU508
 1678 0000 4155     		pushq	%r13
 1679              		.cfi_def_cfa_offset 16
 1680              		.cfi_offset 13, -16
 1681 0002 4989D5   		movq	%rdx, %r13
 1682 0005 4154     		pushq	%r12
 1683              		.cfi_def_cfa_offset 24
 1684              		.cfi_offset 12, -24
 1685 0007 4989F4   		movq	%rsi, %r12
 1686 000a 55       		pushq	%rbp
 1687              		.cfi_def_cfa_offset 32
 1688              		.cfi_offset 6, -32
 127:fltk-1.3.4-1/png/pngwutil.c ****     png_size_t length)
 1689              		.loc 1 127 1 view .LVU509
 1690 000b 4889FD   		movq	%rdi, %rbp
 136:fltk-1.3.4-1/png/pngwutil.c **** 
 1691              		.loc 1 136 7 view .LVU510
 1692 000e E8000000 		call	png_write_data@PLT
 1692      00
 1693              	.LVL167:
 141:fltk-1.3.4-1/png/pngwutil.c ****    }
 1694              		.loc 1 141 7 is_stmt 1 view .LVU511
 1695 0013 4C89EA   		movq	%r13, %rdx
 1696 0016 4C89E6   		movq	%r12, %rsi
 1697 0019 4889EF   		movq	%rbp, %rdi
 143:fltk-1.3.4-1/png/pngwutil.c **** 
 1698              		.loc 1 143 1 is_stmt 0 view .LVU512
 1699 001c 5D       		popq	%rbp
 1700              		.cfi_def_cfa_offset 24
 1701              	.LVL168:
 143:fltk-1.3.4-1/png/pngwutil.c **** 
 1702              		.loc 1 143 1 view .LVU513
 1703 001d 415C     		popq	%r12
 1704              		.cfi_def_cfa_offset 16
 1705              	.LVL169:
 143:fltk-1.3.4-1/png/pngwutil.c **** 
 1706              		.loc 1 143 1 view .LVU514
 1707 001f 415D     		popq	%r13
 1708              		.cfi_def_cfa_offset 8
 1709              	.LVL170:
 141:fltk-1.3.4-1/png/pngwutil.c ****    }
 1710              		.loc 1 141 7 view .LVU515
 1711 0021 E9000000 		jmp	png_calculate_crc@PLT
 1711      00
 1712              	.LVL171:
 141:fltk-1.3.4-1/png/pngwutil.c ****    }
 1713              		.loc 1 141 7 view .LVU516
 1714              		.cfi_endproc
 1715              	.LFE88:
 1717              		.section	.rodata.png_write_compressed_data_out.str1.8,"aMS",@progbits,1
 1718              		.align 8
 1719              	.LC7:
 1720 0000 6572726F 		.string	"error writing ancillary chunked compressed data"
 1720      72207772 
 1720      6974696E 
 1720      6720616E 
 1720      63696C6C 
 1721              		.section	.text.png_write_compressed_data_out,"ax",@progbits
 1722              		.p2align 4
 1724              	png_write_compressed_data_out:
 1725              	.LVL172:
 1726              	.LFB56:
 639:fltk-1.3.4-1/png/pngwutil.c ****    png_uint_32 output_len = comp->output_len;
 1727              		.loc 1 639 1 is_stmt 1 view -0
 1728              		.cfi_startproc
 640:fltk-1.3.4-1/png/pngwutil.c ****    png_const_bytep output = comp->output;
 1729              		.loc 1 640 4 view .LVU518
 639:fltk-1.3.4-1/png/pngwutil.c ****    png_uint_32 output_len = comp->output_len;
 1730              		.loc 1 639 1 is_stmt 0 view .LVU519
 1731 0000 4155     		pushq	%r13
 1732              		.cfi_def_cfa_offset 16
 1733              		.cfi_offset 13, -16
 641:fltk-1.3.4-1/png/pngwutil.c ****    png_uint_32 avail = (sizeof comp->output);
 1734              		.loc 1 641 20 view .LVU520
 1735 0002 4883C614 		addq	$20, %rsi
 1736              	.LVL173:
 639:fltk-1.3.4-1/png/pngwutil.c ****    png_uint_32 output_len = comp->output_len;
 1737              		.loc 1 639 1 view .LVU521
 1738 0006 4989FD   		movq	%rdi, %r13
 1739 0009 4154     		pushq	%r12
 1740              		.cfi_def_cfa_offset 24
 1741              		.cfi_offset 12, -24
 1742 000b 55       		pushq	%rbp
 1743              		.cfi_def_cfa_offset 32
 1744              		.cfi_offset 6, -32
 1745 000c 53       		pushq	%rbx
 1746              		.cfi_def_cfa_offset 40
 1747              		.cfi_offset 3, -40
 642:fltk-1.3.4-1/png/pngwutil.c ****    png_compression_buffer *next = png_ptr->zbuffer_list;
 1748              		.loc 1 642 16 view .LVU522
 1749 000d BB000400 		movl	$1024, %ebx
 1749      00
 639:fltk-1.3.4-1/png/pngwutil.c ****    png_uint_32 output_len = comp->output_len;
 1750              		.loc 1 639 1 view .LVU523
 1751 0012 4883EC08 		subq	$8, %rsp
 1752              		.cfi_def_cfa_offset 48
 640:fltk-1.3.4-1/png/pngwutil.c ****    png_const_bytep output = comp->output;
 1753              		.loc 1 640 16 view .LVU524
 1754 0016 8B6EFC   		movl	-4(%rsi), %ebp
 1755              	.LVL174:
 641:fltk-1.3.4-1/png/pngwutil.c ****    png_uint_32 avail = (sizeof comp->output);
 1756              		.loc 1 641 4 is_stmt 1 view .LVU525
 642:fltk-1.3.4-1/png/pngwutil.c ****    png_compression_buffer *next = png_ptr->zbuffer_list;
 1757              		.loc 1 642 4 view .LVU526
 643:fltk-1.3.4-1/png/pngwutil.c **** 
 1758              		.loc 1 643 4 view .LVU527
 643:fltk-1.3.4-1/png/pngwutil.c **** 
 1759              		.loc 1 643 28 is_stmt 0 view .LVU528
 1760 0019 4C8BA7B0 		movq	432(%rdi), %r12
 1760      010000
 1761              	.LVL175:
 643:fltk-1.3.4-1/png/pngwutil.c **** 
 1762              		.loc 1 643 28 view .LVU529
 1763 0020 EB1F     		jmp	.L149
 1764              	.LVL176:
 1765              		.p2align 4,,10
 1766 0022 660F1F44 		.p2align 3
 1766      0000
 1767              	.L147:
 652:fltk-1.3.4-1/png/pngwutil.c **** 
 1768              		.loc 1 652 7 is_stmt 1 view .LVU530
 654:fltk-1.3.4-1/png/pngwutil.c ****          break;
 1769              		.loc 1 654 7 view .LVU531
 654:fltk-1.3.4-1/png/pngwutil.c ****          break;
 1770              		.loc 1 654 10 is_stmt 0 view .LVU532
 1771 0028 29DD     		subl	%ebx, %ebp
 1772              	.LVL177:
 654:fltk-1.3.4-1/png/pngwutil.c ****          break;
 1773              		.loc 1 654 10 view .LVU533
 1774 002a 7434     		je	.L148
 1775              	.LVL178:
 1776              	.L155:
 654:fltk-1.3.4-1/png/pngwutil.c ****          break;
 1777              		.loc 1 654 10 view .LVU534
 1778 002c 4D85E4   		testq	%r12, %r12
 1779 002f 742F     		je	.L148
 657:fltk-1.3.4-1/png/pngwutil.c ****       output = next->output;
 1780              		.loc 1 657 7 is_stmt 1 view .LVU535
 658:fltk-1.3.4-1/png/pngwutil.c ****       next = next->next;
 1781              		.loc 1 658 14 is_stmt 0 view .LVU536
 1782 0031 498D7424 		leaq	8(%r12), %rsi
 1782      08
 657:fltk-1.3.4-1/png/pngwutil.c ****       output = next->output;
 1783              		.loc 1 657 13 view .LVU537
 1784 0036 418B9DB8 		movl	440(%r13), %ebx
 1784      010000
 1785              	.LVL179:
 658:fltk-1.3.4-1/png/pngwutil.c ****       next = next->next;
 1786              		.loc 1 658 7 is_stmt 1 view .LVU538
 659:fltk-1.3.4-1/png/pngwutil.c ****    }
 1787              		.loc 1 659 7 view .LVU539
 659:fltk-1.3.4-1/png/pngwutil.c ****    }
 1788              		.loc 1 659 12 is_stmt 0 view .LVU540
 1789 003d 4D8B2424 		movq	(%r12), %r12
 1790              	.LVL180:
 645:fltk-1.3.4-1/png/pngwutil.c ****    {
 1791              		.loc 1 645 10 is_stmt 1 view .LVU541
 1792              	.L149:
 645:fltk-1.3.4-1/png/pngwutil.c ****    {
 1793              		.loc 1 645 4 view .LVU542
 647:fltk-1.3.4-1/png/pngwutil.c ****          avail = output_len;
 1794              		.loc 1 647 7 view .LVU543
 1795 0041 39DD     		cmpl	%ebx, %ebp
 1796 0043 0F46DD   		cmovbe	%ebp, %ebx
 1797              	.LVL181:
 650:fltk-1.3.4-1/png/pngwutil.c **** 
 1798              		.loc 1 650 7 view .LVU544
 1799 0046 89DA     		movl	%ebx, %edx
 1800              	.LVL182:
 1801              	.LBB262:
 1802              	.LBI262:
 127:fltk-1.3.4-1/png/pngwutil.c ****     png_size_t length)
 1803              		.loc 1 127 1 view .LVU545
 1804              	.LBB263:
 131:fltk-1.3.4-1/png/pngwutil.c ****       return;
 1805              		.loc 1 131 4 view .LVU546
 134:fltk-1.3.4-1/png/pngwutil.c ****    {
 1806              		.loc 1 134 4 view .LVU547
 134:fltk-1.3.4-1/png/pngwutil.c ****    {
 1807              		.loc 1 134 7 is_stmt 0 view .LVU548
 1808 0048 85DB     		testl	%ebx, %ebx
 1809 004a 74DC     		je	.L147
 134:fltk-1.3.4-1/png/pngwutil.c ****    {
 1810              		.loc 1 134 7 view .LVU549
 1811 004c 4C89EF   		movq	%r13, %rdi
 1812 004f E8000000 		call	png_write_chunk_data.part.0
 1812      00
 1813              	.LVL183:
 134:fltk-1.3.4-1/png/pngwutil.c ****    {
 1814              		.loc 1 134 7 view .LVU550
 1815              	.LBE263:
 1816              	.LBE262:
 652:fltk-1.3.4-1/png/pngwutil.c **** 
 1817              		.loc 1 652 7 is_stmt 1 view .LVU551
 654:fltk-1.3.4-1/png/pngwutil.c ****          break;
 1818              		.loc 1 654 7 view .LVU552
 654:fltk-1.3.4-1/png/pngwutil.c ****          break;
 1819              		.loc 1 654 10 is_stmt 0 view .LVU553
 1820 0054 29DD     		subl	%ebx, %ebp
 1821              	.LVL184:
 654:fltk-1.3.4-1/png/pngwutil.c ****          break;
 1822              		.loc 1 654 10 view .LVU554
 1823 0056 75D4     		jne	.L155
 1824 0058 0F1F8400 		.p2align 4,,10
 1824      00000000 
 1825              		.p2align 3
 1826              	.L148:
 663:fltk-1.3.4-1/png/pngwutil.c ****       png_error(png_ptr, "error writing ancillary chunked compressed data");
 1827              		.loc 1 663 4 is_stmt 1 view .LVU555
 663:fltk-1.3.4-1/png/pngwutil.c ****       png_error(png_ptr, "error writing ancillary chunked compressed data");
 1828              		.loc 1 663 7 is_stmt 0 view .LVU556
 1829 0060 85ED     		testl	%ebp, %ebp
 1830 0062 750B     		jne	.L156
 665:fltk-1.3.4-1/png/pngwutil.c **** #endif /* WRITE_COMPRESSED_TEXT */
 1831              		.loc 1 665 1 view .LVU557
 1832 0064 4883C408 		addq	$8, %rsp
 1833              		.cfi_remember_state
 1834              		.cfi_def_cfa_offset 40
 1835 0068 5B       		popq	%rbx
 1836              		.cfi_def_cfa_offset 32
 1837              	.LVL185:
 665:fltk-1.3.4-1/png/pngwutil.c **** #endif /* WRITE_COMPRESSED_TEXT */
 1838              		.loc 1 665 1 view .LVU558
 1839 0069 5D       		popq	%rbp
 1840              		.cfi_def_cfa_offset 24
 1841              	.LVL186:
 665:fltk-1.3.4-1/png/pngwutil.c **** #endif /* WRITE_COMPRESSED_TEXT */
 1842              		.loc 1 665 1 view .LVU559
 1843 006a 415C     		popq	%r12
 1844              		.cfi_def_cfa_offset 16
 1845              	.LVL187:
 665:fltk-1.3.4-1/png/pngwutil.c **** #endif /* WRITE_COMPRESSED_TEXT */
 1846              		.loc 1 665 1 view .LVU560
 1847 006c 415D     		popq	%r13
 1848              		.cfi_def_cfa_offset 8
 1849              	.LVL188:
 665:fltk-1.3.4-1/png/pngwutil.c **** #endif /* WRITE_COMPRESSED_TEXT */
 1850              		.loc 1 665 1 view .LVU561
 1851 006e C3       		ret
 1852              	.LVL189:
 1853              	.L156:
 1854              		.cfi_restore_state
 664:fltk-1.3.4-1/png/pngwutil.c **** }
 1855              		.loc 1 664 7 is_stmt 1 view .LVU562
 1856 006f 488D3500 		leaq	.LC7(%rip), %rsi
 1856      000000
 1857 0076 4C89EF   		movq	%r13, %rdi
 1858 0079 E8000000 		call	png_error@PLT
 1858      00
 1859              	.LVL190:
 1860              		.cfi_endproc
 1861              	.LFE56:
 1863              		.section	.text.png_write_chunk_end.part.0,"ax",@progbits
 1864              		.p2align 4
 1866              	png_write_chunk_end.part.0:
 1867              	.LVL191:
 1868              	.LFB89:
 147:fltk-1.3.4-1/png/pngwutil.c **** {
 1869              		.loc 1 147 1 view -0
 1870              		.cfi_startproc
 147:fltk-1.3.4-1/png/pngwutil.c **** {
 1871              		.loc 1 147 1 is_stmt 0 view .LVU564
 1872 0000 4883EC18 		subq	$24, %rsp
 1873              		.cfi_def_cfa_offset 32
 163:fltk-1.3.4-1/png/pngwutil.c **** }
 1874              		.loc 1 163 4 view .LVU565
 1875 0004 BA040000 		movl	$4, %edx
 1875      00
 147:fltk-1.3.4-1/png/pngwutil.c **** {
 1876              		.loc 1 147 1 view .LVU566
 1877 0009 64488B04 		movq	%fs:40, %rax
 1877      25280000 
 1877      00
 1878 0012 48894424 		movq	%rax, 8(%rsp)
 1878      08
 1879 0017 31C0     		xorl	%eax, %eax
 157:fltk-1.3.4-1/png/pngwutil.c **** #endif
 1880              		.loc 1 157 4 is_stmt 1 view .LVU567
 1881 0019 8B875C02 		movl	604(%rdi), %eax
 1881      0000
 163:fltk-1.3.4-1/png/pngwutil.c **** }
 1882              		.loc 1 163 4 is_stmt 0 view .LVU568
 1883 001f 488D7424 		leaq	4(%rsp), %rsi
 1883      04
 157:fltk-1.3.4-1/png/pngwutil.c **** #endif
 1884              		.loc 1 157 22 view .LVU569
 1885 0024 C787AC04 		movl	$130, 1196(%rdi)
 1885      00008200 
 1885      0000
 161:fltk-1.3.4-1/png/pngwutil.c **** 
 1886              		.loc 1 161 4 is_stmt 1 view .LVU570
 1887 002e 0FC8     		bswap	%eax
 1888              	.LVL192:
 1889              	.LBB264:
 1890              	.LBI264:
  24:fltk-1.3.4-1/png/pngwutil.c **** {
 1891              		.loc 1 24 1 view .LVU571
 1892              	.LBB265:
  26:fltk-1.3.4-1/png/pngwutil.c ****    buf[1] = (png_byte)((i >> 16) & 0xff);
 1893              		.loc 1 26 4 view .LVU572
  27:fltk-1.3.4-1/png/pngwutil.c ****    buf[2] = (png_byte)((i >> 8) & 0xff);
 1894              		.loc 1 27 4 view .LVU573
  28:fltk-1.3.4-1/png/pngwutil.c ****    buf[3] = (png_byte)(i & 0xff);
 1895              		.loc 1 28 4 view .LVU574
  29:fltk-1.3.4-1/png/pngwutil.c **** }
 1896              		.loc 1 29 4 view .LVU575
  26:fltk-1.3.4-1/png/pngwutil.c ****    buf[1] = (png_byte)((i >> 16) & 0xff);
 1897              		.loc 1 26 11 is_stmt 0 view .LVU576
 1898 0030 89442404 		movl	%eax, 4(%rsp)
 1899              	.LVL193:
  26:fltk-1.3.4-1/png/pngwutil.c ****    buf[1] = (png_byte)((i >> 16) & 0xff);
 1900              		.loc 1 26 11 view .LVU577
 1901              	.LBE265:
 1902              	.LBE264:
 163:fltk-1.3.4-1/png/pngwutil.c **** }
 1903              		.loc 1 163 4 is_stmt 1 view .LVU578
 1904 0034 E8000000 		call	png_write_data@PLT
 1904      00
 1905              	.LVL194:
 164:fltk-1.3.4-1/png/pngwutil.c **** 
 1906              		.loc 1 164 1 is_stmt 0 view .LVU579
 1907 0039 488B4424 		movq	8(%rsp), %rax
 1907      08
 1908 003e 64483304 		xorq	%fs:40, %rax
 1908      25280000 
 1908      00
 1909 0047 7505     		jne	.L160
 1910 0049 4883C418 		addq	$24, %rsp
 1911              		.cfi_remember_state
 1912              		.cfi_def_cfa_offset 8
 1913 004d C3       		ret
 1914              	.L160:
 1915              		.cfi_restore_state
 1916 004e E8000000 		call	__stack_chk_fail@PLT
 1916      00
 1917              	.LVL195:
 1918              		.cfi_endproc
 1919              	.LFE89:
 1921              		.section	.rodata.png_write_complete_chunk.str1.1,"aMS",@progbits,1
 1922              	.LC8:
 1923 0000 6C656E67 		.string	"length exceeds PNG maximum"
 1923      74682065 
 1923      78636565 
 1923      64732050 
 1923      4E47206D 
 1924              		.section	.text.png_write_complete_chunk,"ax",@progbits
 1925              		.p2align 4
 1927              	png_write_complete_chunk:
 1928              	.LVL196:
 1929              	.LFB48:
 178:fltk-1.3.4-1/png/pngwutil.c ****    if (png_ptr == NULL)
 1930              		.loc 1 178 1 is_stmt 1 view -0
 1931              		.cfi_startproc
 179:fltk-1.3.4-1/png/pngwutil.c ****       return;
 1932              		.loc 1 179 4 view .LVU581
 179:fltk-1.3.4-1/png/pngwutil.c ****       return;
 1933              		.loc 1 179 7 is_stmt 0 view .LVU582
 1934 0000 4885FF   		testq	%rdi, %rdi
 1935 0003 745B     		je	.L161
 178:fltk-1.3.4-1/png/pngwutil.c ****    if (png_ptr == NULL)
 1936              		.loc 1 178 1 view .LVU583
 1937 0005 4155     		pushq	%r13
 1938              		.cfi_def_cfa_offset 16
 1939              		.cfi_offset 13, -16
 1940 0007 4154     		pushq	%r12
 1941              		.cfi_def_cfa_offset 24
 1942              		.cfi_offset 12, -24
 1943 0009 4989CC   		movq	%rcx, %r12
 183:fltk-1.3.4-1/png/pngwutil.c ****       png_error(png_ptr, "length exceeds PNG maximum");
 1944              		.loc 1 183 4 is_stmt 1 view .LVU584
 178:fltk-1.3.4-1/png/pngwutil.c ****    if (png_ptr == NULL)
 1945              		.loc 1 178 1 is_stmt 0 view .LVU585
 1946 000c 55       		pushq	%rbp
 1947              		.cfi_def_cfa_offset 32
 1948              		.cfi_offset 6, -32
 1949 000d 4889FD   		movq	%rdi, %rbp
 183:fltk-1.3.4-1/png/pngwutil.c ****       png_error(png_ptr, "length exceeds PNG maximum");
 1950              		.loc 1 183 7 view .LVU586
 1951 0010 4881F9FF 		cmpq	$2147483647, %rcx
 1951      FFFF7F
 1952 0017 7748     		ja	.L174
 1953 0019 4989D5   		movq	%rdx, %r13
 186:fltk-1.3.4-1/png/pngwutil.c ****    png_write_chunk_data(png_ptr, data, length);
 1954              		.loc 1 186 4 is_stmt 1 view .LVU587
 1955              	.LVL197:
 1956              	.LBB266:
 1957              	.LBI266:
  73:fltk-1.3.4-1/png/pngwutil.c ****     png_uint_32 length)
 1958              		.loc 1 73 1 view .LVU588
 1959              	.LBB267:
  76:fltk-1.3.4-1/png/pngwutil.c **** 
 1960              		.loc 1 76 4 view .LVU589
  83:fltk-1.3.4-1/png/pngwutil.c ****       return;
 1961              		.loc 1 83 4 view .LVU590
 1962 001c 89CA     		movl	%ecx, %edx
 1963              	.LVL198:
  83:fltk-1.3.4-1/png/pngwutil.c ****       return;
 1964              		.loc 1 83 4 is_stmt 0 view .LVU591
 1965 001e E8000000 		call	png_write_chunk_header.part.0
 1965      00
 1966              	.LVL199:
  83:fltk-1.3.4-1/png/pngwutil.c ****       return;
 1967              		.loc 1 83 4 view .LVU592
 1968              	.LBE267:
 1969              	.LBE266:
 187:fltk-1.3.4-1/png/pngwutil.c ****    png_write_chunk_end(png_ptr);
 1970              		.loc 1 187 4 is_stmt 1 view .LVU593
 1971              	.LBB268:
 1972              	.LBI268:
 127:fltk-1.3.4-1/png/pngwutil.c ****     png_size_t length)
 1973              		.loc 1 127 1 view .LVU594
 1974              	.LBB269:
 131:fltk-1.3.4-1/png/pngwutil.c ****       return;
 1975              		.loc 1 131 4 view .LVU595
 134:fltk-1.3.4-1/png/pngwutil.c ****    {
 1976              		.loc 1 134 4 view .LVU596
 134:fltk-1.3.4-1/png/pngwutil.c ****    {
 1977              		.loc 1 134 7 is_stmt 0 view .LVU597
 1978 0023 4D85ED   		testq	%r13, %r13
 1979 0026 7405     		je	.L164
 1980 0028 4D85E4   		testq	%r12, %r12
 1981 002b 7513     		jne	.L175
 1982              	.L164:
 1983              	.LVL200:
 134:fltk-1.3.4-1/png/pngwutil.c ****    {
 1984              		.loc 1 134 7 view .LVU598
 1985              	.LBE269:
 1986              	.LBE268:
 188:fltk-1.3.4-1/png/pngwutil.c **** }
 1987              		.loc 1 188 4 is_stmt 1 view .LVU599
 1988              	.LBB271:
 1989              	.LBI271:
 147:fltk-1.3.4-1/png/pngwutil.c **** {
 1990              		.loc 1 147 1 view .LVU600
 1991              	.LBB272:
 149:fltk-1.3.4-1/png/pngwutil.c **** 
 1992              		.loc 1 149 4 view .LVU601
 151:fltk-1.3.4-1/png/pngwutil.c **** 
 1993              		.loc 1 151 4 view .LVU602
 1994 002d 4889EF   		movq	%rbp, %rdi
 1995              	.LBE272:
 1996              	.LBE271:
 189:fltk-1.3.4-1/png/pngwutil.c **** 
 1997              		.loc 1 189 1 is_stmt 0 view .LVU603
 1998 0030 5D       		popq	%rbp
 1999              		.cfi_remember_state
 2000              		.cfi_restore 6
 2001              		.cfi_def_cfa_offset 24
 2002              	.LVL201:
 189:fltk-1.3.4-1/png/pngwutil.c **** 
 2003              		.loc 1 189 1 view .LVU604
 2004 0031 415C     		popq	%r12
 2005              		.cfi_restore 12
 2006              		.cfi_def_cfa_offset 16
 2007              	.LVL202:
 189:fltk-1.3.4-1/png/pngwutil.c **** 
 2008              		.loc 1 189 1 view .LVU605
 2009 0033 415D     		popq	%r13
 2010              		.cfi_restore 13
 2011              		.cfi_def_cfa_offset 8
 2012              	.LVL203:
 2013              	.LBB276:
 2014              	.LBB273:
 189:fltk-1.3.4-1/png/pngwutil.c **** 
 2015              		.loc 1 189 1 view .LVU606
 2016 0035 E9000000 		jmp	png_write_chunk_end.part.0
 2016      00
 2017              	.LVL204:
 2018 003a 660F1F44 		.p2align 4,,10
 2018      0000
 2019              		.p2align 3
 2020              	.L175:
 2021              		.cfi_restore_state
 189:fltk-1.3.4-1/png/pngwutil.c **** 
 2022              		.loc 1 189 1 view .LVU607
 2023              	.LBE273:
 2024              	.LBE276:
 2025              	.LBB277:
 2026              	.LBB270:
 2027 0040 4889EF   		movq	%rbp, %rdi
 2028 0043 4C89E2   		movq	%r12, %rdx
 2029 0046 4C89EE   		movq	%r13, %rsi
 2030 0049 E8000000 		call	png_write_chunk_data.part.0
 2030      00
 2031              	.LVL205:
 189:fltk-1.3.4-1/png/pngwutil.c **** 
 2032              		.loc 1 189 1 view .LVU608
 2033              	.LBE270:
 2034              	.LBE277:
 188:fltk-1.3.4-1/png/pngwutil.c **** }
 2035              		.loc 1 188 4 is_stmt 1 view .LVU609
 2036              	.LBB278:
 147:fltk-1.3.4-1/png/pngwutil.c **** {
 2037              		.loc 1 147 1 view .LVU610
 2038              	.LBB274:
 149:fltk-1.3.4-1/png/pngwutil.c **** 
 2039              		.loc 1 149 4 view .LVU611
 151:fltk-1.3.4-1/png/pngwutil.c **** 
 2040              		.loc 1 151 4 view .LVU612
 2041 004e 4889EF   		movq	%rbp, %rdi
 2042              	.LBE274:
 2043              	.LBE278:
 189:fltk-1.3.4-1/png/pngwutil.c **** 
 2044              		.loc 1 189 1 is_stmt 0 view .LVU613
 2045 0051 5D       		popq	%rbp
 2046              		.cfi_restore 6
 2047              		.cfi_def_cfa_offset 24
 2048              	.LVL206:
 189:fltk-1.3.4-1/png/pngwutil.c **** 
 2049              		.loc 1 189 1 view .LVU614
 2050 0052 415C     		popq	%r12
 2051              		.cfi_restore 12
 2052              		.cfi_def_cfa_offset 16
 2053              	.LVL207:
 189:fltk-1.3.4-1/png/pngwutil.c **** 
 2054              		.loc 1 189 1 view .LVU615
 2055 0054 415D     		popq	%r13
 2056              		.cfi_restore 13
 2057              		.cfi_def_cfa_offset 8
 2058              	.LVL208:
 2059              	.LBB279:
 2060              	.LBB275:
 189:fltk-1.3.4-1/png/pngwutil.c **** 
 2061              		.loc 1 189 1 view .LVU616
 2062 0056 E9000000 		jmp	png_write_chunk_end.part.0
 2062      00
 2063              	.LVL209:
 2064 005b 0F1F4400 		.p2align 4,,10
 2064      00
 2065              		.p2align 3
 2066              	.L161:
 189:fltk-1.3.4-1/png/pngwutil.c **** 
 2067              		.loc 1 189 1 view .LVU617
 2068 0060 C3       		ret
 2069              	.L174:
 2070              		.cfi_def_cfa_offset 32
 2071              		.cfi_offset 6, -32
 2072              		.cfi_offset 12, -24
 2073              		.cfi_offset 13, -16
 189:fltk-1.3.4-1/png/pngwutil.c **** 
 2074              		.loc 1 189 1 view .LVU618
 2075              	.LBE275:
 2076              	.LBE279:
 184:fltk-1.3.4-1/png/pngwutil.c **** 
 2077              		.loc 1 184 7 is_stmt 1 view .LVU619
 2078 0061 488D3500 		leaq	.LC8(%rip), %rsi
 2078      000000
 2079              	.LVL210:
 184:fltk-1.3.4-1/png/pngwutil.c **** 
 2080              		.loc 1 184 7 is_stmt 0 view .LVU620
 2081 0068 E8000000 		call	png_error@PLT
 2081      00
 2082              	.LVL211:
 184:fltk-1.3.4-1/png/pngwutil.c **** 
 2083              		.loc 1 184 7 view .LVU621
 2084              		.cfi_endproc
 2085              	.LFE48:
 2087              		.section	.text.png_save_uint_32,"ax",@progbits
 2088              		.p2align 4
 2089              		.globl	png_save_uint_32
 2091              	png_save_uint_32:
 2092              	.LVL212:
 2093              	.LFB41:
  25:fltk-1.3.4-1/png/pngwutil.c ****    buf[0] = (png_byte)((i >> 24) & 0xff);
 2094              		.loc 1 25 1 is_stmt 1 view -0
 2095              		.cfi_startproc
  25:fltk-1.3.4-1/png/pngwutil.c ****    buf[0] = (png_byte)((i >> 24) & 0xff);
 2096              		.loc 1 25 1 is_stmt 0 view .LVU623
 2097 0000 F30F1EFA 		endbr64
  26:fltk-1.3.4-1/png/pngwutil.c ****    buf[1] = (png_byte)((i >> 16) & 0xff);
 2098              		.loc 1 26 4 is_stmt 1 view .LVU624
  27:fltk-1.3.4-1/png/pngwutil.c ****    buf[2] = (png_byte)((i >> 8) & 0xff);
 2099              		.loc 1 27 4 view .LVU625
  28:fltk-1.3.4-1/png/pngwutil.c ****    buf[3] = (png_byte)(i & 0xff);
 2100              		.loc 1 28 4 view .LVU626
  29:fltk-1.3.4-1/png/pngwutil.c **** }
 2101              		.loc 1 29 4 view .LVU627
 2102 0004 0FCE     		bswap	%esi
 2103              	.LVL213:
  26:fltk-1.3.4-1/png/pngwutil.c ****    buf[1] = (png_byte)((i >> 16) & 0xff);
 2104              		.loc 1 26 11 is_stmt 0 view .LVU628
 2105 0006 8937     		movl	%esi, (%rdi)
  30:fltk-1.3.4-1/png/pngwutil.c **** 
 2106              		.loc 1 30 1 view .LVU629
 2107 0008 C3       		ret
 2108              		.cfi_endproc
 2109              	.LFE41:
 2111              		.section	.text.png_save_uint_16,"ax",@progbits
 2112              		.p2align 4
 2113              		.globl	png_save_uint_16
 2115              	png_save_uint_16:
 2116              	.LVL214:
 2117              	.LFB42:
  38:fltk-1.3.4-1/png/pngwutil.c ****    buf[0] = (png_byte)((i >> 8) & 0xff);
 2118              		.loc 1 38 1 is_stmt 1 view -0
 2119              		.cfi_startproc
  38:fltk-1.3.4-1/png/pngwutil.c ****    buf[0] = (png_byte)((i >> 8) & 0xff);
 2120              		.loc 1 38 1 is_stmt 0 view .LVU631
 2121 0000 F30F1EFA 		endbr64
  39:fltk-1.3.4-1/png/pngwutil.c ****    buf[1] = (png_byte)(i & 0xff);
 2122              		.loc 1 39 4 is_stmt 1 view .LVU632
  40:fltk-1.3.4-1/png/pngwutil.c **** }
 2123              		.loc 1 40 4 view .LVU633
  39:fltk-1.3.4-1/png/pngwutil.c ****    buf[1] = (png_byte)(i & 0xff);
 2124              		.loc 1 39 11 is_stmt 0 view .LVU634
 2125 0004 66C1C608 		rolw	$8, %si
 2126              	.LVL215:
  39:fltk-1.3.4-1/png/pngwutil.c ****    buf[1] = (png_byte)(i & 0xff);
 2127              		.loc 1 39 11 view .LVU635
 2128 0008 668937   		movw	%si, (%rdi)
  41:fltk-1.3.4-1/png/pngwutil.c **** #endif
 2129              		.loc 1 41 1 view .LVU636
 2130 000b C3       		ret
 2131              		.cfi_endproc
 2132              	.LFE42:
 2134              		.section	.text.png_write_sig,"ax",@progbits
 2135              		.p2align 4
 2136              		.globl	png_write_sig
 2138              	png_write_sig:
 2139              	.LVL216:
 2140              	.LFB43:
  52:fltk-1.3.4-1/png/pngwutil.c ****    png_byte png_signature[8] = {137, 80, 78, 71, 13, 10, 26, 10};
 2141              		.loc 1 52 1 is_stmt 1 view -0
 2142              		.cfi_startproc
  52:fltk-1.3.4-1/png/pngwutil.c ****    png_byte png_signature[8] = {137, 80, 78, 71, 13, 10, 26, 10};
 2143              		.loc 1 52 1 is_stmt 0 view .LVU638
 2144 0000 F30F1EFA 		endbr64
 2145 0004 53       		pushq	%rbx
 2146              		.cfi_def_cfa_offset 16
 2147              		.cfi_offset 3, -16
  62:fltk-1.3.4-1/png/pngwutil.c **** 
 2148              		.loc 1 62 22 view .LVU639
 2149 0005 BA080000 		movl	$8, %edx
 2149      00
  52:fltk-1.3.4-1/png/pngwutil.c ****    png_byte png_signature[8] = {137, 80, 78, 71, 13, 10, 26, 10};
 2150              		.loc 1 52 1 view .LVU640
 2151 000a 4889FB   		movq	%rdi, %rbx
 2152 000d 4883EC10 		subq	$16, %rsp
 2153              		.cfi_def_cfa_offset 32
  62:fltk-1.3.4-1/png/pngwutil.c **** 
 2154              		.loc 1 62 31 view .LVU641
 2155 0011 0FB68F7D 		movzbl	637(%rdi), %ecx
 2155      020000
  52:fltk-1.3.4-1/png/pngwutil.c ****    png_byte png_signature[8] = {137, 80, 78, 71, 13, 10, 26, 10};
 2156              		.loc 1 52 1 view .LVU642
 2157 0018 64488B04 		movq	%fs:40, %rax
 2157      25280000 
 2157      00
 2158 0021 48894424 		movq	%rax, 8(%rsp)
 2158      08
 2159 0026 31C0     		xorl	%eax, %eax
  53:fltk-1.3.4-1/png/pngwutil.c **** 
 2160              		.loc 1 53 4 is_stmt 1 view .LVU643
  57:fltk-1.3.4-1/png/pngwutil.c **** #endif
 2161              		.loc 1 57 22 is_stmt 0 view .LVU644
 2162 0028 C787AC04 		movl	$18, 1196(%rdi)
 2162      00001200 
 2162      0000
  53:fltk-1.3.4-1/png/pngwutil.c **** 
 2163              		.loc 1 53 13 view .LVU645
 2164 0032 48B88950 		movabsq	$727905341920923785, %rax
 2164      4E470D0A 
 2164      1A0A
  62:fltk-1.3.4-1/png/pngwutil.c **** 
 2165              		.loc 1 62 22 view .LVU646
 2166 003c 29CA     		subl	%ecx, %edx
  61:fltk-1.3.4-1/png/pngwutil.c ****       (png_size_t)(8 - png_ptr->sig_bytes));
 2167              		.loc 1 61 28 view .LVU647
 2168 003e 488D340C 		leaq	(%rsp,%rcx), %rsi
  53:fltk-1.3.4-1/png/pngwutil.c **** 
 2169              		.loc 1 53 13 view .LVU648
 2170 0042 48890424 		movq	%rax, (%rsp)
  57:fltk-1.3.4-1/png/pngwutil.c **** #endif
 2171              		.loc 1 57 4 is_stmt 1 view .LVU649
  61:fltk-1.3.4-1/png/pngwutil.c ****       (png_size_t)(8 - png_ptr->sig_bytes));
 2172              		.loc 1 61 4 view .LVU650
 2173 0046 4863D2   		movslq	%edx, %rdx
 2174 0049 E8000000 		call	png_write_data@PLT
 2174      00
 2175              	.LVL217:
  64:fltk-1.3.4-1/png/pngwutil.c ****       png_ptr->mode |= PNG_HAVE_PNG_SIGNATURE;
 2176              		.loc 1 64 4 view .LVU651
  64:fltk-1.3.4-1/png/pngwutil.c ****       png_ptr->mode |= PNG_HAVE_PNG_SIGNATURE;
 2177              		.loc 1 64 7 is_stmt 0 view .LVU652
 2178 004e 80BB7D02 		cmpb	$2, 637(%rbx)
 2178      000002
 2179 0055 770A     		ja	.L178
  65:fltk-1.3.4-1/png/pngwutil.c **** }
 2180              		.loc 1 65 7 is_stmt 1 view .LVU653
  65:fltk-1.3.4-1/png/pngwutil.c **** }
 2181              		.loc 1 65 21 is_stmt 0 view .LVU654
 2182 0057 818B2C01 		orl	$4096, 300(%rbx)
 2182      00000010 
 2182      0000
 2183              	.L178:
  66:fltk-1.3.4-1/png/pngwutil.c **** 
 2184              		.loc 1 66 1 view .LVU655
 2185 0061 488B4424 		movq	8(%rsp), %rax
 2185      08
 2186 0066 64483304 		xorq	%fs:40, %rax
 2186      25280000 
 2186      00
 2187 006f 7506     		jne	.L182
 2188 0071 4883C410 		addq	$16, %rsp
 2189              		.cfi_remember_state
 2190              		.cfi_def_cfa_offset 16
 2191 0075 5B       		popq	%rbx
 2192              		.cfi_def_cfa_offset 8
 2193              	.LVL218:
  66:fltk-1.3.4-1/png/pngwutil.c **** 
 2194              		.loc 1 66 1 view .LVU656
 2195 0076 C3       		ret
 2196              	.LVL219:
 2197              	.L182:
 2198              		.cfi_restore_state
  66:fltk-1.3.4-1/png/pngwutil.c **** 
 2199              		.loc 1 66 1 view .LVU657
 2200 0077 E8000000 		call	__stack_chk_fail@PLT
 2200      00
 2201              	.LVL220:
 2202              		.cfi_endproc
 2203              	.LFE43:
 2205              		.section	.text.png_write_chunk_start,"ax",@progbits
 2206              		.p2align 4
 2207              		.globl	png_write_chunk_start
 2209              	png_write_chunk_start:
 2210              	.LVL221:
 2211              	.LFB45:
 117:fltk-1.3.4-1/png/pngwutil.c ****    png_write_chunk_header(png_ptr, PNG_CHUNK_FROM_STRING(chunk_string), length);
 2212              		.loc 1 117 1 is_stmt 1 view -0
 2213              		.cfi_startproc
 117:fltk-1.3.4-1/png/pngwutil.c ****    png_write_chunk_header(png_ptr, PNG_CHUNK_FROM_STRING(chunk_string), length);
 2214              		.loc 1 117 1 is_stmt 0 view .LVU659
 2215 0000 F30F1EFA 		endbr64
 118:fltk-1.3.4-1/png/pngwutil.c **** }
 2216              		.loc 1 118 4 is_stmt 1 view .LVU660
 2217              	.LVL222:
 2218              	.LBB280:
 2219              	.LBI280:
  73:fltk-1.3.4-1/png/pngwutil.c ****     png_uint_32 length)
 2220              		.loc 1 73 1 view .LVU661
 2221              	.LBB281:
  76:fltk-1.3.4-1/png/pngwutil.c **** 
 2222              		.loc 1 76 4 view .LVU662
  83:fltk-1.3.4-1/png/pngwutil.c ****       return;
 2223              		.loc 1 83 4 view .LVU663
  83:fltk-1.3.4-1/png/pngwutil.c ****       return;
 2224              		.loc 1 83 7 is_stmt 0 view .LVU664
 2225 0004 4885FF   		testq	%rdi, %rdi
 2226 0007 740F     		je	.L183
 2227 0009 8B36     		movl	(%rsi), %esi
 2228              	.LVL223:
  83:fltk-1.3.4-1/png/pngwutil.c ****       return;
 2229              		.loc 1 83 7 view .LVU665
 2230 000b 0FCE     		bswap	%esi
 2231 000d E9000000 		jmp	png_write_chunk_header.part.0
 2231      00
 2232              	.LVL224:
 2233              		.p2align 4,,10
 2234 0012 660F1F44 		.p2align 3
 2234      0000
 2235              	.L183:
  83:fltk-1.3.4-1/png/pngwutil.c ****       return;
 2236              		.loc 1 83 7 view .LVU666
 2237              	.LBE281:
 2238              	.LBE280:
 119:fltk-1.3.4-1/png/pngwutil.c **** 
 2239              		.loc 1 119 1 view .LVU667
 2240 0018 C3       		ret
 2241              		.cfi_endproc
 2242              	.LFE45:
 2244              		.section	.text.png_write_chunk_data,"ax",@progbits
 2245              		.p2align 4
 2246              		.globl	png_write_chunk_data
 2248              	png_write_chunk_data:
 2249              	.LVL225:
 2250              	.LFB46:
 129:fltk-1.3.4-1/png/pngwutil.c ****    /* Write the data, and run the CRC over it */
 2251              		.loc 1 129 1 is_stmt 1 view -0
 2252              		.cfi_startproc
 129:fltk-1.3.4-1/png/pngwutil.c ****    /* Write the data, and run the CRC over it */
 2253              		.loc 1 129 1 is_stmt 0 view .LVU669
 2254 0000 F30F1EFA 		endbr64
 131:fltk-1.3.4-1/png/pngwutil.c ****       return;
 2255              		.loc 1 131 4 is_stmt 1 view .LVU670
 131:fltk-1.3.4-1/png/pngwutil.c ****       return;
 2256              		.loc 1 131 7 is_stmt 0 view .LVU671
 2257 0004 4885FF   		testq	%rdi, %rdi
 2258 0007 740A     		je	.L185
 134:fltk-1.3.4-1/png/pngwutil.c ****    {
 2259              		.loc 1 134 4 is_stmt 1 view .LVU672
 134:fltk-1.3.4-1/png/pngwutil.c ****    {
 2260              		.loc 1 134 7 is_stmt 0 view .LVU673
 2261 0009 4885F6   		testq	%rsi, %rsi
 2262 000c 7405     		je	.L185
 2263 000e 4885D2   		testq	%rdx, %rdx
 2264 0011 7505     		jne	.L196
 2265              	.L185:
 143:fltk-1.3.4-1/png/pngwutil.c **** 
 2266              		.loc 1 143 1 view .LVU674
 2267 0013 C3       		ret
 2268              		.p2align 4,,10
 2269 0014 0F1F4000 		.p2align 3
 2270              	.L196:
 2271 0018 E9000000 		jmp	png_write_chunk_data.part.0
 2271      00
 2272              	.LVL226:
 143:fltk-1.3.4-1/png/pngwutil.c **** 
 2273              		.loc 1 143 1 view .LVU675
 2274              		.cfi_endproc
 2275              	.LFE46:
 2277              		.section	.text.png_write_chunk_end,"ax",@progbits
 2278              		.p2align 4
 2279              		.globl	png_write_chunk_end
 2281              	png_write_chunk_end:
 2282              	.LVL227:
 2283              	.LFB47:
 148:fltk-1.3.4-1/png/pngwutil.c ****    png_byte buf[4];
 2284              		.loc 1 148 1 is_stmt 1 view -0
 2285              		.cfi_startproc
 148:fltk-1.3.4-1/png/pngwutil.c ****    png_byte buf[4];
 2286              		.loc 1 148 1 is_stmt 0 view .LVU677
 2287 0000 F30F1EFA 		endbr64
 149:fltk-1.3.4-1/png/pngwutil.c **** 
 2288              		.loc 1 149 4 is_stmt 1 view .LVU678
 151:fltk-1.3.4-1/png/pngwutil.c **** 
 2289              		.loc 1 151 4 view .LVU679
 151:fltk-1.3.4-1/png/pngwutil.c **** 
 2290              		.loc 1 151 7 is_stmt 0 view .LVU680
 2291 0004 4885FF   		testq	%rdi, %rdi
 2292 0007 7407     		je	.L197
 2293 0009 E9000000 		jmp	png_write_chunk_end.part.0
 2293      00
 2294              	.LVL228:
 2295 000e 6690     		.p2align 4,,10
 2296              		.p2align 3
 2297              	.L197:
 164:fltk-1.3.4-1/png/pngwutil.c **** 
 2298              		.loc 1 164 1 view .LVU681
 2299 0010 C3       		ret
 2300              		.cfi_endproc
 2301              	.LFE47:
 2303              		.section	.text.png_write_chunk,"ax",@progbits
 2304              		.p2align 4
 2305              		.globl	png_write_chunk
 2307              	png_write_chunk:
 2308              	.LVL229:
 2309              	.LFB49:
 195:fltk-1.3.4-1/png/pngwutil.c ****    png_write_complete_chunk(png_ptr, PNG_CHUNK_FROM_STRING(chunk_string), data,
 2310              		.loc 1 195 1 is_stmt 1 view -0
 2311              		.cfi_startproc
 195:fltk-1.3.4-1/png/pngwutil.c ****    png_write_complete_chunk(png_ptr, PNG_CHUNK_FROM_STRING(chunk_string), data,
 2312              		.loc 1 195 1 is_stmt 0 view .LVU683
 2313 0000 F30F1EFA 		endbr64
 196:fltk-1.3.4-1/png/pngwutil.c ****       length);
 2314              		.loc 1 196 4 is_stmt 1 view .LVU684
 2315 0004 8B36     		movl	(%rsi), %esi
 2316              	.LVL230:
 196:fltk-1.3.4-1/png/pngwutil.c ****       length);
 2317              		.loc 1 196 4 is_stmt 0 view .LVU685
 2318 0006 0FCE     		bswap	%esi
 2319 0008 E9000000 		jmp	png_write_complete_chunk
 2319      00
 2320              	.LVL231:
 196:fltk-1.3.4-1/png/pngwutil.c ****       length);
 2321              		.loc 1 196 4 view .LVU686
 2322              		.cfi_endproc
 2323              	.LFE49:
 2325              		.section	.text.png_free_buffer_list,"ax",@progbits
 2326              		.p2align 4
 2327              		.globl	png_free_buffer_list
 2329              	png_free_buffer_list:
 2330              	.LVL232:
 2331              	.LFB53:
 441:fltk-1.3.4-1/png/pngwutil.c ****    png_compression_bufferp list = *listp;
 2332              		.loc 1 441 1 is_stmt 1 view -0
 2333              		.cfi_startproc
 441:fltk-1.3.4-1/png/pngwutil.c ****    png_compression_bufferp list = *listp;
 2334              		.loc 1 441 1 is_stmt 0 view .LVU688
 2335 0000 F30F1EFA 		endbr64
 442:fltk-1.3.4-1/png/pngwutil.c **** 
 2336              		.loc 1 442 4 is_stmt 1 view .LVU689
 441:fltk-1.3.4-1/png/pngwutil.c ****    png_compression_bufferp list = *listp;
 2337              		.loc 1 441 1 is_stmt 0 view .LVU690
 2338 0004 55       		pushq	%rbp
 2339              		.cfi_def_cfa_offset 16
 2340              		.cfi_offset 6, -16
 2341 0005 53       		pushq	%rbx
 2342              		.cfi_def_cfa_offset 24
 2343              		.cfi_offset 3, -24
 2344 0006 4883EC08 		subq	$8, %rsp
 2345              		.cfi_def_cfa_offset 32
 442:fltk-1.3.4-1/png/pngwutil.c **** 
 2346              		.loc 1 442 28 view .LVU691
 2347 000a 488B1E   		movq	(%rsi), %rbx
 2348              	.LVL233:
 444:fltk-1.3.4-1/png/pngwutil.c ****    {
 2349              		.loc 1 444 4 is_stmt 1 view .LVU692
 444:fltk-1.3.4-1/png/pngwutil.c ****    {
 2350              		.loc 1 444 7 is_stmt 0 view .LVU693
 2351 000d 4885DB   		testq	%rbx, %rbx
 2352 0010 7421     		je	.L200
 446:fltk-1.3.4-1/png/pngwutil.c **** 
 2353              		.loc 1 446 14 view .LVU694
 2354 0012 48C70600 		movq	$0, (%rsi)
 2354      000000
 2355 0019 4889FD   		movq	%rdi, %rbp
 446:fltk-1.3.4-1/png/pngwutil.c **** 
 2356              		.loc 1 446 7 is_stmt 1 view .LVU695
 2357              	.LVL234:
 2358 001c 0F1F4000 		.p2align 4,,10
 2359              		.p2align 3
 2360              	.L202:
 448:fltk-1.3.4-1/png/pngwutil.c ****       {
 2361              		.loc 1 448 7 discriminator 1 view .LVU696
 2362              	.LBB282:
 450:fltk-1.3.4-1/png/pngwutil.c **** 
 2363              		.loc 1 450 10 discriminator 1 view .LVU697
 2364 0020 4889DE   		movq	%rbx, %rsi
 450:fltk-1.3.4-1/png/pngwutil.c **** 
 2365              		.loc 1 450 34 is_stmt 0 discriminator 1 view .LVU698
 2366 0023 488B1B   		movq	(%rbx), %rbx
 2367              	.LVL235:
 452:fltk-1.3.4-1/png/pngwutil.c ****          list = next;
 2368              		.loc 1 452 10 is_stmt 1 discriminator 1 view .LVU699
 2369 0026 4889EF   		movq	%rbp, %rdi
 2370 0029 E8000000 		call	png_free@PLT
 2370      00
 2371              	.LVL236:
 453:fltk-1.3.4-1/png/pngwutil.c ****       }
 2372              		.loc 1 453 10 discriminator 1 view .LVU700
 453:fltk-1.3.4-1/png/pngwutil.c ****       }
 2373              		.loc 1 453 10 is_stmt 0 discriminator 1 view .LVU701
 2374              	.LBE282:
 455:fltk-1.3.4-1/png/pngwutil.c ****    }
 2375              		.loc 1 455 13 is_stmt 1 discriminator 1 view .LVU702
 455:fltk-1.3.4-1/png/pngwutil.c ****    }
 2376              		.loc 1 455 7 is_stmt 0 discriminator 1 view .LVU703
 2377 002e 4885DB   		testq	%rbx, %rbx
 2378 0031 75ED     		jne	.L202
 2379              	.LVL237:
 2380              	.L200:
 457:fltk-1.3.4-1/png/pngwutil.c **** 
 2381              		.loc 1 457 1 view .LVU704
 2382 0033 4883C408 		addq	$8, %rsp
 2383              		.cfi_def_cfa_offset 24
 2384 0037 5B       		popq	%rbx
 2385              		.cfi_def_cfa_offset 16
 2386              	.LVL238:
 457:fltk-1.3.4-1/png/pngwutil.c **** 
 2387              		.loc 1 457 1 view .LVU705
 2388 0038 5D       		popq	%rbp
 2389              		.cfi_def_cfa_offset 8
 2390 0039 C3       		ret
 2391              		.cfi_endproc
 2392              	.LFE53:
 2394              		.section	.rodata.png_write_IHDR.str1.8,"aMS",@progbits,1
 2395              		.align 8
 2396              	.LC9:
 2397 0000 496E7661 		.string	"Invalid bit depth for grayscale image"
 2397      6C696420 
 2397      62697420 
 2397      64657074 
 2397      6820666F 
 2398 0026 0000     		.align 8
 2399              	.LC10:
 2400 0028 496E7661 		.string	"Invalid bit depth for RGB image"
 2400      6C696420 
 2400      62697420 
 2400      64657074 
 2400      6820666F 
 2401              		.align 8
 2402              	.LC11:
 2403 0048 496E7661 		.string	"Invalid bit depth for paletted image"
 2403      6C696420 
 2403      62697420 
 2403      64657074 
 2403      6820666F 
 2404 006d 000000   		.align 8
 2405              	.LC12:
 2406 0070 496E7661 		.string	"Invalid bit depth for grayscale+alpha image"
 2406      6C696420 
 2406      62697420 
 2406      64657074 
 2406      6820666F 
 2407 009c 00000000 		.align 8
 2408              	.LC13:
 2409 00a0 496E7661 		.string	"Invalid bit depth for RGBA image"
 2409      6C696420 
 2409      62697420 
 2409      64657074 
 2409      6820666F 
 2410 00c1 00000000 		.align 8
 2410      000000
 2411              	.LC14:
 2412 00c8 496E7661 		.string	"Invalid image color type specified"
 2412      6C696420 
 2412      696D6167 
 2412      6520636F 
 2412      6C6F7220 
 2413 00eb 00000000 		.align 8
 2413      00
 2414              	.LC15:
 2415 00f0 496E7661 		.string	"Invalid compression type specified"
 2415      6C696420 
 2415      636F6D70 
 2415      72657373 
 2415      696F6E20 
 2416              		.section	.rodata.png_write_IHDR.str1.1,"aMS",@progbits,1
 2417              	.LC16:
 2418 0000 496E7661 		.string	"Invalid filter type specified"
 2418      6C696420 
 2418      66696C74 
 2418      65722074 
 2418      79706520 
 2419              		.section	.rodata.png_write_IHDR.str1.8
 2420 0113 00000000 		.align 8
 2420      00
 2421              	.LC17:
 2422 0118 496E7661 		.string	"Invalid interlace type specified"
 2422      6C696420 
 2422      696E7465 
 2422      726C6163 
 2422      65207479 
 2423              		.section	.text.png_write_IHDR,"ax",@progbits
 2424              		.p2align 4
 2425              		.globl	png_write_IHDR
 2427              	png_write_IHDR:
 2428              	.LVL239:
 2429              	.LFB58:
 750:fltk-1.3.4-1/png/pngwutil.c **** #endif /* WRITE_TEXT || WRITE_pCAL || WRITE_iCCP || WRITE_sPLT */
 751:fltk-1.3.4-1/png/pngwutil.c **** 
 752:fltk-1.3.4-1/png/pngwutil.c **** /* Write the IHDR chunk, and update the png_struct with the necessary
 753:fltk-1.3.4-1/png/pngwutil.c ****  * information.  Note that the rest of this code depends upon this
 754:fltk-1.3.4-1/png/pngwutil.c ****  * information being correct.
 755:fltk-1.3.4-1/png/pngwutil.c ****  */
 756:fltk-1.3.4-1/png/pngwutil.c **** void /* PRIVATE */
 757:fltk-1.3.4-1/png/pngwutil.c **** png_write_IHDR(png_structrp png_ptr, png_uint_32 width, png_uint_32 height,
 758:fltk-1.3.4-1/png/pngwutil.c ****     int bit_depth, int color_type, int compression_type, int filter_type,
 759:fltk-1.3.4-1/png/pngwutil.c ****     int interlace_type)
 760:fltk-1.3.4-1/png/pngwutil.c **** {
 2430              		.loc 1 760 1 is_stmt 1 view -0
 2431              		.cfi_startproc
 2432              		.loc 1 760 1 is_stmt 0 view .LVU707
 2433 0000 F30F1EFA 		endbr64
 2434 0004 4157     		pushq	%r15
 2435              		.cfi_def_cfa_offset 16
 2436              		.cfi_offset 15, -16
 2437 0006 4156     		pushq	%r14
 2438              		.cfi_def_cfa_offset 24
 2439              		.cfi_offset 14, -24
 2440 0008 4155     		pushq	%r13
 2441              		.cfi_def_cfa_offset 32
 2442              		.cfi_offset 13, -32
 2443 000a 4154     		pushq	%r12
 2444              		.cfi_def_cfa_offset 40
 2445              		.cfi_offset 12, -40
 2446 000c 55       		pushq	%rbp
 2447              		.cfi_def_cfa_offset 48
 2448              		.cfi_offset 6, -48
 2449 000d 4889FD   		movq	%rdi, %rbp
 2450 0010 53       		pushq	%rbx
 2451              		.cfi_def_cfa_offset 56
 2452              		.cfi_offset 3, -56
 2453 0011 4883EC28 		subq	$40, %rsp
 2454              		.cfi_def_cfa_offset 96
 2455              		.loc 1 760 1 view .LVU708
 2456 0015 64488B04 		movq	%fs:40, %rax
 2456      25280000 
 2456      00
 2457 001e 48894424 		movq	%rax, 24(%rsp)
 2457      18
 2458 0023 31C0     		xorl	%eax, %eax
 761:fltk-1.3.4-1/png/pngwutil.c ****    png_byte buf[13]; /* Buffer to store the IHDR info */
 2459              		.loc 1 761 4 is_stmt 1 view .LVU709
 762:fltk-1.3.4-1/png/pngwutil.c **** 
 763:fltk-1.3.4-1/png/pngwutil.c ****    png_debug(1, "in png_write_IHDR");
 2460              		.loc 1 763 4 view .LVU710
 764:fltk-1.3.4-1/png/pngwutil.c **** 
 765:fltk-1.3.4-1/png/pngwutil.c ****    /* Check that we have valid input data from the application info */
 766:fltk-1.3.4-1/png/pngwutil.c ****    switch (color_type)
 2461              		.loc 1 766 4 view .LVU711
 2462 0025 4183F806 		cmpl	$6, %r8d
 2463 0029 0F879502 		ja	.L209
 2463      0000
 2464 002f 4189D5   		movl	%edx, %r13d
 2465 0032 89CB     		movl	%ecx, %ebx
 2466 0034 4489C2   		movl	%r8d, %edx
 2467              	.LVL240:
 2468              		.loc 1 766 4 is_stmt 0 view .LVU712
 2469 0037 4189F4   		movl	%esi, %r12d
 2470 003a 488D0D00 		leaq	.L211(%rip), %rcx
 2470      000000
 2471              	.LVL241:
 2472              		.loc 1 766 4 view .LVU713
 2473 0041 4589C6   		movl	%r8d, %r14d
 2474 0044 48630491 		movslq	(%rcx,%rdx,4), %rax
 2475 0048 4801C8   		addq	%rcx, %rax
 2476 004b 3EFFE0   		notrack jmp	*%rax
 2477              		.section	.rodata.png_write_IHDR,"a",@progbits
 2478              		.align 4
 2479              		.align 4
 2480              	.L211:
 2481 0000 00000000 		.long	.L215-.L211
 2482 0004 00000000 		.long	.L209-.L211
 2483 0008 00000000 		.long	.L214-.L211
 2484 000c 00000000 		.long	.L213-.L211
 2485 0010 00000000 		.long	.L212-.L211
 2486 0014 00000000 		.long	.L209-.L211
 2487 0018 00000000 		.long	.L210-.L211
 2488              		.section	.text.png_write_IHDR
 2489 004e 6690     		.p2align 4,,10
 2490              		.p2align 3
 2491              	.L213:
 767:fltk-1.3.4-1/png/pngwutil.c ****    {
 768:fltk-1.3.4-1/png/pngwutil.c ****       case PNG_COLOR_TYPE_GRAY:
 769:fltk-1.3.4-1/png/pngwutil.c ****          switch (bit_depth)
 770:fltk-1.3.4-1/png/pngwutil.c ****          {
 771:fltk-1.3.4-1/png/pngwutil.c ****             case 1:
 772:fltk-1.3.4-1/png/pngwutil.c ****             case 2:
 773:fltk-1.3.4-1/png/pngwutil.c ****             case 4:
 774:fltk-1.3.4-1/png/pngwutil.c ****             case 8:
 775:fltk-1.3.4-1/png/pngwutil.c **** #ifdef PNG_WRITE_16BIT_SUPPORTED
 776:fltk-1.3.4-1/png/pngwutil.c ****             case 16:
 777:fltk-1.3.4-1/png/pngwutil.c **** #endif
 778:fltk-1.3.4-1/png/pngwutil.c ****                png_ptr->channels = 1; break;
 779:fltk-1.3.4-1/png/pngwutil.c **** 
 780:fltk-1.3.4-1/png/pngwutil.c ****             default:
 781:fltk-1.3.4-1/png/pngwutil.c ****                png_error(png_ptr,
 782:fltk-1.3.4-1/png/pngwutil.c ****                    "Invalid bit depth for grayscale image");
 783:fltk-1.3.4-1/png/pngwutil.c ****          }
 784:fltk-1.3.4-1/png/pngwutil.c ****          break;
 785:fltk-1.3.4-1/png/pngwutil.c **** 
 786:fltk-1.3.4-1/png/pngwutil.c ****       case PNG_COLOR_TYPE_RGB:
 787:fltk-1.3.4-1/png/pngwutil.c **** #ifdef PNG_WRITE_16BIT_SUPPORTED
 788:fltk-1.3.4-1/png/pngwutil.c ****          if (bit_depth != 8 && bit_depth != 16)
 789:fltk-1.3.4-1/png/pngwutil.c **** #else
 790:fltk-1.3.4-1/png/pngwutil.c ****          if (bit_depth != 8)
 791:fltk-1.3.4-1/png/pngwutil.c **** #endif
 792:fltk-1.3.4-1/png/pngwutil.c ****             png_error(png_ptr, "Invalid bit depth for RGB image");
 793:fltk-1.3.4-1/png/pngwutil.c **** 
 794:fltk-1.3.4-1/png/pngwutil.c ****          png_ptr->channels = 3;
 795:fltk-1.3.4-1/png/pngwutil.c ****          break;
 796:fltk-1.3.4-1/png/pngwutil.c **** 
 797:fltk-1.3.4-1/png/pngwutil.c ****       case PNG_COLOR_TYPE_PALETTE:
 798:fltk-1.3.4-1/png/pngwutil.c ****          switch (bit_depth)
 2492              		.loc 1 798 10 is_stmt 1 view .LVU714
 2493 0050 83FB08   		cmpl	$8, %ebx
 2494 0053 7711     		ja	.L219
 2495 0055 B8010000 		movl	$1, %eax
 2495      00
 2496 005a 89D9     		movl	%ebx, %ecx
 2497 005c 48D3E0   		salq	%cl, %rax
 2498 005f A9160100 		testl	$278, %eax
 2498      00
 2499 0064 7537     		jne	.L220
 2500              	.L219:
 799:fltk-1.3.4-1/png/pngwutil.c ****          {
 800:fltk-1.3.4-1/png/pngwutil.c ****             case 1:
 801:fltk-1.3.4-1/png/pngwutil.c ****             case 2:
 802:fltk-1.3.4-1/png/pngwutil.c ****             case 4:
 803:fltk-1.3.4-1/png/pngwutil.c ****             case 8:
 804:fltk-1.3.4-1/png/pngwutil.c ****                png_ptr->channels = 1;
 805:fltk-1.3.4-1/png/pngwutil.c ****                break;
 806:fltk-1.3.4-1/png/pngwutil.c **** 
 807:fltk-1.3.4-1/png/pngwutil.c ****             default:
 808:fltk-1.3.4-1/png/pngwutil.c ****                png_error(png_ptr, "Invalid bit depth for paletted image");
 2501              		.loc 1 808 16 view .LVU715
 2502 0066 488D3500 		leaq	.LC11(%rip), %rsi
 2502      000000
 2503              	.LVL242:
 2504              		.loc 1 808 16 is_stmt 0 view .LVU716
 2505 006d 4889EF   		movq	%rbp, %rdi
 2506              	.LVL243:
 2507              		.loc 1 808 16 view .LVU717
 2508 0070 E8000000 		call	png_error@PLT
 2508      00
 2509              	.LVL244:
 2510              		.p2align 4,,10
 2511 0075 0F1F00   		.p2align 3
 2512              	.L215:
 769:fltk-1.3.4-1/png/pngwutil.c ****          {
 2513              		.loc 1 769 10 is_stmt 1 view .LVU718
 2514 0078 83FB10   		cmpl	$16, %ebx
 2515 007b 7711     		ja	.L216
 2516 007d B8010000 		movl	$1, %eax
 2516      00
 2517 0082 89D9     		movl	%ebx, %ecx
 2518 0084 48D3E0   		salq	%cl, %rax
 2519 0087 A9160101 		testl	$65814, %eax
 2519      00
 2520 008c 750F     		jne	.L220
 2521              	.L216:
 781:fltk-1.3.4-1/png/pngwutil.c ****                    "Invalid bit depth for grayscale image");
 2522              		.loc 1 781 16 view .LVU719
 2523 008e 488D3500 		leaq	.LC9(%rip), %rsi
 2523      000000
 2524              	.LVL245:
 781:fltk-1.3.4-1/png/pngwutil.c ****                    "Invalid bit depth for grayscale image");
 2525              		.loc 1 781 16 is_stmt 0 view .LVU720
 2526 0095 4889EF   		movq	%rbp, %rdi
 2527              	.LVL246:
 781:fltk-1.3.4-1/png/pngwutil.c ****                    "Invalid bit depth for grayscale image");
 2528              		.loc 1 781 16 view .LVU721
 2529 0098 E8000000 		call	png_error@PLT
 2529      00
 2530              	.LVL247:
 2531              	.L220:
 778:fltk-1.3.4-1/png/pngwutil.c **** 
 2532              		.loc 1 778 16 is_stmt 1 view .LVU722
 778:fltk-1.3.4-1/png/pngwutil.c **** 
 2533              		.loc 1 778 34 is_stmt 0 view .LVU723
 2534 009d C6857B02 		movb	$1, 635(%rbp)
 2534      000001
 778:fltk-1.3.4-1/png/pngwutil.c **** 
 2535              		.loc 1 778 39 is_stmt 1 view .LVU724
 784:fltk-1.3.4-1/png/pngwutil.c **** 
 2536              		.loc 1 784 10 view .LVU725
 2537              	.L217:
 809:fltk-1.3.4-1/png/pngwutil.c ****          }
 810:fltk-1.3.4-1/png/pngwutil.c ****          break;
 811:fltk-1.3.4-1/png/pngwutil.c **** 
 812:fltk-1.3.4-1/png/pngwutil.c ****       case PNG_COLOR_TYPE_GRAY_ALPHA:
 813:fltk-1.3.4-1/png/pngwutil.c ****          if (bit_depth != 8 && bit_depth != 16)
 814:fltk-1.3.4-1/png/pngwutil.c ****             png_error(png_ptr, "Invalid bit depth for grayscale+alpha image");
 815:fltk-1.3.4-1/png/pngwutil.c **** 
 816:fltk-1.3.4-1/png/pngwutil.c ****          png_ptr->channels = 2;
 817:fltk-1.3.4-1/png/pngwutil.c ****          break;
 818:fltk-1.3.4-1/png/pngwutil.c **** 
 819:fltk-1.3.4-1/png/pngwutil.c ****       case PNG_COLOR_TYPE_RGB_ALPHA:
 820:fltk-1.3.4-1/png/pngwutil.c **** #ifdef PNG_WRITE_16BIT_SUPPORTED
 821:fltk-1.3.4-1/png/pngwutil.c ****          if (bit_depth != 8 && bit_depth != 16)
 822:fltk-1.3.4-1/png/pngwutil.c **** #else
 823:fltk-1.3.4-1/png/pngwutil.c ****          if (bit_depth != 8)
 824:fltk-1.3.4-1/png/pngwutil.c **** #endif
 825:fltk-1.3.4-1/png/pngwutil.c ****             png_error(png_ptr, "Invalid bit depth for RGBA image");
 826:fltk-1.3.4-1/png/pngwutil.c **** 
 827:fltk-1.3.4-1/png/pngwutil.c ****          png_ptr->channels = 4;
 828:fltk-1.3.4-1/png/pngwutil.c ****          break;
 829:fltk-1.3.4-1/png/pngwutil.c **** 
 830:fltk-1.3.4-1/png/pngwutil.c ****       default:
 831:fltk-1.3.4-1/png/pngwutil.c ****          png_error(png_ptr, "Invalid image color type specified");
 832:fltk-1.3.4-1/png/pngwutil.c ****    }
 833:fltk-1.3.4-1/png/pngwutil.c **** 
 834:fltk-1.3.4-1/png/pngwutil.c ****    if (compression_type != PNG_COMPRESSION_TYPE_BASE)
 2538              		.loc 1 834 4 view .LVU726
 2539              		.loc 1 834 7 is_stmt 0 view .LVU727
 2540 00a4 4585C9   		testl	%r9d, %r9d
 2541 00a7 0F859301 		jne	.L249
 2541      0000
 2542              	.LVL248:
 2543              	.L223:
 835:fltk-1.3.4-1/png/pngwutil.c ****    {
 836:fltk-1.3.4-1/png/pngwutil.c ****       png_warning(png_ptr, "Invalid compression type specified");
 837:fltk-1.3.4-1/png/pngwutil.c ****       compression_type = PNG_COMPRESSION_TYPE_BASE;
 838:fltk-1.3.4-1/png/pngwutil.c ****    }
 839:fltk-1.3.4-1/png/pngwutil.c **** 
 840:fltk-1.3.4-1/png/pngwutil.c ****    /* Write filter_method 64 (intrapixel differencing) only if
 841:fltk-1.3.4-1/png/pngwutil.c ****     * 1. Libpng was compiled with PNG_MNG_FEATURES_SUPPORTED and
 842:fltk-1.3.4-1/png/pngwutil.c ****     * 2. Libpng did not write a PNG signature (this filter_method is only
 843:fltk-1.3.4-1/png/pngwutil.c ****     *    used in PNG datastreams that are embedded in MNG datastreams) and
 844:fltk-1.3.4-1/png/pngwutil.c ****     * 3. The application called png_permit_mng_features with a mask that
 845:fltk-1.3.4-1/png/pngwutil.c ****     *    included PNG_FLAG_MNG_FILTER_64 and
 846:fltk-1.3.4-1/png/pngwutil.c ****     * 4. The filter_method is 64 and
 847:fltk-1.3.4-1/png/pngwutil.c ****     * 5. The color_type is RGB or RGBA
 848:fltk-1.3.4-1/png/pngwutil.c ****     */
 849:fltk-1.3.4-1/png/pngwutil.c ****    if (
 2544              		.loc 1 849 4 is_stmt 1 view .LVU728
 2545              		.loc 1 849 7 is_stmt 0 view .LVU729
 2546 00ad F6851804 		testb	$4, 1048(%rbp)
 2546      000004
 2547 00b4 742A     		je	.L224
 850:fltk-1.3.4-1/png/pngwutil.c **** #ifdef PNG_MNG_FEATURES_SUPPORTED
 851:fltk-1.3.4-1/png/pngwutil.c ****        !((png_ptr->mng_features_permitted & PNG_FLAG_MNG_FILTER_64) != 0 &&
 2548              		.loc 1 851 74 view .LVU730
 2549 00b6 F6852D01 		testb	$16, 301(%rbp)
 2549      000010
 2550 00bd 7521     		jne	.L224
 852:fltk-1.3.4-1/png/pngwutil.c ****        ((png_ptr->mode & PNG_HAVE_PNG_SIGNATURE) == 0) &&
 853:fltk-1.3.4-1/png/pngwutil.c ****        (color_type == PNG_COLOR_TYPE_RGB ||
 2551              		.loc 1 853 20 view .LVU731
 2552 00bf 4489F0   		movl	%r14d, %eax
 2553 00c2 83E0FB   		andl	$-5, %eax
 851:fltk-1.3.4-1/png/pngwutil.c ****        ((png_ptr->mode & PNG_HAVE_PNG_SIGNATURE) == 0) &&
 2554              		.loc 1 851 8 view .LVU732
 2555 00c5 83F802   		cmpl	$2, %eax
 2556 00c8 7516     		jne	.L224
 2557 00ca 837C2460 		cmpl	$64, 96(%rsp)
 2557      40
 2558 00cf 41BF4000 		movl	$64, %r15d
 2558      0000
 2559 00d5 7418     		je	.L225
 2560 00d7 660F1F84 		.p2align 4,,10
 2560      00000000 
 2560      00
 2561              		.p2align 3
 2562              	.L224:
 854:fltk-1.3.4-1/png/pngwutil.c ****         color_type == PNG_COLOR_TYPE_RGB_ALPHA) &&
 855:fltk-1.3.4-1/png/pngwutil.c ****        (filter_type == PNG_INTRAPIXEL_DIFFERENCING)) &&
 2563              		.loc 1 855 54 view .LVU733
 2564 00e0 8B442460 		movl	96(%rsp), %eax
 2565 00e4 4531FF   		xorl	%r15d, %r15d
 2566 00e7 85C0     		testl	%eax, %eax
 2567 00e9 0F856901 		jne	.L250
 2567      0000
 2568              	.LVL249:
 2569              	.L225:
 856:fltk-1.3.4-1/png/pngwutil.c **** #endif
 857:fltk-1.3.4-1/png/pngwutil.c ****        filter_type != PNG_FILTER_TYPE_BASE)
 858:fltk-1.3.4-1/png/pngwutil.c ****    {
 859:fltk-1.3.4-1/png/pngwutil.c ****       png_warning(png_ptr, "Invalid filter type specified");
 860:fltk-1.3.4-1/png/pngwutil.c ****       filter_type = PNG_FILTER_TYPE_BASE;
 861:fltk-1.3.4-1/png/pngwutil.c ****    }
 862:fltk-1.3.4-1/png/pngwutil.c **** 
 863:fltk-1.3.4-1/png/pngwutil.c **** #ifdef PNG_WRITE_INTERLACING_SUPPORTED
 864:fltk-1.3.4-1/png/pngwutil.c ****    if (interlace_type != PNG_INTERLACE_NONE &&
 2570              		.loc 1 864 4 is_stmt 1 view .LVU734
 2571              		.loc 1 864 7 is_stmt 0 view .LVU735
 2572 00ef 837C2468 		cmpl	$1, 104(%rsp)
 2572      01
 2573 00f4 0F872601 		ja	.L227
 2573      0000
 2574 00fa 0FB67C24 		movzbl	104(%rsp), %edi
 2574      68
 2575              	.LVL250:
 2576              	.L228:
 865:fltk-1.3.4-1/png/pngwutil.c ****        interlace_type != PNG_INTERLACE_ADAM7)
 866:fltk-1.3.4-1/png/pngwutil.c ****    {
 867:fltk-1.3.4-1/png/pngwutil.c ****       png_warning(png_ptr, "Invalid interlace type specified");
 868:fltk-1.3.4-1/png/pngwutil.c ****       interlace_type = PNG_INTERLACE_ADAM7;
 869:fltk-1.3.4-1/png/pngwutil.c ****    }
 870:fltk-1.3.4-1/png/pngwutil.c **** #else
 871:fltk-1.3.4-1/png/pngwutil.c ****    interlace_type=PNG_INTERLACE_NONE;
 872:fltk-1.3.4-1/png/pngwutil.c **** #endif
 873:fltk-1.3.4-1/png/pngwutil.c **** 
 874:fltk-1.3.4-1/png/pngwutil.c ****    /* Save the relevent information */
 875:fltk-1.3.4-1/png/pngwutil.c ****    png_ptr->bit_depth = (png_byte)bit_depth;
 2577              		.loc 1 875 4 is_stmt 1 view .LVU736
 876:fltk-1.3.4-1/png/pngwutil.c ****    png_ptr->color_type = (png_byte)color_type;
 877:fltk-1.3.4-1/png/pngwutil.c ****    png_ptr->interlaced = (png_byte)interlace_type;
 878:fltk-1.3.4-1/png/pngwutil.c **** #ifdef PNG_MNG_FEATURES_SUPPORTED
 879:fltk-1.3.4-1/png/pngwutil.c ****    png_ptr->filter_type = (png_byte)filter_type;
 880:fltk-1.3.4-1/png/pngwutil.c **** #endif
 881:fltk-1.3.4-1/png/pngwutil.c ****    png_ptr->compression_type = (png_byte)compression_type;
 882:fltk-1.3.4-1/png/pngwutil.c ****    png_ptr->width = width;
 883:fltk-1.3.4-1/png/pngwutil.c ****    png_ptr->height = height;
 884:fltk-1.3.4-1/png/pngwutil.c **** 
 885:fltk-1.3.4-1/png/pngwutil.c ****    png_ptr->pixel_depth = (png_byte)(bit_depth * png_ptr->channels);
 2578              		.loc 1 885 57 is_stmt 0 view .LVU737
 2579 00ff 0FB6957B 		movzbl	635(%rbp), %edx
 2579      020000
 875:fltk-1.3.4-1/png/pngwutil.c ****    png_ptr->color_type = (png_byte)color_type;
 2580              		.loc 1 875 23 view .LVU738
 2581 0106 889D7802 		movb	%bl, 632(%rbp)
 2581      0000
 876:fltk-1.3.4-1/png/pngwutil.c ****    png_ptr->color_type = (png_byte)color_type;
 2582              		.loc 1 876 4 is_stmt 1 view .LVU739
 2583 010c 4489E6   		movl	%r12d, %esi
 876:fltk-1.3.4-1/png/pngwutil.c ****    png_ptr->color_type = (png_byte)color_type;
 2584              		.loc 1 876 24 is_stmt 0 view .LVU740
 2585 010f 4488B577 		movb	%r14b, 631(%rbp)
 2585      020000
 877:fltk-1.3.4-1/png/pngwutil.c **** #ifdef PNG_MNG_FEATURES_SUPPORTED
 2586              		.loc 1 877 4 is_stmt 1 view .LVU741
 2587              		.loc 1 885 27 is_stmt 0 view .LVU742
 2588 0116 89D0     		movl	%edx, %eax
 877:fltk-1.3.4-1/png/pngwutil.c **** #ifdef PNG_MNG_FEATURES_SUPPORTED
 2589              		.loc 1 877 24 view .LVU743
 2590 0118 4088BD74 		movb	%dil, 628(%rbp)
 2590      020000
 879:fltk-1.3.4-1/png/pngwutil.c **** #endif
 2591              		.loc 1 879 4 is_stmt 1 view .LVU744
 2592              		.loc 1 885 27 is_stmt 0 view .LVU745
 2593 011f 0FAFC3   		imull	%ebx, %eax
 879:fltk-1.3.4-1/png/pngwutil.c **** #endif
 2594              		.loc 1 879 25 view .LVU746
 2595 0122 4488BD1C 		movb	%r15b, 1052(%rbp)
 2595      040000
 881:fltk-1.3.4-1/png/pngwutil.c ****    png_ptr->width = width;
 2596              		.loc 1 881 4 is_stmt 1 view .LVU747
 881:fltk-1.3.4-1/png/pngwutil.c ****    png_ptr->width = width;
 2597              		.loc 1 881 30 is_stmt 0 view .LVU748
 2598 0129 C6855804 		movb	$0, 1112(%rbp)
 2598      000000
 882:fltk-1.3.4-1/png/pngwutil.c ****    png_ptr->height = height;
 2599              		.loc 1 882 4 is_stmt 1 view .LVU749
 882:fltk-1.3.4-1/png/pngwutil.c ****    png_ptr->height = height;
 2600              		.loc 1 882 19 is_stmt 0 view .LVU750
 2601 0130 4489A5F8 		movl	%r12d, 504(%rbp)
 2601      010000
 883:fltk-1.3.4-1/png/pngwutil.c **** 
 2602              		.loc 1 883 4 is_stmt 1 view .LVU751
 883:fltk-1.3.4-1/png/pngwutil.c **** 
 2603              		.loc 1 883 20 is_stmt 0 view .LVU752
 2604 0137 4489ADFC 		movl	%r13d, 508(%rbp)
 2604      010000
 2605              		.loc 1 885 4 is_stmt 1 view .LVU753
 2606              		.loc 1 885 25 is_stmt 0 view .LVU754
 2607 013e 88857A02 		movb	%al, 634(%rbp)
 2607      0000
 886:fltk-1.3.4-1/png/pngwutil.c ****    png_ptr->rowbytes = PNG_ROWBYTES(png_ptr->pixel_depth, width);
 2608              		.loc 1 886 4 is_stmt 1 view .LVU755
 2609              		.loc 1 886 24 is_stmt 0 view .LVU756
 2610 0144 3C07     		cmpb	$7, %al
 2611 0146 0F86BC00 		jbe	.L229
 2611      0000
 2612              		.loc 1 886 24 discriminator 1 view .LVU757
 2613 014c C0E803   		shrb	$3, %al
 2614 014f 0FB6C0   		movzbl	%al, %eax
 2615 0152 480FAFC6 		imulq	%rsi, %rax
 2616              	.L230:
 887:fltk-1.3.4-1/png/pngwutil.c ****    /* Set the usr info, so any transformations can modify it */
 888:fltk-1.3.4-1/png/pngwutil.c ****    png_ptr->usr_width = png_ptr->width;
 2617              		.loc 1 888 23 discriminator 4 view .LVU758
 2618 0156 4489A504 		movl	%r12d, 516(%rbp)
 2618      020000
 889:fltk-1.3.4-1/png/pngwutil.c ****    png_ptr->usr_bit_depth = png_ptr->bit_depth;
 890:fltk-1.3.4-1/png/pngwutil.c ****    png_ptr->usr_channels = png_ptr->channels;
 891:fltk-1.3.4-1/png/pngwutil.c **** 
 892:fltk-1.3.4-1/png/pngwutil.c ****    /* Pack the header information into the buffer */
 893:fltk-1.3.4-1/png/pngwutil.c ****    png_save_uint_32(buf, width);
 894:fltk-1.3.4-1/png/pngwutil.c ****    png_save_uint_32(buf + 4, height);
 895:fltk-1.3.4-1/png/pngwutil.c ****    buf[8] = (png_byte)bit_depth;
 896:fltk-1.3.4-1/png/pngwutil.c ****    buf[9] = (png_byte)color_type;
 897:fltk-1.3.4-1/png/pngwutil.c ****    buf[10] = (png_byte)compression_type;
 898:fltk-1.3.4-1/png/pngwutil.c ****    buf[11] = (png_byte)filter_type;
 899:fltk-1.3.4-1/png/pngwutil.c ****    buf[12] = (png_byte)interlace_type;
 900:fltk-1.3.4-1/png/pngwutil.c **** 
 901:fltk-1.3.4-1/png/pngwutil.c ****    /* Write the chunk */
 902:fltk-1.3.4-1/png/pngwutil.c ****    png_write_complete_chunk(png_ptr, png_IHDR, buf, (png_size_t)13);
 2619              		.loc 1 902 4 discriminator 4 view .LVU759
 2620 015d B90D0000 		movl	$13, %ecx
 2620      00
 2621 0162 410FCC   		bswap	%r12d
 2622              	.LVL251:
 2623              		.loc 1 902 4 discriminator 4 view .LVU760
 2624 0165 410FCD   		bswap	%r13d
 2625              	.LVL252:
 890:fltk-1.3.4-1/png/pngwutil.c **** 
 2626              		.loc 1 890 26 discriminator 4 view .LVU761
 2627 0168 88957C02 		movb	%dl, 636(%rbp)
 2627      0000
 2628              		.loc 1 902 4 discriminator 4 view .LVU762
 2629 016e BE524448 		movl	$1229472850, %esi
 2629      49
 2630 0173 488D5424 		leaq	11(%rsp), %rdx
 2630      0B
 886:fltk-1.3.4-1/png/pngwutil.c ****    /* Set the usr info, so any transformations can modify it */
 2631              		.loc 1 886 22 discriminator 4 view .LVU763
 2632 0178 48898508 		movq	%rax, 520(%rbp)
 2632      020000
 888:fltk-1.3.4-1/png/pngwutil.c ****    png_ptr->usr_bit_depth = png_ptr->bit_depth;
 2633              		.loc 1 888 4 is_stmt 1 discriminator 4 view .LVU764
 889:fltk-1.3.4-1/png/pngwutil.c ****    png_ptr->usr_channels = png_ptr->channels;
 2634              		.loc 1 889 4 discriminator 4 view .LVU765
 889:fltk-1.3.4-1/png/pngwutil.c ****    png_ptr->usr_channels = png_ptr->channels;
 2635              		.loc 1 889 27 is_stmt 0 discriminator 4 view .LVU766
 2636 017f 889D7902 		movb	%bl, 633(%rbp)
 2636      0000
 890:fltk-1.3.4-1/png/pngwutil.c **** 
 2637              		.loc 1 890 4 is_stmt 1 discriminator 4 view .LVU767
 893:fltk-1.3.4-1/png/pngwutil.c ****    png_save_uint_32(buf + 4, height);
 2638              		.loc 1 893 4 discriminator 4 view .LVU768
 2639              	.LVL253:
 2640              	.LBB283:
 2641              	.LBI283:
  24:fltk-1.3.4-1/png/pngwutil.c **** {
 2642              		.loc 1 24 1 discriminator 4 view .LVU769
 2643              	.LBB284:
  26:fltk-1.3.4-1/png/pngwutil.c ****    buf[1] = (png_byte)((i >> 16) & 0xff);
 2644              		.loc 1 26 4 discriminator 4 view .LVU770
  27:fltk-1.3.4-1/png/pngwutil.c ****    buf[2] = (png_byte)((i >> 8) & 0xff);
 2645              		.loc 1 27 4 discriminator 4 view .LVU771
  28:fltk-1.3.4-1/png/pngwutil.c ****    buf[3] = (png_byte)(i & 0xff);
 2646              		.loc 1 28 4 discriminator 4 view .LVU772
  29:fltk-1.3.4-1/png/pngwutil.c **** }
 2647              		.loc 1 29 4 discriminator 4 view .LVU773
 2648              	.LBE284:
 2649              	.LBE283:
 899:fltk-1.3.4-1/png/pngwutil.c **** 
 2650              		.loc 1 899 12 is_stmt 0 discriminator 4 view .LVU774
 2651 0185 40887C24 		movb	%dil, 23(%rsp)
 2651      17
 2652              		.loc 1 902 4 discriminator 4 view .LVU775
 2653 018a 4889EF   		movq	%rbp, %rdi
 2654              	.LBB286:
 2655              	.LBB285:
  26:fltk-1.3.4-1/png/pngwutil.c ****    buf[1] = (png_byte)((i >> 16) & 0xff);
 2656              		.loc 1 26 11 discriminator 4 view .LVU776
 2657 018d 44896424 		movl	%r12d, 11(%rsp)
 2657      0B
 2658              	.LVL254:
  26:fltk-1.3.4-1/png/pngwutil.c ****    buf[1] = (png_byte)((i >> 16) & 0xff);
 2659              		.loc 1 26 11 discriminator 4 view .LVU777
 2660              	.LBE285:
 2661              	.LBE286:
 894:fltk-1.3.4-1/png/pngwutil.c ****    buf[8] = (png_byte)bit_depth;
 2662              		.loc 1 894 4 is_stmt 1 discriminator 4 view .LVU778
 2663              	.LBB287:
 2664              	.LBI287:
  24:fltk-1.3.4-1/png/pngwutil.c **** {
 2665              		.loc 1 24 1 discriminator 4 view .LVU779
 2666              	.LBB288:
  26:fltk-1.3.4-1/png/pngwutil.c ****    buf[1] = (png_byte)((i >> 16) & 0xff);
 2667              		.loc 1 26 4 discriminator 4 view .LVU780
  27:fltk-1.3.4-1/png/pngwutil.c ****    buf[2] = (png_byte)((i >> 8) & 0xff);
 2668              		.loc 1 27 4 discriminator 4 view .LVU781
  28:fltk-1.3.4-1/png/pngwutil.c ****    buf[3] = (png_byte)(i & 0xff);
 2669              		.loc 1 28 4 discriminator 4 view .LVU782
  29:fltk-1.3.4-1/png/pngwutil.c **** }
 2670              		.loc 1 29 4 discriminator 4 view .LVU783
  26:fltk-1.3.4-1/png/pngwutil.c ****    buf[1] = (png_byte)((i >> 16) & 0xff);
 2671              		.loc 1 26 11 is_stmt 0 discriminator 4 view .LVU784
 2672 0192 44896C24 		movl	%r13d, 15(%rsp)
 2672      0F
 2673              	.LVL255:
  26:fltk-1.3.4-1/png/pngwutil.c ****    buf[1] = (png_byte)((i >> 16) & 0xff);
 2674              		.loc 1 26 11 discriminator 4 view .LVU785
 2675              	.LBE288:
 2676              	.LBE287:
 895:fltk-1.3.4-1/png/pngwutil.c ****    buf[9] = (png_byte)color_type;
 2677              		.loc 1 895 4 is_stmt 1 discriminator 4 view .LVU786
 895:fltk-1.3.4-1/png/pngwutil.c ****    buf[9] = (png_byte)color_type;
 2678              		.loc 1 895 11 is_stmt 0 discriminator 4 view .LVU787
 2679 0197 885C2413 		movb	%bl, 19(%rsp)
 896:fltk-1.3.4-1/png/pngwutil.c ****    buf[10] = (png_byte)compression_type;
 2680              		.loc 1 896 4 is_stmt 1 discriminator 4 view .LVU788
 896:fltk-1.3.4-1/png/pngwutil.c ****    buf[10] = (png_byte)compression_type;
 2681              		.loc 1 896 11 is_stmt 0 discriminator 4 view .LVU789
 2682 019b 44887424 		movb	%r14b, 20(%rsp)
 2682      14
 897:fltk-1.3.4-1/png/pngwutil.c ****    buf[11] = (png_byte)filter_type;
 2683              		.loc 1 897 4 is_stmt 1 discriminator 4 view .LVU790
 897:fltk-1.3.4-1/png/pngwutil.c ****    buf[11] = (png_byte)filter_type;
 2684              		.loc 1 897 12 is_stmt 0 discriminator 4 view .LVU791
 2685 01a0 C6442415 		movb	$0, 21(%rsp)
 2685      00
 898:fltk-1.3.4-1/png/pngwutil.c ****    buf[12] = (png_byte)interlace_type;
 2686              		.loc 1 898 4 is_stmt 1 discriminator 4 view .LVU792
 898:fltk-1.3.4-1/png/pngwutil.c ****    buf[12] = (png_byte)interlace_type;
 2687              		.loc 1 898 12 is_stmt 0 discriminator 4 view .LVU793
 2688 01a5 44887C24 		movb	%r15b, 22(%rsp)
 2688      16
 899:fltk-1.3.4-1/png/pngwutil.c **** 
 2689              		.loc 1 899 4 is_stmt 1 discriminator 4 view .LVU794
 2690              		.loc 1 902 4 discriminator 4 view .LVU795
 2691 01aa E8000000 		call	png_write_complete_chunk
 2691      00
 2692              	.LVL256:
 903:fltk-1.3.4-1/png/pngwutil.c **** 
 904:fltk-1.3.4-1/png/pngwutil.c ****    if ((png_ptr->do_filter) == PNG_NO_FILTERS)
 2693              		.loc 1 904 4 discriminator 4 view .LVU796
 2694              		.loc 1 904 7 is_stmt 0 discriminator 4 view .LVU797
 2695 01af 80BD7602 		cmpb	$0, 630(%rbp)
 2695      000000
 2696 01b6 751D     		jne	.L231
 905:fltk-1.3.4-1/png/pngwutil.c ****    {
 906:fltk-1.3.4-1/png/pngwutil.c ****       if (png_ptr->color_type == PNG_COLOR_TYPE_PALETTE ||
 2697              		.loc 1 906 7 is_stmt 1 view .LVU798
 2698              		.loc 1 906 10 is_stmt 0 view .LVU799
 2699 01b8 80BD7702 		cmpb	$3, 631(%rbp)
 2699      000003
 2700 01bf 740D     		je	.L232
 2701              		.loc 1 906 57 discriminator 1 view .LVU800
 2702 01c1 80BD7802 		cmpb	$7, 632(%rbp)
 2702      000007
 2703 01c8 0F87A200 		ja	.L233
 2703      0000
 2704              	.L232:
 907:fltk-1.3.4-1/png/pngwutil.c ****           png_ptr->bit_depth < 8)
 908:fltk-1.3.4-1/png/pngwutil.c ****          png_ptr->do_filter = PNG_FILTER_NONE;
 2705              		.loc 1 908 10 is_stmt 1 view .LVU801
 2706              		.loc 1 908 29 is_stmt 0 view .LVU802
 2707 01ce C6857602 		movb	$8, 630(%rbp)
 2707      000008
 2708              	.L231:
 909:fltk-1.3.4-1/png/pngwutil.c **** 
 910:fltk-1.3.4-1/png/pngwutil.c ****       else
 911:fltk-1.3.4-1/png/pngwutil.c ****          png_ptr->do_filter = PNG_ALL_FILTERS;
 912:fltk-1.3.4-1/png/pngwutil.c ****    }
 913:fltk-1.3.4-1/png/pngwutil.c **** 
 914:fltk-1.3.4-1/png/pngwutil.c ****    png_ptr->mode = PNG_HAVE_IHDR; /* not READY_FOR_ZTXT */
 2709              		.loc 1 914 4 is_stmt 1 view .LVU803
 2710              		.loc 1 914 18 is_stmt 0 view .LVU804
 2711 01d5 C7852C01 		movl	$1, 300(%rbp)
 2711      00000100 
 2711      0000
 915:fltk-1.3.4-1/png/pngwutil.c **** }
 2712              		.loc 1 915 1 view .LVU805
 2713 01df 488B4424 		movq	24(%rsp), %rax
 2713      18
 2714 01e4 64483304 		xorq	%fs:40, %rax
 2714      25280000 
 2714      00
 2715 01ed 0F85E000 		jne	.L251
 2715      0000
 2716 01f3 4883C428 		addq	$40, %rsp
 2717              		.cfi_remember_state
 2718              		.cfi_def_cfa_offset 56
 2719 01f7 5B       		popq	%rbx
 2720              		.cfi_def_cfa_offset 48
 2721              	.LVL257:
 2722              		.loc 1 915 1 view .LVU806
 2723 01f8 5D       		popq	%rbp
 2724              		.cfi_def_cfa_offset 40
 2725              	.LVL258:
 2726              		.loc 1 915 1 view .LVU807
 2727 01f9 415C     		popq	%r12
 2728              		.cfi_def_cfa_offset 32
 2729 01fb 415D     		popq	%r13
 2730              		.cfi_def_cfa_offset 24
 2731 01fd 415E     		popq	%r14
 2732              		.cfi_def_cfa_offset 16
 2733              	.LVL259:
 2734              		.loc 1 915 1 view .LVU808
 2735 01ff 415F     		popq	%r15
 2736              		.cfi_def_cfa_offset 8
 2737 0201 C3       		ret
 2738              	.LVL260:
 2739              		.p2align 4,,10
 2740 0202 660F1F44 		.p2align 3
 2740      0000
 2741              	.L229:
 2742              		.cfi_restore_state
 886:fltk-1.3.4-1/png/pngwutil.c ****    /* Set the usr info, so any transformations can modify it */
 2743              		.loc 1 886 24 discriminator 2 view .LVU809
 2744 0208 0FB6C0   		movzbl	%al, %eax
 2745 020b 480FAFC6 		imulq	%rsi, %rax
 2746 020f 4883C007 		addq	$7, %rax
 2747 0213 48C1E803 		shrq	$3, %rax
 2748 0217 E93AFFFF 		jmp	.L230
 2748      FF
 2749              	.LVL261:
 2750 021c 0F1F4000 		.p2align 4,,10
 2751              		.p2align 3
 2752              	.L227:
 867:fltk-1.3.4-1/png/pngwutil.c ****       interlace_type = PNG_INTERLACE_ADAM7;
 2753              		.loc 1 867 7 is_stmt 1 view .LVU810
 2754 0220 4889EF   		movq	%rbp, %rdi
 2755 0223 488D3500 		leaq	.LC17(%rip), %rsi
 2755      000000
 2756 022a E8000000 		call	png_warning@PLT
 2756      00
 2757              	.LVL262:
 868:fltk-1.3.4-1/png/pngwutil.c ****    }
 2758              		.loc 1 868 7 view .LVU811
 867:fltk-1.3.4-1/png/pngwutil.c ****       interlace_type = PNG_INTERLACE_ADAM7;
 2759              		.loc 1 867 7 is_stmt 0 view .LVU812
 2760 022f BF010000 		movl	$1, %edi
 2760      00
 2761 0234 E9C6FEFF 		jmp	.L228
 2761      FF
 2762              	.LVL263:
 2763 0239 0F1F8000 		.p2align 4,,10
 2763      000000
 2764              		.p2align 3
 2765              	.L249:
 836:fltk-1.3.4-1/png/pngwutil.c ****       compression_type = PNG_COMPRESSION_TYPE_BASE;
 2766              		.loc 1 836 7 is_stmt 1 view .LVU813
 2767 0240 488D3500 		leaq	.LC15(%rip), %rsi
 2767      000000
 2768              	.LVL264:
 836:fltk-1.3.4-1/png/pngwutil.c ****       compression_type = PNG_COMPRESSION_TYPE_BASE;
 2769              		.loc 1 836 7 is_stmt 0 view .LVU814
 2770 0247 4889EF   		movq	%rbp, %rdi
 2771              	.LVL265:
 836:fltk-1.3.4-1/png/pngwutil.c ****       compression_type = PNG_COMPRESSION_TYPE_BASE;
 2772              		.loc 1 836 7 view .LVU815
 2773 024a E8000000 		call	png_warning@PLT
 2773      00
 2774              	.LVL266:
 837:fltk-1.3.4-1/png/pngwutil.c ****    }
 2775              		.loc 1 837 7 is_stmt 1 view .LVU816
 837:fltk-1.3.4-1/png/pngwutil.c ****    }
 2776              		.loc 1 837 7 is_stmt 0 view .LVU817
 2777 024f E959FEFF 		jmp	.L223
 2777      FF
 2778              		.p2align 4,,10
 2779 0254 0F1F4000 		.p2align 3
 2780              	.L250:
 859:fltk-1.3.4-1/png/pngwutil.c ****       filter_type = PNG_FILTER_TYPE_BASE;
 2781              		.loc 1 859 7 is_stmt 1 view .LVU818
 2782 0258 488D3500 		leaq	.LC16(%rip), %rsi
 2782      000000
 2783 025f 4889EF   		movq	%rbp, %rdi
 2784 0262 E8000000 		call	png_warning@PLT
 2784      00
 2785              	.LVL267:
 860:fltk-1.3.4-1/png/pngwutil.c ****    }
 2786              		.loc 1 860 7 view .LVU819
 860:fltk-1.3.4-1/png/pngwutil.c ****    }
 2787              		.loc 1 860 7 is_stmt 0 view .LVU820
 2788 0267 E983FEFF 		jmp	.L225
 2788      FF
 2789              	.LVL268:
 2790 026c 0F1F4000 		.p2align 4,,10
 2791              		.p2align 3
 2792              	.L233:
 911:fltk-1.3.4-1/png/pngwutil.c ****    }
 2793              		.loc 1 911 10 is_stmt 1 view .LVU821
 911:fltk-1.3.4-1/png/pngwutil.c ****    }
 2794              		.loc 1 911 29 is_stmt 0 view .LVU822
 2795 0270 C6857602 		movb	$-8, 630(%rbp)
 2795      0000F8
 2796 0277 E959FFFF 		jmp	.L231
 2796      FF
 2797              	.LVL269:
 2798 027c 0F1F4000 		.p2align 4,,10
 2799              		.p2align 3
 2800              	.L212:
 813:fltk-1.3.4-1/png/pngwutil.c ****             png_error(png_ptr, "Invalid bit depth for grayscale+alpha image");
 2801              		.loc 1 813 10 is_stmt 1 view .LVU823
 813:fltk-1.3.4-1/png/pngwutil.c ****             png_error(png_ptr, "Invalid bit depth for grayscale+alpha image");
 2802              		.loc 1 813 24 is_stmt 0 view .LVU824
 2803 0280 8D43F8   		leal	-8(%rbx), %eax
 813:fltk-1.3.4-1/png/pngwutil.c ****             png_error(png_ptr, "Invalid bit depth for grayscale+alpha image");
 2804              		.loc 1 813 13 view .LVU825
 2805 0283 83E0F7   		andl	$-9, %eax
 2806 0286 7550     		jne	.L252
 816:fltk-1.3.4-1/png/pngwutil.c ****          break;
 2807              		.loc 1 816 10 is_stmt 1 view .LVU826
 816:fltk-1.3.4-1/png/pngwutil.c ****          break;
 2808              		.loc 1 816 28 is_stmt 0 view .LVU827
 2809 0288 C6877B02 		movb	$2, 635(%rdi)
 2809      000002
 817:fltk-1.3.4-1/png/pngwutil.c **** 
 2810              		.loc 1 817 10 is_stmt 1 view .LVU828
 2811 028f E910FEFF 		jmp	.L217
 2811      FF
 2812              		.p2align 4,,10
 2813 0294 0F1F4000 		.p2align 3
 2814              	.L214:
 788:fltk-1.3.4-1/png/pngwutil.c **** #else
 2815              		.loc 1 788 10 view .LVU829
 788:fltk-1.3.4-1/png/pngwutil.c **** #else
 2816              		.loc 1 788 24 is_stmt 0 view .LVU830
 2817 0298 8D43F8   		leal	-8(%rbx), %eax
 788:fltk-1.3.4-1/png/pngwutil.c **** #else
 2818              		.loc 1 788 13 view .LVU831
 2819 029b 83E0F7   		andl	$-9, %eax
 2820 029e 7550     		jne	.L253
 794:fltk-1.3.4-1/png/pngwutil.c ****          break;
 2821              		.loc 1 794 10 is_stmt 1 view .LVU832
 794:fltk-1.3.4-1/png/pngwutil.c ****          break;
 2822              		.loc 1 794 28 is_stmt 0 view .LVU833
 2823 02a0 C6877B02 		movb	$3, 635(%rdi)
 2823      000003
 795:fltk-1.3.4-1/png/pngwutil.c **** 
 2824              		.loc 1 795 10 is_stmt 1 view .LVU834
 2825 02a7 E9F8FDFF 		jmp	.L217
 2825      FF
 2826 02ac 0F1F4000 		.p2align 4,,10
 2827              		.p2align 3
 2828              	.L210:
 821:fltk-1.3.4-1/png/pngwutil.c **** #else
 2829              		.loc 1 821 10 view .LVU835
 821:fltk-1.3.4-1/png/pngwutil.c **** #else
 2830              		.loc 1 821 24 is_stmt 0 view .LVU836
 2831 02b0 8D43F8   		leal	-8(%rbx), %eax
 821:fltk-1.3.4-1/png/pngwutil.c **** #else
 2832              		.loc 1 821 13 view .LVU837
 2833 02b3 83E0F7   		andl	$-9, %eax
 2834 02b6 752C     		jne	.L254
 827:fltk-1.3.4-1/png/pngwutil.c ****          break;
 2835              		.loc 1 827 10 is_stmt 1 view .LVU838
 827:fltk-1.3.4-1/png/pngwutil.c ****          break;
 2836              		.loc 1 827 28 is_stmt 0 view .LVU839
 2837 02b8 C6877B02 		movb	$4, 635(%rdi)
 2837      000004
 828:fltk-1.3.4-1/png/pngwutil.c **** 
 2838              		.loc 1 828 10 is_stmt 1 view .LVU840
 2839 02bf E9E0FDFF 		jmp	.L217
 2839      FF
 2840              	.LVL270:
 2841              	.L209:
 831:fltk-1.3.4-1/png/pngwutil.c ****    }
 2842              		.loc 1 831 10 view .LVU841
 2843 02c4 488D3500 		leaq	.LC14(%rip), %rsi
 2843      000000
 2844              	.LVL271:
 831:fltk-1.3.4-1/png/pngwutil.c ****    }
 2845              		.loc 1 831 10 is_stmt 0 view .LVU842
 2846 02cb 4889EF   		movq	%rbp, %rdi
 2847              	.LVL272:
 831:fltk-1.3.4-1/png/pngwutil.c ****    }
 2848              		.loc 1 831 10 view .LVU843
 2849 02ce E8000000 		call	png_error@PLT
 2849      00
 2850              	.LVL273:
 2851              	.L251:
 2852              		.loc 1 915 1 view .LVU844
 2853 02d3 E8000000 		call	__stack_chk_fail@PLT
 2853      00
 2854              	.LVL274:
 2855              	.L252:
 814:fltk-1.3.4-1/png/pngwutil.c **** 
 2856              		.loc 1 814 13 is_stmt 1 view .LVU845
 2857 02d8 488D3500 		leaq	.LC12(%rip), %rsi
 2857      000000
 2858              	.LVL275:
 814:fltk-1.3.4-1/png/pngwutil.c **** 
 2859              		.loc 1 814 13 is_stmt 0 view .LVU846
 2860 02df E8000000 		call	png_error@PLT
 2860      00
 2861              	.LVL276:
 2862              	.L254:
 825:fltk-1.3.4-1/png/pngwutil.c **** 
 2863              		.loc 1 825 13 is_stmt 1 view .LVU847
 2864 02e4 488D3500 		leaq	.LC13(%rip), %rsi
 2864      000000
 2865              	.LVL277:
 825:fltk-1.3.4-1/png/pngwutil.c **** 
 2866              		.loc 1 825 13 is_stmt 0 view .LVU848
 2867 02eb E8000000 		call	png_error@PLT
 2867      00
 2868              	.LVL278:
 2869              	.L253:
 792:fltk-1.3.4-1/png/pngwutil.c **** 
 2870              		.loc 1 792 13 is_stmt 1 view .LVU849
 2871 02f0 488D3500 		leaq	.LC10(%rip), %rsi
 2871      000000
 2872              	.LVL279:
 792:fltk-1.3.4-1/png/pngwutil.c **** 
 2873              		.loc 1 792 13 is_stmt 0 view .LVU850
 2874 02f7 E8000000 		call	png_error@PLT
 2874      00
 2875              	.LVL280:
 792:fltk-1.3.4-1/png/pngwutil.c **** 
 2876              		.loc 1 792 13 view .LVU851
 2877              		.cfi_endproc
 2878              	.LFE58:
 2880              		.section	.rodata.png_write_PLTE.str1.8,"aMS",@progbits,1
 2881              		.align 8
 2882              	.LC18:
 2883 0000 496E7661 		.string	"Invalid number of colors in palette"
 2883      6C696420 
 2883      6E756D62 
 2883      6572206F 
 2883      6620636F 
 2884 0024 00000000 		.align 8
 2885              	.LC19:
 2886 0028 49676E6F 		.string	"Ignoring request to write a PLTE chunk in grayscale PNG"
 2886      72696E67 
 2886      20726571 
 2886      75657374 
 2886      20746F20 
 2887              		.section	.text.png_write_PLTE,"ax",@progbits
 2888              		.p2align 4
 2889              		.globl	png_write_PLTE
 2891              	png_write_PLTE:
 2892              	.LVL281:
 2893              	.LFB59:
 916:fltk-1.3.4-1/png/pngwutil.c **** 
 917:fltk-1.3.4-1/png/pngwutil.c **** /* Write the palette.  We are careful not to trust png_color to be in the
 918:fltk-1.3.4-1/png/pngwutil.c ****  * correct order for PNG, so people can redefine it to any convenient
 919:fltk-1.3.4-1/png/pngwutil.c ****  * structure.
 920:fltk-1.3.4-1/png/pngwutil.c ****  */
 921:fltk-1.3.4-1/png/pngwutil.c **** void /* PRIVATE */
 922:fltk-1.3.4-1/png/pngwutil.c **** png_write_PLTE(png_structrp png_ptr, png_const_colorp palette,
 923:fltk-1.3.4-1/png/pngwutil.c ****     png_uint_32 num_pal)
 924:fltk-1.3.4-1/png/pngwutil.c **** {
 2894              		.loc 1 924 1 is_stmt 1 view -0
 2895              		.cfi_startproc
 2896              		.loc 1 924 1 is_stmt 0 view .LVU853
 2897 0000 F30F1EFA 		endbr64
 2898 0004 4155     		pushq	%r13
 2899              		.cfi_def_cfa_offset 16
 2900              		.cfi_offset 13, -16
 2901 0006 4154     		pushq	%r12
 2902              		.cfi_def_cfa_offset 24
 2903              		.cfi_offset 12, -24
 2904 0008 4189D4   		movl	%edx, %r12d
 2905 000b 55       		pushq	%rbp
 2906              		.cfi_def_cfa_offset 32
 2907              		.cfi_offset 6, -32
 2908 000c 4889FD   		movq	%rdi, %rbp
 2909 000f 53       		pushq	%rbx
 2910              		.cfi_def_cfa_offset 40
 2911              		.cfi_offset 3, -40
 2912 0010 4883EC18 		subq	$24, %rsp
 2913              		.cfi_def_cfa_offset 64
 2914 0014 0FB69777 		movzbl	631(%rdi), %edx
 2914      020000
 2915              	.LVL282:
 2916              		.loc 1 924 1 view .LVU854
 2917 001b 64488B04 		movq	%fs:40, %rax
 2917      25280000 
 2917      00
 2918 0024 48894424 		movq	%rax, 8(%rsp)
 2918      08
 2919 0029 31C0     		xorl	%eax, %eax
 925:fltk-1.3.4-1/png/pngwutil.c ****    png_uint_32 i;
 2920              		.loc 1 925 4 is_stmt 1 view .LVU855
 926:fltk-1.3.4-1/png/pngwutil.c ****    png_const_colorp pal_ptr;
 2921              		.loc 1 926 4 view .LVU856
 927:fltk-1.3.4-1/png/pngwutil.c ****    png_byte buf[3];
 2922              		.loc 1 927 4 view .LVU857
 928:fltk-1.3.4-1/png/pngwutil.c **** 
 929:fltk-1.3.4-1/png/pngwutil.c ****    png_debug(1, "in png_write_PLTE");
 2923              		.loc 1 929 4 view .LVU858
 930:fltk-1.3.4-1/png/pngwutil.c **** 
 931:fltk-1.3.4-1/png/pngwutil.c ****    if ((
 2924              		.loc 1 931 4 view .LVU859
 932:fltk-1.3.4-1/png/pngwutil.c **** #ifdef PNG_MNG_FEATURES_SUPPORTED
 933:fltk-1.3.4-1/png/pngwutil.c ****        (png_ptr->mng_features_permitted & PNG_FLAG_MNG_EMPTY_PLTE) == 0 &&
 2925              		.loc 1 933 41 is_stmt 0 view .LVU860
 2926 002b 8B871804 		movl	1048(%rdi), %eax
 2926      0000
 2927 0031 83E001   		andl	$1, %eax
 934:fltk-1.3.4-1/png/pngwutil.c **** #endif
 935:fltk-1.3.4-1/png/pngwutil.c ****        num_pal == 0) || num_pal > 256)
 2928              		.loc 1 935 22 view .LVU861
 2929 0034 4409E0   		orl	%r12d, %eax
 2930 0037 7409     		je	.L266
 2931 0039 4181FC00 		cmpl	$256, %r12d
 2931      010000
 2932 0040 763E     		jbe	.L256
 2933              	.L266:
 936:fltk-1.3.4-1/png/pngwutil.c ****    {
 937:fltk-1.3.4-1/png/pngwutil.c ****       if (png_ptr->color_type == PNG_COLOR_TYPE_PALETTE)
 2934              		.loc 1 937 7 is_stmt 1 view .LVU862
 938:fltk-1.3.4-1/png/pngwutil.c ****       {
 939:fltk-1.3.4-1/png/pngwutil.c ****          png_error(png_ptr, "Invalid number of colors in palette");
 2935              		.loc 1 939 10 is_stmt 0 view .LVU863
 2936 0042 488D3500 		leaq	.LC18(%rip), %rsi
 2936      000000
 2937              	.LVL283:
 2938              		.loc 1 939 10 view .LVU864
 2939 0049 4889EF   		movq	%rbp, %rdi
 2940              	.LVL284:
 937:fltk-1.3.4-1/png/pngwutil.c ****       {
 2941              		.loc 1 937 10 view .LVU865
 2942 004c 80FA03   		cmpb	$3, %dl
 2943 004f 0F84BC00 		je	.L270
 2943      0000
 2944              	.LVL285:
 2945              	.L269:
 940:fltk-1.3.4-1/png/pngwutil.c ****       }
 941:fltk-1.3.4-1/png/pngwutil.c **** 
 942:fltk-1.3.4-1/png/pngwutil.c ****       else
 943:fltk-1.3.4-1/png/pngwutil.c ****       {
 944:fltk-1.3.4-1/png/pngwutil.c ****          png_warning(png_ptr, "Invalid number of colors in palette");
 945:fltk-1.3.4-1/png/pngwutil.c ****          return;
 946:fltk-1.3.4-1/png/pngwutil.c ****       }
 947:fltk-1.3.4-1/png/pngwutil.c ****    }
 948:fltk-1.3.4-1/png/pngwutil.c **** 
 949:fltk-1.3.4-1/png/pngwutil.c ****    if ((png_ptr->color_type & PNG_COLOR_MASK_COLOR) == 0)
 950:fltk-1.3.4-1/png/pngwutil.c ****    {
 951:fltk-1.3.4-1/png/pngwutil.c ****       png_warning(png_ptr,
 2946              		.loc 1 951 7 view .LVU866
 2947 0055 E8000000 		call	png_warning@PLT
 2947      00
 2948              	.LVL286:
 952:fltk-1.3.4-1/png/pngwutil.c ****           "Ignoring request to write a PLTE chunk in grayscale PNG");
 953:fltk-1.3.4-1/png/pngwutil.c **** 
 954:fltk-1.3.4-1/png/pngwutil.c ****       return;
 2949              		.loc 1 954 7 is_stmt 1 view .LVU867
 2950              	.L255:
 955:fltk-1.3.4-1/png/pngwutil.c ****    }
 956:fltk-1.3.4-1/png/pngwutil.c **** 
 957:fltk-1.3.4-1/png/pngwutil.c ****    png_ptr->num_palette = (png_uint_16)num_pal;
 958:fltk-1.3.4-1/png/pngwutil.c ****    png_debug1(3, "num_palette = %d", png_ptr->num_palette);
 959:fltk-1.3.4-1/png/pngwutil.c **** 
 960:fltk-1.3.4-1/png/pngwutil.c ****    png_write_chunk_header(png_ptr, png_PLTE, (png_uint_32)(num_pal * 3));
 961:fltk-1.3.4-1/png/pngwutil.c **** #ifdef PNG_POINTER_INDEXING_SUPPORTED
 962:fltk-1.3.4-1/png/pngwutil.c **** 
 963:fltk-1.3.4-1/png/pngwutil.c ****    for (i = 0, pal_ptr = palette; i < num_pal; i++, pal_ptr++)
 964:fltk-1.3.4-1/png/pngwutil.c ****    {
 965:fltk-1.3.4-1/png/pngwutil.c ****       buf[0] = pal_ptr->red;
 966:fltk-1.3.4-1/png/pngwutil.c ****       buf[1] = pal_ptr->green;
 967:fltk-1.3.4-1/png/pngwutil.c ****       buf[2] = pal_ptr->blue;
 968:fltk-1.3.4-1/png/pngwutil.c ****       png_write_chunk_data(png_ptr, buf, (png_size_t)3);
 969:fltk-1.3.4-1/png/pngwutil.c ****    }
 970:fltk-1.3.4-1/png/pngwutil.c **** 
 971:fltk-1.3.4-1/png/pngwutil.c **** #else
 972:fltk-1.3.4-1/png/pngwutil.c ****    /* This is a little slower but some buggy compilers need to do this
 973:fltk-1.3.4-1/png/pngwutil.c ****     * instead
 974:fltk-1.3.4-1/png/pngwutil.c ****     */
 975:fltk-1.3.4-1/png/pngwutil.c ****    pal_ptr=palette;
 976:fltk-1.3.4-1/png/pngwutil.c **** 
 977:fltk-1.3.4-1/png/pngwutil.c ****    for (i = 0; i < num_pal; i++)
 978:fltk-1.3.4-1/png/pngwutil.c ****    {
 979:fltk-1.3.4-1/png/pngwutil.c ****       buf[0] = pal_ptr[i].red;
 980:fltk-1.3.4-1/png/pngwutil.c ****       buf[1] = pal_ptr[i].green;
 981:fltk-1.3.4-1/png/pngwutil.c ****       buf[2] = pal_ptr[i].blue;
 982:fltk-1.3.4-1/png/pngwutil.c ****       png_write_chunk_data(png_ptr, buf, (png_size_t)3);
 983:fltk-1.3.4-1/png/pngwutil.c ****    }
 984:fltk-1.3.4-1/png/pngwutil.c **** 
 985:fltk-1.3.4-1/png/pngwutil.c **** #endif
 986:fltk-1.3.4-1/png/pngwutil.c ****    png_write_chunk_end(png_ptr);
 987:fltk-1.3.4-1/png/pngwutil.c ****    png_ptr->mode |= PNG_HAVE_PLTE;
 988:fltk-1.3.4-1/png/pngwutil.c **** }
 2951              		.loc 1 988 1 is_stmt 0 view .LVU868
 2952 005a 488B4424 		movq	8(%rsp), %rax
 2952      08
 2953 005f 64483304 		xorq	%fs:40, %rax
 2953      25280000 
 2953      00
 2954 0068 0F859E00 		jne	.L271
 2954      0000
 2955 006e 4883C418 		addq	$24, %rsp
 2956              		.cfi_remember_state
 2957              		.cfi_def_cfa_offset 40
 2958 0072 5B       		popq	%rbx
 2959              		.cfi_def_cfa_offset 32
 2960 0073 5D       		popq	%rbp
 2961              		.cfi_def_cfa_offset 24
 2962              	.LVL287:
 2963              		.loc 1 988 1 view .LVU869
 2964 0074 415C     		popq	%r12
 2965              		.cfi_def_cfa_offset 16
 2966 0076 415D     		popq	%r13
 2967              		.cfi_def_cfa_offset 8
 2968 0078 C3       		ret
 2969              	.LVL288:
 2970 0079 0F1F8000 		.p2align 4,,10
 2970      000000
 2971              		.p2align 3
 2972              	.L256:
 2973              		.cfi_restore_state
 949:fltk-1.3.4-1/png/pngwutil.c ****    {
 2974              		.loc 1 949 4 is_stmt 1 view .LVU870
 949:fltk-1.3.4-1/png/pngwutil.c ****    {
 2975              		.loc 1 949 7 is_stmt 0 view .LVU871
 2976 0080 83E202   		andl	$2, %edx
 2977 0083 747B     		je	.L272
 957:fltk-1.3.4-1/png/pngwutil.c ****    png_debug1(3, "num_palette = %d", png_ptr->num_palette);
 2978              		.loc 1 957 27 view .LVU872
 2979 0085 664489A7 		movw	%r12w, 616(%rdi)
 2979      68020000 
 2980 008d 4889F3   		movq	%rsi, %rbx
 957:fltk-1.3.4-1/png/pngwutil.c ****    png_debug1(3, "num_palette = %d", png_ptr->num_palette);
 2981              		.loc 1 957 4 is_stmt 1 view .LVU873
 958:fltk-1.3.4-1/png/pngwutil.c **** 
 2982              		.loc 1 958 4 view .LVU874
 960:fltk-1.3.4-1/png/pngwutil.c **** #ifdef PNG_POINTER_INDEXING_SUPPORTED
 2983              		.loc 1 960 4 view .LVU875
 2984              	.LVL289:
 2985              	.LBB289:
 2986              	.LBI289:
  73:fltk-1.3.4-1/png/pngwutil.c ****     png_uint_32 length)
 2987              		.loc 1 73 1 view .LVU876
 2988              	.LBB290:
  76:fltk-1.3.4-1/png/pngwutil.c **** 
 2989              		.loc 1 76 4 view .LVU877
  83:fltk-1.3.4-1/png/pngwutil.c ****       return;
 2990              		.loc 1 83 4 view .LVU878
 2991              	.LBE290:
 2992              	.LBE289:
 960:fltk-1.3.4-1/png/pngwutil.c **** #ifdef PNG_POINTER_INDEXING_SUPPORTED
 2993              		.loc 1 960 68 is_stmt 0 view .LVU879
 2994 0090 438D1464 		leal	(%r12,%r12,2), %edx
 2995              	.LBB292:
 2996              	.LBB291:
 2997 0094 BE45544C 		movl	$1347179589, %esi
 2997      50
 2998              	.LVL290:
 960:fltk-1.3.4-1/png/pngwutil.c **** #ifdef PNG_POINTER_INDEXING_SUPPORTED
 2999              		.loc 1 960 68 view .LVU880
 3000 0099 E8000000 		call	png_write_chunk_header.part.0
 3000      00
 3001              	.LVL291:
 960:fltk-1.3.4-1/png/pngwutil.c **** #ifdef PNG_POINTER_INDEXING_SUPPORTED
 3002              		.loc 1 960 68 view .LVU881
 3003              	.LBE291:
 3004              	.LBE292:
 963:fltk-1.3.4-1/png/pngwutil.c ****    {
 3005              		.loc 1 963 4 is_stmt 1 view .LVU882
 963:fltk-1.3.4-1/png/pngwutil.c ****    {
 3006              		.loc 1 963 35 view .LVU883
 963:fltk-1.3.4-1/png/pngwutil.c ****    {
 3007              		.loc 1 963 4 is_stmt 0 view .LVU884
 3008 009e 4585E4   		testl	%r12d, %r12d
 3009 00a1 7445     		je	.L264
 963:fltk-1.3.4-1/png/pngwutil.c ****    {
 3010              		.loc 1 963 4 view .LVU885
 3011 00a3 418D4424 		leal	-1(%r12), %eax
 3011      FF
 3012 00a8 4C8D6C24 		leaq	5(%rsp), %r13
 3012      05
 3013 00ad 4C8D6440 		leaq	3(%rax,%rax,2), %r12
 3013      03
 3014              	.LVL292:
 963:fltk-1.3.4-1/png/pngwutil.c ****    {
 3015              		.loc 1 963 4 view .LVU886
 3016 00b2 4901DC   		addq	%rbx, %r12
 3017              	.LVL293:
 3018              		.p2align 4,,10
 3019 00b5 0F1F00   		.p2align 3
 3020              	.L263:
 965:fltk-1.3.4-1/png/pngwutil.c ****       buf[1] = pal_ptr->green;
 3021              		.loc 1 965 7 is_stmt 1 discriminator 3 view .LVU887
 965:fltk-1.3.4-1/png/pngwutil.c ****       buf[1] = pal_ptr->green;
 3022              		.loc 1 965 14 is_stmt 0 discriminator 3 view .LVU888
 3023 00b8 0FB603   		movzbl	(%rbx), %eax
 3024              	.LBB293:
 3025              	.LBB294:
 3026 00bb BA030000 		movl	$3, %edx
 3026      00
 3027 00c0 4C89EE   		movq	%r13, %rsi
 3028 00c3 4889EF   		movq	%rbp, %rdi
 3029              	.LBE294:
 3030              	.LBE293:
 963:fltk-1.3.4-1/png/pngwutil.c ****    {
 3031              		.loc 1 963 60 discriminator 3 view .LVU889
 3032 00c6 4883C303 		addq	$3, %rbx
 3033              	.LVL294:
 965:fltk-1.3.4-1/png/pngwutil.c ****       buf[1] = pal_ptr->green;
 3034              		.loc 1 965 14 discriminator 3 view .LVU890
 3035 00ca 88442405 		movb	%al, 5(%rsp)
 966:fltk-1.3.4-1/png/pngwutil.c ****       buf[2] = pal_ptr->blue;
 3036              		.loc 1 966 7 is_stmt 1 discriminator 3 view .LVU891
 966:fltk-1.3.4-1/png/pngwutil.c ****       buf[2] = pal_ptr->blue;
 3037              		.loc 1 966 14 is_stmt 0 discriminator 3 view .LVU892
 3038 00ce 0FB643FE 		movzbl	-2(%rbx), %eax
 3039 00d2 88442406 		movb	%al, 6(%rsp)
 967:fltk-1.3.4-1/png/pngwutil.c ****       png_write_chunk_data(png_ptr, buf, (png_size_t)3);
 3040              		.loc 1 967 7 is_stmt 1 discriminator 3 view .LVU893
 967:fltk-1.3.4-1/png/pngwutil.c ****       png_write_chunk_data(png_ptr, buf, (png_size_t)3);
 3041              		.loc 1 967 14 is_stmt 0 discriminator 3 view .LVU894
 3042 00d6 0FB643FF 		movzbl	-1(%rbx), %eax
 3043 00da 88442407 		movb	%al, 7(%rsp)
 968:fltk-1.3.4-1/png/pngwutil.c ****    }
 3044              		.loc 1 968 7 is_stmt 1 discriminator 3 view .LVU895
 3045              	.LVL295:
 3046              	.LBB296:
 3047              	.LBI293:
 127:fltk-1.3.4-1/png/pngwutil.c ****     png_size_t length)
 3048              		.loc 1 127 1 discriminator 3 view .LVU896
 3049              	.LBB295:
 131:fltk-1.3.4-1/png/pngwutil.c ****       return;
 3050              		.loc 1 131 4 discriminator 3 view .LVU897
 134:fltk-1.3.4-1/png/pngwutil.c ****    {
 3051              		.loc 1 134 4 discriminator 3 view .LVU898
 3052 00de E8000000 		call	png_write_chunk_data.part.0
 3052      00
 3053              	.LVL296:
 134:fltk-1.3.4-1/png/pngwutil.c ****    {
 3054              		.loc 1 134 4 is_stmt 0 discriminator 3 view .LVU899
 3055              	.LBE295:
 3056              	.LBE296:
 963:fltk-1.3.4-1/png/pngwutil.c ****    {
 3057              		.loc 1 963 48 is_stmt 1 discriminator 3 view .LVU900
 963:fltk-1.3.4-1/png/pngwutil.c ****    {
 3058              		.loc 1 963 35 discriminator 3 view .LVU901
 963:fltk-1.3.4-1/png/pngwutil.c ****    {
 3059              		.loc 1 963 4 is_stmt 0 discriminator 3 view .LVU902
 3060 00e3 4C39E3   		cmpq	%r12, %rbx
 3061 00e6 75D0     		jne	.L263
 3062              	.L264:
 986:fltk-1.3.4-1/png/pngwutil.c ****    png_ptr->mode |= PNG_HAVE_PLTE;
 3063              		.loc 1 986 4 is_stmt 1 view .LVU903
 3064              	.LVL297:
 3065              	.LBB297:
 3066              	.LBI297:
 147:fltk-1.3.4-1/png/pngwutil.c **** {
 3067              		.loc 1 147 1 view .LVU904
 3068              	.LBB298:
 149:fltk-1.3.4-1/png/pngwutil.c **** 
 3069              		.loc 1 149 4 view .LVU905
 151:fltk-1.3.4-1/png/pngwutil.c **** 
 3070              		.loc 1 151 4 view .LVU906
 3071 00e8 4889EF   		movq	%rbp, %rdi
 3072 00eb E8000000 		call	png_write_chunk_end.part.0
 3072      00
 3073              	.LVL298:
 151:fltk-1.3.4-1/png/pngwutil.c **** 
 3074              		.loc 1 151 4 is_stmt 0 view .LVU907
 3075              	.LBE298:
 3076              	.LBE297:
 987:fltk-1.3.4-1/png/pngwutil.c **** }
 3077              		.loc 1 987 4 is_stmt 1 view .LVU908
 987:fltk-1.3.4-1/png/pngwutil.c **** }
 3078              		.loc 1 987 18 is_stmt 0 view .LVU909
 3079 00f0 838D2C01 		orl	$2, 300(%rbp)
 3079      000002
 3080 00f7 E95EFFFF 		jmp	.L255
 3080      FF
 3081              	.LVL299:
 3082 00fc 0F1F4000 		.p2align 4,,10
 3083              		.p2align 3
 3084              	.L272:
 951:fltk-1.3.4-1/png/pngwutil.c ****           "Ignoring request to write a PLTE chunk in grayscale PNG");
 3085              		.loc 1 951 7 is_stmt 1 view .LVU910
 3086 0100 488D3500 		leaq	.LC19(%rip), %rsi
 3086      000000
 3087              	.LVL300:
 951:fltk-1.3.4-1/png/pngwutil.c ****           "Ignoring request to write a PLTE chunk in grayscale PNG");
 3088              		.loc 1 951 7 is_stmt 0 view .LVU911
 3089 0107 E949FFFF 		jmp	.L269
 3089      FF
 3090              	.LVL301:
 3091              	.L271:
 3092              		.loc 1 988 1 view .LVU912
 3093 010c E8000000 		call	__stack_chk_fail@PLT
 3093      00
 3094              	.LVL302:
 3095              	.L270:
 939:fltk-1.3.4-1/png/pngwutil.c ****       }
 3096              		.loc 1 939 10 is_stmt 1 view .LVU913
 3097 0111 E8000000 		call	png_error@PLT
 3097      00
 3098              	.LVL303:
 939:fltk-1.3.4-1/png/pngwutil.c ****       }
 3099              		.loc 1 939 10 is_stmt 0 view .LVU914
 3100              		.cfi_endproc
 3101              	.LFE59:
 3103              		.section	.rodata.png_compress_IDAT.str1.8,"aMS",@progbits,1
 3104              		.align 8
 3105              	.LC20:
 3106 0000 5A5F4F4B 		.string	"Z_OK on Z_FINISH with output space"
 3106      206F6E20 
 3106      5A5F4649 
 3106      4E495348 
 3106      20776974 
 3107              		.section	.text.png_compress_IDAT,"ax",@progbits
 3108              		.p2align 4
 3109              		.globl	png_compress_IDAT
 3111              	png_compress_IDAT:
 3112              	.LVL304:
 3113              	.LFB60:
 989:fltk-1.3.4-1/png/pngwutil.c **** 
 990:fltk-1.3.4-1/png/pngwutil.c **** /* This is similar to png_text_compress, above, except that it does not require
 991:fltk-1.3.4-1/png/pngwutil.c ****  * all of the data at once and, instead of buffering the compressed result,
 992:fltk-1.3.4-1/png/pngwutil.c ****  * writes it as IDAT chunks.  Unlike png_text_compress it *can* png_error out
 993:fltk-1.3.4-1/png/pngwutil.c ****  * because it calls the write interface.  As a result it does its own error
 994:fltk-1.3.4-1/png/pngwutil.c ****  * reporting and does not return an error code.  In the event of error it will
 995:fltk-1.3.4-1/png/pngwutil.c ****  * just call png_error.  The input data length may exceed 32-bits.  The 'flush'
 996:fltk-1.3.4-1/png/pngwutil.c ****  * parameter is exactly the same as that to deflate, with the following
 997:fltk-1.3.4-1/png/pngwutil.c ****  * meanings:
 998:fltk-1.3.4-1/png/pngwutil.c ****  *
 999:fltk-1.3.4-1/png/pngwutil.c ****  * Z_NO_FLUSH: normal incremental output of compressed data
1000:fltk-1.3.4-1/png/pngwutil.c ****  * Z_SYNC_FLUSH: do a SYNC_FLUSH, used by png_write_flush
1001:fltk-1.3.4-1/png/pngwutil.c ****  * Z_FINISH: this is the end of the input, do a Z_FINISH and clean up
1002:fltk-1.3.4-1/png/pngwutil.c ****  *
1003:fltk-1.3.4-1/png/pngwutil.c ****  * The routine manages the acquire and release of the png_ptr->zstream by
1004:fltk-1.3.4-1/png/pngwutil.c ****  * checking and (at the end) clearing png_ptr->zowner; it does some sanity
1005:fltk-1.3.4-1/png/pngwutil.c ****  * checks on the 'mode' flags while doing this.
1006:fltk-1.3.4-1/png/pngwutil.c ****  */
1007:fltk-1.3.4-1/png/pngwutil.c **** void /* PRIVATE */
1008:fltk-1.3.4-1/png/pngwutil.c **** png_compress_IDAT(png_structrp png_ptr, png_const_bytep input,
1009:fltk-1.3.4-1/png/pngwutil.c ****    png_alloc_size_t input_len, int flush)
1010:fltk-1.3.4-1/png/pngwutil.c **** {
 3114              		.loc 1 1010 1 is_stmt 1 view -0
 3115              		.cfi_startproc
 3116              		.loc 1 1010 1 is_stmt 0 view .LVU916
 3117 0000 F30F1EFA 		endbr64
1011:fltk-1.3.4-1/png/pngwutil.c ****    if (png_ptr->zowner != png_IDAT)
 3118              		.loc 1 1011 4 is_stmt 1 view .LVU917
1010:fltk-1.3.4-1/png/pngwutil.c ****    if (png_ptr->zowner != png_IDAT)
 3119              		.loc 1 1010 1 is_stmt 0 view .LVU918
 3120 0004 4157     		pushq	%r15
 3121              		.cfi_def_cfa_offset 16
 3122              		.cfi_offset 15, -16
 3123 0006 4156     		pushq	%r14
 3124              		.cfi_def_cfa_offset 24
 3125              		.cfi_offset 14, -24
 3126 0008 4989F6   		movq	%rsi, %r14
 3127 000b 4155     		pushq	%r13
 3128              		.cfi_def_cfa_offset 32
 3129              		.cfi_offset 13, -32
 3130 000d 4154     		pushq	%r12
 3131              		.cfi_def_cfa_offset 40
 3132              		.cfi_offset 12, -40
 3133 000f 55       		pushq	%rbp
 3134              		.cfi_def_cfa_offset 48
 3135              		.cfi_offset 6, -48
 3136 0010 4889FD   		movq	%rdi, %rbp
 3137 0013 53       		pushq	%rbx
 3138              		.cfi_def_cfa_offset 56
 3139              		.cfi_offset 3, -56
 3140 0014 4889D3   		movq	%rdx, %rbx
 3141 0017 4883EC18 		subq	$24, %rsp
 3142              		.cfi_def_cfa_offset 80
 3143              		.loc 1 1011 7 view .LVU919
 3144 001b 81BF3801 		cmpl	$1229209940, 312(%rdi)
 3144      00005441 
 3144      4449
1010:fltk-1.3.4-1/png/pngwutil.c ****    if (png_ptr->zowner != png_IDAT)
 3145              		.loc 1 1010 1 view .LVU920
 3146 0025 894C240C 		movl	%ecx, 12(%rsp)
 3147              		.loc 1 1011 7 view .LVU921
 3148 0029 7477     		je	.L274
1012:fltk-1.3.4-1/png/pngwutil.c ****    {
1013:fltk-1.3.4-1/png/pngwutil.c ****       /* First time.   Ensure we have a temporary buffer for compression and
1014:fltk-1.3.4-1/png/pngwutil.c ****        * trim the buffer list if it has more than one entry to free memory.
1015:fltk-1.3.4-1/png/pngwutil.c ****        * If 'WRITE_COMPRESSED_TEXT' is not set the list will never have been
1016:fltk-1.3.4-1/png/pngwutil.c ****        * created at this point, but the check here is quick and safe.
1017:fltk-1.3.4-1/png/pngwutil.c ****        */
1018:fltk-1.3.4-1/png/pngwutil.c ****       if (png_ptr->zbuffer_list == NULL)
 3149              		.loc 1 1018 7 is_stmt 1 view .LVU922
 3150              		.loc 1 1018 18 is_stmt 0 view .LVU923
 3151 002b 488B87B0 		movq	432(%rdi), %rax
 3151      010000
 3152              		.loc 1 1018 10 view .LVU924
 3153 0032 4885C0   		testq	%rax, %rax
 3154 0035 0F844502 		je	.L308
 3154      0000
1019:fltk-1.3.4-1/png/pngwutil.c ****       {
1020:fltk-1.3.4-1/png/pngwutil.c ****          png_ptr->zbuffer_list = png_voidcast(png_compression_bufferp,
1021:fltk-1.3.4-1/png/pngwutil.c ****             png_malloc(png_ptr, PNG_COMPRESSION_BUFFER_SIZE(png_ptr)));
1022:fltk-1.3.4-1/png/pngwutil.c ****          png_ptr->zbuffer_list->next = NULL;
1023:fltk-1.3.4-1/png/pngwutil.c ****       }
1024:fltk-1.3.4-1/png/pngwutil.c **** 
1025:fltk-1.3.4-1/png/pngwutil.c ****       else
1026:fltk-1.3.4-1/png/pngwutil.c ****          png_free_buffer_list(png_ptr, &png_ptr->zbuffer_list->next);
 3155              		.loc 1 1026 10 is_stmt 1 view .LVU925
 3156              	.LVL305:
 3157              	.LBB299:
 3158              	.LBI299:
 440:fltk-1.3.4-1/png/pngwutil.c **** {
 3159              		.loc 1 440 1 view .LVU926
 3160              	.LBB300:
 442:fltk-1.3.4-1/png/pngwutil.c **** 
 3161              		.loc 1 442 4 view .LVU927
 442:fltk-1.3.4-1/png/pngwutil.c **** 
 3162              		.loc 1 442 28 is_stmt 0 view .LVU928
 3163 003b 4C8B28   		movq	(%rax), %r13
 3164              	.LVL306:
 444:fltk-1.3.4-1/png/pngwutil.c ****    {
 3165              		.loc 1 444 4 is_stmt 1 view .LVU929
 444:fltk-1.3.4-1/png/pngwutil.c ****    {
 3166              		.loc 1 444 7 is_stmt 0 view .LVU930
 3167 003e 4D85ED   		testq	%r13, %r13
 3168 0041 7421     		je	.L276
 446:fltk-1.3.4-1/png/pngwutil.c **** 
 3169              		.loc 1 446 7 is_stmt 1 view .LVU931
 446:fltk-1.3.4-1/png/pngwutil.c **** 
 3170              		.loc 1 446 14 is_stmt 0 view .LVU932
 3171 0043 48C70000 		movq	$0, (%rax)
 3171      000000
 3172              	.LVL307:
