   1              		.file	"jchuff.c"
   2              		.text
   3              	.Ltext0:
   4              		.section	.text.dump_buffer_e,"ax",@progbits
   5              		.p2align 4
   7              	dump_buffer_e:
   8              	.LVL0:
   9              	.LFB53:
  10              		.file 1 "fltk-1.3.4-1/jpeg/jchuff.c"
   1:fltk-1.3.4-1/jpeg/jchuff.c **** /*
   2:fltk-1.3.4-1/jpeg/jchuff.c ****  * jchuff.c
   3:fltk-1.3.4-1/jpeg/jchuff.c ****  *
   4:fltk-1.3.4-1/jpeg/jchuff.c ****  * Copyright (C) 1991-1997, Thomas G. Lane.
   5:fltk-1.3.4-1/jpeg/jchuff.c ****  * Modified 2006-2013 by Guido Vollbeding.
   6:fltk-1.3.4-1/jpeg/jchuff.c ****  * This file is part of the Independent JPEG Group's software.
   7:fltk-1.3.4-1/jpeg/jchuff.c ****  * For conditions of distribution and use, see the accompanying README file.
   8:fltk-1.3.4-1/jpeg/jchuff.c ****  *
   9:fltk-1.3.4-1/jpeg/jchuff.c ****  * This file contains Huffman entropy encoding routines.
  10:fltk-1.3.4-1/jpeg/jchuff.c ****  * Both sequential and progressive modes are supported in this single module.
  11:fltk-1.3.4-1/jpeg/jchuff.c ****  *
  12:fltk-1.3.4-1/jpeg/jchuff.c ****  * Much of the complexity here has to do with supporting output suspension.
  13:fltk-1.3.4-1/jpeg/jchuff.c ****  * If the data destination module demands suspension, we want to be able to
  14:fltk-1.3.4-1/jpeg/jchuff.c ****  * back up to the start of the current MCU.  To do this, we copy state
  15:fltk-1.3.4-1/jpeg/jchuff.c ****  * variables into local working storage, and update them back to the
  16:fltk-1.3.4-1/jpeg/jchuff.c ****  * permanent JPEG objects only upon successful completion of an MCU.
  17:fltk-1.3.4-1/jpeg/jchuff.c ****  *
  18:fltk-1.3.4-1/jpeg/jchuff.c ****  * We do not support output suspension for the progressive JPEG mode, since
  19:fltk-1.3.4-1/jpeg/jchuff.c ****  * the library currently does not allow multiple-scan files to be written
  20:fltk-1.3.4-1/jpeg/jchuff.c ****  * with output suspension.
  21:fltk-1.3.4-1/jpeg/jchuff.c ****  */
  22:fltk-1.3.4-1/jpeg/jchuff.c **** 
  23:fltk-1.3.4-1/jpeg/jchuff.c **** #define JPEG_INTERNALS
  24:fltk-1.3.4-1/jpeg/jchuff.c **** #include "jinclude.h"
  25:fltk-1.3.4-1/jpeg/jchuff.c **** #include "jpeglib.h"
  26:fltk-1.3.4-1/jpeg/jchuff.c **** 
  27:fltk-1.3.4-1/jpeg/jchuff.c **** 
  28:fltk-1.3.4-1/jpeg/jchuff.c **** /* The legal range of a DCT coefficient is
  29:fltk-1.3.4-1/jpeg/jchuff.c ****  *  -1024 .. +1023  for 8-bit data;
  30:fltk-1.3.4-1/jpeg/jchuff.c ****  * -16384 .. +16383 for 12-bit data.
  31:fltk-1.3.4-1/jpeg/jchuff.c ****  * Hence the magnitude should always fit in 10 or 14 bits respectively.
  32:fltk-1.3.4-1/jpeg/jchuff.c ****  */
  33:fltk-1.3.4-1/jpeg/jchuff.c **** 
  34:fltk-1.3.4-1/jpeg/jchuff.c **** #if BITS_IN_JSAMPLE == 8
  35:fltk-1.3.4-1/jpeg/jchuff.c **** #define MAX_COEF_BITS 10
  36:fltk-1.3.4-1/jpeg/jchuff.c **** #else
  37:fltk-1.3.4-1/jpeg/jchuff.c **** #define MAX_COEF_BITS 14
  38:fltk-1.3.4-1/jpeg/jchuff.c **** #endif
  39:fltk-1.3.4-1/jpeg/jchuff.c **** 
  40:fltk-1.3.4-1/jpeg/jchuff.c **** /* Derived data constructed for each Huffman table */
  41:fltk-1.3.4-1/jpeg/jchuff.c **** 
  42:fltk-1.3.4-1/jpeg/jchuff.c **** typedef struct {
  43:fltk-1.3.4-1/jpeg/jchuff.c ****   unsigned int ehufco[256];	/* code for each symbol */
  44:fltk-1.3.4-1/jpeg/jchuff.c ****   char ehufsi[256];		/* length of code for each symbol */
  45:fltk-1.3.4-1/jpeg/jchuff.c ****   /* If no code has been allocated for a symbol S, ehufsi[S] contains 0 */
  46:fltk-1.3.4-1/jpeg/jchuff.c **** } c_derived_tbl;
  47:fltk-1.3.4-1/jpeg/jchuff.c **** 
  48:fltk-1.3.4-1/jpeg/jchuff.c **** 
  49:fltk-1.3.4-1/jpeg/jchuff.c **** /* Expanded entropy encoder object for Huffman encoding.
  50:fltk-1.3.4-1/jpeg/jchuff.c ****  *
  51:fltk-1.3.4-1/jpeg/jchuff.c ****  * The savable_state subrecord contains fields that change within an MCU,
  52:fltk-1.3.4-1/jpeg/jchuff.c ****  * but must not be updated permanently until we complete the MCU.
  53:fltk-1.3.4-1/jpeg/jchuff.c ****  */
  54:fltk-1.3.4-1/jpeg/jchuff.c **** 
  55:fltk-1.3.4-1/jpeg/jchuff.c **** typedef struct {
  56:fltk-1.3.4-1/jpeg/jchuff.c ****   INT32 put_buffer;		/* current bit-accumulation buffer */
  57:fltk-1.3.4-1/jpeg/jchuff.c ****   int put_bits;			/* # of bits now in it */
  58:fltk-1.3.4-1/jpeg/jchuff.c ****   int last_dc_val[MAX_COMPS_IN_SCAN]; /* last DC coef for each component */
  59:fltk-1.3.4-1/jpeg/jchuff.c **** } savable_state;
  60:fltk-1.3.4-1/jpeg/jchuff.c **** 
  61:fltk-1.3.4-1/jpeg/jchuff.c **** /* This macro is to work around compilers with missing or broken
  62:fltk-1.3.4-1/jpeg/jchuff.c ****  * structure assignment.  You'll need to fix this code if you have
  63:fltk-1.3.4-1/jpeg/jchuff.c ****  * such a compiler and you change MAX_COMPS_IN_SCAN.
  64:fltk-1.3.4-1/jpeg/jchuff.c ****  */
  65:fltk-1.3.4-1/jpeg/jchuff.c **** 
  66:fltk-1.3.4-1/jpeg/jchuff.c **** #ifndef NO_STRUCT_ASSIGN
  67:fltk-1.3.4-1/jpeg/jchuff.c **** #define ASSIGN_STATE(dest,src)  ((dest) = (src))
  68:fltk-1.3.4-1/jpeg/jchuff.c **** #else
  69:fltk-1.3.4-1/jpeg/jchuff.c **** #if MAX_COMPS_IN_SCAN == 4
  70:fltk-1.3.4-1/jpeg/jchuff.c **** #define ASSIGN_STATE(dest,src)  \
  71:fltk-1.3.4-1/jpeg/jchuff.c **** 	((dest).put_buffer = (src).put_buffer, \
  72:fltk-1.3.4-1/jpeg/jchuff.c **** 	 (dest).put_bits = (src).put_bits, \
  73:fltk-1.3.4-1/jpeg/jchuff.c **** 	 (dest).last_dc_val[0] = (src).last_dc_val[0], \
  74:fltk-1.3.4-1/jpeg/jchuff.c **** 	 (dest).last_dc_val[1] = (src).last_dc_val[1], \
  75:fltk-1.3.4-1/jpeg/jchuff.c **** 	 (dest).last_dc_val[2] = (src).last_dc_val[2], \
  76:fltk-1.3.4-1/jpeg/jchuff.c **** 	 (dest).last_dc_val[3] = (src).last_dc_val[3])
  77:fltk-1.3.4-1/jpeg/jchuff.c **** #endif
  78:fltk-1.3.4-1/jpeg/jchuff.c **** #endif
  79:fltk-1.3.4-1/jpeg/jchuff.c **** 
  80:fltk-1.3.4-1/jpeg/jchuff.c **** 
  81:fltk-1.3.4-1/jpeg/jchuff.c **** typedef struct {
  82:fltk-1.3.4-1/jpeg/jchuff.c ****   struct jpeg_entropy_encoder pub; /* public fields */
  83:fltk-1.3.4-1/jpeg/jchuff.c **** 
  84:fltk-1.3.4-1/jpeg/jchuff.c ****   savable_state saved;		/* Bit buffer & DC state at start of MCU */
  85:fltk-1.3.4-1/jpeg/jchuff.c **** 
  86:fltk-1.3.4-1/jpeg/jchuff.c ****   /* These fields are NOT loaded into local working state. */
  87:fltk-1.3.4-1/jpeg/jchuff.c ****   unsigned int restarts_to_go;	/* MCUs left in this restart interval */
  88:fltk-1.3.4-1/jpeg/jchuff.c ****   int next_restart_num;		/* next restart number to write (0-7) */
  89:fltk-1.3.4-1/jpeg/jchuff.c **** 
  90:fltk-1.3.4-1/jpeg/jchuff.c ****   /* Pointers to derived tables (these workspaces have image lifespan) */
  91:fltk-1.3.4-1/jpeg/jchuff.c ****   c_derived_tbl * dc_derived_tbls[NUM_HUFF_TBLS];
  92:fltk-1.3.4-1/jpeg/jchuff.c ****   c_derived_tbl * ac_derived_tbls[NUM_HUFF_TBLS];
  93:fltk-1.3.4-1/jpeg/jchuff.c **** 
  94:fltk-1.3.4-1/jpeg/jchuff.c ****   /* Statistics tables for optimization */
  95:fltk-1.3.4-1/jpeg/jchuff.c ****   long * dc_count_ptrs[NUM_HUFF_TBLS];
  96:fltk-1.3.4-1/jpeg/jchuff.c ****   long * ac_count_ptrs[NUM_HUFF_TBLS];
  97:fltk-1.3.4-1/jpeg/jchuff.c **** 
  98:fltk-1.3.4-1/jpeg/jchuff.c ****   /* Following fields used only in progressive mode */
  99:fltk-1.3.4-1/jpeg/jchuff.c **** 
 100:fltk-1.3.4-1/jpeg/jchuff.c ****   /* Mode flag: TRUE for optimization, FALSE for actual data output */
 101:fltk-1.3.4-1/jpeg/jchuff.c ****   boolean gather_statistics;
 102:fltk-1.3.4-1/jpeg/jchuff.c **** 
 103:fltk-1.3.4-1/jpeg/jchuff.c ****   /* next_output_byte/free_in_buffer are local copies of cinfo->dest fields.
 104:fltk-1.3.4-1/jpeg/jchuff.c ****    */
 105:fltk-1.3.4-1/jpeg/jchuff.c ****   JOCTET * next_output_byte;	/* => next byte to write in buffer */
 106:fltk-1.3.4-1/jpeg/jchuff.c ****   size_t free_in_buffer;	/* # of byte spaces remaining in buffer */
 107:fltk-1.3.4-1/jpeg/jchuff.c ****   j_compress_ptr cinfo;		/* link to cinfo (needed for dump_buffer) */
 108:fltk-1.3.4-1/jpeg/jchuff.c **** 
 109:fltk-1.3.4-1/jpeg/jchuff.c ****   /* Coding status for AC components */
 110:fltk-1.3.4-1/jpeg/jchuff.c ****   int ac_tbl_no;		/* the table number of the single component */
 111:fltk-1.3.4-1/jpeg/jchuff.c ****   unsigned int EOBRUN;		/* run length of EOBs */
 112:fltk-1.3.4-1/jpeg/jchuff.c ****   unsigned int BE;		/* # of buffered correction bits before MCU */
 113:fltk-1.3.4-1/jpeg/jchuff.c ****   char * bit_buffer;		/* buffer for correction bits (1 per char) */
 114:fltk-1.3.4-1/jpeg/jchuff.c ****   /* packing correction bits tightly would save some space but cost time... */
 115:fltk-1.3.4-1/jpeg/jchuff.c **** } huff_entropy_encoder;
 116:fltk-1.3.4-1/jpeg/jchuff.c **** 
 117:fltk-1.3.4-1/jpeg/jchuff.c **** typedef huff_entropy_encoder * huff_entropy_ptr;
 118:fltk-1.3.4-1/jpeg/jchuff.c **** 
 119:fltk-1.3.4-1/jpeg/jchuff.c **** /* Working state while writing an MCU (sequential mode).
 120:fltk-1.3.4-1/jpeg/jchuff.c ****  * This struct contains all the fields that are needed by subroutines.
 121:fltk-1.3.4-1/jpeg/jchuff.c ****  */
 122:fltk-1.3.4-1/jpeg/jchuff.c **** 
 123:fltk-1.3.4-1/jpeg/jchuff.c **** typedef struct {
 124:fltk-1.3.4-1/jpeg/jchuff.c ****   JOCTET * next_output_byte;	/* => next byte to write in buffer */
 125:fltk-1.3.4-1/jpeg/jchuff.c ****   size_t free_in_buffer;	/* # of byte spaces remaining in buffer */
 126:fltk-1.3.4-1/jpeg/jchuff.c ****   savable_state cur;		/* Current bit buffer & DC state */
 127:fltk-1.3.4-1/jpeg/jchuff.c ****   j_compress_ptr cinfo;		/* dump_buffer needs access to this */
 128:fltk-1.3.4-1/jpeg/jchuff.c **** } working_state;
 129:fltk-1.3.4-1/jpeg/jchuff.c **** 
 130:fltk-1.3.4-1/jpeg/jchuff.c **** /* MAX_CORR_BITS is the number of bits the AC refinement correction-bit
 131:fltk-1.3.4-1/jpeg/jchuff.c ****  * buffer can hold.  Larger sizes may slightly improve compression, but
 132:fltk-1.3.4-1/jpeg/jchuff.c ****  * 1000 is already well into the realm of overkill.
 133:fltk-1.3.4-1/jpeg/jchuff.c ****  * The minimum safe size is 64 bits.
 134:fltk-1.3.4-1/jpeg/jchuff.c ****  */
 135:fltk-1.3.4-1/jpeg/jchuff.c **** 
 136:fltk-1.3.4-1/jpeg/jchuff.c **** #define MAX_CORR_BITS  1000	/* Max # of correction bits I can buffer */
 137:fltk-1.3.4-1/jpeg/jchuff.c **** 
 138:fltk-1.3.4-1/jpeg/jchuff.c **** /* IRIGHT_SHIFT is like RIGHT_SHIFT, but works on int rather than INT32.
 139:fltk-1.3.4-1/jpeg/jchuff.c ****  * We assume that int right shift is unsigned if INT32 right shift is,
 140:fltk-1.3.4-1/jpeg/jchuff.c ****  * which should be safe.
 141:fltk-1.3.4-1/jpeg/jchuff.c ****  */
 142:fltk-1.3.4-1/jpeg/jchuff.c **** 
 143:fltk-1.3.4-1/jpeg/jchuff.c **** #ifdef RIGHT_SHIFT_IS_UNSIGNED
 144:fltk-1.3.4-1/jpeg/jchuff.c **** #define ISHIFT_TEMPS	int ishift_temp;
 145:fltk-1.3.4-1/jpeg/jchuff.c **** #define IRIGHT_SHIFT(x,shft)  \
 146:fltk-1.3.4-1/jpeg/jchuff.c **** 	((ishift_temp = (x)) < 0 ? \
 147:fltk-1.3.4-1/jpeg/jchuff.c **** 	 (ishift_temp >> (shft)) | ((~0) << (16-(shft))) : \
 148:fltk-1.3.4-1/jpeg/jchuff.c **** 	 (ishift_temp >> (shft)))
 149:fltk-1.3.4-1/jpeg/jchuff.c **** #else
 150:fltk-1.3.4-1/jpeg/jchuff.c **** #define ISHIFT_TEMPS
 151:fltk-1.3.4-1/jpeg/jchuff.c **** #define IRIGHT_SHIFT(x,shft)	((x) >> (shft))
 152:fltk-1.3.4-1/jpeg/jchuff.c **** #endif
 153:fltk-1.3.4-1/jpeg/jchuff.c **** 
 154:fltk-1.3.4-1/jpeg/jchuff.c **** 
 155:fltk-1.3.4-1/jpeg/jchuff.c **** /*
 156:fltk-1.3.4-1/jpeg/jchuff.c ****  * Compute the derived values for a Huffman table.
 157:fltk-1.3.4-1/jpeg/jchuff.c ****  * This routine also performs some validation checks on the table.
 158:fltk-1.3.4-1/jpeg/jchuff.c ****  */
 159:fltk-1.3.4-1/jpeg/jchuff.c **** 
 160:fltk-1.3.4-1/jpeg/jchuff.c **** LOCAL(void)
 161:fltk-1.3.4-1/jpeg/jchuff.c **** jpeg_make_c_derived_tbl (j_compress_ptr cinfo, boolean isDC, int tblno,
 162:fltk-1.3.4-1/jpeg/jchuff.c **** 			 c_derived_tbl ** pdtbl)
 163:fltk-1.3.4-1/jpeg/jchuff.c **** {
 164:fltk-1.3.4-1/jpeg/jchuff.c ****   JHUFF_TBL *htbl;
 165:fltk-1.3.4-1/jpeg/jchuff.c ****   c_derived_tbl *dtbl;
 166:fltk-1.3.4-1/jpeg/jchuff.c ****   int p, i, l, lastp, si, maxsymbol;
 167:fltk-1.3.4-1/jpeg/jchuff.c ****   char huffsize[257];
 168:fltk-1.3.4-1/jpeg/jchuff.c ****   unsigned int huffcode[257];
 169:fltk-1.3.4-1/jpeg/jchuff.c ****   unsigned int code;
 170:fltk-1.3.4-1/jpeg/jchuff.c **** 
 171:fltk-1.3.4-1/jpeg/jchuff.c ****   /* Note that huffsize[] and huffcode[] are filled in code-length order,
 172:fltk-1.3.4-1/jpeg/jchuff.c ****    * paralleling the order of the symbols themselves in htbl->huffval[].
 173:fltk-1.3.4-1/jpeg/jchuff.c ****    */
 174:fltk-1.3.4-1/jpeg/jchuff.c **** 
 175:fltk-1.3.4-1/jpeg/jchuff.c ****   /* Find the input Huffman table */
 176:fltk-1.3.4-1/jpeg/jchuff.c ****   if (tblno < 0 || tblno >= NUM_HUFF_TBLS)
 177:fltk-1.3.4-1/jpeg/jchuff.c ****     ERREXIT1(cinfo, JERR_NO_HUFF_TABLE, tblno);
 178:fltk-1.3.4-1/jpeg/jchuff.c ****   htbl =
 179:fltk-1.3.4-1/jpeg/jchuff.c ****     isDC ? cinfo->dc_huff_tbl_ptrs[tblno] : cinfo->ac_huff_tbl_ptrs[tblno];
 180:fltk-1.3.4-1/jpeg/jchuff.c ****   if (htbl == NULL)
 181:fltk-1.3.4-1/jpeg/jchuff.c ****     ERREXIT1(cinfo, JERR_NO_HUFF_TABLE, tblno);
 182:fltk-1.3.4-1/jpeg/jchuff.c **** 
 183:fltk-1.3.4-1/jpeg/jchuff.c ****   /* Allocate a workspace if we haven't already done so. */
 184:fltk-1.3.4-1/jpeg/jchuff.c ****   if (*pdtbl == NULL)
 185:fltk-1.3.4-1/jpeg/jchuff.c ****     *pdtbl = (c_derived_tbl *)
 186:fltk-1.3.4-1/jpeg/jchuff.c ****       (*cinfo->mem->alloc_small) ((j_common_ptr) cinfo, JPOOL_IMAGE,
 187:fltk-1.3.4-1/jpeg/jchuff.c **** 				  SIZEOF(c_derived_tbl));
 188:fltk-1.3.4-1/jpeg/jchuff.c ****   dtbl = *pdtbl;
 189:fltk-1.3.4-1/jpeg/jchuff.c ****   
 190:fltk-1.3.4-1/jpeg/jchuff.c ****   /* Figure C.1: make table of Huffman code length for each symbol */
 191:fltk-1.3.4-1/jpeg/jchuff.c **** 
 192:fltk-1.3.4-1/jpeg/jchuff.c ****   p = 0;
 193:fltk-1.3.4-1/jpeg/jchuff.c ****   for (l = 1; l <= 16; l++) {
 194:fltk-1.3.4-1/jpeg/jchuff.c ****     i = (int) htbl->bits[l];
 195:fltk-1.3.4-1/jpeg/jchuff.c ****     if (i < 0 || p + i > 256)	/* protect against table overrun */
 196:fltk-1.3.4-1/jpeg/jchuff.c ****       ERREXIT(cinfo, JERR_BAD_HUFF_TABLE);
 197:fltk-1.3.4-1/jpeg/jchuff.c ****     while (i--)
 198:fltk-1.3.4-1/jpeg/jchuff.c ****       huffsize[p++] = (char) l;
 199:fltk-1.3.4-1/jpeg/jchuff.c ****   }
 200:fltk-1.3.4-1/jpeg/jchuff.c ****   huffsize[p] = 0;
 201:fltk-1.3.4-1/jpeg/jchuff.c ****   lastp = p;
 202:fltk-1.3.4-1/jpeg/jchuff.c ****   
 203:fltk-1.3.4-1/jpeg/jchuff.c ****   /* Figure C.2: generate the codes themselves */
 204:fltk-1.3.4-1/jpeg/jchuff.c ****   /* We also validate that the counts represent a legal Huffman code tree. */
 205:fltk-1.3.4-1/jpeg/jchuff.c **** 
 206:fltk-1.3.4-1/jpeg/jchuff.c ****   code = 0;
 207:fltk-1.3.4-1/jpeg/jchuff.c ****   si = huffsize[0];
 208:fltk-1.3.4-1/jpeg/jchuff.c ****   p = 0;
 209:fltk-1.3.4-1/jpeg/jchuff.c ****   while (huffsize[p]) {
 210:fltk-1.3.4-1/jpeg/jchuff.c ****     while (((int) huffsize[p]) == si) {
 211:fltk-1.3.4-1/jpeg/jchuff.c ****       huffcode[p++] = code;
 212:fltk-1.3.4-1/jpeg/jchuff.c ****       code++;
 213:fltk-1.3.4-1/jpeg/jchuff.c ****     }
 214:fltk-1.3.4-1/jpeg/jchuff.c ****     /* code is now 1 more than the last code used for codelength si; but
 215:fltk-1.3.4-1/jpeg/jchuff.c ****      * it must still fit in si bits, since no code is allowed to be all ones.
 216:fltk-1.3.4-1/jpeg/jchuff.c ****      */
 217:fltk-1.3.4-1/jpeg/jchuff.c ****     if (((INT32) code) >= (((INT32) 1) << si))
 218:fltk-1.3.4-1/jpeg/jchuff.c ****       ERREXIT(cinfo, JERR_BAD_HUFF_TABLE);
 219:fltk-1.3.4-1/jpeg/jchuff.c ****     code <<= 1;
 220:fltk-1.3.4-1/jpeg/jchuff.c ****     si++;
 221:fltk-1.3.4-1/jpeg/jchuff.c ****   }
 222:fltk-1.3.4-1/jpeg/jchuff.c ****   
 223:fltk-1.3.4-1/jpeg/jchuff.c ****   /* Figure C.3: generate encoding tables */
 224:fltk-1.3.4-1/jpeg/jchuff.c ****   /* These are code and size indexed by symbol value */
 225:fltk-1.3.4-1/jpeg/jchuff.c **** 
 226:fltk-1.3.4-1/jpeg/jchuff.c ****   /* Set all codeless symbols to have code length 0;
 227:fltk-1.3.4-1/jpeg/jchuff.c ****    * this lets us detect duplicate VAL entries here, and later
 228:fltk-1.3.4-1/jpeg/jchuff.c ****    * allows emit_bits to detect any attempt to emit such symbols.
 229:fltk-1.3.4-1/jpeg/jchuff.c ****    */
 230:fltk-1.3.4-1/jpeg/jchuff.c ****   MEMZERO(dtbl->ehufsi, SIZEOF(dtbl->ehufsi));
 231:fltk-1.3.4-1/jpeg/jchuff.c **** 
 232:fltk-1.3.4-1/jpeg/jchuff.c ****   /* This is also a convenient place to check for out-of-range
 233:fltk-1.3.4-1/jpeg/jchuff.c ****    * and duplicated VAL entries.  We allow 0..255 for AC symbols
 234:fltk-1.3.4-1/jpeg/jchuff.c ****    * but only 0..15 for DC.  (We could constrain them further
 235:fltk-1.3.4-1/jpeg/jchuff.c ****    * based on data depth and mode, but this seems enough.)
 236:fltk-1.3.4-1/jpeg/jchuff.c ****    */
 237:fltk-1.3.4-1/jpeg/jchuff.c ****   maxsymbol = isDC ? 15 : 255;
 238:fltk-1.3.4-1/jpeg/jchuff.c **** 
 239:fltk-1.3.4-1/jpeg/jchuff.c ****   for (p = 0; p < lastp; p++) {
 240:fltk-1.3.4-1/jpeg/jchuff.c ****     i = htbl->huffval[p];
 241:fltk-1.3.4-1/jpeg/jchuff.c ****     if (i < 0 || i > maxsymbol || dtbl->ehufsi[i])
 242:fltk-1.3.4-1/jpeg/jchuff.c ****       ERREXIT(cinfo, JERR_BAD_HUFF_TABLE);
 243:fltk-1.3.4-1/jpeg/jchuff.c ****     dtbl->ehufco[i] = huffcode[p];
 244:fltk-1.3.4-1/jpeg/jchuff.c ****     dtbl->ehufsi[i] = huffsize[p];
 245:fltk-1.3.4-1/jpeg/jchuff.c ****   }
 246:fltk-1.3.4-1/jpeg/jchuff.c **** }
 247:fltk-1.3.4-1/jpeg/jchuff.c **** 
 248:fltk-1.3.4-1/jpeg/jchuff.c **** 
 249:fltk-1.3.4-1/jpeg/jchuff.c **** /* Outputting bytes to the file.
 250:fltk-1.3.4-1/jpeg/jchuff.c ****  * NB: these must be called only when actually outputting,
 251:fltk-1.3.4-1/jpeg/jchuff.c ****  * that is, entropy->gather_statistics == FALSE.
 252:fltk-1.3.4-1/jpeg/jchuff.c ****  */
 253:fltk-1.3.4-1/jpeg/jchuff.c **** 
 254:fltk-1.3.4-1/jpeg/jchuff.c **** /* Emit a byte, taking 'action' if must suspend. */
 255:fltk-1.3.4-1/jpeg/jchuff.c **** #define emit_byte_s(state,val,action)  \
 256:fltk-1.3.4-1/jpeg/jchuff.c **** 	{ *(state)->next_output_byte++ = (JOCTET) (val);  \
 257:fltk-1.3.4-1/jpeg/jchuff.c **** 	  if (--(state)->free_in_buffer == 0)  \
 258:fltk-1.3.4-1/jpeg/jchuff.c **** 	    if (! dump_buffer_s(state))  \
 259:fltk-1.3.4-1/jpeg/jchuff.c **** 	      { action; } }
 260:fltk-1.3.4-1/jpeg/jchuff.c **** 
 261:fltk-1.3.4-1/jpeg/jchuff.c **** /* Emit a byte */
 262:fltk-1.3.4-1/jpeg/jchuff.c **** #define emit_byte_e(entropy,val)  \
 263:fltk-1.3.4-1/jpeg/jchuff.c **** 	{ *(entropy)->next_output_byte++ = (JOCTET) (val);  \
 264:fltk-1.3.4-1/jpeg/jchuff.c **** 	  if (--(entropy)->free_in_buffer == 0)  \
 265:fltk-1.3.4-1/jpeg/jchuff.c **** 	    dump_buffer_e(entropy); }
 266:fltk-1.3.4-1/jpeg/jchuff.c **** 
 267:fltk-1.3.4-1/jpeg/jchuff.c **** 
 268:fltk-1.3.4-1/jpeg/jchuff.c **** LOCAL(boolean)
 269:fltk-1.3.4-1/jpeg/jchuff.c **** dump_buffer_s (working_state * state)
 270:fltk-1.3.4-1/jpeg/jchuff.c **** /* Empty the output buffer; return TRUE if successful, FALSE if must suspend */
 271:fltk-1.3.4-1/jpeg/jchuff.c **** {
 272:fltk-1.3.4-1/jpeg/jchuff.c ****   struct jpeg_destination_mgr * dest = state->cinfo->dest;
 273:fltk-1.3.4-1/jpeg/jchuff.c **** 
 274:fltk-1.3.4-1/jpeg/jchuff.c ****   if (! (*dest->empty_output_buffer) (state->cinfo))
 275:fltk-1.3.4-1/jpeg/jchuff.c ****     return FALSE;
 276:fltk-1.3.4-1/jpeg/jchuff.c ****   /* After a successful buffer dump, must reset buffer pointers */
 277:fltk-1.3.4-1/jpeg/jchuff.c ****   state->next_output_byte = dest->next_output_byte;
 278:fltk-1.3.4-1/jpeg/jchuff.c ****   state->free_in_buffer = dest->free_in_buffer;
 279:fltk-1.3.4-1/jpeg/jchuff.c ****   return TRUE;
 280:fltk-1.3.4-1/jpeg/jchuff.c **** }
 281:fltk-1.3.4-1/jpeg/jchuff.c **** 
 282:fltk-1.3.4-1/jpeg/jchuff.c **** 
 283:fltk-1.3.4-1/jpeg/jchuff.c **** LOCAL(void)
 284:fltk-1.3.4-1/jpeg/jchuff.c **** dump_buffer_e (huff_entropy_ptr entropy)
 285:fltk-1.3.4-1/jpeg/jchuff.c **** /* Empty the output buffer; we do not support suspension in this case. */
 286:fltk-1.3.4-1/jpeg/jchuff.c **** {
  11              		.loc 1 286 1 view -0
  12              		.cfi_startproc
 287:fltk-1.3.4-1/jpeg/jchuff.c ****   struct jpeg_destination_mgr * dest = entropy->cinfo->dest;
  13              		.loc 1 287 3 view .LVU1
 286:fltk-1.3.4-1/jpeg/jchuff.c ****   struct jpeg_destination_mgr * dest = entropy->cinfo->dest;
  14              		.loc 1 286 1 is_stmt 0 view .LVU2
  15 0000 55       		pushq	%rbp
  16              		.cfi_def_cfa_offset 16
  17              		.cfi_offset 6, -16
  18 0001 53       		pushq	%rbx
  19              		.cfi_def_cfa_offset 24
  20              		.cfi_offset 3, -24
  21 0002 4889FB   		movq	%rdi, %rbx
  22 0005 4883EC08 		subq	$8, %rsp
  23              		.cfi_def_cfa_offset 32
  24              		.loc 1 287 47 view .LVU3
  25 0009 488BBFD8 		movq	216(%rdi), %rdi
  25      000000
  26              	.LVL1:
  27              		.loc 1 287 33 view .LVU4
  28 0010 488B6F28 		movq	40(%rdi), %rbp
  29              	.LVL2:
 288:fltk-1.3.4-1/jpeg/jchuff.c **** 
 289:fltk-1.3.4-1/jpeg/jchuff.c ****   if (! (*dest->empty_output_buffer) (entropy->cinfo))
  30              		.loc 1 289 3 is_stmt 1 view .LVU5
  31              		.loc 1 289 10 is_stmt 0 view .LVU6
  32 0014 FF5518   		call	*24(%rbp)
  33              	.LVL3:
  34              		.loc 1 289 6 view .LVU7
  35 0017 85C0     		testl	%eax, %eax
  36 0019 751D     		jne	.L2
 290:fltk-1.3.4-1/jpeg/jchuff.c ****     ERREXIT(entropy->cinfo, JERR_CANT_SUSPEND);
  37              		.loc 1 290 5 is_stmt 1 view .LVU8
  38 001b 488B83D8 		movq	216(%rbx), %rax
  38      000000
  39 0022 488B00   		movq	(%rax), %rax
  40 0025 C7402819 		movl	$25, 40(%rax)
  40      000000
  41 002c 488BBBD8 		movq	216(%rbx), %rdi
  41      000000
  42 0033 488B07   		movq	(%rdi), %rax
  43 0036 FF10     		call	*(%rax)
  44              	.LVL4:
  45              	.L2:
 291:fltk-1.3.4-1/jpeg/jchuff.c ****   /* After a successful buffer dump, must reset buffer pointers */
 292:fltk-1.3.4-1/jpeg/jchuff.c ****   entropy->next_output_byte = dest->next_output_byte;
  46              		.loc 1 292 3 view .LVU9
  47              		.loc 1 292 35 is_stmt 0 view .LVU10
  48 0038 488B4500 		movq	0(%rbp), %rax
  49              		.loc 1 292 29 view .LVU11
  50 003c 488983C8 		movq	%rax, 200(%rbx)
  50      000000
 293:fltk-1.3.4-1/jpeg/jchuff.c ****   entropy->free_in_buffer = dest->free_in_buffer;
  51              		.loc 1 293 3 is_stmt 1 view .LVU12
  52              		.loc 1 293 33 is_stmt 0 view .LVU13
  53 0043 488B4508 		movq	8(%rbp), %rax
  54              		.loc 1 293 27 view .LVU14
  55 0047 488983D0 		movq	%rax, 208(%rbx)
  55      000000
 294:fltk-1.3.4-1/jpeg/jchuff.c **** }
  56              		.loc 1 294 1 view .LVU15
  57 004e 4883C408 		addq	$8, %rsp
  58              		.cfi_def_cfa_offset 24
  59 0052 5B       		popq	%rbx
  60              		.cfi_def_cfa_offset 16
  61              	.LVL5:
  62              		.loc 1 294 1 view .LVU16
  63 0053 5D       		popq	%rbp
  64              		.cfi_def_cfa_offset 8
  65              	.LVL6:
  66              		.loc 1 294 1 view .LVU17
  67 0054 C3       		ret
  68              		.cfi_endproc
  69              	.LFE53:
  71              		.section	.text.encode_mcu_gather,"ax",@progbits
  72              		.p2align 4
  74              	encode_mcu_gather:
  75              	.LVL7:
  76              	.LFB72:
 295:fltk-1.3.4-1/jpeg/jchuff.c **** 
 296:fltk-1.3.4-1/jpeg/jchuff.c **** 
 297:fltk-1.3.4-1/jpeg/jchuff.c **** /* Outputting bits to the file */
 298:fltk-1.3.4-1/jpeg/jchuff.c **** 
 299:fltk-1.3.4-1/jpeg/jchuff.c **** /* Only the right 24 bits of put_buffer are used; the valid bits are
 300:fltk-1.3.4-1/jpeg/jchuff.c ****  * left-justified in this part.  At most 16 bits can be passed to emit_bits
 301:fltk-1.3.4-1/jpeg/jchuff.c ****  * in one call, and we never retain more than 7 bits in put_buffer
 302:fltk-1.3.4-1/jpeg/jchuff.c ****  * between calls, so 24 bits are sufficient.
 303:fltk-1.3.4-1/jpeg/jchuff.c ****  */
 304:fltk-1.3.4-1/jpeg/jchuff.c **** 
 305:fltk-1.3.4-1/jpeg/jchuff.c **** INLINE
 306:fltk-1.3.4-1/jpeg/jchuff.c **** LOCAL(boolean)
 307:fltk-1.3.4-1/jpeg/jchuff.c **** emit_bits_s (working_state * state, unsigned int code, int size)
 308:fltk-1.3.4-1/jpeg/jchuff.c **** /* Emit some bits; return TRUE if successful, FALSE if must suspend */
 309:fltk-1.3.4-1/jpeg/jchuff.c **** {
 310:fltk-1.3.4-1/jpeg/jchuff.c ****   /* This routine is heavily used, so it's worth coding tightly. */
 311:fltk-1.3.4-1/jpeg/jchuff.c ****   register INT32 put_buffer;
 312:fltk-1.3.4-1/jpeg/jchuff.c ****   register int put_bits;
 313:fltk-1.3.4-1/jpeg/jchuff.c **** 
 314:fltk-1.3.4-1/jpeg/jchuff.c ****   /* if size is 0, caller used an invalid Huffman table entry */
 315:fltk-1.3.4-1/jpeg/jchuff.c ****   if (size == 0)
 316:fltk-1.3.4-1/jpeg/jchuff.c ****     ERREXIT(state->cinfo, JERR_HUFF_MISSING_CODE);
 317:fltk-1.3.4-1/jpeg/jchuff.c **** 
 318:fltk-1.3.4-1/jpeg/jchuff.c ****   /* mask off any extra bits in code */
 319:fltk-1.3.4-1/jpeg/jchuff.c ****   put_buffer = ((INT32) code) & ((((INT32) 1) << size) - 1);
 320:fltk-1.3.4-1/jpeg/jchuff.c **** 
 321:fltk-1.3.4-1/jpeg/jchuff.c ****   /* new number of bits in buffer */
 322:fltk-1.3.4-1/jpeg/jchuff.c ****   put_bits = size + state->cur.put_bits;
 323:fltk-1.3.4-1/jpeg/jchuff.c **** 
 324:fltk-1.3.4-1/jpeg/jchuff.c ****   put_buffer <<= 24 - put_bits; /* align incoming bits */
 325:fltk-1.3.4-1/jpeg/jchuff.c **** 
 326:fltk-1.3.4-1/jpeg/jchuff.c ****   /* and merge with old buffer contents */
 327:fltk-1.3.4-1/jpeg/jchuff.c ****   put_buffer |= state->cur.put_buffer;
 328:fltk-1.3.4-1/jpeg/jchuff.c **** 
 329:fltk-1.3.4-1/jpeg/jchuff.c ****   while (put_bits >= 8) {
 330:fltk-1.3.4-1/jpeg/jchuff.c ****     int c = (int) ((put_buffer >> 16) & 0xFF);
 331:fltk-1.3.4-1/jpeg/jchuff.c **** 
 332:fltk-1.3.4-1/jpeg/jchuff.c ****     emit_byte_s(state, c, return FALSE);
 333:fltk-1.3.4-1/jpeg/jchuff.c ****     if (c == 0xFF) {		/* need to stuff a zero byte? */
 334:fltk-1.3.4-1/jpeg/jchuff.c ****       emit_byte_s(state, 0, return FALSE);
 335:fltk-1.3.4-1/jpeg/jchuff.c ****     }
 336:fltk-1.3.4-1/jpeg/jchuff.c ****     put_buffer <<= 8;
 337:fltk-1.3.4-1/jpeg/jchuff.c ****     put_bits -= 8;
 338:fltk-1.3.4-1/jpeg/jchuff.c ****   }
 339:fltk-1.3.4-1/jpeg/jchuff.c **** 
 340:fltk-1.3.4-1/jpeg/jchuff.c ****   state->cur.put_buffer = put_buffer; /* update state variables */
 341:fltk-1.3.4-1/jpeg/jchuff.c ****   state->cur.put_bits = put_bits;
 342:fltk-1.3.4-1/jpeg/jchuff.c **** 
 343:fltk-1.3.4-1/jpeg/jchuff.c ****   return TRUE;
 344:fltk-1.3.4-1/jpeg/jchuff.c **** }
 345:fltk-1.3.4-1/jpeg/jchuff.c **** 
 346:fltk-1.3.4-1/jpeg/jchuff.c **** 
 347:fltk-1.3.4-1/jpeg/jchuff.c **** INLINE
 348:fltk-1.3.4-1/jpeg/jchuff.c **** LOCAL(void)
 349:fltk-1.3.4-1/jpeg/jchuff.c **** emit_bits_e (huff_entropy_ptr entropy, unsigned int code, int size)
 350:fltk-1.3.4-1/jpeg/jchuff.c **** /* Emit some bits, unless we are in gather mode */
 351:fltk-1.3.4-1/jpeg/jchuff.c **** {
 352:fltk-1.3.4-1/jpeg/jchuff.c ****   /* This routine is heavily used, so it's worth coding tightly. */
 353:fltk-1.3.4-1/jpeg/jchuff.c ****   register INT32 put_buffer;
 354:fltk-1.3.4-1/jpeg/jchuff.c ****   register int put_bits;
 355:fltk-1.3.4-1/jpeg/jchuff.c **** 
 356:fltk-1.3.4-1/jpeg/jchuff.c ****   /* if size is 0, caller used an invalid Huffman table entry */
 357:fltk-1.3.4-1/jpeg/jchuff.c ****   if (size == 0)
 358:fltk-1.3.4-1/jpeg/jchuff.c ****     ERREXIT(entropy->cinfo, JERR_HUFF_MISSING_CODE);
 359:fltk-1.3.4-1/jpeg/jchuff.c **** 
 360:fltk-1.3.4-1/jpeg/jchuff.c ****   if (entropy->gather_statistics)
 361:fltk-1.3.4-1/jpeg/jchuff.c ****     return;			/* do nothing if we're only getting stats */
 362:fltk-1.3.4-1/jpeg/jchuff.c **** 
 363:fltk-1.3.4-1/jpeg/jchuff.c ****   /* mask off any extra bits in code */
 364:fltk-1.3.4-1/jpeg/jchuff.c ****   put_buffer = ((INT32) code) & ((((INT32) 1) << size) - 1);
 365:fltk-1.3.4-1/jpeg/jchuff.c **** 
 366:fltk-1.3.4-1/jpeg/jchuff.c ****   /* new number of bits in buffer */
 367:fltk-1.3.4-1/jpeg/jchuff.c ****   put_bits = size + entropy->saved.put_bits;
 368:fltk-1.3.4-1/jpeg/jchuff.c **** 
 369:fltk-1.3.4-1/jpeg/jchuff.c ****   put_buffer <<= 24 - put_bits; /* align incoming bits */
 370:fltk-1.3.4-1/jpeg/jchuff.c **** 
 371:fltk-1.3.4-1/jpeg/jchuff.c ****   /* and merge with old buffer contents */
 372:fltk-1.3.4-1/jpeg/jchuff.c ****   put_buffer |= entropy->saved.put_buffer;
 373:fltk-1.3.4-1/jpeg/jchuff.c **** 
 374:fltk-1.3.4-1/jpeg/jchuff.c ****   while (put_bits >= 8) {
 375:fltk-1.3.4-1/jpeg/jchuff.c ****     int c = (int) ((put_buffer >> 16) & 0xFF);
 376:fltk-1.3.4-1/jpeg/jchuff.c **** 
 377:fltk-1.3.4-1/jpeg/jchuff.c ****     emit_byte_e(entropy, c);
 378:fltk-1.3.4-1/jpeg/jchuff.c ****     if (c == 0xFF) {		/* need to stuff a zero byte? */
 379:fltk-1.3.4-1/jpeg/jchuff.c ****       emit_byte_e(entropy, 0);
 380:fltk-1.3.4-1/jpeg/jchuff.c ****     }
 381:fltk-1.3.4-1/jpeg/jchuff.c ****     put_buffer <<= 8;
 382:fltk-1.3.4-1/jpeg/jchuff.c ****     put_bits -= 8;
 383:fltk-1.3.4-1/jpeg/jchuff.c ****   }
 384:fltk-1.3.4-1/jpeg/jchuff.c **** 
 385:fltk-1.3.4-1/jpeg/jchuff.c ****   entropy->saved.put_buffer = put_buffer; /* update variables */
 386:fltk-1.3.4-1/jpeg/jchuff.c ****   entropy->saved.put_bits = put_bits;
 387:fltk-1.3.4-1/jpeg/jchuff.c **** }
 388:fltk-1.3.4-1/jpeg/jchuff.c **** 
 389:fltk-1.3.4-1/jpeg/jchuff.c **** 
 390:fltk-1.3.4-1/jpeg/jchuff.c **** LOCAL(boolean)
 391:fltk-1.3.4-1/jpeg/jchuff.c **** flush_bits_s (working_state * state)
 392:fltk-1.3.4-1/jpeg/jchuff.c **** {
 393:fltk-1.3.4-1/jpeg/jchuff.c ****   if (! emit_bits_s(state, 0x7F, 7)) /* fill any partial byte with ones */
 394:fltk-1.3.4-1/jpeg/jchuff.c ****     return FALSE;
 395:fltk-1.3.4-1/jpeg/jchuff.c ****   state->cur.put_buffer = 0;	     /* and reset bit-buffer to empty */
 396:fltk-1.3.4-1/jpeg/jchuff.c ****   state->cur.put_bits = 0;
 397:fltk-1.3.4-1/jpeg/jchuff.c ****   return TRUE;
 398:fltk-1.3.4-1/jpeg/jchuff.c **** }
 399:fltk-1.3.4-1/jpeg/jchuff.c **** 
 400:fltk-1.3.4-1/jpeg/jchuff.c **** 
 401:fltk-1.3.4-1/jpeg/jchuff.c **** LOCAL(void)
 402:fltk-1.3.4-1/jpeg/jchuff.c **** flush_bits_e (huff_entropy_ptr entropy)
 403:fltk-1.3.4-1/jpeg/jchuff.c **** {
 404:fltk-1.3.4-1/jpeg/jchuff.c ****   emit_bits_e(entropy, 0x7F, 7); /* fill any partial byte with ones */
 405:fltk-1.3.4-1/jpeg/jchuff.c ****   entropy->saved.put_buffer = 0; /* and reset bit-buffer to empty */
 406:fltk-1.3.4-1/jpeg/jchuff.c ****   entropy->saved.put_bits = 0;
 407:fltk-1.3.4-1/jpeg/jchuff.c **** }
 408:fltk-1.3.4-1/jpeg/jchuff.c **** 
 409:fltk-1.3.4-1/jpeg/jchuff.c **** 
 410:fltk-1.3.4-1/jpeg/jchuff.c **** /*
 411:fltk-1.3.4-1/jpeg/jchuff.c ****  * Emit (or just count) a Huffman symbol.
 412:fltk-1.3.4-1/jpeg/jchuff.c ****  */
 413:fltk-1.3.4-1/jpeg/jchuff.c **** 
 414:fltk-1.3.4-1/jpeg/jchuff.c **** INLINE
 415:fltk-1.3.4-1/jpeg/jchuff.c **** LOCAL(void)
 416:fltk-1.3.4-1/jpeg/jchuff.c **** emit_dc_symbol (huff_entropy_ptr entropy, int tbl_no, int symbol)
 417:fltk-1.3.4-1/jpeg/jchuff.c **** {
 418:fltk-1.3.4-1/jpeg/jchuff.c ****   if (entropy->gather_statistics)
 419:fltk-1.3.4-1/jpeg/jchuff.c ****     entropy->dc_count_ptrs[tbl_no][symbol]++;
 420:fltk-1.3.4-1/jpeg/jchuff.c ****   else {
 421:fltk-1.3.4-1/jpeg/jchuff.c ****     c_derived_tbl * tbl = entropy->dc_derived_tbls[tbl_no];
 422:fltk-1.3.4-1/jpeg/jchuff.c ****     emit_bits_e(entropy, tbl->ehufco[symbol], tbl->ehufsi[symbol]);
 423:fltk-1.3.4-1/jpeg/jchuff.c ****   }
 424:fltk-1.3.4-1/jpeg/jchuff.c **** }
 425:fltk-1.3.4-1/jpeg/jchuff.c **** 
 426:fltk-1.3.4-1/jpeg/jchuff.c **** 
 427:fltk-1.3.4-1/jpeg/jchuff.c **** INLINE
 428:fltk-1.3.4-1/jpeg/jchuff.c **** LOCAL(void)
 429:fltk-1.3.4-1/jpeg/jchuff.c **** emit_ac_symbol (huff_entropy_ptr entropy, int tbl_no, int symbol)
 430:fltk-1.3.4-1/jpeg/jchuff.c **** {
 431:fltk-1.3.4-1/jpeg/jchuff.c ****   if (entropy->gather_statistics)
 432:fltk-1.3.4-1/jpeg/jchuff.c ****     entropy->ac_count_ptrs[tbl_no][symbol]++;
 433:fltk-1.3.4-1/jpeg/jchuff.c ****   else {
 434:fltk-1.3.4-1/jpeg/jchuff.c ****     c_derived_tbl * tbl = entropy->ac_derived_tbls[tbl_no];
 435:fltk-1.3.4-1/jpeg/jchuff.c ****     emit_bits_e(entropy, tbl->ehufco[symbol], tbl->ehufsi[symbol]);
 436:fltk-1.3.4-1/jpeg/jchuff.c ****   }
 437:fltk-1.3.4-1/jpeg/jchuff.c **** }
 438:fltk-1.3.4-1/jpeg/jchuff.c **** 
 439:fltk-1.3.4-1/jpeg/jchuff.c **** 
 440:fltk-1.3.4-1/jpeg/jchuff.c **** /*
 441:fltk-1.3.4-1/jpeg/jchuff.c ****  * Emit bits from a correction bit buffer.
 442:fltk-1.3.4-1/jpeg/jchuff.c ****  */
 443:fltk-1.3.4-1/jpeg/jchuff.c **** 
 444:fltk-1.3.4-1/jpeg/jchuff.c **** LOCAL(void)
 445:fltk-1.3.4-1/jpeg/jchuff.c **** emit_buffered_bits (huff_entropy_ptr entropy, char * bufstart,
 446:fltk-1.3.4-1/jpeg/jchuff.c **** 		    unsigned int nbits)
 447:fltk-1.3.4-1/jpeg/jchuff.c **** {
 448:fltk-1.3.4-1/jpeg/jchuff.c ****   if (entropy->gather_statistics)
 449:fltk-1.3.4-1/jpeg/jchuff.c ****     return;			/* no real work */
 450:fltk-1.3.4-1/jpeg/jchuff.c **** 
 451:fltk-1.3.4-1/jpeg/jchuff.c ****   while (nbits > 0) {
 452:fltk-1.3.4-1/jpeg/jchuff.c ****     emit_bits_e(entropy, (unsigned int) (*bufstart), 1);
 453:fltk-1.3.4-1/jpeg/jchuff.c ****     bufstart++;
 454:fltk-1.3.4-1/jpeg/jchuff.c ****     nbits--;
 455:fltk-1.3.4-1/jpeg/jchuff.c ****   }
 456:fltk-1.3.4-1/jpeg/jchuff.c **** }
 457:fltk-1.3.4-1/jpeg/jchuff.c **** 
 458:fltk-1.3.4-1/jpeg/jchuff.c **** 
 459:fltk-1.3.4-1/jpeg/jchuff.c **** /*
 460:fltk-1.3.4-1/jpeg/jchuff.c ****  * Emit any pending EOBRUN symbol.
 461:fltk-1.3.4-1/jpeg/jchuff.c ****  */
 462:fltk-1.3.4-1/jpeg/jchuff.c **** 
 463:fltk-1.3.4-1/jpeg/jchuff.c **** LOCAL(void)
 464:fltk-1.3.4-1/jpeg/jchuff.c **** emit_eobrun (huff_entropy_ptr entropy)
 465:fltk-1.3.4-1/jpeg/jchuff.c **** {
 466:fltk-1.3.4-1/jpeg/jchuff.c ****   register int temp, nbits;
 467:fltk-1.3.4-1/jpeg/jchuff.c **** 
 468:fltk-1.3.4-1/jpeg/jchuff.c ****   if (entropy->EOBRUN > 0) {	/* if there is any pending EOBRUN */
 469:fltk-1.3.4-1/jpeg/jchuff.c ****     temp = entropy->EOBRUN;
 470:fltk-1.3.4-1/jpeg/jchuff.c ****     nbits = 0;
 471:fltk-1.3.4-1/jpeg/jchuff.c ****     while ((temp >>= 1))
 472:fltk-1.3.4-1/jpeg/jchuff.c ****       nbits++;
 473:fltk-1.3.4-1/jpeg/jchuff.c ****     /* safety check: shouldn't happen given limited correction-bit buffer */
 474:fltk-1.3.4-1/jpeg/jchuff.c ****     if (nbits > 14)
 475:fltk-1.3.4-1/jpeg/jchuff.c ****       ERREXIT(entropy->cinfo, JERR_HUFF_MISSING_CODE);
 476:fltk-1.3.4-1/jpeg/jchuff.c **** 
 477:fltk-1.3.4-1/jpeg/jchuff.c ****     emit_ac_symbol(entropy, entropy->ac_tbl_no, nbits << 4);
 478:fltk-1.3.4-1/jpeg/jchuff.c ****     if (nbits)
 479:fltk-1.3.4-1/jpeg/jchuff.c ****       emit_bits_e(entropy, entropy->EOBRUN, nbits);
 480:fltk-1.3.4-1/jpeg/jchuff.c **** 
 481:fltk-1.3.4-1/jpeg/jchuff.c ****     entropy->EOBRUN = 0;
 482:fltk-1.3.4-1/jpeg/jchuff.c **** 
 483:fltk-1.3.4-1/jpeg/jchuff.c ****     /* Emit any buffered correction bits */
 484:fltk-1.3.4-1/jpeg/jchuff.c ****     emit_buffered_bits(entropy, entropy->bit_buffer, entropy->BE);
 485:fltk-1.3.4-1/jpeg/jchuff.c ****     entropy->BE = 0;
 486:fltk-1.3.4-1/jpeg/jchuff.c ****   }
 487:fltk-1.3.4-1/jpeg/jchuff.c **** }
 488:fltk-1.3.4-1/jpeg/jchuff.c **** 
 489:fltk-1.3.4-1/jpeg/jchuff.c **** 
 490:fltk-1.3.4-1/jpeg/jchuff.c **** /*
 491:fltk-1.3.4-1/jpeg/jchuff.c ****  * Emit a restart marker & resynchronize predictions.
 492:fltk-1.3.4-1/jpeg/jchuff.c ****  */
 493:fltk-1.3.4-1/jpeg/jchuff.c **** 
 494:fltk-1.3.4-1/jpeg/jchuff.c **** LOCAL(boolean)
 495:fltk-1.3.4-1/jpeg/jchuff.c **** emit_restart_s (working_state * state, int restart_num)
 496:fltk-1.3.4-1/jpeg/jchuff.c **** {
 497:fltk-1.3.4-1/jpeg/jchuff.c ****   int ci;
 498:fltk-1.3.4-1/jpeg/jchuff.c **** 
 499:fltk-1.3.4-1/jpeg/jchuff.c ****   if (! flush_bits_s(state))
 500:fltk-1.3.4-1/jpeg/jchuff.c ****     return FALSE;
 501:fltk-1.3.4-1/jpeg/jchuff.c **** 
 502:fltk-1.3.4-1/jpeg/jchuff.c ****   emit_byte_s(state, 0xFF, return FALSE);
 503:fltk-1.3.4-1/jpeg/jchuff.c ****   emit_byte_s(state, JPEG_RST0 + restart_num, return FALSE);
 504:fltk-1.3.4-1/jpeg/jchuff.c **** 
 505:fltk-1.3.4-1/jpeg/jchuff.c ****   /* Re-initialize DC predictions to 0 */
 506:fltk-1.3.4-1/jpeg/jchuff.c ****   for (ci = 0; ci < state->cinfo->comps_in_scan; ci++)
 507:fltk-1.3.4-1/jpeg/jchuff.c ****     state->cur.last_dc_val[ci] = 0;
 508:fltk-1.3.4-1/jpeg/jchuff.c **** 
 509:fltk-1.3.4-1/jpeg/jchuff.c ****   /* The restart counter is not updated until we successfully write the MCU. */
 510:fltk-1.3.4-1/jpeg/jchuff.c **** 
 511:fltk-1.3.4-1/jpeg/jchuff.c ****   return TRUE;
 512:fltk-1.3.4-1/jpeg/jchuff.c **** }
 513:fltk-1.3.4-1/jpeg/jchuff.c **** 
 514:fltk-1.3.4-1/jpeg/jchuff.c **** 
 515:fltk-1.3.4-1/jpeg/jchuff.c **** LOCAL(void)
 516:fltk-1.3.4-1/jpeg/jchuff.c **** emit_restart_e (huff_entropy_ptr entropy, int restart_num)
 517:fltk-1.3.4-1/jpeg/jchuff.c **** {
 518:fltk-1.3.4-1/jpeg/jchuff.c ****   int ci;
 519:fltk-1.3.4-1/jpeg/jchuff.c **** 
 520:fltk-1.3.4-1/jpeg/jchuff.c ****   emit_eobrun(entropy);
 521:fltk-1.3.4-1/jpeg/jchuff.c **** 
 522:fltk-1.3.4-1/jpeg/jchuff.c ****   if (! entropy->gather_statistics) {
 523:fltk-1.3.4-1/jpeg/jchuff.c ****     flush_bits_e(entropy);
 524:fltk-1.3.4-1/jpeg/jchuff.c ****     emit_byte_e(entropy, 0xFF);
 525:fltk-1.3.4-1/jpeg/jchuff.c ****     emit_byte_e(entropy, JPEG_RST0 + restart_num);
 526:fltk-1.3.4-1/jpeg/jchuff.c ****   }
 527:fltk-1.3.4-1/jpeg/jchuff.c **** 
 528:fltk-1.3.4-1/jpeg/jchuff.c ****   if (entropy->cinfo->Ss == 0) {
 529:fltk-1.3.4-1/jpeg/jchuff.c ****     /* Re-initialize DC predictions to 0 */
 530:fltk-1.3.4-1/jpeg/jchuff.c ****     for (ci = 0; ci < entropy->cinfo->comps_in_scan; ci++)
 531:fltk-1.3.4-1/jpeg/jchuff.c ****       entropy->saved.last_dc_val[ci] = 0;
 532:fltk-1.3.4-1/jpeg/jchuff.c ****   } else {
 533:fltk-1.3.4-1/jpeg/jchuff.c ****     /* Re-initialize all AC-related fields to 0 */
 534:fltk-1.3.4-1/jpeg/jchuff.c ****     entropy->EOBRUN = 0;
 535:fltk-1.3.4-1/jpeg/jchuff.c ****     entropy->BE = 0;
 536:fltk-1.3.4-1/jpeg/jchuff.c ****   }
 537:fltk-1.3.4-1/jpeg/jchuff.c **** }
 538:fltk-1.3.4-1/jpeg/jchuff.c **** 
 539:fltk-1.3.4-1/jpeg/jchuff.c **** 
 540:fltk-1.3.4-1/jpeg/jchuff.c **** /*
 541:fltk-1.3.4-1/jpeg/jchuff.c ****  * MCU encoding for DC initial scan (either spectral selection,
 542:fltk-1.3.4-1/jpeg/jchuff.c ****  * or first pass of successive approximation).
 543:fltk-1.3.4-1/jpeg/jchuff.c ****  */
 544:fltk-1.3.4-1/jpeg/jchuff.c **** 
 545:fltk-1.3.4-1/jpeg/jchuff.c **** METHODDEF(boolean)
 546:fltk-1.3.4-1/jpeg/jchuff.c **** encode_mcu_DC_first (j_compress_ptr cinfo, JBLOCKROW *MCU_data)
 547:fltk-1.3.4-1/jpeg/jchuff.c **** {
 548:fltk-1.3.4-1/jpeg/jchuff.c ****   huff_entropy_ptr entropy = (huff_entropy_ptr) cinfo->entropy;
 549:fltk-1.3.4-1/jpeg/jchuff.c ****   register int temp, temp2;
 550:fltk-1.3.4-1/jpeg/jchuff.c ****   register int nbits;
 551:fltk-1.3.4-1/jpeg/jchuff.c ****   int blkn, ci, tbl;
 552:fltk-1.3.4-1/jpeg/jchuff.c ****   ISHIFT_TEMPS
 553:fltk-1.3.4-1/jpeg/jchuff.c **** 
 554:fltk-1.3.4-1/jpeg/jchuff.c ****   entropy->next_output_byte = cinfo->dest->next_output_byte;
 555:fltk-1.3.4-1/jpeg/jchuff.c ****   entropy->free_in_buffer = cinfo->dest->free_in_buffer;
 556:fltk-1.3.4-1/jpeg/jchuff.c **** 
 557:fltk-1.3.4-1/jpeg/jchuff.c ****   /* Emit restart marker if needed */
 558:fltk-1.3.4-1/jpeg/jchuff.c ****   if (cinfo->restart_interval)
 559:fltk-1.3.4-1/jpeg/jchuff.c ****     if (entropy->restarts_to_go == 0)
 560:fltk-1.3.4-1/jpeg/jchuff.c ****       emit_restart_e(entropy, entropy->next_restart_num);
 561:fltk-1.3.4-1/jpeg/jchuff.c **** 
 562:fltk-1.3.4-1/jpeg/jchuff.c ****   /* Encode the MCU data blocks */
 563:fltk-1.3.4-1/jpeg/jchuff.c ****   for (blkn = 0; blkn < cinfo->blocks_in_MCU; blkn++) {
 564:fltk-1.3.4-1/jpeg/jchuff.c ****     ci = cinfo->MCU_membership[blkn];
 565:fltk-1.3.4-1/jpeg/jchuff.c ****     tbl = cinfo->cur_comp_info[ci]->dc_tbl_no;
 566:fltk-1.3.4-1/jpeg/jchuff.c **** 
 567:fltk-1.3.4-1/jpeg/jchuff.c ****     /* Compute the DC value after the required point transform by Al.
 568:fltk-1.3.4-1/jpeg/jchuff.c ****      * This is simply an arithmetic right shift.
 569:fltk-1.3.4-1/jpeg/jchuff.c ****      */
 570:fltk-1.3.4-1/jpeg/jchuff.c ****     temp = IRIGHT_SHIFT((int) (MCU_data[blkn][0][0]), cinfo->Al);
 571:fltk-1.3.4-1/jpeg/jchuff.c **** 
 572:fltk-1.3.4-1/jpeg/jchuff.c ****     /* DC differences are figured on the point-transformed values. */
 573:fltk-1.3.4-1/jpeg/jchuff.c ****     temp2 = temp - entropy->saved.last_dc_val[ci];
 574:fltk-1.3.4-1/jpeg/jchuff.c ****     entropy->saved.last_dc_val[ci] = temp;
 575:fltk-1.3.4-1/jpeg/jchuff.c **** 
 576:fltk-1.3.4-1/jpeg/jchuff.c ****     /* Encode the DC coefficient difference per section G.1.2.1 */
 577:fltk-1.3.4-1/jpeg/jchuff.c ****     temp = temp2;
 578:fltk-1.3.4-1/jpeg/jchuff.c ****     if (temp < 0) {
 579:fltk-1.3.4-1/jpeg/jchuff.c ****       temp = -temp;		/* temp is abs value of input */
 580:fltk-1.3.4-1/jpeg/jchuff.c ****       /* For a negative input, want temp2 = bitwise complement of abs(input) */
 581:fltk-1.3.4-1/jpeg/jchuff.c ****       /* This code assumes we are on a two's complement machine */
 582:fltk-1.3.4-1/jpeg/jchuff.c ****       temp2--;
 583:fltk-1.3.4-1/jpeg/jchuff.c ****     }
 584:fltk-1.3.4-1/jpeg/jchuff.c **** 
 585:fltk-1.3.4-1/jpeg/jchuff.c ****     /* Find the number of bits needed for the magnitude of the coefficient */
 586:fltk-1.3.4-1/jpeg/jchuff.c ****     nbits = 0;
 587:fltk-1.3.4-1/jpeg/jchuff.c ****     while (temp) {
 588:fltk-1.3.4-1/jpeg/jchuff.c ****       nbits++;
 589:fltk-1.3.4-1/jpeg/jchuff.c ****       temp >>= 1;
 590:fltk-1.3.4-1/jpeg/jchuff.c ****     }
 591:fltk-1.3.4-1/jpeg/jchuff.c ****     /* Check for out-of-range coefficient values.
 592:fltk-1.3.4-1/jpeg/jchuff.c ****      * Since we're encoding a difference, the range limit is twice as much.
 593:fltk-1.3.4-1/jpeg/jchuff.c ****      */
 594:fltk-1.3.4-1/jpeg/jchuff.c ****     if (nbits > MAX_COEF_BITS+1)
 595:fltk-1.3.4-1/jpeg/jchuff.c ****       ERREXIT(cinfo, JERR_BAD_DCT_COEF);
 596:fltk-1.3.4-1/jpeg/jchuff.c **** 
 597:fltk-1.3.4-1/jpeg/jchuff.c ****     /* Count/emit the Huffman-coded symbol for the number of bits */
 598:fltk-1.3.4-1/jpeg/jchuff.c ****     emit_dc_symbol(entropy, tbl, nbits);
 599:fltk-1.3.4-1/jpeg/jchuff.c **** 
 600:fltk-1.3.4-1/jpeg/jchuff.c ****     /* Emit that number of bits of the value, if positive, */
 601:fltk-1.3.4-1/jpeg/jchuff.c ****     /* or the complement of its magnitude, if negative. */
 602:fltk-1.3.4-1/jpeg/jchuff.c ****     if (nbits)			/* emit_bits rejects calls with size 0 */
 603:fltk-1.3.4-1/jpeg/jchuff.c ****       emit_bits_e(entropy, (unsigned int) temp2, nbits);
 604:fltk-1.3.4-1/jpeg/jchuff.c ****   }
 605:fltk-1.3.4-1/jpeg/jchuff.c **** 
 606:fltk-1.3.4-1/jpeg/jchuff.c ****   cinfo->dest->next_output_byte = entropy->next_output_byte;
 607:fltk-1.3.4-1/jpeg/jchuff.c ****   cinfo->dest->free_in_buffer = entropy->free_in_buffer;
 608:fltk-1.3.4-1/jpeg/jchuff.c **** 
 609:fltk-1.3.4-1/jpeg/jchuff.c ****   /* Update restart-interval state too */
 610:fltk-1.3.4-1/jpeg/jchuff.c ****   if (cinfo->restart_interval) {
 611:fltk-1.3.4-1/jpeg/jchuff.c ****     if (entropy->restarts_to_go == 0) {
 612:fltk-1.3.4-1/jpeg/jchuff.c ****       entropy->restarts_to_go = cinfo->restart_interval;
 613:fltk-1.3.4-1/jpeg/jchuff.c ****       entropy->next_restart_num++;
 614:fltk-1.3.4-1/jpeg/jchuff.c ****       entropy->next_restart_num &= 7;
 615:fltk-1.3.4-1/jpeg/jchuff.c ****     }
 616:fltk-1.3.4-1/jpeg/jchuff.c ****     entropy->restarts_to_go--;
 617:fltk-1.3.4-1/jpeg/jchuff.c ****   }
 618:fltk-1.3.4-1/jpeg/jchuff.c **** 
 619:fltk-1.3.4-1/jpeg/jchuff.c ****   return TRUE;
 620:fltk-1.3.4-1/jpeg/jchuff.c **** }
 621:fltk-1.3.4-1/jpeg/jchuff.c **** 
 622:fltk-1.3.4-1/jpeg/jchuff.c **** 
 623:fltk-1.3.4-1/jpeg/jchuff.c **** /*
 624:fltk-1.3.4-1/jpeg/jchuff.c ****  * MCU encoding for AC initial scan (either spectral selection,
 625:fltk-1.3.4-1/jpeg/jchuff.c ****  * or first pass of successive approximation).
 626:fltk-1.3.4-1/jpeg/jchuff.c ****  */
 627:fltk-1.3.4-1/jpeg/jchuff.c **** 
 628:fltk-1.3.4-1/jpeg/jchuff.c **** METHODDEF(boolean)
 629:fltk-1.3.4-1/jpeg/jchuff.c **** encode_mcu_AC_first (j_compress_ptr cinfo, JBLOCKROW *MCU_data)
 630:fltk-1.3.4-1/jpeg/jchuff.c **** {
 631:fltk-1.3.4-1/jpeg/jchuff.c ****   huff_entropy_ptr entropy = (huff_entropy_ptr) cinfo->entropy;
 632:fltk-1.3.4-1/jpeg/jchuff.c ****   const int * natural_order;
 633:fltk-1.3.4-1/jpeg/jchuff.c ****   JBLOCKROW block;
 634:fltk-1.3.4-1/jpeg/jchuff.c ****   register int temp, temp2;
 635:fltk-1.3.4-1/jpeg/jchuff.c ****   register int nbits;
 636:fltk-1.3.4-1/jpeg/jchuff.c ****   register int r, k;
 637:fltk-1.3.4-1/jpeg/jchuff.c ****   int Se, Al;
 638:fltk-1.3.4-1/jpeg/jchuff.c **** 
 639:fltk-1.3.4-1/jpeg/jchuff.c ****   entropy->next_output_byte = cinfo->dest->next_output_byte;
 640:fltk-1.3.4-1/jpeg/jchuff.c ****   entropy->free_in_buffer = cinfo->dest->free_in_buffer;
 641:fltk-1.3.4-1/jpeg/jchuff.c **** 
 642:fltk-1.3.4-1/jpeg/jchuff.c ****   /* Emit restart marker if needed */
 643:fltk-1.3.4-1/jpeg/jchuff.c ****   if (cinfo->restart_interval)
 644:fltk-1.3.4-1/jpeg/jchuff.c ****     if (entropy->restarts_to_go == 0)
 645:fltk-1.3.4-1/jpeg/jchuff.c ****       emit_restart_e(entropy, entropy->next_restart_num);
 646:fltk-1.3.4-1/jpeg/jchuff.c **** 
 647:fltk-1.3.4-1/jpeg/jchuff.c ****   Se = cinfo->Se;
 648:fltk-1.3.4-1/jpeg/jchuff.c ****   Al = cinfo->Al;
 649:fltk-1.3.4-1/jpeg/jchuff.c ****   natural_order = cinfo->natural_order;
 650:fltk-1.3.4-1/jpeg/jchuff.c **** 
 651:fltk-1.3.4-1/jpeg/jchuff.c ****   /* Encode the MCU data block */
 652:fltk-1.3.4-1/jpeg/jchuff.c ****   block = MCU_data[0];
 653:fltk-1.3.4-1/jpeg/jchuff.c **** 
 654:fltk-1.3.4-1/jpeg/jchuff.c ****   /* Encode the AC coefficients per section G.1.2.2, fig. G.3 */
 655:fltk-1.3.4-1/jpeg/jchuff.c ****   
 656:fltk-1.3.4-1/jpeg/jchuff.c ****   r = 0;			/* r = run length of zeros */
 657:fltk-1.3.4-1/jpeg/jchuff.c ****    
 658:fltk-1.3.4-1/jpeg/jchuff.c ****   for (k = cinfo->Ss; k <= Se; k++) {
 659:fltk-1.3.4-1/jpeg/jchuff.c ****     if ((temp = (*block)[natural_order[k]]) == 0) {
 660:fltk-1.3.4-1/jpeg/jchuff.c ****       r++;
 661:fltk-1.3.4-1/jpeg/jchuff.c ****       continue;
 662:fltk-1.3.4-1/jpeg/jchuff.c ****     }
 663:fltk-1.3.4-1/jpeg/jchuff.c ****     /* We must apply the point transform by Al.  For AC coefficients this
 664:fltk-1.3.4-1/jpeg/jchuff.c ****      * is an integer division with rounding towards 0.  To do this portably
 665:fltk-1.3.4-1/jpeg/jchuff.c ****      * in C, we shift after obtaining the absolute value; so the code is
 666:fltk-1.3.4-1/jpeg/jchuff.c ****      * interwoven with finding the abs value (temp) and output bits (temp2).
 667:fltk-1.3.4-1/jpeg/jchuff.c ****      */
 668:fltk-1.3.4-1/jpeg/jchuff.c ****     if (temp < 0) {
 669:fltk-1.3.4-1/jpeg/jchuff.c ****       temp = -temp;		/* temp is abs value of input */
 670:fltk-1.3.4-1/jpeg/jchuff.c ****       temp >>= Al;		/* apply the point transform */
 671:fltk-1.3.4-1/jpeg/jchuff.c ****       /* For a negative coef, want temp2 = bitwise complement of abs(coef) */
 672:fltk-1.3.4-1/jpeg/jchuff.c ****       temp2 = ~temp;
 673:fltk-1.3.4-1/jpeg/jchuff.c ****     } else {
 674:fltk-1.3.4-1/jpeg/jchuff.c ****       temp >>= Al;		/* apply the point transform */
 675:fltk-1.3.4-1/jpeg/jchuff.c ****       temp2 = temp;
 676:fltk-1.3.4-1/jpeg/jchuff.c ****     }
 677:fltk-1.3.4-1/jpeg/jchuff.c ****     /* Watch out for case that nonzero coef is zero after point transform */
 678:fltk-1.3.4-1/jpeg/jchuff.c ****     if (temp == 0) {
 679:fltk-1.3.4-1/jpeg/jchuff.c ****       r++;
 680:fltk-1.3.4-1/jpeg/jchuff.c ****       continue;
 681:fltk-1.3.4-1/jpeg/jchuff.c ****     }
 682:fltk-1.3.4-1/jpeg/jchuff.c **** 
 683:fltk-1.3.4-1/jpeg/jchuff.c ****     /* Emit any pending EOBRUN */
 684:fltk-1.3.4-1/jpeg/jchuff.c ****     if (entropy->EOBRUN > 0)
 685:fltk-1.3.4-1/jpeg/jchuff.c ****       emit_eobrun(entropy);
 686:fltk-1.3.4-1/jpeg/jchuff.c ****     /* if run length > 15, must emit special run-length-16 codes (0xF0) */
 687:fltk-1.3.4-1/jpeg/jchuff.c ****     while (r > 15) {
 688:fltk-1.3.4-1/jpeg/jchuff.c ****       emit_ac_symbol(entropy, entropy->ac_tbl_no, 0xF0);
 689:fltk-1.3.4-1/jpeg/jchuff.c ****       r -= 16;
 690:fltk-1.3.4-1/jpeg/jchuff.c ****     }
 691:fltk-1.3.4-1/jpeg/jchuff.c **** 
 692:fltk-1.3.4-1/jpeg/jchuff.c ****     /* Find the number of bits needed for the magnitude of the coefficient */
 693:fltk-1.3.4-1/jpeg/jchuff.c ****     nbits = 1;			/* there must be at least one 1 bit */
 694:fltk-1.3.4-1/jpeg/jchuff.c ****     while ((temp >>= 1))
 695:fltk-1.3.4-1/jpeg/jchuff.c ****       nbits++;
 696:fltk-1.3.4-1/jpeg/jchuff.c ****     /* Check for out-of-range coefficient values */
 697:fltk-1.3.4-1/jpeg/jchuff.c ****     if (nbits > MAX_COEF_BITS)
 698:fltk-1.3.4-1/jpeg/jchuff.c ****       ERREXIT(cinfo, JERR_BAD_DCT_COEF);
 699:fltk-1.3.4-1/jpeg/jchuff.c **** 
 700:fltk-1.3.4-1/jpeg/jchuff.c ****     /* Count/emit Huffman symbol for run length / number of bits */
 701:fltk-1.3.4-1/jpeg/jchuff.c ****     emit_ac_symbol(entropy, entropy->ac_tbl_no, (r << 4) + nbits);
 702:fltk-1.3.4-1/jpeg/jchuff.c **** 
 703:fltk-1.3.4-1/jpeg/jchuff.c ****     /* Emit that number of bits of the value, if positive, */
 704:fltk-1.3.4-1/jpeg/jchuff.c ****     /* or the complement of its magnitude, if negative. */
 705:fltk-1.3.4-1/jpeg/jchuff.c ****     emit_bits_e(entropy, (unsigned int) temp2, nbits);
 706:fltk-1.3.4-1/jpeg/jchuff.c **** 
 707:fltk-1.3.4-1/jpeg/jchuff.c ****     r = 0;			/* reset zero run length */
 708:fltk-1.3.4-1/jpeg/jchuff.c ****   }
 709:fltk-1.3.4-1/jpeg/jchuff.c **** 
 710:fltk-1.3.4-1/jpeg/jchuff.c ****   if (r > 0) {			/* If there are trailing zeroes, */
 711:fltk-1.3.4-1/jpeg/jchuff.c ****     entropy->EOBRUN++;		/* count an EOB */
 712:fltk-1.3.4-1/jpeg/jchuff.c ****     if (entropy->EOBRUN == 0x7FFF)
 713:fltk-1.3.4-1/jpeg/jchuff.c ****       emit_eobrun(entropy);	/* force it out to avoid overflow */
 714:fltk-1.3.4-1/jpeg/jchuff.c ****   }
 715:fltk-1.3.4-1/jpeg/jchuff.c **** 
 716:fltk-1.3.4-1/jpeg/jchuff.c ****   cinfo->dest->next_output_byte = entropy->next_output_byte;
 717:fltk-1.3.4-1/jpeg/jchuff.c ****   cinfo->dest->free_in_buffer = entropy->free_in_buffer;
 718:fltk-1.3.4-1/jpeg/jchuff.c **** 
 719:fltk-1.3.4-1/jpeg/jchuff.c ****   /* Update restart-interval state too */
 720:fltk-1.3.4-1/jpeg/jchuff.c ****   if (cinfo->restart_interval) {
 721:fltk-1.3.4-1/jpeg/jchuff.c ****     if (entropy->restarts_to_go == 0) {
 722:fltk-1.3.4-1/jpeg/jchuff.c ****       entropy->restarts_to_go = cinfo->restart_interval;
 723:fltk-1.3.4-1/jpeg/jchuff.c ****       entropy->next_restart_num++;
 724:fltk-1.3.4-1/jpeg/jchuff.c ****       entropy->next_restart_num &= 7;
 725:fltk-1.3.4-1/jpeg/jchuff.c ****     }
 726:fltk-1.3.4-1/jpeg/jchuff.c ****     entropy->restarts_to_go--;
 727:fltk-1.3.4-1/jpeg/jchuff.c ****   }
 728:fltk-1.3.4-1/jpeg/jchuff.c **** 
 729:fltk-1.3.4-1/jpeg/jchuff.c ****   return TRUE;
 730:fltk-1.3.4-1/jpeg/jchuff.c **** }
 731:fltk-1.3.4-1/jpeg/jchuff.c **** 
 732:fltk-1.3.4-1/jpeg/jchuff.c **** 
 733:fltk-1.3.4-1/jpeg/jchuff.c **** /*
 734:fltk-1.3.4-1/jpeg/jchuff.c ****  * MCU encoding for DC successive approximation refinement scan.
 735:fltk-1.3.4-1/jpeg/jchuff.c ****  * Note: we assume such scans can be multi-component,
 736:fltk-1.3.4-1/jpeg/jchuff.c ****  * although the spec is not very clear on the point.
 737:fltk-1.3.4-1/jpeg/jchuff.c ****  */
 738:fltk-1.3.4-1/jpeg/jchuff.c **** 
 739:fltk-1.3.4-1/jpeg/jchuff.c **** METHODDEF(boolean)
 740:fltk-1.3.4-1/jpeg/jchuff.c **** encode_mcu_DC_refine (j_compress_ptr cinfo, JBLOCKROW *MCU_data)
 741:fltk-1.3.4-1/jpeg/jchuff.c **** {
 742:fltk-1.3.4-1/jpeg/jchuff.c ****   huff_entropy_ptr entropy = (huff_entropy_ptr) cinfo->entropy;
 743:fltk-1.3.4-1/jpeg/jchuff.c ****   int Al, blkn;
 744:fltk-1.3.4-1/jpeg/jchuff.c **** 
 745:fltk-1.3.4-1/jpeg/jchuff.c ****   entropy->next_output_byte = cinfo->dest->next_output_byte;
 746:fltk-1.3.4-1/jpeg/jchuff.c ****   entropy->free_in_buffer = cinfo->dest->free_in_buffer;
 747:fltk-1.3.4-1/jpeg/jchuff.c **** 
 748:fltk-1.3.4-1/jpeg/jchuff.c ****   /* Emit restart marker if needed */
 749:fltk-1.3.4-1/jpeg/jchuff.c ****   if (cinfo->restart_interval)
 750:fltk-1.3.4-1/jpeg/jchuff.c ****     if (entropy->restarts_to_go == 0)
 751:fltk-1.3.4-1/jpeg/jchuff.c ****       emit_restart_e(entropy, entropy->next_restart_num);
 752:fltk-1.3.4-1/jpeg/jchuff.c **** 
 753:fltk-1.3.4-1/jpeg/jchuff.c ****   Al = cinfo->Al;
 754:fltk-1.3.4-1/jpeg/jchuff.c **** 
 755:fltk-1.3.4-1/jpeg/jchuff.c ****   /* Encode the MCU data blocks */
 756:fltk-1.3.4-1/jpeg/jchuff.c ****   for (blkn = 0; blkn < cinfo->blocks_in_MCU; blkn++) {
 757:fltk-1.3.4-1/jpeg/jchuff.c ****     /* We simply emit the Al'th bit of the DC coefficient value. */
 758:fltk-1.3.4-1/jpeg/jchuff.c ****     emit_bits_e(entropy, (unsigned int) (MCU_data[blkn][0][0] >> Al), 1);
 759:fltk-1.3.4-1/jpeg/jchuff.c ****   }
 760:fltk-1.3.4-1/jpeg/jchuff.c **** 
 761:fltk-1.3.4-1/jpeg/jchuff.c ****   cinfo->dest->next_output_byte = entropy->next_output_byte;
 762:fltk-1.3.4-1/jpeg/jchuff.c ****   cinfo->dest->free_in_buffer = entropy->free_in_buffer;
 763:fltk-1.3.4-1/jpeg/jchuff.c **** 
 764:fltk-1.3.4-1/jpeg/jchuff.c ****   /* Update restart-interval state too */
 765:fltk-1.3.4-1/jpeg/jchuff.c ****   if (cinfo->restart_interval) {
 766:fltk-1.3.4-1/jpeg/jchuff.c ****     if (entropy->restarts_to_go == 0) {
 767:fltk-1.3.4-1/jpeg/jchuff.c ****       entropy->restarts_to_go = cinfo->restart_interval;
 768:fltk-1.3.4-1/jpeg/jchuff.c ****       entropy->next_restart_num++;
 769:fltk-1.3.4-1/jpeg/jchuff.c ****       entropy->next_restart_num &= 7;
 770:fltk-1.3.4-1/jpeg/jchuff.c ****     }
 771:fltk-1.3.4-1/jpeg/jchuff.c ****     entropy->restarts_to_go--;
 772:fltk-1.3.4-1/jpeg/jchuff.c ****   }
 773:fltk-1.3.4-1/jpeg/jchuff.c **** 
 774:fltk-1.3.4-1/jpeg/jchuff.c ****   return TRUE;
 775:fltk-1.3.4-1/jpeg/jchuff.c **** }
 776:fltk-1.3.4-1/jpeg/jchuff.c **** 
 777:fltk-1.3.4-1/jpeg/jchuff.c **** 
 778:fltk-1.3.4-1/jpeg/jchuff.c **** /*
 779:fltk-1.3.4-1/jpeg/jchuff.c ****  * MCU encoding for AC successive approximation refinement scan.
 780:fltk-1.3.4-1/jpeg/jchuff.c ****  */
 781:fltk-1.3.4-1/jpeg/jchuff.c **** 
 782:fltk-1.3.4-1/jpeg/jchuff.c **** METHODDEF(boolean)
 783:fltk-1.3.4-1/jpeg/jchuff.c **** encode_mcu_AC_refine (j_compress_ptr cinfo, JBLOCKROW *MCU_data)
 784:fltk-1.3.4-1/jpeg/jchuff.c **** {
 785:fltk-1.3.4-1/jpeg/jchuff.c ****   huff_entropy_ptr entropy = (huff_entropy_ptr) cinfo->entropy;
 786:fltk-1.3.4-1/jpeg/jchuff.c ****   const int * natural_order;
 787:fltk-1.3.4-1/jpeg/jchuff.c ****   JBLOCKROW block;
 788:fltk-1.3.4-1/jpeg/jchuff.c ****   register int temp;
 789:fltk-1.3.4-1/jpeg/jchuff.c ****   register int r, k;
 790:fltk-1.3.4-1/jpeg/jchuff.c ****   int Se, Al;
 791:fltk-1.3.4-1/jpeg/jchuff.c ****   int EOB;
 792:fltk-1.3.4-1/jpeg/jchuff.c ****   char *BR_buffer;
 793:fltk-1.3.4-1/jpeg/jchuff.c ****   unsigned int BR;
 794:fltk-1.3.4-1/jpeg/jchuff.c ****   int absvalues[DCTSIZE2];
 795:fltk-1.3.4-1/jpeg/jchuff.c **** 
 796:fltk-1.3.4-1/jpeg/jchuff.c ****   entropy->next_output_byte = cinfo->dest->next_output_byte;
 797:fltk-1.3.4-1/jpeg/jchuff.c ****   entropy->free_in_buffer = cinfo->dest->free_in_buffer;
 798:fltk-1.3.4-1/jpeg/jchuff.c **** 
 799:fltk-1.3.4-1/jpeg/jchuff.c ****   /* Emit restart marker if needed */
 800:fltk-1.3.4-1/jpeg/jchuff.c ****   if (cinfo->restart_interval)
 801:fltk-1.3.4-1/jpeg/jchuff.c ****     if (entropy->restarts_to_go == 0)
 802:fltk-1.3.4-1/jpeg/jchuff.c ****       emit_restart_e(entropy, entropy->next_restart_num);
 803:fltk-1.3.4-1/jpeg/jchuff.c **** 
 804:fltk-1.3.4-1/jpeg/jchuff.c ****   Se = cinfo->Se;
 805:fltk-1.3.4-1/jpeg/jchuff.c ****   Al = cinfo->Al;
 806:fltk-1.3.4-1/jpeg/jchuff.c ****   natural_order = cinfo->natural_order;
 807:fltk-1.3.4-1/jpeg/jchuff.c **** 
 808:fltk-1.3.4-1/jpeg/jchuff.c ****   /* Encode the MCU data block */
 809:fltk-1.3.4-1/jpeg/jchuff.c ****   block = MCU_data[0];
 810:fltk-1.3.4-1/jpeg/jchuff.c **** 
 811:fltk-1.3.4-1/jpeg/jchuff.c ****   /* It is convenient to make a pre-pass to determine the transformed
 812:fltk-1.3.4-1/jpeg/jchuff.c ****    * coefficients' absolute values and the EOB position.
 813:fltk-1.3.4-1/jpeg/jchuff.c ****    */
 814:fltk-1.3.4-1/jpeg/jchuff.c ****   EOB = 0;
 815:fltk-1.3.4-1/jpeg/jchuff.c ****   for (k = cinfo->Ss; k <= Se; k++) {
 816:fltk-1.3.4-1/jpeg/jchuff.c ****     temp = (*block)[natural_order[k]];
 817:fltk-1.3.4-1/jpeg/jchuff.c ****     /* We must apply the point transform by Al.  For AC coefficients this
 818:fltk-1.3.4-1/jpeg/jchuff.c ****      * is an integer division with rounding towards 0.  To do this portably
 819:fltk-1.3.4-1/jpeg/jchuff.c ****      * in C, we shift after obtaining the absolute value.
 820:fltk-1.3.4-1/jpeg/jchuff.c ****      */
 821:fltk-1.3.4-1/jpeg/jchuff.c ****     if (temp < 0)
 822:fltk-1.3.4-1/jpeg/jchuff.c ****       temp = -temp;		/* temp is abs value of input */
 823:fltk-1.3.4-1/jpeg/jchuff.c ****     temp >>= Al;		/* apply the point transform */
 824:fltk-1.3.4-1/jpeg/jchuff.c ****     absvalues[k] = temp;	/* save abs value for main pass */
 825:fltk-1.3.4-1/jpeg/jchuff.c ****     if (temp == 1)
 826:fltk-1.3.4-1/jpeg/jchuff.c ****       EOB = k;			/* EOB = index of last newly-nonzero coef */
 827:fltk-1.3.4-1/jpeg/jchuff.c ****   }
 828:fltk-1.3.4-1/jpeg/jchuff.c **** 
 829:fltk-1.3.4-1/jpeg/jchuff.c ****   /* Encode the AC coefficients per section G.1.2.3, fig. G.7 */
 830:fltk-1.3.4-1/jpeg/jchuff.c ****   
 831:fltk-1.3.4-1/jpeg/jchuff.c ****   r = 0;			/* r = run length of zeros */
 832:fltk-1.3.4-1/jpeg/jchuff.c ****   BR = 0;			/* BR = count of buffered bits added now */
 833:fltk-1.3.4-1/jpeg/jchuff.c ****   BR_buffer = entropy->bit_buffer + entropy->BE; /* Append bits to buffer */
 834:fltk-1.3.4-1/jpeg/jchuff.c **** 
 835:fltk-1.3.4-1/jpeg/jchuff.c ****   for (k = cinfo->Ss; k <= Se; k++) {
 836:fltk-1.3.4-1/jpeg/jchuff.c ****     if ((temp = absvalues[k]) == 0) {
 837:fltk-1.3.4-1/jpeg/jchuff.c ****       r++;
 838:fltk-1.3.4-1/jpeg/jchuff.c ****       continue;
 839:fltk-1.3.4-1/jpeg/jchuff.c ****     }
 840:fltk-1.3.4-1/jpeg/jchuff.c **** 
 841:fltk-1.3.4-1/jpeg/jchuff.c ****     /* Emit any required ZRLs, but not if they can be folded into EOB */
 842:fltk-1.3.4-1/jpeg/jchuff.c ****     while (r > 15 && k <= EOB) {
 843:fltk-1.3.4-1/jpeg/jchuff.c ****       /* emit any pending EOBRUN and the BE correction bits */
 844:fltk-1.3.4-1/jpeg/jchuff.c ****       emit_eobrun(entropy);
 845:fltk-1.3.4-1/jpeg/jchuff.c ****       /* Emit ZRL */
 846:fltk-1.3.4-1/jpeg/jchuff.c ****       emit_ac_symbol(entropy, entropy->ac_tbl_no, 0xF0);
 847:fltk-1.3.4-1/jpeg/jchuff.c ****       r -= 16;
 848:fltk-1.3.4-1/jpeg/jchuff.c ****       /* Emit buffered correction bits that must be associated with ZRL */
 849:fltk-1.3.4-1/jpeg/jchuff.c ****       emit_buffered_bits(entropy, BR_buffer, BR);
 850:fltk-1.3.4-1/jpeg/jchuff.c ****       BR_buffer = entropy->bit_buffer; /* BE bits are gone now */
 851:fltk-1.3.4-1/jpeg/jchuff.c ****       BR = 0;
 852:fltk-1.3.4-1/jpeg/jchuff.c ****     }
 853:fltk-1.3.4-1/jpeg/jchuff.c **** 
 854:fltk-1.3.4-1/jpeg/jchuff.c ****     /* If the coef was previously nonzero, it only needs a correction bit.
 855:fltk-1.3.4-1/jpeg/jchuff.c ****      * NOTE: a straight translation of the spec's figure G.7 would suggest
 856:fltk-1.3.4-1/jpeg/jchuff.c ****      * that we also need to test r > 15.  But if r > 15, we can only get here
 857:fltk-1.3.4-1/jpeg/jchuff.c ****      * if k > EOB, which implies that this coefficient is not 1.
 858:fltk-1.3.4-1/jpeg/jchuff.c ****      */
 859:fltk-1.3.4-1/jpeg/jchuff.c ****     if (temp > 1) {
 860:fltk-1.3.4-1/jpeg/jchuff.c ****       /* The correction bit is the next bit of the absolute value. */
 861:fltk-1.3.4-1/jpeg/jchuff.c ****       BR_buffer[BR++] = (char) (temp & 1);
 862:fltk-1.3.4-1/jpeg/jchuff.c ****       continue;
 863:fltk-1.3.4-1/jpeg/jchuff.c ****     }
 864:fltk-1.3.4-1/jpeg/jchuff.c **** 
 865:fltk-1.3.4-1/jpeg/jchuff.c ****     /* Emit any pending EOBRUN and the BE correction bits */
 866:fltk-1.3.4-1/jpeg/jchuff.c ****     emit_eobrun(entropy);
 867:fltk-1.3.4-1/jpeg/jchuff.c **** 
 868:fltk-1.3.4-1/jpeg/jchuff.c ****     /* Count/emit Huffman symbol for run length / number of bits */
 869:fltk-1.3.4-1/jpeg/jchuff.c ****     emit_ac_symbol(entropy, entropy->ac_tbl_no, (r << 4) + 1);
 870:fltk-1.3.4-1/jpeg/jchuff.c **** 
 871:fltk-1.3.4-1/jpeg/jchuff.c ****     /* Emit output bit for newly-nonzero coef */
 872:fltk-1.3.4-1/jpeg/jchuff.c ****     temp = ((*block)[natural_order[k]] < 0) ? 0 : 1;
 873:fltk-1.3.4-1/jpeg/jchuff.c ****     emit_bits_e(entropy, (unsigned int) temp, 1);
 874:fltk-1.3.4-1/jpeg/jchuff.c **** 
 875:fltk-1.3.4-1/jpeg/jchuff.c ****     /* Emit buffered correction bits that must be associated with this code */
 876:fltk-1.3.4-1/jpeg/jchuff.c ****     emit_buffered_bits(entropy, BR_buffer, BR);
 877:fltk-1.3.4-1/jpeg/jchuff.c ****     BR_buffer = entropy->bit_buffer; /* BE bits are gone now */
 878:fltk-1.3.4-1/jpeg/jchuff.c ****     BR = 0;
 879:fltk-1.3.4-1/jpeg/jchuff.c ****     r = 0;			/* reset zero run length */
 880:fltk-1.3.4-1/jpeg/jchuff.c ****   }
 881:fltk-1.3.4-1/jpeg/jchuff.c **** 
 882:fltk-1.3.4-1/jpeg/jchuff.c ****   if (r > 0 || BR > 0) {	/* If there are trailing zeroes, */
 883:fltk-1.3.4-1/jpeg/jchuff.c ****     entropy->EOBRUN++;		/* count an EOB */
 884:fltk-1.3.4-1/jpeg/jchuff.c ****     entropy->BE += BR;		/* concat my correction bits to older ones */
 885:fltk-1.3.4-1/jpeg/jchuff.c ****     /* We force out the EOB if we risk either:
 886:fltk-1.3.4-1/jpeg/jchuff.c ****      * 1. overflow of the EOB counter;
 887:fltk-1.3.4-1/jpeg/jchuff.c ****      * 2. overflow of the correction bit buffer during the next MCU.
 888:fltk-1.3.4-1/jpeg/jchuff.c ****      */
 889:fltk-1.3.4-1/jpeg/jchuff.c ****     if (entropy->EOBRUN == 0x7FFF || entropy->BE > (MAX_CORR_BITS-DCTSIZE2+1))
 890:fltk-1.3.4-1/jpeg/jchuff.c ****       emit_eobrun(entropy);
 891:fltk-1.3.4-1/jpeg/jchuff.c ****   }
 892:fltk-1.3.4-1/jpeg/jchuff.c **** 
 893:fltk-1.3.4-1/jpeg/jchuff.c ****   cinfo->dest->next_output_byte = entropy->next_output_byte;
 894:fltk-1.3.4-1/jpeg/jchuff.c ****   cinfo->dest->free_in_buffer = entropy->free_in_buffer;
 895:fltk-1.3.4-1/jpeg/jchuff.c **** 
 896:fltk-1.3.4-1/jpeg/jchuff.c ****   /* Update restart-interval state too */
 897:fltk-1.3.4-1/jpeg/jchuff.c ****   if (cinfo->restart_interval) {
 898:fltk-1.3.4-1/jpeg/jchuff.c ****     if (entropy->restarts_to_go == 0) {
 899:fltk-1.3.4-1/jpeg/jchuff.c ****       entropy->restarts_to_go = cinfo->restart_interval;
 900:fltk-1.3.4-1/jpeg/jchuff.c ****       entropy->next_restart_num++;
 901:fltk-1.3.4-1/jpeg/jchuff.c ****       entropy->next_restart_num &= 7;
 902:fltk-1.3.4-1/jpeg/jchuff.c ****     }
 903:fltk-1.3.4-1/jpeg/jchuff.c ****     entropy->restarts_to_go--;
 904:fltk-1.3.4-1/jpeg/jchuff.c ****   }
 905:fltk-1.3.4-1/jpeg/jchuff.c **** 
 906:fltk-1.3.4-1/jpeg/jchuff.c ****   return TRUE;
 907:fltk-1.3.4-1/jpeg/jchuff.c **** }
 908:fltk-1.3.4-1/jpeg/jchuff.c **** 
 909:fltk-1.3.4-1/jpeg/jchuff.c **** 
 910:fltk-1.3.4-1/jpeg/jchuff.c **** /* Encode a single block's worth of coefficients */
 911:fltk-1.3.4-1/jpeg/jchuff.c **** 
 912:fltk-1.3.4-1/jpeg/jchuff.c **** LOCAL(boolean)
 913:fltk-1.3.4-1/jpeg/jchuff.c **** encode_one_block (working_state * state, JCOEFPTR block, int last_dc_val,
 914:fltk-1.3.4-1/jpeg/jchuff.c **** 		  c_derived_tbl *dctbl, c_derived_tbl *actbl)
 915:fltk-1.3.4-1/jpeg/jchuff.c **** {
 916:fltk-1.3.4-1/jpeg/jchuff.c ****   register int temp, temp2;
 917:fltk-1.3.4-1/jpeg/jchuff.c ****   register int nbits;
 918:fltk-1.3.4-1/jpeg/jchuff.c ****   register int r, k;
 919:fltk-1.3.4-1/jpeg/jchuff.c ****   int Se = state->cinfo->lim_Se;
 920:fltk-1.3.4-1/jpeg/jchuff.c ****   const int * natural_order = state->cinfo->natural_order;
 921:fltk-1.3.4-1/jpeg/jchuff.c **** 
 922:fltk-1.3.4-1/jpeg/jchuff.c ****   /* Encode the DC coefficient difference per section F.1.2.1 */
 923:fltk-1.3.4-1/jpeg/jchuff.c **** 
 924:fltk-1.3.4-1/jpeg/jchuff.c ****   temp = temp2 = block[0] - last_dc_val;
 925:fltk-1.3.4-1/jpeg/jchuff.c **** 
 926:fltk-1.3.4-1/jpeg/jchuff.c ****   if (temp < 0) {
 927:fltk-1.3.4-1/jpeg/jchuff.c ****     temp = -temp;		/* temp is abs value of input */
 928:fltk-1.3.4-1/jpeg/jchuff.c ****     /* For a negative input, want temp2 = bitwise complement of abs(input) */
 929:fltk-1.3.4-1/jpeg/jchuff.c ****     /* This code assumes we are on a two's complement machine */
 930:fltk-1.3.4-1/jpeg/jchuff.c ****     temp2--;
 931:fltk-1.3.4-1/jpeg/jchuff.c ****   }
 932:fltk-1.3.4-1/jpeg/jchuff.c **** 
 933:fltk-1.3.4-1/jpeg/jchuff.c ****   /* Find the number of bits needed for the magnitude of the coefficient */
 934:fltk-1.3.4-1/jpeg/jchuff.c ****   nbits = 0;
 935:fltk-1.3.4-1/jpeg/jchuff.c ****   while (temp) {
 936:fltk-1.3.4-1/jpeg/jchuff.c ****     nbits++;
 937:fltk-1.3.4-1/jpeg/jchuff.c ****     temp >>= 1;
 938:fltk-1.3.4-1/jpeg/jchuff.c ****   }
 939:fltk-1.3.4-1/jpeg/jchuff.c ****   /* Check for out-of-range coefficient values.
 940:fltk-1.3.4-1/jpeg/jchuff.c ****    * Since we're encoding a difference, the range limit is twice as much.
 941:fltk-1.3.4-1/jpeg/jchuff.c ****    */
 942:fltk-1.3.4-1/jpeg/jchuff.c ****   if (nbits > MAX_COEF_BITS+1)
 943:fltk-1.3.4-1/jpeg/jchuff.c ****     ERREXIT(state->cinfo, JERR_BAD_DCT_COEF);
 944:fltk-1.3.4-1/jpeg/jchuff.c **** 
 945:fltk-1.3.4-1/jpeg/jchuff.c ****   /* Emit the Huffman-coded symbol for the number of bits */
 946:fltk-1.3.4-1/jpeg/jchuff.c ****   if (! emit_bits_s(state, dctbl->ehufco[nbits], dctbl->ehufsi[nbits]))
 947:fltk-1.3.4-1/jpeg/jchuff.c ****     return FALSE;
 948:fltk-1.3.4-1/jpeg/jchuff.c **** 
 949:fltk-1.3.4-1/jpeg/jchuff.c ****   /* Emit that number of bits of the value, if positive, */
 950:fltk-1.3.4-1/jpeg/jchuff.c ****   /* or the complement of its magnitude, if negative. */
 951:fltk-1.3.4-1/jpeg/jchuff.c ****   if (nbits)			/* emit_bits rejects calls with size 0 */
 952:fltk-1.3.4-1/jpeg/jchuff.c ****     if (! emit_bits_s(state, (unsigned int) temp2, nbits))
 953:fltk-1.3.4-1/jpeg/jchuff.c ****       return FALSE;
 954:fltk-1.3.4-1/jpeg/jchuff.c **** 
 955:fltk-1.3.4-1/jpeg/jchuff.c ****   /* Encode the AC coefficients per section F.1.2.2 */
 956:fltk-1.3.4-1/jpeg/jchuff.c **** 
 957:fltk-1.3.4-1/jpeg/jchuff.c ****   r = 0;			/* r = run length of zeros */
 958:fltk-1.3.4-1/jpeg/jchuff.c **** 
 959:fltk-1.3.4-1/jpeg/jchuff.c ****   for (k = 1; k <= Se; k++) {
 960:fltk-1.3.4-1/jpeg/jchuff.c ****     if ((temp2 = block[natural_order[k]]) == 0) {
 961:fltk-1.3.4-1/jpeg/jchuff.c ****       r++;
 962:fltk-1.3.4-1/jpeg/jchuff.c ****     } else {
 963:fltk-1.3.4-1/jpeg/jchuff.c ****       /* if run length > 15, must emit special run-length-16 codes (0xF0) */
 964:fltk-1.3.4-1/jpeg/jchuff.c ****       while (r > 15) {
 965:fltk-1.3.4-1/jpeg/jchuff.c **** 	if (! emit_bits_s(state, actbl->ehufco[0xF0], actbl->ehufsi[0xF0]))
 966:fltk-1.3.4-1/jpeg/jchuff.c **** 	  return FALSE;
 967:fltk-1.3.4-1/jpeg/jchuff.c **** 	r -= 16;
 968:fltk-1.3.4-1/jpeg/jchuff.c ****       }
 969:fltk-1.3.4-1/jpeg/jchuff.c **** 
 970:fltk-1.3.4-1/jpeg/jchuff.c ****       temp = temp2;
 971:fltk-1.3.4-1/jpeg/jchuff.c ****       if (temp < 0) {
 972:fltk-1.3.4-1/jpeg/jchuff.c **** 	temp = -temp;		/* temp is abs value of input */
 973:fltk-1.3.4-1/jpeg/jchuff.c **** 	/* This code assumes we are on a two's complement machine */
 974:fltk-1.3.4-1/jpeg/jchuff.c **** 	temp2--;
 975:fltk-1.3.4-1/jpeg/jchuff.c ****       }
 976:fltk-1.3.4-1/jpeg/jchuff.c **** 
 977:fltk-1.3.4-1/jpeg/jchuff.c ****       /* Find the number of bits needed for the magnitude of the coefficient */
 978:fltk-1.3.4-1/jpeg/jchuff.c ****       nbits = 1;		/* there must be at least one 1 bit */
 979:fltk-1.3.4-1/jpeg/jchuff.c ****       while ((temp >>= 1))
 980:fltk-1.3.4-1/jpeg/jchuff.c **** 	nbits++;
 981:fltk-1.3.4-1/jpeg/jchuff.c ****       /* Check for out-of-range coefficient values */
 982:fltk-1.3.4-1/jpeg/jchuff.c ****       if (nbits > MAX_COEF_BITS)
 983:fltk-1.3.4-1/jpeg/jchuff.c **** 	ERREXIT(state->cinfo, JERR_BAD_DCT_COEF);
 984:fltk-1.3.4-1/jpeg/jchuff.c **** 
 985:fltk-1.3.4-1/jpeg/jchuff.c ****       /* Emit Huffman symbol for run length / number of bits */
 986:fltk-1.3.4-1/jpeg/jchuff.c ****       temp = (r << 4) + nbits;
 987:fltk-1.3.4-1/jpeg/jchuff.c ****       if (! emit_bits_s(state, actbl->ehufco[temp], actbl->ehufsi[temp]))
 988:fltk-1.3.4-1/jpeg/jchuff.c **** 	return FALSE;
 989:fltk-1.3.4-1/jpeg/jchuff.c **** 
 990:fltk-1.3.4-1/jpeg/jchuff.c ****       /* Emit that number of bits of the value, if positive, */
 991:fltk-1.3.4-1/jpeg/jchuff.c ****       /* or the complement of its magnitude, if negative. */
 992:fltk-1.3.4-1/jpeg/jchuff.c ****       if (! emit_bits_s(state, (unsigned int) temp2, nbits))
 993:fltk-1.3.4-1/jpeg/jchuff.c **** 	return FALSE;
 994:fltk-1.3.4-1/jpeg/jchuff.c **** 
 995:fltk-1.3.4-1/jpeg/jchuff.c ****       r = 0;
 996:fltk-1.3.4-1/jpeg/jchuff.c ****     }
 997:fltk-1.3.4-1/jpeg/jchuff.c ****   }
 998:fltk-1.3.4-1/jpeg/jchuff.c **** 
 999:fltk-1.3.4-1/jpeg/jchuff.c ****   /* If the last coef(s) were zero, emit an end-of-block code */
1000:fltk-1.3.4-1/jpeg/jchuff.c ****   if (r > 0)
1001:fltk-1.3.4-1/jpeg/jchuff.c ****     if (! emit_bits_s(state, actbl->ehufco[0], actbl->ehufsi[0]))
1002:fltk-1.3.4-1/jpeg/jchuff.c ****       return FALSE;
1003:fltk-1.3.4-1/jpeg/jchuff.c **** 
1004:fltk-1.3.4-1/jpeg/jchuff.c ****   return TRUE;
1005:fltk-1.3.4-1/jpeg/jchuff.c **** }
1006:fltk-1.3.4-1/jpeg/jchuff.c **** 
1007:fltk-1.3.4-1/jpeg/jchuff.c **** 
1008:fltk-1.3.4-1/jpeg/jchuff.c **** /*
1009:fltk-1.3.4-1/jpeg/jchuff.c ****  * Encode and output one MCU's worth of Huffman-compressed coefficients.
1010:fltk-1.3.4-1/jpeg/jchuff.c ****  */
1011:fltk-1.3.4-1/jpeg/jchuff.c **** 
1012:fltk-1.3.4-1/jpeg/jchuff.c **** METHODDEF(boolean)
1013:fltk-1.3.4-1/jpeg/jchuff.c **** encode_mcu_huff (j_compress_ptr cinfo, JBLOCKROW *MCU_data)
1014:fltk-1.3.4-1/jpeg/jchuff.c **** {
1015:fltk-1.3.4-1/jpeg/jchuff.c ****   huff_entropy_ptr entropy = (huff_entropy_ptr) cinfo->entropy;
1016:fltk-1.3.4-1/jpeg/jchuff.c ****   working_state state;
1017:fltk-1.3.4-1/jpeg/jchuff.c ****   int blkn, ci;
1018:fltk-1.3.4-1/jpeg/jchuff.c ****   jpeg_component_info * compptr;
1019:fltk-1.3.4-1/jpeg/jchuff.c **** 
1020:fltk-1.3.4-1/jpeg/jchuff.c ****   /* Load up working state */
1021:fltk-1.3.4-1/jpeg/jchuff.c ****   state.next_output_byte = cinfo->dest->next_output_byte;
1022:fltk-1.3.4-1/jpeg/jchuff.c ****   state.free_in_buffer = cinfo->dest->free_in_buffer;
1023:fltk-1.3.4-1/jpeg/jchuff.c ****   ASSIGN_STATE(state.cur, entropy->saved);
1024:fltk-1.3.4-1/jpeg/jchuff.c ****   state.cinfo = cinfo;
1025:fltk-1.3.4-1/jpeg/jchuff.c **** 
1026:fltk-1.3.4-1/jpeg/jchuff.c ****   /* Emit restart marker if needed */
1027:fltk-1.3.4-1/jpeg/jchuff.c ****   if (cinfo->restart_interval) {
1028:fltk-1.3.4-1/jpeg/jchuff.c ****     if (entropy->restarts_to_go == 0)
1029:fltk-1.3.4-1/jpeg/jchuff.c ****       if (! emit_restart_s(&state, entropy->next_restart_num))
1030:fltk-1.3.4-1/jpeg/jchuff.c **** 	return FALSE;
1031:fltk-1.3.4-1/jpeg/jchuff.c ****   }
1032:fltk-1.3.4-1/jpeg/jchuff.c **** 
1033:fltk-1.3.4-1/jpeg/jchuff.c ****   /* Encode the MCU data blocks */
1034:fltk-1.3.4-1/jpeg/jchuff.c ****   for (blkn = 0; blkn < cinfo->blocks_in_MCU; blkn++) {
1035:fltk-1.3.4-1/jpeg/jchuff.c ****     ci = cinfo->MCU_membership[blkn];
1036:fltk-1.3.4-1/jpeg/jchuff.c ****     compptr = cinfo->cur_comp_info[ci];
1037:fltk-1.3.4-1/jpeg/jchuff.c ****     if (! encode_one_block(&state,
1038:fltk-1.3.4-1/jpeg/jchuff.c **** 			   MCU_data[blkn][0], state.cur.last_dc_val[ci],
1039:fltk-1.3.4-1/jpeg/jchuff.c **** 			   entropy->dc_derived_tbls[compptr->dc_tbl_no],
1040:fltk-1.3.4-1/jpeg/jchuff.c **** 			   entropy->ac_derived_tbls[compptr->ac_tbl_no]))
1041:fltk-1.3.4-1/jpeg/jchuff.c ****       return FALSE;
1042:fltk-1.3.4-1/jpeg/jchuff.c ****     /* Update last_dc_val */
1043:fltk-1.3.4-1/jpeg/jchuff.c ****     state.cur.last_dc_val[ci] = MCU_data[blkn][0][0];
1044:fltk-1.3.4-1/jpeg/jchuff.c ****   }
1045:fltk-1.3.4-1/jpeg/jchuff.c **** 
1046:fltk-1.3.4-1/jpeg/jchuff.c ****   /* Completed MCU, so update state */
1047:fltk-1.3.4-1/jpeg/jchuff.c ****   cinfo->dest->next_output_byte = state.next_output_byte;
1048:fltk-1.3.4-1/jpeg/jchuff.c ****   cinfo->dest->free_in_buffer = state.free_in_buffer;
1049:fltk-1.3.4-1/jpeg/jchuff.c ****   ASSIGN_STATE(entropy->saved, state.cur);
1050:fltk-1.3.4-1/jpeg/jchuff.c **** 
1051:fltk-1.3.4-1/jpeg/jchuff.c ****   /* Update restart-interval state too */
1052:fltk-1.3.4-1/jpeg/jchuff.c ****   if (cinfo->restart_interval) {
1053:fltk-1.3.4-1/jpeg/jchuff.c ****     if (entropy->restarts_to_go == 0) {
1054:fltk-1.3.4-1/jpeg/jchuff.c ****       entropy->restarts_to_go = cinfo->restart_interval;
1055:fltk-1.3.4-1/jpeg/jchuff.c ****       entropy->next_restart_num++;
1056:fltk-1.3.4-1/jpeg/jchuff.c ****       entropy->next_restart_num &= 7;
1057:fltk-1.3.4-1/jpeg/jchuff.c ****     }
1058:fltk-1.3.4-1/jpeg/jchuff.c ****     entropy->restarts_to_go--;
1059:fltk-1.3.4-1/jpeg/jchuff.c ****   }
1060:fltk-1.3.4-1/jpeg/jchuff.c **** 
1061:fltk-1.3.4-1/jpeg/jchuff.c ****   return TRUE;
1062:fltk-1.3.4-1/jpeg/jchuff.c **** }
1063:fltk-1.3.4-1/jpeg/jchuff.c **** 
1064:fltk-1.3.4-1/jpeg/jchuff.c **** 
1065:fltk-1.3.4-1/jpeg/jchuff.c **** /*
1066:fltk-1.3.4-1/jpeg/jchuff.c ****  * Finish up at the end of a Huffman-compressed scan.
1067:fltk-1.3.4-1/jpeg/jchuff.c ****  */
1068:fltk-1.3.4-1/jpeg/jchuff.c **** 
1069:fltk-1.3.4-1/jpeg/jchuff.c **** METHODDEF(void)
1070:fltk-1.3.4-1/jpeg/jchuff.c **** finish_pass_huff (j_compress_ptr cinfo)
1071:fltk-1.3.4-1/jpeg/jchuff.c **** {
1072:fltk-1.3.4-1/jpeg/jchuff.c ****   huff_entropy_ptr entropy = (huff_entropy_ptr) cinfo->entropy;
1073:fltk-1.3.4-1/jpeg/jchuff.c ****   working_state state;
1074:fltk-1.3.4-1/jpeg/jchuff.c **** 
1075:fltk-1.3.4-1/jpeg/jchuff.c ****   if (cinfo->progressive_mode) {
1076:fltk-1.3.4-1/jpeg/jchuff.c ****     entropy->next_output_byte = cinfo->dest->next_output_byte;
1077:fltk-1.3.4-1/jpeg/jchuff.c ****     entropy->free_in_buffer = cinfo->dest->free_in_buffer;
1078:fltk-1.3.4-1/jpeg/jchuff.c **** 
1079:fltk-1.3.4-1/jpeg/jchuff.c ****     /* Flush out any buffered data */
1080:fltk-1.3.4-1/jpeg/jchuff.c ****     emit_eobrun(entropy);
1081:fltk-1.3.4-1/jpeg/jchuff.c ****     flush_bits_e(entropy);
1082:fltk-1.3.4-1/jpeg/jchuff.c **** 
1083:fltk-1.3.4-1/jpeg/jchuff.c ****     cinfo->dest->next_output_byte = entropy->next_output_byte;
1084:fltk-1.3.4-1/jpeg/jchuff.c ****     cinfo->dest->free_in_buffer = entropy->free_in_buffer;
1085:fltk-1.3.4-1/jpeg/jchuff.c ****   } else {
1086:fltk-1.3.4-1/jpeg/jchuff.c ****     /* Load up working state ... flush_bits needs it */
1087:fltk-1.3.4-1/jpeg/jchuff.c ****     state.next_output_byte = cinfo->dest->next_output_byte;
1088:fltk-1.3.4-1/jpeg/jchuff.c ****     state.free_in_buffer = cinfo->dest->free_in_buffer;
1089:fltk-1.3.4-1/jpeg/jchuff.c ****     ASSIGN_STATE(state.cur, entropy->saved);
1090:fltk-1.3.4-1/jpeg/jchuff.c ****     state.cinfo = cinfo;
1091:fltk-1.3.4-1/jpeg/jchuff.c **** 
1092:fltk-1.3.4-1/jpeg/jchuff.c ****     /* Flush out the last data */
1093:fltk-1.3.4-1/jpeg/jchuff.c ****     if (! flush_bits_s(&state))
1094:fltk-1.3.4-1/jpeg/jchuff.c ****       ERREXIT(cinfo, JERR_CANT_SUSPEND);
1095:fltk-1.3.4-1/jpeg/jchuff.c **** 
1096:fltk-1.3.4-1/jpeg/jchuff.c ****     /* Update state */
1097:fltk-1.3.4-1/jpeg/jchuff.c ****     cinfo->dest->next_output_byte = state.next_output_byte;
1098:fltk-1.3.4-1/jpeg/jchuff.c ****     cinfo->dest->free_in_buffer = state.free_in_buffer;
1099:fltk-1.3.4-1/jpeg/jchuff.c ****     ASSIGN_STATE(entropy->saved, state.cur);
1100:fltk-1.3.4-1/jpeg/jchuff.c ****   }
1101:fltk-1.3.4-1/jpeg/jchuff.c **** }
1102:fltk-1.3.4-1/jpeg/jchuff.c **** 
1103:fltk-1.3.4-1/jpeg/jchuff.c **** 
1104:fltk-1.3.4-1/jpeg/jchuff.c **** /*
1105:fltk-1.3.4-1/jpeg/jchuff.c ****  * Huffman coding optimization.
1106:fltk-1.3.4-1/jpeg/jchuff.c ****  *
1107:fltk-1.3.4-1/jpeg/jchuff.c ****  * We first scan the supplied data and count the number of uses of each symbol
1108:fltk-1.3.4-1/jpeg/jchuff.c ****  * that is to be Huffman-coded. (This process MUST agree with the code above.)
1109:fltk-1.3.4-1/jpeg/jchuff.c ****  * Then we build a Huffman coding tree for the observed counts.
1110:fltk-1.3.4-1/jpeg/jchuff.c ****  * Symbols which are not needed at all for the particular image are not
1111:fltk-1.3.4-1/jpeg/jchuff.c ****  * assigned any code, which saves space in the DHT marker as well as in
1112:fltk-1.3.4-1/jpeg/jchuff.c ****  * the compressed data.
1113:fltk-1.3.4-1/jpeg/jchuff.c ****  */
1114:fltk-1.3.4-1/jpeg/jchuff.c **** 
1115:fltk-1.3.4-1/jpeg/jchuff.c **** 
1116:fltk-1.3.4-1/jpeg/jchuff.c **** /* Process a single block's worth of coefficients */
1117:fltk-1.3.4-1/jpeg/jchuff.c **** 
1118:fltk-1.3.4-1/jpeg/jchuff.c **** LOCAL(void)
1119:fltk-1.3.4-1/jpeg/jchuff.c **** htest_one_block (j_compress_ptr cinfo, JCOEFPTR block, int last_dc_val,
1120:fltk-1.3.4-1/jpeg/jchuff.c **** 		 long dc_counts[], long ac_counts[])
1121:fltk-1.3.4-1/jpeg/jchuff.c **** {
1122:fltk-1.3.4-1/jpeg/jchuff.c ****   register int temp;
1123:fltk-1.3.4-1/jpeg/jchuff.c ****   register int nbits;
1124:fltk-1.3.4-1/jpeg/jchuff.c ****   register int r, k;
1125:fltk-1.3.4-1/jpeg/jchuff.c ****   int Se = cinfo->lim_Se;
1126:fltk-1.3.4-1/jpeg/jchuff.c ****   const int * natural_order = cinfo->natural_order;
1127:fltk-1.3.4-1/jpeg/jchuff.c **** 
1128:fltk-1.3.4-1/jpeg/jchuff.c ****   /* Encode the DC coefficient difference per section F.1.2.1 */
1129:fltk-1.3.4-1/jpeg/jchuff.c **** 
1130:fltk-1.3.4-1/jpeg/jchuff.c ****   temp = block[0] - last_dc_val;
1131:fltk-1.3.4-1/jpeg/jchuff.c ****   if (temp < 0)
1132:fltk-1.3.4-1/jpeg/jchuff.c ****     temp = -temp;
1133:fltk-1.3.4-1/jpeg/jchuff.c **** 
1134:fltk-1.3.4-1/jpeg/jchuff.c ****   /* Find the number of bits needed for the magnitude of the coefficient */
1135:fltk-1.3.4-1/jpeg/jchuff.c ****   nbits = 0;
1136:fltk-1.3.4-1/jpeg/jchuff.c ****   while (temp) {
1137:fltk-1.3.4-1/jpeg/jchuff.c ****     nbits++;
1138:fltk-1.3.4-1/jpeg/jchuff.c ****     temp >>= 1;
1139:fltk-1.3.4-1/jpeg/jchuff.c ****   }
1140:fltk-1.3.4-1/jpeg/jchuff.c ****   /* Check for out-of-range coefficient values.
1141:fltk-1.3.4-1/jpeg/jchuff.c ****    * Since we're encoding a difference, the range limit is twice as much.
1142:fltk-1.3.4-1/jpeg/jchuff.c ****    */
1143:fltk-1.3.4-1/jpeg/jchuff.c ****   if (nbits > MAX_COEF_BITS+1)
1144:fltk-1.3.4-1/jpeg/jchuff.c ****     ERREXIT(cinfo, JERR_BAD_DCT_COEF);
1145:fltk-1.3.4-1/jpeg/jchuff.c **** 
1146:fltk-1.3.4-1/jpeg/jchuff.c ****   /* Count the Huffman symbol for the number of bits */
1147:fltk-1.3.4-1/jpeg/jchuff.c ****   dc_counts[nbits]++;
1148:fltk-1.3.4-1/jpeg/jchuff.c **** 
1149:fltk-1.3.4-1/jpeg/jchuff.c ****   /* Encode the AC coefficients per section F.1.2.2 */
1150:fltk-1.3.4-1/jpeg/jchuff.c **** 
1151:fltk-1.3.4-1/jpeg/jchuff.c ****   r = 0;			/* r = run length of zeros */
1152:fltk-1.3.4-1/jpeg/jchuff.c **** 
1153:fltk-1.3.4-1/jpeg/jchuff.c ****   for (k = 1; k <= Se; k++) {
1154:fltk-1.3.4-1/jpeg/jchuff.c ****     if ((temp = block[natural_order[k]]) == 0) {
1155:fltk-1.3.4-1/jpeg/jchuff.c ****       r++;
1156:fltk-1.3.4-1/jpeg/jchuff.c ****     } else {
1157:fltk-1.3.4-1/jpeg/jchuff.c ****       /* if run length > 15, must emit special run-length-16 codes (0xF0) */
1158:fltk-1.3.4-1/jpeg/jchuff.c ****       while (r > 15) {
1159:fltk-1.3.4-1/jpeg/jchuff.c **** 	ac_counts[0xF0]++;
1160:fltk-1.3.4-1/jpeg/jchuff.c **** 	r -= 16;
1161:fltk-1.3.4-1/jpeg/jchuff.c ****       }
1162:fltk-1.3.4-1/jpeg/jchuff.c **** 
1163:fltk-1.3.4-1/jpeg/jchuff.c ****       /* Find the number of bits needed for the magnitude of the coefficient */
1164:fltk-1.3.4-1/jpeg/jchuff.c ****       if (temp < 0)
1165:fltk-1.3.4-1/jpeg/jchuff.c **** 	temp = -temp;
1166:fltk-1.3.4-1/jpeg/jchuff.c **** 
1167:fltk-1.3.4-1/jpeg/jchuff.c ****       /* Find the number of bits needed for the magnitude of the coefficient */
1168:fltk-1.3.4-1/jpeg/jchuff.c ****       nbits = 1;		/* there must be at least one 1 bit */
1169:fltk-1.3.4-1/jpeg/jchuff.c ****       while ((temp >>= 1))
1170:fltk-1.3.4-1/jpeg/jchuff.c **** 	nbits++;
1171:fltk-1.3.4-1/jpeg/jchuff.c ****       /* Check for out-of-range coefficient values */
1172:fltk-1.3.4-1/jpeg/jchuff.c ****       if (nbits > MAX_COEF_BITS)
1173:fltk-1.3.4-1/jpeg/jchuff.c **** 	ERREXIT(cinfo, JERR_BAD_DCT_COEF);
1174:fltk-1.3.4-1/jpeg/jchuff.c **** 
1175:fltk-1.3.4-1/jpeg/jchuff.c ****       /* Count Huffman symbol for run length / number of bits */
1176:fltk-1.3.4-1/jpeg/jchuff.c ****       ac_counts[(r << 4) + nbits]++;
1177:fltk-1.3.4-1/jpeg/jchuff.c **** 
1178:fltk-1.3.4-1/jpeg/jchuff.c ****       r = 0;
1179:fltk-1.3.4-1/jpeg/jchuff.c ****     }
1180:fltk-1.3.4-1/jpeg/jchuff.c ****   }
1181:fltk-1.3.4-1/jpeg/jchuff.c **** 
1182:fltk-1.3.4-1/jpeg/jchuff.c ****   /* If the last coef(s) were zero, emit an end-of-block code */
1183:fltk-1.3.4-1/jpeg/jchuff.c ****   if (r > 0)
1184:fltk-1.3.4-1/jpeg/jchuff.c ****     ac_counts[0]++;
1185:fltk-1.3.4-1/jpeg/jchuff.c **** }
1186:fltk-1.3.4-1/jpeg/jchuff.c **** 
1187:fltk-1.3.4-1/jpeg/jchuff.c **** 
1188:fltk-1.3.4-1/jpeg/jchuff.c **** /*
1189:fltk-1.3.4-1/jpeg/jchuff.c ****  * Trial-encode one MCU's worth of Huffman-compressed coefficients.
1190:fltk-1.3.4-1/jpeg/jchuff.c ****  * No data is actually output, so no suspension return is possible.
1191:fltk-1.3.4-1/jpeg/jchuff.c ****  */
1192:fltk-1.3.4-1/jpeg/jchuff.c **** 
1193:fltk-1.3.4-1/jpeg/jchuff.c **** METHODDEF(boolean)
1194:fltk-1.3.4-1/jpeg/jchuff.c **** encode_mcu_gather (j_compress_ptr cinfo, JBLOCKROW *MCU_data)
1195:fltk-1.3.4-1/jpeg/jchuff.c **** {
  77              		.loc 1 1195 1 is_stmt 1 view -0
  78              		.cfi_startproc
  79              		.loc 1 1195 1 is_stmt 0 view .LVU19
  80 0000 F30F1EFA 		endbr64
1196:fltk-1.3.4-1/jpeg/jchuff.c ****   huff_entropy_ptr entropy = (huff_entropy_ptr) cinfo->entropy;
  81              		.loc 1 1196 3 is_stmt 1 view .LVU20
1195:fltk-1.3.4-1/jpeg/jchuff.c ****   huff_entropy_ptr entropy = (huff_entropy_ptr) cinfo->entropy;
  82              		.loc 1 1195 1 is_stmt 0 view .LVU21
  83 0004 4157     		pushq	%r15
  84              		.cfi_def_cfa_offset 16
  85              		.cfi_offset 15, -16
  86 0006 4989FF   		movq	%rdi, %r15
  87 0009 4156     		pushq	%r14
  88              		.cfi_def_cfa_offset 24
  89              		.cfi_offset 14, -24
  90 000b 4155     		pushq	%r13
  91              		.cfi_def_cfa_offset 32
  92              		.cfi_offset 13, -32
  93 000d 4154     		pushq	%r12
  94              		.cfi_def_cfa_offset 40
  95              		.cfi_offset 12, -40
  96 000f 55       		pushq	%rbp
  97              		.cfi_def_cfa_offset 48
  98              		.cfi_offset 6, -48
  99 0010 53       		pushq	%rbx
 100              		.cfi_def_cfa_offset 56
 101              		.cfi_offset 3, -56
 102 0011 4883EC38 		subq	$56, %rsp
 103              		.cfi_def_cfa_offset 112
1197:fltk-1.3.4-1/jpeg/jchuff.c ****   int blkn, ci;
1198:fltk-1.3.4-1/jpeg/jchuff.c ****   jpeg_component_info * compptr;
1199:fltk-1.3.4-1/jpeg/jchuff.c **** 
1200:fltk-1.3.4-1/jpeg/jchuff.c ****   /* Take care of restart intervals if needed */
1201:fltk-1.3.4-1/jpeg/jchuff.c ****   if (cinfo->restart_interval) {
 104              		.loc 1 1201 12 view .LVU22
 105 0015 8B973C01 		movl	316(%rdi), %edx
 105      0000
1196:fltk-1.3.4-1/jpeg/jchuff.c ****   int blkn, ci;
 106              		.loc 1 1196 20 view .LVU23
 107 001b 488BAF30 		movq	560(%rdi), %rbp
 107      020000
 108              	.LVL8:
1197:fltk-1.3.4-1/jpeg/jchuff.c ****   int blkn, ci;
 109              		.loc 1 1197 3 is_stmt 1 view .LVU24
1198:fltk-1.3.4-1/jpeg/jchuff.c **** 
 110              		.loc 1 1198 3 view .LVU25
 111              		.loc 1 1201 3 view .LVU26
1195:fltk-1.3.4-1/jpeg/jchuff.c ****   huff_entropy_ptr entropy = (huff_entropy_ptr) cinfo->entropy;
 112              		.loc 1 1195 1 is_stmt 0 view .LVU27
 113 0022 48897424 		movq	%rsi, 24(%rsp)
 113      18
 114              		.loc 1 1201 6 view .LVU28
 115 0027 85D2     		testl	%edx, %edx
 116 0029 7411     		je	.L6
1202:fltk-1.3.4-1/jpeg/jchuff.c ****     if (entropy->restarts_to_go == 0) {
 117              		.loc 1 1202 5 is_stmt 1 view .LVU29
 118              		.loc 1 1202 16 is_stmt 0 view .LVU30
 119 002b 8B4538   		movl	56(%rbp), %eax
 120              		.loc 1 1202 8 view .LVU31
 121 002e 85C0     		testl	%eax, %eax
 122 0030 0F84DA01 		je	.L46
 122      0000
 123              	.L7:
1203:fltk-1.3.4-1/jpeg/jchuff.c ****       /* Re-initialize DC predictions to 0 */
1204:fltk-1.3.4-1/jpeg/jchuff.c ****       for (ci = 0; ci < cinfo->comps_in_scan; ci++)
1205:fltk-1.3.4-1/jpeg/jchuff.c **** 	entropy->saved.last_dc_val[ci] = 0;
1206:fltk-1.3.4-1/jpeg/jchuff.c ****       /* Update restart state */
1207:fltk-1.3.4-1/jpeg/jchuff.c ****       entropy->restarts_to_go = cinfo->restart_interval;
1208:fltk-1.3.4-1/jpeg/jchuff.c ****     }
1209:fltk-1.3.4-1/jpeg/jchuff.c ****     entropy->restarts_to_go--;
 124              		.loc 1 1209 5 is_stmt 1 view .LVU32
 125              		.loc 1 1209 28 is_stmt 0 view .LVU33
 126 0036 83E801   		subl	$1, %eax
 127 0039 894538   		movl	%eax, 56(%rbp)
 128              	.L6:
 129              	.LVL9:
1210:fltk-1.3.4-1/jpeg/jchuff.c ****   }
1211:fltk-1.3.4-1/jpeg/jchuff.c **** 
1212:fltk-1.3.4-1/jpeg/jchuff.c ****   for (blkn = 0; blkn < cinfo->blocks_in_MCU; blkn++) {
 130              		.loc 1 1212 18 is_stmt 1 discriminator 1 view .LVU34
 131              		.loc 1 1212 3 is_stmt 0 discriminator 1 view .LVU35
 132 003c 418B87A0 		movl	416(%r15), %eax
 132      010000
 133 0043 4531E4   		xorl	%r12d, %r12d
 134 0046 85C0     		testl	%eax, %eax
 135 0048 0F8E9A01 		jle	.L44
 135      0000
 136              	.LVL10:
 137 004e 6690     		.p2align 4,,10
 138              		.p2align 3
 139              	.L10:
1213:fltk-1.3.4-1/jpeg/jchuff.c ****     ci = cinfo->MCU_membership[blkn];
 140              		.loc 1 1213 5 is_stmt 1 discriminator 3 view .LVU36
1214:fltk-1.3.4-1/jpeg/jchuff.c ****     compptr = cinfo->cur_comp_info[ci];
 141              		.loc 1 1214 5 discriminator 3 view .LVU37
 142              		.loc 1 1214 13 is_stmt 0 discriminator 3 view .LVU38
 143 0050 4B6384A7 		movslq	420(%r15,%r12,4), %rax
 143      A4010000 
 144              	.LBB65:
 145              	.LBB66:
1125:fltk-1.3.4-1/jpeg/jchuff.c ****   const int * natural_order = cinfo->natural_order;
 146              		.loc 1 1125 7 discriminator 3 view .LVU39
 147 0058 458BB7E8 		movl	488(%r15), %r14d
 147      010000
1126:fltk-1.3.4-1/jpeg/jchuff.c **** 
 148              		.loc 1 1126 15 discriminator 3 view .LVU40
 149 005f 4D8B8FE0 		movq	480(%r15), %r9
 149      010000
 150              	.LBE66:
 151              	.LBE65:
 152              		.loc 1 1214 13 discriminator 3 view .LVU41
 153 0066 498BB4C7 		movq	376(%r15,%rax,8), %rsi
 153      78010000 
 154              	.LVL11:
1215:fltk-1.3.4-1/jpeg/jchuff.c ****     htest_one_block(cinfo, MCU_data[blkn][0], entropy->saved.last_dc_val[ci],
 155              		.loc 1 1215 5 is_stmt 1 discriminator 3 view .LVU42
 156 006e 488D4485 		leaq	0(%rbp,%rax,4), %rax
 156      00
 157 0073 48894424 		movq	%rax, 40(%rsp)
 157      28
 158 0078 8B7824   		movl	36(%rax), %edi
 159 007b 488B4424 		movq	24(%rsp), %rax
 159      18
 160 0080 48635618 		movslq	24(%rsi), %rdx
 161 0084 48637614 		movslq	20(%rsi), %rsi
 162              	.LVL12:
 163              		.loc 1 1215 5 is_stmt 0 discriminator 3 view .LVU43
 164 0088 4A8B04E0 		movq	(%rax,%r12,8), %rax
 165 008c 4C8BACD5 		movq	160(%rbp,%rdx,8), %r13
 165      A0000000 
 166 0094 488B9CF5 		movq	128(%rbp,%rsi,8), %rbx
 166      80000000 
 167 009c 48894424 		movq	%rax, 16(%rsp)
 167      10
 168              	.LVL13:
 169              	.LBB70:
 170              	.LBI65:
1119:fltk-1.3.4-1/jpeg/jchuff.c **** 		 long dc_counts[], long ac_counts[])
 171              		.loc 1 1119 1 is_stmt 1 discriminator 3 view .LVU44
 172              	.LBB67:
1122:fltk-1.3.4-1/jpeg/jchuff.c ****   register int nbits;
 173              		.loc 1 1122 3 discriminator 3 view .LVU45
1123:fltk-1.3.4-1/jpeg/jchuff.c ****   register int r, k;
 174              		.loc 1 1123 3 discriminator 3 view .LVU46
1124:fltk-1.3.4-1/jpeg/jchuff.c ****   int Se = cinfo->lim_Se;
 175              		.loc 1 1124 3 discriminator 3 view .LVU47
1125:fltk-1.3.4-1/jpeg/jchuff.c ****   const int * natural_order = cinfo->natural_order;
 176              		.loc 1 1125 3 discriminator 3 view .LVU48
1126:fltk-1.3.4-1/jpeg/jchuff.c **** 
 177              		.loc 1 1126 3 discriminator 3 view .LVU49
1130:fltk-1.3.4-1/jpeg/jchuff.c ****   if (temp < 0)
 178              		.loc 1 1130 3 discriminator 3 view .LVU50
1130:fltk-1.3.4-1/jpeg/jchuff.c ****   if (temp < 0)
 179              		.loc 1 1130 15 is_stmt 0 discriminator 3 view .LVU51
 180 00a1 0FBF00   		movswl	(%rax), %eax
 181              	.LVL14:
1131:fltk-1.3.4-1/jpeg/jchuff.c ****     temp = -temp;
 182              		.loc 1 1131 3 is_stmt 1 discriminator 3 view .LVU52
1131:fltk-1.3.4-1/jpeg/jchuff.c ****     temp = -temp;
 183              		.loc 1 1131 6 is_stmt 0 discriminator 3 view .LVU53
 184 00a4 89C6     		movl	%eax, %esi
 185 00a6 29FE     		subl	%edi, %esi
 186              	.LVL15:
1131:fltk-1.3.4-1/jpeg/jchuff.c ****     temp = -temp;
 187              		.loc 1 1131 6 discriminator 3 view .LVU54
 188 00a8 0F885201 		js	.L11
 188      0000
 189              	.LVL16:
1136:fltk-1.3.4-1/jpeg/jchuff.c ****     nbits++;
 190              		.loc 1 1136 9 is_stmt 1 view .LVU55
 191 00ae 7437     		je	.L13
 192              	.LVL17:
 193              	.L12:
1136:fltk-1.3.4-1/jpeg/jchuff.c ****     nbits++;
 194              		.loc 1 1136 9 is_stmt 0 view .LVU56
 195              	.LBE67:
 196              	.LBE70:
1212:fltk-1.3.4-1/jpeg/jchuff.c ****     ci = cinfo->MCU_membership[blkn];
 197              		.loc 1 1212 3 view .LVU57
 198 00b0 31C0     		xorl	%eax, %eax
 199              	.LVL18:
 200              		.p2align 4,,10
 201 00b2 660F1F44 		.p2align 3
 201      0000
 202              	.L14:
 203              	.LBB71:
 204              	.LBB68:
1137:fltk-1.3.4-1/jpeg/jchuff.c ****     temp >>= 1;
 205              		.loc 1 1137 5 is_stmt 1 view .LVU58
1137:fltk-1.3.4-1/jpeg/jchuff.c ****     temp >>= 1;
 206              		.loc 1 1137 10 is_stmt 0 view .LVU59
 207 00b8 83C001   		addl	$1, %eax
 208              	.LVL19:
1138:fltk-1.3.4-1/jpeg/jchuff.c ****   }
 209              		.loc 1 1138 5 is_stmt 1 view .LVU60
1136:fltk-1.3.4-1/jpeg/jchuff.c ****     nbits++;
 210              		.loc 1 1136 9 view .LVU61
 211 00bb D1FE     		sarl	%esi
 212              	.LVL20:
1136:fltk-1.3.4-1/jpeg/jchuff.c ****     nbits++;
 213              		.loc 1 1136 9 is_stmt 0 view .LVU62
 214 00bd 75F9     		jne	.L14
1143:fltk-1.3.4-1/jpeg/jchuff.c ****     ERREXIT(cinfo, JERR_BAD_DCT_COEF);
 215              		.loc 1 1143 3 is_stmt 1 view .LVU63
 216 00bf 4863F0   		movslq	%eax, %rsi
 217              	.LVL21:
1143:fltk-1.3.4-1/jpeg/jchuff.c ****     ERREXIT(cinfo, JERR_BAD_DCT_COEF);
 218              		.loc 1 1143 3 is_stmt 0 view .LVU64
 219 00c2 488D1CF3 		leaq	(%rbx,%rsi,8), %rbx
 220              	.LVL22:
1143:fltk-1.3.4-1/jpeg/jchuff.c ****     ERREXIT(cinfo, JERR_BAD_DCT_COEF);
 221              		.loc 1 1143 6 view .LVU65
 222 00c6 83F80B   		cmpl	$11, %eax
 223 00c9 7E1C     		jle	.L13
1144:fltk-1.3.4-1/jpeg/jchuff.c **** 
 224              		.loc 1 1144 5 view .LVU66
 225 00cb 498B07   		movq	(%r15), %rax
 226              	.LVL23:
1144:fltk-1.3.4-1/jpeg/jchuff.c **** 
 227              		.loc 1 1144 5 view .LVU67
 228 00ce 4C894C24 		movq	%r9, 8(%rsp)
 228      08
1144:fltk-1.3.4-1/jpeg/jchuff.c **** 
 229              		.loc 1 1144 5 is_stmt 1 view .LVU68
 230 00d3 4C89FF   		movq	%r15, %rdi
 231              	.LVL24:
1144:fltk-1.3.4-1/jpeg/jchuff.c **** 
 232              		.loc 1 1144 5 is_stmt 0 view .LVU69
 233 00d6 C7402806 		movl	$6, 40(%rax)
 233      000000
 234              	.LVL25:
1144:fltk-1.3.4-1/jpeg/jchuff.c **** 
 235              		.loc 1 1144 5 view .LVU70
 236 00dd 498B07   		movq	(%r15), %rax
 237 00e0 FF10     		call	*(%rax)
 238              	.LVL26:
1144:fltk-1.3.4-1/jpeg/jchuff.c **** 
 239              		.loc 1 1144 5 view .LVU71
 240 00e2 4C8B4C24 		movq	8(%rsp), %r9
 240      08
 241              	.LVL27:
 242              	.L13:
1147:fltk-1.3.4-1/jpeg/jchuff.c **** 
 243              		.loc 1 1147 3 is_stmt 1 view .LVU72
1147:fltk-1.3.4-1/jpeg/jchuff.c **** 
 244              		.loc 1 1147 19 is_stmt 0 view .LVU73
 245 00e7 48830301 		addq	$1, (%rbx)
1151:fltk-1.3.4-1/jpeg/jchuff.c **** 
 246              		.loc 1 1151 3 is_stmt 1 view .LVU74
 247              	.LVL28:
1153:fltk-1.3.4-1/jpeg/jchuff.c ****     if ((temp = block[natural_order[k]]) == 0) {
 248              		.loc 1 1153 3 view .LVU75
1153:fltk-1.3.4-1/jpeg/jchuff.c ****     if ((temp = block[natural_order[k]]) == 0) {
 249              		.loc 1 1153 15 view .LVU76
1153:fltk-1.3.4-1/jpeg/jchuff.c ****     if ((temp = block[natural_order[k]]) == 0) {
 250              		.loc 1 1153 3 is_stmt 0 view .LVU77
 251 00eb 4585F6   		testl	%r14d, %r14d
 252 00ee 0F8ECF00 		jle	.L16
 252      0000
 253 00f4 418D46FF 		leal	-1(%r14), %eax
 254 00f8 498D7104 		leaq	4(%r9), %rsi
1151:fltk-1.3.4-1/jpeg/jchuff.c **** 
 255              		.loc 1 1151 5 view .LVU78
 256 00fc 31DB     		xorl	%ebx, %ebx
 257 00fe 498D4481 		leaq	8(%r9,%rax,4), %rax
 257      08
 258 0103 48894424 		movq	%rax, 32(%rsp)
 258      20
 259 0108 EB18     		jmp	.L23
 260              	.LVL29:
 261 010a 660F1F44 		.p2align 4,,10
 261      0000
 262              		.p2align 3
 263              	.L17:
1155:fltk-1.3.4-1/jpeg/jchuff.c ****     } else {
 264              		.loc 1 1155 7 is_stmt 1 view .LVU79
1155:fltk-1.3.4-1/jpeg/jchuff.c ****     } else {
 265              		.loc 1 1155 8 is_stmt 0 view .LVU80
 266 0110 83C301   		addl	$1, %ebx
 267              	.LVL30:
1153:fltk-1.3.4-1/jpeg/jchuff.c ****     if ((temp = block[natural_order[k]]) == 0) {
 268              		.loc 1 1153 24 is_stmt 1 view .LVU81
1153:fltk-1.3.4-1/jpeg/jchuff.c ****     if ((temp = block[natural_order[k]]) == 0) {
 269              		.loc 1 1153 15 view .LVU82
 270 0113 4883C604 		addq	$4, %rsi
1153:fltk-1.3.4-1/jpeg/jchuff.c ****     if ((temp = block[natural_order[k]]) == 0) {
 271              		.loc 1 1153 3 is_stmt 0 view .LVU83
 272 0117 483B7424 		cmpq	32(%rsp), %rsi
 272      20
 273 011c 0F849800 		je	.L47
 273      0000
 274              	.LVL31:
 275              	.L23:
1154:fltk-1.3.4-1/jpeg/jchuff.c ****       r++;
 276              		.loc 1 1154 5 is_stmt 1 view .LVU84
1154:fltk-1.3.4-1/jpeg/jchuff.c ****       r++;
 277              		.loc 1 1154 36 is_stmt 0 view .LVU85
 278 0122 486306   		movslq	(%rsi), %rax
1154:fltk-1.3.4-1/jpeg/jchuff.c ****       r++;
 279              		.loc 1 1154 22 view .LVU86
 280 0125 488B4C24 		movq	16(%rsp), %rcx
 280      10
 281 012a 0FB70441 		movzwl	(%rcx,%rax,2), %eax
 282              	.LVL32:
1154:fltk-1.3.4-1/jpeg/jchuff.c ****       r++;
 283              		.loc 1 1154 8 view .LVU87
 284 012e 6685C0   		testw	%ax, %ax
 285 0131 74DD     		je	.L17
1158:fltk-1.3.4-1/jpeg/jchuff.c **** 	ac_counts[0xF0]++;
 286              		.loc 1 1158 13 is_stmt 1 view .LVU88
 287 0133 83FB0F   		cmpl	$15, %ebx
 288 0136 7E1E     		jle	.L19
 289              	.LVL33:
1159:fltk-1.3.4-1/jpeg/jchuff.c **** 	r -= 16;
 290              		.loc 1 1159 2 view .LVU89
1160:fltk-1.3.4-1/jpeg/jchuff.c ****       }
 291              		.loc 1 1160 2 view .LVU90
1158:fltk-1.3.4-1/jpeg/jchuff.c **** 	ac_counts[0xF0]++;
 292              		.loc 1 1158 13 view .LVU91
 293 0138 83EB10   		subl	$16, %ebx
 294 013b 4D8B8D80 		movq	1920(%r13), %r9
 294      070000
 295 0142 89DF     		movl	%ebx, %edi
 296 0144 83E30F   		andl	$15, %ebx
 297 0147 C1EF04   		shrl	$4, %edi
 298 014a 498D7C39 		leaq	1(%r9,%rdi), %rdi
 298      01
 299 014f 4989BD80 		movq	%rdi, 1920(%r13)
 299      070000
 300              	.L19:
1164:fltk-1.3.4-1/jpeg/jchuff.c **** 	temp = -temp;
 301              		.loc 1 1164 7 view .LVU92
 302 0156 89C7     		movl	%eax, %edi
1169:fltk-1.3.4-1/jpeg/jchuff.c **** 	nbits++;
 303              		.loc 1 1169 13 is_stmt 0 view .LVU93
 304 0158 41BE0100 		movl	$1, %r14d
 304      0000
 305 015e 66C1FF0F 		sarw	$15, %di
 306 0162 31F8     		xorl	%edi, %eax
 307              	.LVL34:
1169:fltk-1.3.4-1/jpeg/jchuff.c **** 	nbits++;
 308              		.loc 1 1169 13 view .LVU94
 309 0164 29F8     		subl	%edi, %eax
 310 0166 0FB7C0   		movzwl	%ax, %eax
 311              	.LVL35:
1169:fltk-1.3.4-1/jpeg/jchuff.c **** 	nbits++;
 312              		.loc 1 1169 13 is_stmt 1 view .LVU95
1169:fltk-1.3.4-1/jpeg/jchuff.c **** 	nbits++;
 313              		.loc 1 1169 13 is_stmt 0 view .LVU96
 314 0169 D1F8     		sarl	%eax
 315              	.LVL36:
1169:fltk-1.3.4-1/jpeg/jchuff.c **** 	nbits++;
 316              		.loc 1 1169 13 view .LVU97
 317 016b 742D     		je	.L21
 318              	.LVL37:
 319 016d 0F1F00   		.p2align 4,,10
 320              		.p2align 3
 321              	.L22:
1170:fltk-1.3.4-1/jpeg/jchuff.c ****       /* Check for out-of-range coefficient values */
 322              		.loc 1 1170 2 is_stmt 1 view .LVU98
1170:fltk-1.3.4-1/jpeg/jchuff.c ****       /* Check for out-of-range coefficient values */
 323              		.loc 1 1170 7 is_stmt 0 view .LVU99
 324 0170 4183C601 		addl	$1, %r14d
 325              	.LVL38:
1169:fltk-1.3.4-1/jpeg/jchuff.c **** 	nbits++;
 326              		.loc 1 1169 13 is_stmt 1 view .LVU100
1169:fltk-1.3.4-1/jpeg/jchuff.c **** 	nbits++;
 327              		.loc 1 1169 13 is_stmt 0 view .LVU101
 328 0174 D1F8     		sarl	%eax
 329              	.LVL39:
1169:fltk-1.3.4-1/jpeg/jchuff.c **** 	nbits++;
 330              		.loc 1 1169 13 view .LVU102
 331 0176 75F8     		jne	.L22
1172:fltk-1.3.4-1/jpeg/jchuff.c **** 	ERREXIT(cinfo, JERR_BAD_DCT_COEF);
 332              		.loc 1 1172 7 is_stmt 1 view .LVU103
1172:fltk-1.3.4-1/jpeg/jchuff.c **** 	ERREXIT(cinfo, JERR_BAD_DCT_COEF);
 333              		.loc 1 1172 10 is_stmt 0 view .LVU104
 334 0178 4183FE0A 		cmpl	$10, %r14d
 335 017c 7E1C     		jle	.L21
1173:fltk-1.3.4-1/jpeg/jchuff.c **** 
 336              		.loc 1 1173 2 view .LVU105
 337 017e 498B07   		movq	(%r15), %rax
 338              	.LVL40:
1173:fltk-1.3.4-1/jpeg/jchuff.c **** 
 339              		.loc 1 1173 2 view .LVU106
 340 0181 48897424 		movq	%rsi, 8(%rsp)
 340      08
1173:fltk-1.3.4-1/jpeg/jchuff.c **** 
 341              		.loc 1 1173 2 is_stmt 1 view .LVU107
 342 0186 4C89FF   		movq	%r15, %rdi
 343 0189 C7402806 		movl	$6, 40(%rax)
 343      000000
 344 0190 498B07   		movq	(%r15), %rax
 345 0193 FF10     		call	*(%rax)
 346              	.LVL41:
 347 0195 488B7424 		movq	8(%rsp), %rsi
 347      08
 348              	.LVL42:
 349              	.L21:
1176:fltk-1.3.4-1/jpeg/jchuff.c **** 
 350              		.loc 1 1176 7 view .LVU108
1176:fltk-1.3.4-1/jpeg/jchuff.c **** 
 351              		.loc 1 1176 20 is_stmt 0 view .LVU109
 352 019a C1E304   		sall	$4, %ebx
 353 019d 4883C604 		addq	$4, %rsi
1176:fltk-1.3.4-1/jpeg/jchuff.c **** 
 354              		.loc 1 1176 26 view .LVU110
 355 01a1 4401F3   		addl	%r14d, %ebx
 356 01a4 4863DB   		movslq	%ebx, %rbx
1176:fltk-1.3.4-1/jpeg/jchuff.c **** 
 357              		.loc 1 1176 34 view .LVU111
 358 01a7 498344DD 		addq	$1, 0(%r13,%rbx,8)
 358      0001
1178:fltk-1.3.4-1/jpeg/jchuff.c ****     }
 359              		.loc 1 1178 7 is_stmt 1 view .LVU112
 360              	.LVL43:
1178:fltk-1.3.4-1/jpeg/jchuff.c ****     }
 361              		.loc 1 1178 9 is_stmt 0 view .LVU113
 362 01ad 31DB     		xorl	%ebx, %ebx
 363              	.LVL44:
1153:fltk-1.3.4-1/jpeg/jchuff.c ****     if ((temp = block[natural_order[k]]) == 0) {
 364              		.loc 1 1153 24 is_stmt 1 view .LVU114
1153:fltk-1.3.4-1/jpeg/jchuff.c ****     if ((temp = block[natural_order[k]]) == 0) {
 365              		.loc 1 1153 15 view .LVU115
1153:fltk-1.3.4-1/jpeg/jchuff.c ****     if ((temp = block[natural_order[k]]) == 0) {
 366              		.loc 1 1153 3 is_stmt 0 view .LVU116
 367 01af 483B7424 		cmpq	32(%rsp), %rsi
 367      20
 368 01b4 0F8568FF 		jne	.L23
 368      FFFF
 369              	.L47:
1183:fltk-1.3.4-1/jpeg/jchuff.c ****     ac_counts[0]++;
 370              		.loc 1 1183 3 is_stmt 1 view .LVU117
1183:fltk-1.3.4-1/jpeg/jchuff.c ****     ac_counts[0]++;
 371              		.loc 1 1183 6 is_stmt 0 view .LVU118
 372 01ba 85DB     		testl	%ebx, %ebx
 373 01bc 7405     		je	.L16
1184:fltk-1.3.4-1/jpeg/jchuff.c **** }
 374              		.loc 1 1184 5 is_stmt 1 view .LVU119
1184:fltk-1.3.4-1/jpeg/jchuff.c **** }
 375              		.loc 1 1184 17 is_stmt 0 view .LVU120
 376 01be 49834500 		addq	$1, 0(%r13)
 376      01
 377              	.LVL45:
 378              	.L16:
1184:fltk-1.3.4-1/jpeg/jchuff.c **** }
 379              		.loc 1 1184 17 view .LVU121
 380              	.LBE68:
 381              	.LBE71:
1216:fltk-1.3.4-1/jpeg/jchuff.c **** 		    entropy->dc_count_ptrs[compptr->dc_tbl_no],
1217:fltk-1.3.4-1/jpeg/jchuff.c **** 		    entropy->ac_count_ptrs[compptr->ac_tbl_no]);
1218:fltk-1.3.4-1/jpeg/jchuff.c ****     entropy->saved.last_dc_val[ci] = MCU_data[blkn][0][0];
 382              		.loc 1 1218 5 is_stmt 1 view .LVU122
 383              		.loc 1 1218 55 is_stmt 0 view .LVU123
 384 01c3 488B4424 		movq	24(%rsp), %rax
 384      18
 385 01c8 488B4C24 		movq	40(%rsp), %rcx
 385      28
 386 01cd 4A8B04E0 		movq	(%rax,%r12,8), %rax
 387 01d1 4983C401 		addq	$1, %r12
 388              	.LVL46:
 389              		.loc 1 1218 55 view .LVU124
 390 01d5 0FBF00   		movswl	(%rax), %eax
 391 01d8 894124   		movl	%eax, 36(%rcx)
1212:fltk-1.3.4-1/jpeg/jchuff.c ****     ci = cinfo->MCU_membership[blkn];
 392              		.loc 1 1212 47 is_stmt 1 view .LVU125
1212:fltk-1.3.4-1/jpeg/jchuff.c ****     ci = cinfo->MCU_membership[blkn];
 393              		.loc 1 1212 18 view .LVU126
1212:fltk-1.3.4-1/jpeg/jchuff.c ****     ci = cinfo->MCU_membership[blkn];
 394              		.loc 1 1212 3 is_stmt 0 view .LVU127
 395 01db 4539A7A0 		cmpl	%r12d, 416(%r15)
 395      010000
 396 01e2 0F8F68FE 		jg	.L10
 396      FFFF
 397              	.L44:
1219:fltk-1.3.4-1/jpeg/jchuff.c ****   }
1220:fltk-1.3.4-1/jpeg/jchuff.c **** 
1221:fltk-1.3.4-1/jpeg/jchuff.c ****   return TRUE;
1222:fltk-1.3.4-1/jpeg/jchuff.c **** }
 398              		.loc 1 1222 1 view .LVU128
 399 01e8 4883C438 		addq	$56, %rsp
 400              		.cfi_remember_state
 401              		.cfi_def_cfa_offset 56
 402 01ec B8010000 		movl	$1, %eax
 402      00
 403 01f1 5B       		popq	%rbx
 404              		.cfi_def_cfa_offset 48
 405 01f2 5D       		popq	%rbp
 406              		.cfi_def_cfa_offset 40
 407              	.LVL47:
 408              		.loc 1 1222 1 view .LVU129
 409 01f3 415C     		popq	%r12
 410              		.cfi_def_cfa_offset 32
 411 01f5 415D     		popq	%r13
 412              		.cfi_def_cfa_offset 24
 413 01f7 415E     		popq	%r14
 414              		.cfi_def_cfa_offset 16
 415 01f9 415F     		popq	%r15
 416              		.cfi_def_cfa_offset 8
 417              	.LVL48:
 418              		.loc 1 1222 1 view .LVU130
 419 01fb C3       		ret
 420              	.LVL49:
 421 01fc 0F1F4000 		.p2align 4,,10
 422              		.p2align 3
 423              	.L11:
 424              		.cfi_restore_state
 425              	.LBB72:
 426              	.LBB69:
1132:fltk-1.3.4-1/jpeg/jchuff.c **** 
 427              		.loc 1 1132 5 is_stmt 1 view .LVU131
1136:fltk-1.3.4-1/jpeg/jchuff.c ****     nbits++;
 428              		.loc 1 1136 9 view .LVU132
 429 0200 89FE     		movl	%edi, %esi
 430 0202 29C6     		subl	%eax, %esi
 431              	.LVL50:
1136:fltk-1.3.4-1/jpeg/jchuff.c ****     nbits++;
 432              		.loc 1 1136 9 is_stmt 0 view .LVU133
 433 0204 0F85A6FE 		jne	.L12
 433      FFFF
 434 020a E9D8FEFF 		jmp	.L13
 434      FF
 435              	.LVL51:
 436 020f 90       		.p2align 4,,10
 437              		.p2align 3
 438              	.L46:
1136:fltk-1.3.4-1/jpeg/jchuff.c ****     nbits++;
 439              		.loc 1 1136 9 view .LVU134
 440              	.LBE69:
 441              	.LBE72:
1204:fltk-1.3.4-1/jpeg/jchuff.c **** 	entropy->saved.last_dc_val[ci] = 0;
 442              		.loc 1 1204 20 is_stmt 1 view .LVU135
1204:fltk-1.3.4-1/jpeg/jchuff.c **** 	entropy->saved.last_dc_val[ci] = 0;
 443              		.loc 1 1204 7 is_stmt 0 view .LVU136
 444 0210 8B8F7401 		movl	372(%rdi), %ecx
 444      0000
 445 0216 85C9     		testl	%ecx, %ecx
 446 0218 7E23     		jle	.L26
 447 021a 31C0     		xorl	%eax, %eax
 448              	.LVL52:
 449              	.L9:
1205:fltk-1.3.4-1/jpeg/jchuff.c ****       /* Update restart state */
 450              		.loc 1 1205 2 is_stmt 1 discriminator 3 view .LVU137
1205:fltk-1.3.4-1/jpeg/jchuff.c ****       /* Update restart state */
 451              		.loc 1 1205 33 is_stmt 0 discriminator 3 view .LVU138
 452 021c C7448524 		movl	$0, 36(%rbp,%rax,4)
 452      00000000 
1204:fltk-1.3.4-1/jpeg/jchuff.c **** 	entropy->saved.last_dc_val[ci] = 0;
 453              		.loc 1 1204 47 is_stmt 1 discriminator 3 view .LVU139
 454              	.LVL53:
1204:fltk-1.3.4-1/jpeg/jchuff.c **** 	entropy->saved.last_dc_val[ci] = 0;
 455              		.loc 1 1204 20 discriminator 3 view .LVU140
 456 0224 4883C001 		addq	$1, %rax
 457              	.LVL54:
1204:fltk-1.3.4-1/jpeg/jchuff.c **** 	entropy->saved.last_dc_val[ci] = 0;
 458              		.loc 1 1204 7 is_stmt 0 discriminator 3 view .LVU141
 459 0228 41398774 		cmpl	%eax, 372(%r15)
 459      010000
 460 022f 7FEB     		jg	.L9
 461 0231 418B873C 		movl	316(%r15), %eax
 461      010000
 462 0238 E9F9FDFF 		jmp	.L7
 462      FF
 463              	.LVL55:
 464              	.L26:
1204:fltk-1.3.4-1/jpeg/jchuff.c **** 	entropy->saved.last_dc_val[ci] = 0;
 465              		.loc 1 1204 7 view .LVU142
 466 023d 89D0     		movl	%edx, %eax
1207:fltk-1.3.4-1/jpeg/jchuff.c ****     }
 467              		.loc 1 1207 7 is_stmt 1 view .LVU143
 468 023f E9F2FDFF 		jmp	.L7
 468      FF
 469              		.cfi_endproc
 470              	.LFE72:
 472              		.section	.text.jpeg_make_c_derived_tbl,"ax",@progbits
 473              		.p2align 4
 475              	jpeg_make_c_derived_tbl:
 476              	.LVL56:
 477              	.LFB51:
 163:fltk-1.3.4-1/jpeg/jchuff.c ****   JHUFF_TBL *htbl;
 478              		.loc 1 163 1 view -0
 479              		.cfi_startproc
 163:fltk-1.3.4-1/jpeg/jchuff.c ****   JHUFF_TBL *htbl;
 480              		.loc 1 163 1 is_stmt 0 view .LVU145
 481 0000 4157     		pushq	%r15
 482              		.cfi_def_cfa_offset 16
 483              		.cfi_offset 15, -16
 484 0002 4156     		pushq	%r14
 485              		.cfi_def_cfa_offset 24
 486              		.cfi_offset 14, -24
 487 0004 4155     		pushq	%r13
 488              		.cfi_def_cfa_offset 32
 489              		.cfi_offset 13, -32
 490 0006 4154     		pushq	%r12
 491              		.cfi_def_cfa_offset 40
 492              		.cfi_offset 12, -40
 493 0008 4989CC   		movq	%rcx, %r12
 494 000b 55       		pushq	%rbp
 495              		.cfi_def_cfa_offset 48
 496              		.cfi_offset 6, -48
 497 000c 4889FD   		movq	%rdi, %rbp
 498 000f 53       		pushq	%rbx
 499              		.cfi_def_cfa_offset 56
 500              		.cfi_offset 3, -56
 501 0010 89D3     		movl	%edx, %ebx
 502 0012 4881EC48 		subq	$1352, %rsp
 502      050000
 503              		.cfi_def_cfa_offset 1408
 163:fltk-1.3.4-1/jpeg/jchuff.c ****   JHUFF_TBL *htbl;
 504              		.loc 1 163 1 view .LVU146
 505 0019 8974241C 		movl	%esi, 28(%rsp)
 506 001d 64488B04 		movq	%fs:40, %rax
 506      25280000 
 506      00
 507 0026 48898424 		movq	%rax, 1336(%rsp)
 507      38050000 
 508 002e 31C0     		xorl	%eax, %eax
 164:fltk-1.3.4-1/jpeg/jchuff.c ****   c_derived_tbl *dtbl;
 509              		.loc 1 164 3 is_stmt 1 view .LVU147
 165:fltk-1.3.4-1/jpeg/jchuff.c ****   int p, i, l, lastp, si, maxsymbol;
 510              		.loc 1 165 3 view .LVU148
 166:fltk-1.3.4-1/jpeg/jchuff.c ****   char huffsize[257];
 511              		.loc 1 166 3 view .LVU149
 167:fltk-1.3.4-1/jpeg/jchuff.c ****   unsigned int huffcode[257];
 512              		.loc 1 167 3 view .LVU150
 168:fltk-1.3.4-1/jpeg/jchuff.c ****   unsigned int code;
 513              		.loc 1 168 3 view .LVU151
 169:fltk-1.3.4-1/jpeg/jchuff.c **** 
 514              		.loc 1 169 3 view .LVU152
 176:fltk-1.3.4-1/jpeg/jchuff.c ****     ERREXIT1(cinfo, JERR_NO_HUFF_TABLE, tblno);
 515              		.loc 1 176 3 view .LVU153
 176:fltk-1.3.4-1/jpeg/jchuff.c ****     ERREXIT1(cinfo, JERR_NO_HUFF_TABLE, tblno);
 516              		.loc 1 176 6 is_stmt 0 view .LVU154
 517 0030 83FA03   		cmpl	$3, %edx
 518 0033 7615     		jbe	.L49
 177:fltk-1.3.4-1/jpeg/jchuff.c ****   htbl =
 519              		.loc 1 177 5 is_stmt 1 view .LVU155
 520 0035 488B07   		movq	(%rdi), %rax
 521 0038 C7402834 		movl	$52, 40(%rax)
 521      000000
 522 003f 488B07   		movq	(%rdi), %rax
 523 0042 89502C   		movl	%edx, 44(%rax)
 524 0045 488B07   		movq	(%rdi), %rax
 525 0048 FF10     		call	*(%rax)
 526              	.LVL57:
 527              	.L49:
 178:fltk-1.3.4-1/jpeg/jchuff.c ****     isDC ? cinfo->dc_huff_tbl_ptrs[tblno] : cinfo->ac_huff_tbl_ptrs[tblno];
 528              		.loc 1 178 3 view .LVU156
 179:fltk-1.3.4-1/jpeg/jchuff.c ****   if (htbl == NULL)
 529              		.loc 1 179 43 is_stmt 0 view .LVU157
 530 004a 8B54241C 		movl	28(%rsp), %edx
 531 004e 4863C3   		movslq	%ebx, %rax
 532 0051 85D2     		testl	%edx, %edx
 533 0053 0F847E02 		je	.L50
 533      0000
 179:fltk-1.3.4-1/jpeg/jchuff.c ****   if (htbl == NULL)
 534              		.loc 1 179 43 discriminator 1 view .LVU158
 535 0059 488B84C5 		movq	160(%rbp,%rax,8), %rax
 535      A0000000 
 536 0061 48890424 		movq	%rax, (%rsp)
 537              	.LVL58:
 180:fltk-1.3.4-1/jpeg/jchuff.c ****     ERREXIT1(cinfo, JERR_NO_HUFF_TABLE, tblno);
 538              		.loc 1 180 3 is_stmt 1 discriminator 1 view .LVU159
 180:fltk-1.3.4-1/jpeg/jchuff.c ****     ERREXIT1(cinfo, JERR_NO_HUFF_TABLE, tblno);
 539              		.loc 1 180 6 is_stmt 0 discriminator 1 view .LVU160
 540 0065 48833C24 		cmpq	$0, (%rsp)
 540      00
 541 006a 0F847E02 		je	.L92
 541      0000
 542              	.L52:
 184:fltk-1.3.4-1/jpeg/jchuff.c ****     *pdtbl = (c_derived_tbl *)
 543              		.loc 1 184 3 is_stmt 1 view .LVU161
 184:fltk-1.3.4-1/jpeg/jchuff.c ****     *pdtbl = (c_derived_tbl *)
 544              		.loc 1 184 7 is_stmt 0 view .LVU162
 545 0070 498B1C24 		movq	(%r12), %rbx
 546              	.LVL59:
 184:fltk-1.3.4-1/jpeg/jchuff.c ****     *pdtbl = (c_derived_tbl *)
 547              		.loc 1 184 6 view .LVU163
 548 0074 4885DB   		testq	%rbx, %rbx
 549 0077 0F849902 		je	.L93
 549      0000
 550              	.LVL60:
 551              	.L53:
 188:fltk-1.3.4-1/jpeg/jchuff.c ****   
 552              		.loc 1 188 3 is_stmt 1 view .LVU164
 192:fltk-1.3.4-1/jpeg/jchuff.c ****   for (l = 1; l <= 16; l++) {
 553              		.loc 1 192 3 view .LVU165
 193:fltk-1.3.4-1/jpeg/jchuff.c ****     i = (int) htbl->bits[l];
 554              		.loc 1 193 3 view .LVU166
 193:fltk-1.3.4-1/jpeg/jchuff.c ****     i = (int) htbl->bits[l];
 555              		.loc 1 193 15 view .LVU167
 194:fltk-1.3.4-1/jpeg/jchuff.c ****     if (i < 0 || p + i > 256)	/* protect against table overrun */
 556              		.loc 1 194 5 view .LVU168
 194:fltk-1.3.4-1/jpeg/jchuff.c ****     if (i < 0 || p + i > 256)	/* protect against table overrun */
 557              		.loc 1 194 7 is_stmt 0 view .LVU169
 558 007d 488B0424 		movq	(%rsp), %rax
 559 0081 41BE0100 		movl	$1, %r14d
 559      0000
 192:fltk-1.3.4-1/jpeg/jchuff.c ****   for (l = 1; l <= 16; l++) {
 560              		.loc 1 192 5 view .LVU170
 561 0087 4531ED   		xorl	%r13d, %r13d
 562 008a 4C8DA424 		leaq	1072(%rsp), %r12
 562      30040000 
 563              	.LVL61:
 194:fltk-1.3.4-1/jpeg/jchuff.c ****     if (i < 0 || p + i > 256)	/* protect against table overrun */
 564              		.loc 1 194 7 view .LVU171
 565 0092 440FB678 		movzbl	1(%rax), %r15d
 565      01
 566              	.LVL62:
 195:fltk-1.3.4-1/jpeg/jchuff.c ****       ERREXIT(cinfo, JERR_BAD_HUFF_TABLE);
 567              		.loc 1 195 5 is_stmt 1 view .LVU172
 568 0097 660F1F84 		.p2align 4,,10
 568      00000000 
 568      00
 569              		.p2align 3
 570              	.L54:
 197:fltk-1.3.4-1/jpeg/jchuff.c ****       huffsize[p++] = (char) l;
 571              		.loc 1 197 11 view .LVU173
 197:fltk-1.3.4-1/jpeg/jchuff.c ****       huffsize[p++] = (char) l;
 572              		.loc 1 197 13 is_stmt 0 view .LVU174
 573 00a0 418D7FFF 		leal	-1(%r15), %edi
 574              	.LVL63:
 197:fltk-1.3.4-1/jpeg/jchuff.c ****       huffsize[p++] = (char) l;
 575              		.loc 1 197 11 view .LVU175
 576 00a4 4585FF   		testl	%r15d, %r15d
 577 00a7 742F     		je	.L56
 578 00a9 4963D5   		movslq	%r13d, %rdx
 579 00ac 4189F9   		movl	%edi, %r9d
 580 00af 4489F1   		movl	%r14d, %ecx
 581 00b2 498D0414 		leaq	(%r12,%rdx), %rax
 582 00b6 488D9414 		leaq	1073(%rsp,%rdx), %rdx
 582      31040000 
 583 00be 4C01CA   		addq	%r9, %rdx
 584              	.LVL64:
 585              		.p2align 4,,10
 586 00c1 0F1F8000 		.p2align 3
 586      000000
 587              	.L57:
 198:fltk-1.3.4-1/jpeg/jchuff.c ****   }
 588              		.loc 1 198 7 is_stmt 1 view .LVU176
 198:fltk-1.3.4-1/jpeg/jchuff.c ****   }
 589              		.loc 1 198 21 is_stmt 0 view .LVU177
 590 00c8 8808     		movb	%cl, (%rax)
 197:fltk-1.3.4-1/jpeg/jchuff.c ****       huffsize[p++] = (char) l;
 591              		.loc 1 197 11 is_stmt 1 view .LVU178
 592              	.LVL65:
 197:fltk-1.3.4-1/jpeg/jchuff.c ****       huffsize[p++] = (char) l;
 593              		.loc 1 197 11 is_stmt 0 view .LVU179
 594 00ca 4883C001 		addq	$1, %rax
 595              	.LVL66:
 197:fltk-1.3.4-1/jpeg/jchuff.c ****       huffsize[p++] = (char) l;
 596              		.loc 1 197 11 view .LVU180
 597 00ce 4839D0   		cmpq	%rdx, %rax
 598 00d1 75F5     		jne	.L57
 599 00d3 458D6C3D 		leal	1(%r13,%rdi), %r13d
 599      01
 600              	.L56:
 193:fltk-1.3.4-1/jpeg/jchuff.c ****     i = (int) htbl->bits[l];
 601              		.loc 1 193 24 is_stmt 1 discriminator 2 view .LVU181
 602              	.LVL67:
 193:fltk-1.3.4-1/jpeg/jchuff.c ****     i = (int) htbl->bits[l];
 603              		.loc 1 193 15 discriminator 2 view .LVU182
 193:fltk-1.3.4-1/jpeg/jchuff.c ****     i = (int) htbl->bits[l];
 604              		.loc 1 193 3 is_stmt 0 discriminator 2 view .LVU183
 605 00d8 4983FE10 		cmpq	$16, %r14
 606 00dc 742F     		je	.L94
 194:fltk-1.3.4-1/jpeg/jchuff.c ****     if (i < 0 || p + i > 256)	/* protect against table overrun */
 607              		.loc 1 194 5 is_stmt 1 view .LVU184
 194:fltk-1.3.4-1/jpeg/jchuff.c ****     if (i < 0 || p + i > 256)	/* protect against table overrun */
 608              		.loc 1 194 7 is_stmt 0 view .LVU185
 609 00de 488B0424 		movq	(%rsp), %rax
 610 00e2 460FB67C 		movzbl	1(%rax,%r14), %r15d
 610      3001
 611              	.LVL68:
 195:fltk-1.3.4-1/jpeg/jchuff.c ****       ERREXIT(cinfo, JERR_BAD_HUFF_TABLE);
 612              		.loc 1 195 5 is_stmt 1 view .LVU186
 195:fltk-1.3.4-1/jpeg/jchuff.c ****       ERREXIT(cinfo, JERR_BAD_HUFF_TABLE);
 613              		.loc 1 195 20 is_stmt 0 view .LVU187
 614 00e8 438D042F 		leal	(%r15,%r13), %eax
 195:fltk-1.3.4-1/jpeg/jchuff.c ****       ERREXIT(cinfo, JERR_BAD_HUFF_TABLE);
 615              		.loc 1 195 15 view .LVU188
 616 00ec 3D000100 		cmpl	$256, %eax
 616      00
 617 00f1 7E14     		jle	.L55
 196:fltk-1.3.4-1/jpeg/jchuff.c ****     while (i--)
 618              		.loc 1 196 7 is_stmt 1 view .LVU189
 619 00f3 488B4500 		movq	0(%rbp), %rax
 620 00f7 4889EF   		movq	%rbp, %rdi
 621 00fa C7402809 		movl	$9, 40(%rax)
 621      000000
 622 0101 488B4500 		movq	0(%rbp), %rax
 623 0105 FF10     		call	*(%rax)
 624              	.LVL69:
 625              	.L55:
 196:fltk-1.3.4-1/jpeg/jchuff.c ****     while (i--)
 626              		.loc 1 196 7 is_stmt 0 view .LVU190
 627 0107 4983C601 		addq	$1, %r14
 628              	.LVL70:
 196:fltk-1.3.4-1/jpeg/jchuff.c ****     while (i--)
 629              		.loc 1 196 7 view .LVU191
 630 010b EB93     		jmp	.L54
 631              	.LVL71:
 632              	.L94:
 200:fltk-1.3.4-1/jpeg/jchuff.c ****   lastp = p;
 633              		.loc 1 200 3 is_stmt 1 view .LVU192
 200:fltk-1.3.4-1/jpeg/jchuff.c ****   lastp = p;
 634              		.loc 1 200 15 is_stmt 0 view .LVU193
 635 010d 4963C5   		movslq	%r13d, %rax
 636 0110 C6840430 		movb	$0, 1072(%rsp,%rax)
 636      04000000 
 201:fltk-1.3.4-1/jpeg/jchuff.c ****   
 637              		.loc 1 201 3 is_stmt 1 view .LVU194
 638              	.LVL72:
 206:fltk-1.3.4-1/jpeg/jchuff.c ****   si = huffsize[0];
 639              		.loc 1 206 3 view .LVU195
 207:fltk-1.3.4-1/jpeg/jchuff.c ****   p = 0;
 640              		.loc 1 207 3 view .LVU196
 207:fltk-1.3.4-1/jpeg/jchuff.c ****   p = 0;
 641              		.loc 1 207 16 is_stmt 0 view .LVU197
 642 0118 0FB68C24 		movzbl	1072(%rsp), %ecx
 642      30040000 
 643 0120 4189CC   		movl	%ecx, %r12d
 644              	.LVL73:
 208:fltk-1.3.4-1/jpeg/jchuff.c ****   while (huffsize[p]) {
 645              		.loc 1 208 3 is_stmt 1 view .LVU198
 209:fltk-1.3.4-1/jpeg/jchuff.c ****     while (((int) huffsize[p]) == si) {
 646              		.loc 1 209 3 view .LVU199
 209:fltk-1.3.4-1/jpeg/jchuff.c ****     while (((int) huffsize[p]) == si) {
 647              		.loc 1 209 9 view .LVU200
 648 0123 84C9     		testb	%cl, %cl
 649 0125 0F84A200 		je	.L60
 649      0000
 650 012b 4189C9   		movl	%ecx, %r9d
 206:fltk-1.3.4-1/jpeg/jchuff.c ****   si = huffsize[0];
 651              		.loc 1 206 8 is_stmt 0 view .LVU201
 652 012e 4531FF   		xorl	%r15d, %r15d
 208:fltk-1.3.4-1/jpeg/jchuff.c ****   while (huffsize[p]) {
 653              		.loc 1 208 5 view .LVU202
 654 0131 4531DB   		xorl	%r11d, %r11d
 655 0134 4189CE   		movl	%ecx, %r14d
 656              	.LVL74:
 657 0137 660F1F84 		.p2align 4,,10
 657      00000000 
 657      00
 658              		.p2align 3
 659              	.L59:
 210:fltk-1.3.4-1/jpeg/jchuff.c ****       huffcode[p++] = code;
 660              		.loc 1 210 11 is_stmt 1 view .LVU203
 661 0140 4439F1   		cmpl	%r14d, %ecx
 662 0143 0F856F01 		jne	.L95
 662      0000
 210:fltk-1.3.4-1/jpeg/jchuff.c ****       huffcode[p++] = code;
 663              		.loc 1 210 11 is_stmt 0 view .LVU204
 664 0149 418D4301 		leal	1(%r11), %eax
 665 014d 488DBC24 		leaq	1072(%rsp), %rdi
 665      30040000 
 666 0155 4898     		cltq
 667 0157 4C8D5424 		leaq	32(%rsp), %r10
 667      20
 668 015c 0F1F4000 		.p2align 4,,10
 669              		.p2align 3
 670              	.L61:
 211:fltk-1.3.4-1/jpeg/jchuff.c ****       code++;
 671              		.loc 1 211 7 is_stmt 1 view .LVU205
 672              	.LVL75:
 210:fltk-1.3.4-1/jpeg/jchuff.c ****       huffcode[p++] = code;
 673              		.loc 1 210 27 is_stmt 0 view .LVU206
 674 0160 440FB634 		movzbl	(%rdi,%rax), %r14d
 674      07
 211:fltk-1.3.4-1/jpeg/jchuff.c ****       code++;
 675              		.loc 1 211 21 view .LVU207
 676 0165 45897C82 		movl	%r15d, -4(%r10,%rax,4)
 676      FC
 211:fltk-1.3.4-1/jpeg/jchuff.c ****       code++;
 677              		.loc 1 211 17 view .LVU208
 678 016a 4189C3   		movl	%eax, %r11d
 212:fltk-1.3.4-1/jpeg/jchuff.c ****     }
 679              		.loc 1 212 7 is_stmt 1 view .LVU209
 212:fltk-1.3.4-1/jpeg/jchuff.c ****     }
 680              		.loc 1 212 11 is_stmt 0 view .LVU210
 681 016d 4183C701 		addl	$1, %r15d
 682              	.LVL76:
 210:fltk-1.3.4-1/jpeg/jchuff.c ****       huffcode[p++] = code;
 683              		.loc 1 210 11 is_stmt 1 view .LVU211
 684 0171 4883C001 		addq	$1, %rax
 685              	.LVL77:
 210:fltk-1.3.4-1/jpeg/jchuff.c ****       huffcode[p++] = code;
 686              		.loc 1 210 27 is_stmt 0 view .LVU212
 687 0175 4589F1   		movl	%r14d, %r9d
 210:fltk-1.3.4-1/jpeg/jchuff.c ****       huffcode[p++] = code;
 688              		.loc 1 210 11 view .LVU213
 689 0178 4139CE   		cmpl	%ecx, %r14d
 690 017b 74E3     		je	.L61
 217:fltk-1.3.4-1/jpeg/jchuff.c ****       ERREXIT(cinfo, JERR_BAD_HUFF_TABLE);
 691              		.loc 1 217 5 is_stmt 1 view .LVU214
 217:fltk-1.3.4-1/jpeg/jchuff.c ****       ERREXIT(cinfo, JERR_BAD_HUFF_TABLE);
 692              		.loc 1 217 40 is_stmt 0 view .LVU215
 693 017d BF010000 		movl	$1, %edi
 693      00
 217:fltk-1.3.4-1/jpeg/jchuff.c ****       ERREXIT(cinfo, JERR_BAD_HUFF_TABLE);
 694              		.loc 1 217 10 view .LVU216
 695 0182 4489F8   		movl	%r15d, %eax
 217:fltk-1.3.4-1/jpeg/jchuff.c ****       ERREXIT(cinfo, JERR_BAD_HUFF_TABLE);
 696              		.loc 1 217 40 view .LVU217
 697 0185 48D3E7   		salq	%cl, %rdi
 217:fltk-1.3.4-1/jpeg/jchuff.c ****       ERREXIT(cinfo, JERR_BAD_HUFF_TABLE);
 698              		.loc 1 217 8 view .LVU218
 699 0188 4839F8   		cmpq	%rdi, %rax
 700 018b 7C31     		jl	.L62
 701              	.LVL78:
 702              	.L71:
 218:fltk-1.3.4-1/jpeg/jchuff.c ****     code <<= 1;
 703              		.loc 1 218 7 view .LVU219
 704 018d 488B4500 		movq	0(%rbp), %rax
 705 0191 44895C24 		movl	%r11d, 24(%rsp)
 705      18
 706 0196 4889EF   		movq	%rbp, %rdi
 707 0199 44884C24 		movb	%r9b, 20(%rsp)
 707      14
 708 019e C7402809 		movl	$9, 40(%rax)
 708      000000
 709 01a5 488B4500 		movq	0(%rbp), %rax
 710 01a9 894C2408 		movl	%ecx, 8(%rsp)
 218:fltk-1.3.4-1/jpeg/jchuff.c ****     code <<= 1;
 711              		.loc 1 218 7 is_stmt 1 view .LVU220
 712 01ad FF10     		call	*(%rax)
 713              	.LVL79:
 218:fltk-1.3.4-1/jpeg/jchuff.c ****     code <<= 1;
 714              		.loc 1 218 7 is_stmt 0 view .LVU221
 715 01af 448B5C24 		movl	24(%rsp), %r11d
 715      18
 716 01b4 440FB64C 		movzbl	20(%rsp), %r9d
 716      2414
 717 01ba 8B4C2408 		movl	8(%rsp), %ecx
 718              	.LVL80:
 719              	.L62:
 219:fltk-1.3.4-1/jpeg/jchuff.c ****     si++;
 720              		.loc 1 219 5 is_stmt 1 view .LVU222
 219:fltk-1.3.4-1/jpeg/jchuff.c ****     si++;
 721              		.loc 1 219 10 is_stmt 0 view .LVU223
 722 01be 4501FF   		addl	%r15d, %r15d
 723              	.LVL81:
 220:fltk-1.3.4-1/jpeg/jchuff.c ****   }
 724              		.loc 1 220 5 is_stmt 1 view .LVU224
 220:fltk-1.3.4-1/jpeg/jchuff.c ****   }
 725              		.loc 1 220 7 is_stmt 0 view .LVU225
 726 01c1 83C101   		addl	$1, %ecx
 727              	.LVL82:
 209:fltk-1.3.4-1/jpeg/jchuff.c ****     while (((int) huffsize[p]) == si) {
 728              		.loc 1 209 9 is_stmt 1 view .LVU226
 729 01c4 4584C9   		testb	%r9b, %r9b
 730 01c7 0F8573FF 		jne	.L59
 730      FFFF
 731              	.LVL83:
 732              	.L60:
 230:fltk-1.3.4-1/jpeg/jchuff.c **** 
 733              		.loc 1 230 3 view .LVU227
 734              	.LBB73:
 735              	.LBI73:
 736              		.file 2 "/usr/include/x86_64-linux-gnu/bits/string_fortified.h"
   1:/usr/include/x86_64-linux-gnu/bits/string_fortified.h **** /* Copyright (C) 2004-2020 Free Software Foundation, Inc.
   2:/usr/include/x86_64-linux-gnu/bits/string_fortified.h ****    This file is part of the GNU C Library.
   3:/usr/include/x86_64-linux-gnu/bits/string_fortified.h **** 
   4:/usr/include/x86_64-linux-gnu/bits/string_fortified.h ****    The GNU C Library is free software; you can redistribute it and/or
   5:/usr/include/x86_64-linux-gnu/bits/string_fortified.h ****    modify it under the terms of the GNU Lesser General Public
   6:/usr/include/x86_64-linux-gnu/bits/string_fortified.h ****    License as published by the Free Software Foundation; either
   7:/usr/include/x86_64-linux-gnu/bits/string_fortified.h ****    version 2.1 of the License, or (at your option) any later version.
   8:/usr/include/x86_64-linux-gnu/bits/string_fortified.h **** 
   9:/usr/include/x86_64-linux-gnu/bits/string_fortified.h ****    The GNU C Library is distributed in the hope that it will be useful,
  10:/usr/include/x86_64-linux-gnu/bits/string_fortified.h ****    but WITHOUT ANY WARRANTY; without even the implied warranty of
  11:/usr/include/x86_64-linux-gnu/bits/string_fortified.h ****    MERCHANTABILITY or FITNESS FOR A PARTICULAR PURPOSE.  See the GNU
  12:/usr/include/x86_64-linux-gnu/bits/string_fortified.h ****    Lesser General Public License for more details.
  13:/usr/include/x86_64-linux-gnu/bits/string_fortified.h **** 
  14:/usr/include/x86_64-linux-gnu/bits/string_fortified.h ****    You should have received a copy of the GNU Lesser General Public
  15:/usr/include/x86_64-linux-gnu/bits/string_fortified.h ****    License along with the GNU C Library; if not, see
  16:/usr/include/x86_64-linux-gnu/bits/string_fortified.h ****    <https://www.gnu.org/licenses/>.  */
  17:/usr/include/x86_64-linux-gnu/bits/string_fortified.h **** 
  18:/usr/include/x86_64-linux-gnu/bits/string_fortified.h **** #ifndef _BITS_STRING_FORTIFIED_H
  19:/usr/include/x86_64-linux-gnu/bits/string_fortified.h **** #define _BITS_STRING_FORTIFIED_H 1
  20:/usr/include/x86_64-linux-gnu/bits/string_fortified.h **** 
  21:/usr/include/x86_64-linux-gnu/bits/string_fortified.h **** #ifndef _STRING_H
  22:/usr/include/x86_64-linux-gnu/bits/string_fortified.h **** # error "Never use <bits/string_fortified.h> directly; include <string.h> instead."
  23:/usr/include/x86_64-linux-gnu/bits/string_fortified.h **** #endif
  24:/usr/include/x86_64-linux-gnu/bits/string_fortified.h **** 
  25:/usr/include/x86_64-linux-gnu/bits/string_fortified.h **** #if !__GNUC_PREREQ (5,0)
  26:/usr/include/x86_64-linux-gnu/bits/string_fortified.h **** __warndecl (__warn_memset_zero_len,
  27:/usr/include/x86_64-linux-gnu/bits/string_fortified.h **** 	    "memset used with constant zero length parameter; this could be due to transposed parameters")
  28:/usr/include/x86_64-linux-gnu/bits/string_fortified.h **** #endif
  29:/usr/include/x86_64-linux-gnu/bits/string_fortified.h **** 
  30:/usr/include/x86_64-linux-gnu/bits/string_fortified.h **** __fortify_function void *
  31:/usr/include/x86_64-linux-gnu/bits/string_fortified.h **** __NTH (memcpy (void *__restrict __dest, const void *__restrict __src,
  32:/usr/include/x86_64-linux-gnu/bits/string_fortified.h **** 	       size_t __len))
  33:/usr/include/x86_64-linux-gnu/bits/string_fortified.h **** {
  34:/usr/include/x86_64-linux-gnu/bits/string_fortified.h ****   return __builtin___memcpy_chk (__dest, __src, __len, __bos0 (__dest));
  35:/usr/include/x86_64-linux-gnu/bits/string_fortified.h **** }
  36:/usr/include/x86_64-linux-gnu/bits/string_fortified.h **** 
  37:/usr/include/x86_64-linux-gnu/bits/string_fortified.h **** __fortify_function void *
  38:/usr/include/x86_64-linux-gnu/bits/string_fortified.h **** __NTH (memmove (void *__dest, const void *__src, size_t __len))
  39:/usr/include/x86_64-linux-gnu/bits/string_fortified.h **** {
  40:/usr/include/x86_64-linux-gnu/bits/string_fortified.h ****   return __builtin___memmove_chk (__dest, __src, __len, __bos0 (__dest));
  41:/usr/include/x86_64-linux-gnu/bits/string_fortified.h **** }
  42:/usr/include/x86_64-linux-gnu/bits/string_fortified.h **** 
  43:/usr/include/x86_64-linux-gnu/bits/string_fortified.h **** #ifdef __USE_GNU
  44:/usr/include/x86_64-linux-gnu/bits/string_fortified.h **** __fortify_function void *
  45:/usr/include/x86_64-linux-gnu/bits/string_fortified.h **** __NTH (mempcpy (void *__restrict __dest, const void *__restrict __src,
  46:/usr/include/x86_64-linux-gnu/bits/string_fortified.h **** 		size_t __len))
  47:/usr/include/x86_64-linux-gnu/bits/string_fortified.h **** {
  48:/usr/include/x86_64-linux-gnu/bits/string_fortified.h ****   return __builtin___mempcpy_chk (__dest, __src, __len, __bos0 (__dest));
  49:/usr/include/x86_64-linux-gnu/bits/string_fortified.h **** }
  50:/usr/include/x86_64-linux-gnu/bits/string_fortified.h **** #endif
  51:/usr/include/x86_64-linux-gnu/bits/string_fortified.h **** 
  52:/usr/include/x86_64-linux-gnu/bits/string_fortified.h **** 
  53:/usr/include/x86_64-linux-gnu/bits/string_fortified.h **** /* The first two tests here help to catch a somewhat common problem
  54:/usr/include/x86_64-linux-gnu/bits/string_fortified.h ****    where the second and third parameter are transposed.  This is
  55:/usr/include/x86_64-linux-gnu/bits/string_fortified.h ****    especially problematic if the intended fill value is zero.  In this
  56:/usr/include/x86_64-linux-gnu/bits/string_fortified.h ****    case no work is done at all.  We detect these problems by referring
  57:/usr/include/x86_64-linux-gnu/bits/string_fortified.h ****    non-existing functions.  */
  58:/usr/include/x86_64-linux-gnu/bits/string_fortified.h **** __fortify_function void *
  59:/usr/include/x86_64-linux-gnu/bits/string_fortified.h **** __NTH (memset (void *__dest, int __ch, size_t __len))
 737              		.loc 2 59 1 view .LVU228
 738              	.LBB74:
  60:/usr/include/x86_64-linux-gnu/bits/string_fortified.h **** {
  61:/usr/include/x86_64-linux-gnu/bits/string_fortified.h ****   /* GCC-5.0 and newer implements these checks in the compiler, so we don't
  62:/usr/include/x86_64-linux-gnu/bits/string_fortified.h ****      need them here.  */
  63:/usr/include/x86_64-linux-gnu/bits/string_fortified.h **** #if !__GNUC_PREREQ (5,0)
  64:/usr/include/x86_64-linux-gnu/bits/string_fortified.h ****   if (__builtin_constant_p (__len) && __len == 0
  65:/usr/include/x86_64-linux-gnu/bits/string_fortified.h ****       && (!__builtin_constant_p (__ch) || __ch != 0))
  66:/usr/include/x86_64-linux-gnu/bits/string_fortified.h ****     {
  67:/usr/include/x86_64-linux-gnu/bits/string_fortified.h ****       __warn_memset_zero_len ();
  68:/usr/include/x86_64-linux-gnu/bits/string_fortified.h ****       return __dest;
  69:/usr/include/x86_64-linux-gnu/bits/string_fortified.h ****     }
  70:/usr/include/x86_64-linux-gnu/bits/string_fortified.h **** #endif
  71:/usr/include/x86_64-linux-gnu/bits/string_fortified.h ****   return __builtin___memset_chk (__dest, __ch, __len, __bos0 (__dest));
 739              		.loc 2 71 3 view .LVU229
 740              		.loc 2 71 10 is_stmt 0 view .LVU230
 741 01cd 488DBB08 		leaq	1032(%rbx), %rdi
 741      040000
 742 01d4 89D8     		movl	%ebx, %eax
 743 01d6 48C78300 		movq	$0, 1024(%rbx)
 743      04000000 
 743      000000
 744              	.LVL84:
 745              		.loc 2 71 10 view .LVU231
 746 01e1 48C783F8 		movq	$0, 1272(%rbx)
 746      04000000 
 746      000000
 747 01ec 4883E7F8 		andq	$-8, %rdi
 748 01f0 29F8     		subl	%edi, %eax
 749 01f2 8D880005 		leal	1280(%rax), %ecx
 749      0000
 750              	.LVL85:
 751              		.loc 2 71 10 view .LVU232
 752 01f8 31C0     		xorl	%eax, %eax
 753 01fa C1E903   		shrl	$3, %ecx
 754 01fd F348AB   		rep stosq
 755              	.LVL86:
 756              		.loc 2 71 10 view .LVU233
 757              	.LBE74:
 758              	.LBE73:
 237:fltk-1.3.4-1/jpeg/jchuff.c **** 
 759              		.loc 1 237 3 is_stmt 1 view .LVU234
 237:fltk-1.3.4-1/jpeg/jchuff.c **** 
 760              		.loc 1 237 25 is_stmt 0 view .LVU235
 761 0200 837C241C 		cmpl	$1, 28(%rsp)
 761      01
 762 0205 19C0     		sbbl	%eax, %eax
 763 0207 25F00000 		andl	$240, %eax
 763      00
 764 020c 83C00F   		addl	$15, %eax
 765 020f 89442414 		movl	%eax, 20(%rsp)
 766              	.LVL87:
 239:fltk-1.3.4-1/jpeg/jchuff.c ****     i = htbl->huffval[p];
 767              		.loc 1 239 3 is_stmt 1 view .LVU236
 239:fltk-1.3.4-1/jpeg/jchuff.c ****     i = htbl->huffval[p];
 768              		.loc 1 239 15 view .LVU237
 239:fltk-1.3.4-1/jpeg/jchuff.c ****     i = htbl->huffval[p];
 769              		.loc 1 239 3 is_stmt 0 view .LVU238
 770 0213 4585ED   		testl	%r13d, %r13d
 771 0216 7477     		je	.L48
 772 0218 4183ED01 		subl	$1, %r13d
 773              	.LVL88:
 239:fltk-1.3.4-1/jpeg/jchuff.c ****     i = htbl->huffval[p];
 774              		.loc 1 239 3 view .LVU239
 775 021c 4531F6   		xorl	%r14d, %r14d
 776 021f 4C8D5424 		leaq	32(%rsp), %r10
 776      20
 777 0224 EB16     		jmp	.L69
 778              	.LVL89:
 779 0226 662E0F1F 		.p2align 4,,10
 779      84000000 
 779      0000
 780              		.p2align 3
 781              	.L96:
 239:fltk-1.3.4-1/jpeg/jchuff.c ****     i = htbl->huffval[p];
 782              		.loc 1 239 3 view .LVU240
 783 0230 460FB6A4 		movzbl	1073(%rsp,%r14), %r12d
 783      34310400 
 783      00
 784 0239 4989D6   		movq	%rdx, %r14
 785              	.LVL90:
 786              	.L69:
 240:fltk-1.3.4-1/jpeg/jchuff.c ****     if (i < 0 || i > maxsymbol || dtbl->ehufsi[i])
 787              		.loc 1 240 5 is_stmt 1 view .LVU241
 240:fltk-1.3.4-1/jpeg/jchuff.c ****     if (i < 0 || i > maxsymbol || dtbl->ehufsi[i])
 788              		.loc 1 240 7 is_stmt 0 view .LVU242
 789 023c 488B0424 		movq	(%rsp), %rax
 790 0240 460FB67C 		movzbl	17(%rax,%r14), %r15d
 790      3011
 791              	.LVL91:
 241:fltk-1.3.4-1/jpeg/jchuff.c ****       ERREXIT(cinfo, JERR_BAD_HUFF_TABLE);
 792              		.loc 1 241 5 is_stmt 1 view .LVU243
 241:fltk-1.3.4-1/jpeg/jchuff.c ****       ERREXIT(cinfo, JERR_BAD_HUFF_TABLE);
 793              		.loc 1 241 8 is_stmt 0 view .LVU244
 794 0246 44397C24 		cmpl	%r15d, 20(%rsp)
 794      14
 795 024b 7C0B     		jl	.L67
 241:fltk-1.3.4-1/jpeg/jchuff.c ****       ERREXIT(cinfo, JERR_BAD_HUFF_TABLE);
 796              		.loc 1 241 32 discriminator 1 view .LVU245
 797 024d 4280BC3B 		cmpb	$0, 1024(%rbx,%r15)
 797      00040000 
 797      00
 798 0256 741E     		je	.L68
 799              	.L67:
 242:fltk-1.3.4-1/jpeg/jchuff.c ****     dtbl->ehufco[i] = huffcode[p];
 800              		.loc 1 242 7 view .LVU246
 801 0258 488B5500 		movq	0(%rbp), %rdx
 802 025c 4C895424 		movq	%r10, 8(%rsp)
 802      08
 242:fltk-1.3.4-1/jpeg/jchuff.c ****     dtbl->ehufco[i] = huffcode[p];
 803              		.loc 1 242 7 is_stmt 1 view .LVU247
 804 0261 4889EF   		movq	%rbp, %rdi
 805 0264 C7422809 		movl	$9, 40(%rdx)
 805      000000
 806 026b 488B5500 		movq	0(%rbp), %rdx
 807 026f FF12     		call	*(%rdx)
 808              	.LVL92:
 809 0271 4C8B5424 		movq	8(%rsp), %r10
 809      08
 810              	.L68:
 243:fltk-1.3.4-1/jpeg/jchuff.c ****     dtbl->ehufsi[i] = huffsize[p];
 811              		.loc 1 243 5 discriminator 2 view .LVU248
 243:fltk-1.3.4-1/jpeg/jchuff.c ****     dtbl->ehufsi[i] = huffsize[p];
 812              		.loc 1 243 21 is_stmt 0 discriminator 2 view .LVU249
 813 0276 438B14B2 		movl	(%r10,%r14,4), %edx
 814 027a 428914BB 		movl	%edx, (%rbx,%r15,4)
 244:fltk-1.3.4-1/jpeg/jchuff.c ****   }
 815              		.loc 1 244 5 is_stmt 1 discriminator 2 view .LVU250
 816 027e 498D5601 		leaq	1(%r14), %rdx
 244:fltk-1.3.4-1/jpeg/jchuff.c ****   }
 817              		.loc 1 244 21 is_stmt 0 discriminator 2 view .LVU251
 818 0282 4688A43B 		movb	%r12b, 1024(%rbx,%r15)
 818      00040000 
 239:fltk-1.3.4-1/jpeg/jchuff.c ****     i = htbl->huffval[p];
 819              		.loc 1 239 26 is_stmt 1 discriminator 2 view .LVU252
 820              	.LVL93:
 239:fltk-1.3.4-1/jpeg/jchuff.c ****     i = htbl->huffval[p];
 821              		.loc 1 239 15 discriminator 2 view .LVU253
 239:fltk-1.3.4-1/jpeg/jchuff.c ****     i = htbl->huffval[p];
 822              		.loc 1 239 3 is_stmt 0 discriminator 2 view .LVU254
 823 028a 4D39F5   		cmpq	%r14, %r13
 824 028d 75A1     		jne	.L96
 825              	.LVL94:
 826              	.L48:
 246:fltk-1.3.4-1/jpeg/jchuff.c **** 
 827              		.loc 1 246 1 view .LVU255
 828 028f 488B8424 		movq	1336(%rsp), %rax
 828      38050000 
 829 0297 64483304 		xorq	%fs:40, %rax
 829      25280000 
 829      00
 830 02a0 0F858F00 		jne	.L97
 830      0000
 831 02a6 4881C448 		addq	$1352, %rsp
 831      050000
 832              		.cfi_remember_state
 833              		.cfi_def_cfa_offset 56
 834 02ad 5B       		popq	%rbx
 835              		.cfi_def_cfa_offset 48
 836 02ae 5D       		popq	%rbp
 837              		.cfi_def_cfa_offset 40
 838              	.LVL95:
 246:fltk-1.3.4-1/jpeg/jchuff.c **** 
 839              		.loc 1 246 1 view .LVU256
 840 02af 415C     		popq	%r12
 841              		.cfi_def_cfa_offset 32
 842 02b1 415D     		popq	%r13
 843              		.cfi_def_cfa_offset 24
 844 02b3 415E     		popq	%r14
 845              		.cfi_def_cfa_offset 16
 846 02b5 415F     		popq	%r15
 847              		.cfi_def_cfa_offset 8
 848 02b7 C3       		ret
 849              	.LVL96:
 850              	.L95:
 851              		.cfi_restore_state
 217:fltk-1.3.4-1/jpeg/jchuff.c ****       ERREXIT(cinfo, JERR_BAD_HUFF_TABLE);
 852              		.loc 1 217 5 is_stmt 1 view .LVU257
 217:fltk-1.3.4-1/jpeg/jchuff.c ****       ERREXIT(cinfo, JERR_BAD_HUFF_TABLE);
 853              		.loc 1 217 40 is_stmt 0 view .LVU258
 854 02b8 BF010000 		movl	$1, %edi
 854      00
 217:fltk-1.3.4-1/jpeg/jchuff.c ****       ERREXIT(cinfo, JERR_BAD_HUFF_TABLE);
 855              		.loc 1 217 10 view .LVU259
 856 02bd 4489F8   		movl	%r15d, %eax
 217:fltk-1.3.4-1/jpeg/jchuff.c ****       ERREXIT(cinfo, JERR_BAD_HUFF_TABLE);
 857              		.loc 1 217 40 view .LVU260
 858 02c0 48D3E7   		salq	%cl, %rdi
 217:fltk-1.3.4-1/jpeg/jchuff.c ****       ERREXIT(cinfo, JERR_BAD_HUFF_TABLE);
 859              		.loc 1 217 8 view .LVU261
 860 02c3 4839F8   		cmpq	%rdi, %rax
 861 02c6 0F8DC1FE 		jge	.L71
 861      FFFF
 219:fltk-1.3.4-1/jpeg/jchuff.c ****     si++;
 862              		.loc 1 219 5 is_stmt 1 view .LVU262
 219:fltk-1.3.4-1/jpeg/jchuff.c ****     si++;
 863              		.loc 1 219 10 is_stmt 0 view .LVU263
 864 02cc 4501FF   		addl	%r15d, %r15d
 865              	.LVL97:
 220:fltk-1.3.4-1/jpeg/jchuff.c ****   }
 866              		.loc 1 220 5 is_stmt 1 view .LVU264
 220:fltk-1.3.4-1/jpeg/jchuff.c ****   }
 867              		.loc 1 220 7 is_stmt 0 view .LVU265
 868 02cf 83C101   		addl	$1, %ecx
 869              	.LVL98:
 209:fltk-1.3.4-1/jpeg/jchuff.c ****     while (((int) huffsize[p]) == si) {
 870              		.loc 1 209 9 is_stmt 1 view .LVU266
 209:fltk-1.3.4-1/jpeg/jchuff.c ****     while (((int) huffsize[p]) == si) {
 871              		.loc 1 209 9 is_stmt 0 view .LVU267
 872 02d2 E969FEFF 		jmp	.L59
 872      FF
 873              	.LVL99:
 874              	.L50:
 179:fltk-1.3.4-1/jpeg/jchuff.c ****   if (htbl == NULL)
 875              		.loc 1 179 43 discriminator 2 view .LVU268
 876 02d7 488B84C5 		movq	192(%rbp,%rax,8), %rax
 876      C0000000 
 877 02df 48890424 		movq	%rax, (%rsp)
 878              	.LVL100:
 180:fltk-1.3.4-1/jpeg/jchuff.c ****     ERREXIT1(cinfo, JERR_NO_HUFF_TABLE, tblno);
 879              		.loc 1 180 3 is_stmt 1 discriminator 2 view .LVU269
 180:fltk-1.3.4-1/jpeg/jchuff.c ****     ERREXIT1(cinfo, JERR_NO_HUFF_TABLE, tblno);
 880              		.loc 1 180 6 is_stmt 0 discriminator 2 view .LVU270
 881 02e3 48833C24 		cmpq	$0, (%rsp)
 881      00
 882 02e8 0F8582FD 		jne	.L52
 882      FFFF
 883              	.L92:
 181:fltk-1.3.4-1/jpeg/jchuff.c **** 
 884              		.loc 1 181 5 is_stmt 1 view .LVU271
 885 02ee 488B4500 		movq	0(%rbp), %rax
 886              	.LVL101:
 181:fltk-1.3.4-1/jpeg/jchuff.c **** 
 887              		.loc 1 181 5 is_stmt 0 view .LVU272
 888 02f2 4889EF   		movq	%rbp, %rdi
 889 02f5 C7402834 		movl	$52, 40(%rax)
 889      000000
 890 02fc 488B4500 		movq	0(%rbp), %rax
 891 0300 89582C   		movl	%ebx, 44(%rax)
 892 0303 488B4500 		movq	0(%rbp), %rax
 893 0307 FF10     		call	*(%rax)
 894              	.LVL102:
 184:fltk-1.3.4-1/jpeg/jchuff.c ****     *pdtbl = (c_derived_tbl *)
 895              		.loc 1 184 3 is_stmt 1 view .LVU273
 184:fltk-1.3.4-1/jpeg/jchuff.c ****     *pdtbl = (c_derived_tbl *)
 896              		.loc 1 184 7 is_stmt 0 view .LVU274
 897 0309 498B1C24 		movq	(%r12), %rbx
 898              	.LVL103:
 184:fltk-1.3.4-1/jpeg/jchuff.c ****     *pdtbl = (c_derived_tbl *)
 899              		.loc 1 184 6 view .LVU275
 900 030d 4885DB   		testq	%rbx, %rbx
 901 0310 0F8567FD 		jne	.L53
 901      FFFF
 902              	.L93:
 185:fltk-1.3.4-1/jpeg/jchuff.c ****       (*cinfo->mem->alloc_small) ((j_common_ptr) cinfo, JPOOL_IMAGE,
 903              		.loc 1 185 5 is_stmt 1 view .LVU276
 186:fltk-1.3.4-1/jpeg/jchuff.c **** 				  SIZEOF(c_derived_tbl));
 904              		.loc 1 186 8 is_stmt 0 view .LVU277
 905 0316 488B4508 		movq	8(%rbp), %rax
 906 031a BA000500 		movl	$1280, %edx
 906      00
 907 031f BE010000 		movl	$1, %esi
 907      00
 908 0324 4889EF   		movq	%rbp, %rdi
 909 0327 FF10     		call	*(%rax)
 910              	.LVL104:
 185:fltk-1.3.4-1/jpeg/jchuff.c ****       (*cinfo->mem->alloc_small) ((j_common_ptr) cinfo, JPOOL_IMAGE,
 911              		.loc 1 185 12 view .LVU278
 912 0329 49890424 		movq	%rax, (%r12)
 186:fltk-1.3.4-1/jpeg/jchuff.c **** 				  SIZEOF(c_derived_tbl));
 913              		.loc 1 186 8 view .LVU279
 914 032d 4889C3   		movq	%rax, %rbx
 915 0330 E948FDFF 		jmp	.L53
 915      FF
 916              	.LVL105:
 917              	.L97:
 246:fltk-1.3.4-1/jpeg/jchuff.c **** 
 918              		.loc 1 246 1 view .LVU280
 919 0335 E8000000 		call	__stack_chk_fail@PLT
 919      00
 920              	.LVL106:
 921              		.cfi_endproc
 922              	.LFE51:
 924              		.section	.text.start_pass_huff,"ax",@progbits
 925              		.p2align 4
 927              	start_pass_huff:
 928              	.LVL107:
 929              	.LFB75:
1223:fltk-1.3.4-1/jpeg/jchuff.c **** 
1224:fltk-1.3.4-1/jpeg/jchuff.c **** 
1225:fltk-1.3.4-1/jpeg/jchuff.c **** /*
1226:fltk-1.3.4-1/jpeg/jchuff.c ****  * Generate the best Huffman code table for the given counts, fill htbl.
1227:fltk-1.3.4-1/jpeg/jchuff.c ****  *
1228:fltk-1.3.4-1/jpeg/jchuff.c ****  * The JPEG standard requires that no symbol be assigned a codeword of all
1229:fltk-1.3.4-1/jpeg/jchuff.c ****  * one bits (so that padding bits added at the end of a compressed segment
1230:fltk-1.3.4-1/jpeg/jchuff.c ****  * can't look like a valid code).  Because of the canonical ordering of
1231:fltk-1.3.4-1/jpeg/jchuff.c ****  * codewords, this just means that there must be an unused slot in the
1232:fltk-1.3.4-1/jpeg/jchuff.c ****  * longest codeword length category.  Section K.2 of the JPEG spec suggests
1233:fltk-1.3.4-1/jpeg/jchuff.c ****  * reserving such a slot by pretending that symbol 256 is a valid symbol
1234:fltk-1.3.4-1/jpeg/jchuff.c ****  * with count 1.  In theory that's not optimal; giving it count zero but
1235:fltk-1.3.4-1/jpeg/jchuff.c ****  * including it in the symbol set anyway should give a better Huffman code.
1236:fltk-1.3.4-1/jpeg/jchuff.c ****  * But the theoretically better code actually seems to come out worse in
1237:fltk-1.3.4-1/jpeg/jchuff.c ****  * practice, because it produces more all-ones bytes (which incur stuffed
1238:fltk-1.3.4-1/jpeg/jchuff.c ****  * zero bytes in the final file).  In any case the difference is tiny.
1239:fltk-1.3.4-1/jpeg/jchuff.c ****  *
1240:fltk-1.3.4-1/jpeg/jchuff.c ****  * The JPEG standard requires Huffman codes to be no more than 16 bits long.
1241:fltk-1.3.4-1/jpeg/jchuff.c ****  * If some symbols have a very small but nonzero probability, the Huffman tree
1242:fltk-1.3.4-1/jpeg/jchuff.c ****  * must be adjusted to meet the code length restriction.  We currently use
1243:fltk-1.3.4-1/jpeg/jchuff.c ****  * the adjustment method suggested in JPEG section K.2.  This method is *not*
1244:fltk-1.3.4-1/jpeg/jchuff.c ****  * optimal; it may not choose the best possible limited-length code.  But
1245:fltk-1.3.4-1/jpeg/jchuff.c ****  * typically only very-low-frequency symbols will be given less-than-optimal
1246:fltk-1.3.4-1/jpeg/jchuff.c ****  * lengths, so the code is almost optimal.  Experimental comparisons against
1247:fltk-1.3.4-1/jpeg/jchuff.c ****  * an optimal limited-length-code algorithm indicate that the difference is
1248:fltk-1.3.4-1/jpeg/jchuff.c ****  * microscopic --- usually less than a hundredth of a percent of total size.
1249:fltk-1.3.4-1/jpeg/jchuff.c ****  * So the extra complexity of an optimal algorithm doesn't seem worthwhile.
1250:fltk-1.3.4-1/jpeg/jchuff.c ****  */
1251:fltk-1.3.4-1/jpeg/jchuff.c **** 
1252:fltk-1.3.4-1/jpeg/jchuff.c **** LOCAL(void)
1253:fltk-1.3.4-1/jpeg/jchuff.c **** jpeg_gen_optimal_table (j_compress_ptr cinfo, JHUFF_TBL * htbl, long freq[])
1254:fltk-1.3.4-1/jpeg/jchuff.c **** {
1255:fltk-1.3.4-1/jpeg/jchuff.c **** #define MAX_CLEN 32		/* assumed maximum initial code length */
1256:fltk-1.3.4-1/jpeg/jchuff.c ****   UINT8 bits[MAX_CLEN+1];	/* bits[k] = # of symbols with code length k */
1257:fltk-1.3.4-1/jpeg/jchuff.c ****   int codesize[257];		/* codesize[k] = code length of symbol k */
1258:fltk-1.3.4-1/jpeg/jchuff.c ****   int others[257];		/* next symbol in current branch of tree */
1259:fltk-1.3.4-1/jpeg/jchuff.c ****   int c1, c2;
1260:fltk-1.3.4-1/jpeg/jchuff.c ****   int p, i, j;
1261:fltk-1.3.4-1/jpeg/jchuff.c ****   long v;
1262:fltk-1.3.4-1/jpeg/jchuff.c **** 
1263:fltk-1.3.4-1/jpeg/jchuff.c ****   /* This algorithm is explained in section K.2 of the JPEG standard */
1264:fltk-1.3.4-1/jpeg/jchuff.c **** 
1265:fltk-1.3.4-1/jpeg/jchuff.c ****   MEMZERO(bits, SIZEOF(bits));
1266:fltk-1.3.4-1/jpeg/jchuff.c ****   MEMZERO(codesize, SIZEOF(codesize));
1267:fltk-1.3.4-1/jpeg/jchuff.c ****   for (i = 0; i < 257; i++)
1268:fltk-1.3.4-1/jpeg/jchuff.c ****     others[i] = -1;		/* init links to empty */
1269:fltk-1.3.4-1/jpeg/jchuff.c ****   
1270:fltk-1.3.4-1/jpeg/jchuff.c ****   freq[256] = 1;		/* make sure 256 has a nonzero count */
1271:fltk-1.3.4-1/jpeg/jchuff.c ****   /* Including the pseudo-symbol 256 in the Huffman procedure guarantees
1272:fltk-1.3.4-1/jpeg/jchuff.c ****    * that no real symbol is given code-value of all ones, because 256
1273:fltk-1.3.4-1/jpeg/jchuff.c ****    * will be placed last in the largest codeword category.
1274:fltk-1.3.4-1/jpeg/jchuff.c ****    */
1275:fltk-1.3.4-1/jpeg/jchuff.c **** 
1276:fltk-1.3.4-1/jpeg/jchuff.c ****   /* Huffman's basic algorithm to assign optimal code lengths to symbols */
1277:fltk-1.3.4-1/jpeg/jchuff.c **** 
1278:fltk-1.3.4-1/jpeg/jchuff.c ****   for (;;) {
1279:fltk-1.3.4-1/jpeg/jchuff.c ****     /* Find the smallest nonzero frequency, set c1 = its symbol */
1280:fltk-1.3.4-1/jpeg/jchuff.c ****     /* In case of ties, take the larger symbol number */
1281:fltk-1.3.4-1/jpeg/jchuff.c ****     c1 = -1;
1282:fltk-1.3.4-1/jpeg/jchuff.c ****     v = 1000000000L;
1283:fltk-1.3.4-1/jpeg/jchuff.c ****     for (i = 0; i <= 256; i++) {
1284:fltk-1.3.4-1/jpeg/jchuff.c ****       if (freq[i] && freq[i] <= v) {
1285:fltk-1.3.4-1/jpeg/jchuff.c **** 	v = freq[i];
1286:fltk-1.3.4-1/jpeg/jchuff.c **** 	c1 = i;
1287:fltk-1.3.4-1/jpeg/jchuff.c ****       }
1288:fltk-1.3.4-1/jpeg/jchuff.c ****     }
1289:fltk-1.3.4-1/jpeg/jchuff.c **** 
1290:fltk-1.3.4-1/jpeg/jchuff.c ****     /* Find the next smallest nonzero frequency, set c2 = its symbol */
1291:fltk-1.3.4-1/jpeg/jchuff.c ****     /* In case of ties, take the larger symbol number */
1292:fltk-1.3.4-1/jpeg/jchuff.c ****     c2 = -1;
1293:fltk-1.3.4-1/jpeg/jchuff.c ****     v = 1000000000L;
1294:fltk-1.3.4-1/jpeg/jchuff.c ****     for (i = 0; i <= 256; i++) {
1295:fltk-1.3.4-1/jpeg/jchuff.c ****       if (freq[i] && freq[i] <= v && i != c1) {
1296:fltk-1.3.4-1/jpeg/jchuff.c **** 	v = freq[i];
1297:fltk-1.3.4-1/jpeg/jchuff.c **** 	c2 = i;
1298:fltk-1.3.4-1/jpeg/jchuff.c ****       }
1299:fltk-1.3.4-1/jpeg/jchuff.c ****     }
1300:fltk-1.3.4-1/jpeg/jchuff.c **** 
1301:fltk-1.3.4-1/jpeg/jchuff.c ****     /* Done if we've merged everything into one frequency */
1302:fltk-1.3.4-1/jpeg/jchuff.c ****     if (c2 < 0)
1303:fltk-1.3.4-1/jpeg/jchuff.c ****       break;
1304:fltk-1.3.4-1/jpeg/jchuff.c ****     
1305:fltk-1.3.4-1/jpeg/jchuff.c ****     /* Else merge the two counts/trees */
1306:fltk-1.3.4-1/jpeg/jchuff.c ****     freq[c1] += freq[c2];
1307:fltk-1.3.4-1/jpeg/jchuff.c ****     freq[c2] = 0;
1308:fltk-1.3.4-1/jpeg/jchuff.c **** 
1309:fltk-1.3.4-1/jpeg/jchuff.c ****     /* Increment the codesize of everything in c1's tree branch */
1310:fltk-1.3.4-1/jpeg/jchuff.c ****     codesize[c1]++;
1311:fltk-1.3.4-1/jpeg/jchuff.c ****     while (others[c1] >= 0) {
1312:fltk-1.3.4-1/jpeg/jchuff.c ****       c1 = others[c1];
1313:fltk-1.3.4-1/jpeg/jchuff.c ****       codesize[c1]++;
1314:fltk-1.3.4-1/jpeg/jchuff.c ****     }
1315:fltk-1.3.4-1/jpeg/jchuff.c ****     
1316:fltk-1.3.4-1/jpeg/jchuff.c ****     others[c1] = c2;		/* chain c2 onto c1's tree branch */
1317:fltk-1.3.4-1/jpeg/jchuff.c ****     
1318:fltk-1.3.4-1/jpeg/jchuff.c ****     /* Increment the codesize of everything in c2's tree branch */
1319:fltk-1.3.4-1/jpeg/jchuff.c ****     codesize[c2]++;
1320:fltk-1.3.4-1/jpeg/jchuff.c ****     while (others[c2] >= 0) {
1321:fltk-1.3.4-1/jpeg/jchuff.c ****       c2 = others[c2];
1322:fltk-1.3.4-1/jpeg/jchuff.c ****       codesize[c2]++;
1323:fltk-1.3.4-1/jpeg/jchuff.c ****     }
1324:fltk-1.3.4-1/jpeg/jchuff.c ****   }
1325:fltk-1.3.4-1/jpeg/jchuff.c **** 
1326:fltk-1.3.4-1/jpeg/jchuff.c ****   /* Now count the number of symbols of each code length */
1327:fltk-1.3.4-1/jpeg/jchuff.c ****   for (i = 0; i <= 256; i++) {
1328:fltk-1.3.4-1/jpeg/jchuff.c ****     if (codesize[i]) {
1329:fltk-1.3.4-1/jpeg/jchuff.c ****       /* The JPEG standard seems to think that this can't happen, */
1330:fltk-1.3.4-1/jpeg/jchuff.c ****       /* but I'm paranoid... */
1331:fltk-1.3.4-1/jpeg/jchuff.c ****       if (codesize[i] > MAX_CLEN)
1332:fltk-1.3.4-1/jpeg/jchuff.c **** 	ERREXIT(cinfo, JERR_HUFF_CLEN_OVERFLOW);
1333:fltk-1.3.4-1/jpeg/jchuff.c **** 
1334:fltk-1.3.4-1/jpeg/jchuff.c ****       bits[codesize[i]]++;
1335:fltk-1.3.4-1/jpeg/jchuff.c ****     }
1336:fltk-1.3.4-1/jpeg/jchuff.c ****   }
1337:fltk-1.3.4-1/jpeg/jchuff.c **** 
1338:fltk-1.3.4-1/jpeg/jchuff.c ****   /* JPEG doesn't allow symbols with code lengths over 16 bits, so if the pure
1339:fltk-1.3.4-1/jpeg/jchuff.c ****    * Huffman procedure assigned any such lengths, we must adjust the coding.
1340:fltk-1.3.4-1/jpeg/jchuff.c ****    * Here is what the JPEG spec says about how this next bit works:
1341:fltk-1.3.4-1/jpeg/jchuff.c ****    * Since symbols are paired for the longest Huffman code, the symbols are
1342:fltk-1.3.4-1/jpeg/jchuff.c ****    * removed from this length category two at a time.  The prefix for the pair
1343:fltk-1.3.4-1/jpeg/jchuff.c ****    * (which is one bit shorter) is allocated to one of the pair; then,
1344:fltk-1.3.4-1/jpeg/jchuff.c ****    * skipping the BITS entry for that prefix length, a code word from the next
1345:fltk-1.3.4-1/jpeg/jchuff.c ****    * shortest nonzero BITS entry is converted into a prefix for two code words
1346:fltk-1.3.4-1/jpeg/jchuff.c ****    * one bit longer.
1347:fltk-1.3.4-1/jpeg/jchuff.c ****    */
1348:fltk-1.3.4-1/jpeg/jchuff.c ****   
1349:fltk-1.3.4-1/jpeg/jchuff.c ****   for (i = MAX_CLEN; i > 16; i--) {
1350:fltk-1.3.4-1/jpeg/jchuff.c ****     while (bits[i] > 0) {
1351:fltk-1.3.4-1/jpeg/jchuff.c ****       j = i - 2;		/* find length of new prefix to be used */
1352:fltk-1.3.4-1/jpeg/jchuff.c ****       while (bits[j] == 0)
1353:fltk-1.3.4-1/jpeg/jchuff.c **** 	j--;
1354:fltk-1.3.4-1/jpeg/jchuff.c ****       
1355:fltk-1.3.4-1/jpeg/jchuff.c ****       bits[i] -= 2;		/* remove two symbols */
1356:fltk-1.3.4-1/jpeg/jchuff.c ****       bits[i-1]++;		/* one goes in this length */
1357:fltk-1.3.4-1/jpeg/jchuff.c ****       bits[j+1] += 2;		/* two new symbols in this length */
1358:fltk-1.3.4-1/jpeg/jchuff.c ****       bits[j]--;		/* symbol of this length is now a prefix */
1359:fltk-1.3.4-1/jpeg/jchuff.c ****     }
1360:fltk-1.3.4-1/jpeg/jchuff.c ****   }
1361:fltk-1.3.4-1/jpeg/jchuff.c **** 
1362:fltk-1.3.4-1/jpeg/jchuff.c ****   /* Remove the count for the pseudo-symbol 256 from the largest codelength */
1363:fltk-1.3.4-1/jpeg/jchuff.c ****   while (bits[i] == 0)		/* find largest codelength still in use */
1364:fltk-1.3.4-1/jpeg/jchuff.c ****     i--;
1365:fltk-1.3.4-1/jpeg/jchuff.c ****   bits[i]--;
1366:fltk-1.3.4-1/jpeg/jchuff.c ****   
1367:fltk-1.3.4-1/jpeg/jchuff.c ****   /* Return final symbol counts (only for lengths 0..16) */
1368:fltk-1.3.4-1/jpeg/jchuff.c ****   MEMCOPY(htbl->bits, bits, SIZEOF(htbl->bits));
1369:fltk-1.3.4-1/jpeg/jchuff.c ****   
1370:fltk-1.3.4-1/jpeg/jchuff.c ****   /* Return a list of the symbols sorted by code length */
1371:fltk-1.3.4-1/jpeg/jchuff.c ****   /* It's not real clear to me why we don't need to consider the codelength
1372:fltk-1.3.4-1/jpeg/jchuff.c ****    * changes made above, but the JPEG spec seems to think this works.
1373:fltk-1.3.4-1/jpeg/jchuff.c ****    */
1374:fltk-1.3.4-1/jpeg/jchuff.c ****   p = 0;
1375:fltk-1.3.4-1/jpeg/jchuff.c ****   for (i = 1; i <= MAX_CLEN; i++) {
1376:fltk-1.3.4-1/jpeg/jchuff.c ****     for (j = 0; j <= 255; j++) {
1377:fltk-1.3.4-1/jpeg/jchuff.c ****       if (codesize[j] == i) {
1378:fltk-1.3.4-1/jpeg/jchuff.c **** 	htbl->huffval[p] = (UINT8) j;
1379:fltk-1.3.4-1/jpeg/jchuff.c **** 	p++;
1380:fltk-1.3.4-1/jpeg/jchuff.c ****       }
1381:fltk-1.3.4-1/jpeg/jchuff.c ****     }
1382:fltk-1.3.4-1/jpeg/jchuff.c ****   }
1383:fltk-1.3.4-1/jpeg/jchuff.c **** 
1384:fltk-1.3.4-1/jpeg/jchuff.c ****   /* Set sent_table FALSE so updated table will be written to JPEG file. */
1385:fltk-1.3.4-1/jpeg/jchuff.c ****   htbl->sent_table = FALSE;
1386:fltk-1.3.4-1/jpeg/jchuff.c **** }
1387:fltk-1.3.4-1/jpeg/jchuff.c **** 
1388:fltk-1.3.4-1/jpeg/jchuff.c **** 
1389:fltk-1.3.4-1/jpeg/jchuff.c **** /*
1390:fltk-1.3.4-1/jpeg/jchuff.c ****  * Finish up a statistics-gathering pass and create the new Huffman tables.
1391:fltk-1.3.4-1/jpeg/jchuff.c ****  */
1392:fltk-1.3.4-1/jpeg/jchuff.c **** 
1393:fltk-1.3.4-1/jpeg/jchuff.c **** METHODDEF(void)
1394:fltk-1.3.4-1/jpeg/jchuff.c **** finish_pass_gather (j_compress_ptr cinfo)
1395:fltk-1.3.4-1/jpeg/jchuff.c **** {
1396:fltk-1.3.4-1/jpeg/jchuff.c ****   huff_entropy_ptr entropy = (huff_entropy_ptr) cinfo->entropy;
1397:fltk-1.3.4-1/jpeg/jchuff.c ****   int ci, tbl;
1398:fltk-1.3.4-1/jpeg/jchuff.c ****   jpeg_component_info * compptr;
1399:fltk-1.3.4-1/jpeg/jchuff.c ****   JHUFF_TBL **htblptr;
1400:fltk-1.3.4-1/jpeg/jchuff.c ****   boolean did_dc[NUM_HUFF_TBLS];
1401:fltk-1.3.4-1/jpeg/jchuff.c ****   boolean did_ac[NUM_HUFF_TBLS];
1402:fltk-1.3.4-1/jpeg/jchuff.c **** 
1403:fltk-1.3.4-1/jpeg/jchuff.c ****   /* It's important not to apply jpeg_gen_optimal_table more than once
1404:fltk-1.3.4-1/jpeg/jchuff.c ****    * per table, because it clobbers the input frequency counts!
1405:fltk-1.3.4-1/jpeg/jchuff.c ****    */
1406:fltk-1.3.4-1/jpeg/jchuff.c ****   if (cinfo->progressive_mode)
1407:fltk-1.3.4-1/jpeg/jchuff.c ****     /* Flush out buffered data (all we care about is counting the EOB symbol) */
1408:fltk-1.3.4-1/jpeg/jchuff.c ****     emit_eobrun(entropy);
1409:fltk-1.3.4-1/jpeg/jchuff.c **** 
1410:fltk-1.3.4-1/jpeg/jchuff.c ****   MEMZERO(did_dc, SIZEOF(did_dc));
1411:fltk-1.3.4-1/jpeg/jchuff.c ****   MEMZERO(did_ac, SIZEOF(did_ac));
1412:fltk-1.3.4-1/jpeg/jchuff.c **** 
1413:fltk-1.3.4-1/jpeg/jchuff.c ****   for (ci = 0; ci < cinfo->comps_in_scan; ci++) {
1414:fltk-1.3.4-1/jpeg/jchuff.c ****     compptr = cinfo->cur_comp_info[ci];
1415:fltk-1.3.4-1/jpeg/jchuff.c ****     /* DC needs no table for refinement scan */
1416:fltk-1.3.4-1/jpeg/jchuff.c ****     if (cinfo->Ss == 0 && cinfo->Ah == 0) {
1417:fltk-1.3.4-1/jpeg/jchuff.c ****       tbl = compptr->dc_tbl_no;
1418:fltk-1.3.4-1/jpeg/jchuff.c ****       if (! did_dc[tbl]) {
1419:fltk-1.3.4-1/jpeg/jchuff.c **** 	htblptr = & cinfo->dc_huff_tbl_ptrs[tbl];
1420:fltk-1.3.4-1/jpeg/jchuff.c **** 	if (*htblptr == NULL)
1421:fltk-1.3.4-1/jpeg/jchuff.c **** 	  *htblptr = jpeg_alloc_huff_table((j_common_ptr) cinfo);
1422:fltk-1.3.4-1/jpeg/jchuff.c **** 	jpeg_gen_optimal_table(cinfo, *htblptr, entropy->dc_count_ptrs[tbl]);
1423:fltk-1.3.4-1/jpeg/jchuff.c **** 	did_dc[tbl] = TRUE;
1424:fltk-1.3.4-1/jpeg/jchuff.c ****       }
1425:fltk-1.3.4-1/jpeg/jchuff.c ****     }
1426:fltk-1.3.4-1/jpeg/jchuff.c ****     /* AC needs no table when not present */
1427:fltk-1.3.4-1/jpeg/jchuff.c ****     if (cinfo->Se) {
1428:fltk-1.3.4-1/jpeg/jchuff.c ****       tbl = compptr->ac_tbl_no;
1429:fltk-1.3.4-1/jpeg/jchuff.c ****       if (! did_ac[tbl]) {
1430:fltk-1.3.4-1/jpeg/jchuff.c **** 	htblptr = & cinfo->ac_huff_tbl_ptrs[tbl];
1431:fltk-1.3.4-1/jpeg/jchuff.c **** 	if (*htblptr == NULL)
1432:fltk-1.3.4-1/jpeg/jchuff.c **** 	  *htblptr = jpeg_alloc_huff_table((j_common_ptr) cinfo);
1433:fltk-1.3.4-1/jpeg/jchuff.c **** 	jpeg_gen_optimal_table(cinfo, *htblptr, entropy->ac_count_ptrs[tbl]);
1434:fltk-1.3.4-1/jpeg/jchuff.c **** 	did_ac[tbl] = TRUE;
1435:fltk-1.3.4-1/jpeg/jchuff.c ****       }
1436:fltk-1.3.4-1/jpeg/jchuff.c ****     }
1437:fltk-1.3.4-1/jpeg/jchuff.c ****   }
1438:fltk-1.3.4-1/jpeg/jchuff.c **** }
1439:fltk-1.3.4-1/jpeg/jchuff.c **** 
1440:fltk-1.3.4-1/jpeg/jchuff.c **** 
1441:fltk-1.3.4-1/jpeg/jchuff.c **** /*
1442:fltk-1.3.4-1/jpeg/jchuff.c ****  * Initialize for a Huffman-compressed scan.
1443:fltk-1.3.4-1/jpeg/jchuff.c ****  * If gather_statistics is TRUE, we do not output anything during the scan,
1444:fltk-1.3.4-1/jpeg/jchuff.c ****  * just count the Huffman symbols used and generate Huffman code tables.
1445:fltk-1.3.4-1/jpeg/jchuff.c ****  */
1446:fltk-1.3.4-1/jpeg/jchuff.c **** 
1447:fltk-1.3.4-1/jpeg/jchuff.c **** METHODDEF(void)
1448:fltk-1.3.4-1/jpeg/jchuff.c **** start_pass_huff (j_compress_ptr cinfo, boolean gather_statistics)
1449:fltk-1.3.4-1/jpeg/jchuff.c **** {
 930              		.loc 1 1449 1 is_stmt 1 view -0
 931              		.cfi_startproc
 932              		.loc 1 1449 1 is_stmt 0 view .LVU282
 933 0000 F30F1EFA 		endbr64
1450:fltk-1.3.4-1/jpeg/jchuff.c ****   huff_entropy_ptr entropy = (huff_entropy_ptr) cinfo->entropy;
 934              		.loc 1 1450 3 is_stmt 1 view .LVU283
1449:fltk-1.3.4-1/jpeg/jchuff.c ****   huff_entropy_ptr entropy = (huff_entropy_ptr) cinfo->entropy;
 935              		.loc 1 1449 1 is_stmt 0 view .LVU284
 936 0004 4157     		pushq	%r15
 937              		.cfi_def_cfa_offset 16
 938              		.cfi_offset 15, -16
 939 0006 4156     		pushq	%r14
 940              		.cfi_def_cfa_offset 24
 941              		.cfi_offset 14, -24
 942 0008 4189F6   		movl	%esi, %r14d
 943 000b 4155     		pushq	%r13
 944              		.cfi_def_cfa_offset 32
 945              		.cfi_offset 13, -32
 946 000d 4154     		pushq	%r12
 947              		.cfi_def_cfa_offset 40
 948              		.cfi_offset 12, -40
 949 000f 55       		pushq	%rbp
 950              		.cfi_def_cfa_offset 48
 951              		.cfi_offset 6, -48
 952 0010 53       		pushq	%rbx
 953              		.cfi_def_cfa_offset 56
 954              		.cfi_offset 3, -56
 955 0011 4889FB   		movq	%rdi, %rbx
 956 0014 4883EC18 		subq	$24, %rsp
 957              		.cfi_def_cfa_offset 80
 958              		.loc 1 1450 20 view .LVU285
 959 0018 4C8BAF30 		movq	560(%rdi), %r13
 959      020000
 960              	.LVL108:
1451:fltk-1.3.4-1/jpeg/jchuff.c ****   int ci, tbl;
 961              		.loc 1 1451 3 is_stmt 1 view .LVU286
1452:fltk-1.3.4-1/jpeg/jchuff.c ****   jpeg_component_info * compptr;
 962              		.loc 1 1452 3 view .LVU287
1453:fltk-1.3.4-1/jpeg/jchuff.c **** 
1454:fltk-1.3.4-1/jpeg/jchuff.c ****   if (gather_statistics)
 963              		.loc 1 1454 3 view .LVU288
 964              		.loc 1 1454 6 is_stmt 0 view .LVU289
 965 001f 85F6     		testl	%esi, %esi
 966 0021 0F84B900 		je	.L99
 966      0000
1455:fltk-1.3.4-1/jpeg/jchuff.c ****     entropy->pub.finish_pass = finish_pass_gather;
 967              		.loc 1 1455 5 is_stmt 1 view .LVU290
 968              		.loc 1 1455 30 is_stmt 0 view .LVU291
 969 0027 488D0500 		leaq	finish_pass_gather(%rip), %rax
 969      000000
 970 002e 49894510 		movq	%rax, 16(%r13)
1456:fltk-1.3.4-1/jpeg/jchuff.c ****   else
1457:fltk-1.3.4-1/jpeg/jchuff.c ****     entropy->pub.finish_pass = finish_pass_huff;
1458:fltk-1.3.4-1/jpeg/jchuff.c **** 
1459:fltk-1.3.4-1/jpeg/jchuff.c ****   if (cinfo->progressive_mode) {
 971              		.loc 1 1459 3 is_stmt 1 view .LVU292
 972              		.loc 1 1459 6 is_stmt 0 view .LVU293
 973 0032 448B9F5C 		movl	348(%rdi), %r11d
 973      010000
 974 0039 4585DB   		testl	%r11d, %r11d
 975 003c 0F842E02 		je	.L100
 975      0000
 976              	.L103:
1460:fltk-1.3.4-1/jpeg/jchuff.c ****     entropy->cinfo = cinfo;
 977              		.loc 1 1460 5 is_stmt 1 view .LVU294
 978              		.loc 1 1460 20 is_stmt 0 view .LVU295
 979 0042 49899DD8 		movq	%rbx, 216(%r13)
 979      000000
1461:fltk-1.3.4-1/jpeg/jchuff.c ****     entropy->gather_statistics = gather_statistics;
 980              		.loc 1 1461 5 is_stmt 1 view .LVU296
 981              		.loc 1 1461 32 is_stmt 0 view .LVU297
 982 0049 4589B5C0 		movl	%r14d, 192(%r13)
 982      000000
1462:fltk-1.3.4-1/jpeg/jchuff.c **** 
1463:fltk-1.3.4-1/jpeg/jchuff.c ****     /* We assume jcmaster.c already validated the scan parameters. */
1464:fltk-1.3.4-1/jpeg/jchuff.c **** 
1465:fltk-1.3.4-1/jpeg/jchuff.c ****     /* Select execution routine */
1466:fltk-1.3.4-1/jpeg/jchuff.c ****     if (cinfo->Ah == 0) {
 983              		.loc 1 1466 5 is_stmt 1 view .LVU298
 984              		.loc 1 1466 8 is_stmt 0 view .LVU299
 985 0050 448B93D4 		movl	468(%rbx), %r10d
 985      010000
 986 0057 4585D2   		testl	%r10d, %r10d
 987 005a 0F85E801 		jne	.L127
 987      0000
 988              	.LVL109:
1467:fltk-1.3.4-1/jpeg/jchuff.c ****       if (cinfo->Ss == 0)
 989              		.loc 1 1467 7 is_stmt 1 view .LVU300
 990              		.loc 1 1467 10 is_stmt 0 view .LVU301
 991 0060 448B83CC 		movl	460(%rbx), %r8d
 991      010000
 992 0067 4585C0   		testl	%r8d, %r8d
 993 006a 0F84A002 		je	.L128
 993      0000
1468:fltk-1.3.4-1/jpeg/jchuff.c **** 	entropy->pub.encode_mcu = encode_mcu_DC_first;
1469:fltk-1.3.4-1/jpeg/jchuff.c ****       else
1470:fltk-1.3.4-1/jpeg/jchuff.c **** 	entropy->pub.encode_mcu = encode_mcu_AC_first;
 994              		.loc 1 1470 2 is_stmt 1 view .LVU302
 995              		.loc 1 1470 26 is_stmt 0 view .LVU303
 996 0070 488D0500 		leaq	encode_mcu_AC_first(%rip), %rax
 996      000000
 997 0077 49894508 		movq	%rax, 8(%r13)
 998              	.LVL110:
 999              	.L106:
1471:fltk-1.3.4-1/jpeg/jchuff.c ****     } else {
1472:fltk-1.3.4-1/jpeg/jchuff.c ****       if (cinfo->Ss == 0)
1473:fltk-1.3.4-1/jpeg/jchuff.c **** 	entropy->pub.encode_mcu = encode_mcu_DC_refine;
1474:fltk-1.3.4-1/jpeg/jchuff.c ****       else {
1475:fltk-1.3.4-1/jpeg/jchuff.c **** 	entropy->pub.encode_mcu = encode_mcu_AC_refine;
1476:fltk-1.3.4-1/jpeg/jchuff.c **** 	/* AC refinement needs a correction bit buffer */
1477:fltk-1.3.4-1/jpeg/jchuff.c **** 	if (entropy->bit_buffer == NULL)
1478:fltk-1.3.4-1/jpeg/jchuff.c **** 	  entropy->bit_buffer = (char *)
1479:fltk-1.3.4-1/jpeg/jchuff.c **** 	    (*cinfo->mem->alloc_small) ((j_common_ptr) cinfo, JPOOL_IMAGE,
1480:fltk-1.3.4-1/jpeg/jchuff.c **** 					MAX_CORR_BITS * SIZEOF(char));
1481:fltk-1.3.4-1/jpeg/jchuff.c ****       }
1482:fltk-1.3.4-1/jpeg/jchuff.c ****     }
1483:fltk-1.3.4-1/jpeg/jchuff.c **** 
1484:fltk-1.3.4-1/jpeg/jchuff.c ****     /* Initialize AC stuff */
1485:fltk-1.3.4-1/jpeg/jchuff.c ****     entropy->ac_tbl_no = cinfo->cur_comp_info[0]->ac_tbl_no;
 1000              		.loc 1 1485 5 is_stmt 1 view .LVU304
 1001              		.loc 1 1485 49 is_stmt 0 view .LVU305
 1002 007b 488B8378 		movq	376(%rbx), %rax
 1002      010000
1486:fltk-1.3.4-1/jpeg/jchuff.c ****     entropy->EOBRUN = 0;
1487:fltk-1.3.4-1/jpeg/jchuff.c ****     entropy->BE = 0;
1488:fltk-1.3.4-1/jpeg/jchuff.c ****   } else {
1489:fltk-1.3.4-1/jpeg/jchuff.c ****     if (gather_statistics)
1490:fltk-1.3.4-1/jpeg/jchuff.c ****       entropy->pub.encode_mcu = encode_mcu_gather;
1491:fltk-1.3.4-1/jpeg/jchuff.c ****     else
1492:fltk-1.3.4-1/jpeg/jchuff.c ****       entropy->pub.encode_mcu = encode_mcu_huff;
1493:fltk-1.3.4-1/jpeg/jchuff.c ****   }
1494:fltk-1.3.4-1/jpeg/jchuff.c **** 
1495:fltk-1.3.4-1/jpeg/jchuff.c ****   for (ci = 0; ci < cinfo->comps_in_scan; ci++) {
 1003              		.loc 1 1495 3 view .LVU306
 1004 0082 4531E4   		xorl	%r12d, %r12d
 1005              	.LBB75:
 1006              	.LBB76:
 1007              		.loc 2 71 10 view .LVU307
 1008 0085 31ED     		xorl	%ebp, %ebp
 1009              	.LBE76:
 1010              	.LBE75:
1485:fltk-1.3.4-1/jpeg/jchuff.c ****     entropy->EOBRUN = 0;
 1011              		.loc 1 1485 49 view .LVU308
 1012 0087 8B4018   		movl	24(%rax), %eax
1486:fltk-1.3.4-1/jpeg/jchuff.c ****     entropy->EOBRUN = 0;
 1013              		.loc 1 1486 21 view .LVU309
 1014 008a 49C785E4 		movq	$0, 228(%r13)
 1014      00000000 
 1014      000000
1485:fltk-1.3.4-1/jpeg/jchuff.c ****     entropy->EOBRUN = 0;
 1015              		.loc 1 1485 24 view .LVU310
 1016 0095 418985E0 		movl	%eax, 224(%r13)
 1016      000000
1486:fltk-1.3.4-1/jpeg/jchuff.c ****     entropy->EOBRUN = 0;
 1017              		.loc 1 1486 5 is_stmt 1 view .LVU311
1487:fltk-1.3.4-1/jpeg/jchuff.c ****   } else {
 1018              		.loc 1 1487 5 view .LVU312
 1019              	.LVL111:
 1020              		.loc 1 1495 16 view .LVU313
 1021              		.loc 1 1495 3 is_stmt 0 view .LVU314
 1022 009c 8BB37401 		movl	372(%rbx), %esi
 1022      0000
 1023 00a2 85F6     		testl	%esi, %esi
 1024 00a4 7F72     		jg	.L109
 1025              	.LVL112:
 1026              	.L119:
1496:fltk-1.3.4-1/jpeg/jchuff.c ****     compptr = cinfo->cur_comp_info[ci];
1497:fltk-1.3.4-1/jpeg/jchuff.c ****     /* DC needs no table for refinement scan */
1498:fltk-1.3.4-1/jpeg/jchuff.c ****     if (cinfo->Ss == 0 && cinfo->Ah == 0) {
1499:fltk-1.3.4-1/jpeg/jchuff.c ****       tbl = compptr->dc_tbl_no;
1500:fltk-1.3.4-1/jpeg/jchuff.c ****       if (gather_statistics) {
1501:fltk-1.3.4-1/jpeg/jchuff.c **** 	/* Check for invalid table index */
1502:fltk-1.3.4-1/jpeg/jchuff.c **** 	/* (make_c_derived_tbl does this in the other path) */
1503:fltk-1.3.4-1/jpeg/jchuff.c **** 	if (tbl < 0 || tbl >= NUM_HUFF_TBLS)
1504:fltk-1.3.4-1/jpeg/jchuff.c **** 	  ERREXIT1(cinfo, JERR_NO_HUFF_TABLE, tbl);
1505:fltk-1.3.4-1/jpeg/jchuff.c **** 	/* Allocate and zero the statistics tables */
1506:fltk-1.3.4-1/jpeg/jchuff.c **** 	/* Note that jpeg_gen_optimal_table expects 257 entries in each table! */
1507:fltk-1.3.4-1/jpeg/jchuff.c **** 	if (entropy->dc_count_ptrs[tbl] == NULL)
1508:fltk-1.3.4-1/jpeg/jchuff.c **** 	  entropy->dc_count_ptrs[tbl] = (long *)
1509:fltk-1.3.4-1/jpeg/jchuff.c **** 	    (*cinfo->mem->alloc_small) ((j_common_ptr) cinfo, JPOOL_IMAGE,
1510:fltk-1.3.4-1/jpeg/jchuff.c **** 					257 * SIZEOF(long));
1511:fltk-1.3.4-1/jpeg/jchuff.c **** 	MEMZERO(entropy->dc_count_ptrs[tbl], 257 * SIZEOF(long));
1512:fltk-1.3.4-1/jpeg/jchuff.c ****       } else {
1513:fltk-1.3.4-1/jpeg/jchuff.c **** 	/* Compute derived values for Huffman tables */
1514:fltk-1.3.4-1/jpeg/jchuff.c **** 	/* We may do this more than once for a table, but it's not expensive */
1515:fltk-1.3.4-1/jpeg/jchuff.c **** 	jpeg_make_c_derived_tbl(cinfo, TRUE, tbl,
1516:fltk-1.3.4-1/jpeg/jchuff.c **** 				& entropy->dc_derived_tbls[tbl]);
1517:fltk-1.3.4-1/jpeg/jchuff.c ****       }
1518:fltk-1.3.4-1/jpeg/jchuff.c ****       /* Initialize DC predictions to 0 */
1519:fltk-1.3.4-1/jpeg/jchuff.c ****       entropy->saved.last_dc_val[ci] = 0;
1520:fltk-1.3.4-1/jpeg/jchuff.c ****     }
1521:fltk-1.3.4-1/jpeg/jchuff.c ****     /* AC needs no table when not present */
1522:fltk-1.3.4-1/jpeg/jchuff.c ****     if (cinfo->Se) {
1523:fltk-1.3.4-1/jpeg/jchuff.c ****       tbl = compptr->ac_tbl_no;
1524:fltk-1.3.4-1/jpeg/jchuff.c ****       if (gather_statistics) {
1525:fltk-1.3.4-1/jpeg/jchuff.c **** 	if (tbl < 0 || tbl >= NUM_HUFF_TBLS)
1526:fltk-1.3.4-1/jpeg/jchuff.c **** 	  ERREXIT1(cinfo, JERR_NO_HUFF_TABLE, tbl);
1527:fltk-1.3.4-1/jpeg/jchuff.c **** 	if (entropy->ac_count_ptrs[tbl] == NULL)
1528:fltk-1.3.4-1/jpeg/jchuff.c **** 	  entropy->ac_count_ptrs[tbl] = (long *)
1529:fltk-1.3.4-1/jpeg/jchuff.c **** 	    (*cinfo->mem->alloc_small) ((j_common_ptr) cinfo, JPOOL_IMAGE,
1530:fltk-1.3.4-1/jpeg/jchuff.c **** 					257 * SIZEOF(long));
1531:fltk-1.3.4-1/jpeg/jchuff.c **** 	MEMZERO(entropy->ac_count_ptrs[tbl], 257 * SIZEOF(long));
1532:fltk-1.3.4-1/jpeg/jchuff.c ****       } else {
1533:fltk-1.3.4-1/jpeg/jchuff.c **** 	jpeg_make_c_derived_tbl(cinfo, FALSE, tbl,
1534:fltk-1.3.4-1/jpeg/jchuff.c **** 				& entropy->ac_derived_tbls[tbl]);
1535:fltk-1.3.4-1/jpeg/jchuff.c ****       }
1536:fltk-1.3.4-1/jpeg/jchuff.c ****     }
1537:fltk-1.3.4-1/jpeg/jchuff.c ****   }
1538:fltk-1.3.4-1/jpeg/jchuff.c **** 
1539:fltk-1.3.4-1/jpeg/jchuff.c ****   /* Initialize bit buffer to empty */
1540:fltk-1.3.4-1/jpeg/jchuff.c ****   entropy->saved.put_buffer = 0;
 1027              		.loc 1 1540 3 is_stmt 1 view .LVU315
 1028              		.loc 1 1540 29 is_stmt 0 view .LVU316
 1029 00a6 49C74518 		movq	$0, 24(%r13)
 1029      00000000 
1541:fltk-1.3.4-1/jpeg/jchuff.c ****   entropy->saved.put_bits = 0;
 1030              		.loc 1 1541 3 is_stmt 1 view .LVU317
 1031              		.loc 1 1541 27 is_stmt 0 view .LVU318
 1032 00ae 41C74520 		movl	$0, 32(%r13)
 1032      00000000 
1542:fltk-1.3.4-1/jpeg/jchuff.c **** 
1543:fltk-1.3.4-1/jpeg/jchuff.c ****   /* Initialize restart stuff */
1544:fltk-1.3.4-1/jpeg/jchuff.c ****   entropy->restarts_to_go = cinfo->restart_interval;
 1033              		.loc 1 1544 3 is_stmt 1 view .LVU319
 1034              		.loc 1 1544 34 is_stmt 0 view .LVU320
 1035 00b6 8B833C01 		movl	316(%rbx), %eax
 1035      0000
1545:fltk-1.3.4-1/jpeg/jchuff.c ****   entropy->next_restart_num = 0;
 1036              		.loc 1 1545 29 view .LVU321
 1037 00bc 41C7453C 		movl	$0, 60(%r13)
 1037      00000000 
1544:fltk-1.3.4-1/jpeg/jchuff.c ****   entropy->next_restart_num = 0;
 1038              		.loc 1 1544 27 view .LVU322
 1039 00c4 41894538 		movl	%eax, 56(%r13)
 1040              		.loc 1 1545 3 is_stmt 1 view .LVU323
1546:fltk-1.3.4-1/jpeg/jchuff.c **** }
 1041              		.loc 1 1546 1 is_stmt 0 view .LVU324
 1042 00c8 4883C418 		addq	$24, %rsp
 1043              		.cfi_remember_state
 1044              		.cfi_def_cfa_offset 56
 1045 00cc 5B       		popq	%rbx
 1046              		.cfi_def_cfa_offset 48
 1047              	.LVL113:
 1048              		.loc 1 1546 1 view .LVU325
 1049 00cd 5D       		popq	%rbp
 1050              		.cfi_def_cfa_offset 40
 1051 00ce 415C     		popq	%r12
 1052              		.cfi_def_cfa_offset 32
 1053 00d0 415D     		popq	%r13
 1054              		.cfi_def_cfa_offset 24
 1055              	.LVL114:
 1056              		.loc 1 1546 1 view .LVU326
 1057 00d2 415E     		popq	%r14
 1058              		.cfi_def_cfa_offset 16
 1059              	.LVL115:
 1060              		.loc 1 1546 1 view .LVU327
 1061 00d4 415F     		popq	%r15
 1062              		.cfi_def_cfa_offset 8
 1063 00d6 C3       		ret
 1064              	.LVL116:
 1065 00d7 660F1F84 		.p2align 4,,10
 1065      00000000 
 1065      00
 1066              		.p2align 3
 1067              	.L99:
 1068              		.cfi_restore_state
1457:fltk-1.3.4-1/jpeg/jchuff.c **** 
 1069              		.loc 1 1457 5 is_stmt 1 view .LVU328
1457:fltk-1.3.4-1/jpeg/jchuff.c **** 
 1070              		.loc 1 1457 30 is_stmt 0 view .LVU329
 1071 00e0 488D0500 		leaq	finish_pass_huff(%rip), %rax
 1071      000000
 1072 00e7 49894510 		movq	%rax, 16(%r13)
1459:fltk-1.3.4-1/jpeg/jchuff.c ****     entropy->cinfo = cinfo;
 1073              		.loc 1 1459 3 is_stmt 1 view .LVU330
1459:fltk-1.3.4-1/jpeg/jchuff.c ****     entropy->cinfo = cinfo;
 1074              		.loc 1 1459 6 is_stmt 0 view .LVU331
 1075 00eb 448B8F5C 		movl	348(%rdi), %r9d
 1075      010000
 1076 00f2 4585C9   		testl	%r9d, %r9d
 1077 00f5 0F8547FF 		jne	.L103
 1077      FFFF
1492:fltk-1.3.4-1/jpeg/jchuff.c ****   }
 1078              		.loc 1 1492 7 is_stmt 1 view .LVU332
1492:fltk-1.3.4-1/jpeg/jchuff.c ****   }
 1079              		.loc 1 1492 31 is_stmt 0 view .LVU333
 1080 00fb 488D0500 		leaq	encode_mcu_huff(%rip), %rax
 1080      000000
 1081 0102 49894508 		movq	%rax, 8(%r13)
 1082              	.L108:
 1083              	.LVL117:
1495:fltk-1.3.4-1/jpeg/jchuff.c ****     compptr = cinfo->cur_comp_info[ci];
 1084              		.loc 1 1495 16 is_stmt 1 discriminator 1 view .LVU334
1495:fltk-1.3.4-1/jpeg/jchuff.c ****     compptr = cinfo->cur_comp_info[ci];
 1085              		.loc 1 1495 3 is_stmt 0 discriminator 1 view .LVU335
 1086 0106 8BB37401 		movl	372(%rbx), %esi
 1086      0000
 1087              	.LVL118:
1495:fltk-1.3.4-1/jpeg/jchuff.c ****     compptr = cinfo->cur_comp_info[ci];
 1088              		.loc 1 1495 3 discriminator 1 view .LVU336
 1089 010c 4531E4   		xorl	%r12d, %r12d
 1090              	.LBB79:
 1091              	.LBB77:
 1092              		.loc 2 71 10 discriminator 1 view .LVU337
 1093 010f 31ED     		xorl	%ebp, %ebp
 1094              	.LBE77:
 1095              	.LBE79:
1495:fltk-1.3.4-1/jpeg/jchuff.c ****     compptr = cinfo->cur_comp_info[ci];
 1096              		.loc 1 1495 3 discriminator 1 view .LVU338
 1097 0111 85F6     		testl	%esi, %esi
 1098 0113 7E91     		jle	.L119
 1099              	.LVL119:
 1100              		.p2align 4,,10
 1101 0115 0F1F00   		.p2align 3
 1102              	.L109:
1496:fltk-1.3.4-1/jpeg/jchuff.c ****     /* DC needs no table for refinement scan */
 1103              		.loc 1 1496 5 is_stmt 1 view .LVU339
1498:fltk-1.3.4-1/jpeg/jchuff.c ****       tbl = compptr->dc_tbl_no;
 1104              		.loc 1 1498 8 is_stmt 0 view .LVU340
 1105 0118 8B8BCC01 		movl	460(%rbx), %ecx
 1105      0000
1496:fltk-1.3.4-1/jpeg/jchuff.c ****     /* DC needs no table for refinement scan */
 1106              		.loc 1 1496 13 view .LVU341
 1107 011e 4E8BBCE3 		movq	376(%rbx,%r12,8), %r15
 1107      78010000 
 1108              	.LVL120:
1498:fltk-1.3.4-1/jpeg/jchuff.c ****       tbl = compptr->dc_tbl_no;
 1109              		.loc 1 1498 5 is_stmt 1 view .LVU342
1498:fltk-1.3.4-1/jpeg/jchuff.c ****       tbl = compptr->dc_tbl_no;
 1110              		.loc 1 1498 8 is_stmt 0 view .LVU343
 1111 0126 85C9     		testl	%ecx, %ecx
 1112 0128 0F858700 		jne	.L110
 1112      0000
1498:fltk-1.3.4-1/jpeg/jchuff.c ****       tbl = compptr->dc_tbl_no;
 1113              		.loc 1 1498 24 discriminator 1 view .LVU344
 1114 012e 8B93D401 		movl	468(%rbx), %edx
 1114      0000
 1115 0134 85D2     		testl	%edx, %edx
 1116 0136 757D     		jne	.L110
1499:fltk-1.3.4-1/jpeg/jchuff.c ****       if (gather_statistics) {
 1117              		.loc 1 1499 7 is_stmt 1 view .LVU345
1499:fltk-1.3.4-1/jpeg/jchuff.c ****       if (gather_statistics) {
 1118              		.loc 1 1499 11 is_stmt 0 view .LVU346
 1119 0138 49635714 		movslq	20(%r15), %rdx
 1120              	.LVL121:
1500:fltk-1.3.4-1/jpeg/jchuff.c **** 	/* Check for invalid table index */
 1121              		.loc 1 1500 7 is_stmt 1 view .LVU347
1500:fltk-1.3.4-1/jpeg/jchuff.c **** 	/* Check for invalid table index */
 1122              		.loc 1 1500 10 is_stmt 0 view .LVU348
 1123 013c 4585F6   		testl	%r14d, %r14d
 1124 013f 0F847B01 		je	.L111
 1124      0000
1503:fltk-1.3.4-1/jpeg/jchuff.c **** 	  ERREXIT1(cinfo, JERR_NO_HUFF_TABLE, tbl);
 1125              		.loc 1 1503 2 is_stmt 1 view .LVU349
1503:fltk-1.3.4-1/jpeg/jchuff.c **** 	  ERREXIT1(cinfo, JERR_NO_HUFF_TABLE, tbl);
 1126              		.loc 1 1503 5 is_stmt 0 view .LVU350
 1127 0145 83FA03   		cmpl	$3, %edx
 1128 0148 7621     		jbe	.L112
1504:fltk-1.3.4-1/jpeg/jchuff.c **** 	/* Allocate and zero the statistics tables */
 1129              		.loc 1 1504 4 is_stmt 1 view .LVU351
 1130 014a 488B03   		movq	(%rbx), %rax
 1131 014d 89542408 		movl	%edx, 8(%rsp)
 1132 0151 4889DF   		movq	%rbx, %rdi
 1133 0154 C7402834 		movl	$52, 40(%rax)
 1133      000000
 1134              	.LVL122:
1504:fltk-1.3.4-1/jpeg/jchuff.c **** 	/* Allocate and zero the statistics tables */
 1135              		.loc 1 1504 4 is_stmt 0 view .LVU352
 1136 015b 488B03   		movq	(%rbx), %rax
 1137 015e 89502C   		movl	%edx, 44(%rax)
 1138 0161 488B03   		movq	(%rbx), %rax
 1139 0164 FF10     		call	*(%rax)
 1140              	.LVL123:
1504:fltk-1.3.4-1/jpeg/jchuff.c **** 	/* Allocate and zero the statistics tables */
 1141              		.loc 1 1504 4 view .LVU353
 1142 0166 48635424 		movslq	8(%rsp), %rdx
 1142      08
 1143              	.L112:
1507:fltk-1.3.4-1/jpeg/jchuff.c **** 	  entropy->dc_count_ptrs[tbl] = (long *)
 1144              		.loc 1 1507 2 is_stmt 1 view .LVU354
 1145 016b 498D4CD5 		leaq	0(%r13,%rdx,8), %rcx
 1145      00
1507:fltk-1.3.4-1/jpeg/jchuff.c **** 	  entropy->dc_count_ptrs[tbl] = (long *)
 1146              		.loc 1 1507 28 is_stmt 0 view .LVU355
 1147 0170 488B8180 		movq	128(%rcx), %rax
 1147      000000
1507:fltk-1.3.4-1/jpeg/jchuff.c **** 	  entropy->dc_count_ptrs[tbl] = (long *)
 1148              		.loc 1 1507 5 view .LVU356
 1149 0177 4885C0   		testq	%rax, %rax
 1150 017a 0F846001 		je	.L129
 1150      0000
 1151              	.L113:
1511:fltk-1.3.4-1/jpeg/jchuff.c ****       } else {
 1152              		.loc 1 1511 2 is_stmt 1 view .LVU357
 1153              	.LVL124:
 1154              	.LBB80:
 1155              	.LBI75:
  59:/usr/include/x86_64-linux-gnu/bits/string_fortified.h **** {
 1156              		.loc 2 59 1 view .LVU358
 1157              	.LBB78:
 1158              		.loc 2 71 3 view .LVU359
 1159              		.loc 2 71 10 is_stmt 0 view .LVU360
 1160 0180 488D7808 		leaq	8(%rax), %rdi
 1161 0184 48C70000 		movq	$0, (%rax)
 1161      000000
 1162              		.loc 2 71 10 view .LVU361
 1163 018b 48C78000 		movq	$0, 2048(%rax)
 1163      08000000 
 1163      000000
 1164 0196 4883E7F8 		andq	$-8, %rdi
 1165 019a 4829F8   		subq	%rdi, %rax
 1166 019d 8D880808 		leal	2056(%rax), %ecx
 1166      0000
 1167 01a3 4889E8   		movq	%rbp, %rax
 1168 01a6 C1E903   		shrl	$3, %ecx
 1169 01a9 F348AB   		rep stosq
 1170              	.LVL125:
 1171              	.L114:
 1172              		.loc 2 71 10 view .LVU362
 1173              	.LBE78:
 1174              	.LBE80:
1519:fltk-1.3.4-1/jpeg/jchuff.c ****     }
 1175              		.loc 1 1519 7 is_stmt 1 view .LVU363
1519:fltk-1.3.4-1/jpeg/jchuff.c ****     }
 1176              		.loc 1 1519 38 is_stmt 0 view .LVU364
 1177 01ac 43C744A5 		movl	$0, 36(%r13,%r12,4)
 1177      24000000 
 1177      00
 1178              	.L110:
1522:fltk-1.3.4-1/jpeg/jchuff.c ****       tbl = compptr->ac_tbl_no;
 1179              		.loc 1 1522 5 is_stmt 1 view .LVU365
1522:fltk-1.3.4-1/jpeg/jchuff.c ****       tbl = compptr->ac_tbl_no;
 1180              		.loc 1 1522 8 is_stmt 0 view .LVU366
 1181 01b5 8B83D001 		movl	464(%rbx), %eax
 1181      0000
 1182 01bb 85C0     		testl	%eax, %eax
 1183 01bd 746D     		je	.L115
1523:fltk-1.3.4-1/jpeg/jchuff.c ****       if (gather_statistics) {
 1184              		.loc 1 1523 7 is_stmt 1 view .LVU367
1523:fltk-1.3.4-1/jpeg/jchuff.c ****       if (gather_statistics) {
 1185              		.loc 1 1523 11 is_stmt 0 view .LVU368
 1186 01bf 4D637F18 		movslq	24(%r15), %r15
 1187              	.LVL126:
1524:fltk-1.3.4-1/jpeg/jchuff.c **** 	if (tbl < 0 || tbl >= NUM_HUFF_TBLS)
 1188              		.loc 1 1524 7 is_stmt 1 view .LVU369
1524:fltk-1.3.4-1/jpeg/jchuff.c **** 	if (tbl < 0 || tbl >= NUM_HUFF_TBLS)
 1189              		.loc 1 1524 10 is_stmt 0 view .LVU370
 1190 01c3 4585F6   		testl	%r14d, %r14d
 1191 01c6 0F84B400 		je	.L116
 1191      0000
1525:fltk-1.3.4-1/jpeg/jchuff.c **** 	  ERREXIT1(cinfo, JERR_NO_HUFF_TABLE, tbl);
 1192              		.loc 1 1525 2 is_stmt 1 view .LVU371
1525:fltk-1.3.4-1/jpeg/jchuff.c **** 	  ERREXIT1(cinfo, JERR_NO_HUFF_TABLE, tbl);
 1193              		.loc 1 1525 5 is_stmt 0 view .LVU372
 1194 01cc 4183FF03 		cmpl	$3, %r15d
 1195 01d0 7619     		jbe	.L117
1526:fltk-1.3.4-1/jpeg/jchuff.c **** 	if (entropy->ac_count_ptrs[tbl] == NULL)
 1196              		.loc 1 1526 4 is_stmt 1 view .LVU373
 1197 01d2 488B03   		movq	(%rbx), %rax
 1198 01d5 4889DF   		movq	%rbx, %rdi
 1199 01d8 C7402834 		movl	$52, 40(%rax)
 1199      000000
1526:fltk-1.3.4-1/jpeg/jchuff.c **** 	if (entropy->ac_count_ptrs[tbl] == NULL)
 1200              		.loc 1 1526 4 is_stmt 0 view .LVU374
 1201 01df 488B03   		movq	(%rbx), %rax
 1202 01e2 4489782C 		movl	%r15d, 44(%rax)
 1203 01e6 488B03   		movq	(%rbx), %rax
 1204 01e9 FF10     		call	*(%rax)
 1205              	.LVL127:
 1206              	.L117:
1527:fltk-1.3.4-1/jpeg/jchuff.c **** 	  entropy->ac_count_ptrs[tbl] = (long *)
 1207              		.loc 1 1527 2 is_stmt 1 view .LVU375
 1208 01eb 4F8D7CFD 		leaq	0(%r13,%r15,8), %r15
 1208      00
 1209              	.LVL128:
1527:fltk-1.3.4-1/jpeg/jchuff.c **** 	  entropy->ac_count_ptrs[tbl] = (long *)
 1210              		.loc 1 1527 28 is_stmt 0 view .LVU376
 1211 01f0 498B87A0 		movq	160(%r15), %rax
 1211      000000
1527:fltk-1.3.4-1/jpeg/jchuff.c **** 	  entropy->ac_count_ptrs[tbl] = (long *)
 1212              		.loc 1 1527 5 view .LVU377
 1213 01f7 4885C0   		testq	%rax, %rax
 1214 01fa 0F84A000 		je	.L130
 1214      0000
 1215              	.L118:
1531:fltk-1.3.4-1/jpeg/jchuff.c ****       } else {
 1216              		.loc 1 1531 2 is_stmt 1 view .LVU378
 1217              	.LVL129:
 1218              	.LBB81:
 1219              	.LBI81:
  59:/usr/include/x86_64-linux-gnu/bits/string_fortified.h **** {
 1220              		.loc 2 59 1 view .LVU379
 1221              	.LBB82:
 1222              		.loc 2 71 3 view .LVU380
 1223              		.loc 2 71 10 is_stmt 0 view .LVU381
 1224 0200 488D7808 		leaq	8(%rax), %rdi
 1225 0204 48C70000 		movq	$0, (%rax)
 1225      000000
 1226              		.loc 2 71 10 view .LVU382
 1227 020b 48C78000 		movq	$0, 2048(%rax)
 1227      08000000 
 1227      000000
 1228 0216 4883E7F8 		andq	$-8, %rdi
 1229 021a 4829F8   		subq	%rdi, %rax
 1230 021d 8D880808 		leal	2056(%rax), %ecx
 1230      0000
 1231 0223 4889E8   		movq	%rbp, %rax
 1232 0226 C1E903   		shrl	$3, %ecx
 1233 0229 F348AB   		rep stosq
 1234              	.LVL130:
 1235              	.L115:
 1236              		.loc 2 71 10 view .LVU383
 1237              	.LBE82:
 1238              	.LBE81:
1495:fltk-1.3.4-1/jpeg/jchuff.c ****     compptr = cinfo->cur_comp_info[ci];
 1239              		.loc 1 1495 43 is_stmt 1 discriminator 2 view .LVU384
1495:fltk-1.3.4-1/jpeg/jchuff.c ****     compptr = cinfo->cur_comp_info[ci];
 1240              		.loc 1 1495 16 discriminator 2 view .LVU385
 1241 022c 4983C401 		addq	$1, %r12
 1242              	.LVL131:
1495:fltk-1.3.4-1/jpeg/jchuff.c ****     compptr = cinfo->cur_comp_info[ci];
 1243              		.loc 1 1495 3 is_stmt 0 discriminator 2 view .LVU386
 1244 0230 4439A374 		cmpl	%r12d, 372(%rbx)
 1244      010000
 1245 0237 0F8FDBFE 		jg	.L109
 1245      FFFF
 1246 023d E964FEFF 		jmp	.L119
 1246      FF
 1247              	.LVL132:
 1248              		.p2align 4,,10
 1249 0242 660F1F44 		.p2align 3
 1249      0000
 1250              	.L127:
1472:fltk-1.3.4-1/jpeg/jchuff.c **** 	entropy->pub.encode_mcu = encode_mcu_DC_refine;
 1251              		.loc 1 1472 7 is_stmt 1 view .LVU387
1472:fltk-1.3.4-1/jpeg/jchuff.c **** 	entropy->pub.encode_mcu = encode_mcu_DC_refine;
 1252              		.loc 1 1472 10 is_stmt 0 view .LVU388
 1253 0248 8BBBCC01 		movl	460(%rbx), %edi
 1253      0000
 1254 024e 85FF     		testl	%edi, %edi
 1255 0250 0F85CA00 		jne	.L107
 1255      0000
1473:fltk-1.3.4-1/jpeg/jchuff.c ****       else {
 1256              		.loc 1 1473 2 is_stmt 1 view .LVU389
1473:fltk-1.3.4-1/jpeg/jchuff.c ****       else {
 1257              		.loc 1 1473 26 is_stmt 0 view .LVU390
 1258 0256 488D0500 		leaq	encode_mcu_DC_refine(%rip), %rax
 1258      000000
 1259 025d 49894508 		movq	%rax, 8(%r13)
 1260 0261 E915FEFF 		jmp	.L106
 1260      FF
 1261 0266 662E0F1F 		.p2align 4,,10
 1261      84000000 
 1261      0000
 1262              		.p2align 3
 1263              	.L100:
1490:fltk-1.3.4-1/jpeg/jchuff.c ****     else
 1264              		.loc 1 1490 7 is_stmt 1 view .LVU391
1490:fltk-1.3.4-1/jpeg/jchuff.c ****     else
 1265              		.loc 1 1490 31 is_stmt 0 view .LVU392
 1266 0270 488D0500 		leaq	encode_mcu_gather(%rip), %rax
 1266      000000
 1267 0277 49894508 		movq	%rax, 8(%r13)
 1268 027b E986FEFF 		jmp	.L108
 1268      FF
 1269              	.LVL133:
 1270              		.p2align 4,,10
 1271              		.p2align 3
 1272              	.L116:
1533:fltk-1.3.4-1/jpeg/jchuff.c **** 				& entropy->ac_derived_tbls[tbl]);
 1273              		.loc 1 1533 2 is_stmt 1 view .LVU393
 1274 0280 4963C7   		movslq	%r15d, %rax
 1275 0283 4489FA   		movl	%r15d, %edx
 1276 0286 31F6     		xorl	%esi, %esi
 1277 0288 4889DF   		movq	%rbx, %rdi
 1278 028b 498D4CC5 		leaq	96(%r13,%rax,8), %rcx
 1278      60
 1279 0290 E8000000 		call	jpeg_make_c_derived_tbl
 1279      00
 1280              	.LVL134:
1533:fltk-1.3.4-1/jpeg/jchuff.c **** 				& entropy->ac_derived_tbls[tbl]);
 1281              		.loc 1 1533 2 is_stmt 0 view .LVU394
 1282 0295 EB95     		jmp	.L115
 1283              	.LVL135:
 1284 0297 660F1F84 		.p2align 4,,10
 1284      00000000 
 1284      00
 1285              		.p2align 3
 1286              	.L130:
1528:fltk-1.3.4-1/jpeg/jchuff.c **** 	    (*cinfo->mem->alloc_small) ((j_common_ptr) cinfo, JPOOL_IMAGE,
 1287              		.loc 1 1528 4 is_stmt 1 view .LVU395
1529:fltk-1.3.4-1/jpeg/jchuff.c **** 					257 * SIZEOF(long));
 1288              		.loc 1 1529 7 is_stmt 0 view .LVU396
 1289 02a0 488B4308 		movq	8(%rbx), %rax
 1290 02a4 BA080800 		movl	$2056, %edx
 1290      00
 1291 02a9 BE010000 		movl	$1, %esi
 1291      00
 1292 02ae 4889DF   		movq	%rbx, %rdi
 1293 02b1 FF10     		call	*(%rax)
 1294              	.LVL136:
1528:fltk-1.3.4-1/jpeg/jchuff.c **** 	    (*cinfo->mem->alloc_small) ((j_common_ptr) cinfo, JPOOL_IMAGE,
 1295              		.loc 1 1528 32 view .LVU397
 1296 02b3 498987A0 		movq	%rax, 160(%r15)
 1296      000000
 1297 02ba E941FFFF 		jmp	.L118
 1297      FF
 1298              	.LVL137:
 1299 02bf 90       		.p2align 4,,10
 1300              		.p2align 3
 1301              	.L111:
1515:fltk-1.3.4-1/jpeg/jchuff.c **** 				& entropy->dc_derived_tbls[tbl]);
 1302              		.loc 1 1515 2 is_stmt 1 view .LVU398
 1303 02c0 4863C2   		movslq	%edx, %rax
 1304 02c3 BE010000 		movl	$1, %esi
 1304      00
 1305 02c8 4889DF   		movq	%rbx, %rdi
 1306 02cb 498D4CC5 		leaq	64(%r13,%rax,8), %rcx
 1306      40
 1307 02d0 E8000000 		call	jpeg_make_c_derived_tbl
 1307      00
 1308              	.LVL138:
1515:fltk-1.3.4-1/jpeg/jchuff.c **** 				& entropy->dc_derived_tbls[tbl]);
 1309              		.loc 1 1515 2 is_stmt 0 view .LVU399
 1310 02d5 E9D2FEFF 		jmp	.L114
 1310      FF
 1311 02da 660F1F44 		.p2align 4,,10
 1311      0000
 1312              		.p2align 3
 1313              	.L129:
1509:fltk-1.3.4-1/jpeg/jchuff.c **** 					257 * SIZEOF(long));
 1314              		.loc 1 1509 7 view .LVU400
 1315 02e0 488B4308 		movq	8(%rbx), %rax
 1316 02e4 48894C24 		movq	%rcx, 8(%rsp)
 1316      08
1508:fltk-1.3.4-1/jpeg/jchuff.c **** 	    (*cinfo->mem->alloc_small) ((j_common_ptr) cinfo, JPOOL_IMAGE,
 1317              		.loc 1 1508 4 is_stmt 1 view .LVU401
1509:fltk-1.3.4-1/jpeg/jchuff.c **** 					257 * SIZEOF(long));
 1318              		.loc 1 1509 7 is_stmt 0 view .LVU402
 1319 02e9 BA080800 		movl	$2056, %edx
 1319      00
 1320 02ee 4889DF   		movq	%rbx, %rdi
 1321 02f1 BE010000 		movl	$1, %esi
 1321      00
 1322 02f6 FF10     		call	*(%rax)
 1323              	.LVL139:
1508:fltk-1.3.4-1/jpeg/jchuff.c **** 	    (*cinfo->mem->alloc_small) ((j_common_ptr) cinfo, JPOOL_IMAGE,
 1324              		.loc 1 1508 32 view .LVU403
 1325 02f8 488B4C24 		movq	8(%rsp), %rcx
 1325      08
 1326 02fd 48898180 		movq	%rax, 128(%rcx)
 1326      000000
 1327 0304 E977FEFF 		jmp	.L113
 1327      FF
 1328              	.LVL140:
 1329 0309 0F1F8000 		.p2align 4,,10
 1329      000000
 1330              		.p2align 3
 1331              	.L128:
1468:fltk-1.3.4-1/jpeg/jchuff.c ****       else
 1332              		.loc 1 1468 2 is_stmt 1 view .LVU404
1468:fltk-1.3.4-1/jpeg/jchuff.c ****       else
 1333              		.loc 1 1468 26 is_stmt 0 view .LVU405
 1334 0310 488D0500 		leaq	encode_mcu_DC_first(%rip), %rax
 1334      000000
 1335 0317 49894508 		movq	%rax, 8(%r13)
 1336 031b E95BFDFF 		jmp	.L106
 1336      FF
 1337              		.p2align 4,,10
 1338              		.p2align 3
 1339              	.L107:
1475:fltk-1.3.4-1/jpeg/jchuff.c **** 	/* AC refinement needs a correction bit buffer */
 1340              		.loc 1 1475 2 is_stmt 1 view .LVU406
1475:fltk-1.3.4-1/jpeg/jchuff.c **** 	/* AC refinement needs a correction bit buffer */
 1341              		.loc 1 1475 26 is_stmt 0 view .LVU407
 1342 0320 488D0500 		leaq	encode_mcu_AC_refine(%rip), %rax
 1342      000000
1477:fltk-1.3.4-1/jpeg/jchuff.c **** 	  entropy->bit_buffer = (char *)
 1343              		.loc 1 1477 5 view .LVU408
 1344 0327 4983BDF0 		cmpq	$0, 240(%r13)
 1344      00000000 
1475:fltk-1.3.4-1/jpeg/jchuff.c **** 	/* AC refinement needs a correction bit buffer */
 1345              		.loc 1 1475 26 view .LVU409
 1346 032f 49894508 		movq	%rax, 8(%r13)
1477:fltk-1.3.4-1/jpeg/jchuff.c **** 	  entropy->bit_buffer = (char *)
 1347              		.loc 1 1477 2 is_stmt 1 view .LVU410
1477:fltk-1.3.4-1/jpeg/jchuff.c **** 	  entropy->bit_buffer = (char *)
 1348              		.loc 1 1477 5 is_stmt 0 view .LVU411
 1349 0333 0F8542FD 		jne	.L106
 1349      FFFF
1478:fltk-1.3.4-1/jpeg/jchuff.c **** 	    (*cinfo->mem->alloc_small) ((j_common_ptr) cinfo, JPOOL_IMAGE,
 1350              		.loc 1 1478 4 is_stmt 1 view .LVU412
1479:fltk-1.3.4-1/jpeg/jchuff.c **** 					MAX_CORR_BITS * SIZEOF(char));
 1351              		.loc 1 1479 7 is_stmt 0 view .LVU413
 1352 0339 488B4308 		movq	8(%rbx), %rax
 1353 033d BAE80300 		movl	$1000, %edx
 1353      00
 1354 0342 BE010000 		movl	$1, %esi
 1354      00
 1355              	.LVL141:
1479:fltk-1.3.4-1/jpeg/jchuff.c **** 					MAX_CORR_BITS * SIZEOF(char));
 1356              		.loc 1 1479 7 view .LVU414
 1357 0347 4889DF   		movq	%rbx, %rdi
 1358 034a FF10     		call	*(%rax)
 1359              	.LVL142:
1478:fltk-1.3.4-1/jpeg/jchuff.c **** 	    (*cinfo->mem->alloc_small) ((j_common_ptr) cinfo, JPOOL_IMAGE,
 1360              		.loc 1 1478 24 view .LVU415
 1361 034c 498985F0 		movq	%rax, 240(%r13)
 1361      000000
 1362 0353 E923FDFF 		jmp	.L106
 1362      FF
 1363              		.cfi_endproc
 1364              	.LFE75:
 1366              		.section	.text.jpeg_gen_optimal_table,"ax",@progbits
 1367              		.p2align 4
 1369              	jpeg_gen_optimal_table:
 1370              	.LVL143:
 1371              	.LFB73:
1254:fltk-1.3.4-1/jpeg/jchuff.c **** #define MAX_CLEN 32		/* assumed maximum initial code length */
 1372              		.loc 1 1254 1 is_stmt 1 view -0
 1373              		.cfi_startproc
1254:fltk-1.3.4-1/jpeg/jchuff.c **** #define MAX_CLEN 32		/* assumed maximum initial code length */
 1374              		.loc 1 1254 1 is_stmt 0 view .LVU417
 1375 0000 4157     		pushq	%r15
 1376              		.cfi_def_cfa_offset 16
 1377              		.cfi_offset 15, -16
 1378              	.LBB83:
 1379              	.LBB84:
 1380              		.loc 2 71 10 view .LVU418
 1381 0002 B9800000 		movl	$128, %ecx
 1381      00
 1382              	.LBE84:
 1383              	.LBE83:
 1384              	.LBB88:
 1385              	.LBB89:
 1386 0007 660FEFC0 		pxor	%xmm0, %xmm0
 1387              	.LBE89:
 1388              	.LBE88:
1254:fltk-1.3.4-1/jpeg/jchuff.c **** #define MAX_CLEN 32		/* assumed maximum initial code length */
 1389              		.loc 1 1254 1 view .LVU419
 1390 000b 4989D0   		movq	%rdx, %r8
 1391 000e 4156     		pushq	%r14
 1392              		.cfi_def_cfa_offset 24
 1393              		.cfi_offset 14, -24
 1394 0010 4155     		pushq	%r13
 1395              		.cfi_def_cfa_offset 32
 1396              		.cfi_offset 13, -32
 1397 0012 4154     		pushq	%r12
 1398              		.cfi_def_cfa_offset 40
 1399              		.cfi_offset 12, -40
 1400 0014 4989FC   		movq	%rdi, %r12
 1401 0017 55       		pushq	%rbp
 1402              		.cfi_def_cfa_offset 48
 1403              		.cfi_offset 6, -48
 1404 0018 53       		pushq	%rbx
 1405              		.cfi_def_cfa_offset 56
 1406              		.cfi_offset 3, -56
 1407 0019 4889F3   		movq	%rsi, %rbx
 1408 001c 4881EC58 		subq	$2136, %rsp
 1408      080000
 1409              		.cfi_def_cfa_offset 2192
1254:fltk-1.3.4-1/jpeg/jchuff.c **** #define MAX_CLEN 32		/* assumed maximum initial code length */
 1410              		.loc 1 1254 1 view .LVU420
 1411 0023 64488B04 		movq	%fs:40, %rax
 1411      25280000 
 1411      00
 1412 002c 48898424 		movq	%rax, 2120(%rsp)
 1412      48080000 
 1413 0034 31C0     		xorl	%eax, %eax
1256:fltk-1.3.4-1/jpeg/jchuff.c ****   int codesize[257];		/* codesize[k] = code length of symbol k */
 1414              		.loc 1 1256 3 is_stmt 1 view .LVU421
1257:fltk-1.3.4-1/jpeg/jchuff.c ****   int others[257];		/* next symbol in current branch of tree */
 1415              		.loc 1 1257 3 view .LVU422
1258:fltk-1.3.4-1/jpeg/jchuff.c ****   int c1, c2;
 1416              		.loc 1 1258 3 view .LVU423
1259:fltk-1.3.4-1/jpeg/jchuff.c ****   int p, i, j;
 1417              		.loc 1 1259 3 view .LVU424
1260:fltk-1.3.4-1/jpeg/jchuff.c ****   long v;
 1418              		.loc 1 1260 3 view .LVU425
1261:fltk-1.3.4-1/jpeg/jchuff.c **** 
 1419              		.loc 1 1261 3 view .LVU426
1265:fltk-1.3.4-1/jpeg/jchuff.c ****   MEMZERO(codesize, SIZEOF(codesize));
 1420              		.loc 1 1265 3 view .LVU427
 1421              	.LVL144:
 1422              	.LBB93:
 1423              	.LBI88:
  59:/usr/include/x86_64-linux-gnu/bits/string_fortified.h **** {
 1424              		.loc 2 59 1 view .LVU428
 1425              	.LBB90:
 1426              		.loc 2 71 3 view .LVU429
 1427              	.LBE90:
 1428              	.LBE93:
 1429              	.LBB94:
 1430              	.LBB85:
 1431              		.loc 2 71 10 is_stmt 0 view .LVU430
 1432 0036 4889E5   		movq	%rsp, %rbp
 1433              	.LBE85:
 1434              	.LBE94:
 1435              	.LBB95:
 1436              	.LBB91:
 1437 0039 C6842440 		movb	$0, 2112(%rsp)
 1437      08000000 
 1438              	.LVL145:
 1439              		.loc 2 71 10 view .LVU431
 1440              	.LBE91:
 1441              	.LBE95:
1266:fltk-1.3.4-1/jpeg/jchuff.c ****   for (i = 0; i < 257; i++)
 1442              		.loc 1 1266 3 is_stmt 1 view .LVU432
 1443              	.LBB96:
 1444              	.LBI83:
  59:/usr/include/x86_64-linux-gnu/bits/string_fortified.h **** {
 1445              		.loc 2 59 1 view .LVU433
 1446              	.LBB86:
 1447              		.loc 2 71 3 view .LVU434
 1448 0041 488D9424 		leaq	2068(%rsp), %rdx
 1448      14080000 
 1449              	.LVL146:
 1450              		.loc 2 71 10 is_stmt 0 view .LVU435
 1451 0049 4889EF   		movq	%rbp, %rdi
 1452              	.LVL147:
 1453              		.loc 2 71 10 view .LVU436
 1454              	.LBE86:
 1455              	.LBE96:
 1456              	.LBB97:
 1457              	.LBB92:
 1458 004c 0F298424 		movaps	%xmm0, 2080(%rsp)
 1458      20080000 
 1459 0054 0F298424 		movaps	%xmm0, 2096(%rsp)
 1459      30080000 
 1460              	.LBE92:
 1461              	.LBE97:
 1462              	.LBB98:
 1463              	.LBB87:
 1464 005c F348AB   		rep stosq
 1465 005f 488D8424 		leaq	1040(%rsp), %rax
 1465      10040000 
 1466 0067 C7070000 		movl	$0, (%rdi)
 1466      0000
 1467              	.LVL148:
 1468              		.loc 2 71 10 view .LVU437
 1469              	.LBE87:
 1470              	.LBE98:
1267:fltk-1.3.4-1/jpeg/jchuff.c ****     others[i] = -1;		/* init links to empty */
 1471              		.loc 1 1267 3 is_stmt 1 view .LVU438
1267:fltk-1.3.4-1/jpeg/jchuff.c ****     others[i] = -1;		/* init links to empty */
 1472              		.loc 1 1267 15 view .LVU439
 1473 006d 0F1F00   		.p2align 4,,10
 1474              		.p2align 3
 1475              	.L132:
1268:fltk-1.3.4-1/jpeg/jchuff.c ****   
 1476              		.loc 1 1268 5 discriminator 3 view .LVU440
1268:fltk-1.3.4-1/jpeg/jchuff.c ****   
 1477              		.loc 1 1268 15 is_stmt 0 discriminator 3 view .LVU441
 1478 0070 C700FFFF 		movl	$-1, (%rax)
 1478      FFFF
1267:fltk-1.3.4-1/jpeg/jchuff.c ****     others[i] = -1;		/* init links to empty */
 1479              		.loc 1 1267 24 is_stmt 1 discriminator 3 view .LVU442
1267:fltk-1.3.4-1/jpeg/jchuff.c ****     others[i] = -1;		/* init links to empty */
 1480              		.loc 1 1267 15 discriminator 3 view .LVU443
 1481 0076 4883C004 		addq	$4, %rax
1267:fltk-1.3.4-1/jpeg/jchuff.c ****     others[i] = -1;		/* init links to empty */
 1482              		.loc 1 1267 3 is_stmt 0 discriminator 3 view .LVU444
 1483 007a 4839D0   		cmpq	%rdx, %rax
 1484 007d 75F1     		jne	.L132
1270:fltk-1.3.4-1/jpeg/jchuff.c ****   /* Including the pseudo-symbol 256 in the Huffman procedure guarantees
 1485              		.loc 1 1270 3 is_stmt 1 view .LVU445
1270:fltk-1.3.4-1/jpeg/jchuff.c ****   /* Including the pseudo-symbol 256 in the Huffman procedure guarantees
 1486              		.loc 1 1270 13 is_stmt 0 view .LVU446
 1487 007f 49C78000 		movq	$1, 2048(%r8)
 1487      08000001 
 1487      000000
 1488              	.LVL149:
 1489              	.L143:
1278:fltk-1.3.4-1/jpeg/jchuff.c ****     /* Find the smallest nonzero frequency, set c1 = its symbol */
 1490              		.loc 1 1278 3 is_stmt 1 view .LVU447
1281:fltk-1.3.4-1/jpeg/jchuff.c ****     v = 1000000000L;
 1491              		.loc 1 1281 5 view .LVU448
1282:fltk-1.3.4-1/jpeg/jchuff.c ****     for (i = 0; i <= 256; i++) {
 1492              		.loc 1 1282 5 view .LVU449
1283:fltk-1.3.4-1/jpeg/jchuff.c ****       if (freq[i] && freq[i] <= v) {
 1493              		.loc 1 1283 5 view .LVU450
1283:fltk-1.3.4-1/jpeg/jchuff.c ****       if (freq[i] && freq[i] <= v) {
 1494              		.loc 1 1283 17 view .LVU451
1254:fltk-1.3.4-1/jpeg/jchuff.c **** #define MAX_CLEN 32		/* assumed maximum initial code length */
 1495              		.loc 1 1254 1 is_stmt 0 view .LVU452
 1496 008a 31C0     		xorl	%eax, %eax
1282:fltk-1.3.4-1/jpeg/jchuff.c ****     for (i = 0; i <= 256; i++) {
 1497              		.loc 1 1282 7 view .LVU453
 1498 008c B900CA9A 		movl	$1000000000, %ecx
 1498      3B
1281:fltk-1.3.4-1/jpeg/jchuff.c ****     v = 1000000000L;
 1499              		.loc 1 1281 8 view .LVU454
 1500 0091 BEFFFFFF 		movl	$-1, %esi
 1500      FF
 1501              	.LVL150:
 1502 0096 662E0F1F 		.p2align 4,,10
 1502      84000000 
 1502      0000
 1503              		.p2align 3
 1504              	.L135:
1284:fltk-1.3.4-1/jpeg/jchuff.c **** 	v = freq[i];
 1505              		.loc 1 1284 7 is_stmt 1 view .LVU455
1284:fltk-1.3.4-1/jpeg/jchuff.c **** 	v = freq[i];
 1506              		.loc 1 1284 15 is_stmt 0 view .LVU456
 1507 00a0 498B14C0 		movq	(%r8,%rax,8), %rdx
1284:fltk-1.3.4-1/jpeg/jchuff.c **** 	v = freq[i];
 1508              		.loc 1 1284 19 view .LVU457
 1509 00a4 4839CA   		cmpq	%rcx, %rdx
 1510 00a7 7F0A     		jg	.L133
1284:fltk-1.3.4-1/jpeg/jchuff.c **** 	v = freq[i];
 1511              		.loc 1 1284 10 view .LVU458
 1512 00a9 4885D2   		testq	%rdx, %rdx
 1513 00ac 480F45CA 		cmovne	%rdx, %rcx
 1514              	.LVL151:
1284:fltk-1.3.4-1/jpeg/jchuff.c **** 	v = freq[i];
 1515              		.loc 1 1284 10 view .LVU459
 1516 00b0 0F45F0   		cmovne	%eax, %esi
 1517              	.L133:
 1518              	.LVL152:
1283:fltk-1.3.4-1/jpeg/jchuff.c ****       if (freq[i] && freq[i] <= v) {
 1519              		.loc 1 1283 27 is_stmt 1 discriminator 2 view .LVU460
1283:fltk-1.3.4-1/jpeg/jchuff.c ****       if (freq[i] && freq[i] <= v) {
 1520              		.loc 1 1283 17 discriminator 2 view .LVU461
 1521 00b3 4883C001 		addq	$1, %rax
 1522              	.LVL153:
1283:fltk-1.3.4-1/jpeg/jchuff.c ****       if (freq[i] && freq[i] <= v) {
 1523              		.loc 1 1283 5 is_stmt 0 discriminator 2 view .LVU462
 1524 00b7 483D0101 		cmpq	$257, %rax
 1524      0000
 1525 00bd 75E1     		jne	.L135
 1526 00bf 31C0     		xorl	%eax, %eax
1293:fltk-1.3.4-1/jpeg/jchuff.c ****     for (i = 0; i <= 256; i++) {
 1527              		.loc 1 1293 7 view .LVU463
 1528 00c1 B900CA9A 		movl	$1000000000, %ecx
 1528      3B
 1529              	.LVL154:
1292:fltk-1.3.4-1/jpeg/jchuff.c ****     v = 1000000000L;
 1530              		.loc 1 1292 8 view .LVU464
 1531 00c6 41BAFFFF 		movl	$-1, %r10d
 1531      FFFF
 1532 00cc 0F1F4000 		.p2align 4,,10
 1533              		.p2align 3
 1534              	.L138:
 1535              	.LVL155:
1295:fltk-1.3.4-1/jpeg/jchuff.c **** 	v = freq[i];
 1536              		.loc 1 1295 7 is_stmt 1 view .LVU465
1295:fltk-1.3.4-1/jpeg/jchuff.c **** 	v = freq[i];
 1537              		.loc 1 1295 15 is_stmt 0 view .LVU466
 1538 00d0 498B14C0 		movq	(%r8,%rax,8), %rdx
1295:fltk-1.3.4-1/jpeg/jchuff.c **** 	v = freq[i];
 1539              		.loc 1 1295 10 view .LVU467
 1540 00d4 4885D2   		testq	%rdx, %rdx
 1541 00d7 410F95C1 		setne	%r9b
1295:fltk-1.3.4-1/jpeg/jchuff.c **** 	v = freq[i];
 1542              		.loc 1 1295 19 view .LVU468
 1543 00db 4839CA   		cmpq	%rcx, %rdx
 1544 00de 400F9EC7 		setle	%dil
1295:fltk-1.3.4-1/jpeg/jchuff.c **** 	v = freq[i];
 1545              		.loc 1 1295 35 view .LVU469
 1546 00e2 4184F9   		testb	%dil, %r9b
 1547 00e5 740A     		je	.L136
 1548 00e7 39C6     		cmpl	%eax, %esi
 1549 00e9 480F45CA 		cmovne	%rdx, %rcx
 1550              	.LVL156:
1295:fltk-1.3.4-1/jpeg/jchuff.c **** 	v = freq[i];
 1551              		.loc 1 1295 35 view .LVU470
 1552 00ed 440F45D0 		cmovne	%eax, %r10d
 1553              	.L136:
 1554              	.LVL157:
1294:fltk-1.3.4-1/jpeg/jchuff.c ****       if (freq[i] && freq[i] <= v && i != c1) {
 1555              		.loc 1 1294 27 is_stmt 1 discriminator 2 view .LVU471
1294:fltk-1.3.4-1/jpeg/jchuff.c ****       if (freq[i] && freq[i] <= v && i != c1) {
 1556              		.loc 1 1294 17 discriminator 2 view .LVU472
 1557 00f1 4883C001 		addq	$1, %rax
 1558              	.LVL158:
1294:fltk-1.3.4-1/jpeg/jchuff.c ****       if (freq[i] && freq[i] <= v && i != c1) {
 1559              		.loc 1 1294 5 is_stmt 0 discriminator 2 view .LVU473
 1560 00f5 483D0101 		cmpq	$257, %rax
 1560      0000
 1561 00fb 75D3     		jne	.L138
1302:fltk-1.3.4-1/jpeg/jchuff.c ****       break;
 1562              		.loc 1 1302 5 is_stmt 1 view .LVU474
1302:fltk-1.3.4-1/jpeg/jchuff.c ****       break;
 1563              		.loc 1 1302 8 is_stmt 0 view .LVU475
 1564 00fd 4183FAFF 		cmpl	$-1, %r10d
 1565 0101 747A     		je	.L139
1306:fltk-1.3.4-1/jpeg/jchuff.c ****     freq[c2] = 0;
 1566              		.loc 1 1306 5 is_stmt 1 view .LVU476
1306:fltk-1.3.4-1/jpeg/jchuff.c ****     freq[c2] = 0;
 1567              		.loc 1 1306 21 is_stmt 0 view .LVU477
 1568 0103 4963CA   		movslq	%r10d, %rcx
 1569              	.LVL159:
1306:fltk-1.3.4-1/jpeg/jchuff.c ****     freq[c2] = 0;
 1570              		.loc 1 1306 14 view .LVU478
 1571 0106 4863F6   		movslq	%esi, %rsi
1306:fltk-1.3.4-1/jpeg/jchuff.c ****     freq[c2] = 0;
 1572              		.loc 1 1306 21 view .LVU479
 1573 0109 498D04C8 		leaq	(%r8,%rcx,8), %rax
1310:fltk-1.3.4-1/jpeg/jchuff.c ****     while (others[c1] >= 0) {
 1574              		.loc 1 1310 17 view .LVU480
 1575 010d 8304B401 		addl	$1, (%rsp,%rsi,4)
1306:fltk-1.3.4-1/jpeg/jchuff.c ****     freq[c2] = 0;
 1576              		.loc 1 1306 14 view .LVU481
 1577 0111 488B10   		movq	(%rax), %rdx
 1578 0114 490114F0 		addq	%rdx, (%r8,%rsi,8)
1307:fltk-1.3.4-1/jpeg/jchuff.c **** 
 1579              		.loc 1 1307 5 is_stmt 1 view .LVU482
1307:fltk-1.3.4-1/jpeg/jchuff.c **** 
 1580              		.loc 1 1307 14 is_stmt 0 view .LVU483
 1581 0118 48C70000 		movq	$0, (%rax)
 1581      000000
1310:fltk-1.3.4-1/jpeg/jchuff.c ****     while (others[c1] >= 0) {
 1582              		.loc 1 1310 5 is_stmt 1 view .LVU484
1311:fltk-1.3.4-1/jpeg/jchuff.c ****       c1 = others[c1];
 1583              		.loc 1 1311 5 view .LVU485
1311:fltk-1.3.4-1/jpeg/jchuff.c ****       c1 = others[c1];
 1584              		.loc 1 1311 11 view .LVU486
1311:fltk-1.3.4-1/jpeg/jchuff.c ****       c1 = others[c1];
 1585              		.loc 1 1311 18 is_stmt 0 view .LVU487
 1586 011f 8B84B410 		movl	1040(%rsp,%rsi,4), %eax
 1586      040000
1311:fltk-1.3.4-1/jpeg/jchuff.c ****       c1 = others[c1];
 1587              		.loc 1 1311 11 view .LVU488
 1588 0126 85C0     		testl	%eax, %eax
 1589 0128 781B     		js	.L140
 1590              	.LVL160:
 1591 012a 660F1F44 		.p2align 4,,10
 1591      0000
 1592              		.p2align 3
 1593              	.L141:
1312:fltk-1.3.4-1/jpeg/jchuff.c ****       codesize[c1]++;
 1594              		.loc 1 1312 7 is_stmt 1 view .LVU489
1313:fltk-1.3.4-1/jpeg/jchuff.c ****     }
 1595              		.loc 1 1313 7 view .LVU490
1313:fltk-1.3.4-1/jpeg/jchuff.c ****     }
 1596              		.loc 1 1313 19 is_stmt 0 view .LVU491
 1597 0130 4863D0   		movslq	%eax, %rdx
1311:fltk-1.3.4-1/jpeg/jchuff.c ****       c1 = others[c1];
 1598              		.loc 1 1311 18 view .LVU492
 1599 0133 8B849410 		movl	1040(%rsp,%rdx,4), %eax
 1599      040000
 1600              	.LVL161:
1313:fltk-1.3.4-1/jpeg/jchuff.c ****     }
 1601              		.loc 1 1313 19 view .LVU493
 1602 013a 83049401 		addl	$1, (%rsp,%rdx,4)
 1603              	.LVL162:
1311:fltk-1.3.4-1/jpeg/jchuff.c ****       c1 = others[c1];
 1604              		.loc 1 1311 11 is_stmt 1 view .LVU494
 1605 013e 85C0     		testl	%eax, %eax
 1606 0140 79EE     		jns	.L141
 1607 0142 4889D6   		movq	%rdx, %rsi
 1608              	.L140:
1316:fltk-1.3.4-1/jpeg/jchuff.c ****     
 1609              		.loc 1 1316 5 view .LVU495
1316:fltk-1.3.4-1/jpeg/jchuff.c ****     
 1610              		.loc 1 1316 16 is_stmt 0 view .LVU496
 1611 0145 448994B4 		movl	%r10d, 1040(%rsp,%rsi,4)
 1611      10040000 
1319:fltk-1.3.4-1/jpeg/jchuff.c ****     while (others[c2] >= 0) {
 1612              		.loc 1 1319 5 is_stmt 1 view .LVU497
1320:fltk-1.3.4-1/jpeg/jchuff.c ****       c2 = others[c2];
 1613              		.loc 1 1320 18 is_stmt 0 view .LVU498
 1614 014d 4863848C 		movslq	1040(%rsp,%rcx,4), %rax
 1614      10040000 
1319:fltk-1.3.4-1/jpeg/jchuff.c ****     while (others[c2] >= 0) {
 1615              		.loc 1 1319 17 view .LVU499
 1616 0155 83048C01 		addl	$1, (%rsp,%rcx,4)
1320:fltk-1.3.4-1/jpeg/jchuff.c ****       c2 = others[c2];
 1617              		.loc 1 1320 5 is_stmt 1 view .LVU500
1320:fltk-1.3.4-1/jpeg/jchuff.c ****       c2 = others[c2];
 1618              		.loc 1 1320 11 view .LVU501
 1619 0159 85C0     		testl	%eax, %eax
 1620 015b 0F8829FF 		js	.L143
 1620      FFFF
 1621              	.LVL163:
 1622              		.p2align 4,,10
 1623 0161 0F1F8000 		.p2align 3
 1623      000000
 1624              	.L142:
1321:fltk-1.3.4-1/jpeg/jchuff.c ****       codesize[c2]++;
 1625              		.loc 1 1321 7 view .LVU502
1322:fltk-1.3.4-1/jpeg/jchuff.c ****     }
 1626              		.loc 1 1322 7 view .LVU503
1322:fltk-1.3.4-1/jpeg/jchuff.c ****     }
 1627              		.loc 1 1322 19 is_stmt 0 view .LVU504
 1628 0168 83048401 		addl	$1, (%rsp,%rax,4)
1320:fltk-1.3.4-1/jpeg/jchuff.c ****       c2 = others[c2];
 1629              		.loc 1 1320 11 is_stmt 1 view .LVU505
1320:fltk-1.3.4-1/jpeg/jchuff.c ****       c2 = others[c2];
 1630              		.loc 1 1320 18 is_stmt 0 view .LVU506
 1631 016c 48638484 		movslq	1040(%rsp,%rax,4), %rax
 1631      10040000 
 1632              	.LVL164:
1320:fltk-1.3.4-1/jpeg/jchuff.c ****       c2 = others[c2];
 1633              		.loc 1 1320 11 view .LVU507
 1634 0174 85C0     		testl	%eax, %eax
 1635 0176 79F0     		jns	.L142
 1636 0178 E90DFFFF 		jmp	.L143
 1636      FF
 1637              	.LVL165:
 1638              	.L139:
1320:fltk-1.3.4-1/jpeg/jchuff.c ****       c2 = others[c2];
 1639              		.loc 1 1320 11 view .LVU508
 1640 017d 4989EE   		movq	%rbp, %r14
 1641 0180 4C8DBC24 		leaq	1028(%rsp), %r15
 1641      04040000 
 1642              	.LVL166:
 1643 0188 0F1F8400 		.p2align 4,,10
 1643      00000000 
 1644              		.p2align 3
 1645              	.L147:
1328:fltk-1.3.4-1/jpeg/jchuff.c ****       /* The JPEG standard seems to think that this can't happen, */
 1646              		.loc 1 1328 5 is_stmt 1 view .LVU509
1328:fltk-1.3.4-1/jpeg/jchuff.c ****       /* The JPEG standard seems to think that this can't happen, */
 1647              		.loc 1 1328 17 is_stmt 0 view .LVU510
 1648 0190 4D632E   		movslq	(%r14), %r13
1328:fltk-1.3.4-1/jpeg/jchuff.c ****       /* The JPEG standard seems to think that this can't happen, */
 1649              		.loc 1 1328 8 view .LVU511
 1650 0193 4585ED   		testl	%r13d, %r13d
 1651 0196 7423     		je	.L145
1331:fltk-1.3.4-1/jpeg/jchuff.c **** 	ERREXIT(cinfo, JERR_HUFF_CLEN_OVERFLOW);
 1652              		.loc 1 1331 7 is_stmt 1 view .LVU512
1331:fltk-1.3.4-1/jpeg/jchuff.c **** 	ERREXIT(cinfo, JERR_HUFF_CLEN_OVERFLOW);
 1653              		.loc 1 1331 10 is_stmt 0 view .LVU513
 1654 0198 4183FD20 		cmpl	$32, %r13d
 1655 019c 7E14     		jle	.L146
1332:fltk-1.3.4-1/jpeg/jchuff.c **** 
 1656              		.loc 1 1332 2 is_stmt 1 view .LVU514
 1657 019e 498B0424 		movq	(%r12), %rax
 1658 01a2 4C89E7   		movq	%r12, %rdi
 1659 01a5 C7402828 		movl	$40, 40(%rax)
 1659      000000
 1660 01ac 498B0424 		movq	(%r12), %rax
 1661 01b0 FF10     		call	*(%rax)
 1662              	.LVL167:
 1663              	.L146:
1334:fltk-1.3.4-1/jpeg/jchuff.c ****     }
 1664              		.loc 1 1334 7 view .LVU515
1334:fltk-1.3.4-1/jpeg/jchuff.c ****     }
 1665              		.loc 1 1334 24 is_stmt 0 view .LVU516
 1666 01b2 4280842C 		addb	$1, 2080(%rsp,%r13)
 1666      20080000 
 1666      01
 1667              	.L145:
1327:fltk-1.3.4-1/jpeg/jchuff.c ****     if (codesize[i]) {
 1668              		.loc 1 1327 25 is_stmt 1 discriminator 2 view .LVU517
1327:fltk-1.3.4-1/jpeg/jchuff.c ****     if (codesize[i]) {
 1669              		.loc 1 1327 15 discriminator 2 view .LVU518
 1670 01bb 4983C604 		addq	$4, %r14
1327:fltk-1.3.4-1/jpeg/jchuff.c ****     if (codesize[i]) {
 1671              		.loc 1 1327 3 is_stmt 0 discriminator 2 view .LVU519
 1672 01bf 4D39FE   		cmpq	%r15, %r14
 1673 01c2 75CC     		jne	.L147
1327:fltk-1.3.4-1/jpeg/jchuff.c ****     if (codesize[i]) {
 1674              		.loc 1 1327 3 view .LVU520
 1675 01c4 488DB424 		leaq	2112(%rsp), %rsi
 1675      40080000 
 1676 01cc 41BB1F00 		movl	$31, %r11d
 1676      0000
 1677 01d2 41BA1E00 		movl	$30, %r10d
 1677      0000
 1678 01d8 4C8DA424 		leaq	2096(%rsp), %r12
 1678      30080000 
 1679              	.LVL168:
1327:fltk-1.3.4-1/jpeg/jchuff.c ****     if (codesize[i]) {
 1680              		.loc 1 1327 3 view .LVU521
 1681 01e0 4129F3   		subl	%esi, %r11d
 1682 01e3 4129F2   		subl	%esi, %r10d
 1683              	.L152:
 1684              	.LVL169:
1350:fltk-1.3.4-1/jpeg/jchuff.c ****       j = i - 2;		/* find length of new prefix to be used */
 1685              		.loc 1 1350 11 is_stmt 1 view .LVU522
1350:fltk-1.3.4-1/jpeg/jchuff.c ****       j = i - 2;		/* find length of new prefix to be used */
 1686              		.loc 1 1350 16 is_stmt 0 view .LVU523
 1687 01e6 0FB63E   		movzbl	(%rsi), %edi
 1688 01e9 458D0C33 		leal	(%r11,%rsi), %r9d
 1689 01ed 458D0432 		leal	(%r10,%rsi), %r8d
1350:fltk-1.3.4-1/jpeg/jchuff.c ****       j = i - 2;		/* find length of new prefix to be used */
 1690              		.loc 1 1350 11 view .LVU524
 1691 01f1 4084FF   		testb	%dil, %dil
 1692 01f4 744E     		je	.L156
 1693 01f6 662E0F1F 		.p2align 4,,10
 1693      84000000 
 1693      0000
 1694              		.p2align 3
 1695              	.L151:
1351:fltk-1.3.4-1/jpeg/jchuff.c ****       while (bits[j] == 0)
 1696              		.loc 1 1351 7 is_stmt 1 view .LVU525
 1697              	.LVL170:
1352:fltk-1.3.4-1/jpeg/jchuff.c **** 	j--;
 1698              		.loc 1 1352 7 view .LVU526
1352:fltk-1.3.4-1/jpeg/jchuff.c **** 	j--;
 1699              		.loc 1 1352 13 view .LVU527
 1700 0200 807EFE00 		cmpb	$0, -2(%rsi)
 1701 0204 0F85F100 		jne	.L164
 1701      0000
 1702 020a 4889F2   		movq	%rsi, %rdx
1351:fltk-1.3.4-1/jpeg/jchuff.c ****       while (bits[j] == 0)
 1703              		.loc 1 1351 9 is_stmt 0 view .LVU528
 1704 020d 4489C0   		movl	%r8d, %eax
 1705              	.LVL171:
 1706              		.p2align 4,,10
 1707              		.p2align 3
 1708              	.L150:
1353:fltk-1.3.4-1/jpeg/jchuff.c ****       
 1709              		.loc 1 1353 2 is_stmt 1 view .LVU529
 1710 0210 4883EA01 		subq	$1, %rdx
 1711 0214 4863C8   		movslq	%eax, %rcx
1353:fltk-1.3.4-1/jpeg/jchuff.c ****       
 1712              		.loc 1 1353 3 is_stmt 0 view .LVU530
 1713 0217 83E801   		subl	$1, %eax
 1714              	.LVL172:
1352:fltk-1.3.4-1/jpeg/jchuff.c **** 	j--;
 1715              		.loc 1 1352 13 is_stmt 1 view .LVU531
 1716 021a 807AFE00 		cmpb	$0, -2(%rdx)
 1717 021e 74F0     		je	.L150
 1718              	.LVL173:
 1719              	.L149:
1355:fltk-1.3.4-1/jpeg/jchuff.c ****       bits[i-1]++;		/* one goes in this length */
 1720              		.loc 1 1355 7 view .LVU532
1355:fltk-1.3.4-1/jpeg/jchuff.c ****       bits[i-1]++;		/* one goes in this length */
 1721              		.loc 1 1355 15 is_stmt 0 view .LVU533
 1722 0220 83EF02   		subl	$2, %edi
1358:fltk-1.3.4-1/jpeg/jchuff.c ****     }
 1723              		.loc 1 1358 14 view .LVU534
 1724 0223 4898     		cltq
1356:fltk-1.3.4-1/jpeg/jchuff.c ****       bits[j+1] += 2;		/* two new symbols in this length */
 1725              		.loc 1 1356 16 view .LVU535
 1726 0225 8046FF01 		addb	$1, -1(%rsi)
1355:fltk-1.3.4-1/jpeg/jchuff.c ****       bits[i-1]++;		/* one goes in this length */
 1727              		.loc 1 1355 15 view .LVU536
 1728 0229 40883E   		movb	%dil, (%rsi)
1356:fltk-1.3.4-1/jpeg/jchuff.c ****       bits[j+1] += 2;		/* two new symbols in this length */
 1729              		.loc 1 1356 7 is_stmt 1 view .LVU537
1357:fltk-1.3.4-1/jpeg/jchuff.c ****       bits[j]--;		/* symbol of this length is now a prefix */
 1730              		.loc 1 1357 7 view .LVU538
1357:fltk-1.3.4-1/jpeg/jchuff.c ****       bits[j]--;		/* symbol of this length is now a prefix */
 1731              		.loc 1 1357 17 is_stmt 0 view .LVU539
 1732 022c 80840C20 		addb	$2, 2080(%rsp,%rcx)
 1732      08000002 
1358:fltk-1.3.4-1/jpeg/jchuff.c ****     }
 1733              		.loc 1 1358 7 is_stmt 1 view .LVU540
1358:fltk-1.3.4-1/jpeg/jchuff.c ****     }
 1734              		.loc 1 1358 14 is_stmt 0 view .LVU541
 1735 0234 80AC0420 		subb	$1, 2080(%rsp,%rax)
 1735      08000001 
1350:fltk-1.3.4-1/jpeg/jchuff.c ****       j = i - 2;		/* find length of new prefix to be used */
 1736              		.loc 1 1350 11 is_stmt 1 view .LVU542
1350:fltk-1.3.4-1/jpeg/jchuff.c ****       j = i - 2;		/* find length of new prefix to be used */
 1737              		.loc 1 1350 16 is_stmt 0 view .LVU543
 1738 023c 0FB63E   		movzbl	(%rsi), %edi
1350:fltk-1.3.4-1/jpeg/jchuff.c ****       j = i - 2;		/* find length of new prefix to be used */
 1739              		.loc 1 1350 11 view .LVU544
 1740 023f 4084FF   		testb	%dil, %dil
 1741 0242 75BC     		jne	.L151
 1742              	.L156:
1349:fltk-1.3.4-1/jpeg/jchuff.c ****     while (bits[i] > 0) {
 1743              		.loc 1 1349 30 is_stmt 1 view .LVU545
 1744              	.LVL174:
1349:fltk-1.3.4-1/jpeg/jchuff.c ****     while (bits[i] > 0) {
 1745              		.loc 1 1349 22 view .LVU546
 1746 0244 4883EE01 		subq	$1, %rsi
 1747              	.LVL175:
1349:fltk-1.3.4-1/jpeg/jchuff.c ****     while (bits[i] > 0) {
 1748              		.loc 1 1349 3 is_stmt 0 view .LVU547
 1749 0248 4C39E6   		cmpq	%r12, %rsi
 1750 024b 7599     		jne	.L152
 1751              	.LVL176:
1363:fltk-1.3.4-1/jpeg/jchuff.c ****     i--;
 1752              		.loc 1 1363 9 is_stmt 1 view .LVU548
1363:fltk-1.3.4-1/jpeg/jchuff.c ****     i--;
 1753              		.loc 1 1363 14 is_stmt 0 view .LVU549
 1754 024d 0FB68424 		movzbl	2096(%rsp), %eax
 1754      30080000 
1363:fltk-1.3.4-1/jpeg/jchuff.c ****     i--;
 1755              		.loc 1 1363 9 view .LVU550
 1756 0255 BA0F0000 		movl	$15, %edx
 1756      00
 1757 025a B9100000 		movl	$16, %ecx
 1757      00
 1758 025f 488DB424 		leaq	2081(%rsp), %rsi
 1758      21080000 
 1759 0267 84C0     		testb	%al, %al
 1760 0269 750F     		jne	.L154
 1761              	.LVL177:
 1762              	.L153:
1364:fltk-1.3.4-1/jpeg/jchuff.c ****   bits[i]--;
 1763              		.loc 1 1364 5 is_stmt 1 view .LVU551
1364:fltk-1.3.4-1/jpeg/jchuff.c ****   bits[i]--;
 1764              		.loc 1 1364 6 is_stmt 0 view .LVU552
 1765 026b 4863CA   		movslq	%edx, %rcx
 1766              	.LVL178:
1363:fltk-1.3.4-1/jpeg/jchuff.c ****     i--;
 1767              		.loc 1 1363 9 is_stmt 1 view .LVU553
 1768 026e 4883EA01 		subq	$1, %rdx
 1769              	.LVL179:
1363:fltk-1.3.4-1/jpeg/jchuff.c ****     i--;
 1770              		.loc 1 1363 14 is_stmt 0 view .LVU554
 1771 0272 0FB60416 		movzbl	(%rsi,%rdx), %eax
1363:fltk-1.3.4-1/jpeg/jchuff.c ****     i--;
 1772              		.loc 1 1363 9 view .LVU555
 1773 0276 84C0     		testb	%al, %al
 1774 0278 74F1     		je	.L153
 1775              	.LVL180:
 1776              	.L154:
1365:fltk-1.3.4-1/jpeg/jchuff.c ****   
 1777              		.loc 1 1365 3 is_stmt 1 view .LVU556
1365:fltk-1.3.4-1/jpeg/jchuff.c ****   
 1778              		.loc 1 1365 10 is_stmt 0 view .LVU557
 1779 027a 83E801   		subl	$1, %eax
1375:fltk-1.3.4-1/jpeg/jchuff.c ****     for (j = 0; j <= 255; j++) {
 1780              		.loc 1 1375 10 view .LVU558
 1781 027d BA010000 		movl	$1, %edx
 1781      00
1365:fltk-1.3.4-1/jpeg/jchuff.c ****   
 1782              		.loc 1 1365 10 view .LVU559
 1783 0282 88840C20 		movb	%al, 2080(%rsp,%rcx)
 1783      080000
1368:fltk-1.3.4-1/jpeg/jchuff.c ****   
 1784              		.loc 1 1368 3 is_stmt 1 view .LVU560
 1785              	.LVL181:
 1786              	.LBB99:
 1787              	.LBI99:
  31:/usr/include/x86_64-linux-gnu/bits/string_fortified.h **** 	       size_t __len))
 1788              		.loc 2 31 1 view .LVU561
 1789              	.LBB100:
  34:/usr/include/x86_64-linux-gnu/bits/string_fortified.h **** }
 1790              		.loc 2 34 3 view .LVU562
  34:/usr/include/x86_64-linux-gnu/bits/string_fortified.h **** }
 1791              		.loc 2 34 10 is_stmt 0 view .LVU563
 1792 0289 0FB68424 		movzbl	2096(%rsp), %eax
 1792      30080000 
 1793              	.LBE100:
 1794              	.LBE99:
1374:fltk-1.3.4-1/jpeg/jchuff.c ****   for (i = 1; i <= MAX_CLEN; i++) {
 1795              		.loc 1 1374 5 view .LVU564
 1796 0291 31C9     		xorl	%ecx, %ecx
 1797              	.LBB103:
 1798              	.LBB101:
  34:/usr/include/x86_64-linux-gnu/bits/string_fortified.h **** }
 1799              		.loc 2 34 10 view .LVU565
 1800 0293 660F6F8C 		movdqa	2080(%rsp), %xmm1
 1800      24200800 
 1800      00
 1801 029c 884310   		movb	%al, 16(%rbx)
 1802              	.LVL182:
  34:/usr/include/x86_64-linux-gnu/bits/string_fortified.h **** }
 1803              		.loc 2 34 10 view .LVU566
 1804              	.LBE101:
 1805              	.LBE103:
1374:fltk-1.3.4-1/jpeg/jchuff.c ****   for (i = 1; i <= MAX_CLEN; i++) {
 1806              		.loc 1 1374 3 is_stmt 1 view .LVU567
1375:fltk-1.3.4-1/jpeg/jchuff.c ****     for (j = 0; j <= 255; j++) {
 1807              		.loc 1 1375 3 view .LVU568
1375:fltk-1.3.4-1/jpeg/jchuff.c ****     for (j = 0; j <= 255; j++) {
 1808              		.loc 1 1375 15 view .LVU569
 1809              	.LBB104:
 1810              	.LBB102:
  34:/usr/include/x86_64-linux-gnu/bits/string_fortified.h **** }
 1811              		.loc 2 34 10 is_stmt 0 view .LVU570
 1812 029f 0F110B   		movups	%xmm1, (%rbx)
 1813              	.LVL183:
 1814              	.L157:
  34:/usr/include/x86_64-linux-gnu/bits/string_fortified.h **** }
 1815              		.loc 2 34 10 view .LVU571
 1816              	.LBE102:
 1817              	.LBE104:
1376:fltk-1.3.4-1/jpeg/jchuff.c ****       if (codesize[j] == i) {
 1818              		.loc 1 1376 17 is_stmt 1 view .LVU572
1363:fltk-1.3.4-1/jpeg/jchuff.c ****     i--;
 1819              		.loc 1 1363 9 is_stmt 0 view .LVU573
 1820 02a2 31C0     		xorl	%eax, %eax
 1821              	.LVL184:
 1822              		.p2align 4,,10
 1823 02a4 0F1F4000 		.p2align 3
 1824              	.L159:
1377:fltk-1.3.4-1/jpeg/jchuff.c **** 	htbl->huffval[p] = (UINT8) j;
 1825              		.loc 1 1377 7 is_stmt 1 view .LVU574
1377:fltk-1.3.4-1/jpeg/jchuff.c **** 	htbl->huffval[p] = (UINT8) j;
 1826              		.loc 1 1377 10 is_stmt 0 view .LVU575
 1827 02a8 39548500 		cmpl	%edx, 0(%rbp,%rax,4)
 1828 02ac 750A     		jne	.L158
1378:fltk-1.3.4-1/jpeg/jchuff.c **** 	p++;
 1829              		.loc 1 1378 2 is_stmt 1 view .LVU576
1378:fltk-1.3.4-1/jpeg/jchuff.c **** 	p++;
 1830              		.loc 1 1378 19 is_stmt 0 view .LVU577
 1831 02ae 4863F1   		movslq	%ecx, %rsi
1379:fltk-1.3.4-1/jpeg/jchuff.c ****       }
 1832              		.loc 1 1379 3 view .LVU578
 1833 02b1 83C101   		addl	$1, %ecx
 1834              	.LVL185:
1378:fltk-1.3.4-1/jpeg/jchuff.c **** 	p++;
 1835              		.loc 1 1378 19 view .LVU579
 1836 02b4 88443311 		movb	%al, 17(%rbx,%rsi)
1379:fltk-1.3.4-1/jpeg/jchuff.c ****       }
 1837              		.loc 1 1379 2 is_stmt 1 view .LVU580
 1838              	.LVL186:
 1839              	.L158:
1376:fltk-1.3.4-1/jpeg/jchuff.c ****       if (codesize[j] == i) {
 1840              		.loc 1 1376 27 discriminator 2 view .LVU581
1376:fltk-1.3.4-1/jpeg/jchuff.c ****       if (codesize[j] == i) {
 1841              		.loc 1 1376 17 discriminator 2 view .LVU582
 1842 02b8 4883C001 		addq	$1, %rax
 1843              	.LVL187:
1376:fltk-1.3.4-1/jpeg/jchuff.c ****       if (codesize[j] == i) {
 1844              		.loc 1 1376 5 is_stmt 0 discriminator 2 view .LVU583
 1845 02bc 483D0001 		cmpq	$256, %rax
 1845      0000
 1846 02c2 75E4     		jne	.L159
1375:fltk-1.3.4-1/jpeg/jchuff.c ****     for (j = 0; j <= 255; j++) {
 1847              		.loc 1 1375 30 is_stmt 1 discriminator 2 view .LVU584
1375:fltk-1.3.4-1/jpeg/jchuff.c ****     for (j = 0; j <= 255; j++) {
 1848              		.loc 1 1375 31 is_stmt 0 discriminator 2 view .LVU585
 1849 02c4 83C201   		addl	$1, %edx
 1850              	.LVL188:
1375:fltk-1.3.4-1/jpeg/jchuff.c ****     for (j = 0; j <= 255; j++) {
 1851              		.loc 1 1375 15 is_stmt 1 discriminator 2 view .LVU586
1375:fltk-1.3.4-1/jpeg/jchuff.c ****     for (j = 0; j <= 255; j++) {
 1852              		.loc 1 1375 3 is_stmt 0 discriminator 2 view .LVU587
 1853 02c7 83FA21   		cmpl	$33, %edx
 1854 02ca 75D6     		jne	.L157
1385:fltk-1.3.4-1/jpeg/jchuff.c **** }
 1855              		.loc 1 1385 3 is_stmt 1 view .LVU588
1385:fltk-1.3.4-1/jpeg/jchuff.c **** }
 1856              		.loc 1 1385 20 is_stmt 0 view .LVU589
 1857 02cc C7831401 		movl	$0, 276(%rbx)
 1857      00000000 
 1857      0000
1386:fltk-1.3.4-1/jpeg/jchuff.c **** 
 1858              		.loc 1 1386 1 view .LVU590
 1859 02d6 488B8424 		movq	2120(%rsp), %rax
 1859      48080000 
 1860 02de 64483304 		xorq	%fs:40, %rax
 1860      25280000 
 1860      00
 1861 02e7 751D     		jne	.L193
 1862 02e9 4881C458 		addq	$2136, %rsp
 1862      080000
 1863              		.cfi_remember_state
 1864              		.cfi_def_cfa_offset 56
 1865 02f0 5B       		popq	%rbx
 1866              		.cfi_def_cfa_offset 48
 1867              	.LVL189:
1386:fltk-1.3.4-1/jpeg/jchuff.c **** 
 1868              		.loc 1 1386 1 view .LVU591
 1869 02f1 5D       		popq	%rbp
 1870              		.cfi_def_cfa_offset 40
 1871 02f2 415C     		popq	%r12
 1872              		.cfi_def_cfa_offset 32
 1873 02f4 415D     		popq	%r13
 1874              		.cfi_def_cfa_offset 24
 1875 02f6 415E     		popq	%r14
 1876              		.cfi_def_cfa_offset 16
 1877 02f8 415F     		popq	%r15
 1878              		.cfi_def_cfa_offset 8
 1879 02fa C3       		ret
 1880              	.LVL190:
 1881              	.L164:
 1882              		.cfi_restore_state
1352:fltk-1.3.4-1/jpeg/jchuff.c **** 	j--;
 1883              		.loc 1 1352 13 view .LVU592
 1884 02fb 4963C9   		movslq	%r9d, %rcx
1351:fltk-1.3.4-1/jpeg/jchuff.c ****       while (bits[j] == 0)
 1885              		.loc 1 1351 9 view .LVU593
 1886 02fe 4489C0   		movl	%r8d, %eax
 1887 0301 E91AFFFF 		jmp	.L149
 1887      FF
 1888              	.LVL191:
 1889              	.L193:
1386:fltk-1.3.4-1/jpeg/jchuff.c **** 
 1890              		.loc 1 1386 1 view .LVU594
 1891 0306 E8000000 		call	__stack_chk_fail@PLT
 1891      00
 1892              	.LVL192:
1386:fltk-1.3.4-1/jpeg/jchuff.c **** 
 1893              		.loc 1 1386 1 view .LVU595
 1894              		.cfi_endproc
 1895              	.LFE73:
 1897              		.section	.text.emit_buffered_bits.part.0,"ax",@progbits
 1898              		.p2align 4
 1900              	emit_buffered_bits.part.0:
 1901              	.LVL193:
 1902              	.LFB79:
 445:fltk-1.3.4-1/jpeg/jchuff.c **** 		    unsigned int nbits)
 1903              		.loc 1 445 1 is_stmt 1 view -0
 1904              		.cfi_startproc
 451:fltk-1.3.4-1/jpeg/jchuff.c ****     emit_bits_e(entropy, (unsigned int) (*bufstart), 1);
 1905              		.loc 1 451 9 view .LVU597
 1906 0000 85D2     		testl	%edx, %edx
 1907 0002 0F842801 		je	.L210
 1907      0000
 445:fltk-1.3.4-1/jpeg/jchuff.c **** 		    unsigned int nbits)
 1908              		.loc 1 445 1 is_stmt 0 view .LVU598
 1909 0008 4157     		pushq	%r15
 1910              		.cfi_def_cfa_offset 16
 1911              		.cfi_offset 15, -16
 1912 000a 8D42FF   		leal	-1(%rdx), %eax
 1913 000d 4156     		pushq	%r14
 1914              		.cfi_def_cfa_offset 24
 1915              		.cfi_offset 14, -24
 1916 000f 488D4406 		leaq	1(%rsi,%rax), %rax
 1916      01
 1917 0014 4155     		pushq	%r13
 1918              		.cfi_def_cfa_offset 32
 1919              		.cfi_offset 13, -32
 1920 0016 4154     		pushq	%r12
 1921              		.cfi_def_cfa_offset 40
 1922              		.cfi_offset 12, -40
 1923 0018 55       		pushq	%rbp
 1924              		.cfi_def_cfa_offset 48
 1925              		.cfi_offset 6, -48
 1926 0019 4889F5   		movq	%rsi, %rbp
 1927 001c 53       		pushq	%rbx
 1928              		.cfi_def_cfa_offset 56
 1929              		.cfi_offset 3, -56
 1930 001d 4889FB   		movq	%rdi, %rbx
 1931 0020 4883EC18 		subq	$24, %rsp
 1932              		.cfi_def_cfa_offset 80
 1933 0024 48894424 		movq	%rax, 8(%rsp)
 1933      08
 1934              	.LVL194:
 1935 0029 0F1F8000 		.p2align 4,,10
 1935      000000
 1936              		.p2align 3
 1937              	.L203:
 452:fltk-1.3.4-1/jpeg/jchuff.c ****     bufstart++;
 1938              		.loc 1 452 5 is_stmt 1 view .LVU599
 1939              	.LBB110:
 1940              	.LBI110:
 349:fltk-1.3.4-1/jpeg/jchuff.c **** /* Emit some bits, unless we are in gather mode */
 1941              		.loc 1 349 1 view .LVU600
 1942              	.LBB111:
 353:fltk-1.3.4-1/jpeg/jchuff.c ****   register int put_bits;
 1943              		.loc 1 353 3 view .LVU601
 354:fltk-1.3.4-1/jpeg/jchuff.c **** 
 1944              		.loc 1 354 3 view .LVU602
 357:fltk-1.3.4-1/jpeg/jchuff.c ****     ERREXIT(entropy->cinfo, JERR_HUFF_MISSING_CODE);
 1945              		.loc 1 357 3 view .LVU603
 360:fltk-1.3.4-1/jpeg/jchuff.c ****     return;			/* do nothing if we're only getting stats */
 1946              		.loc 1 360 3 view .LVU604
 360:fltk-1.3.4-1/jpeg/jchuff.c ****     return;			/* do nothing if we're only getting stats */
 1947              		.loc 1 360 6 is_stmt 0 view .LVU605
 1948 0030 8B83C000 		movl	192(%rbx), %eax
 1948      0000
 1949 0036 85C0     		testl	%eax, %eax
 1950 0038 0F85BD00 		jne	.L196
 1950      0000
 1951              	.LVL195:
 1952              	.LBB112:
 1953              	.LBI112:
 349:fltk-1.3.4-1/jpeg/jchuff.c **** /* Emit some bits, unless we are in gather mode */
 1954              		.loc 1 349 1 is_stmt 1 view .LVU606
 1955              	.LBB113:
 364:fltk-1.3.4-1/jpeg/jchuff.c **** 
 1956              		.loc 1 364 3 view .LVU607
 367:fltk-1.3.4-1/jpeg/jchuff.c **** 
 1957              		.loc 1 367 35 is_stmt 0 view .LVU608
 1958 003e 448B6320 		movl	32(%rbx), %r12d
 364:fltk-1.3.4-1/jpeg/jchuff.c **** 
 1959              		.loc 1 364 14 view .LVU609
 1960 0042 0FB64500 		movzbl	0(%rbp), %eax
 369:fltk-1.3.4-1/jpeg/jchuff.c **** 
 1961              		.loc 1 369 21 view .LVU610
 1962 0046 B9180000 		movl	$24, %ecx
 1962      00
 367:fltk-1.3.4-1/jpeg/jchuff.c **** 
 1963              		.loc 1 367 12 view .LVU611
 1964 004b 458D7C24 		leal	1(%r12), %r15d
 1964      01
 364:fltk-1.3.4-1/jpeg/jchuff.c **** 
 1965              		.loc 1 364 14 view .LVU612
 1966 0050 83E001   		andl	$1, %eax
 1967              	.LVL196:
 367:fltk-1.3.4-1/jpeg/jchuff.c **** 
 1968              		.loc 1 367 3 is_stmt 1 view .LVU613
 369:fltk-1.3.4-1/jpeg/jchuff.c **** 
 1969              		.loc 1 369 3 view .LVU614
 369:fltk-1.3.4-1/jpeg/jchuff.c **** 
 1970              		.loc 1 369 21 is_stmt 0 view .LVU615
 1971 0053 4429F9   		subl	%r15d, %ecx
 369:fltk-1.3.4-1/jpeg/jchuff.c **** 
 1972              		.loc 1 369 14 view .LVU616
 1973 0056 48D3E0   		salq	%cl, %rax
 1974              	.LVL197:
 372:fltk-1.3.4-1/jpeg/jchuff.c **** 
 1975              		.loc 1 372 3 is_stmt 1 view .LVU617
 372:fltk-1.3.4-1/jpeg/jchuff.c **** 
 1976              		.loc 1 372 14 is_stmt 0 view .LVU618
 1977 0059 480B4318 		orq	24(%rbx), %rax
 1978              	.LVL198:
 372:fltk-1.3.4-1/jpeg/jchuff.c **** 
 1979              		.loc 1 372 14 view .LVU619
 1980 005d 4989C6   		movq	%rax, %r14
 1981              	.LVL199:
 374:fltk-1.3.4-1/jpeg/jchuff.c ****     int c = (int) ((put_buffer >> 16) & 0xFF);
 1982              		.loc 1 374 3 is_stmt 1 view .LVU620
 374:fltk-1.3.4-1/jpeg/jchuff.c ****     int c = (int) ((put_buffer >> 16) & 0xFF);
 1983              		.loc 1 374 9 view .LVU621
 1984 0060 4183FF07 		cmpl	$7, %r15d
 1985 0064 7F18     		jg	.L202
 1986 0066 E9880000 		jmp	.L197
 1986      00
 1987              	.LVL200:
 1988 006b 0F1F4400 		.p2align 4,,10
 1988      00
 1989              		.p2align 3
 1990              	.L200:
 1991              	.LBB114:
 379:fltk-1.3.4-1/jpeg/jchuff.c ****     }
 1992              		.loc 1 379 30 view .LVU622
 381:fltk-1.3.4-1/jpeg/jchuff.c ****     put_bits -= 8;
 1993              		.loc 1 381 5 view .LVU623
 382:fltk-1.3.4-1/jpeg/jchuff.c ****   }
 1994              		.loc 1 382 14 is_stmt 0 view .LVU624
 1995 0070 4183EF08 		subl	$8, %r15d
 1996              	.LVL201:
 381:fltk-1.3.4-1/jpeg/jchuff.c ****     put_bits -= 8;
 1997              		.loc 1 381 16 view .LVU625
 1998 0074 49C1E608 		salq	$8, %r14
 1999              	.LVL202:
 382:fltk-1.3.4-1/jpeg/jchuff.c ****   }
 2000              		.loc 1 382 5 is_stmt 1 view .LVU626
 382:fltk-1.3.4-1/jpeg/jchuff.c ****   }
 2001              		.loc 1 382 5 is_stmt 0 view .LVU627
 2002              	.LBE114:
 374:fltk-1.3.4-1/jpeg/jchuff.c ****     int c = (int) ((put_buffer >> 16) & 0xFF);
 2003              		.loc 1 374 9 is_stmt 1 view .LVU628
 2004 0078 4183FF07 		cmpl	$7, %r15d
 2005 007c 7E6A     		jle	.L213
 2006              	.LVL203:
 2007              	.L202:
 2008              	.LBB115:
 375:fltk-1.3.4-1/jpeg/jchuff.c **** 
 2009              		.loc 1 375 5 view .LVU629
 377:fltk-1.3.4-1/jpeg/jchuff.c ****     if (c == 0xFF) {		/* need to stuff a zero byte? */
 2010              		.loc 1 377 5 is_stmt 0 view .LVU630
 2011 007e 488B93C8 		movq	200(%rbx), %rdx
 2011      000000
 375:fltk-1.3.4-1/jpeg/jchuff.c **** 
 2012              		.loc 1 375 32 view .LVU631
 2013 0085 4C89F1   		movq	%r14, %rcx
 2014 0088 48C1F910 		sarq	$16, %rcx
 377:fltk-1.3.4-1/jpeg/jchuff.c ****     if (c == 0xFF) {		/* need to stuff a zero byte? */
 2015              		.loc 1 377 5 view .LVU632
 2016 008c 488D7A01 		leaq	1(%rdx), %rdi
 375:fltk-1.3.4-1/jpeg/jchuff.c **** 
 2017              		.loc 1 375 9 view .LVU633
 2018 0090 440FB6E9 		movzbl	%cl, %r13d
 2019              	.LVL204:
 377:fltk-1.3.4-1/jpeg/jchuff.c ****     if (c == 0xFF) {		/* need to stuff a zero byte? */
 2020              		.loc 1 377 5 is_stmt 1 view .LVU634
 2021 0094 4889BBC8 		movq	%rdi, 200(%rbx)
 2021      000000
 2022 009b 880A     		movb	%cl, (%rdx)
 377:fltk-1.3.4-1/jpeg/jchuff.c ****     if (c == 0xFF) {		/* need to stuff a zero byte? */
 2023              		.loc 1 377 5 view .LVU635
 2024 009d 4883ABD0 		subq	$1, 208(%rbx)
 2024      00000001 
 2025 00a5 7479     		je	.L214
 2026              	.L198:
 377:fltk-1.3.4-1/jpeg/jchuff.c ****     if (c == 0xFF) {		/* need to stuff a zero byte? */
 2027              		.loc 1 377 28 view .LVU636
 378:fltk-1.3.4-1/jpeg/jchuff.c ****       emit_byte_e(entropy, 0);
 2028              		.loc 1 378 5 view .LVU637
 378:fltk-1.3.4-1/jpeg/jchuff.c ****       emit_byte_e(entropy, 0);
 2029              		.loc 1 378 8 is_stmt 0 view .LVU638
 2030 00a7 4181FDFF 		cmpl	$255, %r13d
 2030      000000
 2031 00ae 75C0     		jne	.L200
 379:fltk-1.3.4-1/jpeg/jchuff.c ****     }
 2032              		.loc 1 379 7 is_stmt 1 view .LVU639
 2033 00b0 488B93C8 		movq	200(%rbx), %rdx
 2033      000000
 2034 00b7 488D4A01 		leaq	1(%rdx), %rcx
 2035 00bb 48898BC8 		movq	%rcx, 200(%rbx)
 2035      000000
 2036 00c2 C60200   		movb	$0, (%rdx)
 379:fltk-1.3.4-1/jpeg/jchuff.c ****     }
 2037              		.loc 1 379 7 view .LVU640
 2038 00c5 4883ABD0 		subq	$1, 208(%rbx)
 2038      00000001 
 2039 00cd 75A1     		jne	.L200
 379:fltk-1.3.4-1/jpeg/jchuff.c ****     }
 2040              		.loc 1 379 7 view .LVU641
 2041 00cf 4889DF   		movq	%rbx, %rdi
 382:fltk-1.3.4-1/jpeg/jchuff.c ****   }
 2042              		.loc 1 382 14 is_stmt 0 view .LVU642
 2043 00d2 4183EF08 		subl	$8, %r15d
 2044              	.LVL205:
 381:fltk-1.3.4-1/jpeg/jchuff.c ****     put_bits -= 8;
 2045              		.loc 1 381 16 view .LVU643
 2046 00d6 49C1E608 		salq	$8, %r14
 2047              	.LVL206:
 379:fltk-1.3.4-1/jpeg/jchuff.c ****     }
 2048              		.loc 1 379 7 view .LVU644
 2049 00da E8000000 		call	dump_buffer_e
 2049      00
 2050              	.LVL207:
 379:fltk-1.3.4-1/jpeg/jchuff.c ****     }
 2051              		.loc 1 379 30 is_stmt 1 view .LVU645
 381:fltk-1.3.4-1/jpeg/jchuff.c ****     put_bits -= 8;
 2052              		.loc 1 381 5 view .LVU646
 382:fltk-1.3.4-1/jpeg/jchuff.c ****   }
 2053              		.loc 1 382 5 view .LVU647
 382:fltk-1.3.4-1/jpeg/jchuff.c ****   }
 2054              		.loc 1 382 5 is_stmt 0 view .LVU648
 2055              	.LBE115:
 374:fltk-1.3.4-1/jpeg/jchuff.c ****     int c = (int) ((put_buffer >> 16) & 0xFF);
 2056              		.loc 1 374 9 is_stmt 1 view .LVU649
 2057 00df 4183FF07 		cmpl	$7, %r15d
 2058 00e3 7F99     		jg	.L202
 2059              		.p2align 4,,10
 2060 00e5 0F1F00   		.p2align 3
 2061              	.L213:
 374:fltk-1.3.4-1/jpeg/jchuff.c ****     int c = (int) ((put_buffer >> 16) & 0xFF);
 2062              		.loc 1 374 9 is_stmt 0 view .LVU650
 2063 00e8 418D7424 		leal	-7(%r12), %esi
 2063      F9
 2064 00ed 83E607   		andl	$7, %esi
 2065 00f0 4189F7   		movl	%esi, %r15d
 2066              	.LVL208:
 2067              	.L197:
 385:fltk-1.3.4-1/jpeg/jchuff.c ****   entropy->saved.put_bits = put_bits;
 2068              		.loc 1 385 3 is_stmt 1 view .LVU651
 385:fltk-1.3.4-1/jpeg/jchuff.c ****   entropy->saved.put_bits = put_bits;
 2069              		.loc 1 385 29 is_stmt 0 view .LVU652
 2070 00f3 4C897318 		movq	%r14, 24(%rbx)
 386:fltk-1.3.4-1/jpeg/jchuff.c **** }
 2071              		.loc 1 386 3 is_stmt 1 view .LVU653
 386:fltk-1.3.4-1/jpeg/jchuff.c **** }
 2072              		.loc 1 386 27 is_stmt 0 view .LVU654
 2073 00f7 44897B20 		movl	%r15d, 32(%rbx)
 2074              	.LVL209:
 2075              	.L196:
 386:fltk-1.3.4-1/jpeg/jchuff.c **** }
 2076              		.loc 1 386 27 view .LVU655
 2077              	.LBE113:
 2078              	.LBE112:
 2079              	.LBE111:
 2080              	.LBE110:
 453:fltk-1.3.4-1/jpeg/jchuff.c ****     nbits--;
 2081              		.loc 1 453 5 is_stmt 1 view .LVU656
 453:fltk-1.3.4-1/jpeg/jchuff.c ****     nbits--;
 2082              		.loc 1 453 13 is_stmt 0 view .LVU657
 2083 00fb 4883C501 		addq	$1, %rbp
 2084              	.LVL210:
 454:fltk-1.3.4-1/jpeg/jchuff.c ****   }
 2085              		.loc 1 454 5 is_stmt 1 view .LVU658
 451:fltk-1.3.4-1/jpeg/jchuff.c ****     emit_bits_e(entropy, (unsigned int) (*bufstart), 1);
 2086              		.loc 1 451 9 view .LVU659
 2087 00ff 483B6C24 		cmpq	8(%rsp), %rbp
 2087      08
 2088 0104 0F8526FF 		jne	.L203
 2088      FFFF
 456:fltk-1.3.4-1/jpeg/jchuff.c **** 
 2089              		.loc 1 456 1 is_stmt 0 view .LVU660
 2090 010a 4883C418 		addq	$24, %rsp
 2091              		.cfi_remember_state
 2092              		.cfi_def_cfa_offset 56
 2093 010e 5B       		popq	%rbx
 2094              		.cfi_def_cfa_offset 48
 2095              	.LVL211:
 456:fltk-1.3.4-1/jpeg/jchuff.c **** 
 2096              		.loc 1 456 1 view .LVU661
 2097 010f 5D       		popq	%rbp
 2098              		.cfi_def_cfa_offset 40
 2099              	.LVL212:
 456:fltk-1.3.4-1/jpeg/jchuff.c **** 
 2100              		.loc 1 456 1 view .LVU662
 2101 0110 415C     		popq	%r12
 2102              		.cfi_def_cfa_offset 32
 2103 0112 415D     		popq	%r13
 2104              		.cfi_def_cfa_offset 24
 2105 0114 415E     		popq	%r14
 2106              		.cfi_def_cfa_offset 16
 2107 0116 415F     		popq	%r15
 2108              		.cfi_def_cfa_offset 8
 2109 0118 C3       		ret
 2110              	.LVL213:
 2111 0119 0F1F8000 		.p2align 4,,10
 2111      000000
 2112              		.p2align 3
 2113              	.L214:
 2114              		.cfi_restore_state
 2115              	.LBB120:
 2116              	.LBB119:
 2117              	.LBB118:
 2118              	.LBB117:
 2119              	.LBB116:
 377:fltk-1.3.4-1/jpeg/jchuff.c ****     if (c == 0xFF) {		/* need to stuff a zero byte? */
 2120              		.loc 1 377 5 is_stmt 1 view .LVU663
 2121 0120 4889DF   		movq	%rbx, %rdi
 2122 0123 E8000000 		call	dump_buffer_e
 2122      00
 2123              	.LVL214:
 2124 0128 E97AFFFF 		jmp	.L198
 2124      FF
 2125              	.LVL215:
 2126 012d 0F1F00   		.p2align 4,,10
 2127              		.p2align 3
 2128              	.L210:
 2129              		.cfi_def_cfa_offset 8
 2130              		.cfi_restore 3
 2131              		.cfi_restore 6
 2132              		.cfi_restore 12
 2133              		.cfi_restore 13
 2134              		.cfi_restore 14
 2135              		.cfi_restore 15
 377:fltk-1.3.4-1/jpeg/jchuff.c ****     if (c == 0xFF) {		/* need to stuff a zero byte? */
 2136              		.loc 1 377 5 is_stmt 0 view .LVU664
 2137 0130 C3       		ret
 2138              	.LBE116:
 2139              	.LBE117:
 2140              	.LBE118:
 2141              	.LBE119:
 2142              	.LBE120:
 2143              		.cfi_endproc
 2144              	.LFE79:
 2146              		.section	.text.emit_eobrun,"ax",@progbits
 2147              		.p2align 4
 2149              	emit_eobrun:
 2150              	.LVL216:
 2151              	.LFB61:
 465:fltk-1.3.4-1/jpeg/jchuff.c ****   register int temp, nbits;
 2152              		.loc 1 465 1 is_stmt 1 view -0
 2153              		.cfi_startproc
 466:fltk-1.3.4-1/jpeg/jchuff.c **** 
 2154              		.loc 1 466 3 view .LVU666
 468:fltk-1.3.4-1/jpeg/jchuff.c ****     temp = entropy->EOBRUN;
 2155              		.loc 1 468 3 view .LVU667
 465:fltk-1.3.4-1/jpeg/jchuff.c ****   register int temp, nbits;
 2156              		.loc 1 465 1 is_stmt 0 view .LVU668
 2157 0000 4157     		pushq	%r15
 2158              		.cfi_def_cfa_offset 16
 2159              		.cfi_offset 15, -16
 2160 0002 4156     		pushq	%r14
 2161              		.cfi_def_cfa_offset 24
 2162              		.cfi_offset 14, -24
 2163 0004 4155     		pushq	%r13
 2164              		.cfi_def_cfa_offset 32
 2165              		.cfi_offset 13, -32
 2166 0006 4154     		pushq	%r12
 2167              		.cfi_def_cfa_offset 40
 2168              		.cfi_offset 12, -40
 2169 0008 55       		pushq	%rbp
 2170              		.cfi_def_cfa_offset 48
 2171              		.cfi_offset 6, -48
 2172 0009 53       		pushq	%rbx
 2173              		.cfi_def_cfa_offset 56
 2174              		.cfi_offset 3, -56
 2175 000a 4883EC08 		subq	$8, %rsp
 2176              		.cfi_def_cfa_offset 64
 468:fltk-1.3.4-1/jpeg/jchuff.c ****     temp = entropy->EOBRUN;
 2177              		.loc 1 468 14 view .LVU669
 2178 000e 8BAFE400 		movl	228(%rdi), %ebp
 2178      0000
 468:fltk-1.3.4-1/jpeg/jchuff.c ****     temp = entropy->EOBRUN;
 2179              		.loc 1 468 6 view .LVU670
 2180 0014 85ED     		testl	%ebp, %ebp
 2181 0016 0F84A200 		je	.L215
 2181      0000
 470:fltk-1.3.4-1/jpeg/jchuff.c ****     while ((temp >>= 1))
 2182              		.loc 1 470 11 view .LVU671
 2183 001c 4531E4   		xorl	%r12d, %r12d
 471:fltk-1.3.4-1/jpeg/jchuff.c ****       nbits++;
 2184              		.loc 1 471 11 view .LVU672
 2185 001f D1FD     		sarl	%ebp
 2186 0021 4889FB   		movq	%rdi, %rbx
 469:fltk-1.3.4-1/jpeg/jchuff.c ****     nbits = 0;
 2187              		.loc 1 469 5 is_stmt 1 view .LVU673
 470:fltk-1.3.4-1/jpeg/jchuff.c ****     while ((temp >>= 1))
 2188              		.loc 1 470 5 view .LVU674
 2189              	.LVL217:
 471:fltk-1.3.4-1/jpeg/jchuff.c ****       nbits++;
 2190              		.loc 1 471 5 view .LVU675
 471:fltk-1.3.4-1/jpeg/jchuff.c ****       nbits++;
 2191              		.loc 1 471 11 view .LVU676
 2192 0024 743B     		je	.L217
 2193              	.LVL218:
 2194 0026 662E0F1F 		.p2align 4,,10
 2194      84000000 
 2194      0000
 2195              		.p2align 3
 2196              	.L218:
 472:fltk-1.3.4-1/jpeg/jchuff.c ****     /* safety check: shouldn't happen given limited correction-bit buffer */
 2197              		.loc 1 472 7 view .LVU677
 472:fltk-1.3.4-1/jpeg/jchuff.c ****     /* safety check: shouldn't happen given limited correction-bit buffer */
 2198              		.loc 1 472 12 is_stmt 0 view .LVU678
 2199 0030 4183C401 		addl	$1, %r12d
 2200              	.LVL219:
 471:fltk-1.3.4-1/jpeg/jchuff.c ****       nbits++;
 2201              		.loc 1 471 11 is_stmt 1 view .LVU679
 471:fltk-1.3.4-1/jpeg/jchuff.c ****       nbits++;
 2202              		.loc 1 471 11 is_stmt 0 view .LVU680
 2203 0034 D1FD     		sarl	%ebp
 2204              	.LVL220:
 471:fltk-1.3.4-1/jpeg/jchuff.c ****       nbits++;
 2205              		.loc 1 471 11 view .LVU681
 2206 0036 75F8     		jne	.L218
 474:fltk-1.3.4-1/jpeg/jchuff.c ****       ERREXIT(entropy->cinfo, JERR_HUFF_MISSING_CODE);
 2207              		.loc 1 474 5 is_stmt 1 view .LVU682
 2208 0038 4489E5   		movl	%r12d, %ebp
 2209              	.LVL221:
 474:fltk-1.3.4-1/jpeg/jchuff.c ****       ERREXIT(entropy->cinfo, JERR_HUFF_MISSING_CODE);
 2210              		.loc 1 474 5 is_stmt 0 view .LVU683
 2211 003b C1E504   		sall	$4, %ebp
 474:fltk-1.3.4-1/jpeg/jchuff.c ****       ERREXIT(entropy->cinfo, JERR_HUFF_MISSING_CODE);
 2212              		.loc 1 474 8 view .LVU684
 2213 003e 4183FC0E 		cmpl	$14, %r12d
 2214 0042 7E1D     		jle	.L217
 475:fltk-1.3.4-1/jpeg/jchuff.c **** 
 2215              		.loc 1 475 7 is_stmt 1 view .LVU685
 2216 0044 488B83D8 		movq	216(%rbx), %rax
 2216      000000
 2217 004b 488B00   		movq	(%rax), %rax
 2218 004e C7402829 		movl	$41, 40(%rax)
 2218      000000
 2219 0055 488BBBD8 		movq	216(%rbx), %rdi
 2219      000000
 2220              	.LVL222:
 475:fltk-1.3.4-1/jpeg/jchuff.c **** 
 2221              		.loc 1 475 7 is_stmt 0 view .LVU686
 2222 005c 488B07   		movq	(%rdi), %rax
 2223 005f FF10     		call	*(%rax)
 2224              	.LVL223:
 2225              	.L217:
 477:fltk-1.3.4-1/jpeg/jchuff.c ****     if (nbits)
 2226              		.loc 1 477 5 is_stmt 1 view .LVU687
 2227              	.LBB140:
 2228              	.LBB141:
 431:fltk-1.3.4-1/jpeg/jchuff.c ****     entropy->ac_count_ptrs[tbl_no][symbol]++;
 2229              		.loc 1 431 6 is_stmt 0 view .LVU688
 2230 0061 8B93C000 		movl	192(%rbx), %edx
 2230      0000
 2231              	.LBE141:
 2232              	.LBE140:
 477:fltk-1.3.4-1/jpeg/jchuff.c ****     if (nbits)
 2233              		.loc 1 477 5 view .LVU689
 2234 0067 486383E0 		movslq	224(%rbx), %rax
 2234      000000
 2235              	.LVL224:
 2236              	.LBB157:
 2237              	.LBI140:
 429:fltk-1.3.4-1/jpeg/jchuff.c **** {
 2238              		.loc 1 429 1 is_stmt 1 view .LVU690
 2239              	.LBB154:
 431:fltk-1.3.4-1/jpeg/jchuff.c ****     entropy->ac_count_ptrs[tbl_no][symbol]++;
 2240              		.loc 1 431 3 view .LVU691
 431:fltk-1.3.4-1/jpeg/jchuff.c ****     entropy->ac_count_ptrs[tbl_no][symbol]++;
 2241              		.loc 1 431 6 is_stmt 0 view .LVU692
 2242 006e 85D2     		testl	%edx, %edx
 2243 0070 745E     		je	.L219
 432:fltk-1.3.4-1/jpeg/jchuff.c ****   else {
 2244              		.loc 1 432 5 is_stmt 1 view .LVU693
 432:fltk-1.3.4-1/jpeg/jchuff.c ****   else {
 2245              		.loc 1 432 35 is_stmt 0 view .LVU694
 2246 0072 488B84C3 		movq	160(%rbx,%rax,8), %rax
 2246      A0000000 
 2247              	.LVL225:
 432:fltk-1.3.4-1/jpeg/jchuff.c ****   else {
 2248              		.loc 1 432 35 view .LVU695
 2249 007a 4863ED   		movslq	%ebp, %rbp
 432:fltk-1.3.4-1/jpeg/jchuff.c ****   else {
 2250              		.loc 1 432 43 view .LVU696
 2251 007d 488304E8 		addq	$1, (%rax,%rbp,8)
 2251      01
 2252              	.LVL226:
 2253              	.L220:
 432:fltk-1.3.4-1/jpeg/jchuff.c ****   else {
 2254              		.loc 1 432 43 view .LVU697
 2255              	.LBE154:
 2256              	.LBE157:
 478:fltk-1.3.4-1/jpeg/jchuff.c ****       emit_bits_e(entropy, entropy->EOBRUN, nbits);
 2257              		.loc 1 478 5 is_stmt 1 view .LVU698
 2258 0082 8B83C000 		movl	192(%rbx), %eax
 2258      0000
 478:fltk-1.3.4-1/jpeg/jchuff.c ****       emit_bits_e(entropy, entropy->EOBRUN, nbits);
 2259              		.loc 1 478 8 is_stmt 0 view .LVU699
 2260 0088 4585E4   		testl	%r12d, %r12d
 2261 008b 0F859700 		jne	.L253
 2261      0000
 2262              	.L230:
 2263              	.LVL227:
 2264              	.LBB158:
 2265              	.LBI158:
 464:fltk-1.3.4-1/jpeg/jchuff.c **** {
 2266              		.loc 1 464 1 is_stmt 1 view .LVU700
 2267              	.LBB159:
 481:fltk-1.3.4-1/jpeg/jchuff.c **** 
 2268              		.loc 1 481 5 view .LVU701
 481:fltk-1.3.4-1/jpeg/jchuff.c **** 
 2269              		.loc 1 481 21 is_stmt 0 view .LVU702
 2270 0091 C783E400 		movl	$0, 228(%rbx)
 2270      00000000 
 2270      0000
 484:fltk-1.3.4-1/jpeg/jchuff.c ****     entropy->BE = 0;
 2271              		.loc 1 484 5 is_stmt 1 view .LVU703
 2272              	.LVL228:
 2273              	.LBB160:
 2274              	.LBI160:
 445:fltk-1.3.4-1/jpeg/jchuff.c **** 		    unsigned int nbits)
 2275              		.loc 1 445 1 view .LVU704
 2276              	.LBB161:
 448:fltk-1.3.4-1/jpeg/jchuff.c ****     return;			/* no real work */
 2277              		.loc 1 448 3 view .LVU705
 448:fltk-1.3.4-1/jpeg/jchuff.c ****     return;			/* no real work */
 2278              		.loc 1 448 6 is_stmt 0 view .LVU706
 2279 009b 85C0     		testl	%eax, %eax
 2280 009d 7515     		jne	.L237
 2281              	.LVL229:
 2282              	.L232:
 448:fltk-1.3.4-1/jpeg/jchuff.c ****     return;			/* no real work */
 2283              		.loc 1 448 6 view .LVU707
 2284 009f 8B93E800 		movl	232(%rbx), %edx
 2284      0000
 2285 00a5 488BB3F0 		movq	240(%rbx), %rsi
 2285      000000
 2286 00ac 4889DF   		movq	%rbx, %rdi
 2287 00af E8000000 		call	emit_buffered_bits.part.0
 2287      00
 2288              	.LVL230:
 2289              	.L237:
 448:fltk-1.3.4-1/jpeg/jchuff.c ****     return;			/* no real work */
 2290              		.loc 1 448 6 view .LVU708
 2291              	.LBE161:
 2292              	.LBE160:
 485:fltk-1.3.4-1/jpeg/jchuff.c ****   }
 2293              		.loc 1 485 5 is_stmt 1 view .LVU709
 485:fltk-1.3.4-1/jpeg/jchuff.c ****   }
 2294              		.loc 1 485 17 is_stmt 0 view .LVU710
 2295 00b4 C783E800 		movl	$0, 232(%rbx)
 2295      00000000 
 2295      0000
 2296              	.LVL231:
 2297              	.L215:
 485:fltk-1.3.4-1/jpeg/jchuff.c ****   }
 2298              		.loc 1 485 17 view .LVU711
 2299              	.LBE159:
 2300              	.LBE158:
 487:fltk-1.3.4-1/jpeg/jchuff.c **** 
 2301              		.loc 1 487 1 view .LVU712
 2302 00be 4883C408 		addq	$8, %rsp
 2303              		.cfi_remember_state
 2304              		.cfi_def_cfa_offset 56
 2305 00c2 5B       		popq	%rbx
 2306              		.cfi_def_cfa_offset 48
 2307 00c3 5D       		popq	%rbp
 2308              		.cfi_def_cfa_offset 40
 2309 00c4 415C     		popq	%r12
