   1              		.file	"jcinit.c"
   2              		.text
   3              	.Ltext0:
   4              		.section	.text.jinit_compress_master,"ax",@progbits
   5              		.p2align 4
   6              		.globl	jinit_compress_master
   8              	jinit_compress_master:
   9              	.LVL0:
  10              	.LFB51:
  11              		.file 1 "fltk-1.3.4-1/jpeg/jcinit.c"
   1:fltk-1.3.4-1/jpeg/jcinit.c **** /*
   2:fltk-1.3.4-1/jpeg/jcinit.c ****  * jcinit.c
   3:fltk-1.3.4-1/jpeg/jcinit.c ****  *
   4:fltk-1.3.4-1/jpeg/jcinit.c ****  * Copyright (C) 1991-1997, Thomas G. Lane.
   5:fltk-1.3.4-1/jpeg/jcinit.c ****  * Modified 2003-2013 by Guido Vollbeding.
   6:fltk-1.3.4-1/jpeg/jcinit.c ****  * This file is part of the Independent JPEG Group's software.
   7:fltk-1.3.4-1/jpeg/jcinit.c ****  * For conditions of distribution and use, see the accompanying README file.
   8:fltk-1.3.4-1/jpeg/jcinit.c ****  *
   9:fltk-1.3.4-1/jpeg/jcinit.c ****  * This file contains initialization logic for the JPEG compressor.
  10:fltk-1.3.4-1/jpeg/jcinit.c ****  * This routine is in charge of selecting the modules to be executed and
  11:fltk-1.3.4-1/jpeg/jcinit.c ****  * making an initialization call to each one.
  12:fltk-1.3.4-1/jpeg/jcinit.c ****  *
  13:fltk-1.3.4-1/jpeg/jcinit.c ****  * Logically, this code belongs in jcmaster.c.  It's split out because
  14:fltk-1.3.4-1/jpeg/jcinit.c ****  * linking this routine implies linking the entire compression library.
  15:fltk-1.3.4-1/jpeg/jcinit.c ****  * For a transcoding-only application, we want to be able to use jcmaster.c
  16:fltk-1.3.4-1/jpeg/jcinit.c ****  * without linking in the whole library.
  17:fltk-1.3.4-1/jpeg/jcinit.c ****  */
  18:fltk-1.3.4-1/jpeg/jcinit.c **** 
  19:fltk-1.3.4-1/jpeg/jcinit.c **** #define JPEG_INTERNALS
  20:fltk-1.3.4-1/jpeg/jcinit.c **** #include "jinclude.h"
  21:fltk-1.3.4-1/jpeg/jcinit.c **** #include "jpeglib.h"
  22:fltk-1.3.4-1/jpeg/jcinit.c **** 
  23:fltk-1.3.4-1/jpeg/jcinit.c **** 
  24:fltk-1.3.4-1/jpeg/jcinit.c **** /*
  25:fltk-1.3.4-1/jpeg/jcinit.c ****  * Master selection of compression modules.
  26:fltk-1.3.4-1/jpeg/jcinit.c ****  * This is done once at the start of processing an image.  We determine
  27:fltk-1.3.4-1/jpeg/jcinit.c ****  * which modules will be used and give them appropriate initialization calls.
  28:fltk-1.3.4-1/jpeg/jcinit.c ****  */
  29:fltk-1.3.4-1/jpeg/jcinit.c **** 
  30:fltk-1.3.4-1/jpeg/jcinit.c **** GLOBAL(void)
  31:fltk-1.3.4-1/jpeg/jcinit.c **** jinit_compress_master (j_compress_ptr cinfo)
  32:fltk-1.3.4-1/jpeg/jcinit.c **** {
  12              		.loc 1 32 1 view -0
  13              		.cfi_startproc
  14              		.loc 1 32 1 is_stmt 0 view .LVU1
  15 0000 F30F1EFA 		endbr64
  33:fltk-1.3.4-1/jpeg/jcinit.c ****   long samplesperrow;
  16              		.loc 1 33 3 is_stmt 1 view .LVU2
  34:fltk-1.3.4-1/jpeg/jcinit.c ****   JDIMENSION jd_samplesperrow;
  17              		.loc 1 34 3 view .LVU3
  35:fltk-1.3.4-1/jpeg/jcinit.c **** 
  36:fltk-1.3.4-1/jpeg/jcinit.c ****   /* For now, precision must match compiled-in value... */
  37:fltk-1.3.4-1/jpeg/jcinit.c ****   if (cinfo->data_precision != BITS_IN_JSAMPLE)
  18              		.loc 1 37 3 view .LVU4
  32:fltk-1.3.4-1/jpeg/jcinit.c ****   long samplesperrow;
  19              		.loc 1 32 1 is_stmt 0 view .LVU5
  20 0004 55       		pushq	%rbp
  21              		.cfi_def_cfa_offset 16
  22              		.cfi_offset 6, -16
  23              		.loc 1 37 6 view .LVU6
  24 0005 837F5808 		cmpl	$8, 88(%rdi)
  32:fltk-1.3.4-1/jpeg/jcinit.c ****   long samplesperrow;
  25              		.loc 1 32 1 view .LVU7
  26 0009 4889FD   		movq	%rdi, %rbp
  27              		.loc 1 37 6 view .LVU8
  28 000c 7418     		je	.L2
  38:fltk-1.3.4-1/jpeg/jcinit.c ****     ERREXIT1(cinfo, JERR_BAD_PRECISION, cinfo->data_precision);
  29              		.loc 1 38 5 is_stmt 1 view .LVU9
  30 000e 488B07   		movq	(%rdi), %rax
  31 0011 C7402810 		movl	$16, 40(%rax)
  31      000000
  32 0018 488B07   		movq	(%rdi), %rax
  33 001b 8B5758   		movl	88(%rdi), %edx
  34 001e 89502C   		movl	%edx, 44(%rax)
  35 0021 488B07   		movq	(%rdi), %rax
  36 0024 FF10     		call	*(%rax)
  37              	.LVL1:
  38              	.L2:
  39:fltk-1.3.4-1/jpeg/jcinit.c **** 
  40:fltk-1.3.4-1/jpeg/jcinit.c ****   /* Sanity check on image dimensions */
  41:fltk-1.3.4-1/jpeg/jcinit.c ****   if (cinfo->image_height <= 0 || cinfo->image_width <= 0 ||
  39              		.loc 1 41 3 view .LVU10
  40              		.loc 1 41 6 is_stmt 0 view .LVU11
  41 0026 8B7534   		movl	52(%rbp), %esi
  42 0029 85F6     		testl	%esi, %esi
  43 002b 740B     		je	.L3
  44              		.loc 1 41 40 discriminator 1 view .LVU12
  45 002d 8B4530   		movl	48(%rbp), %eax
  46              		.loc 1 41 32 discriminator 1 view .LVU13
  47 0030 85C0     		testl	%eax, %eax
  48 0032 0F85C800 		jne	.L16
  48      0000
  49              	.L3:
  42:fltk-1.3.4-1/jpeg/jcinit.c ****       cinfo->input_components <= 0)
  43:fltk-1.3.4-1/jpeg/jcinit.c ****     ERREXIT(cinfo, JERR_EMPTY_IMAGE);
  50              		.loc 1 43 5 is_stmt 1 view .LVU14
  51 0038 488B4500 		movq	0(%rbp), %rax
  52 003c 4889EF   		movq	%rbp, %rdi
  53 003f C7402821 		movl	$33, 40(%rax)
  53      000000
  54 0046 488B4500 		movq	0(%rbp), %rax
  55 004a FF10     		call	*(%rax)
  56              	.LVL2:
  57 004c 8B4530   		movl	48(%rbp), %eax
  58 004f 48635538 		movslq	56(%rbp), %rdx
  59              	.L4:
  44:fltk-1.3.4-1/jpeg/jcinit.c **** 
  45:fltk-1.3.4-1/jpeg/jcinit.c ****   /* Width of an input scanline must be representable as JDIMENSION. */
  46:fltk-1.3.4-1/jpeg/jcinit.c ****   samplesperrow = (long) cinfo->image_width * (long) cinfo->input_components;
  60              		.loc 1 46 3 view .LVU15
  61              		.loc 1 46 17 is_stmt 0 view .LVU16
  62 0053 480FAFC2 		imulq	%rdx, %rax
  63              	.LVL3:
  47:fltk-1.3.4-1/jpeg/jcinit.c ****   jd_samplesperrow = (JDIMENSION) samplesperrow;
  64              		.loc 1 47 3 is_stmt 1 view .LVU17
  48:fltk-1.3.4-1/jpeg/jcinit.c ****   if ((long) jd_samplesperrow != samplesperrow)
  65              		.loc 1 48 3 view .LVU18
  66              		.loc 1 48 6 is_stmt 0 view .LVU19
  67 0057 89C2     		movl	%eax, %edx
  68 0059 4839D0   		cmpq	%rdx, %rax
  69 005c 7414     		je	.L5
  49:fltk-1.3.4-1/jpeg/jcinit.c ****     ERREXIT(cinfo, JERR_WIDTH_OVERFLOW);
  70              		.loc 1 49 5 is_stmt 1 view .LVU20
  71 005e 488B4500 		movq	0(%rbp), %rax
  72              	.LVL4:
  73              		.loc 1 49 5 is_stmt 0 view .LVU21
  74 0062 4889EF   		movq	%rbp, %rdi
  75 0065 C7402848 		movl	$72, 40(%rax)
  75      000000
  76 006c 488B4500 		movq	0(%rbp), %rax
  77 0070 FF10     		call	*(%rax)
  78              	.LVL5:
  79              	.L5:
  50:fltk-1.3.4-1/jpeg/jcinit.c **** 
  51:fltk-1.3.4-1/jpeg/jcinit.c ****   /* Initialize master control (includes parameter checking/processing) */
  52:fltk-1.3.4-1/jpeg/jcinit.c ****   jinit_c_master_control(cinfo, FALSE /* full compression */);
  80              		.loc 1 52 3 is_stmt 1 view .LVU22
  81 0072 31F6     		xorl	%esi, %esi
  82 0074 4889EF   		movq	%rbp, %rdi
  83 0077 E8000000 		call	jinit_c_master_control@PLT
  83      00
  84              	.LVL6:
  53:fltk-1.3.4-1/jpeg/jcinit.c **** 
  54:fltk-1.3.4-1/jpeg/jcinit.c ****   /* Preprocessing */
  55:fltk-1.3.4-1/jpeg/jcinit.c ****   if (! cinfo->raw_data_in) {
  85              		.loc 1 55 3 view .LVU23
  86              		.loc 1 55 6 is_stmt 0 view .LVU24
  87 007c 8B8D2001 		movl	288(%rbp), %ecx
  87      0000
  88 0082 85C9     		testl	%ecx, %ecx
  89 0084 0F848E00 		je	.L17
  89      0000
  90              	.L6:
  56:fltk-1.3.4-1/jpeg/jcinit.c ****     jinit_color_converter(cinfo);
  57:fltk-1.3.4-1/jpeg/jcinit.c ****     jinit_downsampler(cinfo);
  58:fltk-1.3.4-1/jpeg/jcinit.c ****     jinit_c_prep_controller(cinfo, FALSE /* never need full buffer here */);
  59:fltk-1.3.4-1/jpeg/jcinit.c ****   }
  60:fltk-1.3.4-1/jpeg/jcinit.c ****   /* Forward DCT */
  61:fltk-1.3.4-1/jpeg/jcinit.c ****   jinit_forward_dct(cinfo);
  91              		.loc 1 61 3 is_stmt 1 view .LVU25
  92 008a 4889EF   		movq	%rbp, %rdi
  93 008d E8000000 		call	jinit_forward_dct@PLT
  93      00
  94              	.LVL7:
  62:fltk-1.3.4-1/jpeg/jcinit.c ****   /* Entropy encoding: either Huffman or arithmetic coding. */
  63:fltk-1.3.4-1/jpeg/jcinit.c ****   if (cinfo->arith_code)
  95              		.loc 1 63 3 view .LVU26
  96              		.loc 1 63 6 is_stmt 0 view .LVU27
  97 0092 8B952401 		movl	292(%rbp), %edx
  97      0000
  64:fltk-1.3.4-1/jpeg/jcinit.c ****     jinit_arith_encoder(cinfo);
  98              		.loc 1 64 5 view .LVU28
  99 0098 4889EF   		movq	%rbp, %rdi
  63:fltk-1.3.4-1/jpeg/jcinit.c ****     jinit_arith_encoder(cinfo);
 100              		.loc 1 63 6 view .LVU29
 101 009b 85D2     		testl	%edx, %edx
 102 009d 7459     		je	.L7
 103              	.LVL8:
 104              		.loc 1 64 5 is_stmt 1 view .LVU30
 105 009f E8000000 		call	jinit_arith_encoder@PLT
 105      00
 106              	.LVL9:
 107              	.L8:
  65:fltk-1.3.4-1/jpeg/jcinit.c ****   else {
  66:fltk-1.3.4-1/jpeg/jcinit.c ****     jinit_huff_encoder(cinfo);
  67:fltk-1.3.4-1/jpeg/jcinit.c ****   }
  68:fltk-1.3.4-1/jpeg/jcinit.c **** 
  69:fltk-1.3.4-1/jpeg/jcinit.c ****   /* Need a full-image coefficient buffer in any multi-pass mode. */
  70:fltk-1.3.4-1/jpeg/jcinit.c ****   jinit_c_coef_controller(cinfo,
 108              		.loc 1 70 3 view .LVU31
  71:fltk-1.3.4-1/jpeg/jcinit.c **** 		(boolean) (cinfo->num_scans > 1 || cinfo->optimize_coding));
 109              		.loc 1 71 35 is_stmt 0 view .LVU32
 110 00a4 83BD1001 		cmpl	$1, 272(%rbp)
 110      000001
 111 00ab BE010000 		movl	$1, %esi
 111      00
 112 00b0 7F0E     		jg	.L9
 113              		.loc 1 71 35 discriminator 2 view .LVU33
 114 00b2 8B852801 		movl	296(%rbp), %eax
 114      0000
 115 00b8 31F6     		xorl	%esi, %esi
 116 00ba 85C0     		testl	%eax, %eax
 117 00bc 400F95C6 		setne	%sil
 118              	.L9:
  70:fltk-1.3.4-1/jpeg/jcinit.c **** 		(boolean) (cinfo->num_scans > 1 || cinfo->optimize_coding));
 119              		.loc 1 70 3 view .LVU34
 120 00c0 4889EF   		movq	%rbp, %rdi
 121 00c3 E8000000 		call	jinit_c_coef_controller@PLT
 121      00
 122              	.LVL10:
  72:fltk-1.3.4-1/jpeg/jcinit.c ****   jinit_c_main_controller(cinfo, FALSE /* never need full buffer here */);
 123              		.loc 1 72 3 is_stmt 1 view .LVU35
 124 00c8 31F6     		xorl	%esi, %esi
 125 00ca 4889EF   		movq	%rbp, %rdi
 126 00cd E8000000 		call	jinit_c_main_controller@PLT
 126      00
 127              	.LVL11:
  73:fltk-1.3.4-1/jpeg/jcinit.c **** 
  74:fltk-1.3.4-1/jpeg/jcinit.c ****   jinit_marker_writer(cinfo);
 128              		.loc 1 74 3 view .LVU36
 129 00d2 4889EF   		movq	%rbp, %rdi
 130 00d5 E8000000 		call	jinit_marker_writer@PLT
 130      00
 131              	.LVL12:
  75:fltk-1.3.4-1/jpeg/jcinit.c **** 
  76:fltk-1.3.4-1/jpeg/jcinit.c ****   /* We can now tell the memory manager to allocate virtual arrays. */
  77:fltk-1.3.4-1/jpeg/jcinit.c ****   (*cinfo->mem->realize_virt_arrays) ((j_common_ptr) cinfo);
 132              		.loc 1 77 3 view .LVU37
 133              		.loc 1 77 4 is_stmt 0 view .LVU38
 134 00da 488B4508 		movq	8(%rbp), %rax
 135 00de 4889EF   		movq	%rbp, %rdi
 136 00e1 FF5030   		call	*48(%rax)
 137              	.LVL13:
  78:fltk-1.3.4-1/jpeg/jcinit.c **** 
  79:fltk-1.3.4-1/jpeg/jcinit.c ****   /* Write the datastream header (SOI) immediately.
  80:fltk-1.3.4-1/jpeg/jcinit.c ****    * Frame and scan headers are postponed till later.
  81:fltk-1.3.4-1/jpeg/jcinit.c ****    * This lets application insert special markers after the SOI.
  82:fltk-1.3.4-1/jpeg/jcinit.c ****    */
  83:fltk-1.3.4-1/jpeg/jcinit.c ****   (*cinfo->marker->write_file_header) (cinfo);
 138              		.loc 1 83 3 is_stmt 1 view .LVU39
 139              		.loc 1 83 4 is_stmt 0 view .LVU40
 140 00e4 488B8510 		movq	528(%rbp), %rax
 140      020000
 141 00eb 4889EF   		movq	%rbp, %rdi
  84:fltk-1.3.4-1/jpeg/jcinit.c **** }
 142              		.loc 1 84 1 view .LVU41
 143 00ee 5D       		popq	%rbp
 144              		.cfi_remember_state
 145              		.cfi_def_cfa_offset 8
 146              	.LVL14:
  83:fltk-1.3.4-1/jpeg/jcinit.c **** }
 147              		.loc 1 83 4 view .LVU42
 148 00ef 488B00   		movq	(%rax), %rax
 149 00f2 FFE0     		jmp	*%rax
 150              	.LVL15:
 151              		.p2align 4,,10
 152 00f4 0F1F4000 		.p2align 3
 153              	.L7:
 154              		.cfi_restore_state
  66:fltk-1.3.4-1/jpeg/jcinit.c ****   }
 155              		.loc 1 66 5 is_stmt 1 view .LVU43
 156 00f8 E8000000 		call	jinit_huff_encoder@PLT
 156      00
 157              	.LVL16:
  66:fltk-1.3.4-1/jpeg/jcinit.c ****   }
 158              		.loc 1 66 5 is_stmt 0 view .LVU44
 159 00fd EBA5     		jmp	.L8
 160 00ff 90       		.p2align 4,,10
 161              		.p2align 3
 162              	.L16:
  42:fltk-1.3.4-1/jpeg/jcinit.c ****     ERREXIT(cinfo, JERR_EMPTY_IMAGE);
 163              		.loc 1 42 12 discriminator 2 view .LVU45
 164 0100 48635538 		movslq	56(%rbp), %rdx
  41:fltk-1.3.4-1/jpeg/jcinit.c ****       cinfo->input_components <= 0)
 165              		.loc 1 41 59 discriminator 2 view .LVU46
 166 0104 85D2     		testl	%edx, %edx
 167 0106 0F8F47FF 		jg	.L4
 167      FFFF
 168 010c E927FFFF 		jmp	.L3
 168      FF
 169              		.p2align 4,,10
 170 0111 0F1F8000 		.p2align 3
 170      000000
 171              	.L17:
  56:fltk-1.3.4-1/jpeg/jcinit.c ****     jinit_downsampler(cinfo);
 172              		.loc 1 56 5 is_stmt 1 view .LVU47
 173 0118 4889EF   		movq	%rbp, %rdi
 174 011b E8000000 		call	jinit_color_converter@PLT
 174      00
 175              	.LVL17:
  57:fltk-1.3.4-1/jpeg/jcinit.c ****     jinit_c_prep_controller(cinfo, FALSE /* never need full buffer here */);
 176              		.loc 1 57 5 view .LVU48
 177 0120 4889EF   		movq	%rbp, %rdi
 178 0123 E8000000 		call	jinit_downsampler@PLT
 178      00
 179              	.LVL18:
  58:fltk-1.3.4-1/jpeg/jcinit.c ****   }
 180              		.loc 1 58 5 view .LVU49
 181 0128 31F6     		xorl	%esi, %esi
 182 012a 4889EF   		movq	%rbp, %rdi
 183 012d E8000000 		call	jinit_c_prep_controller@PLT
 183      00
 184              	.LVL19:
 185 0132 E953FFFF 		jmp	.L6
 185      FF
 186              		.cfi_endproc
 187              	.LFE51:
 189              		.text
 190              	.Letext0:
 191              		.file 2 "/usr/lib/gcc/x86_64-linux-gnu/9/include/stddef.h"
 192              		.file 3 "/usr/include/x86_64-linux-gnu/bits/types.h"
 193              		.file 4 "/usr/include/x86_64-linux-gnu/bits/types/struct_FILE.h"
 194              		.file 5 "/usr/include/x86_64-linux-gnu/bits/types/FILE.h"
 195              		.file 6 "/usr/include/stdio.h"
 196              		.file 7 "/usr/include/x86_64-linux-gnu/bits/sys_errlist.h"
 197              		.file 8 "fltk-1.3.4-1/jpeg/jmorecfg.h"
 198              		.file 9 "fltk-1.3.4-1/jpeg/jpeglib.h"
 199              		.file 10 "fltk-1.3.4-1/jpeg/jpegint.h"
 200              		.file 11 "fltk-1.3.4-1/jpeg/jerror.h"
 10883              		.section	.note.gnu.property,"a"
 10884              		.align 8
 10885 0000 04000000 		.long	 1f - 0f
 10886 0004 10000000 		.long	 4f - 1f
 10887 0008 05000000 		.long	 5
 10888              	0:
 10889 000c 474E5500 		.string	 "GNU"
 10890              	1:
 10891              		.align 8
 10892 0010 020000C0 		.long	 0xc0000002
 10893 0014 04000000 		.long	 3f - 2f
 10894              	2:
 10895 0018 03000000 		.long	 0x3
 10896              	3:
 10897 001c 00000000 		.align 8
 10898              	4:
DEFINED SYMBOLS
                            *ABS*:0000000000000000 jcinit.c
     /tmp/ccR1W2uD.s:8      .text.jinit_compress_master:0000000000000000 jinit_compress_master
                           .group:0000000000000000 wm4.0.a6b23a418548ac0bda5d8549c4a2ec91
                           .group:0000000000000000 wm4.stdcpredef.h.19.8dc41bed5d9037ff9622e015fb5f0ce3
                           .group:0000000000000000 wm4.jconfig.h.10.247fc3ff67998f3074970b1373c70333
                           .group:0000000000000000 wm4.features.h.19.5b5f5a19624a0527f479fdc52d54808f
                           .group:0000000000000000 wm4.cdefs.h.19.98d80eddbb3f64f4f30cd9aee9c5593c
                           .group:0000000000000000 wm4.wordsize.h.4.baf119258a1e53d8dba67ceac44ab6bc
                           .group:0000000000000000 wm4.cdefs.h.475.fb75d2e4416aa349344e6f45f683bf28
                           .group:0000000000000000 wm4.stubs64.h.10.6ce4c34010988db072c080326a6b6319
                           .group:0000000000000000 wm4.libcheaderstart.h.37.d9274df4cc0172452960ad9644fa5579
                           .group:0000000000000000 wm4.stdlib.h.28.2cffa49d94c5d85f4538f55f7b59771d
                           .group:0000000000000000 wm4.stddef.h.181.13772e73e5434e8cc4fafaaddad2b5da
                           .group:0000000000000000 wm4.waitflags.h.25.41934de4af99038521c2782f418699b1
                           .group:0000000000000000 wm4.waitstatus.h.28.93f167f49d64e2b9b99f98d1162a93bf
                           .group:0000000000000000 wm4.stdlib.h.43.9fa4f727a2f1cb8d2450a574c9195553
                           .group:0000000000000000 wm4.floatn.h.20.80c7cf8a8dfad237004b28d051d5afda
                           .group:0000000000000000 wm4.floatncommon.h.34.7e1840d7dfb19e9bdb51aeb077d76637
                           .group:0000000000000000 wm4.stdlib.h.71.2927e068ec678159b4f68ec2f089f7e6
                           .group:0000000000000000 wm4.types.h.109.56eb9ae966b255288cc544f18746a7ff
                           .group:0000000000000000 wm4.typesizes.h.24.2c64f817c0dc4b6fb2a2c619d717be26
                           .group:0000000000000000 wm4.time64.h.24.a8166ae916ec910dab0d8987098d42ee
                           .group:0000000000000000 wm4.types.h.40.18f72bab8242c2bb4c532a2aa95b5f00
                           .group:0000000000000000 wm4.stddef.h.231.0adce5c8c1fd8096aaff50981b3d1f0f
                           .group:0000000000000000 wm4.endian.h.20.efabd1018df5d7b4052c27dc6bdd5ce5
                           .group:0000000000000000 wm4.endianness.h.2.2c6a211f7909f3af5e9e9cfa3b6b63c8
                           .group:0000000000000000 wm4.endian.h.40.9e5d395adda2f4eb53ae69b69b664084
                           .group:0000000000000000 wm4.endian.h.27.4c4f94262c4eaee2982fe00ed1b4f173
                           .group:0000000000000000 wm4.byteswap.h.24.5363c019348146aada5aeadf51456576
                           .group:0000000000000000 wm4.endian.h.39.30a606dbd99b6c3df61c1f06dbdabd4e
                           .group:0000000000000000 wm4.select.h.28.eb2f3debdbcffd1442ebddaebc4fb6ff
                           .group:0000000000000000 wm4.__sigset_t.h.2.6b1ab6ff3d7b8fd9c0c42b0d80afbd80
                           .group:0000000000000000 wm4.select.h.44.887a4ff60aa97fcd9c1be017735e1675
                           .group:0000000000000000 wm4.select2.h.27.f95f2ab0ffee66dc1b6575014894b21a
                           .group:0000000000000000 wm4.types.h.186.489a4ed8f2d29cd358843490f54ddea5
                           .group:0000000000000000 wm4.pthreadtypesarch.h.25.6063cba99664c916e22d3a912bcc348a
                           .group:0000000000000000 wm4.struct_mutex.h.20.ed51f515172b9be99e450ba83eb5dd99
                           .group:0000000000000000 wm4.struct_rwlock.h.21.0254880f2904e3833fb8ae683e0f0330
                           .group:0000000000000000 wm4.alloca.h.19.edefa922a76c1cbaaf1e416903ba2d1c
                           .group:0000000000000000 wm4.alloca.h.29.156e12058824cc23d961c4d3b13031f6
                           .group:0000000000000000 wm4.stdio.h.24.5c1b97eef3c86b7a2549420f69f4f128
                           .group:0000000000000000 wm4.libcheaderstart.h.31.87b3c285aeba93fe355ad19123070832
                           .group:0000000000000000 wm4.stdio.h.31.e39a94e203ad4e1d978c0fc68ce016ee
                           .group:0000000000000000 wm4.stddef.h.231.8136eebbab3406dbf57a7ec475dd5d83
                           .group:0000000000000000 wm4.stdarg.h.34.3a23a216c0c293b3d2ea2e89281481e6
                           .group:0000000000000000 wm4.struct_FILE.h.19.0888ac70396abe1031c03d393554032f
                           .group:0000000000000000 wm4.stdio.h.53.139e45cf040c0964b2932c0c1bdaf6b2
                           .group:0000000000000000 wm4.stdio_lim.h.19.e4b00b560d878dcfbc6635b3406640c5
                           .group:0000000000000000 wm4.stdio.h.141.d7a290e19ca077c9e4aa7c43ede17a73
                           .group:0000000000000000 wm4.stdio.h.20.b0caa08e5723aa5941367be0e5d2ec59
                           .group:0000000000000000 wm4.stdio2.h.20.f45a0373b68e1296c4aa8cc09d66a9df
                           .group:0000000000000000 wm4.string.h.23.93403f89af7dba8212345449bb14b09d
                           .group:0000000000000000 wm4.string.h.31.e39a94e203ad4e1d978c0fc68ce016ee
                           .group:0000000000000000 wm4.strings.h.19.a259f126920b1bb5ef76bc62b3984a3c
                           .group:0000000000000000 wm4.jinclude.h.67.b19f941ec97c4845fa4609292c7e2db4
                           .group:0000000000000000 wm4.jmorecfg.h.33.3b4c5f9cc07b3737823b06caf24d5b05
                           .group:0000000000000000 wm4.jpeglib.h.40.4f111c27252a38df39328d65454e82f4
                           .group:0000000000000000 wm4.jpegint.h.26.5219ef5d4e4921371d38e77b6091fd20
                           .group:0000000000000000 wm4.jerror.h.25.1dbd8674e70ab5215bc0037320e5c2a2

UNDEFINED SYMBOLS
_GLOBAL_OFFSET_TABLE_
jinit_c_master_control
jinit_forward_dct
jinit_arith_encoder
jinit_c_coef_controller
jinit_c_main_controller
jinit_marker_writer
jinit_huff_encoder
jinit_color_converter
jinit_downsampler
jinit_c_prep_controller
