   1              		.file	"jcmarker.c"
   2              		.text
   3              	.Ltext0:
   4              		.section	.text.emit_byte,"ax",@progbits
   5              		.p2align 4
   7              	emit_byte:
   8              	.LVL0:
   9              	.LFB51:
  10              		.file 1 "fltk-1.3.4-1/jpeg/jcmarker.c"
   1:fltk-1.3.4-1/jpeg/jcmarker.c **** /*
   2:fltk-1.3.4-1/jpeg/jcmarker.c ****  * jcmarker.c
   3:fltk-1.3.4-1/jpeg/jcmarker.c ****  *
   4:fltk-1.3.4-1/jpeg/jcmarker.c ****  * Copyright (C) 1991-1998, Thomas G. Lane.
   5:fltk-1.3.4-1/jpeg/jcmarker.c ****  * Modified 2003-2013 by Guido Vollbeding.
   6:fltk-1.3.4-1/jpeg/jcmarker.c ****  * This file is part of the Independent JPEG Group's software.
   7:fltk-1.3.4-1/jpeg/jcmarker.c ****  * For conditions of distribution and use, see the accompanying README file.
   8:fltk-1.3.4-1/jpeg/jcmarker.c ****  *
   9:fltk-1.3.4-1/jpeg/jcmarker.c ****  * This file contains routines to write JPEG datastream markers.
  10:fltk-1.3.4-1/jpeg/jcmarker.c ****  */
  11:fltk-1.3.4-1/jpeg/jcmarker.c **** 
  12:fltk-1.3.4-1/jpeg/jcmarker.c **** #define JPEG_INTERNALS
  13:fltk-1.3.4-1/jpeg/jcmarker.c **** #include "jinclude.h"
  14:fltk-1.3.4-1/jpeg/jcmarker.c **** #include "jpeglib.h"
  15:fltk-1.3.4-1/jpeg/jcmarker.c **** 
  16:fltk-1.3.4-1/jpeg/jcmarker.c **** 
  17:fltk-1.3.4-1/jpeg/jcmarker.c **** typedef enum {			/* JPEG marker codes */
  18:fltk-1.3.4-1/jpeg/jcmarker.c ****   M_SOF0  = 0xc0,
  19:fltk-1.3.4-1/jpeg/jcmarker.c ****   M_SOF1  = 0xc1,
  20:fltk-1.3.4-1/jpeg/jcmarker.c ****   M_SOF2  = 0xc2,
  21:fltk-1.3.4-1/jpeg/jcmarker.c ****   M_SOF3  = 0xc3,
  22:fltk-1.3.4-1/jpeg/jcmarker.c **** 
  23:fltk-1.3.4-1/jpeg/jcmarker.c ****   M_SOF5  = 0xc5,
  24:fltk-1.3.4-1/jpeg/jcmarker.c ****   M_SOF6  = 0xc6,
  25:fltk-1.3.4-1/jpeg/jcmarker.c ****   M_SOF7  = 0xc7,
  26:fltk-1.3.4-1/jpeg/jcmarker.c **** 
  27:fltk-1.3.4-1/jpeg/jcmarker.c ****   M_JPG   = 0xc8,
  28:fltk-1.3.4-1/jpeg/jcmarker.c ****   M_SOF9  = 0xc9,
  29:fltk-1.3.4-1/jpeg/jcmarker.c ****   M_SOF10 = 0xca,
  30:fltk-1.3.4-1/jpeg/jcmarker.c ****   M_SOF11 = 0xcb,
  31:fltk-1.3.4-1/jpeg/jcmarker.c **** 
  32:fltk-1.3.4-1/jpeg/jcmarker.c ****   M_SOF13 = 0xcd,
  33:fltk-1.3.4-1/jpeg/jcmarker.c ****   M_SOF14 = 0xce,
  34:fltk-1.3.4-1/jpeg/jcmarker.c ****   M_SOF15 = 0xcf,
  35:fltk-1.3.4-1/jpeg/jcmarker.c **** 
  36:fltk-1.3.4-1/jpeg/jcmarker.c ****   M_DHT   = 0xc4,
  37:fltk-1.3.4-1/jpeg/jcmarker.c **** 
  38:fltk-1.3.4-1/jpeg/jcmarker.c ****   M_DAC   = 0xcc,
  39:fltk-1.3.4-1/jpeg/jcmarker.c **** 
  40:fltk-1.3.4-1/jpeg/jcmarker.c ****   M_RST0  = 0xd0,
  41:fltk-1.3.4-1/jpeg/jcmarker.c ****   M_RST1  = 0xd1,
  42:fltk-1.3.4-1/jpeg/jcmarker.c ****   M_RST2  = 0xd2,
  43:fltk-1.3.4-1/jpeg/jcmarker.c ****   M_RST3  = 0xd3,
  44:fltk-1.3.4-1/jpeg/jcmarker.c ****   M_RST4  = 0xd4,
  45:fltk-1.3.4-1/jpeg/jcmarker.c ****   M_RST5  = 0xd5,
  46:fltk-1.3.4-1/jpeg/jcmarker.c ****   M_RST6  = 0xd6,
  47:fltk-1.3.4-1/jpeg/jcmarker.c ****   M_RST7  = 0xd7,
  48:fltk-1.3.4-1/jpeg/jcmarker.c **** 
  49:fltk-1.3.4-1/jpeg/jcmarker.c ****   M_SOI   = 0xd8,
  50:fltk-1.3.4-1/jpeg/jcmarker.c ****   M_EOI   = 0xd9,
  51:fltk-1.3.4-1/jpeg/jcmarker.c ****   M_SOS   = 0xda,
  52:fltk-1.3.4-1/jpeg/jcmarker.c ****   M_DQT   = 0xdb,
  53:fltk-1.3.4-1/jpeg/jcmarker.c ****   M_DNL   = 0xdc,
  54:fltk-1.3.4-1/jpeg/jcmarker.c ****   M_DRI   = 0xdd,
  55:fltk-1.3.4-1/jpeg/jcmarker.c ****   M_DHP   = 0xde,
  56:fltk-1.3.4-1/jpeg/jcmarker.c ****   M_EXP   = 0xdf,
  57:fltk-1.3.4-1/jpeg/jcmarker.c **** 
  58:fltk-1.3.4-1/jpeg/jcmarker.c ****   M_APP0  = 0xe0,
  59:fltk-1.3.4-1/jpeg/jcmarker.c ****   M_APP1  = 0xe1,
  60:fltk-1.3.4-1/jpeg/jcmarker.c ****   M_APP2  = 0xe2,
  61:fltk-1.3.4-1/jpeg/jcmarker.c ****   M_APP3  = 0xe3,
  62:fltk-1.3.4-1/jpeg/jcmarker.c ****   M_APP4  = 0xe4,
  63:fltk-1.3.4-1/jpeg/jcmarker.c ****   M_APP5  = 0xe5,
  64:fltk-1.3.4-1/jpeg/jcmarker.c ****   M_APP6  = 0xe6,
  65:fltk-1.3.4-1/jpeg/jcmarker.c ****   M_APP7  = 0xe7,
  66:fltk-1.3.4-1/jpeg/jcmarker.c ****   M_APP8  = 0xe8,
  67:fltk-1.3.4-1/jpeg/jcmarker.c ****   M_APP9  = 0xe9,
  68:fltk-1.3.4-1/jpeg/jcmarker.c ****   M_APP10 = 0xea,
  69:fltk-1.3.4-1/jpeg/jcmarker.c ****   M_APP11 = 0xeb,
  70:fltk-1.3.4-1/jpeg/jcmarker.c ****   M_APP12 = 0xec,
  71:fltk-1.3.4-1/jpeg/jcmarker.c ****   M_APP13 = 0xed,
  72:fltk-1.3.4-1/jpeg/jcmarker.c ****   M_APP14 = 0xee,
  73:fltk-1.3.4-1/jpeg/jcmarker.c ****   M_APP15 = 0xef,
  74:fltk-1.3.4-1/jpeg/jcmarker.c **** 
  75:fltk-1.3.4-1/jpeg/jcmarker.c ****   M_JPG0  = 0xf0,
  76:fltk-1.3.4-1/jpeg/jcmarker.c ****   M_JPG8  = 0xf8,
  77:fltk-1.3.4-1/jpeg/jcmarker.c ****   M_JPG13 = 0xfd,
  78:fltk-1.3.4-1/jpeg/jcmarker.c ****   M_COM   = 0xfe,
  79:fltk-1.3.4-1/jpeg/jcmarker.c **** 
  80:fltk-1.3.4-1/jpeg/jcmarker.c ****   M_TEM   = 0x01,
  81:fltk-1.3.4-1/jpeg/jcmarker.c **** 
  82:fltk-1.3.4-1/jpeg/jcmarker.c ****   M_ERROR = 0x100
  83:fltk-1.3.4-1/jpeg/jcmarker.c **** } JPEG_MARKER;
  84:fltk-1.3.4-1/jpeg/jcmarker.c **** 
  85:fltk-1.3.4-1/jpeg/jcmarker.c **** 
  86:fltk-1.3.4-1/jpeg/jcmarker.c **** /* Private state */
  87:fltk-1.3.4-1/jpeg/jcmarker.c **** 
  88:fltk-1.3.4-1/jpeg/jcmarker.c **** typedef struct {
  89:fltk-1.3.4-1/jpeg/jcmarker.c ****   struct jpeg_marker_writer pub; /* public fields */
  90:fltk-1.3.4-1/jpeg/jcmarker.c **** 
  91:fltk-1.3.4-1/jpeg/jcmarker.c ****   unsigned int last_restart_interval; /* last DRI value emitted; 0 after SOI */
  92:fltk-1.3.4-1/jpeg/jcmarker.c **** } my_marker_writer;
  93:fltk-1.3.4-1/jpeg/jcmarker.c **** 
  94:fltk-1.3.4-1/jpeg/jcmarker.c **** typedef my_marker_writer * my_marker_ptr;
  95:fltk-1.3.4-1/jpeg/jcmarker.c **** 
  96:fltk-1.3.4-1/jpeg/jcmarker.c **** 
  97:fltk-1.3.4-1/jpeg/jcmarker.c **** /*
  98:fltk-1.3.4-1/jpeg/jcmarker.c ****  * Basic output routines.
  99:fltk-1.3.4-1/jpeg/jcmarker.c ****  *
 100:fltk-1.3.4-1/jpeg/jcmarker.c ****  * Note that we do not support suspension while writing a marker.
 101:fltk-1.3.4-1/jpeg/jcmarker.c ****  * Therefore, an application using suspension must ensure that there is
 102:fltk-1.3.4-1/jpeg/jcmarker.c ****  * enough buffer space for the initial markers (typ. 600-700 bytes) before
 103:fltk-1.3.4-1/jpeg/jcmarker.c ****  * calling jpeg_start_compress, and enough space to write the trailing EOI
 104:fltk-1.3.4-1/jpeg/jcmarker.c ****  * (a few bytes) before calling jpeg_finish_compress.  Multipass compression
 105:fltk-1.3.4-1/jpeg/jcmarker.c ****  * modes are not supported at all with suspension, so those two are the only
 106:fltk-1.3.4-1/jpeg/jcmarker.c ****  * points where markers will be written.
 107:fltk-1.3.4-1/jpeg/jcmarker.c ****  */
 108:fltk-1.3.4-1/jpeg/jcmarker.c **** 
 109:fltk-1.3.4-1/jpeg/jcmarker.c **** LOCAL(void)
 110:fltk-1.3.4-1/jpeg/jcmarker.c **** emit_byte (j_compress_ptr cinfo, int val)
 111:fltk-1.3.4-1/jpeg/jcmarker.c **** /* Emit a byte */
 112:fltk-1.3.4-1/jpeg/jcmarker.c **** {
  11              		.loc 1 112 1 view -0
  12              		.cfi_startproc
 113:fltk-1.3.4-1/jpeg/jcmarker.c ****   struct jpeg_destination_mgr * dest = cinfo->dest;
  13              		.loc 1 113 3 view .LVU1
  14              		.loc 1 113 33 is_stmt 0 view .LVU2
  15 0000 488B4728 		movq	40(%rdi), %rax
  16              	.LVL1:
 114:fltk-1.3.4-1/jpeg/jcmarker.c **** 
 115:fltk-1.3.4-1/jpeg/jcmarker.c ****   *(dest->next_output_byte)++ = (JOCTET) val;
  17              		.loc 1 115 3 is_stmt 1 view .LVU3
  18              		.loc 1 115 9 is_stmt 0 view .LVU4
  19 0004 488B10   		movq	(%rax), %rdx
  20              		.loc 1 115 28 view .LVU5
  21 0007 488D4A01 		leaq	1(%rdx), %rcx
  22 000b 488908   		movq	%rcx, (%rax)
  23              		.loc 1 115 33 view .LVU6
  24 000e 408832   		movb	%sil, (%rdx)
 116:fltk-1.3.4-1/jpeg/jcmarker.c ****   if (--dest->free_in_buffer == 0) {
  25              		.loc 1 116 3 is_stmt 1 view .LVU7
  26              		.loc 1 116 6 is_stmt 0 view .LVU8
  27 0011 48836808 		subq	$1, 8(%rax)
  27      01
  28 0016 7408     		je	.L10
  29 0018 C3       		ret
  30 0019 0F1F8000 		.p2align 4,,10
  30      000000
  31              		.p2align 3
  32              	.L10:
 112:fltk-1.3.4-1/jpeg/jcmarker.c ****   struct jpeg_destination_mgr * dest = cinfo->dest;
  33              		.loc 1 112 1 view .LVU9
  34 0020 55       		pushq	%rbp
  35              		.cfi_def_cfa_offset 16
  36              		.cfi_offset 6, -16
  37 0021 4889FD   		movq	%rdi, %rbp
 117:fltk-1.3.4-1/jpeg/jcmarker.c ****     if (! (*dest->empty_output_buffer) (cinfo))
  38              		.loc 1 117 5 is_stmt 1 view .LVU10
  39              		.loc 1 117 12 is_stmt 0 view .LVU11
  40 0024 FF5018   		call	*24(%rax)
  41              	.LVL2:
  42              		.loc 1 117 8 view .LVU12
  43 0027 85C0     		testl	%eax, %eax
  44 0029 751D     		jne	.L1
  45              	.LVL3:
  46              	.LBB65:
  47              	.LBI65:
 110:fltk-1.3.4-1/jpeg/jcmarker.c **** /* Emit a byte */
  48              		.loc 1 110 1 is_stmt 1 view .LVU13
  49              	.LBB66:
 118:fltk-1.3.4-1/jpeg/jcmarker.c ****       ERREXIT(cinfo, JERR_CANT_SUSPEND);
  50              		.loc 1 118 7 view .LVU14
  51 002b 488B4500 		movq	0(%rbp), %rax
  52 002f 4889EF   		movq	%rbp, %rdi
  53 0032 C7402819 		movl	$25, 40(%rax)
  53      000000
  54 0039 488B4500 		movq	0(%rbp), %rax
  55              	.LBE66:
  56              	.LBE65:
 119:fltk-1.3.4-1/jpeg/jcmarker.c ****   }
 120:fltk-1.3.4-1/jpeg/jcmarker.c **** }
  57              		.loc 1 120 1 is_stmt 0 view .LVU15
  58 003d 5D       		popq	%rbp
  59              		.cfi_remember_state
  60              		.cfi_restore 6
  61              		.cfi_def_cfa_offset 8
  62              	.LVL4:
  63              	.LBB68:
  64              	.LBB67:
 118:fltk-1.3.4-1/jpeg/jcmarker.c ****       ERREXIT(cinfo, JERR_CANT_SUSPEND);
  65              		.loc 1 118 7 view .LVU16
  66 003e 488B00   		movq	(%rax), %rax
  67 0041 FFE0     		jmp	*%rax
  68              	.LVL5:
  69              		.p2align 4,,10
  70 0043 0F1F4400 		.p2align 3
  70      00
  71              	.L1:
  72              		.cfi_restore_state
 118:fltk-1.3.4-1/jpeg/jcmarker.c ****       ERREXIT(cinfo, JERR_CANT_SUSPEND);
  73              		.loc 1 118 7 view .LVU17
  74              	.LBE67:
  75              	.LBE68:
  76              		.loc 1 120 1 view .LVU18
  77 0048 5D       		popq	%rbp
  78              		.cfi_def_cfa_offset 8
  79              	.LVL6:
  80              		.loc 1 120 1 view .LVU19
  81 0049 C3       		ret
  82              		.cfi_endproc
  83              	.LFE51:
  85              		.section	.text.emit_2bytes,"ax",@progbits
  86              		.p2align 4
  88              	emit_2bytes:
  89              	.LVL7:
  90              	.LFB53:
 121:fltk-1.3.4-1/jpeg/jcmarker.c **** 
 122:fltk-1.3.4-1/jpeg/jcmarker.c **** 
 123:fltk-1.3.4-1/jpeg/jcmarker.c **** LOCAL(void)
 124:fltk-1.3.4-1/jpeg/jcmarker.c **** emit_marker (j_compress_ptr cinfo, JPEG_MARKER mark)
 125:fltk-1.3.4-1/jpeg/jcmarker.c **** /* Emit a marker code */
 126:fltk-1.3.4-1/jpeg/jcmarker.c **** {
 127:fltk-1.3.4-1/jpeg/jcmarker.c ****   emit_byte(cinfo, 0xFF);
 128:fltk-1.3.4-1/jpeg/jcmarker.c ****   emit_byte(cinfo, (int) mark);
 129:fltk-1.3.4-1/jpeg/jcmarker.c **** }
 130:fltk-1.3.4-1/jpeg/jcmarker.c **** 
 131:fltk-1.3.4-1/jpeg/jcmarker.c **** 
 132:fltk-1.3.4-1/jpeg/jcmarker.c **** LOCAL(void)
 133:fltk-1.3.4-1/jpeg/jcmarker.c **** emit_2bytes (j_compress_ptr cinfo, int value)
 134:fltk-1.3.4-1/jpeg/jcmarker.c **** /* Emit a 2-byte integer; these are always MSB first in JPEG files */
 135:fltk-1.3.4-1/jpeg/jcmarker.c **** {
  91              		.loc 1 135 1 is_stmt 1 view -0
  92              		.cfi_startproc
 136:fltk-1.3.4-1/jpeg/jcmarker.c ****   emit_byte(cinfo, (value >> 8) & 0xFF);
  93              		.loc 1 136 3 view .LVU21
 135:fltk-1.3.4-1/jpeg/jcmarker.c ****   emit_byte(cinfo, (value >> 8) & 0xFF);
  94              		.loc 1 135 1 is_stmt 0 view .LVU22
  95 0000 55       		pushq	%rbp
  96              		.cfi_def_cfa_offset 16
  97              		.cfi_offset 6, -16
  98 0001 4889FD   		movq	%rdi, %rbp
  99 0004 53       		pushq	%rbx
 100              		.cfi_def_cfa_offset 24
 101              		.cfi_offset 3, -24
 102 0005 89F3     		movl	%esi, %ebx
 103              		.loc 1 136 3 view .LVU23
 104 0007 0FB6F7   		movzbl	%bh, %esi
 105              	.LVL8:
 135:fltk-1.3.4-1/jpeg/jcmarker.c ****   emit_byte(cinfo, (value >> 8) & 0xFF);
 106              		.loc 1 135 1 view .LVU24
 107 000a 4883EC08 		subq	$8, %rsp
 108              		.cfi_def_cfa_offset 32
 109              		.loc 1 136 3 view .LVU25
 110 000e E8000000 		call	emit_byte
 110      00
 111              	.LVL9:
 137:fltk-1.3.4-1/jpeg/jcmarker.c ****   emit_byte(cinfo, value & 0xFF);
 112              		.loc 1 137 3 is_stmt 1 view .LVU26
 138:fltk-1.3.4-1/jpeg/jcmarker.c **** }
 113              		.loc 1 138 1 is_stmt 0 view .LVU27
 114 0013 4883C408 		addq	$8, %rsp
 115              		.cfi_def_cfa_offset 24
 137:fltk-1.3.4-1/jpeg/jcmarker.c ****   emit_byte(cinfo, value & 0xFF);
 116              		.loc 1 137 3 view .LVU28
 117 0017 0FB6F3   		movzbl	%bl, %esi
 118 001a 4889EF   		movq	%rbp, %rdi
 119              		.loc 1 138 1 view .LVU29
 120 001d 5B       		popq	%rbx
 121              		.cfi_def_cfa_offset 16
 122              	.LVL10:
 123              		.loc 1 138 1 view .LVU30
 124 001e 5D       		popq	%rbp
 125              		.cfi_def_cfa_offset 8
 126              	.LVL11:
 137:fltk-1.3.4-1/jpeg/jcmarker.c ****   emit_byte(cinfo, value & 0xFF);
 127              		.loc 1 137 3 view .LVU31
 128 001f E9000000 		jmp	emit_byte
 128      00
 129              	.LVL12:
 137:fltk-1.3.4-1/jpeg/jcmarker.c ****   emit_byte(cinfo, value & 0xFF);
 130              		.loc 1 137 3 view .LVU32
 131              		.cfi_endproc
 132              	.LFE53:
 134              		.section	.text.emit_dqt,"ax",@progbits
 135              		.p2align 4
 137              	emit_dqt:
 138              	.LVL13:
 139              	.LFB54:
 139:fltk-1.3.4-1/jpeg/jcmarker.c **** 
 140:fltk-1.3.4-1/jpeg/jcmarker.c **** 
 141:fltk-1.3.4-1/jpeg/jcmarker.c **** /*
 142:fltk-1.3.4-1/jpeg/jcmarker.c ****  * Routines to write specific marker types.
 143:fltk-1.3.4-1/jpeg/jcmarker.c ****  */
 144:fltk-1.3.4-1/jpeg/jcmarker.c **** 
 145:fltk-1.3.4-1/jpeg/jcmarker.c **** LOCAL(int)
 146:fltk-1.3.4-1/jpeg/jcmarker.c **** emit_dqt (j_compress_ptr cinfo, int index)
 147:fltk-1.3.4-1/jpeg/jcmarker.c **** /* Emit a DQT marker */
 148:fltk-1.3.4-1/jpeg/jcmarker.c **** /* Returns the precision used (0 = 8bits, 1 = 16bits) for baseline checking */
 149:fltk-1.3.4-1/jpeg/jcmarker.c **** {
 140              		.loc 1 149 1 is_stmt 1 view -0
 141              		.cfi_startproc
 150:fltk-1.3.4-1/jpeg/jcmarker.c ****   JQUANT_TBL * qtbl = cinfo->quant_tbl_ptrs[index];
 142              		.loc 1 150 3 view .LVU34
 149:fltk-1.3.4-1/jpeg/jcmarker.c ****   JQUANT_TBL * qtbl = cinfo->quant_tbl_ptrs[index];
 143              		.loc 1 149 1 is_stmt 0 view .LVU35
 144 0000 4863C6   		movslq	%esi, %rax
 145 0003 4156     		pushq	%r14
 146              		.cfi_def_cfa_offset 16
 147              		.cfi_offset 14, -16
 148 0005 4155     		pushq	%r13
 149              		.cfi_def_cfa_offset 24
 150              		.cfi_offset 13, -24
 151 0007 4989C5   		movq	%rax, %r13
 152 000a 4154     		pushq	%r12
 153              		.cfi_def_cfa_offset 32
 154              		.cfi_offset 12, -32
 155 000c 55       		pushq	%rbp
 156              		.cfi_def_cfa_offset 40
 157              		.cfi_offset 6, -40
 158 000d 53       		pushq	%rbx
 159              		.cfi_def_cfa_offset 48
 160              		.cfi_offset 3, -48
 161              		.loc 1 150 16 view .LVU36
 162 000e 488B6CC7 		movq	112(%rdi,%rax,8), %rbp
 162      70
 163              	.LVL14:
 151:fltk-1.3.4-1/jpeg/jcmarker.c ****   int prec;
 164              		.loc 1 151 3 is_stmt 1 view .LVU37
 152:fltk-1.3.4-1/jpeg/jcmarker.c ****   int i;
 165              		.loc 1 152 3 view .LVU38
 153:fltk-1.3.4-1/jpeg/jcmarker.c **** 
 154:fltk-1.3.4-1/jpeg/jcmarker.c ****   if (qtbl == NULL)
 166              		.loc 1 154 3 view .LVU39
 149:fltk-1.3.4-1/jpeg/jcmarker.c ****   JQUANT_TBL * qtbl = cinfo->quant_tbl_ptrs[index];
 167              		.loc 1 149 1 is_stmt 0 view .LVU40
 168 0013 4889FB   		movq	%rdi, %rbx
 169              		.loc 1 154 6 view .LVU41
 170 0016 4885ED   		testq	%rbp, %rbp
 171 0019 7465     		je	.L37
 172              	.LVL15:
 173              	.L14:
 155:fltk-1.3.4-1/jpeg/jcmarker.c ****     ERREXIT1(cinfo, JERR_NO_QUANT_TABLE, index);
 156:fltk-1.3.4-1/jpeg/jcmarker.c **** 
 157:fltk-1.3.4-1/jpeg/jcmarker.c ****   prec = 0;
 174              		.loc 1 157 3 is_stmt 1 view .LVU42
 158:fltk-1.3.4-1/jpeg/jcmarker.c ****   for (i = 0; i <= cinfo->lim_Se; i++) {
 175              		.loc 1 158 3 view .LVU43
 176              		.loc 1 158 15 view .LVU44
 177              		.loc 1 158 25 is_stmt 0 view .LVU45
 178 001b 48638BE8 		movslq	488(%rbx), %rcx
 178      010000
 179 0022 8BBD8000 		movl	128(%rbp), %edi
 179      0000
 180              		.loc 1 158 3 view .LVU46
 181 0028 85C9     		testl	%ecx, %ecx
 182 002a 0F886001 		js	.L15
 182      0000
 183 0030 488B93E0 		movq	480(%rbx), %rdx
 183      010000
 157:fltk-1.3.4-1/jpeg/jcmarker.c ****   for (i = 0; i <= cinfo->lim_Se; i++) {
 184              		.loc 1 157 8 view .LVU47
 185 0037 4531E4   		xorl	%r12d, %r12d
 186 003a 488D4204 		leaq	4(%rdx), %rax
 187 003e 488D3488 		leaq	(%rax,%rcx,4), %rsi
 159:fltk-1.3.4-1/jpeg/jcmarker.c ****     if (qtbl->quantval[cinfo->natural_order[i]] > 255)
 160:fltk-1.3.4-1/jpeg/jcmarker.c ****       prec = 1;
 188              		.loc 1 160 12 view .LVU48
 189 0042 B9010000 		movl	$1, %ecx
 189      00
 190 0047 EB0B     		jmp	.L17
 191              	.LVL16:
 192 0049 0F1F8000 		.p2align 4,,10
 192      000000
 193              		.p2align 3
 194              	.L38:
 195              		.loc 1 160 12 view .LVU49
 196 0050 4883C004 		addq	$4, %rax
 197              	.LVL17:
 198              	.L17:
 159:fltk-1.3.4-1/jpeg/jcmarker.c ****     if (qtbl->quantval[cinfo->natural_order[i]] > 255)
 199              		.loc 1 159 5 is_stmt 1 view .LVU50
 159:fltk-1.3.4-1/jpeg/jcmarker.c ****     if (qtbl->quantval[cinfo->natural_order[i]] > 255)
 200              		.loc 1 159 23 is_stmt 0 view .LVU51
 201 0054 486312   		movslq	(%rdx), %rdx
 202              		.loc 1 160 12 view .LVU52
 203 0057 66817C55 		cmpw	$256, 0(%rbp,%rdx,2)
 203      000001
 204 005e 4889C2   		movq	%rax, %rdx
 205 0061 440F43E1 		cmovnb	%ecx, %r12d
 206              	.LVL18:
 158:fltk-1.3.4-1/jpeg/jcmarker.c ****     if (qtbl->quantval[cinfo->natural_order[i]] > 255)
 207              		.loc 1 158 35 is_stmt 1 view .LVU53
 158:fltk-1.3.4-1/jpeg/jcmarker.c ****     if (qtbl->quantval[cinfo->natural_order[i]] > 255)
 208              		.loc 1 158 15 view .LVU54
 158:fltk-1.3.4-1/jpeg/jcmarker.c ****     if (qtbl->quantval[cinfo->natural_order[i]] > 255)
 209              		.loc 1 158 3 is_stmt 0 view .LVU55
 210 0065 4839C6   		cmpq	%rax, %rsi
 211 0068 75E6     		jne	.L38
 161:fltk-1.3.4-1/jpeg/jcmarker.c ****   }
 162:fltk-1.3.4-1/jpeg/jcmarker.c **** 
 163:fltk-1.3.4-1/jpeg/jcmarker.c ****   if (! qtbl->sent_table) {
 212              		.loc 1 163 3 is_stmt 1 view .LVU56
 213              		.loc 1 163 6 is_stmt 0 view .LVU57
 214 006a 85FF     		testl	%edi, %edi
 215 006c 7432     		je	.L39
 216              	.LVL19:
 217              	.L13:
 164:fltk-1.3.4-1/jpeg/jcmarker.c ****     emit_marker(cinfo, M_DQT);
 165:fltk-1.3.4-1/jpeg/jcmarker.c **** 
 166:fltk-1.3.4-1/jpeg/jcmarker.c ****     emit_2bytes(cinfo,
 167:fltk-1.3.4-1/jpeg/jcmarker.c ****       prec ? cinfo->lim_Se * 2 + 2 + 1 + 2 : cinfo->lim_Se + 1 + 1 + 2);
 168:fltk-1.3.4-1/jpeg/jcmarker.c **** 
 169:fltk-1.3.4-1/jpeg/jcmarker.c ****     emit_byte(cinfo, index + (prec<<4));
 170:fltk-1.3.4-1/jpeg/jcmarker.c **** 
 171:fltk-1.3.4-1/jpeg/jcmarker.c ****     for (i = 0; i <= cinfo->lim_Se; i++) {
 172:fltk-1.3.4-1/jpeg/jcmarker.c ****       /* The table entries must be emitted in zigzag order. */
 173:fltk-1.3.4-1/jpeg/jcmarker.c ****       unsigned int qval = qtbl->quantval[cinfo->natural_order[i]];
 174:fltk-1.3.4-1/jpeg/jcmarker.c ****       if (prec)
 175:fltk-1.3.4-1/jpeg/jcmarker.c **** 	emit_byte(cinfo, (int) (qval >> 8));
 176:fltk-1.3.4-1/jpeg/jcmarker.c ****       emit_byte(cinfo, (int) (qval & 0xFF));
 177:fltk-1.3.4-1/jpeg/jcmarker.c ****     }
 178:fltk-1.3.4-1/jpeg/jcmarker.c **** 
 179:fltk-1.3.4-1/jpeg/jcmarker.c ****     qtbl->sent_table = TRUE;
 180:fltk-1.3.4-1/jpeg/jcmarker.c ****   }
 181:fltk-1.3.4-1/jpeg/jcmarker.c **** 
 182:fltk-1.3.4-1/jpeg/jcmarker.c ****   return prec;
 183:fltk-1.3.4-1/jpeg/jcmarker.c **** }
 218              		.loc 1 183 1 view .LVU58
 219 006e 5B       		popq	%rbx
 220              		.cfi_remember_state
 221              		.cfi_def_cfa_offset 40
 222              	.LVL20:
 223              		.loc 1 183 1 view .LVU59
 224 006f 4489E0   		movl	%r12d, %eax
 225 0072 5D       		popq	%rbp
 226              		.cfi_def_cfa_offset 32
 227              	.LVL21:
 228              		.loc 1 183 1 view .LVU60
 229 0073 415C     		popq	%r12
 230              		.cfi_def_cfa_offset 24
 231 0075 415D     		popq	%r13
 232              		.cfi_def_cfa_offset 16
 233              	.LVL22:
 234              		.loc 1 183 1 view .LVU61
 235 0077 415E     		popq	%r14
 236              		.cfi_def_cfa_offset 8
 237 0079 C3       		ret
 238              	.LVL23:
 239 007a 660F1F44 		.p2align 4,,10
 239      0000
 240              		.p2align 3
 241              	.L37:
 242              		.cfi_restore_state
 155:fltk-1.3.4-1/jpeg/jcmarker.c **** 
 243              		.loc 1 155 5 is_stmt 1 view .LVU62
 244 0080 488B07   		movq	(%rdi), %rax
 245 0083 C7402836 		movl	$54, 40(%rax)
 245      000000
 246 008a 488B07   		movq	(%rdi), %rax
 247 008d 4489682C 		movl	%r13d, 44(%rax)
 248 0091 488B07   		movq	(%rdi), %rax
 249 0094 FF10     		call	*(%rax)
 250              	.LVL24:
 155:fltk-1.3.4-1/jpeg/jcmarker.c **** 
 251              		.loc 1 155 5 is_stmt 0 view .LVU63
 252 0096 EB83     		jmp	.L14
 253              	.LVL25:
 254 0098 0F1F8400 		.p2align 4,,10
 254      00000000 
 255              		.p2align 3
 256              	.L39:
 164:fltk-1.3.4-1/jpeg/jcmarker.c ****     emit_marker(cinfo, M_DQT);
 257              		.loc 1 164 5 is_stmt 1 view .LVU64
 258              	.LBB69:
 259              	.LBI69:
 124:fltk-1.3.4-1/jpeg/jcmarker.c **** /* Emit a marker code */
 260              		.loc 1 124 1 view .LVU65
 261              	.LBB70:
 127:fltk-1.3.4-1/jpeg/jcmarker.c ****   emit_byte(cinfo, (int) mark);
 262              		.loc 1 127 3 view .LVU66
 263 00a0 BEFF0000 		movl	$255, %esi
 263      00
 264 00a5 4889DF   		movq	%rbx, %rdi
 265 00a8 E8000000 		call	emit_byte
 265      00
 266              	.LVL26:
 128:fltk-1.3.4-1/jpeg/jcmarker.c **** }
 267              		.loc 1 128 3 view .LVU67
 268 00ad BEDB0000 		movl	$219, %esi
 268      00
 269 00b2 4889DF   		movq	%rbx, %rdi
 270 00b5 E8000000 		call	emit_byte
 270      00
 271              	.LVL27:
 128:fltk-1.3.4-1/jpeg/jcmarker.c **** }
 272              		.loc 1 128 3 is_stmt 0 view .LVU68
 273              	.LBE70:
 274              	.LBE69:
 166:fltk-1.3.4-1/jpeg/jcmarker.c ****       prec ? cinfo->lim_Se * 2 + 2 + 1 + 2 : cinfo->lim_Se + 1 + 1 + 2);
 275              		.loc 1 166 5 is_stmt 1 view .LVU69
 276 00ba 4489E0   		movl	%r12d, %eax
 277 00bd C1E004   		sall	$4, %eax
 278 00c0 4101C5   		addl	%eax, %r13d
 279              	.LVL28:
 166:fltk-1.3.4-1/jpeg/jcmarker.c ****       prec ? cinfo->lim_Se * 2 + 2 + 1 + 2 : cinfo->lim_Se + 1 + 1 + 2);
 280              		.loc 1 166 5 is_stmt 0 view .LVU70
 281 00c3 4585E4   		testl	%r12d, %r12d
 282 00c6 0F848D00 		je	.L19
 282      0000
 167:fltk-1.3.4-1/jpeg/jcmarker.c **** 
 283              		.loc 1 167 32 discriminator 1 view .LVU71
 284 00cc 8B83E801 		movl	488(%rbx), %eax
 284      0000
 166:fltk-1.3.4-1/jpeg/jcmarker.c ****       prec ? cinfo->lim_Se * 2 + 2 + 1 + 2 : cinfo->lim_Se + 1 + 1 + 2);
 285              		.loc 1 166 5 discriminator 1 view .LVU72
 286 00d2 8D740005 		leal	5(%rax,%rax), %esi
 287              	.LVL29:
 288              	.L20:
 166:fltk-1.3.4-1/jpeg/jcmarker.c ****       prec ? cinfo->lim_Se * 2 + 2 + 1 + 2 : cinfo->lim_Se + 1 + 1 + 2);
 289              		.loc 1 166 5 discriminator 4 view .LVU73
 290 00d6 4889DF   		movq	%rbx, %rdi
 171:fltk-1.3.4-1/jpeg/jcmarker.c ****       /* The table entries must be emitted in zigzag order. */
 291              		.loc 1 171 5 discriminator 4 view .LVU74
 292 00d9 4531F6   		xorl	%r14d, %r14d
 166:fltk-1.3.4-1/jpeg/jcmarker.c ****       prec ? cinfo->lim_Se * 2 + 2 + 1 + 2 : cinfo->lim_Se + 1 + 1 + 2);
 293              		.loc 1 166 5 discriminator 4 view .LVU75
 294 00dc E8000000 		call	emit_2bytes
 294      00
 295              	.LVL30:
 169:fltk-1.3.4-1/jpeg/jcmarker.c **** 
 296              		.loc 1 169 5 is_stmt 1 discriminator 4 view .LVU76
 297 00e1 4489EE   		movl	%r13d, %esi
 298 00e4 4889DF   		movq	%rbx, %rdi
 299 00e7 E8000000 		call	emit_byte
 299      00
 300              	.LVL31:
 171:fltk-1.3.4-1/jpeg/jcmarker.c ****       /* The table entries must be emitted in zigzag order. */
 301              		.loc 1 171 5 discriminator 4 view .LVU77
 171:fltk-1.3.4-1/jpeg/jcmarker.c ****       /* The table entries must be emitted in zigzag order. */
 302              		.loc 1 171 17 discriminator 4 view .LVU78
 171:fltk-1.3.4-1/jpeg/jcmarker.c ****       /* The table entries must be emitted in zigzag order. */
 303              		.loc 1 171 5 is_stmt 0 discriminator 4 view .LVU79
 304 00ec 8B83E801 		movl	488(%rbx), %eax
 304      0000
 305 00f2 85C0     		testl	%eax, %eax
 306 00f4 7923     		jns	.L21
 307 00f6 EB78     		jmp	.L23
 308              	.LVL32:
 309 00f8 0F1F8400 		.p2align 4,,10
 309      00000000 
 310              		.p2align 3
 311              	.L22:
 312              	.LBB72:
 176:fltk-1.3.4-1/jpeg/jcmarker.c ****     }
 313              		.loc 1 176 7 is_stmt 1 discriminator 2 view .LVU80
 314 0100 410FB6F5 		movzbl	%r13b, %esi
 315 0104 4889DF   		movq	%rbx, %rdi
 316 0107 4983C601 		addq	$1, %r14
 317 010b E8000000 		call	emit_byte
 317      00
 318              	.LVL33:
 319              	.LBE72:
 171:fltk-1.3.4-1/jpeg/jcmarker.c ****       /* The table entries must be emitted in zigzag order. */
 320              		.loc 1 171 37 discriminator 2 view .LVU81
 171:fltk-1.3.4-1/jpeg/jcmarker.c ****       /* The table entries must be emitted in zigzag order. */
 321              		.loc 1 171 17 discriminator 2 view .LVU82
 171:fltk-1.3.4-1/jpeg/jcmarker.c ****       /* The table entries must be emitted in zigzag order. */
 322              		.loc 1 171 5 is_stmt 0 discriminator 2 view .LVU83
 323 0110 4439B3E8 		cmpl	%r14d, 488(%rbx)
 323      010000
 324 0117 7C57     		jl	.L23
 325              	.L21:
 326              	.LVL34:
 327              	.LBB73:
 173:fltk-1.3.4-1/jpeg/jcmarker.c ****       if (prec)
 328              		.loc 1 173 7 is_stmt 1 view .LVU84
 173:fltk-1.3.4-1/jpeg/jcmarker.c ****       if (prec)
 329              		.loc 1 173 62 is_stmt 0 view .LVU85
 330 0119 488B83E0 		movq	480(%rbx), %rax
 330      010000
 173:fltk-1.3.4-1/jpeg/jcmarker.c ****       if (prec)
 331              		.loc 1 173 41 view .LVU86
 332 0120 4A6304B0 		movslq	(%rax,%r14,4), %rax
 333 0124 440FB76C 		movzwl	0(%rbp,%rax,2), %r13d
 333      4500
 334              	.LVL35:
 174:fltk-1.3.4-1/jpeg/jcmarker.c **** 	emit_byte(cinfo, (int) (qval >> 8));
 335              		.loc 1 174 7 is_stmt 1 view .LVU87
 174:fltk-1.3.4-1/jpeg/jcmarker.c **** 	emit_byte(cinfo, (int) (qval >> 8));
 336              		.loc 1 174 10 is_stmt 0 view .LVU88
 337 012a 4585E4   		testl	%r12d, %r12d
 338 012d 74D1     		je	.L22
 175:fltk-1.3.4-1/jpeg/jcmarker.c ****       emit_byte(cinfo, (int) (qval & 0xFF));
 339              		.loc 1 175 2 is_stmt 1 view .LVU89
 175:fltk-1.3.4-1/jpeg/jcmarker.c ****       emit_byte(cinfo, (int) (qval & 0xFF));
 340              		.loc 1 175 31 is_stmt 0 view .LVU90
 341 012f 4489E8   		movl	%r13d, %eax
 175:fltk-1.3.4-1/jpeg/jcmarker.c ****       emit_byte(cinfo, (int) (qval & 0xFF));
 342              		.loc 1 175 2 view .LVU91
 343 0132 4889DF   		movq	%rbx, %rdi
 175:fltk-1.3.4-1/jpeg/jcmarker.c ****       emit_byte(cinfo, (int) (qval & 0xFF));
 344              		.loc 1 175 31 view .LVU92
 345 0135 0FB6F4   		movzbl	%ah, %esi
 175:fltk-1.3.4-1/jpeg/jcmarker.c ****       emit_byte(cinfo, (int) (qval & 0xFF));
 346              		.loc 1 175 2 view .LVU93
 347 0138 E8000000 		call	emit_byte
 347      00
 348              	.LVL36:
 349 013d EBC1     		jmp	.L22
 350              	.LVL37:
 351              	.L24:
 175:fltk-1.3.4-1/jpeg/jcmarker.c ****       emit_byte(cinfo, (int) (qval & 0xFF));
 352              		.loc 1 175 2 view .LVU94
 353              	.LBE73:
 164:fltk-1.3.4-1/jpeg/jcmarker.c **** 
 354              		.loc 1 164 5 is_stmt 1 view .LVU95
 355              	.LBB74:
 124:fltk-1.3.4-1/jpeg/jcmarker.c **** /* Emit a marker code */
 356              		.loc 1 124 1 view .LVU96
 357              	.LBB71:
 127:fltk-1.3.4-1/jpeg/jcmarker.c ****   emit_byte(cinfo, (int) mark);
 358              		.loc 1 127 3 view .LVU97
 359 013f BEFF0000 		movl	$255, %esi
 359      00
 360 0144 4889DF   		movq	%rbx, %rdi
 361 0147 E8000000 		call	emit_byte
 361      00
 362              	.LVL38:
 128:fltk-1.3.4-1/jpeg/jcmarker.c **** }
 363              		.loc 1 128 3 view .LVU98
 364 014c BEDB0000 		movl	$219, %esi
 364      00
 365 0151 4889DF   		movq	%rbx, %rdi
 366 0154 E8000000 		call	emit_byte
 366      00
 367              	.LVL39:
 128:fltk-1.3.4-1/jpeg/jcmarker.c **** }
 368              		.loc 1 128 3 is_stmt 0 view .LVU99
 369              	.LBE71:
 370              	.LBE74:
 166:fltk-1.3.4-1/jpeg/jcmarker.c ****       prec ? cinfo->lim_Se * 2 + 2 + 1 + 2 : cinfo->lim_Se + 1 + 1 + 2);
 371              		.loc 1 166 5 is_stmt 1 view .LVU100
 372              	.L19:
 166:fltk-1.3.4-1/jpeg/jcmarker.c ****       prec ? cinfo->lim_Se * 2 + 2 + 1 + 2 : cinfo->lim_Se + 1 + 1 + 2);
 373              		.loc 1 166 5 is_stmt 0 discriminator 2 view .LVU101
 374 0159 8B83E801 		movl	488(%rbx), %eax
 374      0000
 375 015f 4531E4   		xorl	%r12d, %r12d
 376 0162 8D7004   		leal	4(%rax), %esi
 377 0165 E96CFFFF 		jmp	.L20
 377      FF
 378 016a 660F1F44 		.p2align 4,,10
 378      0000
 379              		.p2align 3
 380              	.L23:
 179:fltk-1.3.4-1/jpeg/jcmarker.c ****   }
 381              		.loc 1 179 5 is_stmt 1 view .LVU102
 179:fltk-1.3.4-1/jpeg/jcmarker.c ****   }
 382              		.loc 1 179 22 is_stmt 0 view .LVU103
 383 0170 C7858000 		movl	$1, 128(%rbp)
 383      00000100 
 383      0000
 384              		.loc 1 183 1 view .LVU104
 385 017a 4489E0   		movl	%r12d, %eax
 386 017d 5B       		popq	%rbx
 387              		.cfi_remember_state
 388              		.cfi_def_cfa_offset 40
 389              	.LVL40:
 390              		.loc 1 183 1 view .LVU105
 391 017e 5D       		popq	%rbp
 392              		.cfi_def_cfa_offset 32
 393              	.LVL41:
 394              		.loc 1 183 1 view .LVU106
 395 017f 415C     		popq	%r12
 396              		.cfi_def_cfa_offset 24
 397 0181 415D     		popq	%r13
 398              		.cfi_def_cfa_offset 16
 399 0183 415E     		popq	%r14
 400              		.cfi_def_cfa_offset 8
 401 0185 C3       		ret
 402              	.LVL42:
 403 0186 662E0F1F 		.p2align 4,,10
 403      84000000 
 403      0000
 404              		.p2align 3
 405              	.L15:
 406              		.cfi_restore_state
 163:fltk-1.3.4-1/jpeg/jcmarker.c ****     emit_marker(cinfo, M_DQT);
 407              		.loc 1 163 3 is_stmt 1 view .LVU107
 163:fltk-1.3.4-1/jpeg/jcmarker.c ****     emit_marker(cinfo, M_DQT);
 408              		.loc 1 163 6 is_stmt 0 view .LVU108
 409 0190 85FF     		testl	%edi, %edi
 410 0192 74AB     		je	.L24
 157:fltk-1.3.4-1/jpeg/jcmarker.c ****   for (i = 0; i <= cinfo->lim_Se; i++) {
 411              		.loc 1 157 8 view .LVU109
 412 0194 4531E4   		xorl	%r12d, %r12d
 413 0197 E9D2FEFF 		jmp	.L13
 413      FF
 414              		.cfi_endproc
 415              	.LFE54:
 417              		.section	.text.emit_dht,"ax",@progbits
 418              		.p2align 4
 420              	emit_dht:
 421              	.LVL43:
 422              	.LFB55:
 184:fltk-1.3.4-1/jpeg/jcmarker.c **** 
 185:fltk-1.3.4-1/jpeg/jcmarker.c **** 
 186:fltk-1.3.4-1/jpeg/jcmarker.c **** LOCAL(void)
 187:fltk-1.3.4-1/jpeg/jcmarker.c **** emit_dht (j_compress_ptr cinfo, int index, boolean is_ac)
 188:fltk-1.3.4-1/jpeg/jcmarker.c **** /* Emit a DHT marker */
 189:fltk-1.3.4-1/jpeg/jcmarker.c **** {
 423              		.loc 1 189 1 is_stmt 1 view -0
 424              		.cfi_startproc
 190:fltk-1.3.4-1/jpeg/jcmarker.c ****   JHUFF_TBL * htbl;
 425              		.loc 1 190 3 view .LVU111
 191:fltk-1.3.4-1/jpeg/jcmarker.c ****   int length, i;
 426              		.loc 1 191 3 view .LVU112
 192:fltk-1.3.4-1/jpeg/jcmarker.c ****   
 193:fltk-1.3.4-1/jpeg/jcmarker.c ****   if (is_ac) {
 427              		.loc 1 193 3 view .LVU113
 189:fltk-1.3.4-1/jpeg/jcmarker.c ****   JHUFF_TBL * htbl;
 428              		.loc 1 189 1 is_stmt 0 view .LVU114
 429 0000 4157     		pushq	%r15
 430              		.cfi_def_cfa_offset 16
 431              		.cfi_offset 15, -16
 194:fltk-1.3.4-1/jpeg/jcmarker.c ****     htbl = cinfo->ac_huff_tbl_ptrs[index];
 432              		.loc 1 194 10 view .LVU115
 433 0002 4863C6   		movslq	%esi, %rax
 189:fltk-1.3.4-1/jpeg/jcmarker.c ****   JHUFF_TBL * htbl;
 434              		.loc 1 189 1 view .LVU116
 435 0005 4189F7   		movl	%esi, %r15d
 436 0008 4156     		pushq	%r14
 437              		.cfi_def_cfa_offset 24
 438              		.cfi_offset 14, -24
 439 000a 4155     		pushq	%r13
 440              		.cfi_def_cfa_offset 32
 441              		.cfi_offset 13, -32
 442 000c 4154     		pushq	%r12
 443              		.cfi_def_cfa_offset 40
 444              		.cfi_offset 12, -40
 445 000e 55       		pushq	%rbp
 446              		.cfi_def_cfa_offset 48
 447              		.cfi_offset 6, -48
 448 000f 4889FD   		movq	%rdi, %rbp
 449 0012 53       		pushq	%rbx
 450              		.cfi_def_cfa_offset 56
 451              		.cfi_offset 3, -56
 452 0013 4883EC08 		subq	$8, %rsp
 453              		.cfi_def_cfa_offset 64
 193:fltk-1.3.4-1/jpeg/jcmarker.c ****     htbl = cinfo->ac_huff_tbl_ptrs[index];
 454              		.loc 1 193 6 view .LVU117
 455 0017 85D2     		testl	%edx, %edx
 456 0019 7435     		je	.L41
 457              		.loc 1 194 5 is_stmt 1 view .LVU118
 458              		.loc 1 194 10 is_stmt 0 view .LVU119
 459 001b 4C8BACC7 		movq	192(%rdi,%rax,8), %r13
 459      C0000000 
 460              	.LVL44:
 195:fltk-1.3.4-1/jpeg/jcmarker.c ****     index += 0x10;		/* output index has AC bit set */
 461              		.loc 1 195 5 is_stmt 1 view .LVU120
 462              		.loc 1 195 11 is_stmt 0 view .LVU121
 463 0023 4183C710 		addl	$16, %r15d
 464              	.LVL45:
 196:fltk-1.3.4-1/jpeg/jcmarker.c ****   } else {
 197:fltk-1.3.4-1/jpeg/jcmarker.c ****     htbl = cinfo->dc_huff_tbl_ptrs[index];
 198:fltk-1.3.4-1/jpeg/jcmarker.c ****   }
 199:fltk-1.3.4-1/jpeg/jcmarker.c **** 
 200:fltk-1.3.4-1/jpeg/jcmarker.c ****   if (htbl == NULL)
 465              		.loc 1 200 3 is_stmt 1 view .LVU122
 466              		.loc 1 200 6 is_stmt 0 view .LVU123
 467 0027 4D85ED   		testq	%r13, %r13
 468 002a 7431     		je	.L56
 469              	.L43:
 201:fltk-1.3.4-1/jpeg/jcmarker.c ****     ERREXIT1(cinfo, JERR_NO_HUFF_TABLE, index);
 202:fltk-1.3.4-1/jpeg/jcmarker.c ****   
 203:fltk-1.3.4-1/jpeg/jcmarker.c ****   if (! htbl->sent_table) {
 470              		.loc 1 203 3 is_stmt 1 view .LVU124
 471              		.loc 1 203 6 is_stmt 0 view .LVU125
 472 002c 418B8514 		movl	276(%r13), %eax
 472      010000
 473 0033 85C0     		testl	%eax, %eax
 474 0035 744D     		je	.L57
 475              	.LVL46:
 476              	.L40:
 204:fltk-1.3.4-1/jpeg/jcmarker.c ****     emit_marker(cinfo, M_DHT);
 205:fltk-1.3.4-1/jpeg/jcmarker.c ****     
 206:fltk-1.3.4-1/jpeg/jcmarker.c ****     length = 0;
 207:fltk-1.3.4-1/jpeg/jcmarker.c ****     for (i = 1; i <= 16; i++)
 208:fltk-1.3.4-1/jpeg/jcmarker.c ****       length += htbl->bits[i];
 209:fltk-1.3.4-1/jpeg/jcmarker.c ****     
 210:fltk-1.3.4-1/jpeg/jcmarker.c ****     emit_2bytes(cinfo, length + 2 + 1 + 16);
 211:fltk-1.3.4-1/jpeg/jcmarker.c ****     emit_byte(cinfo, index);
 212:fltk-1.3.4-1/jpeg/jcmarker.c ****     
 213:fltk-1.3.4-1/jpeg/jcmarker.c ****     for (i = 1; i <= 16; i++)
 214:fltk-1.3.4-1/jpeg/jcmarker.c ****       emit_byte(cinfo, htbl->bits[i]);
 215:fltk-1.3.4-1/jpeg/jcmarker.c ****     
 216:fltk-1.3.4-1/jpeg/jcmarker.c ****     for (i = 0; i < length; i++)
 217:fltk-1.3.4-1/jpeg/jcmarker.c ****       emit_byte(cinfo, htbl->huffval[i]);
 218:fltk-1.3.4-1/jpeg/jcmarker.c ****     
 219:fltk-1.3.4-1/jpeg/jcmarker.c ****     htbl->sent_table = TRUE;
 220:fltk-1.3.4-1/jpeg/jcmarker.c ****   }
 221:fltk-1.3.4-1/jpeg/jcmarker.c **** }
 477              		.loc 1 221 1 view .LVU126
 478 0037 4883C408 		addq	$8, %rsp
 479              		.cfi_remember_state
 480              		.cfi_def_cfa_offset 56
 481 003b 5B       		popq	%rbx
 482              		.cfi_def_cfa_offset 48
 483 003c 5D       		popq	%rbp
 484              		.cfi_def_cfa_offset 40
 485              	.LVL47:
 486              		.loc 1 221 1 view .LVU127
 487 003d 415C     		popq	%r12
 488              		.cfi_def_cfa_offset 32
 489 003f 415D     		popq	%r13
 490              		.cfi_def_cfa_offset 24
 491              	.LVL48:
 492              		.loc 1 221 1 view .LVU128
 493 0041 415E     		popq	%r14
 494              		.cfi_def_cfa_offset 16
 495 0043 415F     		popq	%r15
 496              		.cfi_def_cfa_offset 8
 497              	.LVL49:
 498              		.loc 1 221 1 view .LVU129
 499 0045 C3       		ret
 500              	.LVL50:
 501 0046 662E0F1F 		.p2align 4,,10
 501      84000000 
 501      0000
 502              		.p2align 3
 503              	.L41:
 504              		.cfi_restore_state
 197:fltk-1.3.4-1/jpeg/jcmarker.c ****   }
 505              		.loc 1 197 5 is_stmt 1 view .LVU130
 197:fltk-1.3.4-1/jpeg/jcmarker.c ****   }
 506              		.loc 1 197 10 is_stmt 0 view .LVU131
 507 0050 4C8BACC7 		movq	160(%rdi,%rax,8), %r13
 507      A0000000 
 508              	.LVL51:
 200:fltk-1.3.4-1/jpeg/jcmarker.c ****     ERREXIT1(cinfo, JERR_NO_HUFF_TABLE, index);
 509              		.loc 1 200 3 is_stmt 1 view .LVU132
 200:fltk-1.3.4-1/jpeg/jcmarker.c ****     ERREXIT1(cinfo, JERR_NO_HUFF_TABLE, index);
 510              		.loc 1 200 6 is_stmt 0 view .LVU133
 511 0058 4D85ED   		testq	%r13, %r13
 512 005b 75CF     		jne	.L43
 513              	.LVL52:
 514              	.L56:
 201:fltk-1.3.4-1/jpeg/jcmarker.c ****   
 515              		.loc 1 201 5 is_stmt 1 view .LVU134
 516 005d 488B4500 		movq	0(%rbp), %rax
 517 0061 4889EF   		movq	%rbp, %rdi
 518              	.LVL53:
 201:fltk-1.3.4-1/jpeg/jcmarker.c ****   
 519              		.loc 1 201 5 is_stmt 0 view .LVU135
 520 0064 C7402834 		movl	$52, 40(%rax)
 520      000000
 521 006b 488B4500 		movq	0(%rbp), %rax
 522 006f 4489782C 		movl	%r15d, 44(%rax)
 523 0073 488B4500 		movq	0(%rbp), %rax
 524 0077 FF10     		call	*(%rax)
 525              	.LVL54:
 203:fltk-1.3.4-1/jpeg/jcmarker.c ****     emit_marker(cinfo, M_DHT);
 526              		.loc 1 203 3 is_stmt 1 view .LVU136
 203:fltk-1.3.4-1/jpeg/jcmarker.c ****     emit_marker(cinfo, M_DHT);
 527              		.loc 1 203 6 is_stmt 0 view .LVU137
 528 0079 418B8514 		movl	276(%r13), %eax
 528      010000
 529 0080 85C0     		testl	%eax, %eax
 530 0082 75B3     		jne	.L40
 531              	.L57:
 204:fltk-1.3.4-1/jpeg/jcmarker.c ****     
 532              		.loc 1 204 5 is_stmt 1 view .LVU138
 533              	.LVL55:
 534              	.LBB75:
 535              	.LBI75:
 124:fltk-1.3.4-1/jpeg/jcmarker.c **** /* Emit a marker code */
 536              		.loc 1 124 1 view .LVU139
 537              	.LBB76:
 127:fltk-1.3.4-1/jpeg/jcmarker.c ****   emit_byte(cinfo, (int) mark);
 538              		.loc 1 127 3 view .LVU140
 539 0084 BEFF0000 		movl	$255, %esi
 539      00
 540 0089 4889EF   		movq	%rbp, %rdi
 541 008c 498D5D01 		leaq	1(%r13), %rbx
 542              	.LBE76:
 543              	.LBE75:
 206:fltk-1.3.4-1/jpeg/jcmarker.c ****     for (i = 1; i <= 16; i++)
 544              		.loc 1 206 12 is_stmt 0 view .LVU141
 545 0090 4531E4   		xorl	%r12d, %r12d
 546              	.LBB79:
 547              	.LBB77:
 127:fltk-1.3.4-1/jpeg/jcmarker.c ****   emit_byte(cinfo, (int) mark);
 548              		.loc 1 127 3 view .LVU142
 549 0093 E8000000 		call	emit_byte
 549      00
 550              	.LVL56:
 128:fltk-1.3.4-1/jpeg/jcmarker.c **** }
 551              		.loc 1 128 3 is_stmt 1 view .LVU143
 552 0098 BEC40000 		movl	$196, %esi
 552      00
 553 009d 4889EF   		movq	%rbp, %rdi
 554 00a0 4D8D7511 		leaq	17(%r13), %r14
 555 00a4 E8000000 		call	emit_byte
 555      00
 556              	.LVL57:
 128:fltk-1.3.4-1/jpeg/jcmarker.c **** }
 557              		.loc 1 128 3 is_stmt 0 view .LVU144
 558              	.LBE77:
 559              	.LBE79:
 206:fltk-1.3.4-1/jpeg/jcmarker.c ****     for (i = 1; i <= 16; i++)
 560              		.loc 1 206 5 is_stmt 1 view .LVU145
 207:fltk-1.3.4-1/jpeg/jcmarker.c ****       length += htbl->bits[i];
 561              		.loc 1 207 5 view .LVU146
 207:fltk-1.3.4-1/jpeg/jcmarker.c ****       length += htbl->bits[i];
 562              		.loc 1 207 17 view .LVU147
 563              	.LBB80:
 564              	.LBB78:
 128:fltk-1.3.4-1/jpeg/jcmarker.c **** }
 565              		.loc 1 128 3 is_stmt 0 view .LVU148
 566 00a9 4889D8   		movq	%rbx, %rax
 567              	.LVL58:
 568 00ac 0F1F4000 		.p2align 4,,10
 569              		.p2align 3
 570              	.L45:
 128:fltk-1.3.4-1/jpeg/jcmarker.c **** }
 571              		.loc 1 128 3 view .LVU149
 572              	.LBE78:
 573              	.LBE80:
 208:fltk-1.3.4-1/jpeg/jcmarker.c ****     
 574              		.loc 1 208 7 is_stmt 1 discriminator 3 view .LVU150
 208:fltk-1.3.4-1/jpeg/jcmarker.c ****     
 575              		.loc 1 208 27 is_stmt 0 discriminator 3 view .LVU151
 576 00b0 0FB610   		movzbl	(%rax), %edx
 577 00b3 4883C001 		addq	$1, %rax
 578              	.LVL59:
 208:fltk-1.3.4-1/jpeg/jcmarker.c ****     
 579              		.loc 1 208 14 discriminator 3 view .LVU152
 580 00b7 4101D4   		addl	%edx, %r12d
 581              	.LVL60:
 207:fltk-1.3.4-1/jpeg/jcmarker.c ****       length += htbl->bits[i];
 582              		.loc 1 207 26 is_stmt 1 discriminator 3 view .LVU153
 207:fltk-1.3.4-1/jpeg/jcmarker.c ****       length += htbl->bits[i];
 583              		.loc 1 207 17 discriminator 3 view .LVU154
 207:fltk-1.3.4-1/jpeg/jcmarker.c ****       length += htbl->bits[i];
 584              		.loc 1 207 5 is_stmt 0 discriminator 3 view .LVU155
 585 00ba 4C39F0   		cmpq	%r14, %rax
 586 00bd 75F1     		jne	.L45
 210:fltk-1.3.4-1/jpeg/jcmarker.c ****     emit_byte(cinfo, index);
 587              		.loc 1 210 5 is_stmt 1 view .LVU156
 588 00bf 418D7424 		leal	19(%r12), %esi
 588      13
 589 00c4 4889EF   		movq	%rbp, %rdi
 590 00c7 E8000000 		call	emit_2bytes
 590      00
 591              	.LVL61:
 211:fltk-1.3.4-1/jpeg/jcmarker.c ****     
 592              		.loc 1 211 5 view .LVU157
 593 00cc 4489FE   		movl	%r15d, %esi
 594 00cf 4889EF   		movq	%rbp, %rdi
 595 00d2 E8000000 		call	emit_byte
 595      00
 596              	.LVL62:
 213:fltk-1.3.4-1/jpeg/jcmarker.c ****       emit_byte(cinfo, htbl->bits[i]);
 597              		.loc 1 213 5 view .LVU158
 213:fltk-1.3.4-1/jpeg/jcmarker.c ****       emit_byte(cinfo, htbl->bits[i]);
 598              		.loc 1 213 17 view .LVU159
 599 00d7 660F1F84 		.p2align 4,,10
 599      00000000 
 599      00
 600              		.p2align 3
 601              	.L46:
 214:fltk-1.3.4-1/jpeg/jcmarker.c ****     
 602              		.loc 1 214 7 discriminator 3 view .LVU160
 603 00e0 0FB633   		movzbl	(%rbx), %esi
 604 00e3 4889EF   		movq	%rbp, %rdi
 605 00e6 4883C301 		addq	$1, %rbx
 606              	.LVL63:
 214:fltk-1.3.4-1/jpeg/jcmarker.c ****     
 607              		.loc 1 214 7 is_stmt 0 discriminator 3 view .LVU161
 608 00ea E8000000 		call	emit_byte
 608      00
 609              	.LVL64:
 213:fltk-1.3.4-1/jpeg/jcmarker.c ****       emit_byte(cinfo, htbl->bits[i]);
 610              		.loc 1 213 26 is_stmt 1 discriminator 3 view .LVU162
 213:fltk-1.3.4-1/jpeg/jcmarker.c ****       emit_byte(cinfo, htbl->bits[i]);
 611              		.loc 1 213 17 discriminator 3 view .LVU163
 213:fltk-1.3.4-1/jpeg/jcmarker.c ****       emit_byte(cinfo, htbl->bits[i]);
 612              		.loc 1 213 5 is_stmt 0 discriminator 3 view .LVU164
 613 00ef 4C39F3   		cmpq	%r14, %rbx
 614 00f2 75EC     		jne	.L46
 615              	.LVL65:
 216:fltk-1.3.4-1/jpeg/jcmarker.c ****       emit_byte(cinfo, htbl->huffval[i]);
 616              		.loc 1 216 17 is_stmt 1 view .LVU165
 216:fltk-1.3.4-1/jpeg/jcmarker.c ****       emit_byte(cinfo, htbl->huffval[i]);
 617              		.loc 1 216 5 is_stmt 0 view .LVU166
 618 00f4 4585E4   		testl	%r12d, %r12d
 619 00f7 7423     		je	.L47
 620 00f9 418D4424 		leal	-1(%r12), %eax
 620      FF
 621 00fe 4D8D6405 		leaq	18(%r13,%rax), %r12
 621      12
 622              	.LVL66:
 623              		.p2align 4,,10
 624 0103 0F1F4400 		.p2align 3
 624      00
 625              	.L48:
 217:fltk-1.3.4-1/jpeg/jcmarker.c ****     
 626              		.loc 1 217 7 is_stmt 1 discriminator 3 view .LVU167
 627 0108 0FB633   		movzbl	(%rbx), %esi
 628 010b 4889EF   		movq	%rbp, %rdi
 629 010e 4883C301 		addq	$1, %rbx
 630              	.LVL67:
 217:fltk-1.3.4-1/jpeg/jcmarker.c ****     
 631              		.loc 1 217 7 is_stmt 0 discriminator 3 view .LVU168
 632 0112 E8000000 		call	emit_byte
 632      00
 633              	.LVL68:
 216:fltk-1.3.4-1/jpeg/jcmarker.c ****       emit_byte(cinfo, htbl->huffval[i]);
 634              		.loc 1 216 29 is_stmt 1 discriminator 3 view .LVU169
 216:fltk-1.3.4-1/jpeg/jcmarker.c ****       emit_byte(cinfo, htbl->huffval[i]);
 635              		.loc 1 216 17 discriminator 3 view .LVU170
 216:fltk-1.3.4-1/jpeg/jcmarker.c ****       emit_byte(cinfo, htbl->huffval[i]);
 636              		.loc 1 216 5 is_stmt 0 discriminator 3 view .LVU171
 637 0117 4C39E3   		cmpq	%r12, %rbx
 638 011a 75EC     		jne	.L48
 639              	.L47:
 219:fltk-1.3.4-1/jpeg/jcmarker.c ****   }
 640              		.loc 1 219 5 is_stmt 1 view .LVU172
 219:fltk-1.3.4-1/jpeg/jcmarker.c ****   }
 641              		.loc 1 219 22 is_stmt 0 view .LVU173
 642 011c 41C78514 		movl	$1, 276(%r13)
 642      01000001 
 642      000000
 643              		.loc 1 221 1 view .LVU174
 644 0127 4883C408 		addq	$8, %rsp
 645              		.cfi_def_cfa_offset 56
 646 012b 5B       		popq	%rbx
 647              		.cfi_def_cfa_offset 48
 648 012c 5D       		popq	%rbp
 649              		.cfi_def_cfa_offset 40
 650              	.LVL69:
 651              		.loc 1 221 1 view .LVU175
 652 012d 415C     		popq	%r12
 653              		.cfi_def_cfa_offset 32
 654 012f 415D     		popq	%r13
 655              		.cfi_def_cfa_offset 24
 656              	.LVL70:
 657              		.loc 1 221 1 view .LVU176
 658 0131 415E     		popq	%r14
 659              		.cfi_def_cfa_offset 16
 660              	.LVL71:
 661              		.loc 1 221 1 view .LVU177
 662 0133 415F     		popq	%r15
 663              		.cfi_def_cfa_offset 8
 664              	.LVL72:
 665              		.loc 1 221 1 view .LVU178
 666 0135 C3       		ret
 667              		.cfi_endproc
 668              	.LFE55:
 670              		.section	.text.emit_sof,"ax",@progbits
 671              		.p2align 4
 673              	emit_sof:
 674              	.LVL73:
 675              	.LFB59:
 222:fltk-1.3.4-1/jpeg/jcmarker.c **** 
 223:fltk-1.3.4-1/jpeg/jcmarker.c **** 
 224:fltk-1.3.4-1/jpeg/jcmarker.c **** LOCAL(void)
 225:fltk-1.3.4-1/jpeg/jcmarker.c **** emit_dac (j_compress_ptr cinfo)
 226:fltk-1.3.4-1/jpeg/jcmarker.c **** /* Emit a DAC marker */
 227:fltk-1.3.4-1/jpeg/jcmarker.c **** /* Since the useful info is so small, we want to emit all the tables in */
 228:fltk-1.3.4-1/jpeg/jcmarker.c **** /* one DAC marker.  Therefore this routine does its own scan of the table. */
 229:fltk-1.3.4-1/jpeg/jcmarker.c **** {
 230:fltk-1.3.4-1/jpeg/jcmarker.c **** #ifdef C_ARITH_CODING_SUPPORTED
 231:fltk-1.3.4-1/jpeg/jcmarker.c ****   char dc_in_use[NUM_ARITH_TBLS];
 232:fltk-1.3.4-1/jpeg/jcmarker.c ****   char ac_in_use[NUM_ARITH_TBLS];
 233:fltk-1.3.4-1/jpeg/jcmarker.c ****   int length, i;
 234:fltk-1.3.4-1/jpeg/jcmarker.c ****   jpeg_component_info *compptr;
 235:fltk-1.3.4-1/jpeg/jcmarker.c **** 
 236:fltk-1.3.4-1/jpeg/jcmarker.c ****   for (i = 0; i < NUM_ARITH_TBLS; i++)
 237:fltk-1.3.4-1/jpeg/jcmarker.c ****     dc_in_use[i] = ac_in_use[i] = 0;
 238:fltk-1.3.4-1/jpeg/jcmarker.c **** 
 239:fltk-1.3.4-1/jpeg/jcmarker.c ****   for (i = 0; i < cinfo->comps_in_scan; i++) {
 240:fltk-1.3.4-1/jpeg/jcmarker.c ****     compptr = cinfo->cur_comp_info[i];
 241:fltk-1.3.4-1/jpeg/jcmarker.c ****     /* DC needs no table for refinement scan */
 242:fltk-1.3.4-1/jpeg/jcmarker.c ****     if (cinfo->Ss == 0 && cinfo->Ah == 0)
 243:fltk-1.3.4-1/jpeg/jcmarker.c ****       dc_in_use[compptr->dc_tbl_no] = 1;
 244:fltk-1.3.4-1/jpeg/jcmarker.c ****     /* AC needs no table when not present */
 245:fltk-1.3.4-1/jpeg/jcmarker.c ****     if (cinfo->Se)
 246:fltk-1.3.4-1/jpeg/jcmarker.c ****       ac_in_use[compptr->ac_tbl_no] = 1;
 247:fltk-1.3.4-1/jpeg/jcmarker.c ****   }
 248:fltk-1.3.4-1/jpeg/jcmarker.c **** 
 249:fltk-1.3.4-1/jpeg/jcmarker.c ****   length = 0;
 250:fltk-1.3.4-1/jpeg/jcmarker.c ****   for (i = 0; i < NUM_ARITH_TBLS; i++)
 251:fltk-1.3.4-1/jpeg/jcmarker.c ****     length += dc_in_use[i] + ac_in_use[i];
 252:fltk-1.3.4-1/jpeg/jcmarker.c **** 
 253:fltk-1.3.4-1/jpeg/jcmarker.c ****   if (length) {
 254:fltk-1.3.4-1/jpeg/jcmarker.c ****     emit_marker(cinfo, M_DAC);
 255:fltk-1.3.4-1/jpeg/jcmarker.c **** 
 256:fltk-1.3.4-1/jpeg/jcmarker.c ****     emit_2bytes(cinfo, length*2 + 2);
 257:fltk-1.3.4-1/jpeg/jcmarker.c **** 
 258:fltk-1.3.4-1/jpeg/jcmarker.c ****     for (i = 0; i < NUM_ARITH_TBLS; i++) {
 259:fltk-1.3.4-1/jpeg/jcmarker.c ****       if (dc_in_use[i]) {
 260:fltk-1.3.4-1/jpeg/jcmarker.c **** 	emit_byte(cinfo, i);
 261:fltk-1.3.4-1/jpeg/jcmarker.c **** 	emit_byte(cinfo, cinfo->arith_dc_L[i] + (cinfo->arith_dc_U[i]<<4));
 262:fltk-1.3.4-1/jpeg/jcmarker.c ****       }
 263:fltk-1.3.4-1/jpeg/jcmarker.c ****       if (ac_in_use[i]) {
 264:fltk-1.3.4-1/jpeg/jcmarker.c **** 	emit_byte(cinfo, i + 0x10);
 265:fltk-1.3.4-1/jpeg/jcmarker.c **** 	emit_byte(cinfo, cinfo->arith_ac_K[i]);
 266:fltk-1.3.4-1/jpeg/jcmarker.c ****       }
 267:fltk-1.3.4-1/jpeg/jcmarker.c ****     }
 268:fltk-1.3.4-1/jpeg/jcmarker.c ****   }
 269:fltk-1.3.4-1/jpeg/jcmarker.c **** #endif /* C_ARITH_CODING_SUPPORTED */
 270:fltk-1.3.4-1/jpeg/jcmarker.c **** }
 271:fltk-1.3.4-1/jpeg/jcmarker.c **** 
 272:fltk-1.3.4-1/jpeg/jcmarker.c **** 
 273:fltk-1.3.4-1/jpeg/jcmarker.c **** LOCAL(void)
 274:fltk-1.3.4-1/jpeg/jcmarker.c **** emit_dri (j_compress_ptr cinfo)
 275:fltk-1.3.4-1/jpeg/jcmarker.c **** /* Emit a DRI marker */
 276:fltk-1.3.4-1/jpeg/jcmarker.c **** {
 277:fltk-1.3.4-1/jpeg/jcmarker.c ****   emit_marker(cinfo, M_DRI);
 278:fltk-1.3.4-1/jpeg/jcmarker.c ****   
 279:fltk-1.3.4-1/jpeg/jcmarker.c ****   emit_2bytes(cinfo, 4);	/* fixed length */
 280:fltk-1.3.4-1/jpeg/jcmarker.c **** 
 281:fltk-1.3.4-1/jpeg/jcmarker.c ****   emit_2bytes(cinfo, (int) cinfo->restart_interval);
 282:fltk-1.3.4-1/jpeg/jcmarker.c **** }
 283:fltk-1.3.4-1/jpeg/jcmarker.c **** 
 284:fltk-1.3.4-1/jpeg/jcmarker.c **** 
 285:fltk-1.3.4-1/jpeg/jcmarker.c **** LOCAL(void)
 286:fltk-1.3.4-1/jpeg/jcmarker.c **** emit_lse_ict (j_compress_ptr cinfo)
 287:fltk-1.3.4-1/jpeg/jcmarker.c **** /* Emit an LSE inverse color transform specification marker */
 288:fltk-1.3.4-1/jpeg/jcmarker.c **** {
 289:fltk-1.3.4-1/jpeg/jcmarker.c ****   /* Support only 1 transform */
 290:fltk-1.3.4-1/jpeg/jcmarker.c ****   if (cinfo->color_transform != JCT_SUBTRACT_GREEN ||
 291:fltk-1.3.4-1/jpeg/jcmarker.c ****       cinfo->num_components < 3)
 292:fltk-1.3.4-1/jpeg/jcmarker.c ****     ERREXIT(cinfo, JERR_CONVERSION_NOTIMPL);
 293:fltk-1.3.4-1/jpeg/jcmarker.c **** 
 294:fltk-1.3.4-1/jpeg/jcmarker.c ****   emit_marker(cinfo, M_JPG8);
 295:fltk-1.3.4-1/jpeg/jcmarker.c ****   
 296:fltk-1.3.4-1/jpeg/jcmarker.c ****   emit_2bytes(cinfo, 24);	/* fixed length */
 297:fltk-1.3.4-1/jpeg/jcmarker.c **** 
 298:fltk-1.3.4-1/jpeg/jcmarker.c ****   emit_byte(cinfo, 0x0D);	/* ID inverse transform specification */
 299:fltk-1.3.4-1/jpeg/jcmarker.c ****   emit_2bytes(cinfo, MAXJSAMPLE);	/* MAXTRANS */
 300:fltk-1.3.4-1/jpeg/jcmarker.c ****   emit_byte(cinfo, 3);		/* Nt=3 */
 301:fltk-1.3.4-1/jpeg/jcmarker.c ****   emit_byte(cinfo, cinfo->comp_info[1].component_id);
 302:fltk-1.3.4-1/jpeg/jcmarker.c ****   emit_byte(cinfo, cinfo->comp_info[0].component_id);
 303:fltk-1.3.4-1/jpeg/jcmarker.c ****   emit_byte(cinfo, cinfo->comp_info[2].component_id);
 304:fltk-1.3.4-1/jpeg/jcmarker.c ****   emit_byte(cinfo, 0x80);	/* F1: CENTER1=1, NORM1=0 */
 305:fltk-1.3.4-1/jpeg/jcmarker.c ****   emit_2bytes(cinfo, 0);	/* A(1,1)=0 */
 306:fltk-1.3.4-1/jpeg/jcmarker.c ****   emit_2bytes(cinfo, 0);	/* A(1,2)=0 */
 307:fltk-1.3.4-1/jpeg/jcmarker.c ****   emit_byte(cinfo, 0);		/* F2: CENTER2=0, NORM2=0 */
 308:fltk-1.3.4-1/jpeg/jcmarker.c ****   emit_2bytes(cinfo, 1);	/* A(2,1)=1 */
 309:fltk-1.3.4-1/jpeg/jcmarker.c ****   emit_2bytes(cinfo, 0);	/* A(2,2)=0 */
 310:fltk-1.3.4-1/jpeg/jcmarker.c ****   emit_byte(cinfo, 0);		/* F3: CENTER3=0, NORM3=0 */
 311:fltk-1.3.4-1/jpeg/jcmarker.c ****   emit_2bytes(cinfo, 1);	/* A(3,1)=1 */
 312:fltk-1.3.4-1/jpeg/jcmarker.c ****   emit_2bytes(cinfo, 0);	/* A(3,2)=0 */
 313:fltk-1.3.4-1/jpeg/jcmarker.c **** }
 314:fltk-1.3.4-1/jpeg/jcmarker.c **** 
 315:fltk-1.3.4-1/jpeg/jcmarker.c **** 
 316:fltk-1.3.4-1/jpeg/jcmarker.c **** LOCAL(void)
 317:fltk-1.3.4-1/jpeg/jcmarker.c **** emit_sof (j_compress_ptr cinfo, JPEG_MARKER code)
 318:fltk-1.3.4-1/jpeg/jcmarker.c **** /* Emit a SOF marker */
 319:fltk-1.3.4-1/jpeg/jcmarker.c **** {
 676              		.loc 1 319 1 is_stmt 1 view -0
 677              		.cfi_startproc
 320:fltk-1.3.4-1/jpeg/jcmarker.c ****   int ci;
 678              		.loc 1 320 3 view .LVU180
 321:fltk-1.3.4-1/jpeg/jcmarker.c ****   jpeg_component_info *compptr;
 679              		.loc 1 321 3 view .LVU181
 322:fltk-1.3.4-1/jpeg/jcmarker.c ****   
 323:fltk-1.3.4-1/jpeg/jcmarker.c ****   emit_marker(cinfo, code);
 680              		.loc 1 323 3 view .LVU182
 319:fltk-1.3.4-1/jpeg/jcmarker.c ****   int ci;
 681              		.loc 1 319 1 is_stmt 0 view .LVU183
 682 0000 4154     		pushq	%r12
 683              		.cfi_def_cfa_offset 16
 684              		.cfi_offset 12, -16
 685 0002 55       		pushq	%rbp
 686              		.cfi_def_cfa_offset 24
 687              		.cfi_offset 6, -24
 688 0003 89F5     		movl	%esi, %ebp
 689              	.LBB81:
 690              	.LBB82:
 127:fltk-1.3.4-1/jpeg/jcmarker.c ****   emit_byte(cinfo, (int) mark);
 691              		.loc 1 127 3 view .LVU184
 692 0005 BEFF0000 		movl	$255, %esi
 692      00
 693              	.LVL74:
 127:fltk-1.3.4-1/jpeg/jcmarker.c ****   emit_byte(cinfo, (int) mark);
 694              		.loc 1 127 3 view .LVU185
 695              	.LBE82:
 696              	.LBE81:
 319:fltk-1.3.4-1/jpeg/jcmarker.c ****   int ci;
 697              		.loc 1 319 1 view .LVU186
 698 000a 53       		pushq	%rbx
 699              		.cfi_def_cfa_offset 32
 700              		.cfi_offset 3, -32
 319:fltk-1.3.4-1/jpeg/jcmarker.c ****   int ci;
 701              		.loc 1 319 1 view .LVU187
 702 000b 4889FB   		movq	%rdi, %rbx
 703              	.LVL75:
 704              	.LBB84:
 705              	.LBI81:
 124:fltk-1.3.4-1/jpeg/jcmarker.c **** /* Emit a marker code */
 706              		.loc 1 124 1 is_stmt 1 view .LVU188
 707              	.LBB83:
 127:fltk-1.3.4-1/jpeg/jcmarker.c ****   emit_byte(cinfo, (int) mark);
 708              		.loc 1 127 3 view .LVU189
 709 000e E8000000 		call	emit_byte
 709      00
 710              	.LVL76:
 128:fltk-1.3.4-1/jpeg/jcmarker.c **** }
 711              		.loc 1 128 3 view .LVU190
 712 0013 89EE     		movl	%ebp, %esi
 713 0015 4889DF   		movq	%rbx, %rdi
 714 0018 E8000000 		call	emit_byte
 714      00
 715              	.LVL77:
 128:fltk-1.3.4-1/jpeg/jcmarker.c **** }
 716              		.loc 1 128 3 is_stmt 0 view .LVU191
 717              	.LBE83:
 718              	.LBE84:
 324:fltk-1.3.4-1/jpeg/jcmarker.c ****   
 325:fltk-1.3.4-1/jpeg/jcmarker.c ****   emit_2bytes(cinfo, 3 * cinfo->num_components + 2 + 5 + 1); /* length */
 719              		.loc 1 325 3 is_stmt 1 view .LVU192
 720              		.loc 1 325 24 is_stmt 0 view .LVU193
 721 001d 8B435C   		movl	92(%rbx), %eax
 722              		.loc 1 325 3 view .LVU194
 723 0020 4889DF   		movq	%rbx, %rdi
 724 0023 8D744008 		leal	8(%rax,%rax,2), %esi
 725 0027 E8000000 		call	emit_2bytes
 725      00
 726              	.LVL78:
 326:fltk-1.3.4-1/jpeg/jcmarker.c **** 
 327:fltk-1.3.4-1/jpeg/jcmarker.c ****   /* Make sure image isn't bigger than SOF field can handle */
 328:fltk-1.3.4-1/jpeg/jcmarker.c ****   if ((long) cinfo->jpeg_height > 65535L ||
 727              		.loc 1 328 3 is_stmt 1 view .LVU195
 728              		.loc 1 328 6 is_stmt 0 view .LVU196
 729 002c 817B54FF 		cmpl	$65535, 84(%rbx)
 729      FF0000
 730 0033 0F878700 		ja	.L59
 730      0000
 731              		.loc 1 328 42 discriminator 1 view .LVU197
 732 0039 817B50FF 		cmpl	$65535, 80(%rbx)
 732      FF0000
 733 0040 777E     		ja	.L59
 734              	.L60:
 329:fltk-1.3.4-1/jpeg/jcmarker.c ****       (long) cinfo->jpeg_width > 65535L)
 330:fltk-1.3.4-1/jpeg/jcmarker.c ****     ERREXIT1(cinfo, JERR_IMAGE_TOO_BIG, (unsigned int) 65535);
 331:fltk-1.3.4-1/jpeg/jcmarker.c **** 
 332:fltk-1.3.4-1/jpeg/jcmarker.c ****   emit_byte(cinfo, cinfo->data_precision);
 735              		.loc 1 332 3 is_stmt 1 view .LVU198
 736 0042 8B7358   		movl	88(%rbx), %esi
 737 0045 4889DF   		movq	%rbx, %rdi
 738 0048 E8000000 		call	emit_byte
 738      00
 739              	.LVL79:
 333:fltk-1.3.4-1/jpeg/jcmarker.c ****   emit_2bytes(cinfo, (int) cinfo->jpeg_height);
 740              		.loc 1 333 3 view .LVU199
 741 004d 8B7354   		movl	84(%rbx), %esi
 742 0050 4889DF   		movq	%rbx, %rdi
 743 0053 E8000000 		call	emit_2bytes
 743      00
 744              	.LVL80:
 334:fltk-1.3.4-1/jpeg/jcmarker.c ****   emit_2bytes(cinfo, (int) cinfo->jpeg_width);
 745              		.loc 1 334 3 view .LVU200
 746 0058 8B7350   		movl	80(%rbx), %esi
 747 005b 4889DF   		movq	%rbx, %rdi
 748 005e E8000000 		call	emit_2bytes
 748      00
 749              	.LVL81:
 335:fltk-1.3.4-1/jpeg/jcmarker.c **** 
 336:fltk-1.3.4-1/jpeg/jcmarker.c ****   emit_byte(cinfo, cinfo->num_components);
 750              		.loc 1 336 3 view .LVU201
 751 0063 8B735C   		movl	92(%rbx), %esi
 752 0066 4889DF   		movq	%rbx, %rdi
 753 0069 E8000000 		call	emit_byte
 753      00
 754              	.LVL82:
 337:fltk-1.3.4-1/jpeg/jcmarker.c **** 
 338:fltk-1.3.4-1/jpeg/jcmarker.c ****   for (ci = 0, compptr = cinfo->comp_info; ci < cinfo->num_components;
 755              		.loc 1 338 3 view .LVU202
 756              		.loc 1 338 3 is_stmt 0 view .LVU203
 757 006e 8B435C   		movl	92(%rbx), %eax
 758              		.loc 1 338 24 view .LVU204
 759 0071 488B6B68 		movq	104(%rbx), %rbp
 760              	.LVL83:
 761              		.loc 1 338 44 is_stmt 1 view .LVU205
 762              		.loc 1 338 3 is_stmt 0 view .LVU206
 763 0075 85C0     		testl	%eax, %eax
 764 0077 7E3C     		jle	.L58
 765              		.loc 1 338 11 view .LVU207
 766 0079 4531E4   		xorl	%r12d, %r12d
 767              	.LVL84:
 768 007c 0F1F4000 		.p2align 4,,10
 769              		.p2align 3
 770              	.L62:
 339:fltk-1.3.4-1/jpeg/jcmarker.c ****        ci++, compptr++) {
 340:fltk-1.3.4-1/jpeg/jcmarker.c ****     emit_byte(cinfo, compptr->component_id);
 771              		.loc 1 340 5 is_stmt 1 view .LVU208
 772 0080 8B7500   		movl	0(%rbp), %esi
 773 0083 4889DF   		movq	%rbx, %rdi
 339:fltk-1.3.4-1/jpeg/jcmarker.c ****        ci++, compptr++) {
 774              		.loc 1 339 10 is_stmt 0 view .LVU209
 775 0086 4183C401 		addl	$1, %r12d
 776              	.LVL85:
 339:fltk-1.3.4-1/jpeg/jcmarker.c ****        ci++, compptr++) {
 777              		.loc 1 339 21 view .LVU210
 778 008a 4883C560 		addq	$96, %rbp
 779              	.LVL86:
 780              		.loc 1 340 5 view .LVU211
 781 008e E8000000 		call	emit_byte
 781      00
 782              	.LVL87:
 341:fltk-1.3.4-1/jpeg/jcmarker.c ****     emit_byte(cinfo, (compptr->h_samp_factor << 4) + compptr->v_samp_factor);
 783              		.loc 1 341 5 is_stmt 1 view .LVU212
 784              		.loc 1 341 46 is_stmt 0 view .LVU213
 785 0093 8B75A8   		movl	-88(%rbp), %esi
 786              		.loc 1 341 5 view .LVU214
 787 0096 4889DF   		movq	%rbx, %rdi
 788              		.loc 1 341 46 view .LVU215
 789 0099 C1E604   		sall	$4, %esi
 790              		.loc 1 341 5 view .LVU216
 791 009c 0375AC   		addl	-84(%rbp), %esi
 792 009f E8000000 		call	emit_byte
 792      00
 793              	.LVL88:
 342:fltk-1.3.4-1/jpeg/jcmarker.c ****     emit_byte(cinfo, compptr->quant_tbl_no);
 794              		.loc 1 342 5 is_stmt 1 view .LVU217
 795 00a4 8B75B0   		movl	-80(%rbp), %esi
 796 00a7 4889DF   		movq	%rbx, %rdi
 797 00aa E8000000 		call	emit_byte
 797      00
 798              	.LVL89:
 339:fltk-1.3.4-1/jpeg/jcmarker.c ****        ci++, compptr++) {
 799              		.loc 1 339 8 view .LVU218
 338:fltk-1.3.4-1/jpeg/jcmarker.c ****        ci++, compptr++) {
 800              		.loc 1 338 44 view .LVU219
 338:fltk-1.3.4-1/jpeg/jcmarker.c ****        ci++, compptr++) {
 801              		.loc 1 338 3 is_stmt 0 view .LVU220
 802 00af 4439635C 		cmpl	%r12d, 92(%rbx)
 803 00b3 7FCB     		jg	.L62
 804              	.LVL90:
 805              	.L58:
 343:fltk-1.3.4-1/jpeg/jcmarker.c ****   }
 344:fltk-1.3.4-1/jpeg/jcmarker.c **** }
 806              		.loc 1 344 1 view .LVU221
 807 00b5 5B       		popq	%rbx
 808              		.cfi_remember_state
 809              		.cfi_def_cfa_offset 24
 810              	.LVL91:
 811              		.loc 1 344 1 view .LVU222
 812 00b6 5D       		popq	%rbp
 813              		.cfi_def_cfa_offset 16
 814              	.LVL92:
 815              		.loc 1 344 1 view .LVU223
 816 00b7 415C     		popq	%r12
 817              		.cfi_def_cfa_offset 8
 818 00b9 C3       		ret
 819              	.LVL93:
 820 00ba 660F1F44 		.p2align 4,,10
 820      0000
 821              		.p2align 3
 822              	.L59:
 823              		.cfi_restore_state
 330:fltk-1.3.4-1/jpeg/jcmarker.c **** 
 824              		.loc 1 330 5 is_stmt 1 view .LVU224
 825 00c0 488B03   		movq	(%rbx), %rax
 826 00c3 4889DF   		movq	%rbx, %rdi
 827 00c6 C740282A 		movl	$42, 40(%rax)
 827      000000
 828 00cd 488B03   		movq	(%rbx), %rax
 829 00d0 C7402CFF 		movl	$65535, 44(%rax)
 829      FF0000
 830 00d7 488B03   		movq	(%rbx), %rax
 831 00da FF10     		call	*(%rax)
 832              	.LVL94:
 833 00dc E961FFFF 		jmp	.L60
 833      FF
 834              		.cfi_endproc
 835              	.LFE59:
 837              		.section	.text.write_scan_header,"ax",@progbits
 838              		.p2align 4
 840              	write_scan_header:
 841              	.LVL95:
 842              	.LFB68:
 345:fltk-1.3.4-1/jpeg/jcmarker.c **** 
 346:fltk-1.3.4-1/jpeg/jcmarker.c **** 
 347:fltk-1.3.4-1/jpeg/jcmarker.c **** LOCAL(void)
 348:fltk-1.3.4-1/jpeg/jcmarker.c **** emit_sos (j_compress_ptr cinfo)
 349:fltk-1.3.4-1/jpeg/jcmarker.c **** /* Emit a SOS marker */
 350:fltk-1.3.4-1/jpeg/jcmarker.c **** {
 351:fltk-1.3.4-1/jpeg/jcmarker.c ****   int i, td, ta;
 352:fltk-1.3.4-1/jpeg/jcmarker.c ****   jpeg_component_info *compptr;
 353:fltk-1.3.4-1/jpeg/jcmarker.c ****   
 354:fltk-1.3.4-1/jpeg/jcmarker.c ****   emit_marker(cinfo, M_SOS);
 355:fltk-1.3.4-1/jpeg/jcmarker.c ****   
 356:fltk-1.3.4-1/jpeg/jcmarker.c ****   emit_2bytes(cinfo, 2 * cinfo->comps_in_scan + 2 + 1 + 3); /* length */
 357:fltk-1.3.4-1/jpeg/jcmarker.c ****   
 358:fltk-1.3.4-1/jpeg/jcmarker.c ****   emit_byte(cinfo, cinfo->comps_in_scan);
 359:fltk-1.3.4-1/jpeg/jcmarker.c ****   
 360:fltk-1.3.4-1/jpeg/jcmarker.c ****   for (i = 0; i < cinfo->comps_in_scan; i++) {
 361:fltk-1.3.4-1/jpeg/jcmarker.c ****     compptr = cinfo->cur_comp_info[i];
 362:fltk-1.3.4-1/jpeg/jcmarker.c ****     emit_byte(cinfo, compptr->component_id);
 363:fltk-1.3.4-1/jpeg/jcmarker.c **** 
 364:fltk-1.3.4-1/jpeg/jcmarker.c ****     /* We emit 0 for unused field(s); this is recommended by the P&M text
 365:fltk-1.3.4-1/jpeg/jcmarker.c ****      * but does not seem to be specified in the standard.
 366:fltk-1.3.4-1/jpeg/jcmarker.c ****      */
 367:fltk-1.3.4-1/jpeg/jcmarker.c **** 
 368:fltk-1.3.4-1/jpeg/jcmarker.c ****     /* DC needs no table for refinement scan */
 369:fltk-1.3.4-1/jpeg/jcmarker.c ****     td = cinfo->Ss == 0 && cinfo->Ah == 0 ? compptr->dc_tbl_no : 0;
 370:fltk-1.3.4-1/jpeg/jcmarker.c ****     /* AC needs no table when not present */
 371:fltk-1.3.4-1/jpeg/jcmarker.c ****     ta = cinfo->Se ? compptr->ac_tbl_no : 0;
 372:fltk-1.3.4-1/jpeg/jcmarker.c **** 
 373:fltk-1.3.4-1/jpeg/jcmarker.c ****     emit_byte(cinfo, (td << 4) + ta);
 374:fltk-1.3.4-1/jpeg/jcmarker.c ****   }
 375:fltk-1.3.4-1/jpeg/jcmarker.c **** 
 376:fltk-1.3.4-1/jpeg/jcmarker.c ****   emit_byte(cinfo, cinfo->Ss);
 377:fltk-1.3.4-1/jpeg/jcmarker.c ****   emit_byte(cinfo, cinfo->Se);
 378:fltk-1.3.4-1/jpeg/jcmarker.c ****   emit_byte(cinfo, (cinfo->Ah << 4) + cinfo->Al);
 379:fltk-1.3.4-1/jpeg/jcmarker.c **** }
 380:fltk-1.3.4-1/jpeg/jcmarker.c **** 
 381:fltk-1.3.4-1/jpeg/jcmarker.c **** 
 382:fltk-1.3.4-1/jpeg/jcmarker.c **** LOCAL(void)
 383:fltk-1.3.4-1/jpeg/jcmarker.c **** emit_pseudo_sos (j_compress_ptr cinfo)
 384:fltk-1.3.4-1/jpeg/jcmarker.c **** /* Emit a pseudo SOS marker */
 385:fltk-1.3.4-1/jpeg/jcmarker.c **** {
 386:fltk-1.3.4-1/jpeg/jcmarker.c ****   emit_marker(cinfo, M_SOS);
 387:fltk-1.3.4-1/jpeg/jcmarker.c ****   
 388:fltk-1.3.4-1/jpeg/jcmarker.c ****   emit_2bytes(cinfo, 2 + 1 + 3); /* length */
 389:fltk-1.3.4-1/jpeg/jcmarker.c ****   
 390:fltk-1.3.4-1/jpeg/jcmarker.c ****   emit_byte(cinfo, 0); /* Ns */
 391:fltk-1.3.4-1/jpeg/jcmarker.c **** 
 392:fltk-1.3.4-1/jpeg/jcmarker.c ****   emit_byte(cinfo, 0); /* Ss */
 393:fltk-1.3.4-1/jpeg/jcmarker.c ****   emit_byte(cinfo, cinfo->block_size * cinfo->block_size - 1); /* Se */
 394:fltk-1.3.4-1/jpeg/jcmarker.c ****   emit_byte(cinfo, 0); /* Ah/Al */
 395:fltk-1.3.4-1/jpeg/jcmarker.c **** }
 396:fltk-1.3.4-1/jpeg/jcmarker.c **** 
 397:fltk-1.3.4-1/jpeg/jcmarker.c **** 
 398:fltk-1.3.4-1/jpeg/jcmarker.c **** LOCAL(void)
 399:fltk-1.3.4-1/jpeg/jcmarker.c **** emit_jfif_app0 (j_compress_ptr cinfo)
 400:fltk-1.3.4-1/jpeg/jcmarker.c **** /* Emit a JFIF-compliant APP0 marker */
 401:fltk-1.3.4-1/jpeg/jcmarker.c **** {
 402:fltk-1.3.4-1/jpeg/jcmarker.c ****   /*
 403:fltk-1.3.4-1/jpeg/jcmarker.c ****    * Length of APP0 block	(2 bytes)
 404:fltk-1.3.4-1/jpeg/jcmarker.c ****    * Block ID			(4 bytes - ASCII "JFIF")
 405:fltk-1.3.4-1/jpeg/jcmarker.c ****    * Zero byte			(1 byte to terminate the ID string)
 406:fltk-1.3.4-1/jpeg/jcmarker.c ****    * Version Major, Minor	(2 bytes - major first)
 407:fltk-1.3.4-1/jpeg/jcmarker.c ****    * Units			(1 byte - 0x00 = none, 0x01 = inch, 0x02 = cm)
 408:fltk-1.3.4-1/jpeg/jcmarker.c ****    * Xdpu			(2 bytes - dots per unit horizontal)
 409:fltk-1.3.4-1/jpeg/jcmarker.c ****    * Ydpu			(2 bytes - dots per unit vertical)
 410:fltk-1.3.4-1/jpeg/jcmarker.c ****    * Thumbnail X size		(1 byte)
 411:fltk-1.3.4-1/jpeg/jcmarker.c ****    * Thumbnail Y size		(1 byte)
 412:fltk-1.3.4-1/jpeg/jcmarker.c ****    */
 413:fltk-1.3.4-1/jpeg/jcmarker.c ****   
 414:fltk-1.3.4-1/jpeg/jcmarker.c ****   emit_marker(cinfo, M_APP0);
 415:fltk-1.3.4-1/jpeg/jcmarker.c ****   
 416:fltk-1.3.4-1/jpeg/jcmarker.c ****   emit_2bytes(cinfo, 2 + 4 + 1 + 2 + 1 + 2 + 2 + 1 + 1); /* length */
 417:fltk-1.3.4-1/jpeg/jcmarker.c **** 
 418:fltk-1.3.4-1/jpeg/jcmarker.c ****   emit_byte(cinfo, 0x4A);	/* Identifier: ASCII "JFIF" */
 419:fltk-1.3.4-1/jpeg/jcmarker.c ****   emit_byte(cinfo, 0x46);
 420:fltk-1.3.4-1/jpeg/jcmarker.c ****   emit_byte(cinfo, 0x49);
 421:fltk-1.3.4-1/jpeg/jcmarker.c ****   emit_byte(cinfo, 0x46);
 422:fltk-1.3.4-1/jpeg/jcmarker.c ****   emit_byte(cinfo, 0);
 423:fltk-1.3.4-1/jpeg/jcmarker.c ****   emit_byte(cinfo, cinfo->JFIF_major_version); /* Version fields */
 424:fltk-1.3.4-1/jpeg/jcmarker.c ****   emit_byte(cinfo, cinfo->JFIF_minor_version);
 425:fltk-1.3.4-1/jpeg/jcmarker.c ****   emit_byte(cinfo, cinfo->density_unit); /* Pixel size information */
 426:fltk-1.3.4-1/jpeg/jcmarker.c ****   emit_2bytes(cinfo, (int) cinfo->X_density);
 427:fltk-1.3.4-1/jpeg/jcmarker.c ****   emit_2bytes(cinfo, (int) cinfo->Y_density);
 428:fltk-1.3.4-1/jpeg/jcmarker.c ****   emit_byte(cinfo, 0);		/* No thumbnail image */
 429:fltk-1.3.4-1/jpeg/jcmarker.c ****   emit_byte(cinfo, 0);
 430:fltk-1.3.4-1/jpeg/jcmarker.c **** }
 431:fltk-1.3.4-1/jpeg/jcmarker.c **** 
 432:fltk-1.3.4-1/jpeg/jcmarker.c **** 
 433:fltk-1.3.4-1/jpeg/jcmarker.c **** LOCAL(void)
 434:fltk-1.3.4-1/jpeg/jcmarker.c **** emit_adobe_app14 (j_compress_ptr cinfo)
 435:fltk-1.3.4-1/jpeg/jcmarker.c **** /* Emit an Adobe APP14 marker */
 436:fltk-1.3.4-1/jpeg/jcmarker.c **** {
 437:fltk-1.3.4-1/jpeg/jcmarker.c ****   /*
 438:fltk-1.3.4-1/jpeg/jcmarker.c ****    * Length of APP14 block	(2 bytes)
 439:fltk-1.3.4-1/jpeg/jcmarker.c ****    * Block ID			(5 bytes - ASCII "Adobe")
 440:fltk-1.3.4-1/jpeg/jcmarker.c ****    * Version Number		(2 bytes - currently 100)
 441:fltk-1.3.4-1/jpeg/jcmarker.c ****    * Flags0			(2 bytes - currently 0)
 442:fltk-1.3.4-1/jpeg/jcmarker.c ****    * Flags1			(2 bytes - currently 0)
 443:fltk-1.3.4-1/jpeg/jcmarker.c ****    * Color transform		(1 byte)
 444:fltk-1.3.4-1/jpeg/jcmarker.c ****    *
 445:fltk-1.3.4-1/jpeg/jcmarker.c ****    * Although Adobe TN 5116 mentions Version = 101, all the Adobe files
 446:fltk-1.3.4-1/jpeg/jcmarker.c ****    * now in circulation seem to use Version = 100, so that's what we write.
 447:fltk-1.3.4-1/jpeg/jcmarker.c ****    *
 448:fltk-1.3.4-1/jpeg/jcmarker.c ****    * We write the color transform byte as 1 if the JPEG color space is
 449:fltk-1.3.4-1/jpeg/jcmarker.c ****    * YCbCr, 2 if it's YCCK, 0 otherwise.  Adobe's definition has to do with
 450:fltk-1.3.4-1/jpeg/jcmarker.c ****    * whether the encoder performed a transformation, which is pretty useless.
 451:fltk-1.3.4-1/jpeg/jcmarker.c ****    */
 452:fltk-1.3.4-1/jpeg/jcmarker.c ****   
 453:fltk-1.3.4-1/jpeg/jcmarker.c ****   emit_marker(cinfo, M_APP14);
 454:fltk-1.3.4-1/jpeg/jcmarker.c ****   
 455:fltk-1.3.4-1/jpeg/jcmarker.c ****   emit_2bytes(cinfo, 2 + 5 + 2 + 2 + 2 + 1); /* length */
 456:fltk-1.3.4-1/jpeg/jcmarker.c **** 
 457:fltk-1.3.4-1/jpeg/jcmarker.c ****   emit_byte(cinfo, 0x41);	/* Identifier: ASCII "Adobe" */
 458:fltk-1.3.4-1/jpeg/jcmarker.c ****   emit_byte(cinfo, 0x64);
 459:fltk-1.3.4-1/jpeg/jcmarker.c ****   emit_byte(cinfo, 0x6F);
 460:fltk-1.3.4-1/jpeg/jcmarker.c ****   emit_byte(cinfo, 0x62);
 461:fltk-1.3.4-1/jpeg/jcmarker.c ****   emit_byte(cinfo, 0x65);
 462:fltk-1.3.4-1/jpeg/jcmarker.c ****   emit_2bytes(cinfo, 100);	/* Version */
 463:fltk-1.3.4-1/jpeg/jcmarker.c ****   emit_2bytes(cinfo, 0);	/* Flags0 */
 464:fltk-1.3.4-1/jpeg/jcmarker.c ****   emit_2bytes(cinfo, 0);	/* Flags1 */
 465:fltk-1.3.4-1/jpeg/jcmarker.c ****   switch (cinfo->jpeg_color_space) {
 466:fltk-1.3.4-1/jpeg/jcmarker.c ****   case JCS_YCbCr:
 467:fltk-1.3.4-1/jpeg/jcmarker.c ****     emit_byte(cinfo, 1);	/* Color transform = 1 */
 468:fltk-1.3.4-1/jpeg/jcmarker.c ****     break;
 469:fltk-1.3.4-1/jpeg/jcmarker.c ****   case JCS_YCCK:
 470:fltk-1.3.4-1/jpeg/jcmarker.c ****     emit_byte(cinfo, 2);	/* Color transform = 2 */
 471:fltk-1.3.4-1/jpeg/jcmarker.c ****     break;
 472:fltk-1.3.4-1/jpeg/jcmarker.c ****   default:
 473:fltk-1.3.4-1/jpeg/jcmarker.c ****     emit_byte(cinfo, 0);	/* Color transform = 0 */
 474:fltk-1.3.4-1/jpeg/jcmarker.c ****     break;
 475:fltk-1.3.4-1/jpeg/jcmarker.c ****   }
 476:fltk-1.3.4-1/jpeg/jcmarker.c **** }
 477:fltk-1.3.4-1/jpeg/jcmarker.c **** 
 478:fltk-1.3.4-1/jpeg/jcmarker.c **** 
 479:fltk-1.3.4-1/jpeg/jcmarker.c **** /*
 480:fltk-1.3.4-1/jpeg/jcmarker.c ****  * These routines allow writing an arbitrary marker with parameters.
 481:fltk-1.3.4-1/jpeg/jcmarker.c ****  * The only intended use is to emit COM or APPn markers after calling
 482:fltk-1.3.4-1/jpeg/jcmarker.c ****  * write_file_header and before calling write_frame_header.
 483:fltk-1.3.4-1/jpeg/jcmarker.c ****  * Other uses are not guaranteed to produce desirable results.
 484:fltk-1.3.4-1/jpeg/jcmarker.c ****  * Counting the parameter bytes properly is the caller's responsibility.
 485:fltk-1.3.4-1/jpeg/jcmarker.c ****  */
 486:fltk-1.3.4-1/jpeg/jcmarker.c **** 
 487:fltk-1.3.4-1/jpeg/jcmarker.c **** METHODDEF(void)
 488:fltk-1.3.4-1/jpeg/jcmarker.c **** write_marker_header (j_compress_ptr cinfo, int marker, unsigned int datalen)
 489:fltk-1.3.4-1/jpeg/jcmarker.c **** /* Emit an arbitrary marker header */
 490:fltk-1.3.4-1/jpeg/jcmarker.c **** {
 491:fltk-1.3.4-1/jpeg/jcmarker.c ****   if (datalen > (unsigned int) 65533)		/* safety check */
 492:fltk-1.3.4-1/jpeg/jcmarker.c ****     ERREXIT(cinfo, JERR_BAD_LENGTH);
 493:fltk-1.3.4-1/jpeg/jcmarker.c **** 
 494:fltk-1.3.4-1/jpeg/jcmarker.c ****   emit_marker(cinfo, (JPEG_MARKER) marker);
 495:fltk-1.3.4-1/jpeg/jcmarker.c **** 
 496:fltk-1.3.4-1/jpeg/jcmarker.c ****   emit_2bytes(cinfo, (int) (datalen + 2));	/* total length */
 497:fltk-1.3.4-1/jpeg/jcmarker.c **** }
 498:fltk-1.3.4-1/jpeg/jcmarker.c **** 
 499:fltk-1.3.4-1/jpeg/jcmarker.c **** METHODDEF(void)
 500:fltk-1.3.4-1/jpeg/jcmarker.c **** write_marker_byte (j_compress_ptr cinfo, int val)
 501:fltk-1.3.4-1/jpeg/jcmarker.c **** /* Emit one byte of marker parameters following write_marker_header */
 502:fltk-1.3.4-1/jpeg/jcmarker.c **** {
 503:fltk-1.3.4-1/jpeg/jcmarker.c ****   emit_byte(cinfo, val);
 504:fltk-1.3.4-1/jpeg/jcmarker.c **** }
 505:fltk-1.3.4-1/jpeg/jcmarker.c **** 
 506:fltk-1.3.4-1/jpeg/jcmarker.c **** 
 507:fltk-1.3.4-1/jpeg/jcmarker.c **** /*
 508:fltk-1.3.4-1/jpeg/jcmarker.c ****  * Write datastream header.
 509:fltk-1.3.4-1/jpeg/jcmarker.c ****  * This consists of an SOI and optional APPn markers.
 510:fltk-1.3.4-1/jpeg/jcmarker.c ****  * We recommend use of the JFIF marker, but not the Adobe marker,
 511:fltk-1.3.4-1/jpeg/jcmarker.c ****  * when using YCbCr or grayscale data.  The JFIF marker is also used
 512:fltk-1.3.4-1/jpeg/jcmarker.c ****  * for other standard JPEG colorspaces.  The Adobe marker is helpful
 513:fltk-1.3.4-1/jpeg/jcmarker.c ****  * to distinguish RGB, CMYK, and YCCK colorspaces.
 514:fltk-1.3.4-1/jpeg/jcmarker.c ****  * Note that an application can write additional header markers after
 515:fltk-1.3.4-1/jpeg/jcmarker.c ****  * jpeg_start_compress returns.
 516:fltk-1.3.4-1/jpeg/jcmarker.c ****  */
 517:fltk-1.3.4-1/jpeg/jcmarker.c **** 
 518:fltk-1.3.4-1/jpeg/jcmarker.c **** METHODDEF(void)
 519:fltk-1.3.4-1/jpeg/jcmarker.c **** write_file_header (j_compress_ptr cinfo)
 520:fltk-1.3.4-1/jpeg/jcmarker.c **** {
 521:fltk-1.3.4-1/jpeg/jcmarker.c ****   my_marker_ptr marker = (my_marker_ptr) cinfo->marker;
 522:fltk-1.3.4-1/jpeg/jcmarker.c **** 
 523:fltk-1.3.4-1/jpeg/jcmarker.c ****   emit_marker(cinfo, M_SOI);	/* first the SOI */
 524:fltk-1.3.4-1/jpeg/jcmarker.c **** 
 525:fltk-1.3.4-1/jpeg/jcmarker.c ****   /* SOI is defined to reset restart interval to 0 */
 526:fltk-1.3.4-1/jpeg/jcmarker.c ****   marker->last_restart_interval = 0;
 527:fltk-1.3.4-1/jpeg/jcmarker.c **** 
 528:fltk-1.3.4-1/jpeg/jcmarker.c ****   if (cinfo->write_JFIF_header)	/* next an optional JFIF APP0 */
 529:fltk-1.3.4-1/jpeg/jcmarker.c ****     emit_jfif_app0(cinfo);
 530:fltk-1.3.4-1/jpeg/jcmarker.c ****   if (cinfo->write_Adobe_marker) /* next an optional Adobe APP14 */
 531:fltk-1.3.4-1/jpeg/jcmarker.c ****     emit_adobe_app14(cinfo);
 532:fltk-1.3.4-1/jpeg/jcmarker.c **** }
 533:fltk-1.3.4-1/jpeg/jcmarker.c **** 
 534:fltk-1.3.4-1/jpeg/jcmarker.c **** 
 535:fltk-1.3.4-1/jpeg/jcmarker.c **** /*
 536:fltk-1.3.4-1/jpeg/jcmarker.c ****  * Write frame header.
 537:fltk-1.3.4-1/jpeg/jcmarker.c ****  * This consists of DQT and SOFn markers,
 538:fltk-1.3.4-1/jpeg/jcmarker.c ****  * a conditional LSE marker and a conditional pseudo SOS marker.
 539:fltk-1.3.4-1/jpeg/jcmarker.c ****  * Note that we do not emit the SOF until we have emitted the DQT(s).
 540:fltk-1.3.4-1/jpeg/jcmarker.c ****  * This avoids compatibility problems with incorrect implementations that
 541:fltk-1.3.4-1/jpeg/jcmarker.c ****  * try to error-check the quant table numbers as soon as they see the SOF.
 542:fltk-1.3.4-1/jpeg/jcmarker.c ****  */
 543:fltk-1.3.4-1/jpeg/jcmarker.c **** 
 544:fltk-1.3.4-1/jpeg/jcmarker.c **** METHODDEF(void)
 545:fltk-1.3.4-1/jpeg/jcmarker.c **** write_frame_header (j_compress_ptr cinfo)
 546:fltk-1.3.4-1/jpeg/jcmarker.c **** {
 547:fltk-1.3.4-1/jpeg/jcmarker.c ****   int ci, prec;
 548:fltk-1.3.4-1/jpeg/jcmarker.c ****   boolean is_baseline;
 549:fltk-1.3.4-1/jpeg/jcmarker.c ****   jpeg_component_info *compptr;
 550:fltk-1.3.4-1/jpeg/jcmarker.c ****   
 551:fltk-1.3.4-1/jpeg/jcmarker.c ****   /* Emit DQT for each quantization table.
 552:fltk-1.3.4-1/jpeg/jcmarker.c ****    * Note that emit_dqt() suppresses any duplicate tables.
 553:fltk-1.3.4-1/jpeg/jcmarker.c ****    */
 554:fltk-1.3.4-1/jpeg/jcmarker.c ****   prec = 0;
 555:fltk-1.3.4-1/jpeg/jcmarker.c ****   for (ci = 0, compptr = cinfo->comp_info; ci < cinfo->num_components;
 556:fltk-1.3.4-1/jpeg/jcmarker.c ****        ci++, compptr++) {
 557:fltk-1.3.4-1/jpeg/jcmarker.c ****     prec += emit_dqt(cinfo, compptr->quant_tbl_no);
 558:fltk-1.3.4-1/jpeg/jcmarker.c ****   }
 559:fltk-1.3.4-1/jpeg/jcmarker.c ****   /* now prec is nonzero iff there are any 16-bit quant tables. */
 560:fltk-1.3.4-1/jpeg/jcmarker.c **** 
 561:fltk-1.3.4-1/jpeg/jcmarker.c ****   /* Check for a non-baseline specification.
 562:fltk-1.3.4-1/jpeg/jcmarker.c ****    * Note we assume that Huffman table numbers won't be changed later.
 563:fltk-1.3.4-1/jpeg/jcmarker.c ****    */
 564:fltk-1.3.4-1/jpeg/jcmarker.c ****   if (cinfo->arith_code || cinfo->progressive_mode ||
 565:fltk-1.3.4-1/jpeg/jcmarker.c ****       cinfo->data_precision != 8 || cinfo->block_size != DCTSIZE) {
 566:fltk-1.3.4-1/jpeg/jcmarker.c ****     is_baseline = FALSE;
 567:fltk-1.3.4-1/jpeg/jcmarker.c ****   } else {
 568:fltk-1.3.4-1/jpeg/jcmarker.c ****     is_baseline = TRUE;
 569:fltk-1.3.4-1/jpeg/jcmarker.c ****     for (ci = 0, compptr = cinfo->comp_info; ci < cinfo->num_components;
 570:fltk-1.3.4-1/jpeg/jcmarker.c **** 	 ci++, compptr++) {
 571:fltk-1.3.4-1/jpeg/jcmarker.c ****       if (compptr->dc_tbl_no > 1 || compptr->ac_tbl_no > 1)
 572:fltk-1.3.4-1/jpeg/jcmarker.c **** 	is_baseline = FALSE;
 573:fltk-1.3.4-1/jpeg/jcmarker.c ****     }
 574:fltk-1.3.4-1/jpeg/jcmarker.c ****     if (prec && is_baseline) {
 575:fltk-1.3.4-1/jpeg/jcmarker.c ****       is_baseline = FALSE;
 576:fltk-1.3.4-1/jpeg/jcmarker.c ****       /* If it's baseline except for quantizer size, warn the user */
 577:fltk-1.3.4-1/jpeg/jcmarker.c ****       TRACEMS(cinfo, 0, JTRC_16BIT_TABLES);
 578:fltk-1.3.4-1/jpeg/jcmarker.c ****     }
 579:fltk-1.3.4-1/jpeg/jcmarker.c ****   }
 580:fltk-1.3.4-1/jpeg/jcmarker.c **** 
 581:fltk-1.3.4-1/jpeg/jcmarker.c ****   /* Emit the proper SOF marker */
 582:fltk-1.3.4-1/jpeg/jcmarker.c ****   if (cinfo->arith_code) {
 583:fltk-1.3.4-1/jpeg/jcmarker.c ****     if (cinfo->progressive_mode)
 584:fltk-1.3.4-1/jpeg/jcmarker.c ****       emit_sof(cinfo, M_SOF10); /* SOF code for progressive arithmetic */
 585:fltk-1.3.4-1/jpeg/jcmarker.c ****     else
 586:fltk-1.3.4-1/jpeg/jcmarker.c ****       emit_sof(cinfo, M_SOF9);  /* SOF code for sequential arithmetic */
 587:fltk-1.3.4-1/jpeg/jcmarker.c ****   } else {
 588:fltk-1.3.4-1/jpeg/jcmarker.c ****     if (cinfo->progressive_mode)
 589:fltk-1.3.4-1/jpeg/jcmarker.c ****       emit_sof(cinfo, M_SOF2);	/* SOF code for progressive Huffman */
 590:fltk-1.3.4-1/jpeg/jcmarker.c ****     else if (is_baseline)
 591:fltk-1.3.4-1/jpeg/jcmarker.c ****       emit_sof(cinfo, M_SOF0);	/* SOF code for baseline implementation */
 592:fltk-1.3.4-1/jpeg/jcmarker.c ****     else
 593:fltk-1.3.4-1/jpeg/jcmarker.c ****       emit_sof(cinfo, M_SOF1);	/* SOF code for non-baseline Huffman file */
 594:fltk-1.3.4-1/jpeg/jcmarker.c ****   }
 595:fltk-1.3.4-1/jpeg/jcmarker.c **** 
 596:fltk-1.3.4-1/jpeg/jcmarker.c ****   /* Check to emit LSE inverse color transform specification marker */
 597:fltk-1.3.4-1/jpeg/jcmarker.c ****   if (cinfo->color_transform)
 598:fltk-1.3.4-1/jpeg/jcmarker.c ****     emit_lse_ict(cinfo);
 599:fltk-1.3.4-1/jpeg/jcmarker.c **** 
 600:fltk-1.3.4-1/jpeg/jcmarker.c ****   /* Check to emit pseudo SOS marker */
 601:fltk-1.3.4-1/jpeg/jcmarker.c ****   if (cinfo->progressive_mode && cinfo->block_size != DCTSIZE)
 602:fltk-1.3.4-1/jpeg/jcmarker.c ****     emit_pseudo_sos(cinfo);
 603:fltk-1.3.4-1/jpeg/jcmarker.c **** }
 604:fltk-1.3.4-1/jpeg/jcmarker.c **** 
 605:fltk-1.3.4-1/jpeg/jcmarker.c **** 
 606:fltk-1.3.4-1/jpeg/jcmarker.c **** /*
 607:fltk-1.3.4-1/jpeg/jcmarker.c ****  * Write scan header.
 608:fltk-1.3.4-1/jpeg/jcmarker.c ****  * This consists of DHT or DAC markers, optional DRI, and SOS.
 609:fltk-1.3.4-1/jpeg/jcmarker.c ****  * Compressed data will be written following the SOS.
 610:fltk-1.3.4-1/jpeg/jcmarker.c ****  */
 611:fltk-1.3.4-1/jpeg/jcmarker.c **** 
 612:fltk-1.3.4-1/jpeg/jcmarker.c **** METHODDEF(void)
 613:fltk-1.3.4-1/jpeg/jcmarker.c **** write_scan_header (j_compress_ptr cinfo)
 614:fltk-1.3.4-1/jpeg/jcmarker.c **** {
 843              		.loc 1 614 1 view -0
 844              		.cfi_startproc
 845              		.loc 1 614 1 is_stmt 0 view .LVU226
 846 0000 F30F1EFA 		endbr64
 847 0004 4157     		pushq	%r15
 848              		.cfi_def_cfa_offset 16
 849              		.cfi_offset 15, -16
 850 0006 4156     		pushq	%r14
 851              		.cfi_def_cfa_offset 24
 852              		.cfi_offset 14, -24
 853 0008 4155     		pushq	%r13
 854              		.cfi_def_cfa_offset 32
 855              		.cfi_offset 13, -32
 856 000a 4154     		pushq	%r12
 857              		.cfi_def_cfa_offset 40
 858              		.cfi_offset 12, -40
 859 000c 55       		pushq	%rbp
 860              		.cfi_def_cfa_offset 48
 861              		.cfi_offset 6, -48
 862 000d 4889FD   		movq	%rdi, %rbp
 863 0010 53       		pushq	%rbx
 864              		.cfi_def_cfa_offset 56
 865              		.cfi_offset 3, -56
 866 0011 4883EC38 		subq	$56, %rsp
 867              		.cfi_def_cfa_offset 112
 615:fltk-1.3.4-1/jpeg/jcmarker.c ****   my_marker_ptr marker = (my_marker_ptr) cinfo->marker;
 616:fltk-1.3.4-1/jpeg/jcmarker.c ****   int i;
 617:fltk-1.3.4-1/jpeg/jcmarker.c ****   jpeg_component_info *compptr;
 618:fltk-1.3.4-1/jpeg/jcmarker.c **** 
 619:fltk-1.3.4-1/jpeg/jcmarker.c ****   if (cinfo->arith_code) {
 868              		.loc 1 619 6 view .LVU227
 869 0015 448B9724 		movl	292(%rdi), %r10d
 869      010000
 870 001c 8B977401 		movl	372(%rdi), %edx
 870      0000
 614:fltk-1.3.4-1/jpeg/jcmarker.c ****   my_marker_ptr marker = (my_marker_ptr) cinfo->marker;
 871              		.loc 1 614 1 view .LVU228
 872 0022 64488B04 		movq	%fs:40, %rax
 872      25280000 
 872      00
 873 002b 48894424 		movq	%rax, 40(%rsp)
 873      28
 874 0030 31C0     		xorl	%eax, %eax
 615:fltk-1.3.4-1/jpeg/jcmarker.c ****   my_marker_ptr marker = (my_marker_ptr) cinfo->marker;
 875              		.loc 1 615 3 is_stmt 1 view .LVU229
 615:fltk-1.3.4-1/jpeg/jcmarker.c ****   my_marker_ptr marker = (my_marker_ptr) cinfo->marker;
 876              		.loc 1 615 17 is_stmt 0 view .LVU230
 877 0032 488B9F10 		movq	528(%rdi), %rbx
 877      020000
 878              	.LVL96:
 616:fltk-1.3.4-1/jpeg/jcmarker.c ****   jpeg_component_info *compptr;
 879              		.loc 1 616 3 is_stmt 1 view .LVU231
 617:fltk-1.3.4-1/jpeg/jcmarker.c **** 
 880              		.loc 1 617 3 view .LVU232
 881              		.loc 1 619 3 view .LVU233
 882              		.loc 1 619 6 is_stmt 0 view .LVU234
 883 0039 4585D2   		testl	%r10d, %r10d
 884 003c 0F85E601 		jne	.L90
 884      0000
 885              	.LVL97:
 620:fltk-1.3.4-1/jpeg/jcmarker.c ****     /* Emit arith conditioning info.  We may have some duplication
 621:fltk-1.3.4-1/jpeg/jcmarker.c ****      * if the file has multiple scans, but it's so small it's hardly
 622:fltk-1.3.4-1/jpeg/jcmarker.c ****      * worth worrying about.
 623:fltk-1.3.4-1/jpeg/jcmarker.c ****      */
 624:fltk-1.3.4-1/jpeg/jcmarker.c ****     emit_dac(cinfo);
 625:fltk-1.3.4-1/jpeg/jcmarker.c ****   } else {
 626:fltk-1.3.4-1/jpeg/jcmarker.c ****     /* Emit Huffman tables.
 627:fltk-1.3.4-1/jpeg/jcmarker.c ****      * Note that emit_dht() suppresses any duplicate tables.
 628:fltk-1.3.4-1/jpeg/jcmarker.c ****      */
 629:fltk-1.3.4-1/jpeg/jcmarker.c ****     for (i = 0; i < cinfo->comps_in_scan; i++) {
 886              		.loc 1 629 17 is_stmt 1 view .LVU235
 887              		.loc 1 629 5 is_stmt 0 view .LVU236
 888 0042 4531E4   		xorl	%r12d, %r12d
 889 0045 85D2     		testl	%edx, %edx
 890 0047 7E44     		jle	.L68
 891              	.LVL98:
 892 0049 0F1F8000 		.p2align 4,,10
 892      000000
 893              		.p2align 3
 894              	.L67:
 630:fltk-1.3.4-1/jpeg/jcmarker.c ****       compptr = cinfo->cur_comp_info[i];
 895              		.loc 1 630 7 is_stmt 1 view .LVU237
 631:fltk-1.3.4-1/jpeg/jcmarker.c ****       /* DC needs no table for refinement scan */
 632:fltk-1.3.4-1/jpeg/jcmarker.c ****       if (cinfo->Ss == 0 && cinfo->Ah == 0)
 896              		.loc 1 632 10 is_stmt 0 view .LVU238
 897 0050 448B85CC 		movl	460(%rbp), %r8d
 897      010000
 630:fltk-1.3.4-1/jpeg/jcmarker.c ****       compptr = cinfo->cur_comp_info[i];
 898              		.loc 1 630 15 view .LVU239
 899 0057 4E8BACE5 		movq	376(%rbp,%r12,8), %r13
 899      78010000 
 900              	.LVL99:
 901              		.loc 1 632 7 is_stmt 1 view .LVU240
 902              		.loc 1 632 10 is_stmt 0 view .LVU241
 903 005f 4585C0   		testl	%r8d, %r8d
 904 0062 750E     		jne	.L80
 905              		.loc 1 632 26 discriminator 1 view .LVU242
 906 0064 8BBDD401 		movl	468(%rbp), %edi
 906      0000
 907 006a 85FF     		testl	%edi, %edi
 908 006c 0F849E01 		je	.L106
 908      0000
 909              	.L80:
 633:fltk-1.3.4-1/jpeg/jcmarker.c **** 	emit_dht(cinfo, compptr->dc_tbl_no, FALSE);
 634:fltk-1.3.4-1/jpeg/jcmarker.c ****       /* AC needs no table when not present */
 635:fltk-1.3.4-1/jpeg/jcmarker.c ****       if (cinfo->Se)
 910              		.loc 1 635 7 is_stmt 1 view .LVU243
 911              		.loc 1 635 10 is_stmt 0 view .LVU244
 912 0072 8BB5D001 		movl	464(%rbp), %esi
 912      0000
 913 0078 85F6     		testl	%esi, %esi
 914 007a 0F857001 		jne	.L107
 914      0000
 915              	.L81:
 629:fltk-1.3.4-1/jpeg/jcmarker.c ****       compptr = cinfo->cur_comp_info[i];
 916              		.loc 1 629 43 is_stmt 1 discriminator 2 view .LVU245
 917              	.LVL100:
 629:fltk-1.3.4-1/jpeg/jcmarker.c ****       compptr = cinfo->cur_comp_info[i];
 918              		.loc 1 629 17 discriminator 2 view .LVU246
 919 0080 4983C401 		addq	$1, %r12
 920              	.LVL101:
 629:fltk-1.3.4-1/jpeg/jcmarker.c ****       compptr = cinfo->cur_comp_info[i];
 921              		.loc 1 629 5 is_stmt 0 discriminator 2 view .LVU247
 922 0084 4439A574 		cmpl	%r12d, 372(%rbp)
 922      010000
 923 008b 7FC3     		jg	.L67
 924              	.LVL102:
 925              	.L68:
 636:fltk-1.3.4-1/jpeg/jcmarker.c **** 	emit_dht(cinfo, compptr->ac_tbl_no, TRUE);
 637:fltk-1.3.4-1/jpeg/jcmarker.c ****     }
 638:fltk-1.3.4-1/jpeg/jcmarker.c ****   }
 639:fltk-1.3.4-1/jpeg/jcmarker.c **** 
 640:fltk-1.3.4-1/jpeg/jcmarker.c ****   /* Emit DRI if required --- note that DRI value could change for each scan.
 641:fltk-1.3.4-1/jpeg/jcmarker.c ****    * We avoid wasting space with unnecessary DRIs, however.
 642:fltk-1.3.4-1/jpeg/jcmarker.c ****    */
 643:fltk-1.3.4-1/jpeg/jcmarker.c ****   if (cinfo->restart_interval != marker->last_restart_interval) {
 926              		.loc 1 643 3 is_stmt 1 view .LVU248
 927              		.loc 1 643 6 is_stmt 0 view .LVU249
 928 008d 8B4338   		movl	56(%rbx), %eax
 929 0090 39853C01 		cmpl	%eax, 316(%rbp)
 929      0000
 930 0096 7448     		je	.L83
 644:fltk-1.3.4-1/jpeg/jcmarker.c ****     emit_dri(cinfo);
 931              		.loc 1 644 5 is_stmt 1 view .LVU250
 932              	.LVL103:
 933              	.LBB99:
 934              	.LBI99:
 274:fltk-1.3.4-1/jpeg/jcmarker.c **** /* Emit a DRI marker */
 935              		.loc 1 274 1 view .LVU251
 936              	.LBB100:
 277:fltk-1.3.4-1/jpeg/jcmarker.c ****   
 937              		.loc 1 277 3 view .LVU252
 938              	.LBB101:
 939              	.LBI101:
 124:fltk-1.3.4-1/jpeg/jcmarker.c **** /* Emit a marker code */
 940              		.loc 1 124 1 view .LVU253
 941              	.LBB102:
 127:fltk-1.3.4-1/jpeg/jcmarker.c ****   emit_byte(cinfo, (int) mark);
 942              		.loc 1 127 3 view .LVU254
 943 0098 BEFF0000 		movl	$255, %esi
 943      00
 944 009d 4889EF   		movq	%rbp, %rdi
 945 00a0 E8000000 		call	emit_byte
 945      00
 946              	.LVL104:
 128:fltk-1.3.4-1/jpeg/jcmarker.c **** }
 947              		.loc 1 128 3 view .LVU255
 948 00a5 BEDD0000 		movl	$221, %esi
 948      00
 949 00aa 4889EF   		movq	%rbp, %rdi
 950 00ad E8000000 		call	emit_byte
 950      00
 951              	.LVL105:
 128:fltk-1.3.4-1/jpeg/jcmarker.c **** }
 952              		.loc 1 128 3 is_stmt 0 view .LVU256
 953              	.LBE102:
 954              	.LBE101:
 279:fltk-1.3.4-1/jpeg/jcmarker.c **** 
 955              		.loc 1 279 3 is_stmt 1 view .LVU257
 956              	.LBB103:
 957              	.LBI103:
 133:fltk-1.3.4-1/jpeg/jcmarker.c **** /* Emit a 2-byte integer; these are always MSB first in JPEG files */
 958              		.loc 1 133 1 view .LVU258
 959              	.LBB104:
 136:fltk-1.3.4-1/jpeg/jcmarker.c ****   emit_byte(cinfo, value & 0xFF);
 960              		.loc 1 136 3 view .LVU259
 961 00b2 31F6     		xorl	%esi, %esi
 962 00b4 4889EF   		movq	%rbp, %rdi
 963 00b7 E8000000 		call	emit_byte
 963      00
 964              	.LVL106:
 137:fltk-1.3.4-1/jpeg/jcmarker.c **** }
 965              		.loc 1 137 3 view .LVU260
 966 00bc BE040000 		movl	$4, %esi
 966      00
 967 00c1 4889EF   		movq	%rbp, %rdi
 968 00c4 E8000000 		call	emit_byte
 968      00
 969              	.LVL107:
 137:fltk-1.3.4-1/jpeg/jcmarker.c **** }
 970              		.loc 1 137 3 is_stmt 0 view .LVU261
 971              	.LBE104:
 972              	.LBE103:
 281:fltk-1.3.4-1/jpeg/jcmarker.c **** }
 973              		.loc 1 281 3 is_stmt 1 view .LVU262
 974 00c9 8BB53C01 		movl	316(%rbp), %esi
 974      0000
 975 00cf 4889EF   		movq	%rbp, %rdi
 976 00d2 E8000000 		call	emit_2bytes
 976      00
 977              	.LVL108:
 281:fltk-1.3.4-1/jpeg/jcmarker.c **** }
 978              		.loc 1 281 3 is_stmt 0 view .LVU263
 979              	.LBE100:
 980              	.LBE99:
 645:fltk-1.3.4-1/jpeg/jcmarker.c ****     marker->last_restart_interval = cinfo->restart_interval;
 981              		.loc 1 645 5 is_stmt 1 view .LVU264
 982              		.loc 1 645 42 is_stmt 0 view .LVU265
 983 00d7 8B853C01 		movl	316(%rbp), %eax
 983      0000
 984              		.loc 1 645 35 view .LVU266
 985 00dd 894338   		movl	%eax, 56(%rbx)
 986              	.L83:
 646:fltk-1.3.4-1/jpeg/jcmarker.c ****   }
 647:fltk-1.3.4-1/jpeg/jcmarker.c **** 
 648:fltk-1.3.4-1/jpeg/jcmarker.c ****   emit_sos(cinfo);
 987              		.loc 1 648 3 is_stmt 1 view .LVU267
 988              	.LVL109:
 989              	.LBB105:
 990              	.LBI105:
 348:fltk-1.3.4-1/jpeg/jcmarker.c **** /* Emit a SOS marker */
 991              		.loc 1 348 1 view .LVU268
 992              	.LBB106:
 351:fltk-1.3.4-1/jpeg/jcmarker.c ****   jpeg_component_info *compptr;
 993              		.loc 1 351 3 view .LVU269
 352:fltk-1.3.4-1/jpeg/jcmarker.c ****   
 994              		.loc 1 352 3 view .LVU270
 354:fltk-1.3.4-1/jpeg/jcmarker.c ****   
 995              		.loc 1 354 3 view .LVU271
 996              	.LBB107:
 997              	.LBI107:
 124:fltk-1.3.4-1/jpeg/jcmarker.c **** /* Emit a marker code */
 998              		.loc 1 124 1 view .LVU272
 999              	.LBB108:
 127:fltk-1.3.4-1/jpeg/jcmarker.c ****   emit_byte(cinfo, (int) mark);
 1000              		.loc 1 127 3 view .LVU273
 1001 00e0 BEFF0000 		movl	$255, %esi
 1001      00
 1002 00e5 4889EF   		movq	%rbp, %rdi
 1003              	.LBE108:
 1004              	.LBE107:
 360:fltk-1.3.4-1/jpeg/jcmarker.c ****     compptr = cinfo->cur_comp_info[i];
 1005              		.loc 1 360 3 is_stmt 0 view .LVU274
 1006 00e8 31DB     		xorl	%ebx, %ebx
 1007              	.LVL110:
 1008              	.LBB110:
 1009              	.LBB109:
 127:fltk-1.3.4-1/jpeg/jcmarker.c ****   emit_byte(cinfo, (int) mark);
 1010              		.loc 1 127 3 view .LVU275
 1011 00ea E8000000 		call	emit_byte
 1011      00
 1012              	.LVL111:
 128:fltk-1.3.4-1/jpeg/jcmarker.c **** }
 1013              		.loc 1 128 3 is_stmt 1 view .LVU276
 1014 00ef BEDA0000 		movl	$218, %esi
 1014      00
 1015 00f4 4889EF   		movq	%rbp, %rdi
 1016 00f7 E8000000 		call	emit_byte
 1016      00
 1017              	.LVL112:
 128:fltk-1.3.4-1/jpeg/jcmarker.c **** }
 1018              		.loc 1 128 3 is_stmt 0 view .LVU277
 1019              	.LBE109:
 1020              	.LBE110:
 356:fltk-1.3.4-1/jpeg/jcmarker.c ****   
 1021              		.loc 1 356 3 is_stmt 1 view .LVU278
 356:fltk-1.3.4-1/jpeg/jcmarker.c ****   
 1022              		.loc 1 356 55 is_stmt 0 view .LVU279
 1023 00fc 8B857401 		movl	372(%rbp), %eax
 1023      0000
 356:fltk-1.3.4-1/jpeg/jcmarker.c ****   
 1024              		.loc 1 356 3 view .LVU280
 1025 0102 4889EF   		movq	%rbp, %rdi
 1026 0105 8D740006 		leal	6(%rax,%rax), %esi
 1027 0109 E8000000 		call	emit_2bytes
 1027      00
 1028              	.LVL113:
 358:fltk-1.3.4-1/jpeg/jcmarker.c ****   
 1029              		.loc 1 358 3 is_stmt 1 view .LVU281
 1030 010e 8BB57401 		movl	372(%rbp), %esi
 1030      0000
 1031 0114 4889EF   		movq	%rbp, %rdi
 1032 0117 E8000000 		call	emit_byte
 1032      00
 1033              	.LVL114:
 360:fltk-1.3.4-1/jpeg/jcmarker.c ****     compptr = cinfo->cur_comp_info[i];
 1034              		.loc 1 360 3 view .LVU282
 360:fltk-1.3.4-1/jpeg/jcmarker.c ****     compptr = cinfo->cur_comp_info[i];
 1035              		.loc 1 360 15 view .LVU283
 360:fltk-1.3.4-1/jpeg/jcmarker.c ****     compptr = cinfo->cur_comp_info[i];
 1036              		.loc 1 360 3 is_stmt 0 view .LVU284
 1037 011c 8B8D7401 		movl	372(%rbp), %ecx
 1037      0000
 1038 0122 85C9     		testl	%ecx, %ecx
 1039 0124 7E61     		jle	.L88
 1040              	.LVL115:
 1041 0126 662E0F1F 		.p2align 4,,10
 1041      84000000 
 1041      0000
 1042              		.p2align 3
 1043              	.L84:
 361:fltk-1.3.4-1/jpeg/jcmarker.c ****     emit_byte(cinfo, compptr->component_id);
 1044              		.loc 1 361 5 is_stmt 1 view .LVU285
 361:fltk-1.3.4-1/jpeg/jcmarker.c ****     emit_byte(cinfo, compptr->component_id);
 1045              		.loc 1 361 13 is_stmt 0 view .LVU286
 1046 0130 4C8BA4DD 		movq	376(%rbp,%rbx,8), %r12
 1046      78010000 
 1047              	.LVL116:
 362:fltk-1.3.4-1/jpeg/jcmarker.c **** 
 1048              		.loc 1 362 5 is_stmt 1 view .LVU287
 1049 0138 4889EF   		movq	%rbp, %rdi
 1050 013b 418B3424 		movl	(%r12), %esi
 1051 013f E8000000 		call	emit_byte
 1051      00
 1052              	.LVL117:
 369:fltk-1.3.4-1/jpeg/jcmarker.c ****     /* AC needs no table when not present */
 1053              		.loc 1 369 5 view .LVU288
 369:fltk-1.3.4-1/jpeg/jcmarker.c ****     /* AC needs no table when not present */
 1054              		.loc 1 369 15 is_stmt 0 view .LVU289
 1055 0144 8BB5CC01 		movl	460(%rbp), %esi
 1055      0000
 369:fltk-1.3.4-1/jpeg/jcmarker.c ****     /* AC needs no table when not present */
 1056              		.loc 1 369 64 view .LVU290
 1057 014a 85F6     		testl	%esi, %esi
 1058 014c 0F858E00 		jne	.L93
 1058      0000
 369:fltk-1.3.4-1/jpeg/jcmarker.c ****     /* AC needs no table when not present */
 1059              		.loc 1 369 25 view .LVU291
 1060 0152 8B95D401 		movl	468(%rbp), %edx
 1060      0000
 1061 0158 85D2     		testl	%edx, %edx
 1062 015a 7508     		jne	.L86
 1063 015c 418B7424 		movl	20(%r12), %esi
 1063      14
 1064 0161 C1E604   		sall	$4, %esi
 1065              	.L86:
 371:fltk-1.3.4-1/jpeg/jcmarker.c **** 
 1066              		.loc 1 371 5 is_stmt 1 view .LVU292
 371:fltk-1.3.4-1/jpeg/jcmarker.c **** 
 1067              		.loc 1 371 41 is_stmt 0 view .LVU293
 1068 0164 8B85D001 		movl	464(%rbp), %eax
 1068      0000
 1069 016a 85C0     		testl	%eax, %eax
 1070 016c 7405     		je	.L87
 1071 016e 41037424 		addl	24(%r12), %esi
 1071      18
 1072              	.L87:
 373:fltk-1.3.4-1/jpeg/jcmarker.c ****   }
 1073              		.loc 1 373 5 is_stmt 1 view .LVU294
 1074 0173 4889EF   		movq	%rbp, %rdi
 1075 0176 4883C301 		addq	$1, %rbx
 1076              	.LVL118:
 373:fltk-1.3.4-1/jpeg/jcmarker.c ****   }
 1077              		.loc 1 373 5 is_stmt 0 view .LVU295
 1078 017a E8000000 		call	emit_byte
 1078      00
 1079              	.LVL119:
 360:fltk-1.3.4-1/jpeg/jcmarker.c ****     compptr = cinfo->cur_comp_info[i];
 1080              		.loc 1 360 41 is_stmt 1 view .LVU296
 360:fltk-1.3.4-1/jpeg/jcmarker.c ****     compptr = cinfo->cur_comp_info[i];
 1081              		.loc 1 360 15 view .LVU297
 360:fltk-1.3.4-1/jpeg/jcmarker.c ****     compptr = cinfo->cur_comp_info[i];
 1082              		.loc 1 360 3 is_stmt 0 view .LVU298
 1083 017f 399D7401 		cmpl	%ebx, 372(%rbp)
 1083      0000
 1084 0185 7FA9     		jg	.L84
 1085              	.LVL120:
 1086              	.L88:
 376:fltk-1.3.4-1/jpeg/jcmarker.c ****   emit_byte(cinfo, cinfo->Se);
 1087              		.loc 1 376 3 is_stmt 1 view .LVU299
 1088 0187 8BB5CC01 		movl	460(%rbp), %esi
 1088      0000
 1089 018d 4889EF   		movq	%rbp, %rdi
 1090 0190 E8000000 		call	emit_byte
 1090      00
 1091              	.LVL121:
 377:fltk-1.3.4-1/jpeg/jcmarker.c ****   emit_byte(cinfo, (cinfo->Ah << 4) + cinfo->Al);
 1092              		.loc 1 377 3 view .LVU300
 1093 0195 8BB5D001 		movl	464(%rbp), %esi
 1093      0000
 1094 019b 4889EF   		movq	%rbp, %rdi
 1095 019e E8000000 		call	emit_byte
 1095      00
 1096              	.LVL122:
 378:fltk-1.3.4-1/jpeg/jcmarker.c **** }
 1097              		.loc 1 378 3 view .LVU301
 1098 01a3 488B4424 		movq	40(%rsp), %rax
 1098      28
 1099 01a8 64483304 		xorq	%fs:40, %rax
 1099      25280000 
 1099      00
 1100 01b1 0F85A901 		jne	.L108
 1100      0000
 378:fltk-1.3.4-1/jpeg/jcmarker.c **** }
 1101              		.loc 1 378 31 is_stmt 0 view .LVU302
 1102 01b7 8BB5D401 		movl	468(%rbp), %esi
 1102      0000
 378:fltk-1.3.4-1/jpeg/jcmarker.c **** }
 1103              		.loc 1 378 3 view .LVU303
 1104 01bd 4889EF   		movq	%rbp, %rdi
 378:fltk-1.3.4-1/jpeg/jcmarker.c **** }
 1105              		.loc 1 378 31 view .LVU304
 1106 01c0 C1E604   		sall	$4, %esi
 378:fltk-1.3.4-1/jpeg/jcmarker.c **** }
 1107              		.loc 1 378 3 view .LVU305
 1108 01c3 03B5D801 		addl	472(%rbp), %esi
 1108      0000
 1109              	.LBE106:
 1110              	.LBE105:
 649:fltk-1.3.4-1/jpeg/jcmarker.c **** }
 1111              		.loc 1 649 1 view .LVU306
 1112 01c9 4883C438 		addq	$56, %rsp
 1113              		.cfi_remember_state
 1114              		.cfi_def_cfa_offset 56
 1115 01cd 5B       		popq	%rbx
 1116              		.cfi_def_cfa_offset 48
 1117 01ce 5D       		popq	%rbp
 1118              		.cfi_def_cfa_offset 40
 1119              	.LVL123:
 1120              		.loc 1 649 1 view .LVU307
 1121 01cf 415C     		popq	%r12
 1122              		.cfi_def_cfa_offset 32
 1123 01d1 415D     		popq	%r13
 1124              		.cfi_def_cfa_offset 24
 1125 01d3 415E     		popq	%r14
 1126              		.cfi_def_cfa_offset 16
 1127 01d5 415F     		popq	%r15
 1128              		.cfi_def_cfa_offset 8
 1129              	.LBB113:
 1130              	.LBB111:
 378:fltk-1.3.4-1/jpeg/jcmarker.c **** }
 1131              		.loc 1 378 3 view .LVU308
 1132 01d7 E9000000 		jmp	emit_byte
 1132      00
 1133              	.LVL124:
 1134 01dc 0F1F4000 		.p2align 4,,10
 1135              		.p2align 3
 1136              	.L93:
 1137              		.cfi_restore_state
 378:fltk-1.3.4-1/jpeg/jcmarker.c **** }
 1138              		.loc 1 378 3 view .LVU309
 1139 01e0 31F6     		xorl	%esi, %esi
 1140 01e2 E97DFFFF 		jmp	.L86
 1140      FF
 1141              	.LVL125:
 1142 01e7 660F1F84 		.p2align 4,,10
 1142      00000000 
 1142      00
 1143              		.p2align 3
 1144              	.L107:
 378:fltk-1.3.4-1/jpeg/jcmarker.c **** }
 1145              		.loc 1 378 3 view .LVU310
 1146              	.LBE111:
 1147              	.LBE113:
 636:fltk-1.3.4-1/jpeg/jcmarker.c ****     }
 1148              		.loc 1 636 2 is_stmt 1 view .LVU311
 1149 01f0 418B7518 		movl	24(%r13), %esi
 1150 01f4 BA010000 		movl	$1, %edx
 1150      00
 1151 01f9 4889EF   		movq	%rbp, %rdi
 1152 01fc E8000000 		call	emit_dht
 1152      00
 1153              	.LVL126:
 1154 0201 E97AFEFF 		jmp	.L81
 1154      FF
 1155 0206 662E0F1F 		.p2align 4,,10
 1155      84000000 
 1155      0000
 1156              		.p2align 3
 1157              	.L106:
 633:fltk-1.3.4-1/jpeg/jcmarker.c ****       /* AC needs no table when not present */
 1158              		.loc 1 633 2 view .LVU312
 1159 0210 418B7514 		movl	20(%r13), %esi
 1160 0214 31D2     		xorl	%edx, %edx
 1161 0216 4889EF   		movq	%rbp, %rdi
 1162 0219 E8000000 		call	emit_dht
 1162      00
 1163              	.LVL127:
 1164 021e E94FFEFF 		jmp	.L80
 1164      FF
 1165              	.LVL128:
 1166              		.p2align 4,,10
 1167 0223 0F1F4400 		.p2align 3
 1167      00
 1168              	.L90:
 633:fltk-1.3.4-1/jpeg/jcmarker.c ****       /* AC needs no table when not present */
 1169              		.loc 1 633 2 is_stmt 0 view .LVU313
 1170 0228 31C0     		xorl	%eax, %eax
 1171 022a 4C8D7424 		leaq	16(%rsp), %r14
 1171      10
 1172 022f 4989E5   		movq	%rsp, %r13
 1173              		.p2align 4,,10
 1174 0232 660F1F44 		.p2align 3
 1174      0000
 1175              	.L66:
 1176              	.LVL129:
 1177              	.LBB114:
 1178              	.LBB115:
 237:fltk-1.3.4-1/jpeg/jcmarker.c **** 
 1179              		.loc 1 237 5 is_stmt 1 view .LVU314
 237:fltk-1.3.4-1/jpeg/jcmarker.c **** 
 1180              		.loc 1 237 33 is_stmt 0 view .LVU315
 1181 0238 41C60406 		movb	$0, (%r14,%rax)
 1181      00
 237:fltk-1.3.4-1/jpeg/jcmarker.c **** 
 1182              		.loc 1 237 18 view .LVU316
 1183 023d 41C64405 		movb	$0, 0(%r13,%rax)
 1183      0000
 236:fltk-1.3.4-1/jpeg/jcmarker.c ****     dc_in_use[i] = ac_in_use[i] = 0;
 1184              		.loc 1 236 35 is_stmt 1 view .LVU317
 1185              	.LVL130:
 236:fltk-1.3.4-1/jpeg/jcmarker.c ****     dc_in_use[i] = ac_in_use[i] = 0;
 1186              		.loc 1 236 15 view .LVU318
 1187 0243 4883C001 		addq	$1, %rax
 1188              	.LVL131:
 236:fltk-1.3.4-1/jpeg/jcmarker.c ****     dc_in_use[i] = ac_in_use[i] = 0;
 1189              		.loc 1 236 3 is_stmt 0 view .LVU319
 1190 0247 4883F810 		cmpq	$16, %rax
 1191 024b 75EB     		jne	.L66
 1192              	.LVL132:
 239:fltk-1.3.4-1/jpeg/jcmarker.c ****     compptr = cinfo->cur_comp_info[i];
 1193              		.loc 1 239 15 is_stmt 1 view .LVU320
 239:fltk-1.3.4-1/jpeg/jcmarker.c ****     compptr = cinfo->cur_comp_info[i];
 1194              		.loc 1 239 3 is_stmt 0 view .LVU321
 1195 024d 85D2     		testl	%edx, %edx
 1196 024f 7E44     		jle	.L74
 242:fltk-1.3.4-1/jpeg/jcmarker.c ****       dc_in_use[compptr->dc_tbl_no] = 1;
 1197              		.loc 1 242 14 view .LVU322
 1198 0251 8BBDCC01 		movl	460(%rbp), %edi
 1198      0000
 1199              	.LVL133:
 245:fltk-1.3.4-1/jpeg/jcmarker.c ****       ac_in_use[compptr->ac_tbl_no] = 1;
 1200              		.loc 1 245 14 view .LVU323
 1201 0257 8BB5D001 		movl	464(%rbp), %esi
 1201      0000
 1202 025d 31C0     		xorl	%eax, %eax
 1203              	.LVL134:
 1204              	.L73:
 240:fltk-1.3.4-1/jpeg/jcmarker.c ****     /* DC needs no table for refinement scan */
 1205              		.loc 1 240 5 is_stmt 1 view .LVU324
 240:fltk-1.3.4-1/jpeg/jcmarker.c ****     /* DC needs no table for refinement scan */
 1206              		.loc 1 240 13 is_stmt 0 view .LVU325
 1207 025f 488B8CC5 		movq	376(%rbp,%rax,8), %rcx
 1207      78010000 
 1208              	.LVL135:
 242:fltk-1.3.4-1/jpeg/jcmarker.c ****       dc_in_use[compptr->dc_tbl_no] = 1;
 1209              		.loc 1 242 5 is_stmt 1 view .LVU326
 242:fltk-1.3.4-1/jpeg/jcmarker.c ****       dc_in_use[compptr->dc_tbl_no] = 1;
 1210              		.loc 1 242 8 is_stmt 0 view .LVU327
 1211 0267 85FF     		testl	%edi, %edi
 1212 0269 7515     		jne	.L71
 242:fltk-1.3.4-1/jpeg/jcmarker.c ****       dc_in_use[compptr->dc_tbl_no] = 1;
 1213              		.loc 1 242 24 view .LVU328
 1214 026b 448B8DD4 		movl	468(%rbp), %r9d
 1214      010000
 1215 0272 4585C9   		testl	%r9d, %r9d
 1216 0275 7509     		jne	.L71
 243:fltk-1.3.4-1/jpeg/jcmarker.c ****     /* AC needs no table when not present */
 1217              		.loc 1 243 7 is_stmt 1 view .LVU329
 243:fltk-1.3.4-1/jpeg/jcmarker.c ****     /* AC needs no table when not present */
 1218              		.loc 1 243 37 is_stmt 0 view .LVU330
 1219 0277 4C634114 		movslq	20(%rcx), %r8
 1220 027b 42C60404 		movb	$1, (%rsp,%r8)
 1220      01
 1221              	.L71:
 245:fltk-1.3.4-1/jpeg/jcmarker.c ****       ac_in_use[compptr->ac_tbl_no] = 1;
 1222              		.loc 1 245 5 is_stmt 1 view .LVU331
 245:fltk-1.3.4-1/jpeg/jcmarker.c ****       ac_in_use[compptr->ac_tbl_no] = 1;
 1223              		.loc 1 245 8 is_stmt 0 view .LVU332
 1224 0280 85F6     		testl	%esi, %esi
 1225 0282 7409     		je	.L72
 246:fltk-1.3.4-1/jpeg/jcmarker.c ****   }
 1226              		.loc 1 246 7 is_stmt 1 view .LVU333
 246:fltk-1.3.4-1/jpeg/jcmarker.c ****   }
 1227              		.loc 1 246 37 is_stmt 0 view .LVU334
 1228 0284 48634918 		movslq	24(%rcx), %rcx
 1229              	.LVL136:
 246:fltk-1.3.4-1/jpeg/jcmarker.c ****   }
 1230              		.loc 1 246 37 view .LVU335
 1231 0288 C6440C10 		movb	$1, 16(%rsp,%rcx)
 1231      01
 1232              	.L72:
 239:fltk-1.3.4-1/jpeg/jcmarker.c ****     compptr = cinfo->cur_comp_info[i];
 1233              		.loc 1 239 41 is_stmt 1 view .LVU336
 1234              	.LVL137:
 239:fltk-1.3.4-1/jpeg/jcmarker.c ****     compptr = cinfo->cur_comp_info[i];
 1235              		.loc 1 239 15 view .LVU337
 1236 028d 4883C001 		addq	$1, %rax
 1237              	.LVL138:
 239:fltk-1.3.4-1/jpeg/jcmarker.c ****     compptr = cinfo->cur_comp_info[i];
 1238              		.loc 1 239 3 is_stmt 0 view .LVU338
 1239 0291 39C2     		cmpl	%eax, %edx
 1240 0293 7FCA     		jg	.L73
 1241              	.LVL139:
 1242              	.L74:
 245:fltk-1.3.4-1/jpeg/jcmarker.c ****       ac_in_use[compptr->ac_tbl_no] = 1;
 1243              		.loc 1 245 14 view .LVU339
 1244 0295 31C0     		xorl	%eax, %eax
 249:fltk-1.3.4-1/jpeg/jcmarker.c ****   for (i = 0; i < NUM_ARITH_TBLS; i++)
 1245              		.loc 1 249 10 view .LVU340
 1246 0297 4531E4   		xorl	%r12d, %r12d
 1247 029a 660F1F44 		.p2align 4,,10
 1247      0000
 1248              		.p2align 3
 1249              	.L70:
 1250              	.LVL140:
 251:fltk-1.3.4-1/jpeg/jcmarker.c **** 
 1251              		.loc 1 251 5 is_stmt 1 view .LVU341
 251:fltk-1.3.4-1/jpeg/jcmarker.c **** 
 1252              		.loc 1 251 24 is_stmt 0 view .LVU342
 1253 02a0 410FB654 		movzbl	0(%r13,%rax), %edx
 1253      0500
 251:fltk-1.3.4-1/jpeg/jcmarker.c **** 
 1254              		.loc 1 251 39 view .LVU343
 1255 02a6 410FB60C 		movzbl	(%r14,%rax), %ecx
 1255      06
 1256 02ab 4883C001 		addq	$1, %rax
 1257              	.LVL141:
 251:fltk-1.3.4-1/jpeg/jcmarker.c **** 
 1258              		.loc 1 251 28 view .LVU344
 1259 02af 01CA     		addl	%ecx, %edx
 251:fltk-1.3.4-1/jpeg/jcmarker.c **** 
 1260              		.loc 1 251 12 view .LVU345
 1261 02b1 4101D4   		addl	%edx, %r12d
 1262              	.LVL142:
 250:fltk-1.3.4-1/jpeg/jcmarker.c ****     length += dc_in_use[i] + ac_in_use[i];
 1263              		.loc 1 250 35 is_stmt 1 view .LVU346
 250:fltk-1.3.4-1/jpeg/jcmarker.c ****     length += dc_in_use[i] + ac_in_use[i];
 1264              		.loc 1 250 15 view .LVU347
 250:fltk-1.3.4-1/jpeg/jcmarker.c ****     length += dc_in_use[i] + ac_in_use[i];
 1265              		.loc 1 250 3 is_stmt 0 view .LVU348
 1266 02b4 4883F810 		cmpq	$16, %rax
 1267 02b8 75E6     		jne	.L70
 253:fltk-1.3.4-1/jpeg/jcmarker.c ****     emit_marker(cinfo, M_DAC);
 1268              		.loc 1 253 3 is_stmt 1 view .LVU349
 253:fltk-1.3.4-1/jpeg/jcmarker.c ****     emit_marker(cinfo, M_DAC);
 1269              		.loc 1 253 6 is_stmt 0 view .LVU350
 1270 02ba 4585E4   		testl	%r12d, %r12d
 1271 02bd 0F84CAFD 		je	.L68
 1271      FFFF
 254:fltk-1.3.4-1/jpeg/jcmarker.c **** 
 1272              		.loc 1 254 5 is_stmt 1 view .LVU351
 1273              	.LVL143:
 1274              	.LBB116:
 1275              	.LBI116:
 124:fltk-1.3.4-1/jpeg/jcmarker.c **** /* Emit a marker code */
 1276              		.loc 1 124 1 view .LVU352
 1277              	.LBB117:
 127:fltk-1.3.4-1/jpeg/jcmarker.c ****   emit_byte(cinfo, (int) mark);
 1278              		.loc 1 127 3 view .LVU353
 1279 02c3 BEFF0000 		movl	$255, %esi
 1279      00
 1280 02c8 4889EF   		movq	%rbp, %rdi
 1281 02cb E8000000 		call	emit_byte
 1281      00
 1282              	.LVL144:
 128:fltk-1.3.4-1/jpeg/jcmarker.c **** }
 1283              		.loc 1 128 3 view .LVU354
 1284 02d0 BECC0000 		movl	$204, %esi
 1284      00
 1285 02d5 4889EF   		movq	%rbp, %rdi
 1286 02d8 E8000000 		call	emit_byte
 1286      00
 1287              	.LVL145:
 128:fltk-1.3.4-1/jpeg/jcmarker.c **** }
 1288              		.loc 1 128 3 is_stmt 0 view .LVU355
 1289              	.LBE117:
 1290              	.LBE116:
 256:fltk-1.3.4-1/jpeg/jcmarker.c **** 
 1291              		.loc 1 256 5 is_stmt 1 view .LVU356
 1292 02dd 438D7424 		leal	2(%r12,%r12), %esi
 1292      02
 1293 02e2 4889EF   		movq	%rbp, %rdi
 1294 02e5 4531E4   		xorl	%r12d, %r12d
 1295              	.LVL146:
 256:fltk-1.3.4-1/jpeg/jcmarker.c **** 
 1296              		.loc 1 256 5 is_stmt 0 view .LVU357
 1297 02e8 E8000000 		call	emit_2bytes
 1297      00
 1298              	.LVL147:
 258:fltk-1.3.4-1/jpeg/jcmarker.c ****       if (dc_in_use[i]) {
 1299              		.loc 1 258 5 is_stmt 1 view .LVU358
 258:fltk-1.3.4-1/jpeg/jcmarker.c ****       if (dc_in_use[i]) {
 1300              		.loc 1 258 17 view .LVU359
 1301 02ed EB16     		jmp	.L78
 1302              	.LVL148:
 1303 02ef 90       		.p2align 4,,10
 1304              		.p2align 3
 1305              	.L76:
 263:fltk-1.3.4-1/jpeg/jcmarker.c **** 	emit_byte(cinfo, i + 0x10);
 1306              		.loc 1 263 7 view .LVU360
 263:fltk-1.3.4-1/jpeg/jcmarker.c **** 	emit_byte(cinfo, i + 0x10);
 1307              		.loc 1 263 10 is_stmt 0 view .LVU361
 1308 02f0 43803C26 		cmpb	$0, (%r14,%r12)
 1308      00
 1309 02f5 754A     		jne	.L109
 1310              	.L77:
 258:fltk-1.3.4-1/jpeg/jcmarker.c ****       if (dc_in_use[i]) {
 1311              		.loc 1 258 37 is_stmt 1 view .LVU362
 1312              	.LVL149:
 258:fltk-1.3.4-1/jpeg/jcmarker.c ****       if (dc_in_use[i]) {
 1313              		.loc 1 258 17 view .LVU363
 1314 02f7 4983C401 		addq	$1, %r12
 1315              	.LVL150:
 258:fltk-1.3.4-1/jpeg/jcmarker.c ****       if (dc_in_use[i]) {
 1316              		.loc 1 258 5 is_stmt 0 view .LVU364
 1317 02fb 4983FC10 		cmpq	$16, %r12
 1318 02ff 0F8488FD 		je	.L68
 1318      FFFF
 1319              	.LVL151:
 1320              	.L78:
 259:fltk-1.3.4-1/jpeg/jcmarker.c **** 	emit_byte(cinfo, i);
 1321              		.loc 1 259 10 view .LVU365
 1322 0305 43807C25 		cmpb	$0, 0(%r13,%r12)
 1322      0000
 1323 030b 4589E7   		movl	%r12d, %r15d
 1324              	.LVL152:
 259:fltk-1.3.4-1/jpeg/jcmarker.c **** 	emit_byte(cinfo, i);
 1325              		.loc 1 259 7 is_stmt 1 view .LVU366
 259:fltk-1.3.4-1/jpeg/jcmarker.c **** 	emit_byte(cinfo, i);
 1326              		.loc 1 259 10 is_stmt 0 view .LVU367
 1327 030e 74E0     		je	.L76
 260:fltk-1.3.4-1/jpeg/jcmarker.c **** 	emit_byte(cinfo, cinfo->arith_dc_L[i] + (cinfo->arith_dc_U[i]<<4));
 1328              		.loc 1 260 2 is_stmt 1 view .LVU368
 1329 0310 4489E6   		movl	%r12d, %esi
 1330 0313 4889EF   		movq	%rbp, %rdi
 1331 0316 E8000000 		call	emit_byte
 1331      00
 1332              	.LVL153:
 261:fltk-1.3.4-1/jpeg/jcmarker.c ****       }
 1333              		.loc 1 261 2 view .LVU369
 1334 031b 4889EF   		movq	%rbp, %rdi
 261:fltk-1.3.4-1/jpeg/jcmarker.c ****       }
 1335              		.loc 1 261 60 is_stmt 0 view .LVU370
 1336 031e 420FB6B4 		movzbl	240(%rbp,%r12), %esi
 1336      25F00000 
 1336      00
 261:fltk-1.3.4-1/jpeg/jcmarker.c ****       }
 1337              		.loc 1 261 36 view .LVU371
 1338 0327 420FB684 		movzbl	224(%rbp,%r12), %eax
 1338      25E00000 
 1338      00
 261:fltk-1.3.4-1/jpeg/jcmarker.c ****       }
 1339              		.loc 1 261 63 view .LVU372
 1340 0330 C1E604   		sall	$4, %esi
 261:fltk-1.3.4-1/jpeg/jcmarker.c ****       }
 1341              		.loc 1 261 2 view .LVU373
 1342 0333 01C6     		addl	%eax, %esi
 1343 0335 E8000000 		call	emit_byte
 1343      00
 1344              	.LVL154:
 263:fltk-1.3.4-1/jpeg/jcmarker.c **** 	emit_byte(cinfo, i + 0x10);
 1345              		.loc 1 263 7 is_stmt 1 view .LVU374
 263:fltk-1.3.4-1/jpeg/jcmarker.c **** 	emit_byte(cinfo, i + 0x10);
 1346              		.loc 1 263 10 is_stmt 0 view .LVU375
 1347 033a 43803C26 		cmpb	$0, (%r14,%r12)
 1347      00
 1348 033f 74B6     		je	.L77
 1349              	.L109:
 264:fltk-1.3.4-1/jpeg/jcmarker.c **** 	emit_byte(cinfo, cinfo->arith_ac_K[i]);
 1350              		.loc 1 264 2 is_stmt 1 view .LVU376
 1351 0341 418D7710 		leal	16(%r15), %esi
 1352 0345 4889EF   		movq	%rbp, %rdi
 1353 0348 E8000000 		call	emit_byte
 1353      00
 1354              	.LVL155:
 265:fltk-1.3.4-1/jpeg/jcmarker.c ****       }
 1355              		.loc 1 265 2 view .LVU377
 1356 034d 4889EF   		movq	%rbp, %rdi
 1357 0350 420FB6B4 		movzbl	256(%rbp,%r12), %esi
 1357      25000100 
 1357      00
 1358 0359 E8000000 		call	emit_byte
 1358      00
 1359              	.LVL156:
 1360 035e EB97     		jmp	.L77
 1361              	.LVL157:
 1362              	.L108:
 265:fltk-1.3.4-1/jpeg/jcmarker.c ****       }
 1363              		.loc 1 265 2 is_stmt 0 view .LVU378
 1364              	.LBE115:
 1365              	.LBE114:
 1366              	.LBB118:
 1367              	.LBB112:
 378:fltk-1.3.4-1/jpeg/jcmarker.c **** }
 1368              		.loc 1 378 3 view .LVU379
 1369 0360 E8000000 		call	__stack_chk_fail@PLT
 1369      00
 1370              	.LVL158:
 1371              	.LBE112:
 1372              	.LBE118:
 1373              		.cfi_endproc
 1374              	.LFE68:
 1376              		.section	.text.write_frame_header,"ax",@progbits
 1377              		.p2align 4
 1379              	write_frame_header:
 1380              	.LVL159:
 1381              	.LFB67:
 546:fltk-1.3.4-1/jpeg/jcmarker.c ****   int ci, prec;
 1382              		.loc 1 546 1 is_stmt 1 view -0
 1383              		.cfi_startproc
 546:fltk-1.3.4-1/jpeg/jcmarker.c ****   int ci, prec;
 1384              		.loc 1 546 1 is_stmt 0 view .LVU381
 1385 0000 F30F1EFA 		endbr64
 547:fltk-1.3.4-1/jpeg/jcmarker.c ****   boolean is_baseline;
 1386              		.loc 1 547 3 is_stmt 1 view .LVU382
 548:fltk-1.3.4-1/jpeg/jcmarker.c ****   jpeg_component_info *compptr;
 1387              		.loc 1 548 3 view .LVU383
 549:fltk-1.3.4-1/jpeg/jcmarker.c ****   
 1388              		.loc 1 549 3 view .LVU384
 554:fltk-1.3.4-1/jpeg/jcmarker.c ****   for (ci = 0, compptr = cinfo->comp_info; ci < cinfo->num_components;
 1389              		.loc 1 554 3 view .LVU385
 1390              	.LVL160:
 555:fltk-1.3.4-1/jpeg/jcmarker.c ****        ci++, compptr++) {
 1391              		.loc 1 555 3 view .LVU386
 546:fltk-1.3.4-1/jpeg/jcmarker.c ****   int ci, prec;
 1392              		.loc 1 546 1 is_stmt 0 view .LVU387
 1393 0004 4155     		pushq	%r13
 1394              		.cfi_def_cfa_offset 16
 1395              		.cfi_offset 13, -16
 554:fltk-1.3.4-1/jpeg/jcmarker.c ****   for (ci = 0, compptr = cinfo->comp_info; ci < cinfo->num_components;
 1396              		.loc 1 554 8 view .LVU388
 1397 0006 4531ED   		xorl	%r13d, %r13d
 546:fltk-1.3.4-1/jpeg/jcmarker.c ****   int ci, prec;
 1398              		.loc 1 546 1 view .LVU389
 1399 0009 4154     		pushq	%r12
 1400              		.cfi_def_cfa_offset 24
 1401              		.cfi_offset 12, -24
 1402 000b 55       		pushq	%rbp
 1403              		.cfi_def_cfa_offset 32
 1404              		.cfi_offset 6, -32
 1405 000c 4889FD   		movq	%rdi, %rbp
 1406 000f 53       		pushq	%rbx
 1407              		.cfi_def_cfa_offset 40
 1408              		.cfi_offset 3, -40
 1409 0010 4883EC08 		subq	$8, %rsp
 1410              		.cfi_def_cfa_offset 48
 555:fltk-1.3.4-1/jpeg/jcmarker.c ****        ci++, compptr++) {
 1411              		.loc 1 555 54 view .LVU390
 1412 0014 8B475C   		movl	92(%rdi), %eax
 555:fltk-1.3.4-1/jpeg/jcmarker.c ****        ci++, compptr++) {
 1413              		.loc 1 555 24 view .LVU391
 1414 0017 488B5F68 		movq	104(%rdi), %rbx
 1415              	.LVL161:
 555:fltk-1.3.4-1/jpeg/jcmarker.c ****        ci++, compptr++) {
 1416              		.loc 1 555 44 is_stmt 1 view .LVU392
 555:fltk-1.3.4-1/jpeg/jcmarker.c ****        ci++, compptr++) {
 1417              		.loc 1 555 3 is_stmt 0 view .LVU393
 1418 001b 85C0     		testl	%eax, %eax
 1419 001d 7E27     		jle	.L111
 555:fltk-1.3.4-1/jpeg/jcmarker.c ****        ci++, compptr++) {
 1420              		.loc 1 555 11 view .LVU394
 1421 001f 4531E4   		xorl	%r12d, %r12d
 1422              	.LVL162:
 1423              		.p2align 4,,10
 1424 0022 660F1F44 		.p2align 3
 1424      0000
 1425              	.L112:
 557:fltk-1.3.4-1/jpeg/jcmarker.c ****   }
 1426              		.loc 1 557 5 is_stmt 1 view .LVU395
 557:fltk-1.3.4-1/jpeg/jcmarker.c ****   }
 1427              		.loc 1 557 13 is_stmt 0 view .LVU396
 1428 0028 8B7310   		movl	16(%rbx), %esi
 1429 002b 4889EF   		movq	%rbp, %rdi
 556:fltk-1.3.4-1/jpeg/jcmarker.c ****     prec += emit_dqt(cinfo, compptr->quant_tbl_no);
 1430              		.loc 1 556 10 view .LVU397
 1431 002e 4183C401 		addl	$1, %r12d
 1432              	.LVL163:
 556:fltk-1.3.4-1/jpeg/jcmarker.c ****     prec += emit_dqt(cinfo, compptr->quant_tbl_no);
 1433              		.loc 1 556 21 view .LVU398
 1434 0032 4883C360 		addq	$96, %rbx
 1435              	.LVL164:
 557:fltk-1.3.4-1/jpeg/jcmarker.c ****   }
 1436              		.loc 1 557 13 view .LVU399
 1437 0036 E8000000 		call	emit_dqt
 1437      00
 1438              	.LVL165:
 557:fltk-1.3.4-1/jpeg/jcmarker.c ****   }
 1439              		.loc 1 557 10 view .LVU400
 1440 003b 4101C5   		addl	%eax, %r13d
 1441              	.LVL166:
 556:fltk-1.3.4-1/jpeg/jcmarker.c ****     prec += emit_dqt(cinfo, compptr->quant_tbl_no);
 1442              		.loc 1 556 8 is_stmt 1 view .LVU401
 555:fltk-1.3.4-1/jpeg/jcmarker.c ****        ci++, compptr++) {
 1443              		.loc 1 555 44 view .LVU402
 555:fltk-1.3.4-1/jpeg/jcmarker.c ****        ci++, compptr++) {
 1444              		.loc 1 555 54 is_stmt 0 view .LVU403
 1445 003e 8B455C   		movl	92(%rbp), %eax
 555:fltk-1.3.4-1/jpeg/jcmarker.c ****        ci++, compptr++) {
 1446              		.loc 1 555 3 view .LVU404
 1447 0041 4439E0   		cmpl	%r12d, %eax
 1448 0044 7FE2     		jg	.L112
 1449              	.LVL167:
 1450              	.L111:
 564:fltk-1.3.4-1/jpeg/jcmarker.c ****       cinfo->data_precision != 8 || cinfo->block_size != DCTSIZE) {
 1451              		.loc 1 564 3 is_stmt 1 view .LVU405
 564:fltk-1.3.4-1/jpeg/jcmarker.c ****       cinfo->data_precision != 8 || cinfo->block_size != DCTSIZE) {
 1452              		.loc 1 564 6 is_stmt 0 view .LVU406
 1453 0046 8BB52401 		movl	292(%rbp), %esi
 1453      0000
 1454 004c 8B955C01 		movl	348(%rbp), %edx
 1454      0000
 1455 0052 85F6     		testl	%esi, %esi
 1456 0054 0F85B600 		jne	.L113
 1456      0000
 564:fltk-1.3.4-1/jpeg/jcmarker.c ****       cinfo->data_precision != 8 || cinfo->block_size != DCTSIZE) {
 1457              		.loc 1 564 25 discriminator 1 view .LVU407
 1458 005a 85D2     		testl	%edx, %edx
 1459 005c 0F845602 		je	.L143
 1459      0000
 1460              	.LVL168:
 1461              	.L114:
 589:fltk-1.3.4-1/jpeg/jcmarker.c ****     else if (is_baseline)
 1462              		.loc 1 589 7 is_stmt 1 view .LVU408
 1463 0062 BEC20000 		movl	$194, %esi
 1463      00
 1464 0067 4889EF   		movq	%rbp, %rdi
 1465 006a E8000000 		call	emit_sof
 1465      00
 1466              	.LVL169:
 1467              	.L124:
 597:fltk-1.3.4-1/jpeg/jcmarker.c ****     emit_lse_ict(cinfo);
 1468              		.loc 1 597 3 view .LVU409
 597:fltk-1.3.4-1/jpeg/jcmarker.c ****     emit_lse_ict(cinfo);
 1469              		.loc 1 597 12 is_stmt 0 view .LVU410
 1470 006f 8B855401 		movl	340(%rbp), %eax
 1470      0000
 597:fltk-1.3.4-1/jpeg/jcmarker.c ****     emit_lse_ict(cinfo);
 1471              		.loc 1 597 6 view .LVU411
 1472 0075 85C0     		testl	%eax, %eax
 1473 0077 0F85B600 		jne	.L144
 1473      0000
 1474              	.L125:
 601:fltk-1.3.4-1/jpeg/jcmarker.c ****     emit_pseudo_sos(cinfo);
 1475              		.loc 1 601 3 is_stmt 1 view .LVU412
 601:fltk-1.3.4-1/jpeg/jcmarker.c ****     emit_pseudo_sos(cinfo);
 1476              		.loc 1 601 6 is_stmt 0 view .LVU413
 1477 007d 8B855C01 		movl	348(%rbp), %eax
 1477      0000
 1478 0083 85C0     		testl	%eax, %eax
 1479 0085 0F840302 		je	.L110
 1479      0000
 1480              	.L146:
 601:fltk-1.3.4-1/jpeg/jcmarker.c ****     emit_pseudo_sos(cinfo);
 1481              		.loc 1 601 31 discriminator 1 view .LVU414
 1482 008b 83BDDC01 		cmpl	$8, 476(%rbp)
 1482      000008
 1483 0092 0F84F601 		je	.L110
 1483      0000
 602:fltk-1.3.4-1/jpeg/jcmarker.c **** }
 1484              		.loc 1 602 5 is_stmt 1 view .LVU415
 1485              	.LVL170:
 1486              	.LBB145:
 1487              	.LBI145:
 383:fltk-1.3.4-1/jpeg/jcmarker.c **** /* Emit a pseudo SOS marker */
 1488              		.loc 1 383 1 view .LVU416
 1489              	.LBB146:
 386:fltk-1.3.4-1/jpeg/jcmarker.c ****   
 1490              		.loc 1 386 3 view .LVU417
 1491              	.LBB147:
 1492              	.LBI147:
 124:fltk-1.3.4-1/jpeg/jcmarker.c **** /* Emit a marker code */
 1493              		.loc 1 124 1 view .LVU418
 1494              	.LBB148:
 127:fltk-1.3.4-1/jpeg/jcmarker.c ****   emit_byte(cinfo, (int) mark);
 1495              		.loc 1 127 3 view .LVU419
 1496 0098 4889EF   		movq	%rbp, %rdi
 1497 009b BEFF0000 		movl	$255, %esi
 1497      00
 1498 00a0 E8000000 		call	emit_byte
 1498      00
 1499              	.LVL171:
 128:fltk-1.3.4-1/jpeg/jcmarker.c **** }
 1500              		.loc 1 128 3 view .LVU420
 1501 00a5 4889EF   		movq	%rbp, %rdi
 1502 00a8 BEDA0000 		movl	$218, %esi
 1502      00
 1503 00ad E8000000 		call	emit_byte
 1503      00
 1504              	.LVL172:
 128:fltk-1.3.4-1/jpeg/jcmarker.c **** }
 1505              		.loc 1 128 3 is_stmt 0 view .LVU421
 1506              	.LBE148:
 1507              	.LBE147:
 388:fltk-1.3.4-1/jpeg/jcmarker.c ****   
 1508              		.loc 1 388 3 is_stmt 1 view .LVU422
 1509              	.LBB149:
 1510              	.LBI149:
 133:fltk-1.3.4-1/jpeg/jcmarker.c **** /* Emit a 2-byte integer; these are always MSB first in JPEG files */
 1511              		.loc 1 133 1 view .LVU423
 1512              	.LBB150:
 136:fltk-1.3.4-1/jpeg/jcmarker.c ****   emit_byte(cinfo, value & 0xFF);
 1513              		.loc 1 136 3 view .LVU424
 1514 00b2 4889EF   		movq	%rbp, %rdi
 1515 00b5 31F6     		xorl	%esi, %esi
 1516 00b7 E8000000 		call	emit_byte
 1516      00
 1517              	.LVL173:
 137:fltk-1.3.4-1/jpeg/jcmarker.c **** }
 1518              		.loc 1 137 3 view .LVU425
 1519 00bc 4889EF   		movq	%rbp, %rdi
 1520 00bf BE060000 		movl	$6, %esi
 1520      00
 1521 00c4 E8000000 		call	emit_byte
 1521      00
 1522              	.LVL174:
 137:fltk-1.3.4-1/jpeg/jcmarker.c **** }
 1523              		.loc 1 137 3 is_stmt 0 view .LVU426
 1524              	.LBE150:
 1525              	.LBE149:
 390:fltk-1.3.4-1/jpeg/jcmarker.c **** 
 1526              		.loc 1 390 3 is_stmt 1 view .LVU427
 1527 00c9 4889EF   		movq	%rbp, %rdi
 1528 00cc 31F6     		xorl	%esi, %esi
 1529 00ce E8000000 		call	emit_byte
 1529      00
 1530              	.LVL175:
 392:fltk-1.3.4-1/jpeg/jcmarker.c ****   emit_byte(cinfo, cinfo->block_size * cinfo->block_size - 1); /* Se */
 1531              		.loc 1 392 3 view .LVU428
 1532 00d3 4889EF   		movq	%rbp, %rdi
 1533 00d6 31F6     		xorl	%esi, %esi
 1534 00d8 E8000000 		call	emit_byte
 1534      00
 1535              	.LVL176:
 393:fltk-1.3.4-1/jpeg/jcmarker.c ****   emit_byte(cinfo, 0); /* Ah/Al */
 1536              		.loc 1 393 3 view .LVU429
 393:fltk-1.3.4-1/jpeg/jcmarker.c ****   emit_byte(cinfo, 0); /* Ah/Al */
 1537              		.loc 1 393 25 is_stmt 0 view .LVU430
 1538 00dd 8BB5DC01 		movl	476(%rbp), %esi
 1538      0000
 393:fltk-1.3.4-1/jpeg/jcmarker.c ****   emit_byte(cinfo, 0); /* Ah/Al */
 1539              		.loc 1 393 3 view .LVU431
 1540 00e3 4889EF   		movq	%rbp, %rdi
 393:fltk-1.3.4-1/jpeg/jcmarker.c ****   emit_byte(cinfo, 0); /* Ah/Al */
 1541              		.loc 1 393 38 view .LVU432
 1542 00e6 0FAFF6   		imull	%esi, %esi
 393:fltk-1.3.4-1/jpeg/jcmarker.c ****   emit_byte(cinfo, 0); /* Ah/Al */
 1543              		.loc 1 393 3 view .LVU433
 1544 00e9 83EE01   		subl	$1, %esi
 1545 00ec E8000000 		call	emit_byte
 1545      00
 1546              	.LVL177:
 394:fltk-1.3.4-1/jpeg/jcmarker.c **** }
 1547              		.loc 1 394 3 is_stmt 1 view .LVU434
 1548              	.LBE146:
 1549              	.LBE145:
 603:fltk-1.3.4-1/jpeg/jcmarker.c **** 
 1550              		.loc 1 603 1 is_stmt 0 view .LVU435
 1551 00f1 4883C408 		addq	$8, %rsp
 1552              		.cfi_remember_state
 1553              		.cfi_def_cfa_offset 40
 1554              	.LBB153:
 1555              	.LBB151:
 394:fltk-1.3.4-1/jpeg/jcmarker.c **** }
 1556              		.loc 1 394 3 view .LVU436
 1557 00f5 4889EF   		movq	%rbp, %rdi
 1558 00f8 31F6     		xorl	%esi, %esi
 1559              	.LBE151:
 1560              	.LBE153:
 603:fltk-1.3.4-1/jpeg/jcmarker.c **** 
 1561              		.loc 1 603 1 view .LVU437
 1562 00fa 5B       		popq	%rbx
 1563              		.cfi_def_cfa_offset 32
 1564 00fb 5D       		popq	%rbp
 1565              		.cfi_def_cfa_offset 24
 1566              	.LVL178:
 603:fltk-1.3.4-1/jpeg/jcmarker.c **** 
 1567              		.loc 1 603 1 view .LVU438
 1568 00fc 415C     		popq	%r12
 1569              		.cfi_def_cfa_offset 16
 1570 00fe 415D     		popq	%r13
 1571              		.cfi_def_cfa_offset 8
 1572              	.LBB154:
 1573              	.LBB152:
 394:fltk-1.3.4-1/jpeg/jcmarker.c **** }
 1574              		.loc 1 394 3 view .LVU439
 1575 0100 E9000000 		jmp	emit_byte
 1575      00
 1576              	.LVL179:
 1577              	.L122:
 1578              		.cfi_restore_state
 394:fltk-1.3.4-1/jpeg/jcmarker.c **** }
 1579              		.loc 1 394 3 view .LVU440
 1580 0105 8B955C01 		movl	348(%rbp), %edx
 1580      0000
 1581              	.LVL180:
 1582 010b 0F1F4400 		.p2align 4,,10
 1582      00
 1583              		.p2align 3
 1584              	.L113:
 394:fltk-1.3.4-1/jpeg/jcmarker.c **** }
 1585              		.loc 1 394 3 view .LVU441
 1586              	.LBE152:
 1587              	.LBE154:
 583:fltk-1.3.4-1/jpeg/jcmarker.c ****       emit_sof(cinfo, M_SOF10); /* SOF code for progressive arithmetic */
 1588              		.loc 1 583 5 is_stmt 1 view .LVU442
 583:fltk-1.3.4-1/jpeg/jcmarker.c ****       emit_sof(cinfo, M_SOF10); /* SOF code for progressive arithmetic */
 1589              		.loc 1 583 8 is_stmt 0 view .LVU443
 1590 0110 85D2     		testl	%edx, %edx
 1591 0112 0F848801 		je	.L123
 1591      0000
 584:fltk-1.3.4-1/jpeg/jcmarker.c ****     else
 1592              		.loc 1 584 7 is_stmt 1 view .LVU444
 1593 0118 BECA0000 		movl	$202, %esi
 1593      00
 1594 011d 4889EF   		movq	%rbp, %rdi
 1595 0120 E8000000 		call	emit_sof
 1595      00
 1596              	.LVL181:
 597:fltk-1.3.4-1/jpeg/jcmarker.c ****     emit_lse_ict(cinfo);
 1597              		.loc 1 597 3 view .LVU445
 597:fltk-1.3.4-1/jpeg/jcmarker.c ****     emit_lse_ict(cinfo);
 1598              		.loc 1 597 12 is_stmt 0 view .LVU446
 1599 0125 8B855401 		movl	340(%rbp), %eax
 1599      0000
 597:fltk-1.3.4-1/jpeg/jcmarker.c ****     emit_lse_ict(cinfo);
 1600              		.loc 1 597 6 view .LVU447
 1601 012b 85C0     		testl	%eax, %eax
 1602 012d 0F844AFF 		je	.L125
 1602      FFFF
 1603              	.L144:
 598:fltk-1.3.4-1/jpeg/jcmarker.c **** 
 1604              		.loc 1 598 5 is_stmt 1 view .LVU448
 1605              	.LVL182:
 1606              	.LBB155:
 1607              	.LBI155:
 286:fltk-1.3.4-1/jpeg/jcmarker.c **** /* Emit an LSE inverse color transform specification marker */
 1608              		.loc 1 286 1 view .LVU449
 1609              	.LBB156:
 290:fltk-1.3.4-1/jpeg/jcmarker.c ****       cinfo->num_components < 3)
 1610              		.loc 1 290 3 view .LVU450
 290:fltk-1.3.4-1/jpeg/jcmarker.c ****       cinfo->num_components < 3)
 1611              		.loc 1 290 6 is_stmt 0 view .LVU451
 1612 0133 83F801   		cmpl	$1, %eax
 1613 0136 0F84E401 		je	.L145
 1613      0000
 1614              	.L126:
 292:fltk-1.3.4-1/jpeg/jcmarker.c **** 
 1615              		.loc 1 292 5 is_stmt 1 view .LVU452
 1616 013c 488B4500 		movq	0(%rbp), %rax
 1617 0140 4889EF   		movq	%rbp, %rdi
 1618 0143 C740281C 		movl	$28, 40(%rax)
 1618      000000
 1619 014a 488B4500 		movq	0(%rbp), %rax
 1620 014e FF10     		call	*(%rax)
 1621              	.LVL183:
 1622              	.L127:
 294:fltk-1.3.4-1/jpeg/jcmarker.c ****   
 1623              		.loc 1 294 3 view .LVU453
 1624              	.LBB157:
 1625              	.LBI157:
 124:fltk-1.3.4-1/jpeg/jcmarker.c **** /* Emit a marker code */
 1626              		.loc 1 124 1 view .LVU454
 1627              	.LBB158:
 127:fltk-1.3.4-1/jpeg/jcmarker.c ****   emit_byte(cinfo, (int) mark);
 1628              		.loc 1 127 3 view .LVU455
 1629 0150 BEFF0000 		movl	$255, %esi
 1629      00
 1630 0155 4889EF   		movq	%rbp, %rdi
 1631 0158 E8000000 		call	emit_byte
 1631      00
 1632              	.LVL184:
 128:fltk-1.3.4-1/jpeg/jcmarker.c **** }
 1633              		.loc 1 128 3 view .LVU456
 1634 015d BEF80000 		movl	$248, %esi
 1634      00
 1635 0162 4889EF   		movq	%rbp, %rdi
 1636 0165 E8000000 		call	emit_byte
 1636      00
 1637              	.LVL185:
 128:fltk-1.3.4-1/jpeg/jcmarker.c **** }
 1638              		.loc 1 128 3 is_stmt 0 view .LVU457
 1639              	.LBE158:
 1640              	.LBE157:
 296:fltk-1.3.4-1/jpeg/jcmarker.c **** 
 1641              		.loc 1 296 3 is_stmt 1 view .LVU458
 1642              	.LBB159:
 1643              	.LBI159:
 133:fltk-1.3.4-1/jpeg/jcmarker.c **** /* Emit a 2-byte integer; these are always MSB first in JPEG files */
 1644              		.loc 1 133 1 view .LVU459
 1645              	.LBB160:
 136:fltk-1.3.4-1/jpeg/jcmarker.c ****   emit_byte(cinfo, value & 0xFF);
 1646              		.loc 1 136 3 view .LVU460
 1647 016a 31F6     		xorl	%esi, %esi
 1648 016c 4889EF   		movq	%rbp, %rdi
 1649 016f E8000000 		call	emit_byte
 1649      00
 1650              	.LVL186:
 137:fltk-1.3.4-1/jpeg/jcmarker.c **** }
 1651              		.loc 1 137 3 view .LVU461
 1652 0174 BE180000 		movl	$24, %esi
 1652      00
 1653 0179 4889EF   		movq	%rbp, %rdi
 1654 017c E8000000 		call	emit_byte
 1654      00
 1655              	.LVL187:
 137:fltk-1.3.4-1/jpeg/jcmarker.c **** }
 1656              		.loc 1 137 3 is_stmt 0 view .LVU462
 1657              	.LBE160:
 1658              	.LBE159:
 298:fltk-1.3.4-1/jpeg/jcmarker.c ****   emit_2bytes(cinfo, MAXJSAMPLE);	/* MAXTRANS */
 1659              		.loc 1 298 3 is_stmt 1 view .LVU463
 1660 0181 BE0D0000 		movl	$13, %esi
 1660      00
 1661 0186 4889EF   		movq	%rbp, %rdi
 1662 0189 E8000000 		call	emit_byte
 1662      00
 1663              	.LVL188:
 299:fltk-1.3.4-1/jpeg/jcmarker.c ****   emit_byte(cinfo, 3);		/* Nt=3 */
 1664              		.loc 1 299 3 view .LVU464
 1665              	.LBB161:
 1666              	.LBI161:
 133:fltk-1.3.4-1/jpeg/jcmarker.c **** /* Emit a 2-byte integer; these are always MSB first in JPEG files */
 1667              		.loc 1 133 1 view .LVU465
 1668              	.LBB162:
 136:fltk-1.3.4-1/jpeg/jcmarker.c ****   emit_byte(cinfo, value & 0xFF);
 1669              		.loc 1 136 3 view .LVU466
 1670 018e 31F6     		xorl	%esi, %esi
 1671 0190 4889EF   		movq	%rbp, %rdi
 1672 0193 E8000000 		call	emit_byte
 1672      00
 1673              	.LVL189:
 137:fltk-1.3.4-1/jpeg/jcmarker.c **** }
 1674              		.loc 1 137 3 view .LVU467
 1675 0198 BEFF0000 		movl	$255, %esi
 1675      00
 1676 019d 4889EF   		movq	%rbp, %rdi
 1677 01a0 E8000000 		call	emit_byte
 1677      00
 1678              	.LVL190:
 137:fltk-1.3.4-1/jpeg/jcmarker.c **** }
 1679              		.loc 1 137 3 is_stmt 0 view .LVU468
 1680              	.LBE162:
 1681              	.LBE161:
 300:fltk-1.3.4-1/jpeg/jcmarker.c ****   emit_byte(cinfo, cinfo->comp_info[1].component_id);
 1682              		.loc 1 300 3 is_stmt 1 view .LVU469
 1683 01a5 BE030000 		movl	$3, %esi
 1683      00
 1684 01aa 4889EF   		movq	%rbp, %rdi
 1685 01ad E8000000 		call	emit_byte
 1685      00
 1686              	.LVL191:
 301:fltk-1.3.4-1/jpeg/jcmarker.c ****   emit_byte(cinfo, cinfo->comp_info[0].component_id);
 1687              		.loc 1 301 3 view .LVU470
 1688 01b2 488B4568 		movq	104(%rbp), %rax
 1689 01b6 4889EF   		movq	%rbp, %rdi
 1690 01b9 8B7060   		movl	96(%rax), %esi
 1691 01bc E8000000 		call	emit_byte
 1691      00
 1692              	.LVL192:
 302:fltk-1.3.4-1/jpeg/jcmarker.c ****   emit_byte(cinfo, cinfo->comp_info[2].component_id);
 1693              		.loc 1 302 3 view .LVU471
 1694 01c1 488B4568 		movq	104(%rbp), %rax
 1695 01c5 4889EF   		movq	%rbp, %rdi
 1696 01c8 8B30     		movl	(%rax), %esi
 1697 01ca E8000000 		call	emit_byte
 1697      00
 1698              	.LVL193:
 303:fltk-1.3.4-1/jpeg/jcmarker.c ****   emit_byte(cinfo, 0x80);	/* F1: CENTER1=1, NORM1=0 */
 1699              		.loc 1 303 3 view .LVU472
 1700 01cf 488B4568 		movq	104(%rbp), %rax
 1701 01d3 4889EF   		movq	%rbp, %rdi
 1702 01d6 8BB0C000 		movl	192(%rax), %esi
 1702      0000
 1703 01dc E8000000 		call	emit_byte
 1703      00
 1704              	.LVL194:
 304:fltk-1.3.4-1/jpeg/jcmarker.c ****   emit_2bytes(cinfo, 0);	/* A(1,1)=0 */
 1705              		.loc 1 304 3 view .LVU473
 1706 01e1 BE800000 		movl	$128, %esi
 1706      00
 1707 01e6 4889EF   		movq	%rbp, %rdi
 1708 01e9 E8000000 		call	emit_byte
 1708      00
 1709              	.LVL195:
 305:fltk-1.3.4-1/jpeg/jcmarker.c ****   emit_2bytes(cinfo, 0);	/* A(1,2)=0 */
 1710              		.loc 1 305 3 view .LVU474
 1711              	.LBB163:
 1712              	.LBI163:
 133:fltk-1.3.4-1/jpeg/jcmarker.c **** /* Emit a 2-byte integer; these are always MSB first in JPEG files */
 1713              		.loc 1 133 1 view .LVU475
 1714              	.LBB164:
 136:fltk-1.3.4-1/jpeg/jcmarker.c ****   emit_byte(cinfo, value & 0xFF);
 1715              		.loc 1 136 3 view .LVU476
 1716 01ee 31F6     		xorl	%esi, %esi
 1717 01f0 4889EF   		movq	%rbp, %rdi
 1718 01f3 E8000000 		call	emit_byte
 1718      00
 1719              	.LVL196:
 137:fltk-1.3.4-1/jpeg/jcmarker.c **** }
 1720              		.loc 1 137 3 view .LVU477
 1721 01f8 31F6     		xorl	%esi, %esi
 1722 01fa 4889EF   		movq	%rbp, %rdi
 1723 01fd E8000000 		call	emit_byte
 1723      00
 1724              	.LVL197:
 137:fltk-1.3.4-1/jpeg/jcmarker.c **** }
 1725              		.loc 1 137 3 is_stmt 0 view .LVU478
 1726              	.LBE164:
 1727              	.LBE163:
 306:fltk-1.3.4-1/jpeg/jcmarker.c ****   emit_byte(cinfo, 0);		/* F2: CENTER2=0, NORM2=0 */
 1728              		.loc 1 306 3 is_stmt 1 view .LVU479
 1729              	.LBB165:
 1730              	.LBI165:
 133:fltk-1.3.4-1/jpeg/jcmarker.c **** /* Emit a 2-byte integer; these are always MSB first in JPEG files */
 1731              		.loc 1 133 1 view .LVU480
 1732              	.LBB166:
 136:fltk-1.3.4-1/jpeg/jcmarker.c ****   emit_byte(cinfo, value & 0xFF);
 1733              		.loc 1 136 3 view .LVU481
 1734 0202 31F6     		xorl	%esi, %esi
 1735 0204 4889EF   		movq	%rbp, %rdi
 1736 0207 E8000000 		call	emit_byte
 1736      00
 1737              	.LVL198:
 137:fltk-1.3.4-1/jpeg/jcmarker.c **** }
 1738              		.loc 1 137 3 view .LVU482
 1739 020c 31F6     		xorl	%esi, %esi
 1740 020e 4889EF   		movq	%rbp, %rdi
 1741 0211 E8000000 		call	emit_byte
 1741      00
 1742              	.LVL199:
 137:fltk-1.3.4-1/jpeg/jcmarker.c **** }
 1743              		.loc 1 137 3 is_stmt 0 view .LVU483
 1744              	.LBE166:
 1745              	.LBE165:
 307:fltk-1.3.4-1/jpeg/jcmarker.c ****   emit_2bytes(cinfo, 1);	/* A(2,1)=1 */
 1746              		.loc 1 307 3 is_stmt 1 view .LVU484
 1747 0216 31F6     		xorl	%esi, %esi
 1748 0218 4889EF   		movq	%rbp, %rdi
 1749 021b E8000000 		call	emit_byte
 1749      00
 1750              	.LVL200:
 308:fltk-1.3.4-1/jpeg/jcmarker.c ****   emit_2bytes(cinfo, 0);	/* A(2,2)=0 */
 1751              		.loc 1 308 3 view .LVU485
 1752              	.LBB167:
 1753              	.LBI167:
 133:fltk-1.3.4-1/jpeg/jcmarker.c **** /* Emit a 2-byte integer; these are always MSB first in JPEG files */
 1754              		.loc 1 133 1 view .LVU486
 1755              	.LBB168:
 136:fltk-1.3.4-1/jpeg/jcmarker.c ****   emit_byte(cinfo, value & 0xFF);
 1756              		.loc 1 136 3 view .LVU487
 1757 0220 31F6     		xorl	%esi, %esi
 1758 0222 4889EF   		movq	%rbp, %rdi
 1759 0225 E8000000 		call	emit_byte
 1759      00
 1760              	.LVL201:
 137:fltk-1.3.4-1/jpeg/jcmarker.c **** }
 1761              		.loc 1 137 3 view .LVU488
 1762 022a BE010000 		movl	$1, %esi
 1762      00
 1763 022f 4889EF   		movq	%rbp, %rdi
 1764 0232 E8000000 		call	emit_byte
 1764      00
 1765              	.LVL202:
 137:fltk-1.3.4-1/jpeg/jcmarker.c **** }
 1766              		.loc 1 137 3 is_stmt 0 view .LVU489
 1767              	.LBE168:
 1768              	.LBE167:
 309:fltk-1.3.4-1/jpeg/jcmarker.c ****   emit_byte(cinfo, 0);		/* F3: CENTER3=0, NORM3=0 */
 1769              		.loc 1 309 3 is_stmt 1 view .LVU490
 1770              	.LBB169:
 1771              	.LBI169:
 133:fltk-1.3.4-1/jpeg/jcmarker.c **** /* Emit a 2-byte integer; these are always MSB first in JPEG files */
 1772              		.loc 1 133 1 view .LVU491
 1773              	.LBB170:
 136:fltk-1.3.4-1/jpeg/jcmarker.c ****   emit_byte(cinfo, value & 0xFF);
 1774              		.loc 1 136 3 view .LVU492
 1775 0237 31F6     		xorl	%esi, %esi
 1776 0239 4889EF   		movq	%rbp, %rdi
 1777 023c E8000000 		call	emit_byte
 1777      00
 1778              	.LVL203:
 137:fltk-1.3.4-1/jpeg/jcmarker.c **** }
 1779              		.loc 1 137 3 view .LVU493
 1780 0241 31F6     		xorl	%esi, %esi
 1781 0243 4889EF   		movq	%rbp, %rdi
 1782 0246 E8000000 		call	emit_byte
 1782      00
 1783              	.LVL204:
 137:fltk-1.3.4-1/jpeg/jcmarker.c **** }
 1784              		.loc 1 137 3 is_stmt 0 view .LVU494
 1785              	.LBE170:
 1786              	.LBE169:
 310:fltk-1.3.4-1/jpeg/jcmarker.c ****   emit_2bytes(cinfo, 1);	/* A(3,1)=1 */
 1787              		.loc 1 310 3 is_stmt 1 view .LVU495
 1788 024b 31F6     		xorl	%esi, %esi
 1789 024d 4889EF   		movq	%rbp, %rdi
 1790 0250 E8000000 		call	emit_byte
 1790      00
 1791              	.LVL205:
 311:fltk-1.3.4-1/jpeg/jcmarker.c ****   emit_2bytes(cinfo, 0);	/* A(3,2)=0 */
 1792              		.loc 1 311 3 view .LVU496
 1793              	.LBB171:
 1794              	.LBI171:
 133:fltk-1.3.4-1/jpeg/jcmarker.c **** /* Emit a 2-byte integer; these are always MSB first in JPEG files */
 1795              		.loc 1 133 1 view .LVU497
 1796              	.LBB172:
 136:fltk-1.3.4-1/jpeg/jcmarker.c ****   emit_byte(cinfo, value & 0xFF);
 1797              		.loc 1 136 3 view .LVU498
 1798 0255 31F6     		xorl	%esi, %esi
 1799 0257 4889EF   		movq	%rbp, %rdi
 1800 025a E8000000 		call	emit_byte
 1800      00
 1801              	.LVL206:
 137:fltk-1.3.4-1/jpeg/jcmarker.c **** }
 1802              		.loc 1 137 3 view .LVU499
 1803 025f BE010000 		movl	$1, %esi
 1803      00
 1804 0264 4889EF   		movq	%rbp, %rdi
 1805 0267 E8000000 		call	emit_byte
 1805      00
 1806              	.LVL207:
 137:fltk-1.3.4-1/jpeg/jcmarker.c **** }
 1807              		.loc 1 137 3 is_stmt 0 view .LVU500
 1808              	.LBE172:
 1809              	.LBE171:
 312:fltk-1.3.4-1/jpeg/jcmarker.c **** }
 1810              		.loc 1 312 3 is_stmt 1 view .LVU501
 1811              	.LBB173:
 1812              	.LBI173:
 133:fltk-1.3.4-1/jpeg/jcmarker.c **** /* Emit a 2-byte integer; these are always MSB first in JPEG files */
 1813              		.loc 1 133 1 view .LVU502
 1814              	.LBB174:
 136:fltk-1.3.4-1/jpeg/jcmarker.c ****   emit_byte(cinfo, value & 0xFF);
 1815              		.loc 1 136 3 view .LVU503
 1816 026c 31F6     		xorl	%esi, %esi
 1817 026e 4889EF   		movq	%rbp, %rdi
 1818 0271 E8000000 		call	emit_byte
 1818      00
 1819              	.LVL208:
 137:fltk-1.3.4-1/jpeg/jcmarker.c **** }
 1820              		.loc 1 137 3 view .LVU504
 1821 0276 31F6     		xorl	%esi, %esi
 1822 0278 4889EF   		movq	%rbp, %rdi
 1823 027b E8000000 		call	emit_byte
 1823      00
 1824              	.LVL209:
 137:fltk-1.3.4-1/jpeg/jcmarker.c **** }
 1825              		.loc 1 137 3 is_stmt 0 view .LVU505
 1826              	.LBE174:
 1827              	.LBE173:
 1828              	.LBE156:
 1829              	.LBE155:
 601:fltk-1.3.4-1/jpeg/jcmarker.c ****     emit_pseudo_sos(cinfo);
 1830              		.loc 1 601 3 is_stmt 1 view .LVU506
 601:fltk-1.3.4-1/jpeg/jcmarker.c ****     emit_pseudo_sos(cinfo);
 1831              		.loc 1 601 6 is_stmt 0 view .LVU507
 1832 0280 8B855C01 		movl	348(%rbp), %eax
 1832      0000
 1833 0286 85C0     		testl	%eax, %eax
 1834 0288 0F85FDFD 		jne	.L146
 1834      FFFF
 1835              	.L110:
 603:fltk-1.3.4-1/jpeg/jcmarker.c **** 
 1836              		.loc 1 603 1 view .LVU508
 1837 028e 4883C408 		addq	$8, %rsp
 1838              		.cfi_remember_state
 1839              		.cfi_def_cfa_offset 40
 1840 0292 5B       		popq	%rbx
 1841              		.cfi_def_cfa_offset 32
 1842 0293 5D       		popq	%rbp
 1843              		.cfi_def_cfa_offset 24
 1844              	.LVL210:
 603:fltk-1.3.4-1/jpeg/jcmarker.c **** 
 1845              		.loc 1 603 1 view .LVU509
 1846 0294 415C     		popq	%r12
 1847              		.cfi_def_cfa_offset 16
 1848 0296 415D     		popq	%r13
 1849              		.cfi_def_cfa_offset 8
 1850 0298 C3       		ret
 1851              	.LVL211:
 1852 0299 0F1F8000 		.p2align 4,,10
 1852      000000
 1853              		.p2align 3
 1854              	.L123:
 1855              		.cfi_restore_state
 586:fltk-1.3.4-1/jpeg/jcmarker.c ****   } else {
 1856              		.loc 1 586 7 is_stmt 1 view .LVU510
 1857 02a0 BEC90000 		movl	$201, %esi
 1857      00
 1858 02a5 4889EF   		movq	%rbp, %rdi
 1859 02a8 E8000000 		call	emit_sof
 1859      00
 1860              	.LVL212:
 1861 02ad E9BDFDFF 		jmp	.L124
 1861      FF
 1862              	.LVL213:
 1863              		.p2align 4,,10
 1864 02b2 660F1F44 		.p2align 3
 1864      0000
 1865              	.L143:
 564:fltk-1.3.4-1/jpeg/jcmarker.c ****       cinfo->data_precision != 8 || cinfo->block_size != DCTSIZE) {
 1866              		.loc 1 564 52 is_stmt 0 discriminator 2 view .LVU511
 1867 02b8 837D5808 		cmpl	$8, 88(%rbp)
 1868 02bc 7412     		je	.L147
 1869              	.LVL214:
 1870              	.L115:
 593:fltk-1.3.4-1/jpeg/jcmarker.c ****   }
 1871              		.loc 1 593 7 is_stmt 1 view .LVU512
 1872 02be BEC10000 		movl	$193, %esi
 1872      00
 1873 02c3 4889EF   		movq	%rbp, %rdi
 1874 02c6 E8000000 		call	emit_sof
 1874      00
 1875              	.LVL215:
 1876 02cb E99FFDFF 		jmp	.L124
 1876      FF
 1877              	.LVL216:
 1878              	.L147:
 565:fltk-1.3.4-1/jpeg/jcmarker.c ****     is_baseline = FALSE;
 1879              		.loc 1 565 34 is_stmt 0 view .LVU513
 1880 02d0 83BDDC01 		cmpl	$8, 476(%rbp)
 1880      000008
 1881 02d7 75E5     		jne	.L115
 568:fltk-1.3.4-1/jpeg/jcmarker.c ****     for (ci = 0, compptr = cinfo->comp_info; ci < cinfo->num_components;
 1882              		.loc 1 568 5 is_stmt 1 view .LVU514
 1883              	.LVL217:
 569:fltk-1.3.4-1/jpeg/jcmarker.c **** 	 ci++, compptr++) {
 1884              		.loc 1 569 5 view .LVU515
 569:fltk-1.3.4-1/jpeg/jcmarker.c **** 	 ci++, compptr++) {
 1885              		.loc 1 569 26 is_stmt 0 view .LVU516
 1886 02d9 488B5568 		movq	104(%rbp), %rdx
 1887              	.LVL218:
 569:fltk-1.3.4-1/jpeg/jcmarker.c **** 	 ci++, compptr++) {
 1888              		.loc 1 569 46 is_stmt 1 view .LVU517
 569:fltk-1.3.4-1/jpeg/jcmarker.c **** 	 ci++, compptr++) {
 1889              		.loc 1 569 5 is_stmt 0 view .LVU518
 1890 02dd 85C0     		testl	%eax, %eax
 1891 02df 0F8EA500 		jle	.L148
 1891      0000
 1892 02e5 83E801   		subl	$1, %eax
 572:fltk-1.3.4-1/jpeg/jcmarker.c ****     }
 1893              		.loc 1 572 14 view .LVU519
 1894 02e8 31F6     		xorl	%esi, %esi
 1895 02ea 488D4C40 		leaq	3(%rax,%rax,2), %rcx
 1895      03
 568:fltk-1.3.4-1/jpeg/jcmarker.c ****     for (ci = 0, compptr = cinfo->comp_info; ci < cinfo->num_components;
 1896              		.loc 1 568 17 view .LVU520
 1897 02ef B8010000 		movl	$1, %eax
 1897      00
 1898 02f4 48C1E105 		salq	$5, %rcx
 1899 02f8 4801D1   		addq	%rdx, %rcx
 1900 02fb EB0E     		jmp	.L120
 1901              	.LVL219:
 1902 02fd 0F1F00   		.p2align 4,,10
 1903              		.p2align 3
 1904              	.L130:
 572:fltk-1.3.4-1/jpeg/jcmarker.c ****     }
 1905              		.loc 1 572 14 view .LVU521
 1906 0300 31C0     		xorl	%eax, %eax
 1907              	.LVL220:
 1908              	.L119:
 570:fltk-1.3.4-1/jpeg/jcmarker.c ****       if (compptr->dc_tbl_no > 1 || compptr->ac_tbl_no > 1)
 1909              		.loc 1 570 3 is_stmt 1 view .LVU522
 570:fltk-1.3.4-1/jpeg/jcmarker.c ****       if (compptr->dc_tbl_no > 1 || compptr->ac_tbl_no > 1)
 1910              		.loc 1 570 16 is_stmt 0 view .LVU523
 1911 0302 4883C260 		addq	$96, %rdx
 1912              	.LVL221:
 569:fltk-1.3.4-1/jpeg/jcmarker.c **** 	 ci++, compptr++) {
 1913              		.loc 1 569 46 is_stmt 1 view .LVU524
 569:fltk-1.3.4-1/jpeg/jcmarker.c **** 	 ci++, compptr++) {
 1914              		.loc 1 569 5 is_stmt 0 view .LVU525
 1915 0306 4839D1   		cmpq	%rdx, %rcx
 1916 0309 7424     		je	.L149
 1917              	.LVL222:
 1918              	.L120:
 571:fltk-1.3.4-1/jpeg/jcmarker.c **** 	is_baseline = FALSE;
 1919              		.loc 1 571 7 is_stmt 1 view .LVU526
 571:fltk-1.3.4-1/jpeg/jcmarker.c **** 	is_baseline = FALSE;
 1920              		.loc 1 571 10 is_stmt 0 view .LVU527
 1921 030b 837A1401 		cmpl	$1, 20(%rdx)
 1922 030f 7FEF     		jg	.L130
 572:fltk-1.3.4-1/jpeg/jcmarker.c ****     }
 1923              		.loc 1 572 14 discriminator 1 view .LVU528
 1924 0311 837A1802 		cmpl	$2, 24(%rdx)
 1925 0315 0F4DC6   		cmovge	%esi, %eax
 1926              	.LVL223:
 572:fltk-1.3.4-1/jpeg/jcmarker.c ****     }
 1927              		.loc 1 572 14 discriminator 1 view .LVU529
 1928 0318 EBE8     		jmp	.L119
 1929              	.LVL224:
 1930 031a 660F1F44 		.p2align 4,,10
 1930      0000
 1931              		.p2align 3
 1932              	.L145:
 1933              	.LBB176:
 1934              	.LBB175:
 290:fltk-1.3.4-1/jpeg/jcmarker.c ****       cinfo->num_components < 3)
 1935              		.loc 1 290 52 view .LVU530
 1936 0320 837D5C02 		cmpl	$2, 92(%rbp)
 1937 0324 0F8F26FE 		jg	.L127
 1937      FFFF
 1938 032a E90DFEFF 		jmp	.L126
 1938      FF
 1939              	.LVL225:
 1940              	.L149:
 290:fltk-1.3.4-1/jpeg/jcmarker.c ****       cinfo->num_components < 3)
 1941              		.loc 1 290 52 view .LVU531
 1942              	.LBE175:
 1943              	.LBE176:
 574:fltk-1.3.4-1/jpeg/jcmarker.c ****       is_baseline = FALSE;
 1944              		.loc 1 574 5 is_stmt 1 view .LVU532
 574:fltk-1.3.4-1/jpeg/jcmarker.c ****       is_baseline = FALSE;
 1945              		.loc 1 574 8 is_stmt 0 view .LVU533
 1946 032f 4585ED   		testl	%r13d, %r13d
 1947 0332 743C     		je	.L121
 1948 0334 A801     		testb	$1, %al
 1949 0336 7438     		je	.L121
 1950              	.LVL226:
 1951              	.L117:
 575:fltk-1.3.4-1/jpeg/jcmarker.c ****       /* If it's baseline except for quantizer size, warn the user */
 1952              		.loc 1 575 7 is_stmt 1 view .LVU534
 577:fltk-1.3.4-1/jpeg/jcmarker.c ****     }
 1953              		.loc 1 577 7 view .LVU535
 1954 0338 488B4500 		movq	0(%rbp), %rax
 1955 033c 31F6     		xorl	%esi, %esi
 1956 033e 4889EF   		movq	%rbp, %rdi
 1957 0341 C740284D 		movl	$77, 40(%rax)
 1957      000000
 1958 0348 488B4500 		movq	0(%rbp), %rax
 1959 034c FF5008   		call	*8(%rax)
 1960              	.LVL227:
 582:fltk-1.3.4-1/jpeg/jcmarker.c ****     if (cinfo->progressive_mode)
 1961              		.loc 1 582 3 view .LVU536
 582:fltk-1.3.4-1/jpeg/jcmarker.c ****     if (cinfo->progressive_mode)
 1962              		.loc 1 582 6 is_stmt 0 view .LVU537
 1963 034f 8B8D2401 		movl	292(%rbp), %ecx
 1963      0000
 1964 0355 85C9     		testl	%ecx, %ecx
 1965 0357 0F85A8FD 		jne	.L122
 1965      FFFF
 588:fltk-1.3.4-1/jpeg/jcmarker.c ****       emit_sof(cinfo, M_SOF2);	/* SOF code for progressive Huffman */
 1966              		.loc 1 588 5 is_stmt 1 view .LVU538
 588:fltk-1.3.4-1/jpeg/jcmarker.c ****       emit_sof(cinfo, M_SOF2);	/* SOF code for progressive Huffman */
 1967              		.loc 1 588 8 is_stmt 0 view .LVU539
 1968 035d 8B955C01 		movl	348(%rbp), %edx
 1968      0000
 1969 0363 85D2     		testl	%edx, %edx
 1970 0365 0F8453FF 		je	.L115
 1970      FFFF
 1971 036b E9F2FCFF 		jmp	.L114
 1971      FF
 1972              	.LVL228:
 1973              	.L121:
 582:fltk-1.3.4-1/jpeg/jcmarker.c ****     if (cinfo->progressive_mode)
 1974              		.loc 1 582 3 is_stmt 1 view .LVU540
 588:fltk-1.3.4-1/jpeg/jcmarker.c ****       emit_sof(cinfo, M_SOF2);	/* SOF code for progressive Huffman */
 1975              		.loc 1 588 5 view .LVU541
 590:fltk-1.3.4-1/jpeg/jcmarker.c ****       emit_sof(cinfo, M_SOF0);	/* SOF code for baseline implementation */
 1976              		.loc 1 590 10 view .LVU542
 590:fltk-1.3.4-1/jpeg/jcmarker.c ****       emit_sof(cinfo, M_SOF0);	/* SOF code for baseline implementation */
 1977              		.loc 1 590 13 is_stmt 0 view .LVU543
 1978 0370 85C0     		testl	%eax, %eax
 1979 0372 0F8446FF 		je	.L115
 1979      FFFF
 1980              	.LVL229:
 1981              	.L118:
 591:fltk-1.3.4-1/jpeg/jcmarker.c ****     else
 1982              		.loc 1 591 7 is_stmt 1 view .LVU544
 1983 0378 BEC00000 		movl	$192, %esi
 1983      00
 1984 037d 4889EF   		movq	%rbp, %rdi
 1985 0380 E8000000 		call	emit_sof
 1985      00
 1986              	.LVL230:
 591:fltk-1.3.4-1/jpeg/jcmarker.c ****     else
 1987              		.loc 1 591 7 is_stmt 0 view .LVU545
 1988 0385 E9E5FCFF 		jmp	.L124
 1988      FF
 1989              	.LVL231:
 1990              	.L148:
 574:fltk-1.3.4-1/jpeg/jcmarker.c ****       is_baseline = FALSE;
 1991              		.loc 1 574 5 is_stmt 1 view .LVU546
 574:fltk-1.3.4-1/jpeg/jcmarker.c ****       is_baseline = FALSE;
 1992              		.loc 1 574 8 is_stmt 0 view .LVU547
 1993 038a 4585ED   		testl	%r13d, %r13d
 1994 038d 75A9     		jne	.L117
 1995 038f EBE7     		jmp	.L118
 1996              		.cfi_endproc
 1997              	.LFE67:
 1999              		.section	.text.write_marker_header,"ax",@progbits
 2000              		.p2align 4
 2002              	write_marker_header:
 2003              	.LVL232:
 2004              	.LFB64:
 490:fltk-1.3.4-1/jpeg/jcmarker.c ****   if (datalen > (unsigned int) 65533)		/* safety check */
 2005              		.loc 1 490 1 is_stmt 1 view -0
 2006              		.cfi_startproc
 490:fltk-1.3.4-1/jpeg/jcmarker.c ****   if (datalen > (unsigned int) 65533)		/* safety check */
 2007              		.loc 1 490 1 is_stmt 0 view .LVU549
 2008 0000 F30F1EFA 		endbr64
 491:fltk-1.3.4-1/jpeg/jcmarker.c ****     ERREXIT(cinfo, JERR_BAD_LENGTH);
 2009              		.loc 1 491 3 is_stmt 1 view .LVU550
 490:fltk-1.3.4-1/jpeg/jcmarker.c ****   if (datalen > (unsigned int) 65533)		/* safety check */
 2010              		.loc 1 490 1 is_stmt 0 view .LVU551
 2011 0004 4154     		pushq	%r12
 2012              		.cfi_def_cfa_offset 16
 2013              		.cfi_offset 12, -16
 2014 0006 4189F4   		movl	%esi, %r12d
 2015 0009 55       		pushq	%rbp
 2016              		.cfi_def_cfa_offset 24
 2017              		.cfi_offset 6, -24
 2018 000a 4889FD   		movq	%rdi, %rbp
 2019 000d 53       		pushq	%rbx
 2020              		.cfi_def_cfa_offset 32
 2021              		.cfi_offset 3, -32
 490:fltk-1.3.4-1/jpeg/jcmarker.c ****   if (datalen > (unsigned int) 65533)		/* safety check */
 2022              		.loc 1 490 1 view .LVU552
 2023 000e 89D3     		movl	%edx, %ebx
 491:fltk-1.3.4-1/jpeg/jcmarker.c ****     ERREXIT(cinfo, JERR_BAD_LENGTH);
 2024              		.loc 1 491 6 view .LVU553
 2025 0010 81FAFDFF 		cmpl	$65533, %edx
 2025      0000
 2026 0016 760F     		jbe	.L151
 492:fltk-1.3.4-1/jpeg/jcmarker.c **** 
 2027              		.loc 1 492 5 is_stmt 1 view .LVU554
 2028 0018 488B07   		movq	(%rdi), %rax
 2029 001b C740280C 		movl	$12, 40(%rax)
 2029      000000
 2030 0022 488B07   		movq	(%rdi), %rax
 2031 0025 FF10     		call	*(%rax)
 2032              	.LVL233:
 2033              	.L151:
 494:fltk-1.3.4-1/jpeg/jcmarker.c **** 
 2034              		.loc 1 494 3 view .LVU555
 2035              	.LBB177:
 2036              	.LBI177:
 124:fltk-1.3.4-1/jpeg/jcmarker.c **** /* Emit a marker code */
 2037              		.loc 1 124 1 view .LVU556
 2038              	.LBB178:
 127:fltk-1.3.4-1/jpeg/jcmarker.c ****   emit_byte(cinfo, (int) mark);
 2039              		.loc 1 127 3 view .LVU557
 2040 0027 4889EF   		movq	%rbp, %rdi
 2041 002a BEFF0000 		movl	$255, %esi
 2041      00
 2042 002f E8000000 		call	emit_byte
 2042      00
 2043              	.LVL234:
 128:fltk-1.3.4-1/jpeg/jcmarker.c **** }
 2044              		.loc 1 128 3 view .LVU558
 2045 0034 4489E6   		movl	%r12d, %esi
 2046 0037 4889EF   		movq	%rbp, %rdi
 2047 003a E8000000 		call	emit_byte
 2047      00
 2048              	.LVL235:
 128:fltk-1.3.4-1/jpeg/jcmarker.c **** }
 2049              		.loc 1 128 3 is_stmt 0 view .LVU559
 2050              	.LBE178:
 2051              	.LBE177:
 496:fltk-1.3.4-1/jpeg/jcmarker.c **** }
 2052              		.loc 1 496 3 is_stmt 1 view .LVU560
 496:fltk-1.3.4-1/jpeg/jcmarker.c **** }
 2053              		.loc 1 496 37 is_stmt 0 view .LVU561
 2054 003f 8D7302   		leal	2(%rbx), %esi
 496:fltk-1.3.4-1/jpeg/jcmarker.c **** }
 2055              		.loc 1 496 3 view .LVU562
 2056 0042 4889EF   		movq	%rbp, %rdi
 497:fltk-1.3.4-1/jpeg/jcmarker.c **** 
 2057              		.loc 1 497 1 view .LVU563
 2058 0045 5B       		popq	%rbx
 2059              		.cfi_def_cfa_offset 24
 2060              	.LVL236:
 497:fltk-1.3.4-1/jpeg/jcmarker.c **** 
 2061              		.loc 1 497 1 view .LVU564
 2062 0046 5D       		popq	%rbp
 2063              		.cfi_def_cfa_offset 16
 2064              	.LVL237:
 497:fltk-1.3.4-1/jpeg/jcmarker.c **** 
 2065              		.loc 1 497 1 view .LVU565
 2066 0047 415C     		popq	%r12
 2067              		.cfi_def_cfa_offset 8
 2068              	.LVL238:
 496:fltk-1.3.4-1/jpeg/jcmarker.c **** }
 2069              		.loc 1 496 3 view .LVU566
 2070 0049 E9000000 		jmp	emit_2bytes
 2070      00
 2071              	.LVL239:
 496:fltk-1.3.4-1/jpeg/jcmarker.c **** }
 2072              		.loc 1 496 3 view .LVU567
 2073              		.cfi_endproc
 2074              	.LFE64:
 2076              		.section	.text.write_marker_byte,"ax",@progbits
 2077              		.p2align 4
 2079              	write_marker_byte:
 2080              	.LVL240:
 2081              	.LFB65:
 502:fltk-1.3.4-1/jpeg/jcmarker.c ****   emit_byte(cinfo, val);
 2082              		.loc 1 502 1 is_stmt 1 view -0
 2083              		.cfi_startproc
 502:fltk-1.3.4-1/jpeg/jcmarker.c ****   emit_byte(cinfo, val);
 2084              		.loc 1 502 1 is_stmt 0 view .LVU569
 2085 0000 F30F1EFA 		endbr64
 503:fltk-1.3.4-1/jpeg/jcmarker.c **** }
 2086              		.loc 1 503 3 is_stmt 1 view .LVU570
 2087 0004 E9000000 		jmp	emit_byte
 2087      00
 2088              	.LVL241:
 503:fltk-1.3.4-1/jpeg/jcmarker.c **** }
 2089              		.loc 1 503 3 is_stmt 0 view .LVU571
 2090              		.cfi_endproc
 2091              	.LFE65:
 2093              		.section	.text.write_file_header,"ax",@progbits
 2094              		.p2align 4
 2096              	write_file_header:
 2097              	.LVL242:
 2098              	.LFB66:
 520:fltk-1.3.4-1/jpeg/jcmarker.c ****   my_marker_ptr marker = (my_marker_ptr) cinfo->marker;
 2099              		.loc 1 520 1 is_stmt 1 view -0
 2100              		.cfi_startproc
 520:fltk-1.3.4-1/jpeg/jcmarker.c ****   my_marker_ptr marker = (my_marker_ptr) cinfo->marker;
 2101              		.loc 1 520 1 is_stmt 0 view .LVU573
 2102 0000 F30F1EFA 		endbr64
 521:fltk-1.3.4-1/jpeg/jcmarker.c **** 
 2103              		.loc 1 521 3 is_stmt 1 view .LVU574
 520:fltk-1.3.4-1/jpeg/jcmarker.c ****   my_marker_ptr marker = (my_marker_ptr) cinfo->marker;
 2104              		.loc 1 520 1 is_stmt 0 view .LVU575
 2105 0004 55       		pushq	%rbp
 2106              		.cfi_def_cfa_offset 16
 2107              		.cfi_offset 6, -16
 2108              	.LBB199:
 2109              	.LBB200:
 127:fltk-1.3.4-1/jpeg/jcmarker.c ****   emit_byte(cinfo, (int) mark);
 2110              		.loc 1 127 3 view .LVU576
 2111 0005 BEFF0000 		movl	$255, %esi
 2111      00
 2112              	.LBE200:
 2113              	.LBE199:
 520:fltk-1.3.4-1/jpeg/jcmarker.c ****   my_marker_ptr marker = (my_marker_ptr) cinfo->marker;
 2114              		.loc 1 520 1 view .LVU577
 2115 000a 4889FD   		movq	%rdi, %rbp
 2116 000d 53       		pushq	%rbx
 2117              		.cfi_def_cfa_offset 24
 2118              		.cfi_offset 3, -24
 2119 000e 4883EC08 		subq	$8, %rsp
 2120              		.cfi_def_cfa_offset 32
 521:fltk-1.3.4-1/jpeg/jcmarker.c **** 
 2121              		.loc 1 521 17 view .LVU578
 2122 0012 488B9F10 		movq	528(%rdi), %rbx
 2122      020000
 2123              	.LVL243:
 523:fltk-1.3.4-1/jpeg/jcmarker.c **** 
 2124              		.loc 1 523 3 is_stmt 1 view .LVU579
 2125              	.LBB202:
 2126              	.LBI199:
 124:fltk-1.3.4-1/jpeg/jcmarker.c **** /* Emit a marker code */
 2127              		.loc 1 124 1 view .LVU580
 2128              	.LBB201:
 127:fltk-1.3.4-1/jpeg/jcmarker.c ****   emit_byte(cinfo, (int) mark);
 2129              		.loc 1 127 3 view .LVU581
 2130 0019 E8000000 		call	emit_byte
 2130      00
 2131              	.LVL244:
 128:fltk-1.3.4-1/jpeg/jcmarker.c **** }
 2132              		.loc 1 128 3 view .LVU582
 2133 001e BED80000 		movl	$216, %esi
 2133      00
 2134 0023 4889EF   		movq	%rbp, %rdi
 2135 0026 E8000000 		call	emit_byte
 2135      00
 2136              	.LVL245:
 128:fltk-1.3.4-1/jpeg/jcmarker.c **** }
 2137              		.loc 1 128 3 is_stmt 0 view .LVU583
 2138              	.LBE201:
 2139              	.LBE202:
 526:fltk-1.3.4-1/jpeg/jcmarker.c **** 
 2140              		.loc 1 526 3 is_stmt 1 view .LVU584
 526:fltk-1.3.4-1/jpeg/jcmarker.c **** 
 2141              		.loc 1 526 33 is_stmt 0 view .LVU585
 2142 002b C7433800 		movl	$0, 56(%rbx)
 2142      000000
 528:fltk-1.3.4-1/jpeg/jcmarker.c ****     emit_jfif_app0(cinfo);
 2143              		.loc 1 528 3 is_stmt 1 view .LVU586
 528:fltk-1.3.4-1/jpeg/jcmarker.c ****     emit_jfif_app0(cinfo);
 2144              		.loc 1 528 6 is_stmt 0 view .LVU587
 2145 0032 8B954401 		movl	324(%rbp), %edx
 2145      0000
 2146 0038 85D2     		testl	%edx, %edx
 2147 003a 751C     		jne	.L163
 530:fltk-1.3.4-1/jpeg/jcmarker.c ****     emit_adobe_app14(cinfo);
 2148              		.loc 1 530 3 is_stmt 1 view .LVU588
 530:fltk-1.3.4-1/jpeg/jcmarker.c ****     emit_adobe_app14(cinfo);
 2149              		.loc 1 530 6 is_stmt 0 view .LVU589
 2150 003c 8B855001 		movl	336(%rbp), %eax
 2150      0000
 2151 0042 85C0     		testl	%eax, %eax
 2152 0044 0F85EA00 		jne	.L164
 2152      0000
 2153              	.L154:
 532:fltk-1.3.4-1/jpeg/jcmarker.c **** 
 2154              		.loc 1 532 1 view .LVU590
 2155 004a 4883C408 		addq	$8, %rsp
 2156              		.cfi_remember_state
 2157              		.cfi_def_cfa_offset 24
 2158 004e 5B       		popq	%rbx
 2159              		.cfi_def_cfa_offset 16
 2160              	.LVL246:
 532:fltk-1.3.4-1/jpeg/jcmarker.c **** 
 2161              		.loc 1 532 1 view .LVU591
 2162 004f 5D       		popq	%rbp
 2163              		.cfi_def_cfa_offset 8
 2164              	.LVL247:
 532:fltk-1.3.4-1/jpeg/jcmarker.c **** 
 2165              		.loc 1 532 1 view .LVU592
 2166 0050 C3       		ret
 2167              	.LVL248:
 2168              		.p2align 4,,10
 2169 0051 0F1F8000 		.p2align 3
 2169      000000
 2170              	.L163:
 2171              		.cfi_restore_state
 529:fltk-1.3.4-1/jpeg/jcmarker.c ****   if (cinfo->write_Adobe_marker) /* next an optional Adobe APP14 */
 2172              		.loc 1 529 5 is_stmt 1 view .LVU593
 2173              	.LBB203:
 2174              	.LBI203:
 399:fltk-1.3.4-1/jpeg/jcmarker.c **** /* Emit a JFIF-compliant APP0 marker */
 2175              		.loc 1 399 1 view .LVU594
 2176              	.LBB204:
 414:fltk-1.3.4-1/jpeg/jcmarker.c ****   
 2177              		.loc 1 414 3 view .LVU595
 2178              	.LBB205:
 2179              	.LBI205:
 124:fltk-1.3.4-1/jpeg/jcmarker.c **** /* Emit a marker code */
 2180              		.loc 1 124 1 view .LVU596
 2181              	.LBB206:
 127:fltk-1.3.4-1/jpeg/jcmarker.c ****   emit_byte(cinfo, (int) mark);
 2182              		.loc 1 127 3 view .LVU597
 2183 0058 BEFF0000 		movl	$255, %esi
 2183      00
 2184 005d 4889EF   		movq	%rbp, %rdi
 2185 0060 E8000000 		call	emit_byte
 2185      00
 2186              	.LVL249:
 128:fltk-1.3.4-1/jpeg/jcmarker.c **** }
 2187              		.loc 1 128 3 view .LVU598
 2188 0065 BEE00000 		movl	$224, %esi
 2188      00
 2189 006a 4889EF   		movq	%rbp, %rdi
 2190 006d E8000000 		call	emit_byte
 2190      00
 2191              	.LVL250:
 128:fltk-1.3.4-1/jpeg/jcmarker.c **** }
 2192              		.loc 1 128 3 is_stmt 0 view .LVU599
 2193              	.LBE206:
 2194              	.LBE205:
 416:fltk-1.3.4-1/jpeg/jcmarker.c **** 
 2195              		.loc 1 416 3 is_stmt 1 view .LVU600
 2196              	.LBB207:
 2197              	.LBI207:
 133:fltk-1.3.4-1/jpeg/jcmarker.c **** /* Emit a 2-byte integer; these are always MSB first in JPEG files */
 2198              		.loc 1 133 1 view .LVU601
 2199              	.LBB208:
 136:fltk-1.3.4-1/jpeg/jcmarker.c ****   emit_byte(cinfo, value & 0xFF);
 2200              		.loc 1 136 3 view .LVU602
 2201 0072 31F6     		xorl	%esi, %esi
 2202 0074 4889EF   		movq	%rbp, %rdi
 2203 0077 E8000000 		call	emit_byte
 2203      00
 2204              	.LVL251:
 137:fltk-1.3.4-1/jpeg/jcmarker.c **** }
 2205              		.loc 1 137 3 view .LVU603
 2206 007c BE100000 		movl	$16, %esi
 2206      00
 2207 0081 4889EF   		movq	%rbp, %rdi
 2208 0084 E8000000 		call	emit_byte
 2208      00
 2209              	.LVL252:
 137:fltk-1.3.4-1/jpeg/jcmarker.c **** }
 2210              		.loc 1 137 3 is_stmt 0 view .LVU604
 2211              	.LBE208:
 2212              	.LBE207:
 418:fltk-1.3.4-1/jpeg/jcmarker.c ****   emit_byte(cinfo, 0x46);
 2213              		.loc 1 418 3 is_stmt 1 view .LVU605
 2214 0089 BE4A0000 		movl	$74, %esi
 2214      00
 2215 008e 4889EF   		movq	%rbp, %rdi
 2216 0091 E8000000 		call	emit_byte
 2216      00
 2217              	.LVL253:
 419:fltk-1.3.4-1/jpeg/jcmarker.c ****   emit_byte(cinfo, 0x49);
 2218              		.loc 1 419 3 view .LVU606
 2219 0096 BE460000 		movl	$70, %esi
 2219      00
 2220 009b 4889EF   		movq	%rbp, %rdi
 2221 009e E8000000 		call	emit_byte
 2221      00
 2222              	.LVL254:
 420:fltk-1.3.4-1/jpeg/jcmarker.c ****   emit_byte(cinfo, 0x46);
 2223              		.loc 1 420 3 view .LVU607
 2224 00a3 BE490000 		movl	$73, %esi
 2224      00
 2225 00a8 4889EF   		movq	%rbp, %rdi
 2226 00ab E8000000 		call	emit_byte
 2226      00
 2227              	.LVL255:
 421:fltk-1.3.4-1/jpeg/jcmarker.c ****   emit_byte(cinfo, 0);
 2228              		.loc 1 421 3 view .LVU608
 2229 00b0 BE460000 		movl	$70, %esi
 2229      00
 2230 00b5 4889EF   		movq	%rbp, %rdi
 2231 00b8 E8000000 		call	emit_byte
 2231      00
 2232              	.LVL256:
 422:fltk-1.3.4-1/jpeg/jcmarker.c ****   emit_byte(cinfo, cinfo->JFIF_major_version); /* Version fields */
 2233              		.loc 1 422 3 view .LVU609
 2234 00bd 31F6     		xorl	%esi, %esi
 2235 00bf 4889EF   		movq	%rbp, %rdi
 2236 00c2 E8000000 		call	emit_byte
 2236      00
 2237              	.LVL257:
 423:fltk-1.3.4-1/jpeg/jcmarker.c ****   emit_byte(cinfo, cinfo->JFIF_minor_version);
 2238              		.loc 1 423 3 view .LVU610
 2239 00c7 0FB6B548 		movzbl	328(%rbp), %esi
 2239      010000
 2240 00ce 4889EF   		movq	%rbp, %rdi
 2241 00d1 E8000000 		call	emit_byte
 2241      00
 2242              	.LVL258:
 424:fltk-1.3.4-1/jpeg/jcmarker.c ****   emit_byte(cinfo, cinfo->density_unit); /* Pixel size information */
 2243              		.loc 1 424 3 view .LVU611
 2244 00d6 0FB6B549 		movzbl	329(%rbp), %esi
 2244      010000
 2245 00dd 4889EF   		movq	%rbp, %rdi
 2246 00e0 E8000000 		call	emit_byte
 2246      00
 2247              	.LVL259:
 425:fltk-1.3.4-1/jpeg/jcmarker.c ****   emit_2bytes(cinfo, (int) cinfo->X_density);
 2248              		.loc 1 425 3 view .LVU612
 2249 00e5 0FB6B54A 		movzbl	330(%rbp), %esi
 2249      010000
 2250 00ec 4889EF   		movq	%rbp, %rdi
 2251 00ef E8000000 		call	emit_byte
 2251      00
 2252              	.LVL260:
 426:fltk-1.3.4-1/jpeg/jcmarker.c ****   emit_2bytes(cinfo, (int) cinfo->Y_density);
 2253              		.loc 1 426 3 view .LVU613
 2254 00f4 0FB7B54C 		movzwl	332(%rbp), %esi
 2254      010000
 2255 00fb 4889EF   		movq	%rbp, %rdi
 2256 00fe E8000000 		call	emit_2bytes
 2256      00
 2257              	.LVL261:
 427:fltk-1.3.4-1/jpeg/jcmarker.c ****   emit_byte(cinfo, 0);		/* No thumbnail image */
 2258              		.loc 1 427 3 view .LVU614
 2259 0103 0FB7B54E 		movzwl	334(%rbp), %esi
 2259      010000
 2260 010a 4889EF   		movq	%rbp, %rdi
 2261 010d E8000000 		call	emit_2bytes
 2261      00
 2262              	.LVL262:
 428:fltk-1.3.4-1/jpeg/jcmarker.c ****   emit_byte(cinfo, 0);
 2263              		.loc 1 428 3 view .LVU615
 2264 0112 31F6     		xorl	%esi, %esi
 2265 0114 4889EF   		movq	%rbp, %rdi
 2266 0117 E8000000 		call	emit_byte
 2266      00
 2267              	.LVL263:
 429:fltk-1.3.4-1/jpeg/jcmarker.c **** }
 2268              		.loc 1 429 3 view .LVU616
 2269 011c 31F6     		xorl	%esi, %esi
 2270 011e 4889EF   		movq	%rbp, %rdi
 2271 0121 E8000000 		call	emit_byte
 2271      00
 2272              	.LVL264:
 429:fltk-1.3.4-1/jpeg/jcmarker.c **** }
 2273              		.loc 1 429 3 is_stmt 0 view .LVU617
 2274              	.LBE204:
 2275              	.LBE203:
 530:fltk-1.3.4-1/jpeg/jcmarker.c ****     emit_adobe_app14(cinfo);
 2276              		.loc 1 530 3 is_stmt 1 view .LVU618
 530:fltk-1.3.4-1/jpeg/jcmarker.c ****     emit_adobe_app14(cinfo);
 2277              		.loc 1 530 6 is_stmt 0 view .LVU619
 2278 0126 8B855001 		movl	336(%rbp), %eax
 2278      0000
 2279 012c 85C0     		testl	%eax, %eax
 2280 012e 0F8416FF 		je	.L154
 2280      FFFF
 2281              	.L164:
 531:fltk-1.3.4-1/jpeg/jcmarker.c **** }
 2282              		.loc 1 531 5 is_stmt 1 view .LVU620
 2283              	.LVL265:
 2284              	.LBB209:
 2285              	.LBI209:
 434:fltk-1.3.4-1/jpeg/jcmarker.c **** /* Emit an Adobe APP14 marker */
 2286              		.loc 1 434 1 view .LVU621
 2287              	.LBB210:
 453:fltk-1.3.4-1/jpeg/jcmarker.c ****   
 2288              		.loc 1 453 3 view .LVU622
 2289              	.LBB211:
 2290              	.LBI211:
 124:fltk-1.3.4-1/jpeg/jcmarker.c **** /* Emit a marker code */
 2291              		.loc 1 124 1 view .LVU623
 2292              	.LBB212:
 127:fltk-1.3.4-1/jpeg/jcmarker.c ****   emit_byte(cinfo, (int) mark);
 2293              		.loc 1 127 3 view .LVU624
 2294 0134 BEFF0000 		movl	$255, %esi
 2294      00
 2295 0139 4889EF   		movq	%rbp, %rdi
 2296 013c E8000000 		call	emit_byte
 2296      00
 2297              	.LVL266:
 128:fltk-1.3.4-1/jpeg/jcmarker.c **** }
 2298              		.loc 1 128 3 view .LVU625
 2299 0141 BEEE0000 		movl	$238, %esi
 2299      00
 2300 0146 4889EF   		movq	%rbp, %rdi
 2301 0149 E8000000 		call	emit_byte
 2301      00
 2302              	.LVL267:
 128:fltk-1.3.4-1/jpeg/jcmarker.c **** }
 2303              		.loc 1 128 3 is_stmt 0 view .LVU626
 2304              	.LBE212:
 2305              	.LBE211:
 455:fltk-1.3.4-1/jpeg/jcmarker.c **** 
 2306              		.loc 1 455 3 is_stmt 1 view .LVU627
 2307              	.LBB213:
 2308              	.LBI213:
 133:fltk-1.3.4-1/jpeg/jcmarker.c **** /* Emit a 2-byte integer; these are always MSB first in JPEG files */
 2309              		.loc 1 133 1 view .LVU628
 2310              	.LBB214:
 136:fltk-1.3.4-1/jpeg/jcmarker.c ****   emit_byte(cinfo, value & 0xFF);
 2311              		.loc 1 136 3 view .LVU629
 2312 014e 31F6     		xorl	%esi, %esi
 2313 0150 4889EF   		movq	%rbp, %rdi
 2314 0153 E8000000 		call	emit_byte
 2314      00
 2315              	.LVL268:
 137:fltk-1.3.4-1/jpeg/jcmarker.c **** }
 2316              		.loc 1 137 3 view .LVU630
 2317 0158 BE0E0000 		movl	$14, %esi
 2317      00
 2318 015d 4889EF   		movq	%rbp, %rdi
 2319 0160 E8000000 		call	emit_byte
 2319      00
 2320              	.LVL269:
 137:fltk-1.3.4-1/jpeg/jcmarker.c **** }
 2321              		.loc 1 137 3 is_stmt 0 view .LVU631
 2322              	.LBE214:
 2323              	.LBE213:
 457:fltk-1.3.4-1/jpeg/jcmarker.c ****   emit_byte(cinfo, 0x64);
 2324              		.loc 1 457 3 is_stmt 1 view .LVU632
 2325 0165 BE410000 		movl	$65, %esi
 2325      00
 2326 016a 4889EF   		movq	%rbp, %rdi
 2327 016d E8000000 		call	emit_byte
 2327      00
 2328              	.LVL270:
 458:fltk-1.3.4-1/jpeg/jcmarker.c ****   emit_byte(cinfo, 0x6F);
 2329              		.loc 1 458 3 view .LVU633
 2330 0172 BE640000 		movl	$100, %esi
 2330      00
 2331 0177 4889EF   		movq	%rbp, %rdi
 2332 017a E8000000 		call	emit_byte
 2332      00
 2333              	.LVL271:
 459:fltk-1.3.4-1/jpeg/jcmarker.c ****   emit_byte(cinfo, 0x62);
 2334              		.loc 1 459 3 view .LVU634
 2335 017f BE6F0000 		movl	$111, %esi
 2335      00
 2336 0184 4889EF   		movq	%rbp, %rdi
 2337 0187 E8000000 		call	emit_byte
 2337      00
 2338              	.LVL272:
 460:fltk-1.3.4-1/jpeg/jcmarker.c ****   emit_byte(cinfo, 0x65);
 2339              		.loc 1 460 3 view .LVU635
 2340 018c BE620000 		movl	$98, %esi
 2340      00
 2341 0191 4889EF   		movq	%rbp, %rdi
 2342 0194 E8000000 		call	emit_byte
 2342      00
 2343              	.LVL273:
 461:fltk-1.3.4-1/jpeg/jcmarker.c ****   emit_2bytes(cinfo, 100);	/* Version */
 2344              		.loc 1 461 3 view .LVU636
 2345 0199 BE650000 		movl	$101, %esi
 2345      00
 2346 019e 4889EF   		movq	%rbp, %rdi
 2347 01a1 E8000000 		call	emit_byte
 2347      00
 2348              	.LVL274:
 462:fltk-1.3.4-1/jpeg/jcmarker.c ****   emit_2bytes(cinfo, 0);	/* Flags0 */
 2349              		.loc 1 462 3 view .LVU637
 2350              	.LBB215:
 2351              	.LBI215:
 133:fltk-1.3.4-1/jpeg/jcmarker.c **** /* Emit a 2-byte integer; these are always MSB first in JPEG files */
 2352              		.loc 1 133 1 view .LVU638
 2353              	.LBB216:
 136:fltk-1.3.4-1/jpeg/jcmarker.c ****   emit_byte(cinfo, value & 0xFF);
 2354              		.loc 1 136 3 view .LVU639
 2355 01a6 31F6     		xorl	%esi, %esi
 2356 01a8 4889EF   		movq	%rbp, %rdi
 2357 01ab E8000000 		call	emit_byte
 2357      00
 2358              	.LVL275:
 137:fltk-1.3.4-1/jpeg/jcmarker.c **** }
 2359              		.loc 1 137 3 view .LVU640
 2360 01b0 BE640000 		movl	$100, %esi
 2360      00
 2361 01b5 4889EF   		movq	%rbp, %rdi
 2362 01b8 E8000000 		call	emit_byte
 2362      00
 2363              	.LVL276:
 137:fltk-1.3.4-1/jpeg/jcmarker.c **** }
 2364              		.loc 1 137 3 is_stmt 0 view .LVU641
 2365              	.LBE216:
 2366              	.LBE215:
 463:fltk-1.3.4-1/jpeg/jcmarker.c ****   emit_2bytes(cinfo, 0);	/* Flags1 */
 2367              		.loc 1 463 3 is_stmt 1 view .LVU642
 2368              	.LBB217:
 2369              	.LBI217:
 133:fltk-1.3.4-1/jpeg/jcmarker.c **** /* Emit a 2-byte integer; these are always MSB first in JPEG files */
 2370              		.loc 1 133 1 view .LVU643
 2371              	.LBB218:
 136:fltk-1.3.4-1/jpeg/jcmarker.c ****   emit_byte(cinfo, value & 0xFF);
 2372              		.loc 1 136 3 view .LVU644
 2373 01bd 31F6     		xorl	%esi, %esi
 2374 01bf 4889EF   		movq	%rbp, %rdi
 2375 01c2 E8000000 		call	emit_byte
 2375      00
 2376              	.LVL277:
 137:fltk-1.3.4-1/jpeg/jcmarker.c **** }
 2377              		.loc 1 137 3 view .LVU645
 2378 01c7 31F6     		xorl	%esi, %esi
 2379 01c9 4889EF   		movq	%rbp, %rdi
 2380 01cc E8000000 		call	emit_byte
 2380      00
 2381              	.LVL278:
 137:fltk-1.3.4-1/jpeg/jcmarker.c **** }
 2382              		.loc 1 137 3 is_stmt 0 view .LVU646
 2383              	.LBE218:
 2384              	.LBE217:
 464:fltk-1.3.4-1/jpeg/jcmarker.c ****   switch (cinfo->jpeg_color_space) {
 2385              		.loc 1 464 3 is_stmt 1 view .LVU647
 2386              	.LBB219:
 2387              	.LBI219:
 133:fltk-1.3.4-1/jpeg/jcmarker.c **** /* Emit a 2-byte integer; these are always MSB first in JPEG files */
 2388              		.loc 1 133 1 view .LVU648
 2389              	.LBB220:
 136:fltk-1.3.4-1/jpeg/jcmarker.c ****   emit_byte(cinfo, value & 0xFF);
 2390              		.loc 1 136 3 view .LVU649
 2391 01d1 31F6     		xorl	%esi, %esi
 2392 01d3 4889EF   		movq	%rbp, %rdi
 2393 01d6 E8000000 		call	emit_byte
 2393      00
 2394              	.LVL279:
 137:fltk-1.3.4-1/jpeg/jcmarker.c **** }
 2395              		.loc 1 137 3 view .LVU650
 2396 01db 31F6     		xorl	%esi, %esi
 2397 01dd 4889EF   		movq	%rbp, %rdi
 2398 01e0 E8000000 		call	emit_byte
 2398      00
 2399              	.LVL280:
 137:fltk-1.3.4-1/jpeg/jcmarker.c **** }
 2400              		.loc 1 137 3 is_stmt 0 view .LVU651
 2401              	.LBE220:
 2402              	.LBE219:
 465:fltk-1.3.4-1/jpeg/jcmarker.c ****   case JCS_YCbCr:
 2403              		.loc 1 465 3 is_stmt 1 view .LVU652
 465:fltk-1.3.4-1/jpeg/jcmarker.c ****   case JCS_YCbCr:
 2404              		.loc 1 465 16 is_stmt 0 view .LVU653
 2405 01e5 8B4560   		movl	96(%rbp), %eax
 467:fltk-1.3.4-1/jpeg/jcmarker.c ****     break;
 2406              		.loc 1 467 5 view .LVU654
 2407 01e8 BE010000 		movl	$1, %esi
 2407      00
 465:fltk-1.3.4-1/jpeg/jcmarker.c ****   case JCS_YCbCr:
 2408              		.loc 1 465 3 view .LVU655
 2409 01ed 83F803   		cmpl	$3, %eax
 2410 01f0 740C     		je	.L162
 470:fltk-1.3.4-1/jpeg/jcmarker.c ****     break;
 2411              		.loc 1 470 5 view .LVU656
 2412 01f2 BE020000 		movl	$2, %esi
 2412      00
 465:fltk-1.3.4-1/jpeg/jcmarker.c ****   case JCS_YCbCr:
 2413              		.loc 1 465 3 view .LVU657
 2414 01f7 83F805   		cmpl	$5, %eax
 2415 01fa 7402     		je	.L162
 473:fltk-1.3.4-1/jpeg/jcmarker.c ****     break;
 2416              		.loc 1 473 5 is_stmt 1 view .LVU658
 2417 01fc 31F6     		xorl	%esi, %esi
 2418              	.L162:
 473:fltk-1.3.4-1/jpeg/jcmarker.c ****     break;
 2419              		.loc 1 473 5 is_stmt 0 view .LVU659
 2420              	.LBE210:
 2421              	.LBE209:
 532:fltk-1.3.4-1/jpeg/jcmarker.c **** 
 2422              		.loc 1 532 1 view .LVU660
 2423 01fe 4883C408 		addq	$8, %rsp
 2424              		.cfi_def_cfa_offset 24
 2425              	.LBB223:
 2426              	.LBB221:
 473:fltk-1.3.4-1/jpeg/jcmarker.c ****     break;
 2427              		.loc 1 473 5 view .LVU661
 2428 0202 4889EF   		movq	%rbp, %rdi
 2429              	.LBE221:
 2430              	.LBE223:
 532:fltk-1.3.4-1/jpeg/jcmarker.c **** 
 2431              		.loc 1 532 1 view .LVU662
 2432 0205 5B       		popq	%rbx
 2433              		.cfi_def_cfa_offset 16
 2434              	.LVL281:
 532:fltk-1.3.4-1/jpeg/jcmarker.c **** 
 2435              		.loc 1 532 1 view .LVU663
 2436 0206 5D       		popq	%rbp
 2437              		.cfi_def_cfa_offset 8
 2438              	.LVL282:
 2439              	.LBB224:
 2440              	.LBB222:
 473:fltk-1.3.4-1/jpeg/jcmarker.c ****     break;
 2441              		.loc 1 473 5 view .LVU664
 2442 0207 E9000000 		jmp	emit_byte
 2442      00
 2443              	.LVL283:
 473:fltk-1.3.4-1/jpeg/jcmarker.c ****     break;
 2444              		.loc 1 473 5 view .LVU665
 2445              	.LBE222:
 2446              	.LBE224:
 2447              		.cfi_endproc
 2448              	.LFE66:
 2450              		.section	.text.write_file_trailer,"ax",@progbits
 2451              		.p2align 4
 2453              	write_file_trailer:
 2454              	.LVL284:
 2455              	.LFB69:
 650:fltk-1.3.4-1/jpeg/jcmarker.c **** 
 651:fltk-1.3.4-1/jpeg/jcmarker.c **** 
 652:fltk-1.3.4-1/jpeg/jcmarker.c **** /*
 653:fltk-1.3.4-1/jpeg/jcmarker.c ****  * Write datastream trailer.
 654:fltk-1.3.4-1/jpeg/jcmarker.c ****  */
 655:fltk-1.3.4-1/jpeg/jcmarker.c **** 
 656:fltk-1.3.4-1/jpeg/jcmarker.c **** METHODDEF(void)
 657:fltk-1.3.4-1/jpeg/jcmarker.c **** write_file_trailer (j_compress_ptr cinfo)
 658:fltk-1.3.4-1/jpeg/jcmarker.c **** {
 2456              		.loc 1 658 1 is_stmt 1 view -0
 2457              		.cfi_startproc
 2458              		.loc 1 658 1 is_stmt 0 view .LVU667
 2459 0000 F30F1EFA 		endbr64
 659:fltk-1.3.4-1/jpeg/jcmarker.c ****   emit_marker(cinfo, M_EOI);
 2460              		.loc 1 659 3 is_stmt 1 view .LVU668
 658:fltk-1.3.4-1/jpeg/jcmarker.c ****   emit_marker(cinfo, M_EOI);
 2461              		.loc 1 658 1 is_stmt 0 view .LVU669
 2462 0004 55       		pushq	%rbp
 2463              		.cfi_def_cfa_offset 16
 2464              		.cfi_offset 6, -16
 2465              	.LBB225:
 2466              	.LBB226:
 127:fltk-1.3.4-1/jpeg/jcmarker.c ****   emit_byte(cinfo, (int) mark);
 2467              		.loc 1 127 3 view .LVU670
 2468 0005 BEFF0000 		movl	$255, %esi
 2468      00
 2469              	.LBE226:
 2470              	.LBE225:
 658:fltk-1.3.4-1/jpeg/jcmarker.c ****   emit_marker(cinfo, M_EOI);
 2471              		.loc 1 658 1 view .LVU671
 2472 000a 4889FD   		movq	%rdi, %rbp
 2473              	.LVL285:
 2474              	.LBB229:
 2475              	.LBI225:
 124:fltk-1.3.4-1/jpeg/jcmarker.c **** /* Emit a marker code */
 2476              		.loc 1 124 1 is_stmt 1 view .LVU672
 2477              	.LBB227:
 127:fltk-1.3.4-1/jpeg/jcmarker.c ****   emit_byte(cinfo, (int) mark);
 2478              		.loc 1 127 3 view .LVU673
 2479 000d E8000000 		call	emit_byte
 2479      00
 2480              	.LVL286:
 128:fltk-1.3.4-1/jpeg/jcmarker.c **** }
 2481              		.loc 1 128 3 view .LVU674
 2482 0012 4889EF   		movq	%rbp, %rdi
 2483 0015 BED90000 		movl	$217, %esi
 2483      00
 2484              	.LBE227:
 2485              	.LBE229:
 660:fltk-1.3.4-1/jpeg/jcmarker.c **** }
 2486              		.loc 1 660 1 is_stmt 0 view .LVU675
 2487 001a 5D       		popq	%rbp
 2488              		.cfi_def_cfa_offset 8
 2489              	.LVL287:
 2490              	.LBB230:
 2491              	.LBB228:
 128:fltk-1.3.4-1/jpeg/jcmarker.c **** }
 2492              		.loc 1 128 3 view .LVU676
 2493 001b E9000000 		jmp	emit_byte
 2493      00
 2494              	.LVL288:
 128:fltk-1.3.4-1/jpeg/jcmarker.c **** }
 2495              		.loc 1 128 3 view .LVU677
 2496              	.LBE228:
 2497              	.LBE230:
 2498              		.cfi_endproc
 2499              	.LFE69:
 2501              		.section	.text.write_tables_only,"ax",@progbits
 2502              		.p2align 4
 2504              	write_tables_only:
 2505              	.LVL289:
 2506              	.LFB70:
 661:fltk-1.3.4-1/jpeg/jcmarker.c **** 
 662:fltk-1.3.4-1/jpeg/jcmarker.c **** 
 663:fltk-1.3.4-1/jpeg/jcmarker.c **** /*
 664:fltk-1.3.4-1/jpeg/jcmarker.c ****  * Write an abbreviated table-specification datastream.
 665:fltk-1.3.4-1/jpeg/jcmarker.c ****  * This consists of SOI, DQT and DHT tables, and EOI.
 666:fltk-1.3.4-1/jpeg/jcmarker.c ****  * Any table that is defined and not marked sent_table = TRUE will be
 667:fltk-1.3.4-1/jpeg/jcmarker.c ****  * emitted.  Note that all tables will be marked sent_table = TRUE at exit.
 668:fltk-1.3.4-1/jpeg/jcmarker.c ****  */
 669:fltk-1.3.4-1/jpeg/jcmarker.c **** 
 670:fltk-1.3.4-1/jpeg/jcmarker.c **** METHODDEF(void)
 671:fltk-1.3.4-1/jpeg/jcmarker.c **** write_tables_only (j_compress_ptr cinfo)
 672:fltk-1.3.4-1/jpeg/jcmarker.c **** {
 2507              		.loc 1 672 1 is_stmt 1 view -0
 2508              		.cfi_startproc
 2509              		.loc 1 672 1 is_stmt 0 view .LVU679
 2510 0000 F30F1EFA 		endbr64
 673:fltk-1.3.4-1/jpeg/jcmarker.c ****   int i;
 2511              		.loc 1 673 3 is_stmt 1 view .LVU680
 674:fltk-1.3.4-1/jpeg/jcmarker.c **** 
 675:fltk-1.3.4-1/jpeg/jcmarker.c ****   emit_marker(cinfo, M_SOI);
 2512              		.loc 1 675 3 view .LVU681
 672:fltk-1.3.4-1/jpeg/jcmarker.c ****   int i;
 2513              		.loc 1 672 1 is_stmt 0 view .LVU682
 2514 0004 4154     		pushq	%r12
 2515              		.cfi_def_cfa_offset 16
 2516              		.cfi_offset 12, -16
 2517              	.LBB231:
 2518              	.LBB232:
 127:fltk-1.3.4-1/jpeg/jcmarker.c ****   emit_byte(cinfo, (int) mark);
 2519              		.loc 1 127 3 view .LVU683
 2520 0006 BEFF0000 		movl	$255, %esi
 2520      00
 2521              	.LBE232:
 2522              	.LBE231:
 672:fltk-1.3.4-1/jpeg/jcmarker.c ****   int i;
 2523              		.loc 1 672 1 view .LVU684
 2524 000b 55       		pushq	%rbp
 2525              		.cfi_def_cfa_offset 24
 2526              		.cfi_offset 6, -24
 2527 000c 4889FD   		movq	%rdi, %rbp
 2528              	.LVL290:
 2529              	.LBB235:
 2530              	.LBI231:
 124:fltk-1.3.4-1/jpeg/jcmarker.c **** /* Emit a marker code */
 2531              		.loc 1 124 1 is_stmt 1 view .LVU685
 2532              	.LBB233:
 127:fltk-1.3.4-1/jpeg/jcmarker.c ****   emit_byte(cinfo, (int) mark);
 2533              		.loc 1 127 3 view .LVU686
 2534              	.LBE233:
 2535              	.LBE235:
 672:fltk-1.3.4-1/jpeg/jcmarker.c ****   int i;
 2536              		.loc 1 672 1 is_stmt 0 view .LVU687
 2537 000f 53       		pushq	%rbx
 2538              		.cfi_def_cfa_offset 32
 2539              		.cfi_offset 3, -32
 2540              	.LBB236:
 2541              	.LBB234:
 128:fltk-1.3.4-1/jpeg/jcmarker.c **** }
 2542              		.loc 1 128 3 view .LVU688
 2543 0010 31DB     		xorl	%ebx, %ebx
 127:fltk-1.3.4-1/jpeg/jcmarker.c ****   emit_byte(cinfo, (int) mark);
 2544              		.loc 1 127 3 view .LVU689
 2545 0012 E8000000 		call	emit_byte
 2545      00
 2546              	.LVL291:
 128:fltk-1.3.4-1/jpeg/jcmarker.c **** }
 2547              		.loc 1 128 3 is_stmt 1 view .LVU690
 2548 0017 BED80000 		movl	$216, %esi
 2548      00
 2549 001c 4889EF   		movq	%rbp, %rdi
 2550 001f E8000000 		call	emit_byte
 2550      00
 2551              	.LVL292:
 128:fltk-1.3.4-1/jpeg/jcmarker.c **** }
 2552              		.loc 1 128 3 is_stmt 0 view .LVU691
 2553              	.LBE234:
 2554              	.LBE236:
 676:fltk-1.3.4-1/jpeg/jcmarker.c **** 
 677:fltk-1.3.4-1/jpeg/jcmarker.c ****   for (i = 0; i < NUM_QUANT_TBLS; i++) {
 2555              		.loc 1 677 3 is_stmt 1 view .LVU692
 2556              		.loc 1 677 15 view .LVU693
 2557              	.L169:
 678:fltk-1.3.4-1/jpeg/jcmarker.c ****     if (cinfo->quant_tbl_ptrs[i] != NULL)
 2558              		.loc 1 678 5 view .LVU694
 2559              		.loc 1 678 8 is_stmt 0 view .LVU695
 2560 0024 48837CDD 		cmpq	$0, 112(%rbp,%rbx,8)
 2560      7000
 2561 002a 740A     		je	.L168
 679:fltk-1.3.4-1/jpeg/jcmarker.c ****       (void) emit_dqt(cinfo, i);
 2562              		.loc 1 679 7 is_stmt 1 view .LVU696
 2563              		.loc 1 679 14 is_stmt 0 view .LVU697
 2564 002c 89DE     		movl	%ebx, %esi
 2565 002e 4889EF   		movq	%rbp, %rdi
 2566 0031 E8000000 		call	emit_dqt
 2566      00
 2567              	.LVL293:
 2568              	.L168:
 677:fltk-1.3.4-1/jpeg/jcmarker.c ****     if (cinfo->quant_tbl_ptrs[i] != NULL)
 2569              		.loc 1 677 35 is_stmt 1 discriminator 2 view .LVU698
 677:fltk-1.3.4-1/jpeg/jcmarker.c ****     if (cinfo->quant_tbl_ptrs[i] != NULL)
 2570              		.loc 1 677 15 discriminator 2 view .LVU699
 2571 0036 4883C301 		addq	$1, %rbx
 2572              	.LVL294:
 677:fltk-1.3.4-1/jpeg/jcmarker.c ****     if (cinfo->quant_tbl_ptrs[i] != NULL)
 2573              		.loc 1 677 3 is_stmt 0 discriminator 2 view .LVU700
 2574 003a 4883FB04 		cmpq	$4, %rbx
 2575 003e 75E4     		jne	.L169
 680:fltk-1.3.4-1/jpeg/jcmarker.c ****   }
 681:fltk-1.3.4-1/jpeg/jcmarker.c **** 
 682:fltk-1.3.4-1/jpeg/jcmarker.c ****   if (! cinfo->arith_code) {
 2576              		.loc 1 682 3 is_stmt 1 view .LVU701
 2577              		.loc 1 682 6 is_stmt 0 view .LVU702
 2578 0040 8B852401 		movl	292(%rbp), %eax
 2578      0000
 2579 0046 85C0     		testl	%eax, %eax
 2580 0048 7541     		jne	.L170
 2581 004a 31DB     		xorl	%ebx, %ebx
 2582              	.L173:
 683:fltk-1.3.4-1/jpeg/jcmarker.c ****     for (i = 0; i < NUM_HUFF_TBLS; i++) {
 684:fltk-1.3.4-1/jpeg/jcmarker.c ****       if (cinfo->dc_huff_tbl_ptrs[i] != NULL)
 2583              		.loc 1 684 10 view .LVU703
 2584 004c 4883BCDD 		cmpq	$0, 160(%rbp,%rbx,8)
 2584      A0000000 
 2584      00
 2585 0055 4189DC   		movl	%ebx, %r12d
 2586              	.LVL295:
 2587              		.loc 1 684 7 is_stmt 1 view .LVU704
 2588              		.loc 1 684 10 is_stmt 0 view .LVU705
 2589 0058 740C     		je	.L171
 685:fltk-1.3.4-1/jpeg/jcmarker.c **** 	emit_dht(cinfo, i, FALSE);
 2590              		.loc 1 685 2 is_stmt 1 view .LVU706
 2591 005a 31D2     		xorl	%edx, %edx
 2592 005c 89DE     		movl	%ebx, %esi
 2593 005e 4889EF   		movq	%rbp, %rdi
 2594 0061 E8000000 		call	emit_dht
 2594      00
 2595              	.LVL296:
 2596              	.L171:
 686:fltk-1.3.4-1/jpeg/jcmarker.c ****       if (cinfo->ac_huff_tbl_ptrs[i] != NULL)
 2597              		.loc 1 686 7 view .LVU707
 2598              		.loc 1 686 10 is_stmt 0 view .LVU708
 2599 0066 4883BCDD 		cmpq	$0, 192(%rbp,%rbx,8)
 2599      C0000000 
 2599      00
 2600 006f 7410     		je	.L172
 687:fltk-1.3.4-1/jpeg/jcmarker.c **** 	emit_dht(cinfo, i, TRUE);
 2601              		.loc 1 687 2 is_stmt 1 view .LVU709
 2602 0071 BA010000 		movl	$1, %edx
 2602      00
 2603 0076 4489E6   		movl	%r12d, %esi
 2604 0079 4889EF   		movq	%rbp, %rdi
 2605 007c E8000000 		call	emit_dht
 2605      00
 2606              	.LVL297:
 2607              	.L172:
 683:fltk-1.3.4-1/jpeg/jcmarker.c ****       if (cinfo->dc_huff_tbl_ptrs[i] != NULL)
 2608              		.loc 1 683 36 discriminator 2 view .LVU710
 683:fltk-1.3.4-1/jpeg/jcmarker.c ****       if (cinfo->dc_huff_tbl_ptrs[i] != NULL)
 2609              		.loc 1 683 17 discriminator 2 view .LVU711
 2610 0081 4883C301 		addq	$1, %rbx
 2611              	.LVL298:
 683:fltk-1.3.4-1/jpeg/jcmarker.c ****       if (cinfo->dc_huff_tbl_ptrs[i] != NULL)
 2612              		.loc 1 683 5 is_stmt 0 discriminator 2 view .LVU712
 2613 0085 4883FB04 		cmpq	$4, %rbx
 2614 0089 75C1     		jne	.L173
 2615              	.LVL299:
 2616              	.L170:
 688:fltk-1.3.4-1/jpeg/jcmarker.c ****     }
 689:fltk-1.3.4-1/jpeg/jcmarker.c ****   }
 690:fltk-1.3.4-1/jpeg/jcmarker.c **** 
 691:fltk-1.3.4-1/jpeg/jcmarker.c ****   emit_marker(cinfo, M_EOI);
 2617              		.loc 1 691 3 is_stmt 1 view .LVU713
 2618              	.LBB237:
 2619              	.LBI237:
 124:fltk-1.3.4-1/jpeg/jcmarker.c **** /* Emit a marker code */
 2620              		.loc 1 124 1 view .LVU714
 2621              	.LBB238:
 127:fltk-1.3.4-1/jpeg/jcmarker.c ****   emit_byte(cinfo, (int) mark);
 2622              		.loc 1 127 3 view .LVU715
 2623 008b 4889EF   		movq	%rbp, %rdi
 2624 008e BEFF0000 		movl	$255, %esi
 2624      00
 2625 0093 E8000000 		call	emit_byte
 2625      00
 2626              	.LVL300:
 128:fltk-1.3.4-1/jpeg/jcmarker.c **** }
 2627              		.loc 1 128 3 view .LVU716
 2628              	.LBE238:
 2629              	.LBE237:
 692:fltk-1.3.4-1/jpeg/jcmarker.c **** }
 2630              		.loc 1 692 1 is_stmt 0 view .LVU717
 2631 0098 5B       		popq	%rbx
 2632              		.cfi_def_cfa_offset 24
 2633              	.LBB241:
 2634              	.LBB239:
 128:fltk-1.3.4-1/jpeg/jcmarker.c **** }
 2635              		.loc 1 128 3 view .LVU718
 2636 0099 4889EF   		movq	%rbp, %rdi
 2637 009c BED90000 		movl	$217, %esi
 2637      00
 2638              	.LBE239:
 2639              	.LBE241:
 2640              		.loc 1 692 1 view .LVU719
 2641 00a1 5D       		popq	%rbp
 2642              		.cfi_def_cfa_offset 16
 2643              	.LVL301:
 2644              		.loc 1 692 1 view .LVU720
 2645 00a2 415C     		popq	%r12
 2646              		.cfi_def_cfa_offset 8
 2647              	.LBB242:
 2648              	.LBB240:
 128:fltk-1.3.4-1/jpeg/jcmarker.c **** }
 2649              		.loc 1 128 3 view .LVU721
 2650 00a4 E9000000 		jmp	emit_byte
 2650      00
 2651              	.LVL302:
 128:fltk-1.3.4-1/jpeg/jcmarker.c **** }
 2652              		.loc 1 128 3 view .LVU722
 2653              	.LBE240:
 2654              	.LBE242:
 2655              		.cfi_endproc
 2656              	.LFE70:
 2658              		.section	.text.jinit_marker_writer,"ax",@progbits
 2659              		.p2align 4
 2660              		.globl	jinit_marker_writer
 2662              	jinit_marker_writer:
 2663              	.LVL303:
 2664              	.LFB71:
 693:fltk-1.3.4-1/jpeg/jcmarker.c **** 
 694:fltk-1.3.4-1/jpeg/jcmarker.c **** 
 695:fltk-1.3.4-1/jpeg/jcmarker.c **** /*
 696:fltk-1.3.4-1/jpeg/jcmarker.c ****  * Initialize the marker writer module.
 697:fltk-1.3.4-1/jpeg/jcmarker.c ****  */
 698:fltk-1.3.4-1/jpeg/jcmarker.c **** 
 699:fltk-1.3.4-1/jpeg/jcmarker.c **** GLOBAL(void)
 700:fltk-1.3.4-1/jpeg/jcmarker.c **** jinit_marker_writer (j_compress_ptr cinfo)
 701:fltk-1.3.4-1/jpeg/jcmarker.c **** {
 2665              		.loc 1 701 1 is_stmt 1 view -0
 2666              		.cfi_startproc
 2667              		.loc 1 701 1 is_stmt 0 view .LVU724
 2668 0000 F30F1EFA 		endbr64
 702:fltk-1.3.4-1/jpeg/jcmarker.c ****   my_marker_ptr marker;
 2669              		.loc 1 702 3 is_stmt 1 view .LVU725
 703:fltk-1.3.4-1/jpeg/jcmarker.c **** 
 704:fltk-1.3.4-1/jpeg/jcmarker.c ****   /* Create the subobject */
 705:fltk-1.3.4-1/jpeg/jcmarker.c ****   marker = (my_marker_ptr)
 2670              		.loc 1 705 3 view .LVU726
 706:fltk-1.3.4-1/jpeg/jcmarker.c ****     (*cinfo->mem->alloc_small) ((j_common_ptr) cinfo, JPOOL_IMAGE,
 2671              		.loc 1 706 6 is_stmt 0 view .LVU727
 2672 0004 488B4708 		movq	8(%rdi), %rax
 701:fltk-1.3.4-1/jpeg/jcmarker.c ****   my_marker_ptr marker;
 2673              		.loc 1 701 1 view .LVU728
 2674 0008 53       		pushq	%rbx
 2675              		.cfi_def_cfa_offset 16
 2676              		.cfi_offset 3, -16
 2677              		.loc 1 706 6 view .LVU729
 2678 0009 BA400000 		movl	$64, %edx
 2678      00
 701:fltk-1.3.4-1/jpeg/jcmarker.c ****   my_marker_ptr marker;
 2679              		.loc 1 701 1 view .LVU730
 2680 000e 4889FB   		movq	%rdi, %rbx
 2681              		.loc 1 706 6 view .LVU731
 2682 0011 BE010000 		movl	$1, %esi
 2682      00
 2683 0016 FF10     		call	*(%rax)
 2684              	.LVL304:
 707:fltk-1.3.4-1/jpeg/jcmarker.c **** 				SIZEOF(my_marker_writer));
 708:fltk-1.3.4-1/jpeg/jcmarker.c ****   cinfo->marker = &marker->pub;
 2685              		.loc 1 708 3 is_stmt 1 view .LVU732
 709:fltk-1.3.4-1/jpeg/jcmarker.c ****   /* Initialize method pointers */
 710:fltk-1.3.4-1/jpeg/jcmarker.c ****   marker->pub.write_file_header = write_file_header;
 2686              		.loc 1 710 33 is_stmt 0 view .LVU733
 2687 0018 488D0D00 		leaq	write_file_header(%rip), %rcx
 2687      000000
 711:fltk-1.3.4-1/jpeg/jcmarker.c ****   marker->pub.write_frame_header = write_frame_header;
 2688              		.loc 1 711 34 view .LVU734
 2689 001f 488D1500 		leaq	write_frame_header(%rip), %rdx
 2689      000000
 708:fltk-1.3.4-1/jpeg/jcmarker.c ****   /* Initialize method pointers */
 2690              		.loc 1 708 17 view .LVU735
 2691 0026 48898310 		movq	%rax, 528(%rbx)
 2691      020000
 710:fltk-1.3.4-1/jpeg/jcmarker.c ****   marker->pub.write_frame_header = write_frame_header;
 2692              		.loc 1 710 3 is_stmt 1 view .LVU736
 712:fltk-1.3.4-1/jpeg/jcmarker.c ****   marker->pub.write_scan_header = write_scan_header;
 2693              		.loc 1 712 33 is_stmt 0 view .LVU737
 2694 002d 488D3500 		leaq	write_scan_header(%rip), %rsi
 2694      000000
 710:fltk-1.3.4-1/jpeg/jcmarker.c ****   marker->pub.write_frame_header = write_frame_header;
 2695              		.loc 1 710 33 view .LVU738
 2696 0034 488908   		movq	%rcx, (%rax)
 711:fltk-1.3.4-1/jpeg/jcmarker.c ****   marker->pub.write_scan_header = write_scan_header;
 2697              		.loc 1 711 3 is_stmt 1 view .LVU739
 713:fltk-1.3.4-1/jpeg/jcmarker.c ****   marker->pub.write_file_trailer = write_file_trailer;
 2698              		.loc 1 713 34 is_stmt 0 view .LVU740
 2699 0037 488D0D00 		leaq	write_file_trailer(%rip), %rcx
 2699      000000
 711:fltk-1.3.4-1/jpeg/jcmarker.c ****   marker->pub.write_scan_header = write_scan_header;
 2700              		.loc 1 711 34 view .LVU741
 2701 003e 48895008 		movq	%rdx, 8(%rax)
 712:fltk-1.3.4-1/jpeg/jcmarker.c ****   marker->pub.write_scan_header = write_scan_header;
 2702              		.loc 1 712 3 is_stmt 1 view .LVU742
 714:fltk-1.3.4-1/jpeg/jcmarker.c ****   marker->pub.write_tables_only = write_tables_only;
 2703              		.loc 1 714 33 is_stmt 0 view .LVU743
 2704 0042 488D1500 		leaq	write_tables_only(%rip), %rdx
 2704      000000
 712:fltk-1.3.4-1/jpeg/jcmarker.c ****   marker->pub.write_file_trailer = write_file_trailer;
 2705              		.loc 1 712 33 view .LVU744
 2706 0049 48897010 		movq	%rsi, 16(%rax)
 713:fltk-1.3.4-1/jpeg/jcmarker.c ****   marker->pub.write_file_trailer = write_file_trailer;
 2707              		.loc 1 713 3 is_stmt 1 view .LVU745
 715:fltk-1.3.4-1/jpeg/jcmarker.c ****   marker->pub.write_marker_header = write_marker_header;
 2708              		.loc 1 715 35 is_stmt 0 view .LVU746
 2709 004d 488D3500 		leaq	write_marker_header(%rip), %rsi
 2709      000000
 713:fltk-1.3.4-1/jpeg/jcmarker.c ****   marker->pub.write_tables_only = write_tables_only;
 2710              		.loc 1 713 34 view .LVU747
 2711 0054 48894818 		movq	%rcx, 24(%rax)
 714:fltk-1.3.4-1/jpeg/jcmarker.c ****   marker->pub.write_marker_header = write_marker_header;
 2712              		.loc 1 714 3 is_stmt 1 view .LVU748
 716:fltk-1.3.4-1/jpeg/jcmarker.c ****   marker->pub.write_marker_byte = write_marker_byte;
 2713              		.loc 1 716 33 is_stmt 0 view .LVU749
 2714 0058 488D0D00 		leaq	write_marker_byte(%rip), %rcx
 2714      000000
 714:fltk-1.3.4-1/jpeg/jcmarker.c ****   marker->pub.write_marker_header = write_marker_header;
 2715              		.loc 1 714 33 view .LVU750
 2716 005f 48895020 		movq	%rdx, 32(%rax)
 715:fltk-1.3.4-1/jpeg/jcmarker.c ****   marker->pub.write_marker_byte = write_marker_byte;
 2717              		.loc 1 715 3 is_stmt 1 view .LVU751
 715:fltk-1.3.4-1/jpeg/jcmarker.c ****   marker->pub.write_marker_byte = write_marker_byte;
 2718              		.loc 1 715 35 is_stmt 0 view .LVU752
 2719 0063 48897028 		movq	%rsi, 40(%rax)
 2720              		.loc 1 716 3 is_stmt 1 view .LVU753
 2721              		.loc 1 716 33 is_stmt 0 view .LVU754
 2722 0067 48894830 		movq	%rcx, 48(%rax)
 717:fltk-1.3.4-1/jpeg/jcmarker.c ****   /* Initialize private state */
 718:fltk-1.3.4-1/jpeg/jcmarker.c ****   marker->last_restart_interval = 0;
 2723              		.loc 1 718 3 is_stmt 1 view .LVU755
 2724              		.loc 1 718 33 is_stmt 0 view .LVU756
 2725 006b C7403800 		movl	$0, 56(%rax)
 2725      000000
 719:fltk-1.3.4-1/jpeg/jcmarker.c **** }
 2726              		.loc 1 719 1 view .LVU757
 2727 0072 5B       		popq	%rbx
 2728              		.cfi_def_cfa_offset 8
 2729              	.LVL305:
 2730              		.loc 1 719 1 view .LVU758
 2731 0073 C3       		ret
 2732              		.cfi_endproc
 2733              	.LFE71:
 2735              		.text
 2736              	.Letext0:
 2737              		.file 2 "/usr/lib/gcc/x86_64-linux-gnu/9/include/stddef.h"
 2738              		.file 3 "/usr/include/x86_64-linux-gnu/bits/types.h"
 2739              		.file 4 "/usr/include/x86_64-linux-gnu/bits/types/struct_FILE.h"
 2740              		.file 5 "/usr/include/x86_64-linux-gnu/bits/types/FILE.h"
 2741              		.file 6 "/usr/include/stdio.h"
 2742              		.file 7 "/usr/include/x86_64-linux-gnu/bits/sys_errlist.h"
 2743              		.file 8 "fltk-1.3.4-1/jpeg/jmorecfg.h"
 2744              		.file 9 "fltk-1.3.4-1/jpeg/jpeglib.h"
 2745              		.file 10 "fltk-1.3.4-1/jpeg/jpegint.h"
 2746              		.file 11 "fltk-1.3.4-1/jpeg/jerror.h"
 20071              		.section	.note.gnu.property,"a"
 20072              		.align 8
 20073 0000 04000000 		.long	 1f - 0f
 20074 0004 10000000 		.long	 4f - 1f
 20075 0008 05000000 		.long	 5
 20076              	0:
 20077 000c 474E5500 		.string	 "GNU"
 20078              	1:
 20079              		.align 8
 20080 0010 020000C0 		.long	 0xc0000002
 20081 0014 04000000 		.long	 3f - 2f
 20082              	2:
 20083 0018 03000000 		.long	 0x3
 20084              	3:
 20085 001c 00000000 		.align 8
 20086              	4:
DEFINED SYMBOLS
                            *ABS*:0000000000000000 jcmarker.c
     /tmp/cctVRIBg.s:7      .text.emit_byte:0000000000000000 emit_byte
     /tmp/cctVRIBg.s:88     .text.emit_2bytes:0000000000000000 emit_2bytes
     /tmp/cctVRIBg.s:137    .text.emit_dqt:0000000000000000 emit_dqt
     /tmp/cctVRIBg.s:420    .text.emit_dht:0000000000000000 emit_dht
     /tmp/cctVRIBg.s:673    .text.emit_sof:0000000000000000 emit_sof
     /tmp/cctVRIBg.s:840    .text.write_scan_header:0000000000000000 write_scan_header
     /tmp/cctVRIBg.s:1379   .text.write_frame_header:0000000000000000 write_frame_header
     /tmp/cctVRIBg.s:2002   .text.write_marker_header:0000000000000000 write_marker_header
     /tmp/cctVRIBg.s:2079   .text.write_marker_byte:0000000000000000 write_marker_byte
     /tmp/cctVRIBg.s:2096   .text.write_file_header:0000000000000000 write_file_header
     /tmp/cctVRIBg.s:2453   .text.write_file_trailer:0000000000000000 write_file_trailer
     /tmp/cctVRIBg.s:2504   .text.write_tables_only:0000000000000000 write_tables_only
     /tmp/cctVRIBg.s:2662   .text.jinit_marker_writer:0000000000000000 jinit_marker_writer
                           .group:0000000000000000 wm4.0.a6b23a418548ac0bda5d8549c4a2ec91
                           .group:0000000000000000 wm4.stdcpredef.h.19.8dc41bed5d9037ff9622e015fb5f0ce3
                           .group:0000000000000000 wm4.jconfig.h.10.247fc3ff67998f3074970b1373c70333
                           .group:0000000000000000 wm4.features.h.19.5b5f5a19624a0527f479fdc52d54808f
                           .group:0000000000000000 wm4.cdefs.h.19.98d80eddbb3f64f4f30cd9aee9c5593c
                           .group:0000000000000000 wm4.wordsize.h.4.baf119258a1e53d8dba67ceac44ab6bc
                           .group:0000000000000000 wm4.cdefs.h.475.fb75d2e4416aa349344e6f45f683bf28
                           .group:0000000000000000 wm4.stubs64.h.10.6ce4c34010988db072c080326a6b6319
                           .group:0000000000000000 wm4.libcheaderstart.h.37.d9274df4cc0172452960ad9644fa5579
                           .group:0000000000000000 wm4.stdlib.h.28.2cffa49d94c5d85f4538f55f7b59771d
                           .group:0000000000000000 wm4.stddef.h.181.13772e73e5434e8cc4fafaaddad2b5da
                           .group:0000000000000000 wm4.waitflags.h.25.41934de4af99038521c2782f418699b1
                           .group:0000000000000000 wm4.waitstatus.h.28.93f167f49d64e2b9b99f98d1162a93bf
                           .group:0000000000000000 wm4.stdlib.h.43.9fa4f727a2f1cb8d2450a574c9195553
                           .group:0000000000000000 wm4.floatn.h.20.80c7cf8a8dfad237004b28d051d5afda
                           .group:0000000000000000 wm4.floatncommon.h.34.7e1840d7dfb19e9bdb51aeb077d76637
                           .group:0000000000000000 wm4.stdlib.h.71.2927e068ec678159b4f68ec2f089f7e6
                           .group:0000000000000000 wm4.types.h.109.56eb9ae966b255288cc544f18746a7ff
                           .group:0000000000000000 wm4.typesizes.h.24.2c64f817c0dc4b6fb2a2c619d717be26
                           .group:0000000000000000 wm4.time64.h.24.a8166ae916ec910dab0d8987098d42ee
                           .group:0000000000000000 wm4.types.h.40.18f72bab8242c2bb4c532a2aa95b5f00
                           .group:0000000000000000 wm4.stddef.h.231.0adce5c8c1fd8096aaff50981b3d1f0f
                           .group:0000000000000000 wm4.endian.h.20.efabd1018df5d7b4052c27dc6bdd5ce5
                           .group:0000000000000000 wm4.endianness.h.2.2c6a211f7909f3af5e9e9cfa3b6b63c8
                           .group:0000000000000000 wm4.endian.h.40.9e5d395adda2f4eb53ae69b69b664084
                           .group:0000000000000000 wm4.endian.h.27.4c4f94262c4eaee2982fe00ed1b4f173
                           .group:0000000000000000 wm4.byteswap.h.24.5363c019348146aada5aeadf51456576
                           .group:0000000000000000 wm4.endian.h.39.30a606dbd99b6c3df61c1f06dbdabd4e
                           .group:0000000000000000 wm4.select.h.28.eb2f3debdbcffd1442ebddaebc4fb6ff
                           .group:0000000000000000 wm4.__sigset_t.h.2.6b1ab6ff3d7b8fd9c0c42b0d80afbd80
                           .group:0000000000000000 wm4.select.h.44.887a4ff60aa97fcd9c1be017735e1675
                           .group:0000000000000000 wm4.select2.h.27.f95f2ab0ffee66dc1b6575014894b21a
                           .group:0000000000000000 wm4.types.h.186.489a4ed8f2d29cd358843490f54ddea5
                           .group:0000000000000000 wm4.pthreadtypesarch.h.25.6063cba99664c916e22d3a912bcc348a
                           .group:0000000000000000 wm4.struct_mutex.h.20.ed51f515172b9be99e450ba83eb5dd99
                           .group:0000000000000000 wm4.struct_rwlock.h.21.0254880f2904e3833fb8ae683e0f0330
                           .group:0000000000000000 wm4.alloca.h.19.edefa922a76c1cbaaf1e416903ba2d1c
                           .group:0000000000000000 wm4.alloca.h.29.156e12058824cc23d961c4d3b13031f6
                           .group:0000000000000000 wm4.stdio.h.24.5c1b97eef3c86b7a2549420f69f4f128
                           .group:0000000000000000 wm4.libcheaderstart.h.31.87b3c285aeba93fe355ad19123070832
                           .group:0000000000000000 wm4.stdio.h.31.e39a94e203ad4e1d978c0fc68ce016ee
                           .group:0000000000000000 wm4.stddef.h.231.8136eebbab3406dbf57a7ec475dd5d83
                           .group:0000000000000000 wm4.stdarg.h.34.3a23a216c0c293b3d2ea2e89281481e6
                           .group:0000000000000000 wm4.struct_FILE.h.19.0888ac70396abe1031c03d393554032f
                           .group:0000000000000000 wm4.stdio.h.53.139e45cf040c0964b2932c0c1bdaf6b2
                           .group:0000000000000000 wm4.stdio_lim.h.19.e4b00b560d878dcfbc6635b3406640c5
                           .group:0000000000000000 wm4.stdio.h.141.d7a290e19ca077c9e4aa7c43ede17a73
                           .group:0000000000000000 wm4.stdio.h.20.b0caa08e5723aa5941367be0e5d2ec59
                           .group:0000000000000000 wm4.stdio2.h.20.f45a0373b68e1296c4aa8cc09d66a9df
                           .group:0000000000000000 wm4.string.h.23.93403f89af7dba8212345449bb14b09d
                           .group:0000000000000000 wm4.string.h.31.e39a94e203ad4e1d978c0fc68ce016ee
                           .group:0000000000000000 wm4.strings.h.19.a259f126920b1bb5ef76bc62b3984a3c
                           .group:0000000000000000 wm4.jinclude.h.67.b19f941ec97c4845fa4609292c7e2db4
                           .group:0000000000000000 wm4.jmorecfg.h.33.3b4c5f9cc07b3737823b06caf24d5b05
                           .group:0000000000000000 wm4.jpeglib.h.40.4f111c27252a38df39328d65454e82f4
                           .group:0000000000000000 wm4.jpegint.h.26.5219ef5d4e4921371d38e77b6091fd20
                           .group:0000000000000000 wm4.jerror.h.25.1dbd8674e70ab5215bc0037320e5c2a2

UNDEFINED SYMBOLS
_GLOBAL_OFFSET_TABLE_
__stack_chk_fail
