   1              		.file	"jcmaster.c"
   2              		.text
   3              	.Ltext0:
   4              		.section	.text.validate_script,"ax",@progbits
   5              		.p2align 4
   7              	validate_script:
   8              	.LVL0:
   9              	.LFB54:
  10              		.file 1 "fltk-1.3.4-1/jpeg/jcmaster.c"
   1:fltk-1.3.4-1/jpeg/jcmaster.c **** /*
   2:fltk-1.3.4-1/jpeg/jcmaster.c ****  * jcmaster.c
   3:fltk-1.3.4-1/jpeg/jcmaster.c ****  *
   4:fltk-1.3.4-1/jpeg/jcmaster.c ****  * Copyright (C) 1991-1997, Thomas G. Lane.
   5:fltk-1.3.4-1/jpeg/jcmaster.c ****  * Modified 2003-2013 by Guido Vollbeding.
   6:fltk-1.3.4-1/jpeg/jcmaster.c ****  * This file is part of the Independent JPEG Group's software.
   7:fltk-1.3.4-1/jpeg/jcmaster.c ****  * For conditions of distribution and use, see the accompanying README file.
   8:fltk-1.3.4-1/jpeg/jcmaster.c ****  *
   9:fltk-1.3.4-1/jpeg/jcmaster.c ****  * This file contains master control logic for the JPEG compressor.
  10:fltk-1.3.4-1/jpeg/jcmaster.c ****  * These routines are concerned with parameter validation, initial setup,
  11:fltk-1.3.4-1/jpeg/jcmaster.c ****  * and inter-pass control (determining the number of passes and the work 
  12:fltk-1.3.4-1/jpeg/jcmaster.c ****  * to be done in each pass).
  13:fltk-1.3.4-1/jpeg/jcmaster.c ****  */
  14:fltk-1.3.4-1/jpeg/jcmaster.c **** 
  15:fltk-1.3.4-1/jpeg/jcmaster.c **** #define JPEG_INTERNALS
  16:fltk-1.3.4-1/jpeg/jcmaster.c **** #include "jinclude.h"
  17:fltk-1.3.4-1/jpeg/jcmaster.c **** #include "jpeglib.h"
  18:fltk-1.3.4-1/jpeg/jcmaster.c **** 
  19:fltk-1.3.4-1/jpeg/jcmaster.c **** 
  20:fltk-1.3.4-1/jpeg/jcmaster.c **** /* Private state */
  21:fltk-1.3.4-1/jpeg/jcmaster.c **** 
  22:fltk-1.3.4-1/jpeg/jcmaster.c **** typedef enum {
  23:fltk-1.3.4-1/jpeg/jcmaster.c **** 	main_pass,		/* input data, also do first output step */
  24:fltk-1.3.4-1/jpeg/jcmaster.c **** 	huff_opt_pass,		/* Huffman code optimization pass */
  25:fltk-1.3.4-1/jpeg/jcmaster.c **** 	output_pass		/* data output pass */
  26:fltk-1.3.4-1/jpeg/jcmaster.c **** } c_pass_type;
  27:fltk-1.3.4-1/jpeg/jcmaster.c **** 
  28:fltk-1.3.4-1/jpeg/jcmaster.c **** typedef struct {
  29:fltk-1.3.4-1/jpeg/jcmaster.c ****   struct jpeg_comp_master pub;	/* public fields */
  30:fltk-1.3.4-1/jpeg/jcmaster.c **** 
  31:fltk-1.3.4-1/jpeg/jcmaster.c ****   c_pass_type pass_type;	/* the type of the current pass */
  32:fltk-1.3.4-1/jpeg/jcmaster.c **** 
  33:fltk-1.3.4-1/jpeg/jcmaster.c ****   int pass_number;		/* # of passes completed */
  34:fltk-1.3.4-1/jpeg/jcmaster.c ****   int total_passes;		/* total # of passes needed */
  35:fltk-1.3.4-1/jpeg/jcmaster.c **** 
  36:fltk-1.3.4-1/jpeg/jcmaster.c ****   int scan_number;		/* current index in scan_info[] */
  37:fltk-1.3.4-1/jpeg/jcmaster.c **** } my_comp_master;
  38:fltk-1.3.4-1/jpeg/jcmaster.c **** 
  39:fltk-1.3.4-1/jpeg/jcmaster.c **** typedef my_comp_master * my_master_ptr;
  40:fltk-1.3.4-1/jpeg/jcmaster.c **** 
  41:fltk-1.3.4-1/jpeg/jcmaster.c **** 
  42:fltk-1.3.4-1/jpeg/jcmaster.c **** /*
  43:fltk-1.3.4-1/jpeg/jcmaster.c ****  * Support routines that do various essential calculations.
  44:fltk-1.3.4-1/jpeg/jcmaster.c ****  */
  45:fltk-1.3.4-1/jpeg/jcmaster.c **** 
  46:fltk-1.3.4-1/jpeg/jcmaster.c **** /*
  47:fltk-1.3.4-1/jpeg/jcmaster.c ****  * Compute JPEG image dimensions and related values.
  48:fltk-1.3.4-1/jpeg/jcmaster.c ****  * NOTE: this is exported for possible use by application.
  49:fltk-1.3.4-1/jpeg/jcmaster.c ****  * Hence it mustn't do anything that can't be done twice.
  50:fltk-1.3.4-1/jpeg/jcmaster.c ****  */
  51:fltk-1.3.4-1/jpeg/jcmaster.c **** 
  52:fltk-1.3.4-1/jpeg/jcmaster.c **** GLOBAL(void)
  53:fltk-1.3.4-1/jpeg/jcmaster.c **** jpeg_calc_jpeg_dimensions (j_compress_ptr cinfo)
  54:fltk-1.3.4-1/jpeg/jcmaster.c **** /* Do computations that are needed before master selection phase */
  55:fltk-1.3.4-1/jpeg/jcmaster.c **** {
  56:fltk-1.3.4-1/jpeg/jcmaster.c **** #ifdef DCT_SCALING_SUPPORTED
  57:fltk-1.3.4-1/jpeg/jcmaster.c **** 
  58:fltk-1.3.4-1/jpeg/jcmaster.c ****   /* Sanity check on input image dimensions to prevent overflow in
  59:fltk-1.3.4-1/jpeg/jcmaster.c ****    * following calculation.
  60:fltk-1.3.4-1/jpeg/jcmaster.c ****    * We do check jpeg_width and jpeg_height in initial_setup below,
  61:fltk-1.3.4-1/jpeg/jcmaster.c ****    * but image_width and image_height can come from arbitrary data,
  62:fltk-1.3.4-1/jpeg/jcmaster.c ****    * and we need some space for multiplication by block_size.
  63:fltk-1.3.4-1/jpeg/jcmaster.c ****    */
  64:fltk-1.3.4-1/jpeg/jcmaster.c ****   if (((long) cinfo->image_width >> 24) || ((long) cinfo->image_height >> 24))
  65:fltk-1.3.4-1/jpeg/jcmaster.c ****     ERREXIT1(cinfo, JERR_IMAGE_TOO_BIG, (unsigned int) JPEG_MAX_DIMENSION);
  66:fltk-1.3.4-1/jpeg/jcmaster.c **** 
  67:fltk-1.3.4-1/jpeg/jcmaster.c ****   /* Compute actual JPEG image dimensions and DCT scaling choices. */
  68:fltk-1.3.4-1/jpeg/jcmaster.c ****   if (cinfo->scale_num >= cinfo->scale_denom * cinfo->block_size) {
  69:fltk-1.3.4-1/jpeg/jcmaster.c ****     /* Provide block_size/1 scaling */
  70:fltk-1.3.4-1/jpeg/jcmaster.c ****     cinfo->jpeg_width = cinfo->image_width * cinfo->block_size;
  71:fltk-1.3.4-1/jpeg/jcmaster.c ****     cinfo->jpeg_height = cinfo->image_height * cinfo->block_size;
  72:fltk-1.3.4-1/jpeg/jcmaster.c ****     cinfo->min_DCT_h_scaled_size = 1;
  73:fltk-1.3.4-1/jpeg/jcmaster.c ****     cinfo->min_DCT_v_scaled_size = 1;
  74:fltk-1.3.4-1/jpeg/jcmaster.c ****   } else if (cinfo->scale_num * 2 >= cinfo->scale_denom * cinfo->block_size) {
  75:fltk-1.3.4-1/jpeg/jcmaster.c ****     /* Provide block_size/2 scaling */
  76:fltk-1.3.4-1/jpeg/jcmaster.c ****     cinfo->jpeg_width = (JDIMENSION)
  77:fltk-1.3.4-1/jpeg/jcmaster.c ****       jdiv_round_up((long) cinfo->image_width * cinfo->block_size, 2L);
  78:fltk-1.3.4-1/jpeg/jcmaster.c ****     cinfo->jpeg_height = (JDIMENSION)
  79:fltk-1.3.4-1/jpeg/jcmaster.c ****       jdiv_round_up((long) cinfo->image_height * cinfo->block_size, 2L);
  80:fltk-1.3.4-1/jpeg/jcmaster.c ****     cinfo->min_DCT_h_scaled_size = 2;
  81:fltk-1.3.4-1/jpeg/jcmaster.c ****     cinfo->min_DCT_v_scaled_size = 2;
  82:fltk-1.3.4-1/jpeg/jcmaster.c ****   } else if (cinfo->scale_num * 3 >= cinfo->scale_denom * cinfo->block_size) {
  83:fltk-1.3.4-1/jpeg/jcmaster.c ****     /* Provide block_size/3 scaling */
  84:fltk-1.3.4-1/jpeg/jcmaster.c ****     cinfo->jpeg_width = (JDIMENSION)
  85:fltk-1.3.4-1/jpeg/jcmaster.c ****       jdiv_round_up((long) cinfo->image_width * cinfo->block_size, 3L);
  86:fltk-1.3.4-1/jpeg/jcmaster.c ****     cinfo->jpeg_height = (JDIMENSION)
  87:fltk-1.3.4-1/jpeg/jcmaster.c ****       jdiv_round_up((long) cinfo->image_height * cinfo->block_size, 3L);
  88:fltk-1.3.4-1/jpeg/jcmaster.c ****     cinfo->min_DCT_h_scaled_size = 3;
  89:fltk-1.3.4-1/jpeg/jcmaster.c ****     cinfo->min_DCT_v_scaled_size = 3;
  90:fltk-1.3.4-1/jpeg/jcmaster.c ****   } else if (cinfo->scale_num * 4 >= cinfo->scale_denom * cinfo->block_size) {
  91:fltk-1.3.4-1/jpeg/jcmaster.c ****     /* Provide block_size/4 scaling */
  92:fltk-1.3.4-1/jpeg/jcmaster.c ****     cinfo->jpeg_width = (JDIMENSION)
  93:fltk-1.3.4-1/jpeg/jcmaster.c ****       jdiv_round_up((long) cinfo->image_width * cinfo->block_size, 4L);
  94:fltk-1.3.4-1/jpeg/jcmaster.c ****     cinfo->jpeg_height = (JDIMENSION)
  95:fltk-1.3.4-1/jpeg/jcmaster.c ****       jdiv_round_up((long) cinfo->image_height * cinfo->block_size, 4L);
  96:fltk-1.3.4-1/jpeg/jcmaster.c ****     cinfo->min_DCT_h_scaled_size = 4;
  97:fltk-1.3.4-1/jpeg/jcmaster.c ****     cinfo->min_DCT_v_scaled_size = 4;
  98:fltk-1.3.4-1/jpeg/jcmaster.c ****   } else if (cinfo->scale_num * 5 >= cinfo->scale_denom * cinfo->block_size) {
  99:fltk-1.3.4-1/jpeg/jcmaster.c ****     /* Provide block_size/5 scaling */
 100:fltk-1.3.4-1/jpeg/jcmaster.c ****     cinfo->jpeg_width = (JDIMENSION)
 101:fltk-1.3.4-1/jpeg/jcmaster.c ****       jdiv_round_up((long) cinfo->image_width * cinfo->block_size, 5L);
 102:fltk-1.3.4-1/jpeg/jcmaster.c ****     cinfo->jpeg_height = (JDIMENSION)
 103:fltk-1.3.4-1/jpeg/jcmaster.c ****       jdiv_round_up((long) cinfo->image_height * cinfo->block_size, 5L);
 104:fltk-1.3.4-1/jpeg/jcmaster.c ****     cinfo->min_DCT_h_scaled_size = 5;
 105:fltk-1.3.4-1/jpeg/jcmaster.c ****     cinfo->min_DCT_v_scaled_size = 5;
 106:fltk-1.3.4-1/jpeg/jcmaster.c ****   } else if (cinfo->scale_num * 6 >= cinfo->scale_denom * cinfo->block_size) {
 107:fltk-1.3.4-1/jpeg/jcmaster.c ****     /* Provide block_size/6 scaling */
 108:fltk-1.3.4-1/jpeg/jcmaster.c ****     cinfo->jpeg_width = (JDIMENSION)
 109:fltk-1.3.4-1/jpeg/jcmaster.c ****       jdiv_round_up((long) cinfo->image_width * cinfo->block_size, 6L);
 110:fltk-1.3.4-1/jpeg/jcmaster.c ****     cinfo->jpeg_height = (JDIMENSION)
 111:fltk-1.3.4-1/jpeg/jcmaster.c ****       jdiv_round_up((long) cinfo->image_height * cinfo->block_size, 6L);
 112:fltk-1.3.4-1/jpeg/jcmaster.c ****     cinfo->min_DCT_h_scaled_size = 6;
 113:fltk-1.3.4-1/jpeg/jcmaster.c ****     cinfo->min_DCT_v_scaled_size = 6;
 114:fltk-1.3.4-1/jpeg/jcmaster.c ****   } else if (cinfo->scale_num * 7 >= cinfo->scale_denom * cinfo->block_size) {
 115:fltk-1.3.4-1/jpeg/jcmaster.c ****     /* Provide block_size/7 scaling */
 116:fltk-1.3.4-1/jpeg/jcmaster.c ****     cinfo->jpeg_width = (JDIMENSION)
 117:fltk-1.3.4-1/jpeg/jcmaster.c ****       jdiv_round_up((long) cinfo->image_width * cinfo->block_size, 7L);
 118:fltk-1.3.4-1/jpeg/jcmaster.c ****     cinfo->jpeg_height = (JDIMENSION)
 119:fltk-1.3.4-1/jpeg/jcmaster.c ****       jdiv_round_up((long) cinfo->image_height * cinfo->block_size, 7L);
 120:fltk-1.3.4-1/jpeg/jcmaster.c ****     cinfo->min_DCT_h_scaled_size = 7;
 121:fltk-1.3.4-1/jpeg/jcmaster.c ****     cinfo->min_DCT_v_scaled_size = 7;
 122:fltk-1.3.4-1/jpeg/jcmaster.c ****   } else if (cinfo->scale_num * 8 >= cinfo->scale_denom * cinfo->block_size) {
 123:fltk-1.3.4-1/jpeg/jcmaster.c ****     /* Provide block_size/8 scaling */
 124:fltk-1.3.4-1/jpeg/jcmaster.c ****     cinfo->jpeg_width = (JDIMENSION)
 125:fltk-1.3.4-1/jpeg/jcmaster.c ****       jdiv_round_up((long) cinfo->image_width * cinfo->block_size, 8L);
 126:fltk-1.3.4-1/jpeg/jcmaster.c ****     cinfo->jpeg_height = (JDIMENSION)
 127:fltk-1.3.4-1/jpeg/jcmaster.c ****       jdiv_round_up((long) cinfo->image_height * cinfo->block_size, 8L);
 128:fltk-1.3.4-1/jpeg/jcmaster.c ****     cinfo->min_DCT_h_scaled_size = 8;
 129:fltk-1.3.4-1/jpeg/jcmaster.c ****     cinfo->min_DCT_v_scaled_size = 8;
 130:fltk-1.3.4-1/jpeg/jcmaster.c ****   } else if (cinfo->scale_num * 9 >= cinfo->scale_denom * cinfo->block_size) {
 131:fltk-1.3.4-1/jpeg/jcmaster.c ****     /* Provide block_size/9 scaling */
 132:fltk-1.3.4-1/jpeg/jcmaster.c ****     cinfo->jpeg_width = (JDIMENSION)
 133:fltk-1.3.4-1/jpeg/jcmaster.c ****       jdiv_round_up((long) cinfo->image_width * cinfo->block_size, 9L);
 134:fltk-1.3.4-1/jpeg/jcmaster.c ****     cinfo->jpeg_height = (JDIMENSION)
 135:fltk-1.3.4-1/jpeg/jcmaster.c ****       jdiv_round_up((long) cinfo->image_height * cinfo->block_size, 9L);
 136:fltk-1.3.4-1/jpeg/jcmaster.c ****     cinfo->min_DCT_h_scaled_size = 9;
 137:fltk-1.3.4-1/jpeg/jcmaster.c ****     cinfo->min_DCT_v_scaled_size = 9;
 138:fltk-1.3.4-1/jpeg/jcmaster.c ****   } else if (cinfo->scale_num * 10 >= cinfo->scale_denom * cinfo->block_size) {
 139:fltk-1.3.4-1/jpeg/jcmaster.c ****     /* Provide block_size/10 scaling */
 140:fltk-1.3.4-1/jpeg/jcmaster.c ****     cinfo->jpeg_width = (JDIMENSION)
 141:fltk-1.3.4-1/jpeg/jcmaster.c ****       jdiv_round_up((long) cinfo->image_width * cinfo->block_size, 10L);
 142:fltk-1.3.4-1/jpeg/jcmaster.c ****     cinfo->jpeg_height = (JDIMENSION)
 143:fltk-1.3.4-1/jpeg/jcmaster.c ****       jdiv_round_up((long) cinfo->image_height * cinfo->block_size, 10L);
 144:fltk-1.3.4-1/jpeg/jcmaster.c ****     cinfo->min_DCT_h_scaled_size = 10;
 145:fltk-1.3.4-1/jpeg/jcmaster.c ****     cinfo->min_DCT_v_scaled_size = 10;
 146:fltk-1.3.4-1/jpeg/jcmaster.c ****   } else if (cinfo->scale_num * 11 >= cinfo->scale_denom * cinfo->block_size) {
 147:fltk-1.3.4-1/jpeg/jcmaster.c ****     /* Provide block_size/11 scaling */
 148:fltk-1.3.4-1/jpeg/jcmaster.c ****     cinfo->jpeg_width = (JDIMENSION)
 149:fltk-1.3.4-1/jpeg/jcmaster.c ****       jdiv_round_up((long) cinfo->image_width * cinfo->block_size, 11L);
 150:fltk-1.3.4-1/jpeg/jcmaster.c ****     cinfo->jpeg_height = (JDIMENSION)
 151:fltk-1.3.4-1/jpeg/jcmaster.c ****       jdiv_round_up((long) cinfo->image_height * cinfo->block_size, 11L);
 152:fltk-1.3.4-1/jpeg/jcmaster.c ****     cinfo->min_DCT_h_scaled_size = 11;
 153:fltk-1.3.4-1/jpeg/jcmaster.c ****     cinfo->min_DCT_v_scaled_size = 11;
 154:fltk-1.3.4-1/jpeg/jcmaster.c ****   } else if (cinfo->scale_num * 12 >= cinfo->scale_denom * cinfo->block_size) {
 155:fltk-1.3.4-1/jpeg/jcmaster.c ****     /* Provide block_size/12 scaling */
 156:fltk-1.3.4-1/jpeg/jcmaster.c ****     cinfo->jpeg_width = (JDIMENSION)
 157:fltk-1.3.4-1/jpeg/jcmaster.c ****       jdiv_round_up((long) cinfo->image_width * cinfo->block_size, 12L);
 158:fltk-1.3.4-1/jpeg/jcmaster.c ****     cinfo->jpeg_height = (JDIMENSION)
 159:fltk-1.3.4-1/jpeg/jcmaster.c ****       jdiv_round_up((long) cinfo->image_height * cinfo->block_size, 12L);
 160:fltk-1.3.4-1/jpeg/jcmaster.c ****     cinfo->min_DCT_h_scaled_size = 12;
 161:fltk-1.3.4-1/jpeg/jcmaster.c ****     cinfo->min_DCT_v_scaled_size = 12;
 162:fltk-1.3.4-1/jpeg/jcmaster.c ****   } else if (cinfo->scale_num * 13 >= cinfo->scale_denom * cinfo->block_size) {
 163:fltk-1.3.4-1/jpeg/jcmaster.c ****     /* Provide block_size/13 scaling */
 164:fltk-1.3.4-1/jpeg/jcmaster.c ****     cinfo->jpeg_width = (JDIMENSION)
 165:fltk-1.3.4-1/jpeg/jcmaster.c ****       jdiv_round_up((long) cinfo->image_width * cinfo->block_size, 13L);
 166:fltk-1.3.4-1/jpeg/jcmaster.c ****     cinfo->jpeg_height = (JDIMENSION)
 167:fltk-1.3.4-1/jpeg/jcmaster.c ****       jdiv_round_up((long) cinfo->image_height * cinfo->block_size, 13L);
 168:fltk-1.3.4-1/jpeg/jcmaster.c ****     cinfo->min_DCT_h_scaled_size = 13;
 169:fltk-1.3.4-1/jpeg/jcmaster.c ****     cinfo->min_DCT_v_scaled_size = 13;
 170:fltk-1.3.4-1/jpeg/jcmaster.c ****   } else if (cinfo->scale_num * 14 >= cinfo->scale_denom * cinfo->block_size) {
 171:fltk-1.3.4-1/jpeg/jcmaster.c ****     /* Provide block_size/14 scaling */
 172:fltk-1.3.4-1/jpeg/jcmaster.c ****     cinfo->jpeg_width = (JDIMENSION)
 173:fltk-1.3.4-1/jpeg/jcmaster.c ****       jdiv_round_up((long) cinfo->image_width * cinfo->block_size, 14L);
 174:fltk-1.3.4-1/jpeg/jcmaster.c ****     cinfo->jpeg_height = (JDIMENSION)
 175:fltk-1.3.4-1/jpeg/jcmaster.c ****       jdiv_round_up((long) cinfo->image_height * cinfo->block_size, 14L);
 176:fltk-1.3.4-1/jpeg/jcmaster.c ****     cinfo->min_DCT_h_scaled_size = 14;
 177:fltk-1.3.4-1/jpeg/jcmaster.c ****     cinfo->min_DCT_v_scaled_size = 14;
 178:fltk-1.3.4-1/jpeg/jcmaster.c ****   } else if (cinfo->scale_num * 15 >= cinfo->scale_denom * cinfo->block_size) {
 179:fltk-1.3.4-1/jpeg/jcmaster.c ****     /* Provide block_size/15 scaling */
 180:fltk-1.3.4-1/jpeg/jcmaster.c ****     cinfo->jpeg_width = (JDIMENSION)
 181:fltk-1.3.4-1/jpeg/jcmaster.c ****       jdiv_round_up((long) cinfo->image_width * cinfo->block_size, 15L);
 182:fltk-1.3.4-1/jpeg/jcmaster.c ****     cinfo->jpeg_height = (JDIMENSION)
 183:fltk-1.3.4-1/jpeg/jcmaster.c ****       jdiv_round_up((long) cinfo->image_height * cinfo->block_size, 15L);
 184:fltk-1.3.4-1/jpeg/jcmaster.c ****     cinfo->min_DCT_h_scaled_size = 15;
 185:fltk-1.3.4-1/jpeg/jcmaster.c ****     cinfo->min_DCT_v_scaled_size = 15;
 186:fltk-1.3.4-1/jpeg/jcmaster.c ****   } else {
 187:fltk-1.3.4-1/jpeg/jcmaster.c ****     /* Provide block_size/16 scaling */
 188:fltk-1.3.4-1/jpeg/jcmaster.c ****     cinfo->jpeg_width = (JDIMENSION)
 189:fltk-1.3.4-1/jpeg/jcmaster.c ****       jdiv_round_up((long) cinfo->image_width * cinfo->block_size, 16L);
 190:fltk-1.3.4-1/jpeg/jcmaster.c ****     cinfo->jpeg_height = (JDIMENSION)
 191:fltk-1.3.4-1/jpeg/jcmaster.c ****       jdiv_round_up((long) cinfo->image_height * cinfo->block_size, 16L);
 192:fltk-1.3.4-1/jpeg/jcmaster.c ****     cinfo->min_DCT_h_scaled_size = 16;
 193:fltk-1.3.4-1/jpeg/jcmaster.c ****     cinfo->min_DCT_v_scaled_size = 16;
 194:fltk-1.3.4-1/jpeg/jcmaster.c ****   }
 195:fltk-1.3.4-1/jpeg/jcmaster.c **** 
 196:fltk-1.3.4-1/jpeg/jcmaster.c **** #else /* !DCT_SCALING_SUPPORTED */
 197:fltk-1.3.4-1/jpeg/jcmaster.c **** 
 198:fltk-1.3.4-1/jpeg/jcmaster.c ****   /* Hardwire it to "no scaling" */
 199:fltk-1.3.4-1/jpeg/jcmaster.c ****   cinfo->jpeg_width = cinfo->image_width;
 200:fltk-1.3.4-1/jpeg/jcmaster.c ****   cinfo->jpeg_height = cinfo->image_height;
 201:fltk-1.3.4-1/jpeg/jcmaster.c ****   cinfo->min_DCT_h_scaled_size = DCTSIZE;
 202:fltk-1.3.4-1/jpeg/jcmaster.c ****   cinfo->min_DCT_v_scaled_size = DCTSIZE;
 203:fltk-1.3.4-1/jpeg/jcmaster.c **** 
 204:fltk-1.3.4-1/jpeg/jcmaster.c **** #endif /* DCT_SCALING_SUPPORTED */
 205:fltk-1.3.4-1/jpeg/jcmaster.c **** }
 206:fltk-1.3.4-1/jpeg/jcmaster.c **** 
 207:fltk-1.3.4-1/jpeg/jcmaster.c **** 
 208:fltk-1.3.4-1/jpeg/jcmaster.c **** LOCAL(void)
 209:fltk-1.3.4-1/jpeg/jcmaster.c **** jpeg_calc_trans_dimensions (j_compress_ptr cinfo)
 210:fltk-1.3.4-1/jpeg/jcmaster.c **** {
 211:fltk-1.3.4-1/jpeg/jcmaster.c ****   if (cinfo->min_DCT_h_scaled_size != cinfo->min_DCT_v_scaled_size)
 212:fltk-1.3.4-1/jpeg/jcmaster.c ****     ERREXIT2(cinfo, JERR_BAD_DCTSIZE,
 213:fltk-1.3.4-1/jpeg/jcmaster.c **** 	     cinfo->min_DCT_h_scaled_size, cinfo->min_DCT_v_scaled_size);
 214:fltk-1.3.4-1/jpeg/jcmaster.c **** 
 215:fltk-1.3.4-1/jpeg/jcmaster.c ****   cinfo->block_size = cinfo->min_DCT_h_scaled_size;
 216:fltk-1.3.4-1/jpeg/jcmaster.c **** }
 217:fltk-1.3.4-1/jpeg/jcmaster.c **** 
 218:fltk-1.3.4-1/jpeg/jcmaster.c **** 
 219:fltk-1.3.4-1/jpeg/jcmaster.c **** LOCAL(void)
 220:fltk-1.3.4-1/jpeg/jcmaster.c **** initial_setup (j_compress_ptr cinfo, boolean transcode_only)
 221:fltk-1.3.4-1/jpeg/jcmaster.c **** /* Do computations that are needed before master selection phase */
 222:fltk-1.3.4-1/jpeg/jcmaster.c **** {
 223:fltk-1.3.4-1/jpeg/jcmaster.c ****   int ci, ssize;
 224:fltk-1.3.4-1/jpeg/jcmaster.c ****   jpeg_component_info *compptr;
 225:fltk-1.3.4-1/jpeg/jcmaster.c **** 
 226:fltk-1.3.4-1/jpeg/jcmaster.c ****   if (transcode_only)
 227:fltk-1.3.4-1/jpeg/jcmaster.c ****     jpeg_calc_trans_dimensions(cinfo);
 228:fltk-1.3.4-1/jpeg/jcmaster.c ****   else
 229:fltk-1.3.4-1/jpeg/jcmaster.c ****     jpeg_calc_jpeg_dimensions(cinfo);
 230:fltk-1.3.4-1/jpeg/jcmaster.c **** 
 231:fltk-1.3.4-1/jpeg/jcmaster.c ****   /* Sanity check on block_size */
 232:fltk-1.3.4-1/jpeg/jcmaster.c ****   if (cinfo->block_size < 1 || cinfo->block_size > 16)
 233:fltk-1.3.4-1/jpeg/jcmaster.c ****     ERREXIT2(cinfo, JERR_BAD_DCTSIZE, cinfo->block_size, cinfo->block_size);
 234:fltk-1.3.4-1/jpeg/jcmaster.c **** 
 235:fltk-1.3.4-1/jpeg/jcmaster.c ****   /* Derive natural_order from block_size */
 236:fltk-1.3.4-1/jpeg/jcmaster.c ****   switch (cinfo->block_size) {
 237:fltk-1.3.4-1/jpeg/jcmaster.c ****   case 2: cinfo->natural_order = jpeg_natural_order2; break;
 238:fltk-1.3.4-1/jpeg/jcmaster.c ****   case 3: cinfo->natural_order = jpeg_natural_order3; break;
 239:fltk-1.3.4-1/jpeg/jcmaster.c ****   case 4: cinfo->natural_order = jpeg_natural_order4; break;
 240:fltk-1.3.4-1/jpeg/jcmaster.c ****   case 5: cinfo->natural_order = jpeg_natural_order5; break;
 241:fltk-1.3.4-1/jpeg/jcmaster.c ****   case 6: cinfo->natural_order = jpeg_natural_order6; break;
 242:fltk-1.3.4-1/jpeg/jcmaster.c ****   case 7: cinfo->natural_order = jpeg_natural_order7; break;
 243:fltk-1.3.4-1/jpeg/jcmaster.c ****   default: cinfo->natural_order = jpeg_natural_order; break;
 244:fltk-1.3.4-1/jpeg/jcmaster.c ****   }
 245:fltk-1.3.4-1/jpeg/jcmaster.c **** 
 246:fltk-1.3.4-1/jpeg/jcmaster.c ****   /* Derive lim_Se from block_size */
 247:fltk-1.3.4-1/jpeg/jcmaster.c ****   cinfo->lim_Se = cinfo->block_size < DCTSIZE ?
 248:fltk-1.3.4-1/jpeg/jcmaster.c ****     cinfo->block_size * cinfo->block_size - 1 : DCTSIZE2-1;
 249:fltk-1.3.4-1/jpeg/jcmaster.c **** 
 250:fltk-1.3.4-1/jpeg/jcmaster.c ****   /* Sanity check on image dimensions */
 251:fltk-1.3.4-1/jpeg/jcmaster.c ****   if (cinfo->jpeg_height <= 0 || cinfo->jpeg_width <= 0 ||
 252:fltk-1.3.4-1/jpeg/jcmaster.c ****       cinfo->num_components <= 0)
 253:fltk-1.3.4-1/jpeg/jcmaster.c ****     ERREXIT(cinfo, JERR_EMPTY_IMAGE);
 254:fltk-1.3.4-1/jpeg/jcmaster.c **** 
 255:fltk-1.3.4-1/jpeg/jcmaster.c ****   /* Make sure image isn't bigger than I can handle */
 256:fltk-1.3.4-1/jpeg/jcmaster.c ****   if ((long) cinfo->jpeg_height > (long) JPEG_MAX_DIMENSION ||
 257:fltk-1.3.4-1/jpeg/jcmaster.c ****       (long) cinfo->jpeg_width > (long) JPEG_MAX_DIMENSION)
 258:fltk-1.3.4-1/jpeg/jcmaster.c ****     ERREXIT1(cinfo, JERR_IMAGE_TOO_BIG, (unsigned int) JPEG_MAX_DIMENSION);
 259:fltk-1.3.4-1/jpeg/jcmaster.c **** 
 260:fltk-1.3.4-1/jpeg/jcmaster.c ****   /* Only 8 to 12 bits data precision are supported for DCT based JPEG */
 261:fltk-1.3.4-1/jpeg/jcmaster.c ****   if (cinfo->data_precision < 8 || cinfo->data_precision > 12)
 262:fltk-1.3.4-1/jpeg/jcmaster.c ****     ERREXIT1(cinfo, JERR_BAD_PRECISION, cinfo->data_precision);
 263:fltk-1.3.4-1/jpeg/jcmaster.c **** 
 264:fltk-1.3.4-1/jpeg/jcmaster.c ****   /* Check that number of components won't exceed internal array sizes */
 265:fltk-1.3.4-1/jpeg/jcmaster.c ****   if (cinfo->num_components > MAX_COMPONENTS)
 266:fltk-1.3.4-1/jpeg/jcmaster.c ****     ERREXIT2(cinfo, JERR_COMPONENT_COUNT, cinfo->num_components,
 267:fltk-1.3.4-1/jpeg/jcmaster.c **** 	     MAX_COMPONENTS);
 268:fltk-1.3.4-1/jpeg/jcmaster.c **** 
 269:fltk-1.3.4-1/jpeg/jcmaster.c ****   /* Compute maximum sampling factors; check factor validity */
 270:fltk-1.3.4-1/jpeg/jcmaster.c ****   cinfo->max_h_samp_factor = 1;
 271:fltk-1.3.4-1/jpeg/jcmaster.c ****   cinfo->max_v_samp_factor = 1;
 272:fltk-1.3.4-1/jpeg/jcmaster.c ****   for (ci = 0, compptr = cinfo->comp_info; ci < cinfo->num_components;
 273:fltk-1.3.4-1/jpeg/jcmaster.c ****        ci++, compptr++) {
 274:fltk-1.3.4-1/jpeg/jcmaster.c ****     if (compptr->h_samp_factor<=0 || compptr->h_samp_factor>MAX_SAMP_FACTOR ||
 275:fltk-1.3.4-1/jpeg/jcmaster.c **** 	compptr->v_samp_factor<=0 || compptr->v_samp_factor>MAX_SAMP_FACTOR)
 276:fltk-1.3.4-1/jpeg/jcmaster.c ****       ERREXIT(cinfo, JERR_BAD_SAMPLING);
 277:fltk-1.3.4-1/jpeg/jcmaster.c ****     cinfo->max_h_samp_factor = MAX(cinfo->max_h_samp_factor,
 278:fltk-1.3.4-1/jpeg/jcmaster.c **** 				   compptr->h_samp_factor);
 279:fltk-1.3.4-1/jpeg/jcmaster.c ****     cinfo->max_v_samp_factor = MAX(cinfo->max_v_samp_factor,
 280:fltk-1.3.4-1/jpeg/jcmaster.c **** 				   compptr->v_samp_factor);
 281:fltk-1.3.4-1/jpeg/jcmaster.c ****   }
 282:fltk-1.3.4-1/jpeg/jcmaster.c **** 
 283:fltk-1.3.4-1/jpeg/jcmaster.c ****   /* Compute dimensions of components */
 284:fltk-1.3.4-1/jpeg/jcmaster.c ****   for (ci = 0, compptr = cinfo->comp_info; ci < cinfo->num_components;
 285:fltk-1.3.4-1/jpeg/jcmaster.c ****        ci++, compptr++) {
 286:fltk-1.3.4-1/jpeg/jcmaster.c ****     /* Fill in the correct component_index value; don't rely on application */
 287:fltk-1.3.4-1/jpeg/jcmaster.c ****     compptr->component_index = ci;
 288:fltk-1.3.4-1/jpeg/jcmaster.c ****     /* In selecting the actual DCT scaling for each component, we try to
 289:fltk-1.3.4-1/jpeg/jcmaster.c ****      * scale down the chroma components via DCT scaling rather than downsampling.
 290:fltk-1.3.4-1/jpeg/jcmaster.c ****      * This saves time if the downsampler gets to use 1:1 scaling.
 291:fltk-1.3.4-1/jpeg/jcmaster.c ****      * Note this code adapts subsampling ratios which are powers of 2.
 292:fltk-1.3.4-1/jpeg/jcmaster.c ****      */
 293:fltk-1.3.4-1/jpeg/jcmaster.c ****     ssize = 1;
 294:fltk-1.3.4-1/jpeg/jcmaster.c **** #ifdef DCT_SCALING_SUPPORTED
 295:fltk-1.3.4-1/jpeg/jcmaster.c ****     while (cinfo->min_DCT_h_scaled_size * ssize <=
 296:fltk-1.3.4-1/jpeg/jcmaster.c **** 	   (cinfo->do_fancy_downsampling ? DCTSIZE : DCTSIZE / 2) &&
 297:fltk-1.3.4-1/jpeg/jcmaster.c **** 	   (cinfo->max_h_samp_factor % (compptr->h_samp_factor * ssize * 2)) == 0) {
 298:fltk-1.3.4-1/jpeg/jcmaster.c ****       ssize = ssize * 2;
 299:fltk-1.3.4-1/jpeg/jcmaster.c ****     }
 300:fltk-1.3.4-1/jpeg/jcmaster.c **** #endif
 301:fltk-1.3.4-1/jpeg/jcmaster.c ****     compptr->DCT_h_scaled_size = cinfo->min_DCT_h_scaled_size * ssize;
 302:fltk-1.3.4-1/jpeg/jcmaster.c ****     ssize = 1;
 303:fltk-1.3.4-1/jpeg/jcmaster.c **** #ifdef DCT_SCALING_SUPPORTED
 304:fltk-1.3.4-1/jpeg/jcmaster.c ****     while (cinfo->min_DCT_v_scaled_size * ssize <=
 305:fltk-1.3.4-1/jpeg/jcmaster.c **** 	   (cinfo->do_fancy_downsampling ? DCTSIZE : DCTSIZE / 2) &&
 306:fltk-1.3.4-1/jpeg/jcmaster.c **** 	   (cinfo->max_v_samp_factor % (compptr->v_samp_factor * ssize * 2)) == 0) {
 307:fltk-1.3.4-1/jpeg/jcmaster.c ****       ssize = ssize * 2;
 308:fltk-1.3.4-1/jpeg/jcmaster.c ****     }
 309:fltk-1.3.4-1/jpeg/jcmaster.c **** #endif
 310:fltk-1.3.4-1/jpeg/jcmaster.c ****     compptr->DCT_v_scaled_size = cinfo->min_DCT_v_scaled_size * ssize;
 311:fltk-1.3.4-1/jpeg/jcmaster.c **** 
 312:fltk-1.3.4-1/jpeg/jcmaster.c ****     /* We don't support DCT ratios larger than 2. */
 313:fltk-1.3.4-1/jpeg/jcmaster.c ****     if (compptr->DCT_h_scaled_size > compptr->DCT_v_scaled_size * 2)
 314:fltk-1.3.4-1/jpeg/jcmaster.c **** 	compptr->DCT_h_scaled_size = compptr->DCT_v_scaled_size * 2;
 315:fltk-1.3.4-1/jpeg/jcmaster.c ****     else if (compptr->DCT_v_scaled_size > compptr->DCT_h_scaled_size * 2)
 316:fltk-1.3.4-1/jpeg/jcmaster.c **** 	compptr->DCT_v_scaled_size = compptr->DCT_h_scaled_size * 2;
 317:fltk-1.3.4-1/jpeg/jcmaster.c **** 
 318:fltk-1.3.4-1/jpeg/jcmaster.c ****     /* Size in DCT blocks */
 319:fltk-1.3.4-1/jpeg/jcmaster.c ****     compptr->width_in_blocks = (JDIMENSION)
 320:fltk-1.3.4-1/jpeg/jcmaster.c ****       jdiv_round_up((long) cinfo->jpeg_width * (long) compptr->h_samp_factor,
 321:fltk-1.3.4-1/jpeg/jcmaster.c **** 		    (long) (cinfo->max_h_samp_factor * cinfo->block_size));
 322:fltk-1.3.4-1/jpeg/jcmaster.c ****     compptr->height_in_blocks = (JDIMENSION)
 323:fltk-1.3.4-1/jpeg/jcmaster.c ****       jdiv_round_up((long) cinfo->jpeg_height * (long) compptr->v_samp_factor,
 324:fltk-1.3.4-1/jpeg/jcmaster.c **** 		    (long) (cinfo->max_v_samp_factor * cinfo->block_size));
 325:fltk-1.3.4-1/jpeg/jcmaster.c ****     /* Size in samples */
 326:fltk-1.3.4-1/jpeg/jcmaster.c ****     compptr->downsampled_width = (JDIMENSION)
 327:fltk-1.3.4-1/jpeg/jcmaster.c ****       jdiv_round_up((long) cinfo->jpeg_width *
 328:fltk-1.3.4-1/jpeg/jcmaster.c **** 		    (long) (compptr->h_samp_factor * compptr->DCT_h_scaled_size),
 329:fltk-1.3.4-1/jpeg/jcmaster.c **** 		    (long) (cinfo->max_h_samp_factor * cinfo->block_size));
 330:fltk-1.3.4-1/jpeg/jcmaster.c ****     compptr->downsampled_height = (JDIMENSION)
 331:fltk-1.3.4-1/jpeg/jcmaster.c ****       jdiv_round_up((long) cinfo->jpeg_height *
 332:fltk-1.3.4-1/jpeg/jcmaster.c **** 		    (long) (compptr->v_samp_factor * compptr->DCT_v_scaled_size),
 333:fltk-1.3.4-1/jpeg/jcmaster.c **** 		    (long) (cinfo->max_v_samp_factor * cinfo->block_size));
 334:fltk-1.3.4-1/jpeg/jcmaster.c ****     /* Don't need quantization scale after DCT,
 335:fltk-1.3.4-1/jpeg/jcmaster.c ****      * until color conversion says otherwise.
 336:fltk-1.3.4-1/jpeg/jcmaster.c ****      */
 337:fltk-1.3.4-1/jpeg/jcmaster.c ****     compptr->component_needed = FALSE;
 338:fltk-1.3.4-1/jpeg/jcmaster.c ****   }
 339:fltk-1.3.4-1/jpeg/jcmaster.c **** 
 340:fltk-1.3.4-1/jpeg/jcmaster.c ****   /* Compute number of fully interleaved MCU rows (number of times that
 341:fltk-1.3.4-1/jpeg/jcmaster.c ****    * main controller will call coefficient controller).
 342:fltk-1.3.4-1/jpeg/jcmaster.c ****    */
 343:fltk-1.3.4-1/jpeg/jcmaster.c ****   cinfo->total_iMCU_rows = (JDIMENSION)
 344:fltk-1.3.4-1/jpeg/jcmaster.c ****     jdiv_round_up((long) cinfo->jpeg_height,
 345:fltk-1.3.4-1/jpeg/jcmaster.c **** 		  (long) (cinfo->max_v_samp_factor * cinfo->block_size));
 346:fltk-1.3.4-1/jpeg/jcmaster.c **** }
 347:fltk-1.3.4-1/jpeg/jcmaster.c **** 
 348:fltk-1.3.4-1/jpeg/jcmaster.c **** 
 349:fltk-1.3.4-1/jpeg/jcmaster.c **** #ifdef C_MULTISCAN_FILES_SUPPORTED
 350:fltk-1.3.4-1/jpeg/jcmaster.c **** 
 351:fltk-1.3.4-1/jpeg/jcmaster.c **** LOCAL(void)
 352:fltk-1.3.4-1/jpeg/jcmaster.c **** validate_script (j_compress_ptr cinfo)
 353:fltk-1.3.4-1/jpeg/jcmaster.c **** /* Verify that the scan script in cinfo->scan_info[] is valid; also
 354:fltk-1.3.4-1/jpeg/jcmaster.c ****  * determine whether it uses progressive JPEG, and set cinfo->progressive_mode.
 355:fltk-1.3.4-1/jpeg/jcmaster.c ****  */
 356:fltk-1.3.4-1/jpeg/jcmaster.c **** {
  11              		.loc 1 356 1 view -0
  12              		.cfi_startproc
  13              		.loc 1 356 1 is_stmt 0 view .LVU1
  14 0000 4157     		pushq	%r15
  15              		.cfi_def_cfa_offset 16
  16              		.cfi_offset 15, -16
  17 0002 4989FF   		movq	%rdi, %r15
  18 0005 4156     		pushq	%r14
  19              		.cfi_def_cfa_offset 24
  20              		.cfi_offset 14, -24
  21 0007 4155     		pushq	%r13
  22              		.cfi_def_cfa_offset 32
  23              		.cfi_offset 13, -32
  24 0009 4154     		pushq	%r12
  25              		.cfi_def_cfa_offset 40
  26              		.cfi_offset 12, -40
  27 000b 55       		pushq	%rbp
  28              		.cfi_def_cfa_offset 48
  29              		.cfi_offset 6, -48
  30 000c 53       		pushq	%rbx
  31              		.cfi_def_cfa_offset 56
  32              		.cfi_offset 3, -56
  33 000d 4881EC78 		subq	$2680, %rsp
  33      0A0000
  34              		.cfi_def_cfa_offset 2736
 357:fltk-1.3.4-1/jpeg/jcmaster.c ****   const jpeg_scan_info * scanptr;
 358:fltk-1.3.4-1/jpeg/jcmaster.c ****   int scanno, ncomps, ci, coefi, thisi;
 359:fltk-1.3.4-1/jpeg/jcmaster.c ****   int Ss, Se, Ah, Al;
 360:fltk-1.3.4-1/jpeg/jcmaster.c ****   boolean component_sent[MAX_COMPONENTS];
 361:fltk-1.3.4-1/jpeg/jcmaster.c **** #ifdef C_PROGRESSIVE_SUPPORTED
 362:fltk-1.3.4-1/jpeg/jcmaster.c ****   int * last_bitpos_ptr;
 363:fltk-1.3.4-1/jpeg/jcmaster.c ****   int last_bitpos[MAX_COMPONENTS][DCTSIZE2];
 364:fltk-1.3.4-1/jpeg/jcmaster.c ****   /* -1 until that coefficient has been seen; then last Al for it */
 365:fltk-1.3.4-1/jpeg/jcmaster.c **** #endif
 366:fltk-1.3.4-1/jpeg/jcmaster.c **** 
 367:fltk-1.3.4-1/jpeg/jcmaster.c ****   if (cinfo->num_scans <= 0)
  35              		.loc 1 367 12 view .LVU2
  36 0014 8BB71001 		movl	272(%rdi), %esi
  36      0000
 356:fltk-1.3.4-1/jpeg/jcmaster.c ****   const jpeg_scan_info * scanptr;
  37              		.loc 1 356 1 view .LVU3
  38 001a 64488B04 		movq	%fs:40, %rax
  38      25280000 
  38      00
  39 0023 48898424 		movq	%rax, 2664(%rsp)
  39      680A0000 
  40 002b 31C0     		xorl	%eax, %eax
 357:fltk-1.3.4-1/jpeg/jcmaster.c ****   const jpeg_scan_info * scanptr;
  41              		.loc 1 357 3 is_stmt 1 view .LVU4
 358:fltk-1.3.4-1/jpeg/jcmaster.c ****   int Ss, Se, Ah, Al;
  42              		.loc 1 358 3 view .LVU5
 359:fltk-1.3.4-1/jpeg/jcmaster.c ****   boolean component_sent[MAX_COMPONENTS];
  43              		.loc 1 359 3 view .LVU6
 360:fltk-1.3.4-1/jpeg/jcmaster.c **** #ifdef C_PROGRESSIVE_SUPPORTED
  44              		.loc 1 360 3 view .LVU7
 362:fltk-1.3.4-1/jpeg/jcmaster.c ****   int last_bitpos[MAX_COMPONENTS][DCTSIZE2];
  45              		.loc 1 362 3 view .LVU8
 363:fltk-1.3.4-1/jpeg/jcmaster.c ****   /* -1 until that coefficient has been seen; then last Al for it */
  46              		.loc 1 363 3 view .LVU9
  47              		.loc 1 367 3 view .LVU10
  48              		.loc 1 367 6 is_stmt 0 view .LVU11
  49 002d 85F6     		testl	%esi, %esi
  50 002f 7F20     		jg	.L2
 368:fltk-1.3.4-1/jpeg/jcmaster.c ****     ERREXIT1(cinfo, JERR_BAD_SCAN_SCRIPT, 0);
  51              		.loc 1 368 5 is_stmt 1 view .LVU12
  52 0031 488B07   		movq	(%rdi), %rax
  53 0034 C7402814 		movl	$20, 40(%rax)
  53      000000
  54 003b 488B07   		movq	(%rdi), %rax
  55 003e C7402C00 		movl	$0, 44(%rax)
  55      000000
  56 0045 488B07   		movq	(%rdi), %rax
  57 0048 FF10     		call	*(%rax)
  58              	.LVL1:
  59              		.loc 1 368 5 is_stmt 0 view .LVU13
  60 004a 418BB710 		movl	272(%r15), %esi
  60      010000
  61              	.L2:
 369:fltk-1.3.4-1/jpeg/jcmaster.c **** 
 370:fltk-1.3.4-1/jpeg/jcmaster.c ****   /* For sequential JPEG, all scans must have Ss=0, Se=DCTSIZE2-1;
 371:fltk-1.3.4-1/jpeg/jcmaster.c ****    * for progressive JPEG, no scan can have this.
 372:fltk-1.3.4-1/jpeg/jcmaster.c ****    */
 373:fltk-1.3.4-1/jpeg/jcmaster.c ****   scanptr = cinfo->scan_info;
  62              		.loc 1 373 3 is_stmt 1 view .LVU14
  63              		.loc 1 373 11 is_stmt 0 view .LVU15
  64 0051 498B8718 		movq	280(%r15), %rax
  64      010000
  65 0058 418B4F5C 		movl	92(%r15), %ecx
 374:fltk-1.3.4-1/jpeg/jcmaster.c ****   if (scanptr->Ss != 0 || scanptr->Se != DCTSIZE2-1) {
  66              		.loc 1 374 6 view .LVU16
  67 005c 8B5014   		movl	20(%rax), %edx
 373:fltk-1.3.4-1/jpeg/jcmaster.c ****   if (scanptr->Ss != 0 || scanptr->Se != DCTSIZE2-1) {
  68              		.loc 1 373 11 view .LVU17
  69 005f 48894424 		movq	%rax, 8(%rsp)
  69      08
  70              	.LVL2:
  71              		.loc 1 374 3 is_stmt 1 view .LVU18
  72              		.loc 1 374 6 is_stmt 0 view .LVU19
  73 0064 85D2     		testl	%edx, %edx
  74 0066 750A     		jne	.L3
  75              		.loc 1 374 24 discriminator 1 view .LVU20
  76 0068 8378183F 		cmpl	$63, 24(%rax)
  77 006c 0F84FB03 		je	.L4
  77      0000
  78              	.L3:
 375:fltk-1.3.4-1/jpeg/jcmaster.c **** #ifdef C_PROGRESSIVE_SUPPORTED
 376:fltk-1.3.4-1/jpeg/jcmaster.c ****     cinfo->progressive_mode = TRUE;
  79              		.loc 1 376 5 is_stmt 1 view .LVU21
  80              		.loc 1 376 29 is_stmt 0 view .LVU22
  81 0072 41C7875C 		movl	$1, 348(%r15)
  81      01000001 
  81      000000
 377:fltk-1.3.4-1/jpeg/jcmaster.c ****     last_bitpos_ptr = & last_bitpos[0][0];
  82              		.loc 1 377 5 is_stmt 1 view .LVU23
  83              	.LVL3:
 378:fltk-1.3.4-1/jpeg/jcmaster.c ****     for (ci = 0; ci < cinfo->num_components; ci++) 
  84              		.loc 1 378 5 view .LVU24
  85              		.loc 1 378 18 view .LVU25
  86              		.loc 1 378 5 is_stmt 0 view .LVU26
  87 007d 85C9     		testl	%ecx, %ecx
  88 007f 0F8E2304 		jle	.L9
  88      0000
  89 0085 8D41FF   		leal	-1(%rcx), %eax
  90              	.LVL4:
  91              		.loc 1 378 5 view .LVU27
  92 0088 488D9424 		leaq	352(%rsp), %rdx
  92      60010000 
  93 0090 48C1E008 		salq	$8, %rax
  94 0094 488D8C04 		leaq	608(%rsp,%rax), %rcx
  94      60020000 
  95              	.LVL5:
  96 009c 0F1F4000 		.p2align 4,,10
  97              		.p2align 3
  98              	.L7:
  99              		.loc 1 378 5 view .LVU28
 100 00a0 488D8200 		leaq	-256(%rdx), %rax
 100      FFFFFF
 101              	.LVL6:
 102 00a7 660F1F84 		.p2align 4,,10
 102      00000000 
 102      00
 103              		.p2align 3
 104              	.L6:
 379:fltk-1.3.4-1/jpeg/jcmaster.c ****       for (coefi = 0; coefi < DCTSIZE2; coefi++)
 380:fltk-1.3.4-1/jpeg/jcmaster.c **** 	*last_bitpos_ptr++ = -1;
 105              		.loc 1 380 2 is_stmt 1 discriminator 3 view .LVU29
 106              		.loc 1 380 18 is_stmt 0 discriminator 3 view .LVU30
 107 00b0 4883C004 		addq	$4, %rax
 108              	.LVL7:
 109              		.loc 1 380 21 discriminator 3 view .LVU31
 110 00b4 C740FCFF 		movl	$-1, -4(%rax)
 110      FFFFFF
 379:fltk-1.3.4-1/jpeg/jcmaster.c ****       for (coefi = 0; coefi < DCTSIZE2; coefi++)
 111              		.loc 1 379 41 is_stmt 1 discriminator 3 view .LVU32
 379:fltk-1.3.4-1/jpeg/jcmaster.c ****       for (coefi = 0; coefi < DCTSIZE2; coefi++)
 112              		.loc 1 379 23 discriminator 3 view .LVU33
 379:fltk-1.3.4-1/jpeg/jcmaster.c ****       for (coefi = 0; coefi < DCTSIZE2; coefi++)
 113              		.loc 1 379 7 is_stmt 0 discriminator 3 view .LVU34
 114 00bb 4839D0   		cmpq	%rdx, %rax
 115 00be 75F0     		jne	.L6
 378:fltk-1.3.4-1/jpeg/jcmaster.c ****     for (ci = 0; ci < cinfo->num_components; ci++) 
 116              		.loc 1 378 46 is_stmt 1 discriminator 2 view .LVU35
 378:fltk-1.3.4-1/jpeg/jcmaster.c ****     for (ci = 0; ci < cinfo->num_components; ci++) 
 117              		.loc 1 378 18 discriminator 2 view .LVU36
 118 00c0 488D9000 		leaq	256(%rax), %rdx
 118      010000
 378:fltk-1.3.4-1/jpeg/jcmaster.c ****     for (ci = 0; ci < cinfo->num_components; ci++) 
 119              		.loc 1 378 5 is_stmt 0 discriminator 2 view .LVU37
 120 00c7 4839D1   		cmpq	%rdx, %rcx
 121 00ca 75D4     		jne	.L7
 122              	.LVL8:
 381:fltk-1.3.4-1/jpeg/jcmaster.c **** #else
 382:fltk-1.3.4-1/jpeg/jcmaster.c ****     ERREXIT(cinfo, JERR_NOT_COMPILED);
 383:fltk-1.3.4-1/jpeg/jcmaster.c **** #endif
 384:fltk-1.3.4-1/jpeg/jcmaster.c ****   } else {
 385:fltk-1.3.4-1/jpeg/jcmaster.c ****     cinfo->progressive_mode = FALSE;
 386:fltk-1.3.4-1/jpeg/jcmaster.c ****     for (ci = 0; ci < cinfo->num_components; ci++) 
 387:fltk-1.3.4-1/jpeg/jcmaster.c ****       component_sent[ci] = FALSE;
 388:fltk-1.3.4-1/jpeg/jcmaster.c ****   }
 389:fltk-1.3.4-1/jpeg/jcmaster.c **** 
 390:fltk-1.3.4-1/jpeg/jcmaster.c ****   for (scanno = 1; scanno <= cinfo->num_scans; scanptr++, scanno++) {
 123              		.loc 1 390 20 is_stmt 1 view .LVU38
 124              		.loc 1 390 3 is_stmt 0 view .LVU39
 125 00cc 85F6     		testl	%esi, %esi
 126 00ce 0F8E6203 		jle	.L50
 126      0000
 127              	.LVL9:
 128              	.L49:
 129              		.loc 1 390 3 view .LVU40
 130 00d4 488D4424 		leaq	96(%rsp), %rax
 130      60
 356:fltk-1.3.4-1/jpeg/jcmaster.c ****   const jpeg_scan_info * scanptr;
 131              		.loc 1 356 1 view .LVU41
 132 00d9 BB010000 		movl	$1, %ebx
 132      00
 133 00de 48894424 		movq	%rax, 40(%rsp)
 133      28
 134              	.LVL10:
 135              		.p2align 4,,10
 136 00e3 0F1F4400 		.p2align 3
 136      00
 137              	.L28:
 391:fltk-1.3.4-1/jpeg/jcmaster.c ****     /* Validate component indexes */
 392:fltk-1.3.4-1/jpeg/jcmaster.c ****     ncomps = scanptr->comps_in_scan;
 138              		.loc 1 392 5 is_stmt 1 view .LVU42
 139              		.loc 1 392 12 is_stmt 0 view .LVU43
 140 00e8 488B4424 		movq	8(%rsp), %rax
 140      08
 141 00ed 448B30   		movl	(%rax), %r14d
 393:fltk-1.3.4-1/jpeg/jcmaster.c ****     if (ncomps <= 0 || ncomps > MAX_COMPS_IN_SCAN)
 142              		.loc 1 393 21 view .LVU44
 143 00f0 458D66FF 		leal	-1(%r14), %r12d
 392:fltk-1.3.4-1/jpeg/jcmaster.c ****     if (ncomps <= 0 || ncomps > MAX_COMPS_IN_SCAN)
 144              		.loc 1 392 12 view .LVU45
 145 00f4 44897424 		movl	%r14d, 24(%rsp)
 145      18
 146              	.LVL11:
 147              		.loc 1 393 5 is_stmt 1 view .LVU46
 148              		.loc 1 393 8 is_stmt 0 view .LVU47
 149 00f9 4183FC03 		cmpl	$3, %r12d
 150 00fd 7628     		jbe	.L12
 394:fltk-1.3.4-1/jpeg/jcmaster.c ****       ERREXIT2(cinfo, JERR_COMPONENT_COUNT, ncomps, MAX_COMPS_IN_SCAN);
 151              		.loc 1 394 7 is_stmt 1 view .LVU48
 152 00ff 498B07   		movq	(%r15), %rax
 153 0102 4C89FF   		movq	%r15, %rdi
 154 0105 C740281B 		movl	$27, 40(%rax)
 154      000000
 155 010c 498B07   		movq	(%r15), %rax
 156 010f 4489702C 		movl	%r14d, 44(%rax)
 157 0113 498B07   		movq	(%r15), %rax
 158 0116 C7403004 		movl	$4, 48(%rax)
 158      000000
 159 011d 498B07   		movq	(%r15), %rax
 160 0120 FF10     		call	*(%rax)
 161              	.LVL12:
 395:fltk-1.3.4-1/jpeg/jcmaster.c ****     for (ci = 0; ci < ncomps; ci++) {
 162              		.loc 1 395 18 view .LVU49
 163              		.loc 1 395 5 is_stmt 0 view .LVU50
 164 0122 4585F6   		testl	%r14d, %r14d
 165 0125 7E61     		jle	.L19
 166              	.LVL13:
 167              	.L12:
 356:fltk-1.3.4-1/jpeg/jcmaster.c ****   const jpeg_scan_info * scanptr;
 168              		.loc 1 356 1 view .LVU51
 169 0127 31ED     		xorl	%ebp, %ebp
 170              	.LVL14:
 171              	.L18:
 396:fltk-1.3.4-1/jpeg/jcmaster.c ****       thisi = scanptr->component_index[ci];
 172              		.loc 1 396 7 is_stmt 1 view .LVU52
 173              		.loc 1 396 13 is_stmt 0 view .LVU53
 174 0129 488B4424 		movq	8(%rsp), %rax
 174      08
 175 012e 448B6CA8 		movl	4(%rax,%rbp,4), %r13d
 175      04
 176              	.LVL15:
 397:fltk-1.3.4-1/jpeg/jcmaster.c ****       if (thisi < 0 || thisi >= cinfo->num_components)
 177              		.loc 1 397 7 is_stmt 1 view .LVU54
 178              		.loc 1 397 10 is_stmt 0 view .LVU55
 179 0133 4585ED   		testl	%r13d, %r13d
 180 0136 7806     		js	.L15
 181              		.loc 1 397 21 discriminator 1 view .LVU56
 182 0138 45396F5C 		cmpl	%r13d, 92(%r15)
 183 013c 7F18     		jg	.L16
 184              	.L15:
 398:fltk-1.3.4-1/jpeg/jcmaster.c **** 	ERREXIT1(cinfo, JERR_BAD_SCAN_SCRIPT, scanno);
 185              		.loc 1 398 2 is_stmt 1 view .LVU57
 186 013e 498B07   		movq	(%r15), %rax
 187 0141 4C89FF   		movq	%r15, %rdi
 188 0144 C7402814 		movl	$20, 40(%rax)
 188      000000
 189 014b 498B07   		movq	(%r15), %rax
 190 014e 89582C   		movl	%ebx, 44(%rax)
 191 0151 498B07   		movq	(%r15), %rax
 192 0154 FF10     		call	*(%rax)
 193              	.LVL16:
 194              	.L16:
 399:fltk-1.3.4-1/jpeg/jcmaster.c ****       /* Components must appear in SOF order within each scan */
 400:fltk-1.3.4-1/jpeg/jcmaster.c ****       if (ci > 0 && thisi <= scanptr->component_index[ci-1])
 195              		.loc 1 400 7 view .LVU58
 196              		.loc 1 400 10 is_stmt 0 view .LVU59
 197 0156 4885ED   		testq	%rbp, %rbp
 198 0159 7423     		je	.L17
 199              		.loc 1 400 18 discriminator 1 view .LVU60
 200 015b 488B4424 		movq	8(%rsp), %rax
 200      08
 201 0160 44392CA8 		cmpl	%r13d, (%rax,%rbp,4)
 202 0164 7C18     		jl	.L17
 401:fltk-1.3.4-1/jpeg/jcmaster.c **** 	ERREXIT1(cinfo, JERR_BAD_SCAN_SCRIPT, scanno);
 203              		.loc 1 401 2 is_stmt 1 view .LVU61
 204 0166 498B07   		movq	(%r15), %rax
 205 0169 4C89FF   		movq	%r15, %rdi
 206 016c C7402814 		movl	$20, 40(%rax)
 206      000000
 207 0173 498B07   		movq	(%r15), %rax
 208 0176 89582C   		movl	%ebx, 44(%rax)
 209 0179 498B07   		movq	(%r15), %rax
 210 017c FF10     		call	*(%rax)
 211              	.LVL17:
 212              	.L17:
 395:fltk-1.3.4-1/jpeg/jcmaster.c ****       thisi = scanptr->component_index[ci];
 213              		.loc 1 395 31 discriminator 2 view .LVU62
 395:fltk-1.3.4-1/jpeg/jcmaster.c ****       thisi = scanptr->component_index[ci];
 214              		.loc 1 395 18 discriminator 2 view .LVU63
 215 017e 4883C501 		addq	$1, %rbp
 216              	.LVL18:
 395:fltk-1.3.4-1/jpeg/jcmaster.c ****       thisi = scanptr->component_index[ci];
 217              		.loc 1 395 5 is_stmt 0 discriminator 2 view .LVU64
 218 0182 396C2418 		cmpl	%ebp, 24(%rsp)
 219 0186 7FA1     		jg	.L18
 220              	.LVL19:
 221              	.L19:
 402:fltk-1.3.4-1/jpeg/jcmaster.c ****     }
 403:fltk-1.3.4-1/jpeg/jcmaster.c ****     /* Validate progression parameters */
 404:fltk-1.3.4-1/jpeg/jcmaster.c ****     Ss = scanptr->Ss;
 222              		.loc 1 404 5 is_stmt 1 view .LVU65
 223              		.loc 1 404 8 is_stmt 0 view .LVU66
 224 0188 488B4424 		movq	8(%rsp), %rax
 224      08
 405:fltk-1.3.4-1/jpeg/jcmaster.c ****     Se = scanptr->Se;
 406:fltk-1.3.4-1/jpeg/jcmaster.c ****     Ah = scanptr->Ah;
 407:fltk-1.3.4-1/jpeg/jcmaster.c ****     Al = scanptr->Al;
 408:fltk-1.3.4-1/jpeg/jcmaster.c ****     if (cinfo->progressive_mode) {
 225              		.loc 1 408 8 view .LVU67
 226 018d 458BB75C 		movl	348(%r15), %r14d
 226      010000
 227              	.LVL20:
 404:fltk-1.3.4-1/jpeg/jcmaster.c ****     Se = scanptr->Se;
 228              		.loc 1 404 8 view .LVU68
 229 0194 8B7014   		movl	20(%rax), %esi
 406:fltk-1.3.4-1/jpeg/jcmaster.c ****     Al = scanptr->Al;
 230              		.loc 1 406 8 view .LVU69
 231 0197 448B681C 		movl	28(%rax), %r13d
 407:fltk-1.3.4-1/jpeg/jcmaster.c ****     if (cinfo->progressive_mode) {
 232              		.loc 1 407 8 view .LVU70
 233 019b 8B6820   		movl	32(%rax), %ebp
 404:fltk-1.3.4-1/jpeg/jcmaster.c ****     Se = scanptr->Se;
 234              		.loc 1 404 8 view .LVU71
 235 019e 89742420 		movl	%esi, 32(%rsp)
 236              	.LVL21:
 405:fltk-1.3.4-1/jpeg/jcmaster.c ****     Ah = scanptr->Ah;
 237              		.loc 1 405 5 is_stmt 1 view .LVU72
 405:fltk-1.3.4-1/jpeg/jcmaster.c ****     Ah = scanptr->Ah;
 238              		.loc 1 405 8 is_stmt 0 view .LVU73
 239 01a2 8B7018   		movl	24(%rax), %esi
 240              	.LVL22:
 405:fltk-1.3.4-1/jpeg/jcmaster.c ****     Ah = scanptr->Ah;
 241              		.loc 1 405 8 view .LVU74
 242 01a5 8974241C 		movl	%esi, 28(%rsp)
 243              	.LVL23:
 406:fltk-1.3.4-1/jpeg/jcmaster.c ****     Al = scanptr->Al;
 244              		.loc 1 406 5 is_stmt 1 view .LVU75
 407:fltk-1.3.4-1/jpeg/jcmaster.c ****     if (cinfo->progressive_mode) {
 245              		.loc 1 407 5 view .LVU76
 246              		.loc 1 408 5 view .LVU77
 247              		.loc 1 408 8 is_stmt 0 view .LVU78
 248 01a9 4585F6   		testl	%r14d, %r14d
 249 01ac 0F84ED01 		je	.L88
 249      0000
 409:fltk-1.3.4-1/jpeg/jcmaster.c **** #ifdef C_PROGRESSIVE_SUPPORTED
 410:fltk-1.3.4-1/jpeg/jcmaster.c ****       /* The JPEG spec simply gives the ranges 0..13 for Ah and Al, but that
 411:fltk-1.3.4-1/jpeg/jcmaster.c ****        * seems wrong: the upper bound ought to depend on data precision.
 412:fltk-1.3.4-1/jpeg/jcmaster.c ****        * Perhaps they really meant 0..N+1 for N-bit precision.
 413:fltk-1.3.4-1/jpeg/jcmaster.c ****        * Here we allow 0..10 for 8-bit data; Al larger than 10 results in
 414:fltk-1.3.4-1/jpeg/jcmaster.c ****        * out-of-range reconstructed DC values during the first DC scan,
 415:fltk-1.3.4-1/jpeg/jcmaster.c ****        * which might cause problems for some decoders.
 416:fltk-1.3.4-1/jpeg/jcmaster.c ****        */
 417:fltk-1.3.4-1/jpeg/jcmaster.c **** #if BITS_IN_JSAMPLE == 8
 418:fltk-1.3.4-1/jpeg/jcmaster.c **** #define MAX_AH_AL 10
 419:fltk-1.3.4-1/jpeg/jcmaster.c **** #else
 420:fltk-1.3.4-1/jpeg/jcmaster.c **** #define MAX_AH_AL 13
 421:fltk-1.3.4-1/jpeg/jcmaster.c **** #endif
 422:fltk-1.3.4-1/jpeg/jcmaster.c ****       if (Ss < 0 || Ss >= DCTSIZE2 || Se < Ss || Se >= DCTSIZE2 ||
 250              		.loc 1 422 7 is_stmt 1 view .LVU79
 251              		.loc 1 422 10 is_stmt 0 view .LVU80
 252 01b2 8B442420 		movl	32(%rsp), %eax
 253              	.LVL24:
 254              		.loc 1 422 10 view .LVU81
 255 01b6 83F83F   		cmpl	$63, %eax
 256 01b9 7718     		ja	.L20
 257 01bb 8B4C241C 		movl	28(%rsp), %ecx
 258 01bf 39C8     		cmpl	%ecx, %eax
 259 01c1 7F10     		jg	.L20
 260              		.loc 1 422 65 discriminator 1 view .LVU82
 261 01c3 83F93F   		cmpl	$63, %ecx
 262 01c6 7F0B     		jg	.L20
 423:fltk-1.3.4-1/jpeg/jcmaster.c **** 	  Ah < 0 || Ah > MAX_AH_AL || Al < 0 || Al > MAX_AH_AL)
 263              		.loc 1 423 39 view .LVU83
 264 01c8 83FD0A   		cmpl	$10, %ebp
 265 01cb 7706     		ja	.L20
 266 01cd 4183FD0A 		cmpl	$10, %r13d
 267 01d1 7618     		jbe	.L21
 268              	.L20:
 424:fltk-1.3.4-1/jpeg/jcmaster.c **** 	ERREXIT1(cinfo, JERR_BAD_PROG_SCRIPT, scanno);
 269              		.loc 1 424 2 is_stmt 1 view .LVU84
 270 01d3 498B07   		movq	(%r15), %rax
 271              	.LVL25:
 272              		.loc 1 424 2 is_stmt 0 view .LVU85
 273 01d6 4C89FF   		movq	%r15, %rdi
 274 01d9 C7402812 		movl	$18, 40(%rax)
 274      000000
 275              	.LVL26:
 276              		.loc 1 424 2 view .LVU86
 277 01e0 498B07   		movq	(%r15), %rax
 278 01e3 89582C   		movl	%ebx, 44(%rax)
 279 01e6 498B07   		movq	(%r15), %rax
 280 01e9 FF10     		call	*(%rax)
 281              	.LVL27:
 282              	.L21:
 425:fltk-1.3.4-1/jpeg/jcmaster.c ****       if (Ss == 0) {
 283              		.loc 1 425 7 is_stmt 1 view .LVU87
 284              		.loc 1 425 10 is_stmt 0 view .LVU88
 285 01eb 448B5C24 		movl	32(%rsp), %r11d
 285      20
 286 01f0 4585DB   		testl	%r11d, %r11d
 287 01f3 0F852502 		jne	.L23
 287      0000
 426:fltk-1.3.4-1/jpeg/jcmaster.c **** 	if (Se != 0)		/* DC and AC together not OK */
 288              		.loc 1 426 2 is_stmt 1 view .LVU89
 289              		.loc 1 426 5 is_stmt 0 view .LVU90
 290 01f9 448B5424 		movl	28(%rsp), %r10d
 290      1C
 291 01fe 4585D2   		testl	%r10d, %r10d
 292 0201 7418     		je	.L24
 293              	.L25:
 427:fltk-1.3.4-1/jpeg/jcmaster.c **** 	  ERREXIT1(cinfo, JERR_BAD_PROG_SCRIPT, scanno);
 428:fltk-1.3.4-1/jpeg/jcmaster.c ****       } else {
 429:fltk-1.3.4-1/jpeg/jcmaster.c **** 	if (ncomps != 1)	/* AC scans must be for only one component */
 430:fltk-1.3.4-1/jpeg/jcmaster.c **** 	  ERREXIT1(cinfo, JERR_BAD_PROG_SCRIPT, scanno);
 294              		.loc 1 430 4 is_stmt 1 view .LVU91
 295 0203 498B07   		movq	(%r15), %rax
 296 0206 4C89FF   		movq	%r15, %rdi
 297 0209 C7402812 		movl	$18, 40(%rax)
 297      000000
 298              	.LVL28:
 299              		.loc 1 430 4 is_stmt 0 view .LVU92
 300 0210 498B07   		movq	(%r15), %rax
 301 0213 89582C   		movl	%ebx, 44(%rax)
 302 0216 498B07   		movq	(%r15), %rax
 303 0219 FF10     		call	*(%rax)
 304              	.LVL29:
 305              	.L24:
 431:fltk-1.3.4-1/jpeg/jcmaster.c ****       }
 432:fltk-1.3.4-1/jpeg/jcmaster.c ****       for (ci = 0; ci < ncomps; ci++) {
 306              		.loc 1 432 20 is_stmt 1 discriminator 1 view .LVU93
 307              		.loc 1 432 7 is_stmt 0 discriminator 1 view .LVU94
 308 021b 448B4C24 		movl	24(%rsp), %r9d
 308      18
 309 0220 4585C9   		testl	%r9d, %r9d
 310 0223 0F8EE400 		jle	.L32
 310      0000
 311              	.LVL30:
 312              	.L27:
 356:fltk-1.3.4-1/jpeg/jcmaster.c ****   const jpeg_scan_info * scanptr;
 313              		.loc 1 356 1 view .LVU95
 314 0229 48C74424 		movq	$0, 16(%rsp)
 314      10000000 
 314      00
 433:fltk-1.3.4-1/jpeg/jcmaster.c **** 	last_bitpos_ptr = & last_bitpos[scanptr->component_index[ci]][0];
 434:fltk-1.3.4-1/jpeg/jcmaster.c **** 	if (Ss != 0 && last_bitpos_ptr[0] < 0) /* AC without prior DC scan */
 435:fltk-1.3.4-1/jpeg/jcmaster.c **** 	  ERREXIT1(cinfo, JERR_BAD_PROG_SCRIPT, scanno);
 436:fltk-1.3.4-1/jpeg/jcmaster.c **** 	for (coefi = Ss; coefi <= Se; coefi++) {
 437:fltk-1.3.4-1/jpeg/jcmaster.c **** 	  if (last_bitpos_ptr[coefi] < 0) {
 438:fltk-1.3.4-1/jpeg/jcmaster.c **** 	    /* first scan of this coefficient */
 439:fltk-1.3.4-1/jpeg/jcmaster.c **** 	    if (Ah != 0)
 440:fltk-1.3.4-1/jpeg/jcmaster.c **** 	      ERREXIT1(cinfo, JERR_BAD_PROG_SCRIPT, scanno);
 441:fltk-1.3.4-1/jpeg/jcmaster.c **** 	  } else {
 442:fltk-1.3.4-1/jpeg/jcmaster.c **** 	    /* not first scan */
 443:fltk-1.3.4-1/jpeg/jcmaster.c **** 	    if (Ah != last_bitpos_ptr[coefi] || Al != Ah-1)
 315              		.loc 1 443 50 view .LVU96
 316 0232 418D45FF 		leal	-1(%r13), %eax
 317 0236 89442424 		movl	%eax, 36(%rsp)
 318              	.L26:
 319              	.LVL31:
 433:fltk-1.3.4-1/jpeg/jcmaster.c **** 	last_bitpos_ptr = & last_bitpos[scanptr->component_index[ci]][0];
 320              		.loc 1 433 2 is_stmt 1 view .LVU97
 433:fltk-1.3.4-1/jpeg/jcmaster.c **** 	last_bitpos_ptr = & last_bitpos[scanptr->component_index[ci]][0];
 321              		.loc 1 433 18 is_stmt 0 view .LVU98
 322 023a 488B7424 		movq	16(%rsp), %rsi
 322      10
 323 023f 488B4424 		movq	8(%rsp), %rax
 323      08
 324 0244 31D2     		xorl	%edx, %edx
 434:fltk-1.3.4-1/jpeg/jcmaster.c **** 	  ERREXIT1(cinfo, JERR_BAD_PROG_SCRIPT, scanno);
 325              		.loc 1 434 5 view .LVU99
 326 0246 448B7424 		movl	32(%rsp), %r14d
 326      20
 433:fltk-1.3.4-1/jpeg/jcmaster.c **** 	last_bitpos_ptr = & last_bitpos[scanptr->component_index[ci]][0];
 327              		.loc 1 433 18 view .LVU100
 328 024b 486344B0 		movslq	4(%rax,%rsi,4), %rax
 328      04
 329 0250 488B7424 		movq	40(%rsp), %rsi
 329      28
 330 0255 48C1E008 		salq	$8, %rax
 331 0259 4C8D2406 		leaq	(%rsi,%rax), %r12
 332              	.LVL32:
 434:fltk-1.3.4-1/jpeg/jcmaster.c **** 	  ERREXIT1(cinfo, JERR_BAD_PROG_SCRIPT, scanno);
 333              		.loc 1 434 2 is_stmt 1 view .LVU101
 434:fltk-1.3.4-1/jpeg/jcmaster.c **** 	  ERREXIT1(cinfo, JERR_BAD_PROG_SCRIPT, scanno);
 334              		.loc 1 434 5 is_stmt 0 view .LVU102
 335 025d 4585F6   		testl	%r14d, %r14d
 336 0260 7428     		je	.L30
 434:fltk-1.3.4-1/jpeg/jcmaster.c **** 	  ERREXIT1(cinfo, JERR_BAD_PROG_SCRIPT, scanno);
 337              		.loc 1 434 14 discriminator 1 view .LVU103
 338 0262 448B4404 		movl	96(%rsp,%rax), %r8d
 338      60
 339 0267 4489F2   		movl	%r14d, %edx
 340 026a 4585C0   		testl	%r8d, %r8d
 341 026d 791B     		jns	.L30
 435:fltk-1.3.4-1/jpeg/jcmaster.c **** 	for (coefi = Ss; coefi <= Se; coefi++) {
 342              		.loc 1 435 4 is_stmt 1 view .LVU104
 343 026f 498B07   		movq	(%r15), %rax
 344 0272 4C89FF   		movq	%r15, %rdi
 345 0275 C7402812 		movl	$18, 40(%rax)
 345      000000
 346 027c 498B07   		movq	(%r15), %rax
 347 027f 89582C   		movl	%ebx, 44(%rax)
 348 0282 498B07   		movq	(%r15), %rax
 349 0285 FF10     		call	*(%rax)
 350              	.LVL33:
 351 0287 4489F2   		movl	%r14d, %edx
 352              	.L30:
 353              	.LVL34:
 436:fltk-1.3.4-1/jpeg/jcmaster.c **** 	  if (last_bitpos_ptr[coefi] < 0) {
 354              		.loc 1 436 19 discriminator 1 view .LVU105
 436:fltk-1.3.4-1/jpeg/jcmaster.c **** 	  if (last_bitpos_ptr[coefi] < 0) {
 355              		.loc 1 436 2 is_stmt 0 discriminator 1 view .LVU106
 356 028a 3B54241C 		cmpl	28(%rsp), %edx
 357 028e 7F68     		jg	.L37
 358 0290 8B44241C 		movl	28(%rsp), %eax
 359 0294 4863CA   		movslq	%edx, %rcx
 360 0297 4D8D348C 		leaq	(%r12,%rcx,4), %r14
 361 029b 29D0     		subl	%edx, %eax
 362 029d 4889C2   		movq	%rax, %rdx
 363              	.LVL35:
 436:fltk-1.3.4-1/jpeg/jcmaster.c **** 	  if (last_bitpos_ptr[coefi] < 0) {
 364              		.loc 1 436 2 discriminator 1 view .LVU107
 365 02a0 4801CA   		addq	%rcx, %rdx
 366 02a3 4D8D6494 		leaq	4(%r12,%rdx,4), %r12
 366      04
 367              	.LVL36:
 436:fltk-1.3.4-1/jpeg/jcmaster.c **** 	  if (last_bitpos_ptr[coefi] < 0) {
 368              		.loc 1 436 2 discriminator 1 view .LVU108
 369 02a8 EB33     		jmp	.L36
 370              	.LVL37:
 371 02aa 660F1F44 		.p2align 4,,10
 371      0000
 372              		.p2align 3
 373              	.L33:
 374              		.loc 1 443 6 is_stmt 1 view .LVU109
 375              		.loc 1 443 9 is_stmt 0 view .LVU110
 376 02b0 4439EA   		cmpl	%r13d, %edx
 377 02b3 0F84D700 		je	.L89
 377      0000
 378              	.L35:
 444:fltk-1.3.4-1/jpeg/jcmaster.c **** 	      ERREXIT1(cinfo, JERR_BAD_PROG_SCRIPT, scanno);
 379              		.loc 1 444 8 is_stmt 1 view .LVU111
 380 02b9 498B17   		movq	(%r15), %rdx
 381 02bc 4C89FF   		movq	%r15, %rdi
 382 02bf C7422812 		movl	$18, 40(%rdx)
 382      000000
 383 02c6 498B17   		movq	(%r15), %rdx
 384 02c9 895A2C   		movl	%ebx, 44(%rdx)
 385 02cc 498B17   		movq	(%r15), %rdx
 386 02cf FF12     		call	*(%rdx)
 387              	.LVL38:
 388              	.L34:
 445:fltk-1.3.4-1/jpeg/jcmaster.c **** 	  }
 446:fltk-1.3.4-1/jpeg/jcmaster.c **** 	  last_bitpos_ptr[coefi] = Al;
 389              		.loc 1 446 4 discriminator 2 view .LVU112
 390              		.loc 1 446 27 is_stmt 0 discriminator 2 view .LVU113
 391 02d1 41892E   		movl	%ebp, (%r14)
 436:fltk-1.3.4-1/jpeg/jcmaster.c **** 	  if (last_bitpos_ptr[coefi] < 0) {
 392              		.loc 1 436 32 is_stmt 1 discriminator 2 view .LVU114
 436:fltk-1.3.4-1/jpeg/jcmaster.c **** 	  if (last_bitpos_ptr[coefi] < 0) {
 393              		.loc 1 436 19 discriminator 2 view .LVU115
 394 02d4 4983C604 		addq	$4, %r14
 436:fltk-1.3.4-1/jpeg/jcmaster.c **** 	  if (last_bitpos_ptr[coefi] < 0) {
 395              		.loc 1 436 2 is_stmt 0 discriminator 2 view .LVU116
 396 02d8 4D39F4   		cmpq	%r14, %r12
 397 02db 741B     		je	.L37
 398              	.L36:
 437:fltk-1.3.4-1/jpeg/jcmaster.c **** 	    /* first scan of this coefficient */
 399              		.loc 1 437 4 is_stmt 1 view .LVU117
 437:fltk-1.3.4-1/jpeg/jcmaster.c **** 	    /* first scan of this coefficient */
 400              		.loc 1 437 23 is_stmt 0 view .LVU118
 401 02dd 418B16   		movl	(%r14), %edx
 437:fltk-1.3.4-1/jpeg/jcmaster.c **** 	    /* first scan of this coefficient */
 402              		.loc 1 437 7 view .LVU119
 403 02e0 85D2     		testl	%edx, %edx
 404 02e2 79CC     		jns	.L33
 439:fltk-1.3.4-1/jpeg/jcmaster.c **** 	      ERREXIT1(cinfo, JERR_BAD_PROG_SCRIPT, scanno);
 405              		.loc 1 439 6 is_stmt 1 view .LVU120
 439:fltk-1.3.4-1/jpeg/jcmaster.c **** 	      ERREXIT1(cinfo, JERR_BAD_PROG_SCRIPT, scanno);
 406              		.loc 1 439 9 is_stmt 0 view .LVU121
 407 02e4 4585ED   		testl	%r13d, %r13d
 408 02e7 75D0     		jne	.L35
 409              		.loc 1 446 4 is_stmt 1 view .LVU122
 410              		.loc 1 446 27 is_stmt 0 view .LVU123
 411 02e9 41892E   		movl	%ebp, (%r14)
 436:fltk-1.3.4-1/jpeg/jcmaster.c **** 	  if (last_bitpos_ptr[coefi] < 0) {
 412              		.loc 1 436 32 is_stmt 1 view .LVU124
 436:fltk-1.3.4-1/jpeg/jcmaster.c **** 	  if (last_bitpos_ptr[coefi] < 0) {
 413              		.loc 1 436 19 view .LVU125
 414 02ec 4983C604 		addq	$4, %r14
 436:fltk-1.3.4-1/jpeg/jcmaster.c **** 	  if (last_bitpos_ptr[coefi] < 0) {
 415              		.loc 1 436 2 is_stmt 0 view .LVU126
 416 02f0 4D39F4   		cmpq	%r14, %r12
 417 02f3 75E8     		jne	.L36
 418              		.p2align 4,,10
 419 02f5 0F1F00   		.p2align 3
 420              	.L37:
 432:fltk-1.3.4-1/jpeg/jcmaster.c **** 	last_bitpos_ptr = & last_bitpos[scanptr->component_index[ci]][0];
 421              		.loc 1 432 33 is_stmt 1 view .LVU127
 422              	.LVL39:
 432:fltk-1.3.4-1/jpeg/jcmaster.c **** 	last_bitpos_ptr = & last_bitpos[scanptr->component_index[ci]][0];
 423              		.loc 1 432 20 view .LVU128
 424 02f8 48834424 		addq	$1, 16(%rsp)
 424      1001
 425              	.LVL40:
 432:fltk-1.3.4-1/jpeg/jcmaster.c **** 	last_bitpos_ptr = & last_bitpos[scanptr->component_index[ci]][0];
 426              		.loc 1 432 20 is_stmt 0 view .LVU129
 427 02fe 488B4424 		movq	16(%rsp), %rax
 427      10
 432:fltk-1.3.4-1/jpeg/jcmaster.c **** 	last_bitpos_ptr = & last_bitpos[scanptr->component_index[ci]][0];
 428              		.loc 1 432 7 view .LVU130
 429 0303 39442418 		cmpl	%eax, 24(%rsp)
 430 0307 0F8F2DFF 		jg	.L26
 430      FFFF
 431              	.LVL41:
 432              	.L32:
 390:fltk-1.3.4-1/jpeg/jcmaster.c ****     /* Validate component indexes */
 433              		.loc 1 390 48 is_stmt 1 view .LVU131
 390:fltk-1.3.4-1/jpeg/jcmaster.c ****     /* Validate component indexes */
 434              		.loc 1 390 55 is_stmt 0 view .LVU132
 435 030d 48834424 		addq	$36, 8(%rsp)
 435      0824
 436              	.LVL42:
 390:fltk-1.3.4-1/jpeg/jcmaster.c ****     /* Validate component indexes */
 437              		.loc 1 390 65 view .LVU133
 438 0313 83C301   		addl	$1, %ebx
 439              	.LVL43:
 390:fltk-1.3.4-1/jpeg/jcmaster.c ****     /* Validate component indexes */
 440              		.loc 1 390 20 is_stmt 1 view .LVU134
 390:fltk-1.3.4-1/jpeg/jcmaster.c ****     /* Validate component indexes */
 441              		.loc 1 390 3 is_stmt 0 view .LVU135
 442 0316 41399F10 		cmpl	%ebx, 272(%r15)
 442      010000
 443 031d 0F8DC5FD 		jge	.L28
 443      FFFF
 447:fltk-1.3.4-1/jpeg/jcmaster.c **** 	}
 448:fltk-1.3.4-1/jpeg/jcmaster.c ****       }
 449:fltk-1.3.4-1/jpeg/jcmaster.c **** #endif
 450:fltk-1.3.4-1/jpeg/jcmaster.c ****     } else {
 451:fltk-1.3.4-1/jpeg/jcmaster.c ****       /* For sequential JPEG, all progression parameters must be these: */
 452:fltk-1.3.4-1/jpeg/jcmaster.c ****       if (Ss != 0 || Se != DCTSIZE2-1 || Ah != 0 || Al != 0)
 453:fltk-1.3.4-1/jpeg/jcmaster.c **** 	ERREXIT1(cinfo, JERR_BAD_PROG_SCRIPT, scanno);
 454:fltk-1.3.4-1/jpeg/jcmaster.c ****       /* Make sure components are not sent twice */
 455:fltk-1.3.4-1/jpeg/jcmaster.c ****       for (ci = 0; ci < ncomps; ci++) {
 456:fltk-1.3.4-1/jpeg/jcmaster.c **** 	thisi = scanptr->component_index[ci];
 457:fltk-1.3.4-1/jpeg/jcmaster.c **** 	if (component_sent[thisi])
 458:fltk-1.3.4-1/jpeg/jcmaster.c **** 	  ERREXIT1(cinfo, JERR_BAD_SCAN_SCRIPT, scanno);
 459:fltk-1.3.4-1/jpeg/jcmaster.c **** 	component_sent[thisi] = TRUE;
 460:fltk-1.3.4-1/jpeg/jcmaster.c ****       }
 461:fltk-1.3.4-1/jpeg/jcmaster.c ****     }
 462:fltk-1.3.4-1/jpeg/jcmaster.c ****   }
 463:fltk-1.3.4-1/jpeg/jcmaster.c **** 
 464:fltk-1.3.4-1/jpeg/jcmaster.c ****   /* Now verify that everything got sent. */
 465:fltk-1.3.4-1/jpeg/jcmaster.c ****   if (cinfo->progressive_mode) {
 444              		.loc 1 465 3 is_stmt 1 view .LVU136
 445              		.loc 1 465 6 is_stmt 0 view .LVU137
 446 0323 418B8F5C 		movl	348(%r15), %ecx
 446      010000
 447 032a 418B475C 		movl	92(%r15), %eax
 448 032e 85C9     		testl	%ecx, %ecx
 449 0330 0F85F800 		jne	.L42
 449      0000
 450              	.LVL44:
 466:fltk-1.3.4-1/jpeg/jcmaster.c **** #ifdef C_PROGRESSIVE_SUPPORTED
 467:fltk-1.3.4-1/jpeg/jcmaster.c ****     /* For progressive mode, we only check that at least some DC data
 468:fltk-1.3.4-1/jpeg/jcmaster.c ****      * got sent for each component; the spec does not require that all bits
 469:fltk-1.3.4-1/jpeg/jcmaster.c ****      * of all coefficients be transmitted.  Would it be wiser to enforce
 470:fltk-1.3.4-1/jpeg/jcmaster.c ****      * transmission of all coefficient bits??
 471:fltk-1.3.4-1/jpeg/jcmaster.c ****      */
 472:fltk-1.3.4-1/jpeg/jcmaster.c ****     for (ci = 0; ci < cinfo->num_components; ci++) {
 473:fltk-1.3.4-1/jpeg/jcmaster.c ****       if (last_bitpos[ci][0] < 0)
 474:fltk-1.3.4-1/jpeg/jcmaster.c **** 	ERREXIT(cinfo, JERR_MISSING_DATA);
 475:fltk-1.3.4-1/jpeg/jcmaster.c ****     }
 476:fltk-1.3.4-1/jpeg/jcmaster.c **** #endif
 477:fltk-1.3.4-1/jpeg/jcmaster.c ****   } else {
 478:fltk-1.3.4-1/jpeg/jcmaster.c ****     for (ci = 0; ci < cinfo->num_components; ci++) {
 451              		.loc 1 478 18 is_stmt 1 view .LVU138
 452 0336 488D6C24 		leaq	48(%rsp), %rbp
 452      30
 453              		.loc 1 478 5 is_stmt 0 view .LVU139
 454 033b 85C0     		testl	%eax, %eax
 455 033d 7E26     		jle	.L1
 456              	.LVL45:
 457              	.L43:
 458              		.loc 1 478 5 view .LVU140
 459 033f 31DB     		xorl	%ebx, %ebx
 460              	.L48:
 461              	.LVL46:
 479:fltk-1.3.4-1/jpeg/jcmaster.c ****       if (! component_sent[ci])
 462              		.loc 1 479 7 is_stmt 1 view .LVU141
 463              		.loc 1 479 10 is_stmt 0 view .LVU142
 464 0341 8B449D00 		movl	0(%rbp,%rbx,4), %eax
 465 0345 85C0     		testl	%eax, %eax
 466 0347 7512     		jne	.L47
 480:fltk-1.3.4-1/jpeg/jcmaster.c **** 	ERREXIT(cinfo, JERR_MISSING_DATA);
 467              		.loc 1 480 2 is_stmt 1 view .LVU143
 468 0349 498B07   		movq	(%r15), %rax
 469 034c 4C89FF   		movq	%r15, %rdi
 470 034f C740282E 		movl	$46, 40(%rax)
 470      000000
 471 0356 498B07   		movq	(%r15), %rax
 472 0359 FF10     		call	*(%rax)
 473              	.LVL47:
 474              	.L47:
 478:fltk-1.3.4-1/jpeg/jcmaster.c ****       if (! component_sent[ci])
 475              		.loc 1 478 46 discriminator 2 view .LVU144
 478:fltk-1.3.4-1/jpeg/jcmaster.c ****       if (! component_sent[ci])
 476              		.loc 1 478 18 discriminator 2 view .LVU145
 477 035b 4883C301 		addq	$1, %rbx
 478              	.LVL48:
 478:fltk-1.3.4-1/jpeg/jcmaster.c ****       if (! component_sent[ci])
 479              		.loc 1 478 5 is_stmt 0 discriminator 2 view .LVU146
 480 035f 41395F5C 		cmpl	%ebx, 92(%r15)
 481 0363 7FDC     		jg	.L48
 482              	.L1:
 481:fltk-1.3.4-1/jpeg/jcmaster.c ****     }
 482:fltk-1.3.4-1/jpeg/jcmaster.c ****   }
 483:fltk-1.3.4-1/jpeg/jcmaster.c **** }
 483              		.loc 1 483 1 view .LVU147
 484 0365 488B8424 		movq	2664(%rsp), %rax
 484      680A0000 
 485 036d 64483304 		xorq	%fs:40, %rax
 485      25280000 
 485      00
 486 0376 0F853901 		jne	.L90
 486      0000
 487 037c 4881C478 		addq	$2680, %rsp
 487      0A0000
 488              		.cfi_remember_state
 489              		.cfi_def_cfa_offset 56
 490 0383 5B       		popq	%rbx
 491              		.cfi_def_cfa_offset 48
 492 0384 5D       		popq	%rbp
 493              		.cfi_def_cfa_offset 40
 494 0385 415C     		popq	%r12
 495              		.cfi_def_cfa_offset 32
 496 0387 415D     		popq	%r13
 497              		.cfi_def_cfa_offset 24
 498 0389 415E     		popq	%r14
 499              		.cfi_def_cfa_offset 16
 500 038b 415F     		popq	%r15
 501              		.cfi_def_cfa_offset 8
 502              	.LVL49:
 503              		.loc 1 483 1 view .LVU148
 504 038d C3       		ret
 505              	.LVL50:
 506 038e 6690     		.p2align 4,,10
 507              		.p2align 3
 508              	.L89:
 509              		.cfi_restore_state
 443:fltk-1.3.4-1/jpeg/jcmaster.c **** 	      ERREXIT1(cinfo, JERR_BAD_PROG_SCRIPT, scanno);
 510              		.loc 1 443 39 discriminator 1 view .LVU149
 511 0390 396C2424 		cmpl	%ebp, 36(%rsp)
 512 0394 0F851FFF 		jne	.L35
 512      FFFF
 513 039a E932FFFF 		jmp	.L34
 513      FF
 514              	.LVL51:
 515              	.L88:
 452:fltk-1.3.4-1/jpeg/jcmaster.c **** 	ERREXIT1(cinfo, JERR_BAD_PROG_SCRIPT, scanno);
 516              		.loc 1 452 7 is_stmt 1 view .LVU150
 452:fltk-1.3.4-1/jpeg/jcmaster.c **** 	ERREXIT1(cinfo, JERR_BAD_PROG_SCRIPT, scanno);
 517              		.loc 1 452 10 is_stmt 0 view .LVU151
 518 039f 837C241C 		cmpl	$63, 28(%rsp)
 518      3F
 519 03a4 750A     		jne	.L38
 452:fltk-1.3.4-1/jpeg/jcmaster.c **** 	ERREXIT1(cinfo, JERR_BAD_PROG_SCRIPT, scanno);
 520              		.loc 1 452 50 discriminator 1 view .LVU152
 521 03a6 440B6C24 		orl	32(%rsp), %r13d
 521      20
 522              	.LVL52:
 452:fltk-1.3.4-1/jpeg/jcmaster.c **** 	ERREXIT1(cinfo, JERR_BAD_PROG_SCRIPT, scanno);
 523              		.loc 1 452 50 discriminator 1 view .LVU153
 524 03ab 4109ED   		orl	%ebp, %r13d
 525 03ae 7418     		je	.L39
 526              	.L38:
 453:fltk-1.3.4-1/jpeg/jcmaster.c ****       /* Make sure components are not sent twice */
 527              		.loc 1 453 2 is_stmt 1 view .LVU154
 528 03b0 498B07   		movq	(%r15), %rax
 529              	.LVL53:
 453:fltk-1.3.4-1/jpeg/jcmaster.c ****       /* Make sure components are not sent twice */
 530              		.loc 1 453 2 is_stmt 0 view .LVU155
 531 03b3 4C89FF   		movq	%r15, %rdi
 532 03b6 C7402812 		movl	$18, 40(%rax)
 532      000000
 533              	.LVL54:
 453:fltk-1.3.4-1/jpeg/jcmaster.c ****       /* Make sure components are not sent twice */
 534              		.loc 1 453 2 view .LVU156
 535 03bd 498B07   		movq	(%r15), %rax
 536 03c0 89582C   		movl	%ebx, 44(%rax)
 537 03c3 498B07   		movq	(%r15), %rax
 538 03c6 FF10     		call	*(%rax)
 539              	.LVL55:
 540              	.L39:
 455:fltk-1.3.4-1/jpeg/jcmaster.c **** 	thisi = scanptr->component_index[ci];
 541              		.loc 1 455 20 is_stmt 1 discriminator 1 view .LVU157
 455:fltk-1.3.4-1/jpeg/jcmaster.c **** 	thisi = scanptr->component_index[ci];
 542              		.loc 1 455 7 is_stmt 0 discriminator 1 view .LVU158
 543 03c8 8B7C2418 		movl	24(%rsp), %edi
 544 03cc 85FF     		testl	%edi, %edi
 545 03ce 0F8E39FF 		jle	.L32
 545      FFFF
 546 03d4 488B4424 		movq	8(%rsp), %rax
 546      08
 547 03d9 488D6804 		leaq	4(%rax), %rbp
 548              	.LVL56:
 455:fltk-1.3.4-1/jpeg/jcmaster.c **** 	thisi = scanptr->component_index[ci];
 549              		.loc 1 455 7 discriminator 1 view .LVU159
 550 03dd 4E8D6CA0 		leaq	8(%rax,%r12,4), %r13
 550      08
 551              	.LVL57:
 552              	.L41:
 456:fltk-1.3.4-1/jpeg/jcmaster.c **** 	if (component_sent[thisi])
 553              		.loc 1 456 2 is_stmt 1 view .LVU160
 457:fltk-1.3.4-1/jpeg/jcmaster.c **** 	  ERREXIT1(cinfo, JERR_BAD_SCAN_SCRIPT, scanno);
 554              		.loc 1 457 2 view .LVU161
 457:fltk-1.3.4-1/jpeg/jcmaster.c **** 	  ERREXIT1(cinfo, JERR_BAD_SCAN_SCRIPT, scanno);
 555              		.loc 1 457 20 is_stmt 0 view .LVU162
 556 03e2 4C636500 		movslq	0(%rbp), %r12
 457:fltk-1.3.4-1/jpeg/jcmaster.c **** 	  ERREXIT1(cinfo, JERR_BAD_SCAN_SCRIPT, scanno);
 557              		.loc 1 457 5 view .LVU163
 558 03e6 428B74A4 		movl	48(%rsp,%r12,4), %esi
 558      30
 559 03eb 85F6     		testl	%esi, %esi
 560 03ed 7418     		je	.L40
 458:fltk-1.3.4-1/jpeg/jcmaster.c **** 	component_sent[thisi] = TRUE;
 561              		.loc 1 458 4 is_stmt 1 view .LVU164
 562 03ef 498B07   		movq	(%r15), %rax
 563 03f2 4C89FF   		movq	%r15, %rdi
 564 03f5 C7402814 		movl	$20, 40(%rax)
 564      000000
 565              	.LVL58:
 458:fltk-1.3.4-1/jpeg/jcmaster.c **** 	component_sent[thisi] = TRUE;
 566              		.loc 1 458 4 is_stmt 0 view .LVU165
 567 03fc 498B07   		movq	(%r15), %rax
 568 03ff 89582C   		movl	%ebx, 44(%rax)
 569 0402 498B07   		movq	(%r15), %rax
 570 0405 FF10     		call	*(%rax)
 571              	.LVL59:
 572              	.L40:
 459:fltk-1.3.4-1/jpeg/jcmaster.c ****       }
 573              		.loc 1 459 2 is_stmt 1 discriminator 2 view .LVU166
 459:fltk-1.3.4-1/jpeg/jcmaster.c ****       }
 574              		.loc 1 459 24 is_stmt 0 discriminator 2 view .LVU167
 575 0407 42C744A4 		movl	$1, 48(%rsp,%r12,4)
 575      30010000 
 575      00
 455:fltk-1.3.4-1/jpeg/jcmaster.c **** 	thisi = scanptr->component_index[ci];
 576              		.loc 1 455 33 is_stmt 1 discriminator 2 view .LVU168
 455:fltk-1.3.4-1/jpeg/jcmaster.c **** 	thisi = scanptr->component_index[ci];
 577              		.loc 1 455 20 discriminator 2 view .LVU169
 578 0410 4883C504 		addq	$4, %rbp
 455:fltk-1.3.4-1/jpeg/jcmaster.c **** 	thisi = scanptr->component_index[ci];
 579              		.loc 1 455 7 is_stmt 0 discriminator 2 view .LVU170
 580 0414 4C39ED   		cmpq	%r13, %rbp
 581 0417 75C9     		jne	.L41
 582 0419 E9EFFEFF 		jmp	.L32
 582      FF
 583              	.LVL60:
 584              	.L23:
 429:fltk-1.3.4-1/jpeg/jcmaster.c **** 	  ERREXIT1(cinfo, JERR_BAD_PROG_SCRIPT, scanno);
 585              		.loc 1 429 2 is_stmt 1 view .LVU171
 429:fltk-1.3.4-1/jpeg/jcmaster.c **** 	  ERREXIT1(cinfo, JERR_BAD_PROG_SCRIPT, scanno);
 586              		.loc 1 429 5 is_stmt 0 view .LVU172
 587 041e 837C2418 		cmpl	$1, 24(%rsp)
 587      01
 588 0423 0F85DAFD 		jne	.L25
 588      FFFF
 589 0429 E9FBFDFF 		jmp	.L27
 589      FF
 590              	.LVL61:
 591              	.L42:
 472:fltk-1.3.4-1/jpeg/jcmaster.c ****       if (last_bitpos[ci][0] < 0)
 592              		.loc 1 472 18 is_stmt 1 view .LVU173
 472:fltk-1.3.4-1/jpeg/jcmaster.c ****       if (last_bitpos[ci][0] < 0)
 593              		.loc 1 472 5 is_stmt 0 view .LVU174
 594 042e 85C0     		testl	%eax, %eax
 595 0430 0F8E2FFF 		jle	.L1
 595      FFFF
 596              	.LVL62:
 597              	.L50:
 472:fltk-1.3.4-1/jpeg/jcmaster.c ****       if (last_bitpos[ci][0] < 0)
 598              		.loc 1 472 5 view .LVU175
 599 0436 31DB     		xorl	%ebx, %ebx
 600 0438 488D6C24 		leaq	96(%rsp), %rbp
 600      60
 601              	.L46:
 602              	.LVL63:
 473:fltk-1.3.4-1/jpeg/jcmaster.c **** 	ERREXIT(cinfo, JERR_MISSING_DATA);
 603              		.loc 1 473 7 is_stmt 1 view .LVU176
 473:fltk-1.3.4-1/jpeg/jcmaster.c **** 	ERREXIT(cinfo, JERR_MISSING_DATA);
 604              		.loc 1 473 26 is_stmt 0 view .LVU177
 605 043d 4889D8   		movq	%rbx, %rax
 606 0440 48C1E008 		salq	$8, %rax
 473:fltk-1.3.4-1/jpeg/jcmaster.c **** 	ERREXIT(cinfo, JERR_MISSING_DATA);
 607              		.loc 1 473 10 view .LVU178
 608 0444 8B540500 		movl	0(%rbp,%rax), %edx
 609 0448 85D2     		testl	%edx, %edx
 610 044a 7912     		jns	.L45
 474:fltk-1.3.4-1/jpeg/jcmaster.c ****     }
 611              		.loc 1 474 2 is_stmt 1 view .LVU179
 612 044c 498B07   		movq	(%r15), %rax
 613 044f 4C89FF   		movq	%r15, %rdi
 614 0452 C740282E 		movl	$46, 40(%rax)
 614      000000
 615 0459 498B07   		movq	(%r15), %rax
 616 045c FF10     		call	*(%rax)
 617              	.LVL64:
 618              	.L45:
 472:fltk-1.3.4-1/jpeg/jcmaster.c ****       if (last_bitpos[ci][0] < 0)
 619              		.loc 1 472 46 discriminator 2 view .LVU180
 472:fltk-1.3.4-1/jpeg/jcmaster.c ****       if (last_bitpos[ci][0] < 0)
 620              		.loc 1 472 18 discriminator 2 view .LVU181
 621 045e 4883C301 		addq	$1, %rbx
 622              	.LVL65:
 472:fltk-1.3.4-1/jpeg/jcmaster.c ****       if (last_bitpos[ci][0] < 0)
 623              		.loc 1 472 5 is_stmt 0 discriminator 2 view .LVU182
 624 0462 41395F5C 		cmpl	%ebx, 92(%r15)
 625 0466 7FD5     		jg	.L46
 626 0468 E9F8FEFF 		jmp	.L1
 626      FF
 627              	.LVL66:
 628              	.L4:
 385:fltk-1.3.4-1/jpeg/jcmaster.c ****     for (ci = 0; ci < cinfo->num_components; ci++) 
 629              		.loc 1 385 5 is_stmt 1 view .LVU183
 385:fltk-1.3.4-1/jpeg/jcmaster.c ****     for (ci = 0; ci < cinfo->num_components; ci++) 
 630              		.loc 1 385 29 is_stmt 0 view .LVU184
 631 046d 41C7875C 		movl	$0, 348(%r15)
 631      01000000 
 631      000000
 386:fltk-1.3.4-1/jpeg/jcmaster.c ****       component_sent[ci] = FALSE;
 632              		.loc 1 386 5 is_stmt 1 view .LVU185
 633              	.LVL67:
 386:fltk-1.3.4-1/jpeg/jcmaster.c ****       component_sent[ci] = FALSE;
 634              		.loc 1 386 18 view .LVU186
 386:fltk-1.3.4-1/jpeg/jcmaster.c ****       component_sent[ci] = FALSE;
 635              		.loc 1 386 5 is_stmt 0 view .LVU187
 636 0478 85C9     		testl	%ecx, %ecx
 637 047a 7E2C     		jle	.L9
 638 047c 488D6C24 		leaq	48(%rsp), %rbp
 638      30
 639 0481 8D51FF   		leal	-1(%rcx), %edx
 640 0484 4889E8   		movq	%rbp, %rax
 641              	.LVL68:
 386:fltk-1.3.4-1/jpeg/jcmaster.c ****       component_sent[ci] = FALSE;
 642              		.loc 1 386 5 view .LVU188
 643 0487 488D5494 		leaq	52(%rsp,%rdx,4), %rdx
 643      34
 644              	.LVL69:
 645              	.L10:
 387:fltk-1.3.4-1/jpeg/jcmaster.c ****   }
 646              		.loc 1 387 7 is_stmt 1 discriminator 3 view .LVU189
 387:fltk-1.3.4-1/jpeg/jcmaster.c ****   }
 647              		.loc 1 387 26 is_stmt 0 discriminator 3 view .LVU190
 648 048c C7000000 		movl	$0, (%rax)
 648      0000
 386:fltk-1.3.4-1/jpeg/jcmaster.c ****       component_sent[ci] = FALSE;
 649              		.loc 1 386 46 is_stmt 1 discriminator 3 view .LVU191
 386:fltk-1.3.4-1/jpeg/jcmaster.c ****       component_sent[ci] = FALSE;
 650              		.loc 1 386 18 discriminator 3 view .LVU192
 651 0492 4883C004 		addq	$4, %rax
 386:fltk-1.3.4-1/jpeg/jcmaster.c ****       component_sent[ci] = FALSE;
 652              		.loc 1 386 5 is_stmt 0 discriminator 3 view .LVU193
 653 0496 4839D0   		cmpq	%rdx, %rax
 654 0499 75F1     		jne	.L10
 655              	.LVL70:
 390:fltk-1.3.4-1/jpeg/jcmaster.c ****     /* Validate component indexes */
 656              		.loc 1 390 20 is_stmt 1 view .LVU194
 390:fltk-1.3.4-1/jpeg/jcmaster.c ****     /* Validate component indexes */
 657              		.loc 1 390 3 is_stmt 0 view .LVU195
 658 049b 85F6     		testl	%esi, %esi
 659 049d 0F8F31FC 		jg	.L49
 659      FFFF
 660 04a3 E997FEFF 		jmp	.L43
 660      FF
 661              	.LVL71:
 662              	.L9:
 390:fltk-1.3.4-1/jpeg/jcmaster.c ****     /* Validate component indexes */
 663              		.loc 1 390 20 is_stmt 1 view .LVU196
 390:fltk-1.3.4-1/jpeg/jcmaster.c ****     /* Validate component indexes */
 664              		.loc 1 390 3 is_stmt 0 view .LVU197
 665 04a8 85F6     		testl	%esi, %esi
 666 04aa 0F8F24FC 		jg	.L49
 666      FFFF
 667 04b0 E9B0FEFF 		jmp	.L1
 667      FF
 668              	.LVL72:
 669              	.L90:
 670              		.loc 1 483 1 view .LVU198
 671 04b5 E8000000 		call	__stack_chk_fail@PLT
 671      00
 672              	.LVL73:
 673              		.cfi_endproc
 674              	.LFE54:
 676              		.section	.text.select_scan_parameters,"ax",@progbits
 677              		.p2align 4
 679              	select_scan_parameters:
 680              	.LVL74:
 681              	.LFB56:
 484:fltk-1.3.4-1/jpeg/jcmaster.c **** 
 485:fltk-1.3.4-1/jpeg/jcmaster.c **** 
 486:fltk-1.3.4-1/jpeg/jcmaster.c **** LOCAL(void)
 487:fltk-1.3.4-1/jpeg/jcmaster.c **** reduce_script (j_compress_ptr cinfo)
 488:fltk-1.3.4-1/jpeg/jcmaster.c **** /* Adapt scan script for use with reduced block size;
 489:fltk-1.3.4-1/jpeg/jcmaster.c ****  * assume that script has been validated before.
 490:fltk-1.3.4-1/jpeg/jcmaster.c ****  */
 491:fltk-1.3.4-1/jpeg/jcmaster.c **** {
 492:fltk-1.3.4-1/jpeg/jcmaster.c ****   jpeg_scan_info * scanptr;
 493:fltk-1.3.4-1/jpeg/jcmaster.c ****   int idxout, idxin;
 494:fltk-1.3.4-1/jpeg/jcmaster.c **** 
 495:fltk-1.3.4-1/jpeg/jcmaster.c ****   /* Circumvent const declaration for this function */
 496:fltk-1.3.4-1/jpeg/jcmaster.c ****   scanptr = (jpeg_scan_info *) cinfo->scan_info;
 497:fltk-1.3.4-1/jpeg/jcmaster.c ****   idxout = 0;
 498:fltk-1.3.4-1/jpeg/jcmaster.c **** 
 499:fltk-1.3.4-1/jpeg/jcmaster.c ****   for (idxin = 0; idxin < cinfo->num_scans; idxin++) {
 500:fltk-1.3.4-1/jpeg/jcmaster.c ****     /* After skipping, idxout becomes smaller than idxin */
 501:fltk-1.3.4-1/jpeg/jcmaster.c ****     if (idxin != idxout)
 502:fltk-1.3.4-1/jpeg/jcmaster.c ****       /* Copy rest of data;
 503:fltk-1.3.4-1/jpeg/jcmaster.c ****        * note we stay in given chunk of allocated memory.
 504:fltk-1.3.4-1/jpeg/jcmaster.c ****        */
 505:fltk-1.3.4-1/jpeg/jcmaster.c ****       scanptr[idxout] = scanptr[idxin];
 506:fltk-1.3.4-1/jpeg/jcmaster.c ****     if (scanptr[idxout].Ss > cinfo->lim_Se)
 507:fltk-1.3.4-1/jpeg/jcmaster.c ****       /* Entire scan out of range - skip this entry */
 508:fltk-1.3.4-1/jpeg/jcmaster.c ****       continue;
 509:fltk-1.3.4-1/jpeg/jcmaster.c ****     if (scanptr[idxout].Se > cinfo->lim_Se)
 510:fltk-1.3.4-1/jpeg/jcmaster.c ****       /* Limit scan to end of block */
 511:fltk-1.3.4-1/jpeg/jcmaster.c ****       scanptr[idxout].Se = cinfo->lim_Se;
 512:fltk-1.3.4-1/jpeg/jcmaster.c ****     idxout++;
 513:fltk-1.3.4-1/jpeg/jcmaster.c ****   }
 514:fltk-1.3.4-1/jpeg/jcmaster.c **** 
 515:fltk-1.3.4-1/jpeg/jcmaster.c ****   cinfo->num_scans = idxout;
 516:fltk-1.3.4-1/jpeg/jcmaster.c **** }
 517:fltk-1.3.4-1/jpeg/jcmaster.c **** 
 518:fltk-1.3.4-1/jpeg/jcmaster.c **** #endif /* C_MULTISCAN_FILES_SUPPORTED */
 519:fltk-1.3.4-1/jpeg/jcmaster.c **** 
 520:fltk-1.3.4-1/jpeg/jcmaster.c **** 
 521:fltk-1.3.4-1/jpeg/jcmaster.c **** LOCAL(void)
 522:fltk-1.3.4-1/jpeg/jcmaster.c **** select_scan_parameters (j_compress_ptr cinfo)
 523:fltk-1.3.4-1/jpeg/jcmaster.c **** /* Set up the scan parameters for the current scan */
 524:fltk-1.3.4-1/jpeg/jcmaster.c **** {
 682              		.loc 1 524 1 is_stmt 1 view -0
 683              		.cfi_startproc
 525:fltk-1.3.4-1/jpeg/jcmaster.c ****   int ci;
 684              		.loc 1 525 3 view .LVU200
 526:fltk-1.3.4-1/jpeg/jcmaster.c **** 
 527:fltk-1.3.4-1/jpeg/jcmaster.c **** #ifdef C_MULTISCAN_FILES_SUPPORTED
 528:fltk-1.3.4-1/jpeg/jcmaster.c ****   if (cinfo->scan_info != NULL) {
 685              		.loc 1 528 3 view .LVU201
 524:fltk-1.3.4-1/jpeg/jcmaster.c ****   int ci;
 686              		.loc 1 524 1 is_stmt 0 view .LVU202
 687 0000 4883EC18 		subq	$24, %rsp
 688              		.cfi_def_cfa_offset 32
 689              		.loc 1 528 12 view .LVU203
 690 0004 488B8718 		movq	280(%rdi), %rax
 690      010000
 691              		.loc 1 528 6 view .LVU204
 692 000b 4885C0   		testq	%rax, %rax
 693 000e 0F84BC00 		je	.L92
 693      0000
 694              	.LBB4:
 529:fltk-1.3.4-1/jpeg/jcmaster.c ****     /* Prepare for current scan --- the script is already validated */
 530:fltk-1.3.4-1/jpeg/jcmaster.c ****     my_master_ptr master = (my_master_ptr) cinfo->master;
 695              		.loc 1 530 5 is_stmt 1 view .LVU205
 696              	.LVL75:
 531:fltk-1.3.4-1/jpeg/jcmaster.c ****     const jpeg_scan_info * scanptr = cinfo->scan_info + master->scan_number;
 697              		.loc 1 531 5 view .LVU206
 698              		.loc 1 531 63 is_stmt 0 view .LVU207
 699 0014 488B97F0 		movq	496(%rdi), %rdx
 699      010000
 700 001b 4863522C 		movslq	44(%rdx), %rdx
 701              		.loc 1 531 55 view .LVU208
 702 001f 488D14D2 		leaq	(%rdx,%rdx,8), %rdx
 703              		.loc 1 531 28 view .LVU209
 704 0023 488D0C90 		leaq	(%rax,%rdx,4), %rcx
 705              	.LVL76:
 532:fltk-1.3.4-1/jpeg/jcmaster.c **** 
 533:fltk-1.3.4-1/jpeg/jcmaster.c ****     cinfo->comps_in_scan = scanptr->comps_in_scan;
 706              		.loc 1 533 5 is_stmt 1 view .LVU210
 707              		.loc 1 533 35 is_stmt 0 view .LVU211
 708 0027 8B01     		movl	(%rcx), %eax
 709              		.loc 1 533 26 view .LVU212
 710 0029 89877401 		movl	%eax, 372(%rdi)
 710      0000
 534:fltk-1.3.4-1/jpeg/jcmaster.c ****     for (ci = 0; ci < scanptr->comps_in_scan; ci++) {
 711              		.loc 1 534 5 is_stmt 1 view .LVU213
 712              	.LVL77:
 713              		.loc 1 534 18 view .LVU214
 714              		.loc 1 534 5 is_stmt 0 view .LVU215
 715 002f 8B11     		movl	(%rcx), %edx
 716 0031 85D2     		testl	%edx, %edx
 717 0033 7E2B     		jle	.L97
 535:fltk-1.3.4-1/jpeg/jcmaster.c ****       cinfo->cur_comp_info[ci] =
 536:fltk-1.3.4-1/jpeg/jcmaster.c **** 	&cinfo->comp_info[scanptr->component_index[ci]];
 718              		.loc 1 536 8 view .LVU216
 719 0035 488B7768 		movq	104(%rdi), %rsi
 720 0039 31D2     		xorl	%edx, %edx
 721              	.LVL78:
 722 003b 0F1F4400 		.p2align 4,,10
 722      00
 723              		.p2align 3
 724              	.L96:
 535:fltk-1.3.4-1/jpeg/jcmaster.c ****       cinfo->cur_comp_info[ci] =
 725              		.loc 1 535 7 is_stmt 1 discriminator 3 view .LVU217
 726              		.loc 1 536 44 is_stmt 0 discriminator 3 view .LVU218
 727 0040 48634491 		movslq	4(%rcx,%rdx,4), %rax
 727      04
 728              		.loc 1 536 19 discriminator 3 view .LVU219
 729 0045 488D0440 		leaq	(%rax,%rax,2), %rax
 730 0049 48C1E005 		salq	$5, %rax
 731              		.loc 1 536 2 discriminator 3 view .LVU220
 732 004d 4801F0   		addq	%rsi, %rax
 733 0050 488984D7 		movq	%rax, 376(%rdi,%rdx,8)
 733      78010000 
 534:fltk-1.3.4-1/jpeg/jcmaster.c ****     for (ci = 0; ci < scanptr->comps_in_scan; ci++) {
 734              		.loc 1 534 47 is_stmt 1 discriminator 3 view .LVU221
 735              	.LVL79:
 534:fltk-1.3.4-1/jpeg/jcmaster.c ****     for (ci = 0; ci < scanptr->comps_in_scan; ci++) {
 736              		.loc 1 534 18 discriminator 3 view .LVU222
 737 0058 4883C201 		addq	$1, %rdx
 738              	.LVL80:
 534:fltk-1.3.4-1/jpeg/jcmaster.c ****     for (ci = 0; ci < scanptr->comps_in_scan; ci++) {
 739              		.loc 1 534 5 is_stmt 0 discriminator 3 view .LVU223
 740 005c 3911     		cmpl	%edx, (%rcx)
 741 005e 7FE0     		jg	.L96
 742              	.L97:
 537:fltk-1.3.4-1/jpeg/jcmaster.c ****     }
 538:fltk-1.3.4-1/jpeg/jcmaster.c ****     if (cinfo->progressive_mode) {
 743              		.loc 1 538 5 is_stmt 1 view .LVU224
 744              		.loc 1 538 8 is_stmt 0 view .LVU225
 745 0060 8B875C01 		movl	348(%rdi), %eax
 745      0000
 746 0066 85C0     		testl	%eax, %eax
 747 0068 7536     		jne	.L104
 748              	.LVL81:
 749              	.L95:
 750              		.loc 1 538 8 view .LVU226
 751              	.LBE4:
 539:fltk-1.3.4-1/jpeg/jcmaster.c ****       cinfo->Ss = scanptr->Ss;
 540:fltk-1.3.4-1/jpeg/jcmaster.c ****       cinfo->Se = scanptr->Se;
 541:fltk-1.3.4-1/jpeg/jcmaster.c ****       cinfo->Ah = scanptr->Ah;
 542:fltk-1.3.4-1/jpeg/jcmaster.c ****       cinfo->Al = scanptr->Al;
 543:fltk-1.3.4-1/jpeg/jcmaster.c ****       return;
 544:fltk-1.3.4-1/jpeg/jcmaster.c ****     }
 545:fltk-1.3.4-1/jpeg/jcmaster.c ****   }
 546:fltk-1.3.4-1/jpeg/jcmaster.c ****   else
 547:fltk-1.3.4-1/jpeg/jcmaster.c **** #endif
 548:fltk-1.3.4-1/jpeg/jcmaster.c ****   {
 549:fltk-1.3.4-1/jpeg/jcmaster.c ****     /* Prepare for single sequential-JPEG scan containing all components */
 550:fltk-1.3.4-1/jpeg/jcmaster.c ****     if (cinfo->num_components > MAX_COMPS_IN_SCAN)
 551:fltk-1.3.4-1/jpeg/jcmaster.c ****       ERREXIT2(cinfo, JERR_COMPONENT_COUNT, cinfo->num_components,
 552:fltk-1.3.4-1/jpeg/jcmaster.c **** 	       MAX_COMPS_IN_SCAN);
 553:fltk-1.3.4-1/jpeg/jcmaster.c ****     cinfo->comps_in_scan = cinfo->num_components;
 554:fltk-1.3.4-1/jpeg/jcmaster.c ****     for (ci = 0; ci < cinfo->num_components; ci++) {
 555:fltk-1.3.4-1/jpeg/jcmaster.c ****       cinfo->cur_comp_info[ci] = &cinfo->comp_info[ci];
 556:fltk-1.3.4-1/jpeg/jcmaster.c ****     }
 557:fltk-1.3.4-1/jpeg/jcmaster.c ****   }
 558:fltk-1.3.4-1/jpeg/jcmaster.c ****   cinfo->Ss = 0;
 752              		.loc 1 558 3 is_stmt 1 view .LVU227
 753              		.loc 1 558 13 is_stmt 0 view .LVU228
 754 006a C787CC01 		movl	$0, 460(%rdi)
 754      00000000 
 754      0000
 559:fltk-1.3.4-1/jpeg/jcmaster.c ****   cinfo->Se = cinfo->block_size * cinfo->block_size - 1;
 755              		.loc 1 559 3 is_stmt 1 view .LVU229
 756              		.loc 1 559 20 is_stmt 0 view .LVU230
 757 0074 8B87DC01 		movl	476(%rdi), %eax
 757      0000
 560:fltk-1.3.4-1/jpeg/jcmaster.c ****   cinfo->Ah = 0;
 758              		.loc 1 560 13 view .LVU231
 759 007a 48C787D4 		movq	$0, 468(%rdi)
 759      01000000 
 759      000000
 559:fltk-1.3.4-1/jpeg/jcmaster.c ****   cinfo->Se = cinfo->block_size * cinfo->block_size - 1;
 760              		.loc 1 559 33 view .LVU232
 761 0085 0FAFC0   		imull	%eax, %eax
 559:fltk-1.3.4-1/jpeg/jcmaster.c ****   cinfo->Se = cinfo->block_size * cinfo->block_size - 1;
 762              		.loc 1 559 53 view .LVU233
 763 0088 83E801   		subl	$1, %eax
 764 008b 8987D001 		movl	%eax, 464(%rdi)
 764      0000
 765              		.loc 1 560 3 is_stmt 1 view .LVU234
 561:fltk-1.3.4-1/jpeg/jcmaster.c ****   cinfo->Al = 0;
 766              		.loc 1 561 3 view .LVU235
 562:fltk-1.3.4-1/jpeg/jcmaster.c **** }
 767              		.loc 1 562 1 is_stmt 0 view .LVU236
 768 0091 4883C418 		addq	$24, %rsp
 769              		.cfi_remember_state
 770              		.cfi_def_cfa_offset 8
 771 0095 C3       		ret
 772              	.LVL82:
 773 0096 662E0F1F 		.p2align 4,,10
 773      84000000 
 773      0000
 774              		.p2align 3
 775              	.L104:
 776              		.cfi_restore_state
 777              	.LBB5:
 539:fltk-1.3.4-1/jpeg/jcmaster.c ****       cinfo->Se = scanptr->Se;
 778              		.loc 1 539 7 is_stmt 1 view .LVU237
 539:fltk-1.3.4-1/jpeg/jcmaster.c ****       cinfo->Se = scanptr->Se;
 779              		.loc 1 539 26 is_stmt 0 view .LVU238
 780 00a0 8B4114   		movl	20(%rcx), %eax
 539:fltk-1.3.4-1/jpeg/jcmaster.c ****       cinfo->Se = scanptr->Se;
 781              		.loc 1 539 17 view .LVU239
 782 00a3 8987CC01 		movl	%eax, 460(%rdi)
 782      0000
 540:fltk-1.3.4-1/jpeg/jcmaster.c ****       cinfo->Ah = scanptr->Ah;
 783              		.loc 1 540 7 is_stmt 1 view .LVU240
 540:fltk-1.3.4-1/jpeg/jcmaster.c ****       cinfo->Ah = scanptr->Ah;
 784              		.loc 1 540 26 is_stmt 0 view .LVU241
 785 00a9 8B4118   		movl	24(%rcx), %eax
 540:fltk-1.3.4-1/jpeg/jcmaster.c ****       cinfo->Ah = scanptr->Ah;
 786              		.loc 1 540 17 view .LVU242
 787 00ac 8987D001 		movl	%eax, 464(%rdi)
 787      0000
 541:fltk-1.3.4-1/jpeg/jcmaster.c ****       cinfo->Al = scanptr->Al;
 788              		.loc 1 541 7 is_stmt 1 view .LVU243
 541:fltk-1.3.4-1/jpeg/jcmaster.c ****       cinfo->Al = scanptr->Al;
 789              		.loc 1 541 26 is_stmt 0 view .LVU244
 790 00b2 8B411C   		movl	28(%rcx), %eax
 541:fltk-1.3.4-1/jpeg/jcmaster.c ****       cinfo->Al = scanptr->Al;
 791              		.loc 1 541 17 view .LVU245
 792 00b5 8987D401 		movl	%eax, 468(%rdi)
 792      0000
 542:fltk-1.3.4-1/jpeg/jcmaster.c ****       return;
 793              		.loc 1 542 7 is_stmt 1 view .LVU246
 542:fltk-1.3.4-1/jpeg/jcmaster.c ****       return;
 794              		.loc 1 542 26 is_stmt 0 view .LVU247
 795 00bb 8B4120   		movl	32(%rcx), %eax
 542:fltk-1.3.4-1/jpeg/jcmaster.c ****       return;
 796              		.loc 1 542 17 view .LVU248
 797 00be 8987D801 		movl	%eax, 472(%rdi)
 797      0000
 543:fltk-1.3.4-1/jpeg/jcmaster.c ****     }
 798              		.loc 1 543 7 is_stmt 1 view .LVU249
 799              	.LBE5:
 800              		.loc 1 562 1 is_stmt 0 view .LVU250
 801 00c4 4883C418 		addq	$24, %rsp
 802              		.cfi_remember_state
 803              		.cfi_def_cfa_offset 8
 804 00c8 C3       		ret
 805              	.LVL83:
 806 00c9 0F1F8000 		.p2align 4,,10
 806      000000
 807              		.p2align 3
 808              	.L92:
 809              		.cfi_restore_state
 550:fltk-1.3.4-1/jpeg/jcmaster.c ****       ERREXIT2(cinfo, JERR_COMPONENT_COUNT, cinfo->num_components,
 810              		.loc 1 550 5 is_stmt 1 view .LVU251
 550:fltk-1.3.4-1/jpeg/jcmaster.c ****       ERREXIT2(cinfo, JERR_COMPONENT_COUNT, cinfo->num_components,
 811              		.loc 1 550 14 is_stmt 0 view .LVU252
 812 00d0 8B4F5C   		movl	92(%rdi), %ecx
 550:fltk-1.3.4-1/jpeg/jcmaster.c ****       ERREXIT2(cinfo, JERR_COMPONENT_COUNT, cinfo->num_components,
 813              		.loc 1 550 8 view .LVU253
 814 00d3 83F904   		cmpl	$4, %ecx
 815 00d6 7F38     		jg	.L105
 816              	.LVL84:
 817              	.L99:
 553:fltk-1.3.4-1/jpeg/jcmaster.c ****     for (ci = 0; ci < cinfo->num_components; ci++) {
 818              		.loc 1 553 5 is_stmt 1 view .LVU254
 553:fltk-1.3.4-1/jpeg/jcmaster.c ****     for (ci = 0; ci < cinfo->num_components; ci++) {
 819              		.loc 1 553 26 is_stmt 0 view .LVU255
 820 00d8 898F7401 		movl	%ecx, 372(%rdi)
 820      0000
 554:fltk-1.3.4-1/jpeg/jcmaster.c ****       cinfo->cur_comp_info[ci] = &cinfo->comp_info[ci];
 821              		.loc 1 554 5 is_stmt 1 view .LVU256
 822              	.LVL85:
 554:fltk-1.3.4-1/jpeg/jcmaster.c ****       cinfo->cur_comp_info[ci] = &cinfo->comp_info[ci];
 823              		.loc 1 554 18 view .LVU257
 554:fltk-1.3.4-1/jpeg/jcmaster.c ****       cinfo->cur_comp_info[ci] = &cinfo->comp_info[ci];
 824              		.loc 1 554 5 is_stmt 0 view .LVU258
 825 00de 85C9     		testl	%ecx, %ecx
 826 00e0 7E88     		jle	.L95
 827 00e2 488B5768 		movq	104(%rdi), %rdx
 555:fltk-1.3.4-1/jpeg/jcmaster.c ****     }
 828              		.loc 1 555 40 view .LVU259
 829 00e6 31C0     		xorl	%eax, %eax
 830              	.LVL86:
 831 00e8 0F1F8400 		.p2align 4,,10
 831      00000000 
 832              		.p2align 3
 833              	.L100:
 555:fltk-1.3.4-1/jpeg/jcmaster.c ****     }
 834              		.loc 1 555 7 is_stmt 1 discriminator 3 view .LVU260
 555:fltk-1.3.4-1/jpeg/jcmaster.c ****     }
 835              		.loc 1 555 32 is_stmt 0 discriminator 3 view .LVU261
 836 00f0 488994C7 		movq	%rdx, 376(%rdi,%rax,8)
 836      78010000 
 554:fltk-1.3.4-1/jpeg/jcmaster.c ****       cinfo->cur_comp_info[ci] = &cinfo->comp_info[ci];
 837              		.loc 1 554 46 is_stmt 1 discriminator 3 view .LVU262
 838              	.LVL87:
 554:fltk-1.3.4-1/jpeg/jcmaster.c ****       cinfo->cur_comp_info[ci] = &cinfo->comp_info[ci];
 839              		.loc 1 554 18 discriminator 3 view .LVU263
 840 00f8 4883C001 		addq	$1, %rax
 841              	.LVL88:
 554:fltk-1.3.4-1/jpeg/jcmaster.c ****       cinfo->cur_comp_info[ci] = &cinfo->comp_info[ci];
 842              		.loc 1 554 18 is_stmt 0 discriminator 3 view .LVU264
 843 00fc 4883C260 		addq	$96, %rdx
 554:fltk-1.3.4-1/jpeg/jcmaster.c ****       cinfo->cur_comp_info[ci] = &cinfo->comp_info[ci];
 844              		.loc 1 554 5 discriminator 3 view .LVU265
 845 0100 39C1     		cmpl	%eax, %ecx
 846 0102 7FEC     		jg	.L100
 847 0104 E961FFFF 		jmp	.L95
 847      FF
 848              	.LVL89:
 849 0109 0F1F8000 		.p2align 4,,10
 849      000000
 850              		.p2align 3
 851              	.L105:
 551:fltk-1.3.4-1/jpeg/jcmaster.c **** 	       MAX_COMPS_IN_SCAN);
 852              		.loc 1 551 7 is_stmt 1 view .LVU266
 853 0110 488B07   		movq	(%rdi), %rax
 854 0113 48897C24 		movq	%rdi, 8(%rsp)
 854      08
 855 0118 C740281B 		movl	$27, 40(%rax)
 855      000000
 856 011f 488B07   		movq	(%rdi), %rax
 857 0122 8B575C   		movl	92(%rdi), %edx
 858 0125 89502C   		movl	%edx, 44(%rax)
 859 0128 488B07   		movq	(%rdi), %rax
 860 012b C7403004 		movl	$4, 48(%rax)
 860      000000
 861 0132 488B07   		movq	(%rdi), %rax
 862 0135 FF10     		call	*(%rax)
 863              	.LVL90:
 551:fltk-1.3.4-1/jpeg/jcmaster.c **** 	       MAX_COMPS_IN_SCAN);
 864              		.loc 1 551 7 is_stmt 0 view .LVU267
 865 0137 488B7C24 		movq	8(%rsp), %rdi
 865      08
 866 013c 8B4F5C   		movl	92(%rdi), %ecx
 867 013f EB97     		jmp	.L99
 868              		.cfi_endproc
 869              	.LFE56:
 871              		.section	.text.pass_startup,"ax",@progbits
 872              		.p2align 4
 874              	pass_startup:
 875              	.LVL91:
 876              	.LFB59:
 563:fltk-1.3.4-1/jpeg/jcmaster.c **** 
 564:fltk-1.3.4-1/jpeg/jcmaster.c **** 
 565:fltk-1.3.4-1/jpeg/jcmaster.c **** LOCAL(void)
 566:fltk-1.3.4-1/jpeg/jcmaster.c **** per_scan_setup (j_compress_ptr cinfo)
 567:fltk-1.3.4-1/jpeg/jcmaster.c **** /* Do computations that are needed before processing a JPEG scan */
 568:fltk-1.3.4-1/jpeg/jcmaster.c **** /* cinfo->comps_in_scan and cinfo->cur_comp_info[] are already set */
 569:fltk-1.3.4-1/jpeg/jcmaster.c **** {
 570:fltk-1.3.4-1/jpeg/jcmaster.c ****   int ci, mcublks, tmp;
 571:fltk-1.3.4-1/jpeg/jcmaster.c ****   jpeg_component_info *compptr;
 572:fltk-1.3.4-1/jpeg/jcmaster.c ****   
 573:fltk-1.3.4-1/jpeg/jcmaster.c ****   if (cinfo->comps_in_scan == 1) {
 574:fltk-1.3.4-1/jpeg/jcmaster.c ****     
 575:fltk-1.3.4-1/jpeg/jcmaster.c ****     /* Noninterleaved (single-component) scan */
 576:fltk-1.3.4-1/jpeg/jcmaster.c ****     compptr = cinfo->cur_comp_info[0];
 577:fltk-1.3.4-1/jpeg/jcmaster.c ****     
 578:fltk-1.3.4-1/jpeg/jcmaster.c ****     /* Overall image size in MCUs */
 579:fltk-1.3.4-1/jpeg/jcmaster.c ****     cinfo->MCUs_per_row = compptr->width_in_blocks;
 580:fltk-1.3.4-1/jpeg/jcmaster.c ****     cinfo->MCU_rows_in_scan = compptr->height_in_blocks;
 581:fltk-1.3.4-1/jpeg/jcmaster.c ****     
 582:fltk-1.3.4-1/jpeg/jcmaster.c ****     /* For noninterleaved scan, always one block per MCU */
 583:fltk-1.3.4-1/jpeg/jcmaster.c ****     compptr->MCU_width = 1;
 584:fltk-1.3.4-1/jpeg/jcmaster.c ****     compptr->MCU_height = 1;
 585:fltk-1.3.4-1/jpeg/jcmaster.c ****     compptr->MCU_blocks = 1;
 586:fltk-1.3.4-1/jpeg/jcmaster.c ****     compptr->MCU_sample_width = compptr->DCT_h_scaled_size;
 587:fltk-1.3.4-1/jpeg/jcmaster.c ****     compptr->last_col_width = 1;
 588:fltk-1.3.4-1/jpeg/jcmaster.c ****     /* For noninterleaved scans, it is convenient to define last_row_height
 589:fltk-1.3.4-1/jpeg/jcmaster.c ****      * as the number of block rows present in the last iMCU row.
 590:fltk-1.3.4-1/jpeg/jcmaster.c ****      */
 591:fltk-1.3.4-1/jpeg/jcmaster.c ****     tmp = (int) (compptr->height_in_blocks % compptr->v_samp_factor);
 592:fltk-1.3.4-1/jpeg/jcmaster.c ****     if (tmp == 0) tmp = compptr->v_samp_factor;
 593:fltk-1.3.4-1/jpeg/jcmaster.c ****     compptr->last_row_height = tmp;
 594:fltk-1.3.4-1/jpeg/jcmaster.c ****     
 595:fltk-1.3.4-1/jpeg/jcmaster.c ****     /* Prepare array describing MCU composition */
 596:fltk-1.3.4-1/jpeg/jcmaster.c ****     cinfo->blocks_in_MCU = 1;
 597:fltk-1.3.4-1/jpeg/jcmaster.c ****     cinfo->MCU_membership[0] = 0;
 598:fltk-1.3.4-1/jpeg/jcmaster.c ****     
 599:fltk-1.3.4-1/jpeg/jcmaster.c ****   } else {
 600:fltk-1.3.4-1/jpeg/jcmaster.c ****     
 601:fltk-1.3.4-1/jpeg/jcmaster.c ****     /* Interleaved (multi-component) scan */
 602:fltk-1.3.4-1/jpeg/jcmaster.c ****     if (cinfo->comps_in_scan <= 0 || cinfo->comps_in_scan > MAX_COMPS_IN_SCAN)
 603:fltk-1.3.4-1/jpeg/jcmaster.c ****       ERREXIT2(cinfo, JERR_COMPONENT_COUNT, cinfo->comps_in_scan,
 604:fltk-1.3.4-1/jpeg/jcmaster.c **** 	       MAX_COMPS_IN_SCAN);
 605:fltk-1.3.4-1/jpeg/jcmaster.c ****     
 606:fltk-1.3.4-1/jpeg/jcmaster.c ****     /* Overall image size in MCUs */
 607:fltk-1.3.4-1/jpeg/jcmaster.c ****     cinfo->MCUs_per_row = (JDIMENSION)
 608:fltk-1.3.4-1/jpeg/jcmaster.c ****       jdiv_round_up((long) cinfo->jpeg_width,
 609:fltk-1.3.4-1/jpeg/jcmaster.c **** 		    (long) (cinfo->max_h_samp_factor * cinfo->block_size));
 610:fltk-1.3.4-1/jpeg/jcmaster.c ****     cinfo->MCU_rows_in_scan = (JDIMENSION)
 611:fltk-1.3.4-1/jpeg/jcmaster.c ****       jdiv_round_up((long) cinfo->jpeg_height,
 612:fltk-1.3.4-1/jpeg/jcmaster.c **** 		    (long) (cinfo->max_v_samp_factor * cinfo->block_size));
 613:fltk-1.3.4-1/jpeg/jcmaster.c ****     
 614:fltk-1.3.4-1/jpeg/jcmaster.c ****     cinfo->blocks_in_MCU = 0;
 615:fltk-1.3.4-1/jpeg/jcmaster.c ****     
 616:fltk-1.3.4-1/jpeg/jcmaster.c ****     for (ci = 0; ci < cinfo->comps_in_scan; ci++) {
 617:fltk-1.3.4-1/jpeg/jcmaster.c ****       compptr = cinfo->cur_comp_info[ci];
 618:fltk-1.3.4-1/jpeg/jcmaster.c ****       /* Sampling factors give # of blocks of component in each MCU */
 619:fltk-1.3.4-1/jpeg/jcmaster.c ****       compptr->MCU_width = compptr->h_samp_factor;
 620:fltk-1.3.4-1/jpeg/jcmaster.c ****       compptr->MCU_height = compptr->v_samp_factor;
 621:fltk-1.3.4-1/jpeg/jcmaster.c ****       compptr->MCU_blocks = compptr->MCU_width * compptr->MCU_height;
 622:fltk-1.3.4-1/jpeg/jcmaster.c ****       compptr->MCU_sample_width = compptr->MCU_width * compptr->DCT_h_scaled_size;
 623:fltk-1.3.4-1/jpeg/jcmaster.c ****       /* Figure number of non-dummy blocks in last MCU column & row */
 624:fltk-1.3.4-1/jpeg/jcmaster.c ****       tmp = (int) (compptr->width_in_blocks % compptr->MCU_width);
 625:fltk-1.3.4-1/jpeg/jcmaster.c ****       if (tmp == 0) tmp = compptr->MCU_width;
 626:fltk-1.3.4-1/jpeg/jcmaster.c ****       compptr->last_col_width = tmp;
 627:fltk-1.3.4-1/jpeg/jcmaster.c ****       tmp = (int) (compptr->height_in_blocks % compptr->MCU_height);
 628:fltk-1.3.4-1/jpeg/jcmaster.c ****       if (tmp == 0) tmp = compptr->MCU_height;
 629:fltk-1.3.4-1/jpeg/jcmaster.c ****       compptr->last_row_height = tmp;
 630:fltk-1.3.4-1/jpeg/jcmaster.c ****       /* Prepare array describing MCU composition */
 631:fltk-1.3.4-1/jpeg/jcmaster.c ****       mcublks = compptr->MCU_blocks;
 632:fltk-1.3.4-1/jpeg/jcmaster.c ****       if (cinfo->blocks_in_MCU + mcublks > C_MAX_BLOCKS_IN_MCU)
 633:fltk-1.3.4-1/jpeg/jcmaster.c **** 	ERREXIT(cinfo, JERR_BAD_MCU_SIZE);
 634:fltk-1.3.4-1/jpeg/jcmaster.c ****       while (mcublks-- > 0) {
 635:fltk-1.3.4-1/jpeg/jcmaster.c **** 	cinfo->MCU_membership[cinfo->blocks_in_MCU++] = ci;
 636:fltk-1.3.4-1/jpeg/jcmaster.c ****       }
 637:fltk-1.3.4-1/jpeg/jcmaster.c ****     }
 638:fltk-1.3.4-1/jpeg/jcmaster.c ****     
 639:fltk-1.3.4-1/jpeg/jcmaster.c ****   }
 640:fltk-1.3.4-1/jpeg/jcmaster.c **** 
 641:fltk-1.3.4-1/jpeg/jcmaster.c ****   /* Convert restart specified in rows to actual MCU count. */
 642:fltk-1.3.4-1/jpeg/jcmaster.c ****   /* Note that count must fit in 16 bits, so we provide limiting. */
 643:fltk-1.3.4-1/jpeg/jcmaster.c ****   if (cinfo->restart_in_rows > 0) {
 644:fltk-1.3.4-1/jpeg/jcmaster.c ****     long nominal = (long) cinfo->restart_in_rows * (long) cinfo->MCUs_per_row;
 645:fltk-1.3.4-1/jpeg/jcmaster.c ****     cinfo->restart_interval = (unsigned int) MIN(nominal, 65535L);
 646:fltk-1.3.4-1/jpeg/jcmaster.c ****   }
 647:fltk-1.3.4-1/jpeg/jcmaster.c **** }
 648:fltk-1.3.4-1/jpeg/jcmaster.c **** 
 649:fltk-1.3.4-1/jpeg/jcmaster.c **** 
 650:fltk-1.3.4-1/jpeg/jcmaster.c **** /*
 651:fltk-1.3.4-1/jpeg/jcmaster.c ****  * Per-pass setup.
 652:fltk-1.3.4-1/jpeg/jcmaster.c ****  * This is called at the beginning of each pass.  We determine which modules
 653:fltk-1.3.4-1/jpeg/jcmaster.c ****  * will be active during this pass and give them appropriate start_pass calls.
 654:fltk-1.3.4-1/jpeg/jcmaster.c ****  * We also set is_last_pass to indicate whether any more passes will be
 655:fltk-1.3.4-1/jpeg/jcmaster.c ****  * required.
 656:fltk-1.3.4-1/jpeg/jcmaster.c ****  */
 657:fltk-1.3.4-1/jpeg/jcmaster.c **** 
 658:fltk-1.3.4-1/jpeg/jcmaster.c **** METHODDEF(void)
 659:fltk-1.3.4-1/jpeg/jcmaster.c **** prepare_for_pass (j_compress_ptr cinfo)
 660:fltk-1.3.4-1/jpeg/jcmaster.c **** {
 661:fltk-1.3.4-1/jpeg/jcmaster.c ****   my_master_ptr master = (my_master_ptr) cinfo->master;
 662:fltk-1.3.4-1/jpeg/jcmaster.c **** 
 663:fltk-1.3.4-1/jpeg/jcmaster.c ****   switch (master->pass_type) {
 664:fltk-1.3.4-1/jpeg/jcmaster.c ****   case main_pass:
 665:fltk-1.3.4-1/jpeg/jcmaster.c ****     /* Initial pass: will collect input data, and do either Huffman
 666:fltk-1.3.4-1/jpeg/jcmaster.c ****      * optimization or data output for the first scan.
 667:fltk-1.3.4-1/jpeg/jcmaster.c ****      */
 668:fltk-1.3.4-1/jpeg/jcmaster.c ****     select_scan_parameters(cinfo);
 669:fltk-1.3.4-1/jpeg/jcmaster.c ****     per_scan_setup(cinfo);
 670:fltk-1.3.4-1/jpeg/jcmaster.c ****     if (! cinfo->raw_data_in) {
 671:fltk-1.3.4-1/jpeg/jcmaster.c ****       (*cinfo->cconvert->start_pass) (cinfo);
 672:fltk-1.3.4-1/jpeg/jcmaster.c ****       (*cinfo->downsample->start_pass) (cinfo);
 673:fltk-1.3.4-1/jpeg/jcmaster.c ****       (*cinfo->prep->start_pass) (cinfo, JBUF_PASS_THRU);
 674:fltk-1.3.4-1/jpeg/jcmaster.c ****     }
 675:fltk-1.3.4-1/jpeg/jcmaster.c ****     (*cinfo->fdct->start_pass) (cinfo);
 676:fltk-1.3.4-1/jpeg/jcmaster.c ****     (*cinfo->entropy->start_pass) (cinfo, cinfo->optimize_coding);
 677:fltk-1.3.4-1/jpeg/jcmaster.c ****     (*cinfo->coef->start_pass) (cinfo,
 678:fltk-1.3.4-1/jpeg/jcmaster.c **** 				(master->total_passes > 1 ?
 679:fltk-1.3.4-1/jpeg/jcmaster.c **** 				 JBUF_SAVE_AND_PASS : JBUF_PASS_THRU));
 680:fltk-1.3.4-1/jpeg/jcmaster.c ****     (*cinfo->main->start_pass) (cinfo, JBUF_PASS_THRU);
 681:fltk-1.3.4-1/jpeg/jcmaster.c ****     if (cinfo->optimize_coding) {
 682:fltk-1.3.4-1/jpeg/jcmaster.c ****       /* No immediate data output; postpone writing frame/scan headers */
 683:fltk-1.3.4-1/jpeg/jcmaster.c ****       master->pub.call_pass_startup = FALSE;
 684:fltk-1.3.4-1/jpeg/jcmaster.c ****     } else {
 685:fltk-1.3.4-1/jpeg/jcmaster.c ****       /* Will write frame/scan headers at first jpeg_write_scanlines call */
 686:fltk-1.3.4-1/jpeg/jcmaster.c ****       master->pub.call_pass_startup = TRUE;
 687:fltk-1.3.4-1/jpeg/jcmaster.c ****     }
 688:fltk-1.3.4-1/jpeg/jcmaster.c ****     break;
 689:fltk-1.3.4-1/jpeg/jcmaster.c **** #ifdef ENTROPY_OPT_SUPPORTED
 690:fltk-1.3.4-1/jpeg/jcmaster.c ****   case huff_opt_pass:
 691:fltk-1.3.4-1/jpeg/jcmaster.c ****     /* Do Huffman optimization for a scan after the first one. */
 692:fltk-1.3.4-1/jpeg/jcmaster.c ****     select_scan_parameters(cinfo);
 693:fltk-1.3.4-1/jpeg/jcmaster.c ****     per_scan_setup(cinfo);
 694:fltk-1.3.4-1/jpeg/jcmaster.c ****     if (cinfo->Ss != 0 || cinfo->Ah == 0) {
 695:fltk-1.3.4-1/jpeg/jcmaster.c ****       (*cinfo->entropy->start_pass) (cinfo, TRUE);
 696:fltk-1.3.4-1/jpeg/jcmaster.c ****       (*cinfo->coef->start_pass) (cinfo, JBUF_CRANK_DEST);
 697:fltk-1.3.4-1/jpeg/jcmaster.c ****       master->pub.call_pass_startup = FALSE;
 698:fltk-1.3.4-1/jpeg/jcmaster.c ****       break;
 699:fltk-1.3.4-1/jpeg/jcmaster.c ****     }
 700:fltk-1.3.4-1/jpeg/jcmaster.c ****     /* Special case: Huffman DC refinement scans need no Huffman table
 701:fltk-1.3.4-1/jpeg/jcmaster.c ****      * and therefore we can skip the optimization pass for them.
 702:fltk-1.3.4-1/jpeg/jcmaster.c ****      */
 703:fltk-1.3.4-1/jpeg/jcmaster.c ****     master->pass_type = output_pass;
 704:fltk-1.3.4-1/jpeg/jcmaster.c ****     master->pass_number++;
 705:fltk-1.3.4-1/jpeg/jcmaster.c ****     /*FALLTHROUGH*/
 706:fltk-1.3.4-1/jpeg/jcmaster.c **** #endif
 707:fltk-1.3.4-1/jpeg/jcmaster.c ****   case output_pass:
 708:fltk-1.3.4-1/jpeg/jcmaster.c ****     /* Do a data-output pass. */
 709:fltk-1.3.4-1/jpeg/jcmaster.c ****     /* We need not repeat per-scan setup if prior optimization pass did it. */
 710:fltk-1.3.4-1/jpeg/jcmaster.c ****     if (! cinfo->optimize_coding) {
 711:fltk-1.3.4-1/jpeg/jcmaster.c ****       select_scan_parameters(cinfo);
 712:fltk-1.3.4-1/jpeg/jcmaster.c ****       per_scan_setup(cinfo);
 713:fltk-1.3.4-1/jpeg/jcmaster.c ****     }
 714:fltk-1.3.4-1/jpeg/jcmaster.c ****     (*cinfo->entropy->start_pass) (cinfo, FALSE);
 715:fltk-1.3.4-1/jpeg/jcmaster.c ****     (*cinfo->coef->start_pass) (cinfo, JBUF_CRANK_DEST);
 716:fltk-1.3.4-1/jpeg/jcmaster.c ****     /* We emit frame/scan headers now */
 717:fltk-1.3.4-1/jpeg/jcmaster.c ****     if (master->scan_number == 0)
 718:fltk-1.3.4-1/jpeg/jcmaster.c ****       (*cinfo->marker->write_frame_header) (cinfo);
 719:fltk-1.3.4-1/jpeg/jcmaster.c ****     (*cinfo->marker->write_scan_header) (cinfo);
 720:fltk-1.3.4-1/jpeg/jcmaster.c ****     master->pub.call_pass_startup = FALSE;
 721:fltk-1.3.4-1/jpeg/jcmaster.c ****     break;
 722:fltk-1.3.4-1/jpeg/jcmaster.c ****   default:
 723:fltk-1.3.4-1/jpeg/jcmaster.c ****     ERREXIT(cinfo, JERR_NOT_COMPILED);
 724:fltk-1.3.4-1/jpeg/jcmaster.c ****   }
 725:fltk-1.3.4-1/jpeg/jcmaster.c **** 
 726:fltk-1.3.4-1/jpeg/jcmaster.c ****   master->pub.is_last_pass = (master->pass_number == master->total_passes-1);
 727:fltk-1.3.4-1/jpeg/jcmaster.c **** 
 728:fltk-1.3.4-1/jpeg/jcmaster.c ****   /* Set up progress monitor's pass info if present */
 729:fltk-1.3.4-1/jpeg/jcmaster.c ****   if (cinfo->progress != NULL) {
 730:fltk-1.3.4-1/jpeg/jcmaster.c ****     cinfo->progress->completed_passes = master->pass_number;
 731:fltk-1.3.4-1/jpeg/jcmaster.c ****     cinfo->progress->total_passes = master->total_passes;
 732:fltk-1.3.4-1/jpeg/jcmaster.c ****   }
 733:fltk-1.3.4-1/jpeg/jcmaster.c **** }
 734:fltk-1.3.4-1/jpeg/jcmaster.c **** 
 735:fltk-1.3.4-1/jpeg/jcmaster.c **** 
 736:fltk-1.3.4-1/jpeg/jcmaster.c **** /*
 737:fltk-1.3.4-1/jpeg/jcmaster.c ****  * Special start-of-pass hook.
 738:fltk-1.3.4-1/jpeg/jcmaster.c ****  * This is called by jpeg_write_scanlines if call_pass_startup is TRUE.
 739:fltk-1.3.4-1/jpeg/jcmaster.c ****  * In single-pass processing, we need this hook because we don't want to
 740:fltk-1.3.4-1/jpeg/jcmaster.c ****  * write frame/scan headers during jpeg_start_compress; we want to let the
 741:fltk-1.3.4-1/jpeg/jcmaster.c ****  * application write COM markers etc. between jpeg_start_compress and the
 742:fltk-1.3.4-1/jpeg/jcmaster.c ****  * jpeg_write_scanlines loop.
 743:fltk-1.3.4-1/jpeg/jcmaster.c ****  * In multi-pass processing, this routine is not used.
 744:fltk-1.3.4-1/jpeg/jcmaster.c ****  */
 745:fltk-1.3.4-1/jpeg/jcmaster.c **** 
 746:fltk-1.3.4-1/jpeg/jcmaster.c **** METHODDEF(void)
 747:fltk-1.3.4-1/jpeg/jcmaster.c **** pass_startup (j_compress_ptr cinfo)
 748:fltk-1.3.4-1/jpeg/jcmaster.c **** {
 877              		.loc 1 748 1 is_stmt 1 view -0
 878              		.cfi_startproc
 879              		.loc 1 748 1 is_stmt 0 view .LVU269
 880 0000 F30F1EFA 		endbr64
 749:fltk-1.3.4-1/jpeg/jcmaster.c ****   cinfo->master->call_pass_startup = FALSE; /* reset flag so call only once */
 881              		.loc 1 749 3 is_stmt 1 view .LVU270
 748:fltk-1.3.4-1/jpeg/jcmaster.c ****   cinfo->master->call_pass_startup = FALSE; /* reset flag so call only once */
 882              		.loc 1 748 1 is_stmt 0 view .LVU271
 883 0004 55       		pushq	%rbp
 884              		.cfi_def_cfa_offset 16
 885              		.cfi_offset 6, -16
 886              		.loc 1 749 8 view .LVU272
 887 0005 488B87F0 		movq	496(%rdi), %rax
 887      010000
 748:fltk-1.3.4-1/jpeg/jcmaster.c ****   cinfo->master->call_pass_startup = FALSE; /* reset flag so call only once */
 888              		.loc 1 748 1 view .LVU273
 889 000c 4889FD   		movq	%rdi, %rbp
 890              		.loc 1 749 36 view .LVU274
 891 000f C7401800 		movl	$0, 24(%rax)
 891      000000
 750:fltk-1.3.4-1/jpeg/jcmaster.c **** 
 751:fltk-1.3.4-1/jpeg/jcmaster.c ****   (*cinfo->marker->write_frame_header) (cinfo);
 892              		.loc 1 751 3 is_stmt 1 view .LVU275
 893              		.loc 1 751 4 is_stmt 0 view .LVU276
 894 0016 488B8710 		movq	528(%rdi), %rax
 894      020000
 895 001d FF5008   		call	*8(%rax)
 896              	.LVL92:
 752:fltk-1.3.4-1/jpeg/jcmaster.c ****   (*cinfo->marker->write_scan_header) (cinfo);
 897              		.loc 1 752 3 is_stmt 1 view .LVU277
 898              		.loc 1 752 4 is_stmt 0 view .LVU278
 899 0020 488B8510 		movq	528(%rbp), %rax
 899      020000
 900 0027 4889EF   		movq	%rbp, %rdi
 753:fltk-1.3.4-1/jpeg/jcmaster.c **** }
 901              		.loc 1 753 1 view .LVU279
 902 002a 5D       		popq	%rbp
 903              		.cfi_def_cfa_offset 8
 904              	.LVL93:
 752:fltk-1.3.4-1/jpeg/jcmaster.c ****   (*cinfo->marker->write_scan_header) (cinfo);
 905              		.loc 1 752 4 view .LVU280
 906 002b 488B4010 		movq	16(%rax), %rax
 907 002f FFE0     		jmp	*%rax
 908              	.LVL94:
 752:fltk-1.3.4-1/jpeg/jcmaster.c ****   (*cinfo->marker->write_scan_header) (cinfo);
 909              		.loc 1 752 4 view .LVU281
 910              		.cfi_endproc
 911              	.LFE59:
 913              		.section	.text.finish_pass_master,"ax",@progbits
 914              		.p2align 4
 916              	finish_pass_master:
 917              	.LVL95:
 918              	.LFB60:
 754:fltk-1.3.4-1/jpeg/jcmaster.c **** 
 755:fltk-1.3.4-1/jpeg/jcmaster.c **** 
 756:fltk-1.3.4-1/jpeg/jcmaster.c **** /*
 757:fltk-1.3.4-1/jpeg/jcmaster.c ****  * Finish up at end of pass.
 758:fltk-1.3.4-1/jpeg/jcmaster.c ****  */
 759:fltk-1.3.4-1/jpeg/jcmaster.c **** 
 760:fltk-1.3.4-1/jpeg/jcmaster.c **** METHODDEF(void)
 761:fltk-1.3.4-1/jpeg/jcmaster.c **** finish_pass_master (j_compress_ptr cinfo)
 762:fltk-1.3.4-1/jpeg/jcmaster.c **** {
 919              		.loc 1 762 1 is_stmt 1 view -0
 920              		.cfi_startproc
 921              		.loc 1 762 1 is_stmt 0 view .LVU283
 922 0000 F30F1EFA 		endbr64
 763:fltk-1.3.4-1/jpeg/jcmaster.c ****   my_master_ptr master = (my_master_ptr) cinfo->master;
 923              		.loc 1 763 3 is_stmt 1 view .LVU284
 762:fltk-1.3.4-1/jpeg/jcmaster.c ****   my_master_ptr master = (my_master_ptr) cinfo->master;
 924              		.loc 1 762 1 is_stmt 0 view .LVU285
 925 0004 55       		pushq	%rbp
 926              		.cfi_def_cfa_offset 16
 927              		.cfi_offset 6, -16
 928 0005 53       		pushq	%rbx
 929              		.cfi_def_cfa_offset 24
 930              		.cfi_offset 3, -24
 931 0006 4889FB   		movq	%rdi, %rbx
 932 0009 4883EC08 		subq	$8, %rsp
 933              		.cfi_def_cfa_offset 32
 934              		.loc 1 763 17 view .LVU286
 935 000d 488BAFF0 		movq	496(%rdi), %rbp
 935      010000
 936              	.LVL96:
 764:fltk-1.3.4-1/jpeg/jcmaster.c **** 
 765:fltk-1.3.4-1/jpeg/jcmaster.c ****   /* The entropy coder always needs an end-of-pass call,
 766:fltk-1.3.4-1/jpeg/jcmaster.c ****    * either to analyze statistics or to flush its output buffer.
 767:fltk-1.3.4-1/jpeg/jcmaster.c ****    */
 768:fltk-1.3.4-1/jpeg/jcmaster.c ****   (*cinfo->entropy->finish_pass) (cinfo);
 937              		.loc 1 768 3 is_stmt 1 view .LVU287
 938              		.loc 1 768 4 is_stmt 0 view .LVU288
 939 0014 488B8730 		movq	560(%rdi), %rax
 939      020000
 940 001b FF5010   		call	*16(%rax)
 941              	.LVL97:
 769:fltk-1.3.4-1/jpeg/jcmaster.c **** 
 770:fltk-1.3.4-1/jpeg/jcmaster.c ****   /* Update state for next pass */
 771:fltk-1.3.4-1/jpeg/jcmaster.c ****   switch (master->pass_type) {
 942              		.loc 1 771 3 is_stmt 1 view .LVU289
 943              		.loc 1 771 17 is_stmt 0 view .LVU290
 944 001e 8B4520   		movl	32(%rbp), %eax
 945              		.loc 1 771 3 view .LVU291
 946 0021 83F801   		cmpl	$1, %eax
 947 0024 741A     		je	.L109
 948 0026 83F802   		cmpl	$2, %eax
 949 0029 7455     		je	.L110
 950 002b 85C0     		testl	%eax, %eax
 951 002d 7429     		je	.L114
 952              	.L111:
 772:fltk-1.3.4-1/jpeg/jcmaster.c ****   case main_pass:
 773:fltk-1.3.4-1/jpeg/jcmaster.c ****     /* next pass is either output of scan 0 (after optimization)
 774:fltk-1.3.4-1/jpeg/jcmaster.c ****      * or output of scan 1 (if no optimization).
 775:fltk-1.3.4-1/jpeg/jcmaster.c ****      */
 776:fltk-1.3.4-1/jpeg/jcmaster.c ****     master->pass_type = output_pass;
 777:fltk-1.3.4-1/jpeg/jcmaster.c ****     if (! cinfo->optimize_coding)
 778:fltk-1.3.4-1/jpeg/jcmaster.c ****       master->scan_number++;
 779:fltk-1.3.4-1/jpeg/jcmaster.c ****     break;
 780:fltk-1.3.4-1/jpeg/jcmaster.c ****   case huff_opt_pass:
 781:fltk-1.3.4-1/jpeg/jcmaster.c ****     /* next pass is always output of current scan */
 782:fltk-1.3.4-1/jpeg/jcmaster.c ****     master->pass_type = output_pass;
 783:fltk-1.3.4-1/jpeg/jcmaster.c ****     break;
 784:fltk-1.3.4-1/jpeg/jcmaster.c ****   case output_pass:
 785:fltk-1.3.4-1/jpeg/jcmaster.c ****     /* next pass is either optimization or output of next scan */
 786:fltk-1.3.4-1/jpeg/jcmaster.c ****     if (cinfo->optimize_coding)
 787:fltk-1.3.4-1/jpeg/jcmaster.c ****       master->pass_type = huff_opt_pass;
 788:fltk-1.3.4-1/jpeg/jcmaster.c ****     master->scan_number++;
 789:fltk-1.3.4-1/jpeg/jcmaster.c ****     break;
 790:fltk-1.3.4-1/jpeg/jcmaster.c ****   }
 791:fltk-1.3.4-1/jpeg/jcmaster.c **** 
 792:fltk-1.3.4-1/jpeg/jcmaster.c ****   master->pass_number++;
 953              		.loc 1 792 3 is_stmt 1 view .LVU292
 954              		.loc 1 792 22 is_stmt 0 view .LVU293
 955 002f 83452401 		addl	$1, 36(%rbp)
 793:fltk-1.3.4-1/jpeg/jcmaster.c **** }
 956              		.loc 1 793 1 view .LVU294
 957 0033 4883C408 		addq	$8, %rsp
 958              		.cfi_remember_state
 959              		.cfi_def_cfa_offset 24
 960 0037 5B       		popq	%rbx
 961              		.cfi_def_cfa_offset 16
 962              	.LVL98:
 963              		.loc 1 793 1 view .LVU295
 964 0038 5D       		popq	%rbp
 965              		.cfi_def_cfa_offset 8
 966              	.LVL99:
 967              		.loc 1 793 1 view .LVU296
 968 0039 C3       		ret
 969              	.LVL100:
 970 003a 660F1F44 		.p2align 4,,10
 970      0000
 971              		.p2align 3
 972              	.L109:
 973              		.cfi_restore_state
 782:fltk-1.3.4-1/jpeg/jcmaster.c ****     break;
 974              		.loc 1 782 5 is_stmt 1 view .LVU297
 792:fltk-1.3.4-1/jpeg/jcmaster.c **** }
 975              		.loc 1 792 22 is_stmt 0 view .LVU298
 976 0040 83452401 		addl	$1, 36(%rbp)
 782:fltk-1.3.4-1/jpeg/jcmaster.c ****     break;
 977              		.loc 1 782 23 view .LVU299
 978 0044 C7452002 		movl	$2, 32(%rbp)
 978      000000
 783:fltk-1.3.4-1/jpeg/jcmaster.c ****   case output_pass:
 979              		.loc 1 783 5 is_stmt 1 view .LVU300
 792:fltk-1.3.4-1/jpeg/jcmaster.c **** }
 980              		.loc 1 792 3 view .LVU301
 981              		.loc 1 793 1 is_stmt 0 view .LVU302
 982 004b 4883C408 		addq	$8, %rsp
 983              		.cfi_remember_state
 984              		.cfi_def_cfa_offset 24
 985 004f 5B       		popq	%rbx
 986              		.cfi_def_cfa_offset 16
 987              	.LVL101:
 988              		.loc 1 793 1 view .LVU303
 989 0050 5D       		popq	%rbp
 990              		.cfi_def_cfa_offset 8
 991              	.LVL102:
 992              		.loc 1 793 1 view .LVU304
 993 0051 C3       		ret
 994              	.LVL103:
 995              		.p2align 4,,10
 996 0052 660F1F44 		.p2align 3
 996      0000
 997              	.L114:
 998              		.cfi_restore_state
 776:fltk-1.3.4-1/jpeg/jcmaster.c ****     if (! cinfo->optimize_coding)
 999              		.loc 1 776 5 is_stmt 1 view .LVU305
 776:fltk-1.3.4-1/jpeg/jcmaster.c ****     if (! cinfo->optimize_coding)
 1000              		.loc 1 776 23 is_stmt 0 view .LVU306
 1001 0058 C7452002 		movl	$2, 32(%rbp)
 1001      000000
 777:fltk-1.3.4-1/jpeg/jcmaster.c ****       master->scan_number++;
 1002              		.loc 1 777 5 is_stmt 1 view .LVU307
 777:fltk-1.3.4-1/jpeg/jcmaster.c ****       master->scan_number++;
 1003              		.loc 1 777 8 is_stmt 0 view .LVU308
 1004 005f 8B932801 		movl	296(%rbx), %edx
 1004      0000
 1005 0065 85D2     		testl	%edx, %edx
 1006 0067 75C6     		jne	.L111
 1007              	.L112:
 788:fltk-1.3.4-1/jpeg/jcmaster.c ****     break;
 1008              		.loc 1 788 5 is_stmt 1 view .LVU309
 788:fltk-1.3.4-1/jpeg/jcmaster.c ****     break;
 1009              		.loc 1 788 24 is_stmt 0 view .LVU310
 1010 0069 83452C01 		addl	$1, 44(%rbp)
 789:fltk-1.3.4-1/jpeg/jcmaster.c ****   }
 1011              		.loc 1 789 5 is_stmt 1 view .LVU311
 1012              	.L115:
 792:fltk-1.3.4-1/jpeg/jcmaster.c **** }
 1013              		.loc 1 792 3 view .LVU312
 792:fltk-1.3.4-1/jpeg/jcmaster.c **** }
 1014              		.loc 1 792 22 is_stmt 0 view .LVU313
 1015 006d 83452401 		addl	$1, 36(%rbp)
 1016              		.loc 1 793 1 view .LVU314
 1017 0071 4883C408 		addq	$8, %rsp
 1018              		.cfi_remember_state
 1019              		.cfi_def_cfa_offset 24
 1020 0075 5B       		popq	%rbx
 1021              		.cfi_def_cfa_offset 16
 1022              	.LVL104:
 1023              		.loc 1 793 1 view .LVU315
 1024 0076 5D       		popq	%rbp
 1025              		.cfi_def_cfa_offset 8
 1026              	.LVL105:
 1027              		.loc 1 793 1 view .LVU316
 1028 0077 C3       		ret
 1029              	.LVL106:
 1030 0078 0F1F8400 		.p2align 4,,10
 1030      00000000 
 1031              		.p2align 3
 1032              	.L110:
 1033              		.cfi_restore_state
 786:fltk-1.3.4-1/jpeg/jcmaster.c ****       master->pass_type = huff_opt_pass;
 1034              		.loc 1 786 5 is_stmt 1 view .LVU317
 786:fltk-1.3.4-1/jpeg/jcmaster.c ****       master->pass_type = huff_opt_pass;
 1035              		.loc 1 786 8 is_stmt 0 view .LVU318
 1036 0080 8B832801 		movl	296(%rbx), %eax
 1036      0000
 1037 0086 85C0     		testl	%eax, %eax
 1038 0088 74DF     		je	.L112
 787:fltk-1.3.4-1/jpeg/jcmaster.c ****     master->scan_number++;
 1039              		.loc 1 787 7 is_stmt 1 view .LVU319
 788:fltk-1.3.4-1/jpeg/jcmaster.c ****     break;
 1040              		.loc 1 788 24 is_stmt 0 view .LVU320
 1041 008a 83452C01 		addl	$1, 44(%rbp)
 787:fltk-1.3.4-1/jpeg/jcmaster.c ****     master->scan_number++;
 1042              		.loc 1 787 25 view .LVU321
 1043 008e C7452001 		movl	$1, 32(%rbp)
 1043      000000
 788:fltk-1.3.4-1/jpeg/jcmaster.c ****     break;
 1044              		.loc 1 788 5 is_stmt 1 view .LVU322
 789:fltk-1.3.4-1/jpeg/jcmaster.c ****   }
 1045              		.loc 1 789 5 view .LVU323
 1046 0095 EBD6     		jmp	.L115
 1047              		.cfi_endproc
 1048              	.LFE60:
 1050              		.section	.text.per_scan_setup,"ax",@progbits
 1051              		.p2align 4
 1053              	per_scan_setup:
 1054              	.LVL107:
 1055              	.LFB57:
 569:fltk-1.3.4-1/jpeg/jcmaster.c ****   int ci, mcublks, tmp;
 1056              		.loc 1 569 1 view -0
 1057              		.cfi_startproc
 570:fltk-1.3.4-1/jpeg/jcmaster.c ****   jpeg_component_info *compptr;
 1058              		.loc 1 570 3 view .LVU325
 571:fltk-1.3.4-1/jpeg/jcmaster.c ****   
 1059              		.loc 1 571 3 view .LVU326
 573:fltk-1.3.4-1/jpeg/jcmaster.c ****     
 1060              		.loc 1 573 3 view .LVU327
 569:fltk-1.3.4-1/jpeg/jcmaster.c ****   int ci, mcublks, tmp;
 1061              		.loc 1 569 1 is_stmt 0 view .LVU328
 1062 0000 4156     		pushq	%r14
 1063              		.cfi_def_cfa_offset 16
 1064              		.cfi_offset 14, -16
 1065 0002 4155     		pushq	%r13
 1066              		.cfi_def_cfa_offset 24
 1067              		.cfi_offset 13, -24
 1068 0004 4154     		pushq	%r12
 1069              		.cfi_def_cfa_offset 32
 1070              		.cfi_offset 12, -32
 1071 0006 55       		pushq	%rbp
 1072              		.cfi_def_cfa_offset 40
 1073              		.cfi_offset 6, -40
 1074 0007 53       		pushq	%rbx
 1075              		.cfi_def_cfa_offset 48
 1076              		.cfi_offset 3, -48
 573:fltk-1.3.4-1/jpeg/jcmaster.c ****     
 1077              		.loc 1 573 12 view .LVU329
 1078 0008 8B877401 		movl	372(%rdi), %eax
 1078      0000
 569:fltk-1.3.4-1/jpeg/jcmaster.c ****   int ci, mcublks, tmp;
 1079              		.loc 1 569 1 view .LVU330
 1080 000e 4889FB   		movq	%rdi, %rbx
 573:fltk-1.3.4-1/jpeg/jcmaster.c ****     
 1081              		.loc 1 573 6 view .LVU331
 1082 0011 83F801   		cmpl	$1, %eax
 1083 0014 0F848E01 		je	.L135
 1083      0000
 602:fltk-1.3.4-1/jpeg/jcmaster.c ****       ERREXIT2(cinfo, JERR_COMPONENT_COUNT, cinfo->comps_in_scan,
 1084              		.loc 1 602 5 is_stmt 1 view .LVU332
 602:fltk-1.3.4-1/jpeg/jcmaster.c ****       ERREXIT2(cinfo, JERR_COMPONENT_COUNT, cinfo->comps_in_scan,
 1085              		.loc 1 602 35 is_stmt 0 view .LVU333
 1086 001a 83E801   		subl	$1, %eax
 602:fltk-1.3.4-1/jpeg/jcmaster.c ****       ERREXIT2(cinfo, JERR_COMPONENT_COUNT, cinfo->comps_in_scan,
 1087              		.loc 1 602 8 view .LVU334
 1088 001d 83F803   		cmpl	$3, %eax
 1089 0020 0F875201 		ja	.L136
 1089      0000
 1090              	.LVL108:
 1091              	.L120:
 607:fltk-1.3.4-1/jpeg/jcmaster.c ****       jdiv_round_up((long) cinfo->jpeg_width,
 1092              		.loc 1 607 5 is_stmt 1 view .LVU335
 609:fltk-1.3.4-1/jpeg/jcmaster.c ****     cinfo->MCU_rows_in_scan = (JDIMENSION)
 1093              		.loc 1 609 40 is_stmt 0 view .LVU336
 1094 0026 8BB36001 		movl	352(%rbx), %esi
 1094      0000
 608:fltk-1.3.4-1/jpeg/jcmaster.c **** 		    (long) (cinfo->max_h_samp_factor * cinfo->block_size));
 1095              		.loc 1 608 7 view .LVU337
 1096 002c 8B7B50   		movl	80(%rbx), %edi
 616:fltk-1.3.4-1/jpeg/jcmaster.c ****       compptr = cinfo->cur_comp_info[ci];
 1097              		.loc 1 616 5 view .LVU338
 1098 002f 4531E4   		xorl	%r12d, %r12d
 1099 0032 4C8D7304 		leaq	4(%rbx), %r14
 609:fltk-1.3.4-1/jpeg/jcmaster.c ****     cinfo->MCU_rows_in_scan = (JDIMENSION)
 1100              		.loc 1 609 40 view .LVU339
 1101 0036 0FAFB3DC 		imull	476(%rbx), %esi
 1101      010000
 608:fltk-1.3.4-1/jpeg/jcmaster.c **** 		    (long) (cinfo->max_h_samp_factor * cinfo->block_size));
 1102              		.loc 1 608 7 view .LVU340
 1103 003d 4863F6   		movslq	%esi, %rsi
 1104 0040 E8000000 		call	jdiv_round_up@PLT
 1104      00
 1105              	.LVL109:
 612:fltk-1.3.4-1/jpeg/jcmaster.c ****     
 1106              		.loc 1 612 40 view .LVU341
 1107 0045 8BB36401 		movl	356(%rbx), %esi
 1107      0000
 611:fltk-1.3.4-1/jpeg/jcmaster.c **** 		    (long) (cinfo->max_v_samp_factor * cinfo->block_size));
 1108              		.loc 1 611 7 view .LVU342
 1109 004b 8B7B54   		movl	84(%rbx), %edi
 612:fltk-1.3.4-1/jpeg/jcmaster.c ****     
 1110              		.loc 1 612 40 view .LVU343
 1111 004e 0FAFB3DC 		imull	476(%rbx), %esi
 1111      010000
 607:fltk-1.3.4-1/jpeg/jcmaster.c ****       jdiv_round_up((long) cinfo->jpeg_width,
 1112              		.loc 1 607 27 view .LVU344
 1113 0055 89839801 		movl	%eax, 408(%rbx)
 1113      0000
 610:fltk-1.3.4-1/jpeg/jcmaster.c ****       jdiv_round_up((long) cinfo->jpeg_height,
 1114              		.loc 1 610 5 is_stmt 1 view .LVU345
 611:fltk-1.3.4-1/jpeg/jcmaster.c **** 		    (long) (cinfo->max_v_samp_factor * cinfo->block_size));
 1115              		.loc 1 611 7 is_stmt 0 view .LVU346
 1116 005b 4863F6   		movslq	%esi, %rsi
 1117 005e E8000000 		call	jdiv_round_up@PLT
 1117      00
 1118              	.LVL110:
 614:fltk-1.3.4-1/jpeg/jcmaster.c ****     
 1119              		.loc 1 614 26 view .LVU347
 1120 0063 C783A001 		movl	$0, 416(%rbx)
 1120      00000000 
 1120      0000
 610:fltk-1.3.4-1/jpeg/jcmaster.c ****       jdiv_round_up((long) cinfo->jpeg_height,
 1121              		.loc 1 610 31 view .LVU348
 1122 006d 89839C01 		movl	%eax, 412(%rbx)
 1122      0000
 614:fltk-1.3.4-1/jpeg/jcmaster.c ****     
 1123              		.loc 1 614 5 is_stmt 1 view .LVU349
 616:fltk-1.3.4-1/jpeg/jcmaster.c ****       compptr = cinfo->cur_comp_info[ci];
 1124              		.loc 1 616 5 view .LVU350
 1125              	.LVL111:
 616:fltk-1.3.4-1/jpeg/jcmaster.c ****       compptr = cinfo->cur_comp_info[ci];
 1126              		.loc 1 616 18 view .LVU351
 616:fltk-1.3.4-1/jpeg/jcmaster.c ****       compptr = cinfo->cur_comp_info[ci];
 1127              		.loc 1 616 5 is_stmt 0 view .LVU352
 1128 0073 8B837401 		movl	372(%rbx), %eax
 1128      0000
 1129 0079 85C0     		testl	%eax, %eax
 1130 007b 0F8EC100 		jle	.L119
 1130      0000
 1131              	.LVL112:
 1132              		.p2align 4,,10
 1133 0081 0F1F8000 		.p2align 3
 1133      000000
 1134              	.L121:
 617:fltk-1.3.4-1/jpeg/jcmaster.c ****       /* Sampling factors give # of blocks of component in each MCU */
 1135              		.loc 1 617 15 view .LVU353
 1136 0088 4A8B8CE3 		movq	376(%rbx,%r12,8), %rcx
 1136      78010000 
 624:fltk-1.3.4-1/jpeg/jcmaster.c ****       if (tmp == 0) tmp = compptr->MCU_width;
 1137              		.loc 1 624 45 view .LVU354
 1138 0090 31D2     		xorl	%edx, %edx
 1139 0092 4489E5   		movl	%r12d, %ebp
 1140              	.LVL113:
 617:fltk-1.3.4-1/jpeg/jcmaster.c ****       /* Sampling factors give # of blocks of component in each MCU */
 1141              		.loc 1 617 7 is_stmt 1 view .LVU355
 619:fltk-1.3.4-1/jpeg/jcmaster.c ****       compptr->MCU_height = compptr->v_samp_factor;
 1142              		.loc 1 619 7 view .LVU356
 619:fltk-1.3.4-1/jpeg/jcmaster.c ****       compptr->MCU_height = compptr->v_samp_factor;
 1143              		.loc 1 619 35 is_stmt 0 view .LVU357
 1144 0095 8B7108   		movl	8(%rcx), %esi
 622:fltk-1.3.4-1/jpeg/jcmaster.c ****       /* Figure number of non-dummy blocks in last MCU column & row */
 1145              		.loc 1 622 54 view .LVU358
 1146 0098 8B4124   		movl	36(%rcx), %eax
 620:fltk-1.3.4-1/jpeg/jcmaster.c ****       compptr->MCU_blocks = compptr->MCU_width * compptr->MCU_height;
 1147              		.loc 1 620 36 view .LVU359
 1148 009b 8B790C   		movl	12(%rcx), %edi
 622:fltk-1.3.4-1/jpeg/jcmaster.c ****       /* Figure number of non-dummy blocks in last MCU column & row */
 1149              		.loc 1 622 54 view .LVU360
 1150 009e 0FAFC6   		imull	%esi, %eax
 621:fltk-1.3.4-1/jpeg/jcmaster.c ****       compptr->MCU_sample_width = compptr->MCU_width * compptr->DCT_h_scaled_size;
 1151              		.loc 1 621 48 view .LVU361
 1152 00a1 4189F5   		movl	%esi, %r13d
 619:fltk-1.3.4-1/jpeg/jcmaster.c ****       compptr->MCU_height = compptr->v_samp_factor;
 1153              		.loc 1 619 26 view .LVU362
 1154 00a4 897138   		movl	%esi, 56(%rcx)
 620:fltk-1.3.4-1/jpeg/jcmaster.c ****       compptr->MCU_blocks = compptr->MCU_width * compptr->MCU_height;
 1155              		.loc 1 620 7 is_stmt 1 view .LVU363
 621:fltk-1.3.4-1/jpeg/jcmaster.c ****       compptr->MCU_sample_width = compptr->MCU_width * compptr->DCT_h_scaled_size;
 1156              		.loc 1 621 48 is_stmt 0 view .LVU364
 1157 00a7 440FAFEF 		imull	%edi, %r13d
 620:fltk-1.3.4-1/jpeg/jcmaster.c ****       compptr->MCU_blocks = compptr->MCU_width * compptr->MCU_height;
 1158              		.loc 1 620 27 view .LVU365
 1159 00ab 89793C   		movl	%edi, 60(%rcx)
 621:fltk-1.3.4-1/jpeg/jcmaster.c ****       compptr->MCU_sample_width = compptr->MCU_width * compptr->DCT_h_scaled_size;
 1160              		.loc 1 621 7 is_stmt 1 view .LVU366
 622:fltk-1.3.4-1/jpeg/jcmaster.c ****       /* Figure number of non-dummy blocks in last MCU column & row */
 1161              		.loc 1 622 33 is_stmt 0 view .LVU367
 1162 00ae 894144   		movl	%eax, 68(%rcx)
 624:fltk-1.3.4-1/jpeg/jcmaster.c ****       if (tmp == 0) tmp = compptr->MCU_width;
 1163              		.loc 1 624 45 view .LVU368
 1164 00b1 8B411C   		movl	28(%rcx), %eax
 621:fltk-1.3.4-1/jpeg/jcmaster.c ****       compptr->MCU_sample_width = compptr->MCU_width * compptr->DCT_h_scaled_size;
 1165              		.loc 1 621 27 view .LVU369
 1166 00b4 44896940 		movl	%r13d, 64(%rcx)
 622:fltk-1.3.4-1/jpeg/jcmaster.c ****       /* Figure number of non-dummy blocks in last MCU column & row */
 1167              		.loc 1 622 7 is_stmt 1 view .LVU370
 624:fltk-1.3.4-1/jpeg/jcmaster.c ****       if (tmp == 0) tmp = compptr->MCU_width;
 1168              		.loc 1 624 7 view .LVU371
 624:fltk-1.3.4-1/jpeg/jcmaster.c ****       if (tmp == 0) tmp = compptr->MCU_width;
 1169              		.loc 1 624 45 is_stmt 0 view .LVU372
 1170 00b8 F7F6     		divl	%esi
 1171              	.LVL114:
 625:fltk-1.3.4-1/jpeg/jcmaster.c ****       compptr->last_col_width = tmp;
 1172              		.loc 1 625 7 is_stmt 1 view .LVU373
 627:fltk-1.3.4-1/jpeg/jcmaster.c ****       if (tmp == 0) tmp = compptr->MCU_height;
 1173              		.loc 1 627 46 is_stmt 0 view .LVU374
 1174 00ba 8B4120   		movl	32(%rcx), %eax
 625:fltk-1.3.4-1/jpeg/jcmaster.c ****       compptr->last_col_width = tmp;
 1175              		.loc 1 625 25 view .LVU375
 1176 00bd 85D2     		testl	%edx, %edx
 1177 00bf 0F44D6   		cmove	%esi, %edx
 1178              	.LVL115:
 626:fltk-1.3.4-1/jpeg/jcmaster.c ****       tmp = (int) (compptr->height_in_blocks % compptr->MCU_height);
 1179              		.loc 1 626 7 is_stmt 1 view .LVU376
 626:fltk-1.3.4-1/jpeg/jcmaster.c ****       tmp = (int) (compptr->height_in_blocks % compptr->MCU_height);
 1180              		.loc 1 626 31 is_stmt 0 view .LVU377
 1181 00c2 895148   		movl	%edx, 72(%rcx)
 627:fltk-1.3.4-1/jpeg/jcmaster.c ****       if (tmp == 0) tmp = compptr->MCU_height;
 1182              		.loc 1 627 7 is_stmt 1 view .LVU378
 627:fltk-1.3.4-1/jpeg/jcmaster.c ****       if (tmp == 0) tmp = compptr->MCU_height;
 1183              		.loc 1 627 46 is_stmt 0 view .LVU379
 1184 00c5 31D2     		xorl	%edx, %edx
 1185              	.LVL116:
 627:fltk-1.3.4-1/jpeg/jcmaster.c ****       if (tmp == 0) tmp = compptr->MCU_height;
 1186              		.loc 1 627 46 view .LVU380
 1187 00c7 F7F7     		divl	%edi
 1188              	.LVL117:
 628:fltk-1.3.4-1/jpeg/jcmaster.c ****       compptr->last_row_height = tmp;
 1189              		.loc 1 628 7 is_stmt 1 view .LVU381
 628:fltk-1.3.4-1/jpeg/jcmaster.c ****       compptr->last_row_height = tmp;
 1190              		.loc 1 628 25 is_stmt 0 view .LVU382
 1191 00c9 85D2     		testl	%edx, %edx
 1192 00cb 0F44D7   		cmove	%edi, %edx
 1193              	.LVL118:
 629:fltk-1.3.4-1/jpeg/jcmaster.c ****       /* Prepare array describing MCU composition */
 1194              		.loc 1 629 7 is_stmt 1 view .LVU383
 629:fltk-1.3.4-1/jpeg/jcmaster.c ****       /* Prepare array describing MCU composition */
 1195              		.loc 1 629 32 is_stmt 0 view .LVU384
 1196 00ce 89514C   		movl	%edx, 76(%rcx)
 631:fltk-1.3.4-1/jpeg/jcmaster.c ****       if (cinfo->blocks_in_MCU + mcublks > C_MAX_BLOCKS_IN_MCU)
 1197              		.loc 1 631 7 is_stmt 1 view .LVU385
 1198              	.LVL119:
 632:fltk-1.3.4-1/jpeg/jcmaster.c **** 	ERREXIT(cinfo, JERR_BAD_MCU_SIZE);
 1199              		.loc 1 632 7 view .LVU386
 632:fltk-1.3.4-1/jpeg/jcmaster.c **** 	ERREXIT(cinfo, JERR_BAD_MCU_SIZE);
 1200              		.loc 1 632 32 is_stmt 0 view .LVU387
 1201 00d1 8B83A001 		movl	416(%rbx), %eax
 1201      0000
 1202 00d7 4401E8   		addl	%r13d, %eax
 632:fltk-1.3.4-1/jpeg/jcmaster.c **** 	ERREXIT(cinfo, JERR_BAD_MCU_SIZE);
 1203              		.loc 1 632 10 view .LVU388
 1204 00da 83F80A   		cmpl	$10, %eax
 1205 00dd 7E12     		jle	.L124
 633:fltk-1.3.4-1/jpeg/jcmaster.c ****       while (mcublks-- > 0) {
 1206              		.loc 1 633 2 is_stmt 1 view .LVU389
 1207 00df 488B03   		movq	(%rbx), %rax
 1208 00e2 4889DF   		movq	%rbx, %rdi
 1209 00e5 C740280E 		movl	$14, 40(%rax)
 1209      000000
 1210 00ec 488B03   		movq	(%rbx), %rax
 1211 00ef FF10     		call	*(%rax)
 1212              	.LVL120:
 1213              	.L124:
 634:fltk-1.3.4-1/jpeg/jcmaster.c **** 	cinfo->MCU_membership[cinfo->blocks_in_MCU++] = ci;
 1214              		.loc 1 634 13 view .LVU390
 634:fltk-1.3.4-1/jpeg/jcmaster.c **** 	cinfo->MCU_membership[cinfo->blocks_in_MCU++] = ci;
 1215              		.loc 1 634 21 is_stmt 0 view .LVU391
 1216 00f1 418D4DFF 		leal	-1(%r13), %ecx
 1217              	.LVL121:
 634:fltk-1.3.4-1/jpeg/jcmaster.c **** 	cinfo->MCU_membership[cinfo->blocks_in_MCU++] = ci;
 1218              		.loc 1 634 13 view .LVU392
 1219 00f5 4585ED   		testl	%r13d, %r13d
 1220 00f8 7E37     		jle	.L125
 1221 00fa 4863BBA0 		movslq	416(%rbx), %rdi
 1221      010000
 1222 0101 89CA     		movl	%ecx, %edx
 1223 0103 4801FA   		addq	%rdi, %rdx
 1224 0106 4889FE   		movq	%rdi, %rsi
 1225 0109 488D04BB 		leaq	(%rbx,%rdi,4), %rax
 1226 010d 498D1496 		leaq	(%r14,%rdx,4), %rdx
 1227              	.LVL122:
 1228              		.p2align 4,,10
 1229 0111 0F1F8000 		.p2align 3
 1229      000000
 1230              	.L126:
 635:fltk-1.3.4-1/jpeg/jcmaster.c ****       }
 1231              		.loc 1 635 2 is_stmt 1 view .LVU393
 635:fltk-1.3.4-1/jpeg/jcmaster.c ****       }
 1232              		.loc 1 635 48 is_stmt 0 view .LVU394
 1233 0118 89A8A401 		movl	%ebp, 420(%rax)
 1233      0000
 634:fltk-1.3.4-1/jpeg/jcmaster.c **** 	cinfo->MCU_membership[cinfo->blocks_in_MCU++] = ci;
 1234              		.loc 1 634 13 is_stmt 1 view .LVU395
 1235 011e 4883C004 		addq	$4, %rax
 1236 0122 4839C2   		cmpq	%rax, %rdx
 1237 0125 75F1     		jne	.L126
 634:fltk-1.3.4-1/jpeg/jcmaster.c **** 	cinfo->MCU_membership[cinfo->blocks_in_MCU++] = ci;
 1238              		.loc 1 634 13 is_stmt 0 view .LVU396
 1239 0127 8D440E01 		leal	1(%rsi,%rcx), %eax
 1240 012b 8983A001 		movl	%eax, 416(%rbx)
 1240      0000
 1241              	.L125:
 616:fltk-1.3.4-1/jpeg/jcmaster.c ****       compptr = cinfo->cur_comp_info[ci];
 1242              		.loc 1 616 45 is_stmt 1 discriminator 2 view .LVU397
 1243              	.LVL123:
 616:fltk-1.3.4-1/jpeg/jcmaster.c ****       compptr = cinfo->cur_comp_info[ci];
 1244              		.loc 1 616 18 discriminator 2 view .LVU398
 1245 0131 4983C401 		addq	$1, %r12
 616:fltk-1.3.4-1/jpeg/jcmaster.c ****       compptr = cinfo->cur_comp_info[ci];
 1246              		.loc 1 616 5 is_stmt 0 discriminator 2 view .LVU399
 1247 0135 4439A374 		cmpl	%r12d, 372(%rbx)
 1247      010000
 1248 013c 0F8F46FF 		jg	.L121
 1248      FFFF
 1249              	.LVL124:
 1250              	.L119:
 643:fltk-1.3.4-1/jpeg/jcmaster.c ****     long nominal = (long) cinfo->restart_in_rows * (long) cinfo->MCUs_per_row;
 1251              		.loc 1 643 3 is_stmt 1 view .LVU400
 643:fltk-1.3.4-1/jpeg/jcmaster.c ****     long nominal = (long) cinfo->restart_in_rows * (long) cinfo->MCUs_per_row;
 1252              		.loc 1 643 12 is_stmt 0 view .LVU401
 1253 0142 48639340 		movslq	320(%rbx), %rdx
 1253      010000
 643:fltk-1.3.4-1/jpeg/jcmaster.c ****     long nominal = (long) cinfo->restart_in_rows * (long) cinfo->MCUs_per_row;
 1254              		.loc 1 643 6 view .LVU402
 1255 0149 85D2     		testl	%edx, %edx
 1256 014b 7E1F     		jle	.L116
 1257              	.LBB6:
 644:fltk-1.3.4-1/jpeg/jcmaster.c ****     cinfo->restart_interval = (unsigned int) MIN(nominal, 65535L);
 1258              		.loc 1 644 5 is_stmt 1 view .LVU403
 644:fltk-1.3.4-1/jpeg/jcmaster.c ****     cinfo->restart_interval = (unsigned int) MIN(nominal, 65535L);
 1259              		.loc 1 644 52 is_stmt 0 view .LVU404
 1260 014d 8B839801 		movl	408(%rbx), %eax
 1260      0000
 644:fltk-1.3.4-1/jpeg/jcmaster.c ****     cinfo->restart_interval = (unsigned int) MIN(nominal, 65535L);
 1261              		.loc 1 644 10 view .LVU405
 1262 0153 480FAFC2 		imulq	%rdx, %rax
 1263              	.LVL125:
 645:fltk-1.3.4-1/jpeg/jcmaster.c ****   }
 1264              		.loc 1 645 5 is_stmt 1 view .LVU406
 645:fltk-1.3.4-1/jpeg/jcmaster.c ****   }
 1265              		.loc 1 645 31 is_stmt 0 view .LVU407
 1266 0157 BAFFFF00 		movl	$65535, %edx
 1266      00
 1267 015c 483DFFFF 		cmpq	$65535, %rax
 1267      0000
 1268 0162 480F4DC2 		cmovge	%rdx, %rax
 1269              	.LVL126:
 645:fltk-1.3.4-1/jpeg/jcmaster.c ****   }
 1270              		.loc 1 645 29 view .LVU408
 1271 0166 89833C01 		movl	%eax, 316(%rbx)
 1271      0000
 1272              	.LVL127:
 1273              	.L116:
 645:fltk-1.3.4-1/jpeg/jcmaster.c ****   }
 1274              		.loc 1 645 29 view .LVU409
 1275              	.LBE6:
 647:fltk-1.3.4-1/jpeg/jcmaster.c **** 
 1276              		.loc 1 647 1 view .LVU410
 1277 016c 5B       		popq	%rbx
 1278              		.cfi_remember_state
 1279              		.cfi_def_cfa_offset 40
 1280              	.LVL128:
 647:fltk-1.3.4-1/jpeg/jcmaster.c **** 
 1281              		.loc 1 647 1 view .LVU411
 1282 016d 5D       		popq	%rbp
 1283              		.cfi_def_cfa_offset 32
 1284 016e 415C     		popq	%r12
 1285              		.cfi_def_cfa_offset 24
 1286 0170 415D     		popq	%r13
 1287              		.cfi_def_cfa_offset 16
 1288 0172 415E     		popq	%r14
 1289              		.cfi_def_cfa_offset 8
 1290 0174 C3       		ret
 1291              	.LVL129:
 1292              		.p2align 4,,10
 1293 0175 0F1F00   		.p2align 3
 1294              	.L136:
 1295              		.cfi_restore_state
 603:fltk-1.3.4-1/jpeg/jcmaster.c **** 	       MAX_COMPS_IN_SCAN);
 1296              		.loc 1 603 7 is_stmt 1 view .LVU412
 1297 0178 488B07   		movq	(%rdi), %rax
 1298 017b C740281B 		movl	$27, 40(%rax)
 1298      000000
 1299 0182 488B07   		movq	(%rdi), %rax
 1300 0185 8B977401 		movl	372(%rdi), %edx
 1300      0000
 1301 018b 89502C   		movl	%edx, 44(%rax)
 1302 018e 488B07   		movq	(%rdi), %rax
 1303 0191 C7403004 		movl	$4, 48(%rax)
 1303      000000
 1304 0198 488B07   		movq	(%rdi), %rax
 1305 019b FF10     		call	*(%rax)
 1306              	.LVL130:
 1307 019d E984FEFF 		jmp	.L120
 1307      FF
 1308              		.p2align 4,,10
 1309 01a2 660F1F44 		.p2align 3
 1309      0000
 1310              	.L135:
 576:fltk-1.3.4-1/jpeg/jcmaster.c ****     
 1311              		.loc 1 576 5 view .LVU413
 576:fltk-1.3.4-1/jpeg/jcmaster.c ****     
 1312              		.loc 1 576 13 is_stmt 0 view .LVU414
 1313 01a8 488B8F78 		movq	376(%rdi), %rcx
 1313      010000
 1314              	.LVL131:
 579:fltk-1.3.4-1/jpeg/jcmaster.c ****     cinfo->MCU_rows_in_scan = compptr->height_in_blocks;
 1315              		.loc 1 579 5 is_stmt 1 view .LVU415
 579:fltk-1.3.4-1/jpeg/jcmaster.c ****     cinfo->MCU_rows_in_scan = compptr->height_in_blocks;
 1316              		.loc 1 579 34 is_stmt 0 view .LVU416
 1317 01af 8B411C   		movl	28(%rcx), %eax
 579:fltk-1.3.4-1/jpeg/jcmaster.c ****     cinfo->MCU_rows_in_scan = compptr->height_in_blocks;
 1318              		.loc 1 579 25 view .LVU417
 1319 01b2 89879801 		movl	%eax, 408(%rdi)
 1319      0000
 580:fltk-1.3.4-1/jpeg/jcmaster.c ****     
 1320              		.loc 1 580 5 is_stmt 1 view .LVU418
 580:fltk-1.3.4-1/jpeg/jcmaster.c ****     
 1321              		.loc 1 580 38 is_stmt 0 view .LVU419
 1322 01b8 8B4120   		movl	32(%rcx), %eax
 580:fltk-1.3.4-1/jpeg/jcmaster.c ****     
 1323              		.loc 1 580 29 view .LVU420
 1324 01bb 89879C01 		movl	%eax, 412(%rdi)
 1324      0000
 583:fltk-1.3.4-1/jpeg/jcmaster.c ****     compptr->MCU_height = 1;
 1325              		.loc 1 583 5 is_stmt 1 view .LVU421
 584:fltk-1.3.4-1/jpeg/jcmaster.c ****     compptr->MCU_blocks = 1;
 1326              		.loc 1 584 5 view .LVU422
 585:fltk-1.3.4-1/jpeg/jcmaster.c ****     compptr->MCU_sample_width = compptr->DCT_h_scaled_size;
 1327              		.loc 1 585 5 view .LVU423
 586:fltk-1.3.4-1/jpeg/jcmaster.c ****     compptr->last_col_width = 1;
 1328              		.loc 1 586 31 is_stmt 0 view .LVU424
 1329 01c1 8B5124   		movl	36(%rcx), %edx
 583:fltk-1.3.4-1/jpeg/jcmaster.c ****     compptr->MCU_height = 1;
 1330              		.loc 1 583 24 view .LVU425
 1331 01c4 48BF0100 		movabsq	$4294967297, %rdi
 1331      00000100 
 1331      0000
 591:fltk-1.3.4-1/jpeg/jcmaster.c ****     if (tmp == 0) tmp = compptr->v_samp_factor;
 1332              		.loc 1 591 53 view .LVU426
 1333 01ce 8B710C   		movl	12(%rcx), %esi
 583:fltk-1.3.4-1/jpeg/jcmaster.c ****     compptr->MCU_height = 1;
 1334              		.loc 1 583 24 view .LVU427
 1335 01d1 48897938 		movq	%rdi, 56(%rcx)
 586:fltk-1.3.4-1/jpeg/jcmaster.c ****     compptr->last_col_width = 1;
 1336              		.loc 1 586 31 view .LVU428
 1337 01d5 895144   		movl	%edx, 68(%rcx)
 591:fltk-1.3.4-1/jpeg/jcmaster.c ****     if (tmp == 0) tmp = compptr->v_samp_factor;
 1338              		.loc 1 591 44 view .LVU429
 1339 01d8 31D2     		xorl	%edx, %edx
 1340 01da F7F6     		divl	%esi
 585:fltk-1.3.4-1/jpeg/jcmaster.c ****     compptr->MCU_sample_width = compptr->DCT_h_scaled_size;
 1341              		.loc 1 585 25 view .LVU430
 1342 01dc C7414001 		movl	$1, 64(%rcx)
 1342      000000
 586:fltk-1.3.4-1/jpeg/jcmaster.c ****     compptr->last_col_width = 1;
 1343              		.loc 1 586 5 is_stmt 1 view .LVU431
 587:fltk-1.3.4-1/jpeg/jcmaster.c ****     /* For noninterleaved scans, it is convenient to define last_row_height
 1344              		.loc 1 587 5 view .LVU432
 587:fltk-1.3.4-1/jpeg/jcmaster.c ****     /* For noninterleaved scans, it is convenient to define last_row_height
 1345              		.loc 1 587 29 is_stmt 0 view .LVU433
 1346 01e3 C7414801 		movl	$1, 72(%rcx)
 1346      000000
 591:fltk-1.3.4-1/jpeg/jcmaster.c ****     if (tmp == 0) tmp = compptr->v_samp_factor;
 1347              		.loc 1 591 5 is_stmt 1 view .LVU434
 1348              	.LVL132:
 592:fltk-1.3.4-1/jpeg/jcmaster.c ****     compptr->last_row_height = tmp;
 1349              		.loc 1 592 5 view .LVU435
 592:fltk-1.3.4-1/jpeg/jcmaster.c ****     compptr->last_row_height = tmp;
 1350              		.loc 1 592 23 is_stmt 0 view .LVU436
 1351 01ea 85D2     		testl	%edx, %edx
 1352 01ec 0F44D6   		cmove	%esi, %edx
 1353              	.LVL133:
 593:fltk-1.3.4-1/jpeg/jcmaster.c ****     
 1354              		.loc 1 593 5 is_stmt 1 view .LVU437
 593:fltk-1.3.4-1/jpeg/jcmaster.c ****     
 1355              		.loc 1 593 30 is_stmt 0 view .LVU438
 1356 01ef 89514C   		movl	%edx, 76(%rcx)
 596:fltk-1.3.4-1/jpeg/jcmaster.c ****     cinfo->MCU_membership[0] = 0;
 1357              		.loc 1 596 5 is_stmt 1 view .LVU439
 597:fltk-1.3.4-1/jpeg/jcmaster.c ****     
 1358              		.loc 1 597 5 view .LVU440
 596:fltk-1.3.4-1/jpeg/jcmaster.c ****     cinfo->MCU_membership[0] = 0;
 1359              		.loc 1 596 26 is_stmt 0 view .LVU441
 1360 01f2 48C783A0 		movq	$1, 416(%rbx)
 1360      01000001 
 1360      000000
 1361 01fd E940FFFF 		jmp	.L119
 1361      FF
 1362              		.cfi_endproc
 1363              	.LFE57:
 1365              		.section	.text.prepare_for_pass,"ax",@progbits
 1366              		.p2align 4
 1368              	prepare_for_pass:
 1369              	.LVL134:
 1370              	.LFB58:
 660:fltk-1.3.4-1/jpeg/jcmaster.c ****   my_master_ptr master = (my_master_ptr) cinfo->master;
 1371              		.loc 1 660 1 is_stmt 1 view -0
 1372              		.cfi_startproc
 660:fltk-1.3.4-1/jpeg/jcmaster.c ****   my_master_ptr master = (my_master_ptr) cinfo->master;
 1373              		.loc 1 660 1 is_stmt 0 view .LVU443
 1374 0000 F30F1EFA 		endbr64
 661:fltk-1.3.4-1/jpeg/jcmaster.c **** 
 1375              		.loc 1 661 3 is_stmt 1 view .LVU444
 660:fltk-1.3.4-1/jpeg/jcmaster.c ****   my_master_ptr master = (my_master_ptr) cinfo->master;
 1376              		.loc 1 660 1 is_stmt 0 view .LVU445
 1377 0004 4154     		pushq	%r12
 1378              		.cfi_def_cfa_offset 16
 1379              		.cfi_offset 12, -16
 1380 0006 55       		pushq	%rbp
 1381              		.cfi_def_cfa_offset 24
 1382              		.cfi_offset 6, -24
 1383 0007 53       		pushq	%rbx
 1384              		.cfi_def_cfa_offset 32
 1385              		.cfi_offset 3, -32
 661:fltk-1.3.4-1/jpeg/jcmaster.c **** 
 1386              		.loc 1 661 17 view .LVU446
 1387 0008 4C8BA7F0 		movq	496(%rdi), %r12
 1387      010000
 1388              	.LVL135:
 663:fltk-1.3.4-1/jpeg/jcmaster.c ****   case main_pass:
 1389              		.loc 1 663 3 is_stmt 1 view .LVU447
 660:fltk-1.3.4-1/jpeg/jcmaster.c ****   my_master_ptr master = (my_master_ptr) cinfo->master;
 1390              		.loc 1 660 1 is_stmt 0 view .LVU448
 1391 000f 4889FB   		movq	%rdi, %rbx
 663:fltk-1.3.4-1/jpeg/jcmaster.c ****   case main_pass:
 1392              		.loc 1 663 17 view .LVU449
 1393 0012 418B6C24 		movl	32(%r12), %ebp
 1393      20
 663:fltk-1.3.4-1/jpeg/jcmaster.c ****   case main_pass:
 1394              		.loc 1 663 3 view .LVU450
 1395 0017 83FD01   		cmpl	$1, %ebp
 1396 001a 745C     		je	.L138
 1397 001c 83FD02   		cmpl	$2, %ebp
 1398 001f 0F848B00 		je	.L139
 1398      0000
 1399 0025 85ED     		testl	%ebp, %ebp
 1400 0027 0F84E300 		je	.L158
 1400      0000
 723:fltk-1.3.4-1/jpeg/jcmaster.c ****   }
 1401              		.loc 1 723 5 is_stmt 1 view .LVU451
 1402 002d 488B07   		movq	(%rdi), %rax
 1403 0030 C7402831 		movl	$49, 40(%rax)
 1403      000000
 1404 0037 488B07   		movq	(%rdi), %rax
 1405 003a FF10     		call	*(%rax)
 1406              	.LVL136:
 1407              	.L144:
 726:fltk-1.3.4-1/jpeg/jcmaster.c **** 
 1408              		.loc 1 726 3 view .LVU452
 726:fltk-1.3.4-1/jpeg/jcmaster.c **** 
 1409              		.loc 1 726 74 is_stmt 0 view .LVU453
 1410 003c 418B4424 		movl	40(%r12), %eax
 1410      28
 726:fltk-1.3.4-1/jpeg/jcmaster.c **** 
 1411              		.loc 1 726 37 view .LVU454
 1412 0041 418B5424 		movl	36(%r12), %edx
 1412      24
 726:fltk-1.3.4-1/jpeg/jcmaster.c **** 
 1413              		.loc 1 726 74 view .LVU455
 1414 0046 83E801   		subl	$1, %eax
 726:fltk-1.3.4-1/jpeg/jcmaster.c **** 
 1415              		.loc 1 726 51 view .LVU456
 1416 0049 39D0     		cmpl	%edx, %eax
 1417 004b 0F94C0   		sete	%al
 1418 004e 0FB6C0   		movzbl	%al, %eax
 726:fltk-1.3.4-1/jpeg/jcmaster.c **** 
 1419              		.loc 1 726 28 view .LVU457
 1420 0051 41894424 		movl	%eax, 28(%r12)
 1420      1C
 729:fltk-1.3.4-1/jpeg/jcmaster.c ****     cinfo->progress->completed_passes = master->pass_number;
 1421              		.loc 1 729 3 is_stmt 1 view .LVU458
 729:fltk-1.3.4-1/jpeg/jcmaster.c ****     cinfo->progress->completed_passes = master->pass_number;
 1422              		.loc 1 729 12 is_stmt 0 view .LVU459
 1423 0056 488B4310 		movq	16(%rbx), %rax
 729:fltk-1.3.4-1/jpeg/jcmaster.c ****     cinfo->progress->completed_passes = master->pass_number;
 1424              		.loc 1 729 6 view .LVU460
 1425 005a 4885C0   		testq	%rax, %rax
 1426 005d 740F     		je	.L137
 730:fltk-1.3.4-1/jpeg/jcmaster.c ****     cinfo->progress->total_passes = master->total_passes;
 1427              		.loc 1 730 5 is_stmt 1 view .LVU461
 730:fltk-1.3.4-1/jpeg/jcmaster.c ****     cinfo->progress->total_passes = master->total_passes;
 1428              		.loc 1 730 39 is_stmt 0 view .LVU462
 1429 005f 895018   		movl	%edx, 24(%rax)
 731:fltk-1.3.4-1/jpeg/jcmaster.c ****   }
 1430              		.loc 1 731 5 is_stmt 1 view .LVU463
 731:fltk-1.3.4-1/jpeg/jcmaster.c ****   }
 1431              		.loc 1 731 10 is_stmt 0 view .LVU464
 1432 0062 488B4310 		movq	16(%rbx), %rax
 731:fltk-1.3.4-1/jpeg/jcmaster.c ****   }
 1433              		.loc 1 731 43 view .LVU465
 1434 0066 418B5424 		movl	40(%r12), %edx
 1434      28
 731:fltk-1.3.4-1/jpeg/jcmaster.c ****   }
 1435              		.loc 1 731 35 view .LVU466
 1436 006b 89501C   		movl	%edx, 28(%rax)
 1437              	.L137:
 733:fltk-1.3.4-1/jpeg/jcmaster.c **** 
 1438              		.loc 1 733 1 view .LVU467
 1439 006e 5B       		popq	%rbx
 1440              		.cfi_remember_state
 1441              		.cfi_def_cfa_offset 24
 1442              	.LVL137:
 733:fltk-1.3.4-1/jpeg/jcmaster.c **** 
 1443              		.loc 1 733 1 view .LVU468
 1444 006f 5D       		popq	%rbp
 1445              		.cfi_def_cfa_offset 16
 1446 0070 415C     		popq	%r12
 1447              		.cfi_def_cfa_offset 8
 1448              	.LVL138:
 733:fltk-1.3.4-1/jpeg/jcmaster.c **** 
 1449              		.loc 1 733 1 view .LVU469
 1450 0072 C3       		ret
 1451              	.LVL139:
 1452              		.p2align 4,,10
 1453 0073 0F1F4400 		.p2align 3
 1453      00
 1454              	.L138:
 1455              		.cfi_restore_state
 692:fltk-1.3.4-1/jpeg/jcmaster.c ****     per_scan_setup(cinfo);
 1456              		.loc 1 692 5 is_stmt 1 view .LVU470
 1457 0078 E8000000 		call	select_scan_parameters
 1457      00
 1458              	.LVL140:
 693:fltk-1.3.4-1/jpeg/jcmaster.c ****     if (cinfo->Ss != 0 || cinfo->Ah == 0) {
 1459              		.loc 1 693 5 view .LVU471
 1460 007d 4889DF   		movq	%rbx, %rdi
 1461 0080 E8000000 		call	per_scan_setup
 1461      00
 1462              	.LVL141:
 694:fltk-1.3.4-1/jpeg/jcmaster.c ****       (*cinfo->entropy->start_pass) (cinfo, TRUE);
 1463              		.loc 1 694 5 view .LVU472
 694:fltk-1.3.4-1/jpeg/jcmaster.c ****       (*cinfo->entropy->start_pass) (cinfo, TRUE);
 1464              		.loc 1 694 8 is_stmt 0 view .LVU473
 1465 0085 8BB3CC01 		movl	460(%rbx), %esi
 1465      0000
 1466 008b 85F6     		testl	%esi, %esi
 1467 008d 0F851D01 		jne	.L145
 1467      0000
 694:fltk-1.3.4-1/jpeg/jcmaster.c ****       (*cinfo->entropy->start_pass) (cinfo, TRUE);
 1468              		.loc 1 694 24 discriminator 1 view .LVU474
 1469 0093 8B8BD401 		movl	468(%rbx), %ecx
 1469      0000
 1470 0099 85C9     		testl	%ecx, %ecx
 1471 009b 0F840F01 		je	.L145
 1471      0000
 703:fltk-1.3.4-1/jpeg/jcmaster.c ****     master->pass_number++;
 1472              		.loc 1 703 5 is_stmt 1 view .LVU475
 704:fltk-1.3.4-1/jpeg/jcmaster.c ****     /*FALLTHROUGH*/
 1473              		.loc 1 704 24 is_stmt 0 view .LVU476
 1474 00a1 41834424 		addl	$1, 36(%r12)
 1474      2401
 703:fltk-1.3.4-1/jpeg/jcmaster.c ****     master->pass_number++;
 1475              		.loc 1 703 23 view .LVU477
 1476 00a7 41C74424 		movl	$2, 32(%r12)
 1476      20020000 
 1476      00
 704:fltk-1.3.4-1/jpeg/jcmaster.c ****     /*FALLTHROUGH*/
 1477              		.loc 1 704 5 is_stmt 1 view .LVU478
 1478              		.p2align 4,,10
 1479              		.p2align 3
 1480              	.L139:
 710:fltk-1.3.4-1/jpeg/jcmaster.c ****       select_scan_parameters(cinfo);
 1481              		.loc 1 710 5 view .LVU479
 710:fltk-1.3.4-1/jpeg/jcmaster.c ****       select_scan_parameters(cinfo);
 1482              		.loc 1 710 8 is_stmt 0 view .LVU480
 1483 00b0 8B932801 		movl	296(%rbx), %edx
 1483      0000
 1484 00b6 85D2     		testl	%edx, %edx
 1485 00b8 0F842201 		je	.L159
 1485      0000
 1486              	.L147:
 714:fltk-1.3.4-1/jpeg/jcmaster.c ****     (*cinfo->coef->start_pass) (cinfo, JBUF_CRANK_DEST);
 1487              		.loc 1 714 5 is_stmt 1 view .LVU481
 714:fltk-1.3.4-1/jpeg/jcmaster.c ****     (*cinfo->coef->start_pass) (cinfo, JBUF_CRANK_DEST);
 1488              		.loc 1 714 6 is_stmt 0 view .LVU482
 1489 00be 488B8330 		movq	560(%rbx), %rax
 1489      020000
 1490 00c5 31F6     		xorl	%esi, %esi
 1491 00c7 4889DF   		movq	%rbx, %rdi
 1492 00ca FF10     		call	*(%rax)
 1493              	.LVL142:
 715:fltk-1.3.4-1/jpeg/jcmaster.c ****     /* We emit frame/scan headers now */
 1494              		.loc 1 715 5 is_stmt 1 view .LVU483
 715:fltk-1.3.4-1/jpeg/jcmaster.c ****     /* We emit frame/scan headers now */
 1495              		.loc 1 715 6 is_stmt 0 view .LVU484
 1496 00cc 488B8308 		movq	520(%rbx), %rax
 1496      020000
 1497 00d3 BE020000 		movl	$2, %esi
 1497      00
 1498 00d8 4889DF   		movq	%rbx, %rdi
 1499 00db FF10     		call	*(%rax)
 1500              	.LVL143:
 717:fltk-1.3.4-1/jpeg/jcmaster.c ****       (*cinfo->marker->write_frame_header) (cinfo);
 1501              		.loc 1 717 5 is_stmt 1 view .LVU485
 717:fltk-1.3.4-1/jpeg/jcmaster.c ****       (*cinfo->marker->write_frame_header) (cinfo);
 1502              		.loc 1 717 8 is_stmt 0 view .LVU486
 1503 00dd 418B4424 		movl	44(%r12), %eax
 1503      2C
 1504 00e2 85C0     		testl	%eax, %eax
 1505 00e4 750D     		jne	.L148
 718:fltk-1.3.4-1/jpeg/jcmaster.c ****     (*cinfo->marker->write_scan_header) (cinfo);
 1506              		.loc 1 718 7 is_stmt 1 view .LVU487
 718:fltk-1.3.4-1/jpeg/jcmaster.c ****     (*cinfo->marker->write_scan_header) (cinfo);
 1507              		.loc 1 718 8 is_stmt 0 view .LVU488
 1508 00e6 488B8310 		movq	528(%rbx), %rax
 1508      020000
 1509 00ed 4889DF   		movq	%rbx, %rdi
 1510 00f0 FF5008   		call	*8(%rax)
 1511              	.LVL144:
 1512              	.L148:
 719:fltk-1.3.4-1/jpeg/jcmaster.c ****     master->pub.call_pass_startup = FALSE;
 1513              		.loc 1 719 5 is_stmt 1 view .LVU489
 719:fltk-1.3.4-1/jpeg/jcmaster.c ****     master->pub.call_pass_startup = FALSE;
 1514              		.loc 1 719 6 is_stmt 0 view .LVU490
 1515 00f3 488B8310 		movq	528(%rbx), %rax
 1515      020000
 1516 00fa 4889DF   		movq	%rbx, %rdi
 1517 00fd FF5010   		call	*16(%rax)
 1518              	.LVL145:
 720:fltk-1.3.4-1/jpeg/jcmaster.c ****     break;
 1519              		.loc 1 720 5 is_stmt 1 view .LVU491
 720:fltk-1.3.4-1/jpeg/jcmaster.c ****     break;
 1520              		.loc 1 720 35 is_stmt 0 view .LVU492
 1521 0100 41C74424 		movl	$0, 24(%r12)
 1521      18000000 
 1521      00
 721:fltk-1.3.4-1/jpeg/jcmaster.c ****   default:
 1522              		.loc 1 721 5 is_stmt 1 view .LVU493
 1523 0109 E92EFFFF 		jmp	.L144
 1523      FF
 1524 010e 6690     		.p2align 4,,10
 1525              		.p2align 3
 1526              	.L158:
 668:fltk-1.3.4-1/jpeg/jcmaster.c ****     per_scan_setup(cinfo);
 1527              		.loc 1 668 5 view .LVU494
 1528 0110 E8000000 		call	select_scan_parameters
 1528      00
 1529              	.LVL146:
 669:fltk-1.3.4-1/jpeg/jcmaster.c ****     if (! cinfo->raw_data_in) {
 1530              		.loc 1 669 5 view .LVU495
 1531 0115 4889DF   		movq	%rbx, %rdi
 1532 0118 E8000000 		call	per_scan_setup
 1532      00
 1533              	.LVL147:
 670:fltk-1.3.4-1/jpeg/jcmaster.c ****       (*cinfo->cconvert->start_pass) (cinfo);
 1534              		.loc 1 670 5 view .LVU496
 670:fltk-1.3.4-1/jpeg/jcmaster.c ****       (*cinfo->cconvert->start_pass) (cinfo);
 1535              		.loc 1 670 8 is_stmt 0 view .LVU497
 1536 011d 448B8320 		movl	288(%rbx), %r8d
 1536      010000
 1537 0124 4585C0   		testl	%r8d, %r8d
 1538 0127 7526     		jne	.L141
 671:fltk-1.3.4-1/jpeg/jcmaster.c ****       (*cinfo->downsample->start_pass) (cinfo);
 1539              		.loc 1 671 7 is_stmt 1 view .LVU498
 671:fltk-1.3.4-1/jpeg/jcmaster.c ****       (*cinfo->downsample->start_pass) (cinfo);
 1540              		.loc 1 671 8 is_stmt 0 view .LVU499
 1541 0129 488B8318 		movq	536(%rbx), %rax
 1541      020000
 1542 0130 4889DF   		movq	%rbx, %rdi
 1543 0133 FF10     		call	*(%rax)
 1544              	.LVL148:
 672:fltk-1.3.4-1/jpeg/jcmaster.c ****       (*cinfo->prep->start_pass) (cinfo, JBUF_PASS_THRU);
 1545              		.loc 1 672 7 is_stmt 1 view .LVU500
 672:fltk-1.3.4-1/jpeg/jcmaster.c ****       (*cinfo->prep->start_pass) (cinfo, JBUF_PASS_THRU);
 1546              		.loc 1 672 8 is_stmt 0 view .LVU501
 1547 0135 488B8320 		movq	544(%rbx), %rax
 1547      020000
 1548 013c 4889DF   		movq	%rbx, %rdi
 1549 013f FF10     		call	*(%rax)
 1550              	.LVL149:
 673:fltk-1.3.4-1/jpeg/jcmaster.c ****     }
 1551              		.loc 1 673 7 is_stmt 1 view .LVU502
 673:fltk-1.3.4-1/jpeg/jcmaster.c ****     }
 1552              		.loc 1 673 8 is_stmt 0 view .LVU503
 1553 0141 488B8300 		movq	512(%rbx), %rax
 1553      020000
 1554 0148 31F6     		xorl	%esi, %esi
 1555 014a 4889DF   		movq	%rbx, %rdi
 1556 014d FF10     		call	*(%rax)
 1557              	.LVL150:
 1558              	.L141:
 675:fltk-1.3.4-1/jpeg/jcmaster.c ****     (*cinfo->entropy->start_pass) (cinfo, cinfo->optimize_coding);
 1559              		.loc 1 675 5 is_stmt 1 view .LVU504
 675:fltk-1.3.4-1/jpeg/jcmaster.c ****     (*cinfo->entropy->start_pass) (cinfo, cinfo->optimize_coding);
 1560              		.loc 1 675 6 is_stmt 0 view .LVU505
 1561 014f 488B8328 		movq	552(%rbx), %rax
 1561      020000
 1562 0156 4889DF   		movq	%rbx, %rdi
 1563 0159 FF10     		call	*(%rax)
 1564              	.LVL151:
 676:fltk-1.3.4-1/jpeg/jcmaster.c ****     (*cinfo->coef->start_pass) (cinfo,
 1565              		.loc 1 676 5 is_stmt 1 view .LVU506
 676:fltk-1.3.4-1/jpeg/jcmaster.c ****     (*cinfo->coef->start_pass) (cinfo,
 1566              		.loc 1 676 6 is_stmt 0 view .LVU507
 1567 015b 488B8330 		movq	560(%rbx), %rax
 1567      020000
 1568 0162 8BB32801 		movl	296(%rbx), %esi
 1568      0000
 1569 0168 4889DF   		movq	%rbx, %rdi
 1570 016b FF10     		call	*(%rax)
 1571              	.LVL152:
 677:fltk-1.3.4-1/jpeg/jcmaster.c **** 				(master->total_passes > 1 ?
 1572              		.loc 1 677 5 is_stmt 1 view .LVU508
 677:fltk-1.3.4-1/jpeg/jcmaster.c **** 				(master->total_passes > 1 ?
 1573              		.loc 1 677 6 is_stmt 0 view .LVU509
 1574 016d 41837C24 		cmpl	$2, 40(%r12)
 1574      2802
 1575 0173 BA030000 		movl	$3, %edx
 1575      00
 1576 0178 4889DF   		movq	%rbx, %rdi
 1577 017b 0F4DEA   		cmovge	%edx, %ebp
 1578 017e 488B8308 		movq	520(%rbx), %rax
 1578      020000
 1579 0185 89EE     		movl	%ebp, %esi
 1580 0187 FF10     		call	*(%rax)
 1581              	.LVL153:
 680:fltk-1.3.4-1/jpeg/jcmaster.c ****     if (cinfo->optimize_coding) {
 1582              		.loc 1 680 5 is_stmt 1 view .LVU510
 680:fltk-1.3.4-1/jpeg/jcmaster.c ****     if (cinfo->optimize_coding) {
 1583              		.loc 1 680 6 is_stmt 0 view .LVU511
 1584 0189 488B83F8 		movq	504(%rbx), %rax
 1584      010000
 1585 0190 31F6     		xorl	%esi, %esi
 1586 0192 4889DF   		movq	%rbx, %rdi
 1587 0195 FF10     		call	*(%rax)
 1588              	.LVL154:
 681:fltk-1.3.4-1/jpeg/jcmaster.c ****       /* No immediate data output; postpone writing frame/scan headers */
 1589              		.loc 1 681 5 is_stmt 1 view .LVU512
 683:fltk-1.3.4-1/jpeg/jcmaster.c ****     } else {
 1590              		.loc 1 683 37 is_stmt 0 view .LVU513
 1591 0197 8BBB2801 		movl	296(%rbx), %edi
 1591      0000
 1592 019d 31C0     		xorl	%eax, %eax
 1593 019f 85FF     		testl	%edi, %edi
 1594 01a1 0F94C0   		sete	%al
 1595 01a4 41894424 		movl	%eax, 24(%r12)
 1595      18
 1596 01a9 E98EFEFF 		jmp	.L144
 1596      FF
 1597 01ae 6690     		.p2align 4,,10
 1598              		.p2align 3
 1599              	.L145:
 695:fltk-1.3.4-1/jpeg/jcmaster.c ****       (*cinfo->coef->start_pass) (cinfo, JBUF_CRANK_DEST);
 1600              		.loc 1 695 7 is_stmt 1 view .LVU514
 695:fltk-1.3.4-1/jpeg/jcmaster.c ****       (*cinfo->coef->start_pass) (cinfo, JBUF_CRANK_DEST);
 1601              		.loc 1 695 8 is_stmt 0 view .LVU515
 1602 01b0 488B8330 		movq	560(%rbx), %rax
 1602      020000
 1603 01b7 BE010000 		movl	$1, %esi
 1603      00
 1604 01bc 4889DF   		movq	%rbx, %rdi
 1605 01bf FF10     		call	*(%rax)
 1606              	.LVL155:
 696:fltk-1.3.4-1/jpeg/jcmaster.c ****       master->pub.call_pass_startup = FALSE;
 1607              		.loc 1 696 7 is_stmt 1 view .LVU516
 696:fltk-1.3.4-1/jpeg/jcmaster.c ****       master->pub.call_pass_startup = FALSE;
 1608              		.loc 1 696 8 is_stmt 0 view .LVU517
 1609 01c1 488B8308 		movq	520(%rbx), %rax
 1609      020000
 1610 01c8 BE020000 		movl	$2, %esi
 1610      00
 1611 01cd 4889DF   		movq	%rbx, %rdi
 1612 01d0 FF10     		call	*(%rax)
 1613              	.LVL156:
 697:fltk-1.3.4-1/jpeg/jcmaster.c ****       break;
 1614              		.loc 1 697 7 is_stmt 1 view .LVU518
 697:fltk-1.3.4-1/jpeg/jcmaster.c ****       break;
 1615              		.loc 1 697 37 is_stmt 0 view .LVU519
 1616 01d2 41C74424 		movl	$0, 24(%r12)
 1616      18000000 
 1616      00
 698:fltk-1.3.4-1/jpeg/jcmaster.c ****     }
 1617              		.loc 1 698 7 is_stmt 1 view .LVU520
 1618 01db E95CFEFF 		jmp	.L144
 1618      FF
 1619              		.p2align 4,,10
 1620              		.p2align 3
 1621              	.L159:
 711:fltk-1.3.4-1/jpeg/jcmaster.c ****       per_scan_setup(cinfo);
 1622              		.loc 1 711 7 view .LVU521
 1623 01e0 4889DF   		movq	%rbx, %rdi
 1624 01e3 E8000000 		call	select_scan_parameters
 1624      00
 1625              	.LVL157:
 712:fltk-1.3.4-1/jpeg/jcmaster.c ****     }
 1626              		.loc 1 712 7 view .LVU522
 1627 01e8 4889DF   		movq	%rbx, %rdi
 1628 01eb E8000000 		call	per_scan_setup
 1628      00
 1629              	.LVL158:
 1630 01f0 E9C9FEFF 		jmp	.L147
 1630      FF
 1631              		.cfi_endproc
 1632              	.LFE58:
 1634              		.section	.text.jpeg_calc_jpeg_dimensions,"ax",@progbits
 1635              		.p2align 4
 1636              		.globl	jpeg_calc_jpeg_dimensions
 1638              	jpeg_calc_jpeg_dimensions:
 1639              	.LVL159:
 1640              	.LFB51:
  55:fltk-1.3.4-1/jpeg/jcmaster.c **** #ifdef DCT_SCALING_SUPPORTED
 1641              		.loc 1 55 1 view -0
 1642              		.cfi_startproc
  55:fltk-1.3.4-1/jpeg/jcmaster.c **** #ifdef DCT_SCALING_SUPPORTED
 1643              		.loc 1 55 1 is_stmt 0 view .LVU524
 1644 0000 F30F1EFA 		endbr64
  64:fltk-1.3.4-1/jpeg/jcmaster.c ****     ERREXIT1(cinfo, JERR_IMAGE_TOO_BIG, (unsigned int) JPEG_MAX_DIMENSION);
 1645              		.loc 1 64 3 is_stmt 1 view .LVU525
  55:fltk-1.3.4-1/jpeg/jcmaster.c **** #ifdef DCT_SCALING_SUPPORTED
 1646              		.loc 1 55 1 is_stmt 0 view .LVU526
 1647 0004 53       		pushq	%rbx
 1648              		.cfi_def_cfa_offset 16
 1649              		.cfi_offset 3, -16
  55:fltk-1.3.4-1/jpeg/jcmaster.c **** #ifdef DCT_SCALING_SUPPORTED
 1650              		.loc 1 55 1 view .LVU527
 1651 0005 4889FB   		movq	%rdi, %rbx
  64:fltk-1.3.4-1/jpeg/jcmaster.c ****     ERREXIT1(cinfo, JERR_IMAGE_TOO_BIG, (unsigned int) JPEG_MAX_DIMENSION);
 1652              		.loc 1 64 20 view .LVU528
 1653 0008 8B7F30   		movl	48(%rdi), %edi
 1654              	.LVL160:
  64:fltk-1.3.4-1/jpeg/jcmaster.c ****     ERREXIT1(cinfo, JERR_IMAGE_TOO_BIG, (unsigned int) JPEG_MAX_DIMENSION);
 1655              		.loc 1 64 6 view .LVU529
 1656 000b 89F8     		movl	%edi, %eax
 1657 000d C1E818   		shrl	$24, %eax
 1658 0010 753E     		jne	.L161
  64:fltk-1.3.4-1/jpeg/jcmaster.c ****     ERREXIT1(cinfo, JERR_IMAGE_TOO_BIG, (unsigned int) JPEG_MAX_DIMENSION);
 1659              		.loc 1 64 41 discriminator 1 view .LVU530
 1660 0012 807B3700 		cmpb	$0, 55(%rbx)
 1661 0016 7538     		jne	.L161
 1662              	.L162:
  68:fltk-1.3.4-1/jpeg/jcmaster.c ****     /* Provide block_size/1 scaling */
 1663              		.loc 1 68 3 is_stmt 1 view .LVU531
  68:fltk-1.3.4-1/jpeg/jcmaster.c ****     /* Provide block_size/1 scaling */
 1664              		.loc 1 68 53 is_stmt 0 view .LVU532
 1665 0018 486383DC 		movslq	476(%rbx), %rax
 1665      010000
  68:fltk-1.3.4-1/jpeg/jcmaster.c ****     /* Provide block_size/1 scaling */
 1666              		.loc 1 68 46 view .LVU533
 1667 001f 8B534C   		movl	76(%rbx), %edx
  68:fltk-1.3.4-1/jpeg/jcmaster.c ****     /* Provide block_size/1 scaling */
 1668              		.loc 1 68 12 view .LVU534
 1669 0022 8B4B48   		movl	72(%rbx), %ecx
  68:fltk-1.3.4-1/jpeg/jcmaster.c ****     /* Provide block_size/1 scaling */
 1670              		.loc 1 68 46 view .LVU535
 1671 0025 0FAFD0   		imull	%eax, %edx
  68:fltk-1.3.4-1/jpeg/jcmaster.c ****     /* Provide block_size/1 scaling */
 1672              		.loc 1 68 6 view .LVU536
 1673 0028 39D1     		cmpl	%edx, %ecx
 1674 002a 724C     		jb	.L163
  70:fltk-1.3.4-1/jpeg/jcmaster.c ****     cinfo->jpeg_height = cinfo->image_height * cinfo->block_size;
 1675              		.loc 1 70 5 is_stmt 1 view .LVU537
  70:fltk-1.3.4-1/jpeg/jcmaster.c ****     cinfo->jpeg_height = cinfo->image_height * cinfo->block_size;
 1676              		.loc 1 70 44 is_stmt 0 view .LVU538
 1677 002c 0FAFF8   		imull	%eax, %edi
  71:fltk-1.3.4-1/jpeg/jcmaster.c ****     cinfo->min_DCT_h_scaled_size = 1;
 1678              		.loc 1 71 46 view .LVU539
 1679 002f 0FAF4334 		imull	52(%rbx), %eax
  70:fltk-1.3.4-1/jpeg/jcmaster.c ****     cinfo->jpeg_height = cinfo->image_height * cinfo->block_size;
 1680              		.loc 1 70 23 view .LVU540
 1681 0033 897B50   		movl	%edi, 80(%rbx)
  71:fltk-1.3.4-1/jpeg/jcmaster.c ****     cinfo->min_DCT_h_scaled_size = 1;
 1682              		.loc 1 71 5 is_stmt 1 view .LVU541
  71:fltk-1.3.4-1/jpeg/jcmaster.c ****     cinfo->min_DCT_h_scaled_size = 1;
 1683              		.loc 1 71 24 is_stmt 0 view .LVU542
 1684 0036 894354   		movl	%eax, 84(%rbx)
  72:fltk-1.3.4-1/jpeg/jcmaster.c ****     cinfo->min_DCT_v_scaled_size = 1;
 1685              		.loc 1 72 5 is_stmt 1 view .LVU543
  73:fltk-1.3.4-1/jpeg/jcmaster.c ****   } else if (cinfo->scale_num * 2 >= cinfo->scale_denom * cinfo->block_size) {
 1686              		.loc 1 73 5 view .LVU544
  72:fltk-1.3.4-1/jpeg/jcmaster.c ****     cinfo->min_DCT_v_scaled_size = 1;
 1687              		.loc 1 72 34 is_stmt 0 view .LVU545
 1688 0039 48B80100 		movabsq	$4294967297, %rax
 1688      00000100 
 1688      0000
 1689 0043 48898368 		movq	%rax, 360(%rbx)
 1689      010000
 205:fltk-1.3.4-1/jpeg/jcmaster.c **** 
 1690              		.loc 1 205 1 view .LVU546
 1691 004a 5B       		popq	%rbx
 1692              		.cfi_remember_state
 1693              		.cfi_def_cfa_offset 8
 1694              	.LVL161:
 205:fltk-1.3.4-1/jpeg/jcmaster.c **** 
 1695              		.loc 1 205 1 view .LVU547
 1696 004b C3       		ret
 1697              	.LVL162:
 1698 004c 0F1F4000 		.p2align 4,,10
 1699              		.p2align 3
 1700              	.L161:
 1701              		.cfi_restore_state
  65:fltk-1.3.4-1/jpeg/jcmaster.c **** 
 1702              		.loc 1 65 5 is_stmt 1 view .LVU548
 1703 0050 488B03   		movq	(%rbx), %rax
 1704 0053 4889DF   		movq	%rbx, %rdi
 1705 0056 C740282A 		movl	$42, 40(%rax)
 1705      000000
 1706 005d 488B03   		movq	(%rbx), %rax
 1707 0060 C7402CDC 		movl	$65500, 44(%rax)
 1707      FF0000
 1708 0067 488B03   		movq	(%rbx), %rax
 1709 006a FF10     		call	*(%rax)
 1710              	.LVL163:
 1711 006c 8B7B30   		movl	48(%rbx), %edi
 1712 006f EBA7     		jmp	.L162
 1713              		.p2align 4,,10
 1714 0071 0F1F8000 		.p2align 3
 1714      000000
 1715              	.L163:
  74:fltk-1.3.4-1/jpeg/jcmaster.c ****     /* Provide block_size/2 scaling */
 1716              		.loc 1 74 10 view .LVU549
 1717 0078 480FAFF8 		imulq	%rax, %rdi
  74:fltk-1.3.4-1/jpeg/jcmaster.c ****     /* Provide block_size/2 scaling */
 1718              		.loc 1 74 31 is_stmt 0 view .LVU550
 1719 007c 8D0409   		leal	(%rcx,%rcx), %eax
  74:fltk-1.3.4-1/jpeg/jcmaster.c ****     /* Provide block_size/2 scaling */
 1720              		.loc 1 74 13 view .LVU551
 1721 007f 39C2     		cmpl	%eax, %edx
 1722 0081 0F86E100 		jbe	.L183
 1722      0000
  82:fltk-1.3.4-1/jpeg/jcmaster.c ****     /* Provide block_size/3 scaling */
 1723              		.loc 1 82 10 is_stmt 1 view .LVU552
  82:fltk-1.3.4-1/jpeg/jcmaster.c ****     /* Provide block_size/3 scaling */
 1724              		.loc 1 82 31 is_stmt 0 view .LVU553
 1725 0087 01C8     		addl	%ecx, %eax
  82:fltk-1.3.4-1/jpeg/jcmaster.c ****     /* Provide block_size/3 scaling */
 1726              		.loc 1 82 13 view .LVU554
 1727 0089 39C2     		cmpl	%eax, %edx
 1728 008b 0F865701 		jbe	.L184
 1728      0000
  90:fltk-1.3.4-1/jpeg/jcmaster.c ****     /* Provide block_size/4 scaling */
 1729              		.loc 1 90 10 is_stmt 1 view .LVU555
  90:fltk-1.3.4-1/jpeg/jcmaster.c ****     /* Provide block_size/4 scaling */
 1730              		.loc 1 90 31 is_stmt 0 view .LVU556
 1731 0091 8D348D00 		leal	0(,%rcx,4), %esi
 1731      000000
  90:fltk-1.3.4-1/jpeg/jcmaster.c ****     /* Provide block_size/4 scaling */
 1732              		.loc 1 90 13 view .LVU557
 1733 0098 39F2     		cmpl	%esi, %edx
 1734 009a 0F860801 		jbe	.L185
 1734      0000
  98:fltk-1.3.4-1/jpeg/jcmaster.c ****     /* Provide block_size/5 scaling */
 1735              		.loc 1 98 10 is_stmt 1 view .LVU558
  98:fltk-1.3.4-1/jpeg/jcmaster.c ****     /* Provide block_size/5 scaling */
 1736              		.loc 1 98 31 is_stmt 0 view .LVU559
 1737 00a0 01CE     		addl	%ecx, %esi
  98:fltk-1.3.4-1/jpeg/jcmaster.c ****     /* Provide block_size/5 scaling */
 1738              		.loc 1 98 13 view .LVU560
 1739 00a2 39F2     		cmpl	%esi, %edx
 1740 00a4 0F86BE01 		jbe	.L186
 1740      0000
 106:fltk-1.3.4-1/jpeg/jcmaster.c ****     /* Provide block_size/6 scaling */
 1741              		.loc 1 106 10 is_stmt 1 view .LVU561
 106:fltk-1.3.4-1/jpeg/jcmaster.c ****     /* Provide block_size/6 scaling */
 1742              		.loc 1 106 31 is_stmt 0 view .LVU562
 1743 00aa 01C0     		addl	%eax, %eax
 106:fltk-1.3.4-1/jpeg/jcmaster.c ****     /* Provide block_size/6 scaling */
 1744              		.loc 1 106 13 view .LVU563
 1745 00ac 39C2     		cmpl	%eax, %edx
 1746 00ae 0F86F401 		jbe	.L187
 1746      0000
 114:fltk-1.3.4-1/jpeg/jcmaster.c ****     /* Provide block_size/7 scaling */
 1747              		.loc 1 114 10 is_stmt 1 view .LVU564
 114:fltk-1.3.4-1/jpeg/jcmaster.c ****     /* Provide block_size/7 scaling */
 1748              		.loc 1 114 31 is_stmt 0 view .LVU565
 1749 00b4 8D04CD00 		leal	0(,%rcx,8), %eax
 1749      000000
 1750 00bb 4189C0   		movl	%eax, %r8d
 1751 00be 4129C8   		subl	%ecx, %r8d
 114:fltk-1.3.4-1/jpeg/jcmaster.c ****     /* Provide block_size/7 scaling */
 1752              		.loc 1 114 13 view .LVU566
 1753 00c1 4439C2   		cmpl	%r8d, %edx
 1754 00c4 0F865E01 		jbe	.L188
 1754      0000
 122:fltk-1.3.4-1/jpeg/jcmaster.c ****     /* Provide block_size/8 scaling */
 1755              		.loc 1 122 10 is_stmt 1 view .LVU567
 122:fltk-1.3.4-1/jpeg/jcmaster.c ****     /* Provide block_size/8 scaling */
 1756              		.loc 1 122 13 is_stmt 0 view .LVU568
 1757 00ca 39C2     		cmpl	%eax, %edx
 1758 00cc 0F861602 		jbe	.L189
 1758      0000
 130:fltk-1.3.4-1/jpeg/jcmaster.c ****     /* Provide block_size/9 scaling */
 1759              		.loc 1 130 10 is_stmt 1 view .LVU569
 130:fltk-1.3.4-1/jpeg/jcmaster.c ****     /* Provide block_size/9 scaling */
 1760              		.loc 1 130 31 is_stmt 0 view .LVU570
 1761 00d2 01C8     		addl	%ecx, %eax
 130:fltk-1.3.4-1/jpeg/jcmaster.c ****     /* Provide block_size/9 scaling */
 1762              		.loc 1 130 13 view .LVU571
 1763 00d4 39C2     		cmpl	%eax, %edx
 1764 00d6 0F864C02 		jbe	.L190
 1764      0000
 138:fltk-1.3.4-1/jpeg/jcmaster.c ****     /* Provide block_size/10 scaling */
 1765              		.loc 1 138 10 is_stmt 1 view .LVU572
 138:fltk-1.3.4-1/jpeg/jcmaster.c ****     /* Provide block_size/10 scaling */
 1766              		.loc 1 138 31 is_stmt 0 view .LVU573
 1767 00dc 01F6     		addl	%esi, %esi
 138:fltk-1.3.4-1/jpeg/jcmaster.c ****     /* Provide block_size/10 scaling */
 1768              		.loc 1 138 13 view .LVU574
 1769 00de 39F2     		cmpl	%esi, %edx
 1770 00e0 0F867D02 		jbe	.L191
 1770      0000
 146:fltk-1.3.4-1/jpeg/jcmaster.c ****     /* Provide block_size/11 scaling */
 1771              		.loc 1 146 10 is_stmt 1 view .LVU575
 146:fltk-1.3.4-1/jpeg/jcmaster.c ****     /* Provide block_size/11 scaling */
 1772              		.loc 1 146 31 is_stmt 0 view .LVU576
 1773 00e6 8D0489   		leal	(%rcx,%rcx,4), %eax
 1774 00e9 8D0441   		leal	(%rcx,%rax,2), %eax
 146:fltk-1.3.4-1/jpeg/jcmaster.c ****     /* Provide block_size/11 scaling */
 1775              		.loc 1 146 13 view .LVU577
 1776 00ec 39C2     		cmpl	%eax, %edx
 1777 00ee 0F86AA02 		jbe	.L192
 1777      0000
 154:fltk-1.3.4-1/jpeg/jcmaster.c ****     /* Provide block_size/12 scaling */
 1778              		.loc 1 154 10 is_stmt 1 view .LVU578
 154:fltk-1.3.4-1/jpeg/jcmaster.c ****     /* Provide block_size/12 scaling */
 1779              		.loc 1 154 31 is_stmt 0 view .LVU579
 1780 00f4 8D0449   		leal	(%rcx,%rcx,2), %eax
 1781 00f7 C1E002   		sall	$2, %eax
 154:fltk-1.3.4-1/jpeg/jcmaster.c ****     /* Provide block_size/12 scaling */
 1782              		.loc 1 154 13 view .LVU580
 1783 00fa 39C2     		cmpl	%eax, %edx
 1784 00fc 0F86D702 		jbe	.L193
 1784      0000
 162:fltk-1.3.4-1/jpeg/jcmaster.c ****     /* Provide block_size/13 scaling */
 1785              		.loc 1 162 10 is_stmt 1 view .LVU581
 162:fltk-1.3.4-1/jpeg/jcmaster.c ****     /* Provide block_size/13 scaling */
 1786              		.loc 1 162 31 is_stmt 0 view .LVU582
 1787 0102 01C8     		addl	%ecx, %eax
 162:fltk-1.3.4-1/jpeg/jcmaster.c ****     /* Provide block_size/13 scaling */
 1788              		.loc 1 162 13 view .LVU583
 1789 0104 39C2     		cmpl	%eax, %edx
 1790 0106 0F860803 		jbe	.L194
 1790      0000
 170:fltk-1.3.4-1/jpeg/jcmaster.c ****     /* Provide block_size/14 scaling */
 1791              		.loc 1 170 10 is_stmt 1 view .LVU584
 170:fltk-1.3.4-1/jpeg/jcmaster.c ****     /* Provide block_size/14 scaling */
 1792              		.loc 1 170 31 is_stmt 0 view .LVU585
 1793 010c 6BC10E   		imull	$14, %ecx, %eax
 170:fltk-1.3.4-1/jpeg/jcmaster.c ****     /* Provide block_size/14 scaling */
 1794              		.loc 1 170 13 view .LVU586
 1795 010f 39C2     		cmpl	%eax, %edx
 1796 0111 0F867303 		jbe	.L195
 1796      0000
 178:fltk-1.3.4-1/jpeg/jcmaster.c ****     /* Provide block_size/15 scaling */
 1797              		.loc 1 178 10 is_stmt 1 view .LVU587
 178:fltk-1.3.4-1/jpeg/jcmaster.c ****     /* Provide block_size/15 scaling */
 1798              		.loc 1 178 31 is_stmt 0 view .LVU588
 1799 0117 89C8     		movl	%ecx, %eax
 1800 0119 C1E004   		sall	$4, %eax
 1801 011c 29C8     		subl	%ecx, %eax
 178:fltk-1.3.4-1/jpeg/jcmaster.c ****     /* Provide block_size/15 scaling */
 1802              		.loc 1 178 13 view .LVU589
 1803 011e 39C2     		cmpl	%eax, %edx
 1804 0120 0F872903 		ja	.L178
 1804      0000
 180:fltk-1.3.4-1/jpeg/jcmaster.c ****       jdiv_round_up((long) cinfo->image_width * cinfo->block_size, 15L);
 1805              		.loc 1 180 5 is_stmt 1 view .LVU590
 181:fltk-1.3.4-1/jpeg/jcmaster.c ****     cinfo->jpeg_height = (JDIMENSION)
 1806              		.loc 1 181 7 is_stmt 0 view .LVU591
 1807 0126 BE0F0000 		movl	$15, %esi
 1807      00
 1808 012b E8000000 		call	jdiv_round_up@PLT
 1808      00
 1809              	.LVL164:
 183:fltk-1.3.4-1/jpeg/jcmaster.c ****     cinfo->min_DCT_h_scaled_size = 15;
 1810              		.loc 1 183 21 view .LVU592
 1811 0130 8B7B34   		movl	52(%rbx), %edi
 183:fltk-1.3.4-1/jpeg/jcmaster.c ****     cinfo->min_DCT_h_scaled_size = 15;
 1812              		.loc 1 183 7 view .LVU593
 1813 0133 BE0F0000 		movl	$15, %esi
 1813      00
 180:fltk-1.3.4-1/jpeg/jcmaster.c ****       jdiv_round_up((long) cinfo->image_width * cinfo->block_size, 15L);
 1814              		.loc 1 180 25 view .LVU594
 1815 0138 894350   		movl	%eax, 80(%rbx)
 182:fltk-1.3.4-1/jpeg/jcmaster.c ****       jdiv_round_up((long) cinfo->image_height * cinfo->block_size, 15L);
 1816              		.loc 1 182 5 is_stmt 1 view .LVU595
 183:fltk-1.3.4-1/jpeg/jcmaster.c ****     cinfo->min_DCT_h_scaled_size = 15;
 1817              		.loc 1 183 55 is_stmt 0 view .LVU596
 1818 013b 486383DC 		movslq	476(%rbx), %rax
 1818      010000
 183:fltk-1.3.4-1/jpeg/jcmaster.c ****     cinfo->min_DCT_h_scaled_size = 15;
 1819              		.loc 1 183 7 view .LVU597
 1820 0142 480FAFF8 		imulq	%rax, %rdi
 1821 0146 E8000000 		call	jdiv_round_up@PLT
 1821      00
 1822              	.LVL165:
 182:fltk-1.3.4-1/jpeg/jcmaster.c ****       jdiv_round_up((long) cinfo->image_height * cinfo->block_size, 15L);
 1823              		.loc 1 182 26 view .LVU598
 1824 014b 894354   		movl	%eax, 84(%rbx)
 184:fltk-1.3.4-1/jpeg/jcmaster.c ****     cinfo->min_DCT_v_scaled_size = 15;
 1825              		.loc 1 184 5 is_stmt 1 view .LVU599
 185:fltk-1.3.4-1/jpeg/jcmaster.c ****   } else {
 1826              		.loc 1 185 5 view .LVU600
 184:fltk-1.3.4-1/jpeg/jcmaster.c ****     cinfo->min_DCT_v_scaled_size = 15;
 1827              		.loc 1 184 34 is_stmt 0 view .LVU601
 1828 014e 48B80F00 		movabsq	$64424509455, %rax
 1828      00000F00 
 1828      0000
 1829 0158 48898368 		movq	%rax, 360(%rbx)
 1829      010000
 205:fltk-1.3.4-1/jpeg/jcmaster.c **** 
 1830              		.loc 1 205 1 view .LVU602
 1831 015f 5B       		popq	%rbx
 1832              		.cfi_remember_state
 1833              		.cfi_def_cfa_offset 8
 1834              	.LVL166:
 205:fltk-1.3.4-1/jpeg/jcmaster.c **** 
 1835              		.loc 1 205 1 view .LVU603
 1836 0160 C3       		ret
 1837              	.LVL167:
 1838              		.p2align 4,,10
 1839 0161 0F1F8000 		.p2align 3
 1839      000000
 1840              	.L183:
 1841              		.cfi_restore_state
  76:fltk-1.3.4-1/jpeg/jcmaster.c ****       jdiv_round_up((long) cinfo->image_width * cinfo->block_size, 2L);
 1842              		.loc 1 76 5 is_stmt 1 view .LVU604
  77:fltk-1.3.4-1/jpeg/jcmaster.c ****     cinfo->jpeg_height = (JDIMENSION)
 1843              		.loc 1 77 7 is_stmt 0 view .LVU605
 1844 0168 BE020000 		movl	$2, %esi
 1844      00
 1845 016d E8000000 		call	jdiv_round_up@PLT
 1845      00
 1846              	.LVL168:
  79:fltk-1.3.4-1/jpeg/jcmaster.c ****     cinfo->min_DCT_h_scaled_size = 2;
 1847              		.loc 1 79 21 view .LVU606
 1848 0172 8B7B34   		movl	52(%rbx), %edi
  79:fltk-1.3.4-1/jpeg/jcmaster.c ****     cinfo->min_DCT_h_scaled_size = 2;
 1849              		.loc 1 79 7 view .LVU607
 1850 0175 BE020000 		movl	$2, %esi
 1850      00
  76:fltk-1.3.4-1/jpeg/jcmaster.c ****       jdiv_round_up((long) cinfo->image_width * cinfo->block_size, 2L);
 1851              		.loc 1 76 25 view .LVU608
 1852 017a 894350   		movl	%eax, 80(%rbx)
  78:fltk-1.3.4-1/jpeg/jcmaster.c ****       jdiv_round_up((long) cinfo->image_height * cinfo->block_size, 2L);
 1853              		.loc 1 78 5 is_stmt 1 view .LVU609
  79:fltk-1.3.4-1/jpeg/jcmaster.c ****     cinfo->min_DCT_h_scaled_size = 2;
 1854              		.loc 1 79 55 is_stmt 0 view .LVU610
 1855 017d 486383DC 		movslq	476(%rbx), %rax
 1855      010000
  79:fltk-1.3.4-1/jpeg/jcmaster.c ****     cinfo->min_DCT_h_scaled_size = 2;
 1856              		.loc 1 79 7 view .LVU611
 1857 0184 480FAFF8 		imulq	%rax, %rdi
 1858 0188 E8000000 		call	jdiv_round_up@PLT
 1858      00
 1859              	.LVL169:
  78:fltk-1.3.4-1/jpeg/jcmaster.c ****       jdiv_round_up((long) cinfo->image_height * cinfo->block_size, 2L);
 1860              		.loc 1 78 26 view .LVU612
 1861 018d 894354   		movl	%eax, 84(%rbx)
  80:fltk-1.3.4-1/jpeg/jcmaster.c ****     cinfo->min_DCT_v_scaled_size = 2;
 1862              		.loc 1 80 5 is_stmt 1 view .LVU613
  81:fltk-1.3.4-1/jpeg/jcmaster.c ****   } else if (cinfo->scale_num * 3 >= cinfo->scale_denom * cinfo->block_size) {
 1863              		.loc 1 81 5 view .LVU614
  80:fltk-1.3.4-1/jpeg/jcmaster.c ****     cinfo->min_DCT_v_scaled_size = 2;
 1864              		.loc 1 80 34 is_stmt 0 view .LVU615
 1865 0190 48B80200 		movabsq	$8589934594, %rax
 1865      00000200 
 1865      0000
 1866 019a 48898368 		movq	%rax, 360(%rbx)
 1866      010000
 205:fltk-1.3.4-1/jpeg/jcmaster.c **** 
 1867              		.loc 1 205 1 view .LVU616
 1868 01a1 5B       		popq	%rbx
 1869              		.cfi_remember_state
 1870              		.cfi_def_cfa_offset 8
 1871              	.LVL170:
 205:fltk-1.3.4-1/jpeg/jcmaster.c **** 
 1872              		.loc 1 205 1 view .LVU617
 1873 01a2 C3       		ret
 1874              	.LVL171:
 1875              		.p2align 4,,10
 1876 01a3 0F1F4400 		.p2align 3
 1876      00
 1877              	.L185:
 1878              		.cfi_restore_state
  92:fltk-1.3.4-1/jpeg/jcmaster.c ****       jdiv_round_up((long) cinfo->image_width * cinfo->block_size, 4L);
 1879              		.loc 1 92 5 is_stmt 1 view .LVU618
  93:fltk-1.3.4-1/jpeg/jcmaster.c ****     cinfo->jpeg_height = (JDIMENSION)
 1880              		.loc 1 93 7 is_stmt 0 view .LVU619
 1881 01a8 BE040000 		movl	$4, %esi
 1881      00
 1882 01ad E8000000 		call	jdiv_round_up@PLT
 1882      00
 1883              	.LVL172:
  95:fltk-1.3.4-1/jpeg/jcmaster.c ****     cinfo->min_DCT_h_scaled_size = 4;
 1884              		.loc 1 95 21 view .LVU620
 1885 01b2 8B7B34   		movl	52(%rbx), %edi
  95:fltk-1.3.4-1/jpeg/jcmaster.c ****     cinfo->min_DCT_h_scaled_size = 4;
 1886              		.loc 1 95 7 view .LVU621
 1887 01b5 BE040000 		movl	$4, %esi
 1887      00
  92:fltk-1.3.4-1/jpeg/jcmaster.c ****       jdiv_round_up((long) cinfo->image_width * cinfo->block_size, 4L);
 1888              		.loc 1 92 25 view .LVU622
 1889 01ba 894350   		movl	%eax, 80(%rbx)
  94:fltk-1.3.4-1/jpeg/jcmaster.c ****       jdiv_round_up((long) cinfo->image_height * cinfo->block_size, 4L);
 1890              		.loc 1 94 5 is_stmt 1 view .LVU623
  95:fltk-1.3.4-1/jpeg/jcmaster.c ****     cinfo->min_DCT_h_scaled_size = 4;
 1891              		.loc 1 95 55 is_stmt 0 view .LVU624
 1892 01bd 486383DC 		movslq	476(%rbx), %rax
 1892      010000
  95:fltk-1.3.4-1/jpeg/jcmaster.c ****     cinfo->min_DCT_h_scaled_size = 4;
 1893              		.loc 1 95 7 view .LVU625
 1894 01c4 480FAFF8 		imulq	%rax, %rdi
 1895 01c8 E8000000 		call	jdiv_round_up@PLT
 1895      00
 1896              	.LVL173:
  94:fltk-1.3.4-1/jpeg/jcmaster.c ****       jdiv_round_up((long) cinfo->image_height * cinfo->block_size, 4L);
 1897              		.loc 1 94 26 view .LVU626
 1898 01cd 894354   		movl	%eax, 84(%rbx)
  96:fltk-1.3.4-1/jpeg/jcmaster.c ****     cinfo->min_DCT_v_scaled_size = 4;
 1899              		.loc 1 96 5 is_stmt 1 view .LVU627
  97:fltk-1.3.4-1/jpeg/jcmaster.c ****   } else if (cinfo->scale_num * 5 >= cinfo->scale_denom * cinfo->block_size) {
 1900              		.loc 1 97 5 view .LVU628
  96:fltk-1.3.4-1/jpeg/jcmaster.c ****     cinfo->min_DCT_v_scaled_size = 4;
 1901              		.loc 1 96 34 is_stmt 0 view .LVU629
 1902 01d0 48B80400 		movabsq	$17179869188, %rax
 1902      00000400 
 1902      0000
 1903 01da 48898368 		movq	%rax, 360(%rbx)
 1903      010000
 205:fltk-1.3.4-1/jpeg/jcmaster.c **** 
 1904              		.loc 1 205 1 view .LVU630
 1905 01e1 5B       		popq	%rbx
 1906              		.cfi_remember_state
 1907              		.cfi_def_cfa_offset 8
 1908              	.LVL174:
 205:fltk-1.3.4-1/jpeg/jcmaster.c **** 
 1909              		.loc 1 205 1 view .LVU631
 1910 01e2 C3       		ret
 1911              	.LVL175:
 1912              		.p2align 4,,10
 1913 01e3 0F1F4400 		.p2align 3
 1913      00
 1914              	.L184:
 1915              		.cfi_restore_state
  84:fltk-1.3.4-1/jpeg/jcmaster.c ****       jdiv_round_up((long) cinfo->image_width * cinfo->block_size, 3L);
 1916              		.loc 1 84 5 is_stmt 1 view .LVU632
  85:fltk-1.3.4-1/jpeg/jcmaster.c ****     cinfo->jpeg_height = (JDIMENSION)
 1917              		.loc 1 85 7 is_stmt 0 view .LVU633
 1918 01e8 BE030000 		movl	$3, %esi
 1918      00
 1919 01ed E8000000 		call	jdiv_round_up@PLT
 1919      00
 1920              	.LVL176:
  87:fltk-1.3.4-1/jpeg/jcmaster.c ****     cinfo->min_DCT_h_scaled_size = 3;
 1921              		.loc 1 87 21 view .LVU634
 1922 01f2 8B7B34   		movl	52(%rbx), %edi
  87:fltk-1.3.4-1/jpeg/jcmaster.c ****     cinfo->min_DCT_h_scaled_size = 3;
 1923              		.loc 1 87 7 view .LVU635
 1924 01f5 BE030000 		movl	$3, %esi
 1924      00
  84:fltk-1.3.4-1/jpeg/jcmaster.c ****       jdiv_round_up((long) cinfo->image_width * cinfo->block_size, 3L);
 1925              		.loc 1 84 25 view .LVU636
 1926 01fa 894350   		movl	%eax, 80(%rbx)
  86:fltk-1.3.4-1/jpeg/jcmaster.c ****       jdiv_round_up((long) cinfo->image_height * cinfo->block_size, 3L);
 1927              		.loc 1 86 5 is_stmt 1 view .LVU637
  87:fltk-1.3.4-1/jpeg/jcmaster.c ****     cinfo->min_DCT_h_scaled_size = 3;
 1928              		.loc 1 87 55 is_stmt 0 view .LVU638
 1929 01fd 486383DC 		movslq	476(%rbx), %rax
 1929      010000
  87:fltk-1.3.4-1/jpeg/jcmaster.c ****     cinfo->min_DCT_h_scaled_size = 3;
 1930              		.loc 1 87 7 view .LVU639
 1931 0204 480FAFF8 		imulq	%rax, %rdi
 1932 0208 E8000000 		call	jdiv_round_up@PLT
 1932      00
 1933              	.LVL177:
  86:fltk-1.3.4-1/jpeg/jcmaster.c ****       jdiv_round_up((long) cinfo->image_height * cinfo->block_size, 3L);
 1934              		.loc 1 86 26 view .LVU640
 1935 020d 894354   		movl	%eax, 84(%rbx)
  88:fltk-1.3.4-1/jpeg/jcmaster.c ****     cinfo->min_DCT_v_scaled_size = 3;
 1936              		.loc 1 88 5 is_stmt 1 view .LVU641
  89:fltk-1.3.4-1/jpeg/jcmaster.c ****   } else if (cinfo->scale_num * 4 >= cinfo->scale_denom * cinfo->block_size) {
 1937              		.loc 1 89 5 view .LVU642
  88:fltk-1.3.4-1/jpeg/jcmaster.c ****     cinfo->min_DCT_v_scaled_size = 3;
 1938              		.loc 1 88 34 is_stmt 0 view .LVU643
 1939 0210 48B80300 		movabsq	$12884901891, %rax
 1939      00000300 
 1939      0000
 1940 021a 48898368 		movq	%rax, 360(%rbx)
 1940      010000
 205:fltk-1.3.4-1/jpeg/jcmaster.c **** 
 1941              		.loc 1 205 1 view .LVU644
 1942 0221 5B       		popq	%rbx
 1943              		.cfi_remember_state
 1944              		.cfi_def_cfa_offset 8
 1945              	.LVL178:
 205:fltk-1.3.4-1/jpeg/jcmaster.c **** 
 1946              		.loc 1 205 1 view .LVU645
 1947 0222 C3       		ret
 1948              	.LVL179:
 1949              		.p2align 4,,10
 1950 0223 0F1F4400 		.p2align 3
 1950      00
 1951              	.L188:
 1952              		.cfi_restore_state
 116:fltk-1.3.4-1/jpeg/jcmaster.c ****       jdiv_round_up((long) cinfo->image_width * cinfo->block_size, 7L);
 1953              		.loc 1 116 5 is_stmt 1 view .LVU646
 117:fltk-1.3.4-1/jpeg/jcmaster.c ****     cinfo->jpeg_height = (JDIMENSION)
 1954              		.loc 1 117 7 is_stmt 0 view .LVU647
 1955 0228 BE070000 		movl	$7, %esi
 1955      00
 1956 022d E8000000 		call	jdiv_round_up@PLT
 1956      00
 1957              	.LVL180:
 119:fltk-1.3.4-1/jpeg/jcmaster.c ****     cinfo->min_DCT_h_scaled_size = 7;
 1958              		.loc 1 119 21 view .LVU648
 1959 0232 8B7B34   		movl	52(%rbx), %edi
 119:fltk-1.3.4-1/jpeg/jcmaster.c ****     cinfo->min_DCT_h_scaled_size = 7;
 1960              		.loc 1 119 7 view .LVU649
 1961 0235 BE070000 		movl	$7, %esi
 1961      00
 116:fltk-1.3.4-1/jpeg/jcmaster.c ****       jdiv_round_up((long) cinfo->image_width * cinfo->block_size, 7L);
 1962              		.loc 1 116 25 view .LVU650
 1963 023a 894350   		movl	%eax, 80(%rbx)
 118:fltk-1.3.4-1/jpeg/jcmaster.c ****       jdiv_round_up((long) cinfo->image_height * cinfo->block_size, 7L);
 1964              		.loc 1 118 5 is_stmt 1 view .LVU651
 119:fltk-1.3.4-1/jpeg/jcmaster.c ****     cinfo->min_DCT_h_scaled_size = 7;
 1965              		.loc 1 119 55 is_stmt 0 view .LVU652
 1966 023d 486383DC 		movslq	476(%rbx), %rax
 1966      010000
 119:fltk-1.3.4-1/jpeg/jcmaster.c ****     cinfo->min_DCT_h_scaled_size = 7;
 1967              		.loc 1 119 7 view .LVU653
 1968 0244 480FAFF8 		imulq	%rax, %rdi
 1969 0248 E8000000 		call	jdiv_round_up@PLT
 1969      00
 1970              	.LVL181:
 118:fltk-1.3.4-1/jpeg/jcmaster.c ****       jdiv_round_up((long) cinfo->image_height * cinfo->block_size, 7L);
 1971              		.loc 1 118 26 view .LVU654
 1972 024d 894354   		movl	%eax, 84(%rbx)
 120:fltk-1.3.4-1/jpeg/jcmaster.c ****     cinfo->min_DCT_v_scaled_size = 7;
 1973              		.loc 1 120 5 is_stmt 1 view .LVU655
 121:fltk-1.3.4-1/jpeg/jcmaster.c ****   } else if (cinfo->scale_num * 8 >= cinfo->scale_denom * cinfo->block_size) {
 1974              		.loc 1 121 5 view .LVU656
 120:fltk-1.3.4-1/jpeg/jcmaster.c ****     cinfo->min_DCT_v_scaled_size = 7;
 1975              		.loc 1 120 34 is_stmt 0 view .LVU657
 1976 0250 48B80700 		movabsq	$30064771079, %rax
 1976      00000700 
 1976      0000
 1977 025a 48898368 		movq	%rax, 360(%rbx)
 1977      010000
 205:fltk-1.3.4-1/jpeg/jcmaster.c **** 
 1978              		.loc 1 205 1 view .LVU658
 1979 0261 5B       		popq	%rbx
 1980              		.cfi_remember_state
 1981              		.cfi_def_cfa_offset 8
 1982              	.LVL182:
 205:fltk-1.3.4-1/jpeg/jcmaster.c **** 
 1983              		.loc 1 205 1 view .LVU659
 1984 0262 C3       		ret
 1985              	.LVL183:
 1986              		.p2align 4,,10
 1987 0263 0F1F4400 		.p2align 3
 1987      00
 1988              	.L186:
 1989              		.cfi_restore_state
 100:fltk-1.3.4-1/jpeg/jcmaster.c ****       jdiv_round_up((long) cinfo->image_width * cinfo->block_size, 5L);
 1990              		.loc 1 100 5 is_stmt 1 view .LVU660
 101:fltk-1.3.4-1/jpeg/jcmaster.c ****     cinfo->jpeg_height = (JDIMENSION)
 1991              		.loc 1 101 7 is_stmt 0 view .LVU661
 1992 0268 BE050000 		movl	$5, %esi
 1992      00
 1993 026d E8000000 		call	jdiv_round_up@PLT
 1993      00
 1994              	.LVL184:
 103:fltk-1.3.4-1/jpeg/jcmaster.c ****     cinfo->min_DCT_h_scaled_size = 5;
 1995              		.loc 1 103 21 view .LVU662
 1996 0272 8B7B34   		movl	52(%rbx), %edi
 103:fltk-1.3.4-1/jpeg/jcmaster.c ****     cinfo->min_DCT_h_scaled_size = 5;
 1997              		.loc 1 103 7 view .LVU663
 1998 0275 BE050000 		movl	$5, %esi
 1998      00
 100:fltk-1.3.4-1/jpeg/jcmaster.c ****       jdiv_round_up((long) cinfo->image_width * cinfo->block_size, 5L);
 1999              		.loc 1 100 25 view .LVU664
 2000 027a 894350   		movl	%eax, 80(%rbx)
 102:fltk-1.3.4-1/jpeg/jcmaster.c ****       jdiv_round_up((long) cinfo->image_height * cinfo->block_size, 5L);
 2001              		.loc 1 102 5 is_stmt 1 view .LVU665
 103:fltk-1.3.4-1/jpeg/jcmaster.c ****     cinfo->min_DCT_h_scaled_size = 5;
 2002              		.loc 1 103 55 is_stmt 0 view .LVU666
 2003 027d 486383DC 		movslq	476(%rbx), %rax
 2003      010000
 103:fltk-1.3.4-1/jpeg/jcmaster.c ****     cinfo->min_DCT_h_scaled_size = 5;
 2004              		.loc 1 103 7 view .LVU667
 2005 0284 480FAFF8 		imulq	%rax, %rdi
 2006 0288 E8000000 		call	jdiv_round_up@PLT
 2006      00
 2007              	.LVL185:
 102:fltk-1.3.4-1/jpeg/jcmaster.c ****       jdiv_round_up((long) cinfo->image_height * cinfo->block_size, 5L);
 2008              		.loc 1 102 26 view .LVU668
 2009 028d 894354   		movl	%eax, 84(%rbx)
 104:fltk-1.3.4-1/jpeg/jcmaster.c ****     cinfo->min_DCT_v_scaled_size = 5;
 2010              		.loc 1 104 5 is_stmt 1 view .LVU669
 105:fltk-1.3.4-1/jpeg/jcmaster.c ****   } else if (cinfo->scale_num * 6 >= cinfo->scale_denom * cinfo->block_size) {
 2011              		.loc 1 105 5 view .LVU670
 104:fltk-1.3.4-1/jpeg/jcmaster.c ****     cinfo->min_DCT_v_scaled_size = 5;
 2012              		.loc 1 104 34 is_stmt 0 view .LVU671
 2013 0290 48B80500 		movabsq	$21474836485, %rax
 2013      00000500 
 2013      0000
 2014 029a 48898368 		movq	%rax, 360(%rbx)
 2014      010000
 205:fltk-1.3.4-1/jpeg/jcmaster.c **** 
 2015              		.loc 1 205 1 view .LVU672
 2016 02a1 5B       		popq	%rbx
 2017              		.cfi_remember_state
 2018              		.cfi_def_cfa_offset 8
 2019              	.LVL186:
 205:fltk-1.3.4-1/jpeg/jcmaster.c **** 
 2020              		.loc 1 205 1 view .LVU673
 2021 02a2 C3       		ret
 2022              	.LVL187:
 2023              		.p2align 4,,10
 2024 02a3 0F1F4400 		.p2align 3
 2024      00
 2025              	.L187:
 2026              		.cfi_restore_state
 108:fltk-1.3.4-1/jpeg/jcmaster.c ****       jdiv_round_up((long) cinfo->image_width * cinfo->block_size, 6L);
 2027              		.loc 1 108 5 is_stmt 1 view .LVU674
 109:fltk-1.3.4-1/jpeg/jcmaster.c ****     cinfo->jpeg_height = (JDIMENSION)
 2028              		.loc 1 109 7 is_stmt 0 view .LVU675
 2029 02a8 BE060000 		movl	$6, %esi
 2029      00
 2030 02ad E8000000 		call	jdiv_round_up@PLT
 2030      00
 2031              	.LVL188:
 111:fltk-1.3.4-1/jpeg/jcmaster.c ****     cinfo->min_DCT_h_scaled_size = 6;
 2032              		.loc 1 111 21 view .LVU676
 2033 02b2 8B7B34   		movl	52(%rbx), %edi
 111:fltk-1.3.4-1/jpeg/jcmaster.c ****     cinfo->min_DCT_h_scaled_size = 6;
 2034              		.loc 1 111 7 view .LVU677
 2035 02b5 BE060000 		movl	$6, %esi
 2035      00
 108:fltk-1.3.4-1/jpeg/jcmaster.c ****       jdiv_round_up((long) cinfo->image_width * cinfo->block_size, 6L);
 2036              		.loc 1 108 25 view .LVU678
 2037 02ba 894350   		movl	%eax, 80(%rbx)
 110:fltk-1.3.4-1/jpeg/jcmaster.c ****       jdiv_round_up((long) cinfo->image_height * cinfo->block_size, 6L);
 2038              		.loc 1 110 5 is_stmt 1 view .LVU679
 111:fltk-1.3.4-1/jpeg/jcmaster.c ****     cinfo->min_DCT_h_scaled_size = 6;
 2039              		.loc 1 111 55 is_stmt 0 view .LVU680
 2040 02bd 486383DC 		movslq	476(%rbx), %rax
 2040      010000
 111:fltk-1.3.4-1/jpeg/jcmaster.c ****     cinfo->min_DCT_h_scaled_size = 6;
 2041              		.loc 1 111 7 view .LVU681
 2042 02c4 480FAFF8 		imulq	%rax, %rdi
 2043 02c8 E8000000 		call	jdiv_round_up@PLT
 2043      00
 2044              	.LVL189:
 110:fltk-1.3.4-1/jpeg/jcmaster.c ****       jdiv_round_up((long) cinfo->image_height * cinfo->block_size, 6L);
 2045              		.loc 1 110 26 view .LVU682
 2046 02cd 894354   		movl	%eax, 84(%rbx)
 112:fltk-1.3.4-1/jpeg/jcmaster.c ****     cinfo->min_DCT_v_scaled_size = 6;
 2047              		.loc 1 112 5 is_stmt 1 view .LVU683
 113:fltk-1.3.4-1/jpeg/jcmaster.c ****   } else if (cinfo->scale_num * 7 >= cinfo->scale_denom * cinfo->block_size) {
 2048              		.loc 1 113 5 view .LVU684
 112:fltk-1.3.4-1/jpeg/jcmaster.c ****     cinfo->min_DCT_v_scaled_size = 6;
 2049              		.loc 1 112 34 is_stmt 0 view .LVU685
 2050 02d0 48B80600 		movabsq	$25769803782, %rax
 2050      00000600 
 2050      0000
 2051 02da 48898368 		movq	%rax, 360(%rbx)
 2051      010000
 205:fltk-1.3.4-1/jpeg/jcmaster.c **** 
 2052              		.loc 1 205 1 view .LVU686
 2053 02e1 5B       		popq	%rbx
 2054              		.cfi_remember_state
 2055              		.cfi_def_cfa_offset 8
 2056              	.LVL190:
 205:fltk-1.3.4-1/jpeg/jcmaster.c **** 
 2057              		.loc 1 205 1 view .LVU687
 2058 02e2 C3       		ret
 2059              	.LVL191:
 2060              		.p2align 4,,10
 2061 02e3 0F1F4400 		.p2align 3
 2061      00
 2062              	.L189:
 2063              		.cfi_restore_state
 124:fltk-1.3.4-1/jpeg/jcmaster.c ****       jdiv_round_up((long) cinfo->image_width * cinfo->block_size, 8L);
 2064              		.loc 1 124 5 is_stmt 1 view .LVU688
 125:fltk-1.3.4-1/jpeg/jcmaster.c ****     cinfo->jpeg_height = (JDIMENSION)
 2065              		.loc 1 125 7 is_stmt 0 view .LVU689
 2066 02e8 BE080000 		movl	$8, %esi
 2066      00
 2067 02ed E8000000 		call	jdiv_round_up@PLT
 2067      00
 2068              	.LVL192:
 127:fltk-1.3.4-1/jpeg/jcmaster.c ****     cinfo->min_DCT_h_scaled_size = 8;
 2069              		.loc 1 127 21 view .LVU690
 2070 02f2 8B7B34   		movl	52(%rbx), %edi
 127:fltk-1.3.4-1/jpeg/jcmaster.c ****     cinfo->min_DCT_h_scaled_size = 8;
 2071              		.loc 1 127 7 view .LVU691
 2072 02f5 BE080000 		movl	$8, %esi
 2072      00
 124:fltk-1.3.4-1/jpeg/jcmaster.c ****       jdiv_round_up((long) cinfo->image_width * cinfo->block_size, 8L);
 2073              		.loc 1 124 25 view .LVU692
 2074 02fa 894350   		movl	%eax, 80(%rbx)
 126:fltk-1.3.4-1/jpeg/jcmaster.c ****       jdiv_round_up((long) cinfo->image_height * cinfo->block_size, 8L);
 2075              		.loc 1 126 5 is_stmt 1 view .LVU693
 127:fltk-1.3.4-1/jpeg/jcmaster.c ****     cinfo->min_DCT_h_scaled_size = 8;
 2076              		.loc 1 127 55 is_stmt 0 view .LVU694
 2077 02fd 486383DC 		movslq	476(%rbx), %rax
 2077      010000
 127:fltk-1.3.4-1/jpeg/jcmaster.c ****     cinfo->min_DCT_h_scaled_size = 8;
 2078              		.loc 1 127 7 view .LVU695
 2079 0304 480FAFF8 		imulq	%rax, %rdi
 2080 0308 E8000000 		call	jdiv_round_up@PLT
 2080      00
 2081              	.LVL193:
 126:fltk-1.3.4-1/jpeg/jcmaster.c ****       jdiv_round_up((long) cinfo->image_height * cinfo->block_size, 8L);
 2082              		.loc 1 126 26 view .LVU696
 2083 030d 894354   		movl	%eax, 84(%rbx)
 128:fltk-1.3.4-1/jpeg/jcmaster.c ****     cinfo->min_DCT_v_scaled_size = 8;
 2084              		.loc 1 128 5 is_stmt 1 view .LVU697
 129:fltk-1.3.4-1/jpeg/jcmaster.c ****   } else if (cinfo->scale_num * 9 >= cinfo->scale_denom * cinfo->block_size) {
 2085              		.loc 1 129 5 view .LVU698
 128:fltk-1.3.4-1/jpeg/jcmaster.c ****     cinfo->min_DCT_v_scaled_size = 8;
 2086              		.loc 1 128 34 is_stmt 0 view .LVU699
 2087 0310 48B80800 		movabsq	$34359738376, %rax
 2087      00000800 
 2087      0000
 2088 031a 48898368 		movq	%rax, 360(%rbx)
 2088      010000
 205:fltk-1.3.4-1/jpeg/jcmaster.c **** 
 2089              		.loc 1 205 1 view .LVU700
 2090 0321 5B       		popq	%rbx
 2091              		.cfi_remember_state
 2092              		.cfi_def_cfa_offset 8
 2093              	.LVL194:
 205:fltk-1.3.4-1/jpeg/jcmaster.c **** 
 2094              		.loc 1 205 1 view .LVU701
 2095 0322 C3       		ret
 2096              	.LVL195:
 2097              		.p2align 4,,10
 2098 0323 0F1F4400 		.p2align 3
 2098      00
 2099              	.L190:
 2100              		.cfi_restore_state
 132:fltk-1.3.4-1/jpeg/jcmaster.c ****       jdiv_round_up((long) cinfo->image_width * cinfo->block_size, 9L);
 2101              		.loc 1 132 5 is_stmt 1 view .LVU702
 133:fltk-1.3.4-1/jpeg/jcmaster.c ****     cinfo->jpeg_height = (JDIMENSION)
 2102              		.loc 1 133 7 is_stmt 0 view .LVU703
 2103 0328 BE090000 		movl	$9, %esi
 2103      00
 2104 032d E8000000 		call	jdiv_round_up@PLT
 2104      00
 2105              	.LVL196:
 135:fltk-1.3.4-1/jpeg/jcmaster.c ****     cinfo->min_DCT_h_scaled_size = 9;
 2106              		.loc 1 135 21 view .LVU704
 2107 0332 8B7B34   		movl	52(%rbx), %edi
 135:fltk-1.3.4-1/jpeg/jcmaster.c ****     cinfo->min_DCT_h_scaled_size = 9;
 2108              		.loc 1 135 7 view .LVU705
 2109 0335 BE090000 		movl	$9, %esi
 2109      00
 132:fltk-1.3.4-1/jpeg/jcmaster.c ****       jdiv_round_up((long) cinfo->image_width * cinfo->block_size, 9L);
 2110              		.loc 1 132 25 view .LVU706
 2111 033a 894350   		movl	%eax, 80(%rbx)
 134:fltk-1.3.4-1/jpeg/jcmaster.c ****       jdiv_round_up((long) cinfo->image_height * cinfo->block_size, 9L);
 2112              		.loc 1 134 5 is_stmt 1 view .LVU707
 135:fltk-1.3.4-1/jpeg/jcmaster.c ****     cinfo->min_DCT_h_scaled_size = 9;
 2113              		.loc 1 135 55 is_stmt 0 view .LVU708
 2114 033d 486383DC 		movslq	476(%rbx), %rax
 2114      010000
 135:fltk-1.3.4-1/jpeg/jcmaster.c ****     cinfo->min_DCT_h_scaled_size = 9;
 2115              		.loc 1 135 7 view .LVU709
 2116 0344 480FAFF8 		imulq	%rax, %rdi
 2117 0348 E8000000 		call	jdiv_round_up@PLT
 2117      00
 2118              	.LVL197:
 134:fltk-1.3.4-1/jpeg/jcmaster.c ****       jdiv_round_up((long) cinfo->image_height * cinfo->block_size, 9L);
 2119              		.loc 1 134 26 view .LVU710
 2120 034d 894354   		movl	%eax, 84(%rbx)
 136:fltk-1.3.4-1/jpeg/jcmaster.c ****     cinfo->min_DCT_v_scaled_size = 9;
 2121              		.loc 1 136 5 is_stmt 1 view .LVU711
 137:fltk-1.3.4-1/jpeg/jcmaster.c ****   } else if (cinfo->scale_num * 10 >= cinfo->scale_denom * cinfo->block_size) {
 2122              		.loc 1 137 5 view .LVU712
 136:fltk-1.3.4-1/jpeg/jcmaster.c ****     cinfo->min_DCT_v_scaled_size = 9;
 2123              		.loc 1 136 34 is_stmt 0 view .LVU713
 2124 0350 48B80900 		movabsq	$38654705673, %rax
 2124      00000900 
 2124      0000
 2125 035a 48898368 		movq	%rax, 360(%rbx)
 2125      010000
 205:fltk-1.3.4-1/jpeg/jcmaster.c **** 
 2126              		.loc 1 205 1 view .LVU714
 2127 0361 5B       		popq	%rbx
 2128              		.cfi_remember_state
 2129              		.cfi_def_cfa_offset 8
 2130              	.LVL198:
 205:fltk-1.3.4-1/jpeg/jcmaster.c **** 
 2131              		.loc 1 205 1 view .LVU715
 2132 0362 C3       		ret
 2133              	.LVL199:
 2134              	.L191:
 2135              		.cfi_restore_state
 140:fltk-1.3.4-1/jpeg/jcmaster.c ****       jdiv_round_up((long) cinfo->image_width * cinfo->block_size, 10L);
 2136              		.loc 1 140 5 is_stmt 1 view .LVU716
 141:fltk-1.3.4-1/jpeg/jcmaster.c ****     cinfo->jpeg_height = (JDIMENSION)
 2137              		.loc 1 141 7 is_stmt 0 view .LVU717
 2138 0363 BE0A0000 		movl	$10, %esi
 2138      00
 2139 0368 E8000000 		call	jdiv_round_up@PLT
 2139      00
 2140              	.LVL200:
 143:fltk-1.3.4-1/jpeg/jcmaster.c ****     cinfo->min_DCT_h_scaled_size = 10;
 2141              		.loc 1 143 21 view .LVU718
 2142 036d 8B7B34   		movl	52(%rbx), %edi
 143:fltk-1.3.4-1/jpeg/jcmaster.c ****     cinfo->min_DCT_h_scaled_size = 10;
 2143              		.loc 1 143 7 view .LVU719
 2144 0370 BE0A0000 		movl	$10, %esi
 2144      00
 140:fltk-1.3.4-1/jpeg/jcmaster.c ****       jdiv_round_up((long) cinfo->image_width * cinfo->block_size, 10L);
 2145              		.loc 1 140 25 view .LVU720
 2146 0375 894350   		movl	%eax, 80(%rbx)
 142:fltk-1.3.4-1/jpeg/jcmaster.c ****       jdiv_round_up((long) cinfo->image_height * cinfo->block_size, 10L);
 2147              		.loc 1 142 5 is_stmt 1 view .LVU721
 143:fltk-1.3.4-1/jpeg/jcmaster.c ****     cinfo->min_DCT_h_scaled_size = 10;
 2148              		.loc 1 143 55 is_stmt 0 view .LVU722
 2149 0378 486383DC 		movslq	476(%rbx), %rax
 2149      010000
 143:fltk-1.3.4-1/jpeg/jcmaster.c ****     cinfo->min_DCT_h_scaled_size = 10;
 2150              		.loc 1 143 7 view .LVU723
 2151 037f 480FAFF8 		imulq	%rax, %rdi
 2152 0383 E8000000 		call	jdiv_round_up@PLT
 2152      00
 2153              	.LVL201:
 142:fltk-1.3.4-1/jpeg/jcmaster.c ****       jdiv_round_up((long) cinfo->image_height * cinfo->block_size, 10L);
 2154              		.loc 1 142 26 view .LVU724
 2155 0388 894354   		movl	%eax, 84(%rbx)
 144:fltk-1.3.4-1/jpeg/jcmaster.c ****     cinfo->min_DCT_v_scaled_size = 10;
 2156              		.loc 1 144 5 is_stmt 1 view .LVU725
 145:fltk-1.3.4-1/jpeg/jcmaster.c ****   } else if (cinfo->scale_num * 11 >= cinfo->scale_denom * cinfo->block_size) {
 2157              		.loc 1 145 5 view .LVU726
 144:fltk-1.3.4-1/jpeg/jcmaster.c ****     cinfo->min_DCT_v_scaled_size = 10;
 2158              		.loc 1 144 34 is_stmt 0 view .LVU727
 2159 038b 48B80A00 		movabsq	$42949672970, %rax
 2159      00000A00 
 2159      0000
 2160 0395 48898368 		movq	%rax, 360(%rbx)
 2160      010000
 205:fltk-1.3.4-1/jpeg/jcmaster.c **** 
 2161              		.loc 1 205 1 view .LVU728
 2162 039c 5B       		popq	%rbx
 2163              		.cfi_remember_state
 2164              		.cfi_def_cfa_offset 8
 2165              	.LVL202:
 205:fltk-1.3.4-1/jpeg/jcmaster.c **** 
 2166              		.loc 1 205 1 view .LVU729
 2167 039d C3       		ret
 2168              	.LVL203:
 2169              	.L192:
 2170              		.cfi_restore_state
 148:fltk-1.3.4-1/jpeg/jcmaster.c ****       jdiv_round_up((long) cinfo->image_width * cinfo->block_size, 11L);
 2171              		.loc 1 148 5 is_stmt 1 view .LVU730
 149:fltk-1.3.4-1/jpeg/jcmaster.c ****     cinfo->jpeg_height = (JDIMENSION)
 2172              		.loc 1 149 7 is_stmt 0 view .LVU731
 2173 039e BE0B0000 		movl	$11, %esi
 2173      00
 2174 03a3 E8000000 		call	jdiv_round_up@PLT
 2174      00
 2175              	.LVL204:
 151:fltk-1.3.4-1/jpeg/jcmaster.c ****     cinfo->min_DCT_h_scaled_size = 11;
 2176              		.loc 1 151 21 view .LVU732
 2177 03a8 8B7B34   		movl	52(%rbx), %edi
 151:fltk-1.3.4-1/jpeg/jcmaster.c ****     cinfo->min_DCT_h_scaled_size = 11;
 2178              		.loc 1 151 7 view .LVU733
 2179 03ab BE0B0000 		movl	$11, %esi
 2179      00
 148:fltk-1.3.4-1/jpeg/jcmaster.c ****       jdiv_round_up((long) cinfo->image_width * cinfo->block_size, 11L);
 2180              		.loc 1 148 25 view .LVU734
 2181 03b0 894350   		movl	%eax, 80(%rbx)
 150:fltk-1.3.4-1/jpeg/jcmaster.c ****       jdiv_round_up((long) cinfo->image_height * cinfo->block_size, 11L);
 2182              		.loc 1 150 5 is_stmt 1 view .LVU735
 151:fltk-1.3.4-1/jpeg/jcmaster.c ****     cinfo->min_DCT_h_scaled_size = 11;
 2183              		.loc 1 151 55 is_stmt 0 view .LVU736
 2184 03b3 486383DC 		movslq	476(%rbx), %rax
 2184      010000
 151:fltk-1.3.4-1/jpeg/jcmaster.c ****     cinfo->min_DCT_h_scaled_size = 11;
 2185              		.loc 1 151 7 view .LVU737
 2186 03ba 480FAFF8 		imulq	%rax, %rdi
 2187 03be E8000000 		call	jdiv_round_up@PLT
 2187      00
 2188              	.LVL205:
 150:fltk-1.3.4-1/jpeg/jcmaster.c ****       jdiv_round_up((long) cinfo->image_height * cinfo->block_size, 11L);
 2189              		.loc 1 150 26 view .LVU738
 2190 03c3 894354   		movl	%eax, 84(%rbx)
 152:fltk-1.3.4-1/jpeg/jcmaster.c ****     cinfo->min_DCT_v_scaled_size = 11;
 2191              		.loc 1 152 5 is_stmt 1 view .LVU739
 153:fltk-1.3.4-1/jpeg/jcmaster.c ****   } else if (cinfo->scale_num * 12 >= cinfo->scale_denom * cinfo->block_size) {
 2192              		.loc 1 153 5 view .LVU740
 152:fltk-1.3.4-1/jpeg/jcmaster.c ****     cinfo->min_DCT_v_scaled_size = 11;
 2193              		.loc 1 152 34 is_stmt 0 view .LVU741
 2194 03c6 48B80B00 		movabsq	$47244640267, %rax
 2194      00000B00 
 2194      0000
 2195 03d0 48898368 		movq	%rax, 360(%rbx)
 2195      010000
 205:fltk-1.3.4-1/jpeg/jcmaster.c **** 
 2196              		.loc 1 205 1 view .LVU742
 2197 03d7 5B       		popq	%rbx
 2198              		.cfi_remember_state
 2199              		.cfi_def_cfa_offset 8
 2200              	.LVL206:
 205:fltk-1.3.4-1/jpeg/jcmaster.c **** 
 2201              		.loc 1 205 1 view .LVU743
 2202 03d8 C3       		ret
 2203              	.LVL207:
 2204              	.L193:
 2205              		.cfi_restore_state
 156:fltk-1.3.4-1/jpeg/jcmaster.c ****       jdiv_round_up((long) cinfo->image_width * cinfo->block_size, 12L);
 2206              		.loc 1 156 5 is_stmt 1 view .LVU744
 157:fltk-1.3.4-1/jpeg/jcmaster.c ****     cinfo->jpeg_height = (JDIMENSION)
 2207              		.loc 1 157 7 is_stmt 0 view .LVU745
 2208 03d9 BE0C0000 		movl	$12, %esi
 2208      00
 2209 03de E8000000 		call	jdiv_round_up@PLT
 2209      00
 2210              	.LVL208:
 159:fltk-1.3.4-1/jpeg/jcmaster.c ****     cinfo->min_DCT_h_scaled_size = 12;
 2211              		.loc 1 159 21 view .LVU746
 2212 03e3 8B7B34   		movl	52(%rbx), %edi
 159:fltk-1.3.4-1/jpeg/jcmaster.c ****     cinfo->min_DCT_h_scaled_size = 12;
 2213              		.loc 1 159 7 view .LVU747
 2214 03e6 BE0C0000 		movl	$12, %esi
 2214      00
 156:fltk-1.3.4-1/jpeg/jcmaster.c ****       jdiv_round_up((long) cinfo->image_width * cinfo->block_size, 12L);
 2215              		.loc 1 156 25 view .LVU748
 2216 03eb 894350   		movl	%eax, 80(%rbx)
 158:fltk-1.3.4-1/jpeg/jcmaster.c ****       jdiv_round_up((long) cinfo->image_height * cinfo->block_size, 12L);
 2217              		.loc 1 158 5 is_stmt 1 view .LVU749
 159:fltk-1.3.4-1/jpeg/jcmaster.c ****     cinfo->min_DCT_h_scaled_size = 12;
 2218              		.loc 1 159 55 is_stmt 0 view .LVU750
 2219 03ee 486383DC 		movslq	476(%rbx), %rax
 2219      010000
 159:fltk-1.3.4-1/jpeg/jcmaster.c ****     cinfo->min_DCT_h_scaled_size = 12;
 2220              		.loc 1 159 7 view .LVU751
 2221 03f5 480FAFF8 		imulq	%rax, %rdi
 2222 03f9 E8000000 		call	jdiv_round_up@PLT
 2222      00
 2223              	.LVL209:
 158:fltk-1.3.4-1/jpeg/jcmaster.c ****       jdiv_round_up((long) cinfo->image_height * cinfo->block_size, 12L);
 2224              		.loc 1 158 26 view .LVU752
 2225 03fe 894354   		movl	%eax, 84(%rbx)
 160:fltk-1.3.4-1/jpeg/jcmaster.c ****     cinfo->min_DCT_v_scaled_size = 12;
 2226              		.loc 1 160 5 is_stmt 1 view .LVU753
 161:fltk-1.3.4-1/jpeg/jcmaster.c ****   } else if (cinfo->scale_num * 13 >= cinfo->scale_denom * cinfo->block_size) {
 2227              		.loc 1 161 5 view .LVU754
 160:fltk-1.3.4-1/jpeg/jcmaster.c ****     cinfo->min_DCT_v_scaled_size = 12;
 2228              		.loc 1 160 34 is_stmt 0 view .LVU755
 2229 0401 48B80C00 		movabsq	$51539607564, %rax
 2229      00000C00 
 2229      0000
 2230 040b 48898368 		movq	%rax, 360(%rbx)
 2230      010000
 205:fltk-1.3.4-1/jpeg/jcmaster.c **** 
 2231              		.loc 1 205 1 view .LVU756
 2232 0412 5B       		popq	%rbx
 2233              		.cfi_remember_state
 2234              		.cfi_def_cfa_offset 8
 2235              	.LVL210:
 205:fltk-1.3.4-1/jpeg/jcmaster.c **** 
 2236              		.loc 1 205 1 view .LVU757
 2237 0413 C3       		ret
 2238              	.LVL211:
 2239              	.L194:
 2240              		.cfi_restore_state
 164:fltk-1.3.4-1/jpeg/jcmaster.c ****       jdiv_round_up((long) cinfo->image_width * cinfo->block_size, 13L);
 2241              		.loc 1 164 5 is_stmt 1 view .LVU758
 165:fltk-1.3.4-1/jpeg/jcmaster.c ****     cinfo->jpeg_height = (JDIMENSION)
 2242              		.loc 1 165 7 is_stmt 0 view .LVU759
 2243 0414 BE0D0000 		movl	$13, %esi
 2243      00
 2244 0419 E8000000 		call	jdiv_round_up@PLT
 2244      00
 2245              	.LVL212:
 167:fltk-1.3.4-1/jpeg/jcmaster.c ****     cinfo->min_DCT_h_scaled_size = 13;
 2246              		.loc 1 167 21 view .LVU760
 2247 041e 8B7B34   		movl	52(%rbx), %edi
 167:fltk-1.3.4-1/jpeg/jcmaster.c ****     cinfo->min_DCT_h_scaled_size = 13;
 2248              		.loc 1 167 7 view .LVU761
 2249 0421 BE0D0000 		movl	$13, %esi
 2249      00
 164:fltk-1.3.4-1/jpeg/jcmaster.c ****       jdiv_round_up((long) cinfo->image_width * cinfo->block_size, 13L);
 2250              		.loc 1 164 25 view .LVU762
 2251 0426 894350   		movl	%eax, 80(%rbx)
 166:fltk-1.3.4-1/jpeg/jcmaster.c ****       jdiv_round_up((long) cinfo->image_height * cinfo->block_size, 13L);
 2252              		.loc 1 166 5 is_stmt 1 view .LVU763
 167:fltk-1.3.4-1/jpeg/jcmaster.c ****     cinfo->min_DCT_h_scaled_size = 13;
 2253              		.loc 1 167 55 is_stmt 0 view .LVU764
 2254 0429 486383DC 		movslq	476(%rbx), %rax
 2254      010000
 167:fltk-1.3.4-1/jpeg/jcmaster.c ****     cinfo->min_DCT_h_scaled_size = 13;
 2255              		.loc 1 167 7 view .LVU765
 2256 0430 480FAFF8 		imulq	%rax, %rdi
 2257 0434 E8000000 		call	jdiv_round_up@PLT
 2257      00
 2258              	.LVL213:
 166:fltk-1.3.4-1/jpeg/jcmaster.c ****       jdiv_round_up((long) cinfo->image_height * cinfo->block_size, 13L);
 2259              		.loc 1 166 26 view .LVU766
 2260 0439 894354   		movl	%eax, 84(%rbx)
 168:fltk-1.3.4-1/jpeg/jcmaster.c ****     cinfo->min_DCT_v_scaled_size = 13;
 2261              		.loc 1 168 5 is_stmt 1 view .LVU767
 169:fltk-1.3.4-1/jpeg/jcmaster.c ****   } else if (cinfo->scale_num * 14 >= cinfo->scale_denom * cinfo->block_size) {
 2262              		.loc 1 169 5 view .LVU768
 168:fltk-1.3.4-1/jpeg/jcmaster.c ****     cinfo->min_DCT_v_scaled_size = 13;
 2263              		.loc 1 168 34 is_stmt 0 view .LVU769
 2264 043c 48B80D00 		movabsq	$55834574861, %rax
 2264      00000D00 
 2264      0000
 2265 0446 48898368 		movq	%rax, 360(%rbx)
 2265      010000
 205:fltk-1.3.4-1/jpeg/jcmaster.c **** 
 2266              		.loc 1 205 1 view .LVU770
 2267 044d 5B       		popq	%rbx
 2268              		.cfi_remember_state
 2269              		.cfi_def_cfa_offset 8
 2270              	.LVL214:
 205:fltk-1.3.4-1/jpeg/jcmaster.c **** 
 2271              		.loc 1 205 1 view .LVU771
 2272 044e C3       		ret
 2273              	.LVL215:
 2274              	.L178:
 2275              		.cfi_restore_state
 188:fltk-1.3.4-1/jpeg/jcmaster.c ****       jdiv_round_up((long) cinfo->image_width * cinfo->block_size, 16L);
 2276              		.loc 1 188 5 is_stmt 1 view .LVU772
 189:fltk-1.3.4-1/jpeg/jcmaster.c ****     cinfo->jpeg_height = (JDIMENSION)
 2277              		.loc 1 189 7 is_stmt 0 view .LVU773
 2278 044f BE100000 		movl	$16, %esi
 2278      00
 2279 0454 E8000000 		call	jdiv_round_up@PLT
 2279      00
 2280              	.LVL216:
 191:fltk-1.3.4-1/jpeg/jcmaster.c ****     cinfo->min_DCT_h_scaled_size = 16;
 2281              		.loc 1 191 21 view .LVU774
 2282 0459 8B7B34   		movl	52(%rbx), %edi
 191:fltk-1.3.4-1/jpeg/jcmaster.c ****     cinfo->min_DCT_h_scaled_size = 16;
 2283              		.loc 1 191 7 view .LVU775
 2284 045c BE100000 		movl	$16, %esi
 2284      00
 188:fltk-1.3.4-1/jpeg/jcmaster.c ****       jdiv_round_up((long) cinfo->image_width * cinfo->block_size, 16L);
 2285              		.loc 1 188 25 view .LVU776
 2286 0461 894350   		movl	%eax, 80(%rbx)
 190:fltk-1.3.4-1/jpeg/jcmaster.c ****       jdiv_round_up((long) cinfo->image_height * cinfo->block_size, 16L);
 2287              		.loc 1 190 5 is_stmt 1 view .LVU777
 191:fltk-1.3.4-1/jpeg/jcmaster.c ****     cinfo->min_DCT_h_scaled_size = 16;
 2288              		.loc 1 191 55 is_stmt 0 view .LVU778
 2289 0464 486383DC 		movslq	476(%rbx), %rax
 2289      010000
 191:fltk-1.3.4-1/jpeg/jcmaster.c ****     cinfo->min_DCT_h_scaled_size = 16;
 2290              		.loc 1 191 7 view .LVU779
 2291 046b 480FAFF8 		imulq	%rax, %rdi
 2292 046f E8000000 		call	jdiv_round_up@PLT
 2292      00
 2293              	.LVL217:
 190:fltk-1.3.4-1/jpeg/jcmaster.c ****       jdiv_round_up((long) cinfo->image_height * cinfo->block_size, 16L);
 2294              		.loc 1 190 26 view .LVU780
 2295 0474 894354   		movl	%eax, 84(%rbx)
 192:fltk-1.3.4-1/jpeg/jcmaster.c ****     cinfo->min_DCT_v_scaled_size = 16;
 2296              		.loc 1 192 5 is_stmt 1 view .LVU781
 193:fltk-1.3.4-1/jpeg/jcmaster.c ****   }
 2297              		.loc 1 193 5 view .LVU782
 192:fltk-1.3.4-1/jpeg/jcmaster.c ****     cinfo->min_DCT_v_scaled_size = 16;
 2298              		.loc 1 192 34 is_stmt 0 view .LVU783
 2299 0477 48B81000 		movabsq	$68719476752, %rax
 2299      00001000 
 2299      0000
 2300 0481 48898368 		movq	%rax, 360(%rbx)
 2300      010000
 205:fltk-1.3.4-1/jpeg/jcmaster.c **** 
 2301              		.loc 1 205 1 view .LVU784
 2302 0488 5B       		popq	%rbx
 2303              		.cfi_remember_state
 2304              		.cfi_def_cfa_offset 8
 2305              	.LVL218:
 205:fltk-1.3.4-1/jpeg/jcmaster.c **** 
 2306              		.loc 1 205 1 view .LVU785
 2307 0489 C3       		ret
 2308              	.LVL219:
 2309              	.L195:
 2310              		.cfi_restore_state
 172:fltk-1.3.4-1/jpeg/jcmaster.c ****       jdiv_round_up((long) cinfo->image_width * cinfo->block_size, 14L);
 2311              		.loc 1 172 5 is_stmt 1 view .LVU786
 173:fltk-1.3.4-1/jpeg/jcmaster.c ****     cinfo->jpeg_height = (JDIMENSION)
 2312              		.loc 1 173 7 is_stmt 0 view .LVU787
 2313 048a BE0E0000 		movl	$14, %esi
 2313      00
 2314 048f E8000000 		call	jdiv_round_up@PLT
 2314      00
 2315              	.LVL220:
 175:fltk-1.3.4-1/jpeg/jcmaster.c ****     cinfo->min_DCT_h_scaled_size = 14;
 2316              		.loc 1 175 21 view .LVU788
 2317 0494 8B7B34   		movl	52(%rbx), %edi
 175:fltk-1.3.4-1/jpeg/jcmaster.c ****     cinfo->min_DCT_h_scaled_size = 14;
 2318              		.loc 1 175 7 view .LVU789
 2319 0497 BE0E0000 		movl	$14, %esi
 2319      00
 172:fltk-1.3.4-1/jpeg/jcmaster.c ****       jdiv_round_up((long) cinfo->image_width * cinfo->block_size, 14L);
 2320              		.loc 1 172 25 view .LVU790
 2321 049c 894350   		movl	%eax, 80(%rbx)
 174:fltk-1.3.4-1/jpeg/jcmaster.c ****       jdiv_round_up((long) cinfo->image_height * cinfo->block_size, 14L);
 2322              		.loc 1 174 5 is_stmt 1 view .LVU791
 175:fltk-1.3.4-1/jpeg/jcmaster.c ****     cinfo->min_DCT_h_scaled_size = 14;
 2323              		.loc 1 175 55 is_stmt 0 view .LVU792
 2324 049f 486383DC 		movslq	476(%rbx), %rax
 2324      010000
 175:fltk-1.3.4-1/jpeg/jcmaster.c ****     cinfo->min_DCT_h_scaled_size = 14;
 2325              		.loc 1 175 7 view .LVU793
 2326 04a6 480FAFF8 		imulq	%rax, %rdi
 2327 04aa E8000000 		call	jdiv_round_up@PLT
 2327      00
 2328              	.LVL221:
 174:fltk-1.3.4-1/jpeg/jcmaster.c ****       jdiv_round_up((long) cinfo->image_height * cinfo->block_size, 14L);
 2329              		.loc 1 174 26 view .LVU794
 2330 04af 894354   		movl	%eax, 84(%rbx)
 176:fltk-1.3.4-1/jpeg/jcmaster.c ****     cinfo->min_DCT_v_scaled_size = 14;
 2331              		.loc 1 176 5 is_stmt 1 view .LVU795
 177:fltk-1.3.4-1/jpeg/jcmaster.c ****   } else if (cinfo->scale_num * 15 >= cinfo->scale_denom * cinfo->block_size) {
 2332              		.loc 1 177 5 view .LVU796
 176:fltk-1.3.4-1/jpeg/jcmaster.c ****     cinfo->min_DCT_v_scaled_size = 14;
 2333              		.loc 1 176 34 is_stmt 0 view .LVU797
 2334 04b2 48B80E00 		movabsq	$60129542158, %rax
 2334      00000E00 
 2334      0000
 2335 04bc 48898368 		movq	%rax, 360(%rbx)
 2335      010000
 205:fltk-1.3.4-1/jpeg/jcmaster.c **** 
 2336              		.loc 1 205 1 view .LVU798
 2337 04c3 5B       		popq	%rbx
 2338              		.cfi_def_cfa_offset 8
 2339              	.LVL222:
 205:fltk-1.3.4-1/jpeg/jcmaster.c **** 
 2340              		.loc 1 205 1 view .LVU799
 2341 04c4 C3       		ret
 2342              		.cfi_endproc
 2343              	.LFE51:
 2345              		.section	.text.jinit_c_master_control,"ax",@progbits
 2346              		.p2align 4
 2347              		.globl	jinit_c_master_control
 2349              	jinit_c_master_control:
 2350              	.LVL223:
 2351              	.LFB61:
 794:fltk-1.3.4-1/jpeg/jcmaster.c **** 
 795:fltk-1.3.4-1/jpeg/jcmaster.c **** 
 796:fltk-1.3.4-1/jpeg/jcmaster.c **** /*
 797:fltk-1.3.4-1/jpeg/jcmaster.c ****  * Initialize master compression control.
 798:fltk-1.3.4-1/jpeg/jcmaster.c ****  */
 799:fltk-1.3.4-1/jpeg/jcmaster.c **** 
 800:fltk-1.3.4-1/jpeg/jcmaster.c **** GLOBAL(void)
 801:fltk-1.3.4-1/jpeg/jcmaster.c **** jinit_c_master_control (j_compress_ptr cinfo, boolean transcode_only)
 802:fltk-1.3.4-1/jpeg/jcmaster.c **** {
 2352              		.loc 1 802 1 is_stmt 1 view -0
 2353              		.cfi_startproc
 2354              		.loc 1 802 1 is_stmt 0 view .LVU801
 2355 0000 F30F1EFA 		endbr64
 803:fltk-1.3.4-1/jpeg/jcmaster.c ****   my_master_ptr master;
 2356              		.loc 1 803 3 is_stmt 1 view .LVU802
 804:fltk-1.3.4-1/jpeg/jcmaster.c **** 
 805:fltk-1.3.4-1/jpeg/jcmaster.c ****   master = (my_master_ptr)
 2357              		.loc 1 805 3 view .LVU803
 802:fltk-1.3.4-1/jpeg/jcmaster.c ****   my_master_ptr master;
 2358              		.loc 1 802 1 is_stmt 0 view .LVU804
 2359 0004 4156     		pushq	%r14
 2360              		.cfi_def_cfa_offset 16
 2361              		.cfi_offset 14, -16
 806:fltk-1.3.4-1/jpeg/jcmaster.c ****       (*cinfo->mem->alloc_small) ((j_common_ptr) cinfo, JPOOL_IMAGE,
 2362              		.loc 1 806 8 view .LVU805
 2363 0006 BA300000 		movl	$48, %edx
 2363      00
 802:fltk-1.3.4-1/jpeg/jcmaster.c ****   my_master_ptr master;
 2364              		.loc 1 802 1 view .LVU806
 2365 000b 4155     		pushq	%r13
 2366              		.cfi_def_cfa_offset 24
 2367              		.cfi_offset 13, -24
 2368 000d 4189F5   		movl	%esi, %r13d
 2369              		.loc 1 806 8 view .LVU807
 2370 0010 BE010000 		movl	$1, %esi
 2370      00
 2371              	.LVL224:
 802:fltk-1.3.4-1/jpeg/jcmaster.c ****   my_master_ptr master;
 2372              		.loc 1 802 1 view .LVU808
 2373 0015 4154     		pushq	%r12
 2374              		.cfi_def_cfa_offset 32
 2375              		.cfi_offset 12, -32
 2376 0017 55       		pushq	%rbp
 2377              		.cfi_def_cfa_offset 40
 2378              		.cfi_offset 6, -40
 2379 0018 53       		pushq	%rbx
 2380              		.cfi_def_cfa_offset 48
 2381              		.cfi_offset 3, -48
 2382              		.loc 1 806 8 view .LVU809
 2383 0019 488B4708 		movq	8(%rdi), %rax
 802:fltk-1.3.4-1/jpeg/jcmaster.c ****   my_master_ptr master;
 2384              		.loc 1 802 1 view .LVU810
 2385 001d 4889FB   		movq	%rdi, %rbx
 2386              		.loc 1 806 8 view .LVU811
 2387 0020 FF10     		call	*(%rax)
 2388              	.LVL225:
 807:fltk-1.3.4-1/jpeg/jcmaster.c **** 				  SIZEOF(my_comp_master));
 808:fltk-1.3.4-1/jpeg/jcmaster.c ****   cinfo->master = &master->pub;
 2389              		.loc 1 808 17 view .LVU812
 2390 0022 488983F0 		movq	%rax, 496(%rbx)
 2390      010000
 806:fltk-1.3.4-1/jpeg/jcmaster.c ****       (*cinfo->mem->alloc_small) ((j_common_ptr) cinfo, JPOOL_IMAGE,
 2391              		.loc 1 806 8 view .LVU813
 2392 0029 4989C4   		movq	%rax, %r12
 2393              	.LVL226:
 2394              		.loc 1 808 3 is_stmt 1 view .LVU814
 809:fltk-1.3.4-1/jpeg/jcmaster.c ****   master->pub.prepare_for_pass = prepare_for_pass;
 2395              		.loc 1 809 3 view .LVU815
 2396              		.loc 1 809 32 is_stmt 0 view .LVU816
 2397 002c 488D0500 		leaq	prepare_for_pass(%rip), %rax
 2397      000000
 2398              	.LVL227:
 2399              		.loc 1 809 32 view .LVU817
 2400 0033 49890424 		movq	%rax, (%r12)
 810:fltk-1.3.4-1/jpeg/jcmaster.c ****   master->pub.pass_startup = pass_startup;
 2401              		.loc 1 810 3 is_stmt 1 view .LVU818
 2402              		.loc 1 810 28 is_stmt 0 view .LVU819
 2403 0037 488D0500 		leaq	pass_startup(%rip), %rax
 2403      000000
 2404 003e 49894424 		movq	%rax, 8(%r12)
 2404      08
 811:fltk-1.3.4-1/jpeg/jcmaster.c ****   master->pub.finish_pass = finish_pass_master;
 2405              		.loc 1 811 3 is_stmt 1 view .LVU820
 2406              		.loc 1 811 27 is_stmt 0 view .LVU821
 2407 0043 488D0500 		leaq	finish_pass_master(%rip), %rax
 2407      000000
 2408 004a 49894424 		movq	%rax, 16(%r12)
 2408      10
 812:fltk-1.3.4-1/jpeg/jcmaster.c ****   master->pub.is_last_pass = FALSE;
 2409              		.loc 1 812 3 is_stmt 1 view .LVU822
 2410              		.loc 1 812 28 is_stmt 0 view .LVU823
 2411 004f 41C74424 		movl	$0, 28(%r12)
 2411      1C000000 
 2411      00
 813:fltk-1.3.4-1/jpeg/jcmaster.c **** 
 814:fltk-1.3.4-1/jpeg/jcmaster.c ****   /* Validate parameters, determine derived values */
 815:fltk-1.3.4-1/jpeg/jcmaster.c ****   initial_setup(cinfo, transcode_only);
 2412              		.loc 1 815 3 is_stmt 1 view .LVU824
 2413              	.LVL228:
 2414              	.LBB13:
 2415              	.LBI13:
 220:fltk-1.3.4-1/jpeg/jcmaster.c **** /* Do computations that are needed before master selection phase */
 2416              		.loc 1 220 1 view .LVU825
 2417              	.LBB14:
 223:fltk-1.3.4-1/jpeg/jcmaster.c ****   jpeg_component_info *compptr;
 2418              		.loc 1 223 3 view .LVU826
 224:fltk-1.3.4-1/jpeg/jcmaster.c **** 
 2419              		.loc 1 224 3 view .LVU827
 226:fltk-1.3.4-1/jpeg/jcmaster.c ****     jpeg_calc_trans_dimensions(cinfo);
 2420              		.loc 1 226 3 view .LVU828
 226:fltk-1.3.4-1/jpeg/jcmaster.c ****     jpeg_calc_trans_dimensions(cinfo);
 2421              		.loc 1 226 6 is_stmt 0 view .LVU829
 2422 0058 4585ED   		testl	%r13d, %r13d
 2423 005b 0F84C704 		je	.L197
 2423      0000
 227:fltk-1.3.4-1/jpeg/jcmaster.c ****   else
 2424              		.loc 1 227 5 is_stmt 1 view .LVU830
 2425              	.LVL229:
 2426              	.LBB15:
 2427              	.LBI15:
 209:fltk-1.3.4-1/jpeg/jcmaster.c **** {
 2428              		.loc 1 209 1 view .LVU831
 2429              	.LBB16:
 211:fltk-1.3.4-1/jpeg/jcmaster.c ****     ERREXIT2(cinfo, JERR_BAD_DCTSIZE,
 2430              		.loc 1 211 3 view .LVU832
 211:fltk-1.3.4-1/jpeg/jcmaster.c ****     ERREXIT2(cinfo, JERR_BAD_DCTSIZE,
 2431              		.loc 1 211 44 is_stmt 0 view .LVU833
 2432 0061 8B836C01 		movl	364(%rbx), %eax
 2432      0000
 211:fltk-1.3.4-1/jpeg/jcmaster.c ****     ERREXIT2(cinfo, JERR_BAD_DCTSIZE,
 2433              		.loc 1 211 6 view .LVU834
 2434 0067 39836801 		cmpl	%eax, 360(%rbx)
 2434      0000
 2435 006d 7430     		je	.L198
 212:fltk-1.3.4-1/jpeg/jcmaster.c **** 	     cinfo->min_DCT_h_scaled_size, cinfo->min_DCT_v_scaled_size);
 2436              		.loc 1 212 5 is_stmt 1 view .LVU835
 2437 006f 488B03   		movq	(%rbx), %rax
 2438 0072 4889DF   		movq	%rbx, %rdi
 2439 0075 C7402807 		movl	$7, 40(%rax)
 2439      000000
 2440 007c 488B03   		movq	(%rbx), %rax
 2441 007f 8B936801 		movl	360(%rbx), %edx
 2441      0000
 2442 0085 89502C   		movl	%edx, 44(%rax)
 2443 0088 488B03   		movq	(%rbx), %rax
 2444 008b 8B936C01 		movl	364(%rbx), %edx
 2444      0000
 2445 0091 895030   		movl	%edx, 48(%rax)
 2446 0094 488B03   		movq	(%rbx), %rax
 2447 0097 FF10     		call	*(%rax)
 2448              	.LVL230:
 2449 0099 8B836801 		movl	360(%rbx), %eax
 2449      0000
 2450              	.L198:
 215:fltk-1.3.4-1/jpeg/jcmaster.c **** }
 2451              		.loc 1 215 3 view .LVU836
 215:fltk-1.3.4-1/jpeg/jcmaster.c **** }
 2452              		.loc 1 215 21 is_stmt 0 view .LVU837
 2453 009f 8983DC01 		movl	%eax, 476(%rbx)
 2453      0000
 2454              	.LVL231:
 2455              	.L199:
 215:fltk-1.3.4-1/jpeg/jcmaster.c **** }
 2456              		.loc 1 215 21 view .LVU838
 2457              	.LBE16:
 2458              	.LBE15:
 232:fltk-1.3.4-1/jpeg/jcmaster.c ****     ERREXIT2(cinfo, JERR_BAD_DCTSIZE, cinfo->block_size, cinfo->block_size);
 2459              		.loc 1 232 3 is_stmt 1 view .LVU839
 232:fltk-1.3.4-1/jpeg/jcmaster.c ****     ERREXIT2(cinfo, JERR_BAD_DCTSIZE, cinfo->block_size, cinfo->block_size);
 2460              		.loc 1 232 29 is_stmt 0 view .LVU840
 2461 00a5 8D50FF   		leal	-1(%rax), %edx
 232:fltk-1.3.4-1/jpeg/jcmaster.c ****     ERREXIT2(cinfo, JERR_BAD_DCTSIZE, cinfo->block_size, cinfo->block_size);
 2462              		.loc 1 232 6 view .LVU841
 2463 00a8 83FA0F   		cmpl	$15, %edx
 2464 00ab 762A     		jbe	.L200
 233:fltk-1.3.4-1/jpeg/jcmaster.c **** 
 2465              		.loc 1 233 5 is_stmt 1 view .LVU842
 2466 00ad 488B03   		movq	(%rbx), %rax
 2467 00b0 4889DF   		movq	%rbx, %rdi
 2468 00b3 C7402807 		movl	$7, 40(%rax)
 2468      000000
 2469 00ba 488B13   		movq	(%rbx), %rdx
 2470 00bd 8B83DC01 		movl	476(%rbx), %eax
 2470      0000
 2471 00c3 89422C   		movl	%eax, 44(%rdx)
 2472 00c6 488B13   		movq	(%rbx), %rdx
 2473 00c9 894230   		movl	%eax, 48(%rdx)
 2474 00cc 488B03   		movq	(%rbx), %rax
 2475 00cf FF10     		call	*(%rax)
 2476              	.LVL232:
 2477 00d1 8B83DC01 		movl	476(%rbx), %eax
 2477      0000
 2478              	.L200:
 236:fltk-1.3.4-1/jpeg/jcmaster.c ****   case 2: cinfo->natural_order = jpeg_natural_order2; break;
 2479              		.loc 1 236 3 view .LVU843
 2480 00d7 83F807   		cmpl	$7, %eax
 2481 00da 7713     		ja	.L201
 2482 00dc 488D3500 		leaq	.L203(%rip), %rsi
 2482      000000
 2483 00e3 89C1     		movl	%eax, %ecx
 2484 00e5 4863148E 		movslq	(%rsi,%rcx,4), %rdx
 2485 00e9 4801F2   		addq	%rsi, %rdx
 2486 00ec 3EFFE2   		notrack jmp	*%rdx
 2487              		.section	.rodata.jinit_c_master_control,"a",@progbits
 2488              		.align 4
 2489              		.align 4
 2490              	.L203:
 2491 0000 00000000 		.long	.L201-.L203
 2492 0004 00000000 		.long	.L201-.L203
 2493 0008 00000000 		.long	.L208-.L203
 2494 000c 00000000 		.long	.L207-.L203
 2495 0010 00000000 		.long	.L206-.L203
 2496 0014 00000000 		.long	.L205-.L203
 2497 0018 00000000 		.long	.L204-.L203
 2498 001c 00000000 		.long	.L202-.L203
 2499              		.section	.text.jinit_c_master_control
 2500              	.L201:
 243:fltk-1.3.4-1/jpeg/jcmaster.c ****   }
 2501              		.loc 1 243 12 view .LVU844
 243:fltk-1.3.4-1/jpeg/jcmaster.c ****   }
 2502              		.loc 1 243 33 is_stmt 0 view .LVU845
 2503 00ef 488D0D00 		leaq	jpeg_natural_order(%rip), %rcx
 2503      000000
 2504 00f6 48898BE0 		movq	%rcx, 480(%rbx)
 2504      010000
 243:fltk-1.3.4-1/jpeg/jcmaster.c ****   }
 2505              		.loc 1 243 55 is_stmt 1 view .LVU846
 247:fltk-1.3.4-1/jpeg/jcmaster.c ****     cinfo->block_size * cinfo->block_size - 1 : DCTSIZE2-1;
 2506              		.loc 1 247 3 view .LVU847
 248:fltk-1.3.4-1/jpeg/jcmaster.c **** 
 2507              		.loc 1 248 47 is_stmt 0 view .LVU848
 2508 00fd 83F807   		cmpl	$7, %eax
 2509 0100 0F8E8003 		jle	.L209
 2509      0000
 2510 0106 B83F0000 		movl	$63, %eax
 2510      00
 2511              	.L210:
 247:fltk-1.3.4-1/jpeg/jcmaster.c ****     cinfo->block_size * cinfo->block_size - 1 : DCTSIZE2-1;
 2512              		.loc 1 247 17 view .LVU849
 2513 010b 8983E801 		movl	%eax, 488(%rbx)
 2513      0000
 251:fltk-1.3.4-1/jpeg/jcmaster.c ****       cinfo->num_components <= 0)
 2514              		.loc 1 251 3 is_stmt 1 view .LVU850
 251:fltk-1.3.4-1/jpeg/jcmaster.c ****       cinfo->num_components <= 0)
 2515              		.loc 1 251 12 is_stmt 0 view .LVU851
 2516 0111 8B4354   		movl	84(%rbx), %eax
 251:fltk-1.3.4-1/jpeg/jcmaster.c ****       cinfo->num_components <= 0)
 2517              		.loc 1 251 6 view .LVU852
 2518 0114 85C0     		testl	%eax, %eax
 2519 0116 740D     		je	.L211
 251:fltk-1.3.4-1/jpeg/jcmaster.c ****       cinfo->num_components <= 0)
 2520              		.loc 1 251 31 view .LVU853
 2521 0118 448B4B50 		movl	80(%rbx), %r9d
 2522 011c 4585C9   		testl	%r9d, %r9d
 2523 011f 0F85CB03 		jne	.L259
 2523      0000
 2524              	.L211:
 253:fltk-1.3.4-1/jpeg/jcmaster.c **** 
 2525              		.loc 1 253 5 is_stmt 1 view .LVU854
 2526 0125 488B03   		movq	(%rbx), %rax
 2527 0128 4889DF   		movq	%rbx, %rdi
 2528 012b C7402821 		movl	$33, 40(%rax)
 2528      000000
 2529 0132 488B03   		movq	(%rbx), %rax
 2530 0135 FF10     		call	*(%rax)
 2531              	.LVL233:
 2532 0137 8B4354   		movl	84(%rbx), %eax
 2533              	.L212:
 256:fltk-1.3.4-1/jpeg/jcmaster.c ****       (long) cinfo->jpeg_width > (long) JPEG_MAX_DIMENSION)
 2534              		.loc 1 256 3 view .LVU855
 256:fltk-1.3.4-1/jpeg/jcmaster.c ****       (long) cinfo->jpeg_width > (long) JPEG_MAX_DIMENSION)
 2535              		.loc 1 256 6 is_stmt 0 view .LVU856
 2536 013a 3DDCFF00 		cmpl	$65500, %eax
 2536      00
 2537 013f 0F87F302 		ja	.L213
 2537      0000
 256:fltk-1.3.4-1/jpeg/jcmaster.c ****       (long) cinfo->jpeg_width > (long) JPEG_MAX_DIMENSION)
 2538              		.loc 1 256 61 view .LVU857
 2539 0145 817B50DC 		cmpl	$65500, 80(%rbx)
 2539      FF0000
 2540 014c 0F87E602 		ja	.L213
 2540      0000
 2541              	.L214:
 261:fltk-1.3.4-1/jpeg/jcmaster.c ****     ERREXIT1(cinfo, JERR_BAD_PRECISION, cinfo->data_precision);
 2542              		.loc 1 261 3 is_stmt 1 view .LVU858
 261:fltk-1.3.4-1/jpeg/jcmaster.c ****     ERREXIT1(cinfo, JERR_BAD_PRECISION, cinfo->data_precision);
 2543              		.loc 1 261 33 is_stmt 0 view .LVU859
 2544 0152 8B4358   		movl	88(%rbx), %eax
 2545 0155 83E808   		subl	$8, %eax
 261:fltk-1.3.4-1/jpeg/jcmaster.c ****     ERREXIT1(cinfo, JERR_BAD_PRECISION, cinfo->data_precision);
 2546              		.loc 1 261 6 view .LVU860
 2547 0158 83F804   		cmpl	$4, %eax
 2548 015b 761B     		jbe	.L215
 262:fltk-1.3.4-1/jpeg/jcmaster.c **** 
 2549              		.loc 1 262 5 is_stmt 1 view .LVU861
 2550 015d 488B03   		movq	(%rbx), %rax
 2551 0160 4889DF   		movq	%rbx, %rdi
 2552 0163 C7402810 		movl	$16, 40(%rax)
 2552      000000
 2553 016a 488B03   		movq	(%rbx), %rax
 2554 016d 8B5358   		movl	88(%rbx), %edx
 2555 0170 89502C   		movl	%edx, 44(%rax)
 2556 0173 488B03   		movq	(%rbx), %rax
 2557 0176 FF10     		call	*(%rax)
 2558              	.LVL234:
 2559              	.L215:
 265:fltk-1.3.4-1/jpeg/jcmaster.c ****     ERREXIT2(cinfo, JERR_COMPONENT_COUNT, cinfo->num_components,
 2560              		.loc 1 265 3 view .LVU862
 265:fltk-1.3.4-1/jpeg/jcmaster.c ****     ERREXIT2(cinfo, JERR_COMPONENT_COUNT, cinfo->num_components,
 2561              		.loc 1 265 12 is_stmt 0 view .LVU863
 2562 0178 8B535C   		movl	92(%rbx), %edx
 265:fltk-1.3.4-1/jpeg/jcmaster.c ****     ERREXIT2(cinfo, JERR_COMPONENT_COUNT, cinfo->num_components,
 2563              		.loc 1 265 6 view .LVU864
 2564 017b 83FA0A   		cmpl	$10, %edx
 2565 017e 7E28     		jle	.L216
 266:fltk-1.3.4-1/jpeg/jcmaster.c **** 	     MAX_COMPONENTS);
 2566              		.loc 1 266 5 is_stmt 1 view .LVU865
 2567 0180 488B03   		movq	(%rbx), %rax
 2568 0183 4889DF   		movq	%rbx, %rdi
 2569 0186 C740281B 		movl	$27, 40(%rax)
 2569      000000
 2570 018d 488B03   		movq	(%rbx), %rax
 2571 0190 8B535C   		movl	92(%rbx), %edx
 2572 0193 89502C   		movl	%edx, 44(%rax)
 2573 0196 488B03   		movq	(%rbx), %rax
 2574 0199 C740300A 		movl	$10, 48(%rax)
 2574      000000
 2575 01a0 488B03   		movq	(%rbx), %rax
 2576 01a3 FF10     		call	*(%rax)
 2577              	.LVL235:
 2578 01a5 8B535C   		movl	92(%rbx), %edx
 2579              	.L216:
 270:fltk-1.3.4-1/jpeg/jcmaster.c ****   cinfo->max_v_samp_factor = 1;
 2580              		.loc 1 270 3 view .LVU866
 271:fltk-1.3.4-1/jpeg/jcmaster.c ****   for (ci = 0, compptr = cinfo->comp_info; ci < cinfo->num_components;
 2581              		.loc 1 271 3 view .LVU867
 270:fltk-1.3.4-1/jpeg/jcmaster.c ****   cinfo->max_v_samp_factor = 1;
 2582              		.loc 1 270 28 is_stmt 0 view .LVU868
 2583 01a8 48B80100 		movabsq	$4294967297, %rax
 2583      00000100 
 2583      0000
 272:fltk-1.3.4-1/jpeg/jcmaster.c ****        ci++, compptr++) {
 2584              		.loc 1 272 24 view .LVU869
 2585 01b2 488B6B68 		movq	104(%rbx), %rbp
 270:fltk-1.3.4-1/jpeg/jcmaster.c ****   cinfo->max_v_samp_factor = 1;
 2586              		.loc 1 270 28 view .LVU870
 2587 01b6 48898360 		movq	%rax, 352(%rbx)
 2587      010000
 272:fltk-1.3.4-1/jpeg/jcmaster.c ****        ci++, compptr++) {
 2588              		.loc 1 272 3 is_stmt 1 view .LVU871
 2589              	.LVL236:
 272:fltk-1.3.4-1/jpeg/jcmaster.c ****        ci++, compptr++) {
 2590              		.loc 1 272 44 view .LVU872
 272:fltk-1.3.4-1/jpeg/jcmaster.c ****        ci++, compptr++) {
 2591              		.loc 1 272 3 is_stmt 0 view .LVU873
 2592 01bd 85D2     		testl	%edx, %edx
 2593 01bf 0F8EBB04 		jle	.L249
 2593      0000
 272:fltk-1.3.4-1/jpeg/jcmaster.c ****        ci++, compptr++) {
 2594              		.loc 1 272 11 view .LVU874
 2595 01c5 4531F6   		xorl	%r14d, %r14d
 2596              	.LVL237:
 2597 01c8 0F1F8400 		.p2align 4,,10
 2597      00000000 
 2598              		.p2align 3
 2599              	.L220:
 274:fltk-1.3.4-1/jpeg/jcmaster.c **** 	compptr->v_samp_factor<=0 || compptr->v_samp_factor>MAX_SAMP_FACTOR)
 2600              		.loc 1 274 5 is_stmt 1 view .LVU875
 274:fltk-1.3.4-1/jpeg/jcmaster.c **** 	compptr->v_samp_factor<=0 || compptr->v_samp_factor>MAX_SAMP_FACTOR)
 2601              		.loc 1 274 16 is_stmt 0 view .LVU876
 2602 01d0 8B4508   		movl	8(%rbp), %eax
 274:fltk-1.3.4-1/jpeg/jcmaster.c **** 	compptr->v_samp_factor<=0 || compptr->v_samp_factor>MAX_SAMP_FACTOR)
 2603              		.loc 1 274 35 view .LVU877
 2604 01d3 8D48FF   		leal	-1(%rax), %ecx
 274:fltk-1.3.4-1/jpeg/jcmaster.c **** 	compptr->v_samp_factor<=0 || compptr->v_samp_factor>MAX_SAMP_FACTOR)
 2605              		.loc 1 274 8 view .LVU878
 2606 01d6 83F903   		cmpl	$3, %ecx
 2607 01d9 770B     		ja	.L218
 275:fltk-1.3.4-1/jpeg/jcmaster.c ****       ERREXIT(cinfo, JERR_BAD_SAMPLING);
 2608              		.loc 1 275 28 view .LVU879
 2609 01db 8B4D0C   		movl	12(%rbp), %ecx
 2610 01de 83E901   		subl	$1, %ecx
 2611 01e1 83F903   		cmpl	$3, %ecx
 2612 01e4 7618     		jbe	.L219
 2613              	.L218:
 276:fltk-1.3.4-1/jpeg/jcmaster.c ****     cinfo->max_h_samp_factor = MAX(cinfo->max_h_samp_factor,
 2614              		.loc 1 276 7 is_stmt 1 view .LVU880
 2615 01e6 488B03   		movq	(%rbx), %rax
 2616 01e9 4889DF   		movq	%rbx, %rdi
 2617 01ec C7402813 		movl	$19, 40(%rax)
 2617      000000
 2618 01f3 488B03   		movq	(%rbx), %rax
 2619 01f6 FF10     		call	*(%rax)
 2620              	.LVL238:
 2621 01f8 8B4508   		movl	8(%rbp), %eax
 2622 01fb 8B535C   		movl	92(%rbx), %edx
 2623              	.L219:
 277:fltk-1.3.4-1/jpeg/jcmaster.c **** 				   compptr->h_samp_factor);
 2624              		.loc 1 277 5 view .LVU881
 277:fltk-1.3.4-1/jpeg/jcmaster.c **** 				   compptr->h_samp_factor);
 2625              		.loc 1 277 32 is_stmt 0 view .LVU882
 2626 01fe 39836001 		cmpl	%eax, 352(%rbx)
 2626      0000
 2627 0204 0F4D8360 		cmovge	352(%rbx), %eax
 2627      010000
 279:fltk-1.3.4-1/jpeg/jcmaster.c **** 				   compptr->v_samp_factor);
 2628              		.loc 1 279 32 view .LVU883
 2629 020b 8BB36401 		movl	356(%rbx), %esi
 2629      0000
 277:fltk-1.3.4-1/jpeg/jcmaster.c **** 				   compptr->h_samp_factor);
 2630              		.loc 1 277 30 view .LVU884
 2631 0211 89836001 		movl	%eax, 352(%rbx)
 2631      0000
 279:fltk-1.3.4-1/jpeg/jcmaster.c **** 				   compptr->v_samp_factor);
 2632              		.loc 1 279 5 is_stmt 1 view .LVU885
 279:fltk-1.3.4-1/jpeg/jcmaster.c **** 				   compptr->v_samp_factor);
 2633              		.loc 1 279 32 is_stmt 0 view .LVU886
 2634 0217 39750C   		cmpl	%esi, 12(%rbp)
 2635 021a 0F4D750C 		cmovge	12(%rbp), %esi
 273:fltk-1.3.4-1/jpeg/jcmaster.c ****     if (compptr->h_samp_factor<=0 || compptr->h_samp_factor>MAX_SAMP_FACTOR ||
 2636              		.loc 1 273 10 view .LVU887
 2637 021e 4183C601 		addl	$1, %r14d
 2638              	.LVL239:
 273:fltk-1.3.4-1/jpeg/jcmaster.c ****     if (compptr->h_samp_factor<=0 || compptr->h_samp_factor>MAX_SAMP_FACTOR ||
 2639              		.loc 1 273 21 view .LVU888
 2640 0222 4883C560 		addq	$96, %rbp
 2641              	.LVL240:
 279:fltk-1.3.4-1/jpeg/jcmaster.c **** 				   compptr->v_samp_factor);
 2642              		.loc 1 279 30 view .LVU889
 2643 0226 89B36401 		movl	%esi, 356(%rbx)
 2643      0000
 273:fltk-1.3.4-1/jpeg/jcmaster.c ****     if (compptr->h_samp_factor<=0 || compptr->h_samp_factor>MAX_SAMP_FACTOR ||
 2644              		.loc 1 273 8 is_stmt 1 view .LVU890
 2645              	.LVL241:
 272:fltk-1.3.4-1/jpeg/jcmaster.c ****        ci++, compptr++) {
 2646              		.loc 1 272 44 view .LVU891
 272:fltk-1.3.4-1/jpeg/jcmaster.c ****        ci++, compptr++) {
 2647              		.loc 1 272 3 is_stmt 0 view .LVU892
 2648 022c 4139D6   		cmpl	%edx, %r14d
 2649 022f 7C9F     		jl	.L220
 284:fltk-1.3.4-1/jpeg/jcmaster.c ****        ci++, compptr++) {
 2650              		.loc 1 284 3 is_stmt 1 view .LVU893
 2651              	.LVL242:
 284:fltk-1.3.4-1/jpeg/jcmaster.c ****        ci++, compptr++) {
 2652              		.loc 1 284 24 is_stmt 0 view .LVU894
 2653 0231 488B6B68 		movq	104(%rbx), %rbp
 2654              	.LVL243:
 284:fltk-1.3.4-1/jpeg/jcmaster.c ****        ci++, compptr++) {
 2655              		.loc 1 284 44 is_stmt 1 view .LVU895
 284:fltk-1.3.4-1/jpeg/jcmaster.c ****        ci++, compptr++) {
 2656              		.loc 1 284 3 is_stmt 0 view .LVU896
 2657 0235 85D2     		testl	%edx, %edx
 2658 0237 0F8E6101 		jle	.L217
 2658      0000
 284:fltk-1.3.4-1/jpeg/jcmaster.c ****        ci++, compptr++) {
 2659              		.loc 1 284 11 view .LVU897
 2660 023d 4531F6   		xorl	%r14d, %r14d
 2661              	.LVL244:
 2662              		.p2align 4,,10
 2663              		.p2align 3
 2664              	.L229:
 287:fltk-1.3.4-1/jpeg/jcmaster.c ****     /* In selecting the actual DCT scaling for each component, we try to
 2665              		.loc 1 287 5 is_stmt 1 view .LVU898
 287:fltk-1.3.4-1/jpeg/jcmaster.c ****     /* In selecting the actual DCT scaling for each component, we try to
 2666              		.loc 1 287 30 is_stmt 0 view .LVU899
 2667 0240 44897504 		movl	%r14d, 4(%rbp)
 293:fltk-1.3.4-1/jpeg/jcmaster.c **** #ifdef DCT_SCALING_SUPPORTED
 2668              		.loc 1 293 5 is_stmt 1 view .LVU900
 2669              	.LVL245:
 295:fltk-1.3.4-1/jpeg/jcmaster.c **** 	   (cinfo->do_fancy_downsampling ? DCTSIZE : DCTSIZE / 2) &&
 2670              		.loc 1 295 5 view .LVU901
 2671 0244 83BB3001 		cmpl	$1, 304(%rbx)
 2671      000001
 293:fltk-1.3.4-1/jpeg/jcmaster.c **** #ifdef DCT_SCALING_SUPPORTED
 2672              		.loc 1 293 11 is_stmt 0 view .LVU902
 2673 024b BF010000 		movl	$1, %edi
 2673      00
 2674 0250 19F6     		sbbl	%esi, %esi
 295:fltk-1.3.4-1/jpeg/jcmaster.c **** 	   (cinfo->do_fancy_downsampling ? DCTSIZE : DCTSIZE / 2) &&
 2675              		.loc 1 295 17 view .LVU903
 2676 0252 448B9368 		movl	360(%rbx), %r10d
 2676      010000
 2677 0259 448B4508 		movl	8(%rbp), %r8d
 2678 025d 83E6FC   		andl	$-4, %esi
 2679 0260 83C608   		addl	$8, %esi
 295:fltk-1.3.4-1/jpeg/jcmaster.c **** 	   (cinfo->do_fancy_downsampling ? DCTSIZE : DCTSIZE / 2) &&
 2680              		.loc 1 295 11 view .LVU904
 2681 0263 EB1D     		jmp	.L221
 2682              	.LVL246:
 2683              		.p2align 4,,10
 2684 0265 0F1F00   		.p2align 3
 2685              	.L260:
 297:fltk-1.3.4-1/jpeg/jcmaster.c ****       ssize = ssize * 2;
 2686              		.loc 1 297 57 view .LVU905
 2687 0268 4189F9   		movl	%edi, %r9d
 297:fltk-1.3.4-1/jpeg/jcmaster.c ****       ssize = ssize * 2;
 2688              		.loc 1 297 31 view .LVU906
 2689 026b 8B836001 		movl	352(%rbx), %eax
 2689      0000
 297:fltk-1.3.4-1/jpeg/jcmaster.c ****       ssize = ssize * 2;
 2690              		.loc 1 297 57 view .LVU907
 2691 0271 450FAFC8 		imull	%r8d, %r9d
 297:fltk-1.3.4-1/jpeg/jcmaster.c ****       ssize = ssize * 2;
 2692              		.loc 1 297 31 view .LVU908
 2693 0275 99       		cltd
 297:fltk-1.3.4-1/jpeg/jcmaster.c ****       ssize = ssize * 2;
 2694              		.loc 1 297 65 view .LVU909
 2695 0276 4501C9   		addl	%r9d, %r9d
 297:fltk-1.3.4-1/jpeg/jcmaster.c ****       ssize = ssize * 2;
 2696              		.loc 1 297 31 view .LVU910
 2697 0279 41F7F9   		idivl	%r9d
 296:fltk-1.3.4-1/jpeg/jcmaster.c **** 	   (cinfo->max_h_samp_factor % (compptr->h_samp_factor * ssize * 2)) == 0) {
 2698              		.loc 1 296 60 view .LVU911
 2699 027c 85D2     		testl	%edx, %edx
 2700 027e 750C     		jne	.L222
 298:fltk-1.3.4-1/jpeg/jcmaster.c ****     }
 2701              		.loc 1 298 7 is_stmt 1 view .LVU912
 298:fltk-1.3.4-1/jpeg/jcmaster.c ****     }
 2702              		.loc 1 298 13 is_stmt 0 view .LVU913
 2703 0280 01FF     		addl	%edi, %edi
 2704              	.LVL247:
 2705              	.L221:
 295:fltk-1.3.4-1/jpeg/jcmaster.c **** 	   (cinfo->do_fancy_downsampling ? DCTSIZE : DCTSIZE / 2) &&
 2706              		.loc 1 295 11 is_stmt 1 view .LVU914
 295:fltk-1.3.4-1/jpeg/jcmaster.c **** 	   (cinfo->do_fancy_downsampling ? DCTSIZE : DCTSIZE / 2) &&
 2707              		.loc 1 295 41 is_stmt 0 view .LVU915
 2708 0282 89F9     		movl	%edi, %ecx
 2709 0284 410FAFCA 		imull	%r10d, %ecx
 295:fltk-1.3.4-1/jpeg/jcmaster.c **** 	   (cinfo->do_fancy_downsampling ? DCTSIZE : DCTSIZE / 2) &&
 2710              		.loc 1 295 11 view .LVU916
 2711 0288 39F1     		cmpl	%esi, %ecx
 2712 028a 7EDC     		jle	.L260
 2713              	.L222:
 301:fltk-1.3.4-1/jpeg/jcmaster.c ****     ssize = 1;
 2714              		.loc 1 301 5 is_stmt 1 view .LVU917
 301:fltk-1.3.4-1/jpeg/jcmaster.c ****     ssize = 1;
 2715              		.loc 1 301 32 is_stmt 0 view .LVU918
 2716 028c 894D24   		movl	%ecx, 36(%rbp)
 302:fltk-1.3.4-1/jpeg/jcmaster.c **** #ifdef DCT_SCALING_SUPPORTED
 2717              		.loc 1 302 5 is_stmt 1 view .LVU919
 2718              	.LVL248:
 304:fltk-1.3.4-1/jpeg/jcmaster.c **** 	   (cinfo->do_fancy_downsampling ? DCTSIZE : DCTSIZE / 2) &&
 2719              		.loc 1 304 5 view .LVU920
 2720 028f 83BB3001 		cmpl	$1, 304(%rbx)
 2720      000001
 302:fltk-1.3.4-1/jpeg/jcmaster.c **** #ifdef DCT_SCALING_SUPPORTED
 2721              		.loc 1 302 11 is_stmt 0 view .LVU921
 2722 0296 41B90100 		movl	$1, %r9d
 2722      0000
 2723 029c 19F6     		sbbl	%esi, %esi
 304:fltk-1.3.4-1/jpeg/jcmaster.c **** 	   (cinfo->do_fancy_downsampling ? DCTSIZE : DCTSIZE / 2) &&
 2724              		.loc 1 304 17 view .LVU922
 2725 029e 448B9B6C 		movl	364(%rbx), %r11d
 2725      010000
 2726 02a5 83E6FC   		andl	$-4, %esi
 2727 02a8 83C608   		addl	$8, %esi
 304:fltk-1.3.4-1/jpeg/jcmaster.c **** 	   (cinfo->do_fancy_downsampling ? DCTSIZE : DCTSIZE / 2) &&
 2728              		.loc 1 304 11 view .LVU923
 2729 02ab EB1F     		jmp	.L224
 2730              	.LVL249:
 2731 02ad 0F1F00   		.p2align 4,,10
 2732              		.p2align 3
 2733              	.L261:
 306:fltk-1.3.4-1/jpeg/jcmaster.c ****       ssize = ssize * 2;
 2734              		.loc 1 306 57 view .LVU924
 2735 02b0 448B550C 		movl	12(%rbp), %r10d
 306:fltk-1.3.4-1/jpeg/jcmaster.c ****       ssize = ssize * 2;
 2736              		.loc 1 306 31 view .LVU925
 2737 02b4 8B836401 		movl	356(%rbx), %eax
 2737      0000
 306:fltk-1.3.4-1/jpeg/jcmaster.c ****       ssize = ssize * 2;
 2738              		.loc 1 306 57 view .LVU926
 2739 02ba 450FAFD1 		imull	%r9d, %r10d
 306:fltk-1.3.4-1/jpeg/jcmaster.c ****       ssize = ssize * 2;
 2740              		.loc 1 306 31 view .LVU927
 2741 02be 99       		cltd
 306:fltk-1.3.4-1/jpeg/jcmaster.c ****       ssize = ssize * 2;
 2742              		.loc 1 306 65 view .LVU928
 2743 02bf 4501D2   		addl	%r10d, %r10d
 306:fltk-1.3.4-1/jpeg/jcmaster.c ****       ssize = ssize * 2;
 2744              		.loc 1 306 31 view .LVU929
 2745 02c2 41F7FA   		idivl	%r10d
 305:fltk-1.3.4-1/jpeg/jcmaster.c **** 	   (cinfo->max_v_samp_factor % (compptr->v_samp_factor * ssize * 2)) == 0) {
 2746              		.loc 1 305 60 view .LVU930
 2747 02c5 85D2     		testl	%edx, %edx
 2748 02c7 750E     		jne	.L225
 307:fltk-1.3.4-1/jpeg/jcmaster.c ****     }
 2749              		.loc 1 307 7 is_stmt 1 view .LVU931
 307:fltk-1.3.4-1/jpeg/jcmaster.c ****     }
 2750              		.loc 1 307 13 is_stmt 0 view .LVU932
 2751 02c9 4501C9   		addl	%r9d, %r9d
 2752              	.LVL250:
 2753              	.L224:
 304:fltk-1.3.4-1/jpeg/jcmaster.c **** 	   (cinfo->do_fancy_downsampling ? DCTSIZE : DCTSIZE / 2) &&
 2754              		.loc 1 304 11 is_stmt 1 view .LVU933
 304:fltk-1.3.4-1/jpeg/jcmaster.c **** 	   (cinfo->do_fancy_downsampling ? DCTSIZE : DCTSIZE / 2) &&
 2755              		.loc 1 304 41 is_stmt 0 view .LVU934
 2756 02cc 4489CF   		movl	%r9d, %edi
 2757 02cf 410FAFFB 		imull	%r11d, %edi
 304:fltk-1.3.4-1/jpeg/jcmaster.c **** 	   (cinfo->do_fancy_downsampling ? DCTSIZE : DCTSIZE / 2) &&
 2758              		.loc 1 304 11 view .LVU935
 2759 02d3 39F7     		cmpl	%esi, %edi
 2760 02d5 7ED9     		jle	.L261
 2761              	.L225:
 310:fltk-1.3.4-1/jpeg/jcmaster.c **** 
 2762              		.loc 1 310 5 is_stmt 1 view .LVU936
 313:fltk-1.3.4-1/jpeg/jcmaster.c **** 	compptr->DCT_h_scaled_size = compptr->DCT_v_scaled_size * 2;
 2763              		.loc 1 313 65 is_stmt 0 view .LVU937
 2764 02d7 8D043F   		leal	(%rdi,%rdi), %eax
 310:fltk-1.3.4-1/jpeg/jcmaster.c **** 
 2765              		.loc 1 310 32 view .LVU938
 2766 02da 897D28   		movl	%edi, 40(%rbp)
 313:fltk-1.3.4-1/jpeg/jcmaster.c **** 	compptr->DCT_h_scaled_size = compptr->DCT_v_scaled_size * 2;
 2767              		.loc 1 313 5 is_stmt 1 view .LVU939
 313:fltk-1.3.4-1/jpeg/jcmaster.c **** 	compptr->DCT_h_scaled_size = compptr->DCT_v_scaled_size * 2;
 2768              		.loc 1 313 8 is_stmt 0 view .LVU940
 2769 02dd 39C1     		cmpl	%eax, %ecx
 2770 02df 0F8E7B01 		jle	.L227
 2770      0000
 314:fltk-1.3.4-1/jpeg/jcmaster.c ****     else if (compptr->DCT_v_scaled_size > compptr->DCT_h_scaled_size * 2)
 2771              		.loc 1 314 2 is_stmt 1 view .LVU941
 314:fltk-1.3.4-1/jpeg/jcmaster.c ****     else if (compptr->DCT_v_scaled_size > compptr->DCT_h_scaled_size * 2)
 2772              		.loc 1 314 29 is_stmt 0 view .LVU942
 2773 02e5 894524   		movl	%eax, 36(%rbp)
 2774              	.L228:
 319:fltk-1.3.4-1/jpeg/jcmaster.c ****       jdiv_round_up((long) cinfo->jpeg_width * (long) compptr->h_samp_factor,
 2775              		.loc 1 319 5 is_stmt 1 view .LVU943
 320:fltk-1.3.4-1/jpeg/jcmaster.c **** 		    (long) (cinfo->max_h_samp_factor * cinfo->block_size));
 2776              		.loc 1 320 21 is_stmt 0 view .LVU944
 2777 02e8 8B4350   		movl	80(%rbx), %eax
 320:fltk-1.3.4-1/jpeg/jcmaster.c **** 		    (long) (cinfo->max_h_samp_factor * cinfo->block_size));
 2778              		.loc 1 320 48 view .LVU945
 2779 02eb 4963F8   		movslq	%r8d, %rdi
 321:fltk-1.3.4-1/jpeg/jcmaster.c ****     compptr->height_in_blocks = (JDIMENSION)
 2780              		.loc 1 321 40 view .LVU946
 2781 02ee 8BB36001 		movl	352(%rbx), %esi
 2781      0000
 285:fltk-1.3.4-1/jpeg/jcmaster.c ****     /* Fill in the correct component_index value; don't rely on application */
 2782              		.loc 1 285 10 view .LVU947
 2783 02f4 4183C601 		addl	$1, %r14d
 2784              	.LVL251:
 321:fltk-1.3.4-1/jpeg/jcmaster.c ****     compptr->height_in_blocks = (JDIMENSION)
 2785              		.loc 1 321 40 view .LVU948
 2786 02f8 0FAFB3DC 		imull	476(%rbx), %esi
 2786      010000
 285:fltk-1.3.4-1/jpeg/jcmaster.c ****     /* Fill in the correct component_index value; don't rely on application */
 2787              		.loc 1 285 21 view .LVU949
 2788 02ff 4883C560 		addq	$96, %rbp
 2789              	.LVL252:
 320:fltk-1.3.4-1/jpeg/jcmaster.c **** 		    (long) (cinfo->max_h_samp_factor * cinfo->block_size));
 2790              		.loc 1 320 7 view .LVU950
 2791 0303 480FAFF8 		imulq	%rax, %rdi
 2792 0307 4863F6   		movslq	%esi, %rsi
 2793 030a E8000000 		call	jdiv_round_up@PLT
 2793      00
 2794              	.LVL253:
 319:fltk-1.3.4-1/jpeg/jcmaster.c ****       jdiv_round_up((long) cinfo->jpeg_width * (long) compptr->h_samp_factor,
 2795              		.loc 1 319 32 view .LVU951
 2796 030f 8945BC   		movl	%eax, -68(%rbp)
 322:fltk-1.3.4-1/jpeg/jcmaster.c ****       jdiv_round_up((long) cinfo->jpeg_height * (long) compptr->v_samp_factor,
 2797              		.loc 1 322 5 is_stmt 1 view .LVU952
 323:fltk-1.3.4-1/jpeg/jcmaster.c **** 		    (long) (cinfo->max_v_samp_factor * cinfo->block_size));
 2798              		.loc 1 323 49 is_stmt 0 view .LVU953
 2799 0312 486345AC 		movslq	-84(%rbp), %rax
 323:fltk-1.3.4-1/jpeg/jcmaster.c **** 		    (long) (cinfo->max_v_samp_factor * cinfo->block_size));
 2800              		.loc 1 323 21 view .LVU954
 2801 0316 8B7B54   		movl	84(%rbx), %edi
 324:fltk-1.3.4-1/jpeg/jcmaster.c ****     /* Size in samples */
 2802              		.loc 1 324 40 view .LVU955
 2803 0319 8BB36401 		movl	356(%rbx), %esi
 2803      0000
 2804 031f 0FAFB3DC 		imull	476(%rbx), %esi
 2804      010000
 323:fltk-1.3.4-1/jpeg/jcmaster.c **** 		    (long) (cinfo->max_v_samp_factor * cinfo->block_size));
 2805              		.loc 1 323 7 view .LVU956
 2806 0326 480FAFF8 		imulq	%rax, %rdi
 2807 032a 4863F6   		movslq	%esi, %rsi
 2808 032d E8000000 		call	jdiv_round_up@PLT
 2808      00
 2809              	.LVL254:
 328:fltk-1.3.4-1/jpeg/jcmaster.c **** 		    (long) (cinfo->max_h_samp_factor * cinfo->block_size));
 2810              		.loc 1 328 38 view .LVU957
