   1              		.file	"jcparam.c"
   2              		.text
   3              	.Ltext0:
   4              		.section	.text.add_huff_table,"ax",@progbits
   5              		.p2align 4
   7              	add_huff_table:
   8              	.LVL0:
   9              	.LFB56:
  10              		.file 1 "fltk-1.3.4-1/jpeg/jcparam.c"
   1:fltk-1.3.4-1/jpeg/jcparam.c **** /*
   2:fltk-1.3.4-1/jpeg/jcparam.c ****  * jcparam.c
   3:fltk-1.3.4-1/jpeg/jcparam.c ****  *
   4:fltk-1.3.4-1/jpeg/jcparam.c ****  * Copyright (C) 1991-1998, Thomas G. Lane.
   5:fltk-1.3.4-1/jpeg/jcparam.c ****  * Modified 2003-2013 by Guido Vollbeding.
   6:fltk-1.3.4-1/jpeg/jcparam.c ****  * This file is part of the Independent JPEG Group's software.
   7:fltk-1.3.4-1/jpeg/jcparam.c ****  * For conditions of distribution and use, see the accompanying README file.
   8:fltk-1.3.4-1/jpeg/jcparam.c ****  *
   9:fltk-1.3.4-1/jpeg/jcparam.c ****  * This file contains optional default-setting code for the JPEG compressor.
  10:fltk-1.3.4-1/jpeg/jcparam.c ****  * Applications do not have to use this file, but those that don't use it
  11:fltk-1.3.4-1/jpeg/jcparam.c ****  * must know a lot more about the innards of the JPEG code.
  12:fltk-1.3.4-1/jpeg/jcparam.c ****  */
  13:fltk-1.3.4-1/jpeg/jcparam.c **** 
  14:fltk-1.3.4-1/jpeg/jcparam.c **** #define JPEG_INTERNALS
  15:fltk-1.3.4-1/jpeg/jcparam.c **** #include "jinclude.h"
  16:fltk-1.3.4-1/jpeg/jcparam.c **** #include "jpeglib.h"
  17:fltk-1.3.4-1/jpeg/jcparam.c **** 
  18:fltk-1.3.4-1/jpeg/jcparam.c **** 
  19:fltk-1.3.4-1/jpeg/jcparam.c **** /*
  20:fltk-1.3.4-1/jpeg/jcparam.c ****  * Quantization table setup routines
  21:fltk-1.3.4-1/jpeg/jcparam.c ****  */
  22:fltk-1.3.4-1/jpeg/jcparam.c **** 
  23:fltk-1.3.4-1/jpeg/jcparam.c **** GLOBAL(void)
  24:fltk-1.3.4-1/jpeg/jcparam.c **** jpeg_add_quant_table (j_compress_ptr cinfo, int which_tbl,
  25:fltk-1.3.4-1/jpeg/jcparam.c **** 		      const unsigned int *basic_table,
  26:fltk-1.3.4-1/jpeg/jcparam.c **** 		      int scale_factor, boolean force_baseline)
  27:fltk-1.3.4-1/jpeg/jcparam.c **** /* Define a quantization table equal to the basic_table times
  28:fltk-1.3.4-1/jpeg/jcparam.c ****  * a scale factor (given as a percentage).
  29:fltk-1.3.4-1/jpeg/jcparam.c ****  * If force_baseline is TRUE, the computed quantization table entries
  30:fltk-1.3.4-1/jpeg/jcparam.c ****  * are limited to 1..255 for JPEG baseline compatibility.
  31:fltk-1.3.4-1/jpeg/jcparam.c ****  */
  32:fltk-1.3.4-1/jpeg/jcparam.c **** {
  33:fltk-1.3.4-1/jpeg/jcparam.c ****   JQUANT_TBL ** qtblptr;
  34:fltk-1.3.4-1/jpeg/jcparam.c ****   int i;
  35:fltk-1.3.4-1/jpeg/jcparam.c ****   long temp;
  36:fltk-1.3.4-1/jpeg/jcparam.c **** 
  37:fltk-1.3.4-1/jpeg/jcparam.c ****   /* Safety check to ensure start_compress not called yet. */
  38:fltk-1.3.4-1/jpeg/jcparam.c ****   if (cinfo->global_state != CSTATE_START)
  39:fltk-1.3.4-1/jpeg/jcparam.c ****     ERREXIT1(cinfo, JERR_BAD_STATE, cinfo->global_state);
  40:fltk-1.3.4-1/jpeg/jcparam.c **** 
  41:fltk-1.3.4-1/jpeg/jcparam.c ****   if (which_tbl < 0 || which_tbl >= NUM_QUANT_TBLS)
  42:fltk-1.3.4-1/jpeg/jcparam.c ****     ERREXIT1(cinfo, JERR_DQT_INDEX, which_tbl);
  43:fltk-1.3.4-1/jpeg/jcparam.c **** 
  44:fltk-1.3.4-1/jpeg/jcparam.c ****   qtblptr = & cinfo->quant_tbl_ptrs[which_tbl];
  45:fltk-1.3.4-1/jpeg/jcparam.c **** 
  46:fltk-1.3.4-1/jpeg/jcparam.c ****   if (*qtblptr == NULL)
  47:fltk-1.3.4-1/jpeg/jcparam.c ****     *qtblptr = jpeg_alloc_quant_table((j_common_ptr) cinfo);
  48:fltk-1.3.4-1/jpeg/jcparam.c **** 
  49:fltk-1.3.4-1/jpeg/jcparam.c ****   for (i = 0; i < DCTSIZE2; i++) {
  50:fltk-1.3.4-1/jpeg/jcparam.c ****     temp = ((long) basic_table[i] * scale_factor + 50L) / 100L;
  51:fltk-1.3.4-1/jpeg/jcparam.c ****     /* limit the values to the valid range */
  52:fltk-1.3.4-1/jpeg/jcparam.c ****     if (temp <= 0L) temp = 1L;
  53:fltk-1.3.4-1/jpeg/jcparam.c ****     if (temp > 32767L) temp = 32767L; /* max quantizer needed for 12 bits */
  54:fltk-1.3.4-1/jpeg/jcparam.c ****     if (force_baseline && temp > 255L)
  55:fltk-1.3.4-1/jpeg/jcparam.c ****       temp = 255L;		/* limit to baseline range if requested */
  56:fltk-1.3.4-1/jpeg/jcparam.c ****     (*qtblptr)->quantval[i] = (UINT16) temp;
  57:fltk-1.3.4-1/jpeg/jcparam.c ****   }
  58:fltk-1.3.4-1/jpeg/jcparam.c **** 
  59:fltk-1.3.4-1/jpeg/jcparam.c ****   /* Initialize sent_table FALSE so table will be written to JPEG file. */
  60:fltk-1.3.4-1/jpeg/jcparam.c ****   (*qtblptr)->sent_table = FALSE;
  61:fltk-1.3.4-1/jpeg/jcparam.c **** }
  62:fltk-1.3.4-1/jpeg/jcparam.c **** 
  63:fltk-1.3.4-1/jpeg/jcparam.c **** 
  64:fltk-1.3.4-1/jpeg/jcparam.c **** /* These are the sample quantization tables given in JPEG spec section K.1.
  65:fltk-1.3.4-1/jpeg/jcparam.c ****  * The spec says that the values given produce "good" quality, and
  66:fltk-1.3.4-1/jpeg/jcparam.c ****  * when divided by 2, "very good" quality.
  67:fltk-1.3.4-1/jpeg/jcparam.c ****  */
  68:fltk-1.3.4-1/jpeg/jcparam.c **** static const unsigned int std_luminance_quant_tbl[DCTSIZE2] = {
  69:fltk-1.3.4-1/jpeg/jcparam.c ****   16,  11,  10,  16,  24,  40,  51,  61,
  70:fltk-1.3.4-1/jpeg/jcparam.c ****   12,  12,  14,  19,  26,  58,  60,  55,
  71:fltk-1.3.4-1/jpeg/jcparam.c ****   14,  13,  16,  24,  40,  57,  69,  56,
  72:fltk-1.3.4-1/jpeg/jcparam.c ****   14,  17,  22,  29,  51,  87,  80,  62,
  73:fltk-1.3.4-1/jpeg/jcparam.c ****   18,  22,  37,  56,  68, 109, 103,  77,
  74:fltk-1.3.4-1/jpeg/jcparam.c ****   24,  35,  55,  64,  81, 104, 113,  92,
  75:fltk-1.3.4-1/jpeg/jcparam.c ****   49,  64,  78,  87, 103, 121, 120, 101,
  76:fltk-1.3.4-1/jpeg/jcparam.c ****   72,  92,  95,  98, 112, 100, 103,  99
  77:fltk-1.3.4-1/jpeg/jcparam.c **** };
  78:fltk-1.3.4-1/jpeg/jcparam.c **** static const unsigned int std_chrominance_quant_tbl[DCTSIZE2] = {
  79:fltk-1.3.4-1/jpeg/jcparam.c ****   17,  18,  24,  47,  99,  99,  99,  99,
  80:fltk-1.3.4-1/jpeg/jcparam.c ****   18,  21,  26,  66,  99,  99,  99,  99,
  81:fltk-1.3.4-1/jpeg/jcparam.c ****   24,  26,  56,  99,  99,  99,  99,  99,
  82:fltk-1.3.4-1/jpeg/jcparam.c ****   47,  66,  99,  99,  99,  99,  99,  99,
  83:fltk-1.3.4-1/jpeg/jcparam.c ****   99,  99,  99,  99,  99,  99,  99,  99,
  84:fltk-1.3.4-1/jpeg/jcparam.c ****   99,  99,  99,  99,  99,  99,  99,  99,
  85:fltk-1.3.4-1/jpeg/jcparam.c ****   99,  99,  99,  99,  99,  99,  99,  99,
  86:fltk-1.3.4-1/jpeg/jcparam.c ****   99,  99,  99,  99,  99,  99,  99,  99
  87:fltk-1.3.4-1/jpeg/jcparam.c **** };
  88:fltk-1.3.4-1/jpeg/jcparam.c **** 
  89:fltk-1.3.4-1/jpeg/jcparam.c **** 
  90:fltk-1.3.4-1/jpeg/jcparam.c **** GLOBAL(void)
  91:fltk-1.3.4-1/jpeg/jcparam.c **** jpeg_default_qtables (j_compress_ptr cinfo, boolean force_baseline)
  92:fltk-1.3.4-1/jpeg/jcparam.c **** /* Set or change the 'quality' (quantization) setting, using default tables
  93:fltk-1.3.4-1/jpeg/jcparam.c ****  * and straight percentage-scaling quality scales.
  94:fltk-1.3.4-1/jpeg/jcparam.c ****  * This entry point allows different scalings for luminance and chrominance.
  95:fltk-1.3.4-1/jpeg/jcparam.c ****  */
  96:fltk-1.3.4-1/jpeg/jcparam.c **** {
  97:fltk-1.3.4-1/jpeg/jcparam.c ****   /* Set up two quantization tables using the specified scaling */
  98:fltk-1.3.4-1/jpeg/jcparam.c ****   jpeg_add_quant_table(cinfo, 0, std_luminance_quant_tbl,
  99:fltk-1.3.4-1/jpeg/jcparam.c **** 		       cinfo->q_scale_factor[0], force_baseline);
 100:fltk-1.3.4-1/jpeg/jcparam.c ****   jpeg_add_quant_table(cinfo, 1, std_chrominance_quant_tbl,
 101:fltk-1.3.4-1/jpeg/jcparam.c **** 		       cinfo->q_scale_factor[1], force_baseline);
 102:fltk-1.3.4-1/jpeg/jcparam.c **** }
 103:fltk-1.3.4-1/jpeg/jcparam.c **** 
 104:fltk-1.3.4-1/jpeg/jcparam.c **** 
 105:fltk-1.3.4-1/jpeg/jcparam.c **** GLOBAL(void)
 106:fltk-1.3.4-1/jpeg/jcparam.c **** jpeg_set_linear_quality (j_compress_ptr cinfo, int scale_factor,
 107:fltk-1.3.4-1/jpeg/jcparam.c **** 			 boolean force_baseline)
 108:fltk-1.3.4-1/jpeg/jcparam.c **** /* Set or change the 'quality' (quantization) setting, using default tables
 109:fltk-1.3.4-1/jpeg/jcparam.c ****  * and a straight percentage-scaling quality scale.  In most cases it's better
 110:fltk-1.3.4-1/jpeg/jcparam.c ****  * to use jpeg_set_quality (below); this entry point is provided for
 111:fltk-1.3.4-1/jpeg/jcparam.c ****  * applications that insist on a linear percentage scaling.
 112:fltk-1.3.4-1/jpeg/jcparam.c ****  */
 113:fltk-1.3.4-1/jpeg/jcparam.c **** {
 114:fltk-1.3.4-1/jpeg/jcparam.c ****   /* Set up two quantization tables using the specified scaling */
 115:fltk-1.3.4-1/jpeg/jcparam.c ****   jpeg_add_quant_table(cinfo, 0, std_luminance_quant_tbl,
 116:fltk-1.3.4-1/jpeg/jcparam.c **** 		       scale_factor, force_baseline);
 117:fltk-1.3.4-1/jpeg/jcparam.c ****   jpeg_add_quant_table(cinfo, 1, std_chrominance_quant_tbl,
 118:fltk-1.3.4-1/jpeg/jcparam.c **** 		       scale_factor, force_baseline);
 119:fltk-1.3.4-1/jpeg/jcparam.c **** }
 120:fltk-1.3.4-1/jpeg/jcparam.c **** 
 121:fltk-1.3.4-1/jpeg/jcparam.c **** 
 122:fltk-1.3.4-1/jpeg/jcparam.c **** GLOBAL(int)
 123:fltk-1.3.4-1/jpeg/jcparam.c **** jpeg_quality_scaling (int quality)
 124:fltk-1.3.4-1/jpeg/jcparam.c **** /* Convert a user-specified quality rating to a percentage scaling factor
 125:fltk-1.3.4-1/jpeg/jcparam.c ****  * for an underlying quantization table, using our recommended scaling curve.
 126:fltk-1.3.4-1/jpeg/jcparam.c ****  * The input 'quality' factor should be 0 (terrible) to 100 (very good).
 127:fltk-1.3.4-1/jpeg/jcparam.c ****  */
 128:fltk-1.3.4-1/jpeg/jcparam.c **** {
 129:fltk-1.3.4-1/jpeg/jcparam.c ****   /* Safety limit on quality factor.  Convert 0 to 1 to avoid zero divide. */
 130:fltk-1.3.4-1/jpeg/jcparam.c ****   if (quality <= 0) quality = 1;
 131:fltk-1.3.4-1/jpeg/jcparam.c ****   if (quality > 100) quality = 100;
 132:fltk-1.3.4-1/jpeg/jcparam.c **** 
 133:fltk-1.3.4-1/jpeg/jcparam.c ****   /* The basic table is used as-is (scaling 100) for a quality of 50.
 134:fltk-1.3.4-1/jpeg/jcparam.c ****    * Qualities 50..100 are converted to scaling percentage 200 - 2*Q;
 135:fltk-1.3.4-1/jpeg/jcparam.c ****    * note that at Q=100 the scaling is 0, which will cause jpeg_add_quant_table
 136:fltk-1.3.4-1/jpeg/jcparam.c ****    * to make all the table entries 1 (hence, minimum quantization loss).
 137:fltk-1.3.4-1/jpeg/jcparam.c ****    * Qualities 1..50 are converted to scaling percentage 5000/Q.
 138:fltk-1.3.4-1/jpeg/jcparam.c ****    */
 139:fltk-1.3.4-1/jpeg/jcparam.c ****   if (quality < 50)
 140:fltk-1.3.4-1/jpeg/jcparam.c ****     quality = 5000 / quality;
 141:fltk-1.3.4-1/jpeg/jcparam.c ****   else
 142:fltk-1.3.4-1/jpeg/jcparam.c ****     quality = 200 - quality*2;
 143:fltk-1.3.4-1/jpeg/jcparam.c **** 
 144:fltk-1.3.4-1/jpeg/jcparam.c ****   return quality;
 145:fltk-1.3.4-1/jpeg/jcparam.c **** }
 146:fltk-1.3.4-1/jpeg/jcparam.c **** 
 147:fltk-1.3.4-1/jpeg/jcparam.c **** 
 148:fltk-1.3.4-1/jpeg/jcparam.c **** GLOBAL(void)
 149:fltk-1.3.4-1/jpeg/jcparam.c **** jpeg_set_quality (j_compress_ptr cinfo, int quality, boolean force_baseline)
 150:fltk-1.3.4-1/jpeg/jcparam.c **** /* Set or change the 'quality' (quantization) setting, using default tables.
 151:fltk-1.3.4-1/jpeg/jcparam.c ****  * This is the standard quality-adjusting entry point for typical user
 152:fltk-1.3.4-1/jpeg/jcparam.c ****  * interfaces; only those who want detailed control over quantization tables
 153:fltk-1.3.4-1/jpeg/jcparam.c ****  * would use the preceding routines directly.
 154:fltk-1.3.4-1/jpeg/jcparam.c ****  */
 155:fltk-1.3.4-1/jpeg/jcparam.c **** {
 156:fltk-1.3.4-1/jpeg/jcparam.c ****   /* Convert user 0-100 rating to percentage scaling */
 157:fltk-1.3.4-1/jpeg/jcparam.c ****   quality = jpeg_quality_scaling(quality);
 158:fltk-1.3.4-1/jpeg/jcparam.c **** 
 159:fltk-1.3.4-1/jpeg/jcparam.c ****   /* Set up standard quality tables */
 160:fltk-1.3.4-1/jpeg/jcparam.c ****   jpeg_set_linear_quality(cinfo, quality, force_baseline);
 161:fltk-1.3.4-1/jpeg/jcparam.c **** }
 162:fltk-1.3.4-1/jpeg/jcparam.c **** 
 163:fltk-1.3.4-1/jpeg/jcparam.c **** 
 164:fltk-1.3.4-1/jpeg/jcparam.c **** /*
 165:fltk-1.3.4-1/jpeg/jcparam.c ****  * Huffman table setup routines
 166:fltk-1.3.4-1/jpeg/jcparam.c ****  */
 167:fltk-1.3.4-1/jpeg/jcparam.c **** 
 168:fltk-1.3.4-1/jpeg/jcparam.c **** LOCAL(void)
 169:fltk-1.3.4-1/jpeg/jcparam.c **** add_huff_table (j_compress_ptr cinfo,
 170:fltk-1.3.4-1/jpeg/jcparam.c **** 		JHUFF_TBL **htblptr, const UINT8 *bits, const UINT8 *val)
 171:fltk-1.3.4-1/jpeg/jcparam.c **** /* Define a Huffman table */
 172:fltk-1.3.4-1/jpeg/jcparam.c **** {
  11              		.loc 1 172 1 view -0
  12              		.cfi_startproc
  13              		.loc 1 172 1 is_stmt 0 view .LVU1
  14 0000 4154     		pushq	%r12
  15              		.cfi_def_cfa_offset 16
  16              		.cfi_offset 12, -16
  17 0002 4989CC   		movq	%rcx, %r12
  18 0005 55       		pushq	%rbp
  19              		.cfi_def_cfa_offset 24
  20              		.cfi_offset 6, -24
  21 0006 4889F5   		movq	%rsi, %rbp
 173:fltk-1.3.4-1/jpeg/jcparam.c ****   int nsymbols, len;
  22              		.loc 1 173 3 is_stmt 1 view .LVU2
 174:fltk-1.3.4-1/jpeg/jcparam.c **** 
 175:fltk-1.3.4-1/jpeg/jcparam.c ****   if (*htblptr == NULL)
  23              		.loc 1 175 3 view .LVU3
 172:fltk-1.3.4-1/jpeg/jcparam.c ****   int nsymbols, len;
  24              		.loc 1 172 1 is_stmt 0 view .LVU4
  25 0009 53       		pushq	%rbx
  26              		.cfi_def_cfa_offset 32
  27              		.cfi_offset 3, -32
  28 000a 4889D3   		movq	%rdx, %rbx
  29 000d 4883EC10 		subq	$16, %rsp
  30              		.cfi_def_cfa_offset 48
  31              		.loc 1 175 7 view .LVU5
  32 0011 488B06   		movq	(%rsi), %rax
  33              		.loc 1 175 6 view .LVU6
  34 0014 4885C0   		testq	%rax, %rax
  35 0017 7477     		je	.L8
  36              	.LVL1:
  37              	.L2:
 176:fltk-1.3.4-1/jpeg/jcparam.c ****     *htblptr = jpeg_alloc_huff_table((j_common_ptr) cinfo);
 177:fltk-1.3.4-1/jpeg/jcparam.c **** 
 178:fltk-1.3.4-1/jpeg/jcparam.c ****   /* Copy the number-of-symbols-of-each-code-length counts */
 179:fltk-1.3.4-1/jpeg/jcparam.c ****   MEMCOPY((*htblptr)->bits, bits, SIZEOF((*htblptr)->bits));
  38              		.loc 1 179 3 is_stmt 1 view .LVU7
  39              	.LBB40:
  40              	.LBI40:
  41              		.file 2 "/usr/include/x86_64-linux-gnu/bits/string_fortified.h"
   1:/usr/include/x86_64-linux-gnu/bits/string_fortified.h **** /* Copyright (C) 2004-2020 Free Software Foundation, Inc.
   2:/usr/include/x86_64-linux-gnu/bits/string_fortified.h ****    This file is part of the GNU C Library.
   3:/usr/include/x86_64-linux-gnu/bits/string_fortified.h **** 
   4:/usr/include/x86_64-linux-gnu/bits/string_fortified.h ****    The GNU C Library is free software; you can redistribute it and/or
   5:/usr/include/x86_64-linux-gnu/bits/string_fortified.h ****    modify it under the terms of the GNU Lesser General Public
   6:/usr/include/x86_64-linux-gnu/bits/string_fortified.h ****    License as published by the Free Software Foundation; either
   7:/usr/include/x86_64-linux-gnu/bits/string_fortified.h ****    version 2.1 of the License, or (at your option) any later version.
   8:/usr/include/x86_64-linux-gnu/bits/string_fortified.h **** 
   9:/usr/include/x86_64-linux-gnu/bits/string_fortified.h ****    The GNU C Library is distributed in the hope that it will be useful,
  10:/usr/include/x86_64-linux-gnu/bits/string_fortified.h ****    but WITHOUT ANY WARRANTY; without even the implied warranty of
  11:/usr/include/x86_64-linux-gnu/bits/string_fortified.h ****    MERCHANTABILITY or FITNESS FOR A PARTICULAR PURPOSE.  See the GNU
  12:/usr/include/x86_64-linux-gnu/bits/string_fortified.h ****    Lesser General Public License for more details.
  13:/usr/include/x86_64-linux-gnu/bits/string_fortified.h **** 
  14:/usr/include/x86_64-linux-gnu/bits/string_fortified.h ****    You should have received a copy of the GNU Lesser General Public
  15:/usr/include/x86_64-linux-gnu/bits/string_fortified.h ****    License along with the GNU C Library; if not, see
  16:/usr/include/x86_64-linux-gnu/bits/string_fortified.h ****    <https://www.gnu.org/licenses/>.  */
  17:/usr/include/x86_64-linux-gnu/bits/string_fortified.h **** 
  18:/usr/include/x86_64-linux-gnu/bits/string_fortified.h **** #ifndef _BITS_STRING_FORTIFIED_H
  19:/usr/include/x86_64-linux-gnu/bits/string_fortified.h **** #define _BITS_STRING_FORTIFIED_H 1
  20:/usr/include/x86_64-linux-gnu/bits/string_fortified.h **** 
  21:/usr/include/x86_64-linux-gnu/bits/string_fortified.h **** #ifndef _STRING_H
  22:/usr/include/x86_64-linux-gnu/bits/string_fortified.h **** # error "Never use <bits/string_fortified.h> directly; include <string.h> instead."
  23:/usr/include/x86_64-linux-gnu/bits/string_fortified.h **** #endif
  24:/usr/include/x86_64-linux-gnu/bits/string_fortified.h **** 
  25:/usr/include/x86_64-linux-gnu/bits/string_fortified.h **** #if !__GNUC_PREREQ (5,0)
  26:/usr/include/x86_64-linux-gnu/bits/string_fortified.h **** __warndecl (__warn_memset_zero_len,
  27:/usr/include/x86_64-linux-gnu/bits/string_fortified.h **** 	    "memset used with constant zero length parameter; this could be due to transposed parameters")
  28:/usr/include/x86_64-linux-gnu/bits/string_fortified.h **** #endif
  29:/usr/include/x86_64-linux-gnu/bits/string_fortified.h **** 
  30:/usr/include/x86_64-linux-gnu/bits/string_fortified.h **** __fortify_function void *
  31:/usr/include/x86_64-linux-gnu/bits/string_fortified.h **** __NTH (memcpy (void *__restrict __dest, const void *__restrict __src,
  42              		.loc 2 31 1 view .LVU8
  43              	.LBB41:
  32:/usr/include/x86_64-linux-gnu/bits/string_fortified.h **** 	       size_t __len))
  33:/usr/include/x86_64-linux-gnu/bits/string_fortified.h **** {
  34:/usr/include/x86_64-linux-gnu/bits/string_fortified.h ****   return __builtin___memcpy_chk (__dest, __src, __len, __bos0 (__dest));
  44              		.loc 2 34 3 view .LVU9
  45              		.loc 2 34 10 is_stmt 0 view .LVU10
  46 0019 660F6F03 		movdqa	(%rbx), %xmm0
  47 001d 488D7311 		leaq	17(%rbx), %rsi
  48 0021 0F1100   		movups	%xmm0, (%rax)
  49 0024 0FB65310 		movzbl	16(%rbx), %edx
  50 0028 885010   		movb	%dl, 16(%rax)
  51              	.LVL2:
  52              		.loc 2 34 10 view .LVU11
  53              	.LBE41:
  54              	.LBE40:
 180:fltk-1.3.4-1/jpeg/jcparam.c **** 
 181:fltk-1.3.4-1/jpeg/jcparam.c ****   /* Validate the counts.  We do this here mainly so we can copy the right
 182:fltk-1.3.4-1/jpeg/jcparam.c ****    * number of symbols from the val[] array, without risking marching off
 183:fltk-1.3.4-1/jpeg/jcparam.c ****    * the end of memory.  jchuff.c will do a more thorough test later.
 184:fltk-1.3.4-1/jpeg/jcparam.c ****    */
 185:fltk-1.3.4-1/jpeg/jcparam.c ****   nsymbols = 0;
  55              		.loc 1 185 3 is_stmt 1 view .LVU12
 186:fltk-1.3.4-1/jpeg/jcparam.c ****   for (len = 1; len <= 16; len++)
  56              		.loc 1 186 3 view .LVU13
  57              		.loc 1 186 17 view .LVU14
  58 002b 488D4301 		leaq	1(%rbx), %rax
 185:fltk-1.3.4-1/jpeg/jcparam.c ****   for (len = 1; len <= 16; len++)
  59              		.loc 1 185 12 is_stmt 0 view .LVU15
  60 002f 31DB     		xorl	%ebx, %ebx
  61              	.LVL3:
  62              		.p2align 4,,10
  63 0031 0F1F8000 		.p2align 3
  63      000000
  64              	.L3:
 187:fltk-1.3.4-1/jpeg/jcparam.c ****     nsymbols += bits[len];
  65              		.loc 1 187 5 is_stmt 1 discriminator 3 view .LVU16
  66              		.loc 1 187 21 is_stmt 0 discriminator 3 view .LVU17
  67 0038 0FB610   		movzbl	(%rax), %edx
  68 003b 4883C001 		addq	$1, %rax
  69              	.LVL4:
  70              		.loc 1 187 14 discriminator 3 view .LVU18
  71 003f 01D3     		addl	%edx, %ebx
  72              	.LVL5:
 186:fltk-1.3.4-1/jpeg/jcparam.c ****   for (len = 1; len <= 16; len++)
  73              		.loc 1 186 28 is_stmt 1 discriminator 3 view .LVU19
 186:fltk-1.3.4-1/jpeg/jcparam.c ****   for (len = 1; len <= 16; len++)
  74              		.loc 1 186 17 discriminator 3 view .LVU20
 186:fltk-1.3.4-1/jpeg/jcparam.c ****   for (len = 1; len <= 16; len++)
  75              		.loc 1 186 3 is_stmt 0 discriminator 3 view .LVU21
  76 0041 4839C6   		cmpq	%rax, %rsi
  77 0044 75F2     		jne	.L3
 188:fltk-1.3.4-1/jpeg/jcparam.c ****   if (nsymbols < 1 || nsymbols > 256)
  78              		.loc 1 188 3 is_stmt 1 view .LVU22
  79              		.loc 1 188 20 is_stmt 0 view .LVU23
  80 0046 8D43FF   		leal	-1(%rbx), %eax
  81              		.loc 1 188 6 view .LVU24
  82 0049 3DFF0000 		cmpl	$255, %eax
  82      00
  83 004e 760F     		jbe	.L4
 189:fltk-1.3.4-1/jpeg/jcparam.c ****     ERREXIT(cinfo, JERR_BAD_HUFF_TABLE);
  84              		.loc 1 189 5 is_stmt 1 view .LVU25
  85 0050 488B07   		movq	(%rdi), %rax
  86 0053 C7402809 		movl	$9, 40(%rax)
  86      000000
  87 005a 488B07   		movq	(%rdi), %rax
  88 005d FF10     		call	*(%rax)
  89              	.LVL6:
  90              	.L4:
 190:fltk-1.3.4-1/jpeg/jcparam.c **** 
 191:fltk-1.3.4-1/jpeg/jcparam.c ****   MEMCOPY((*htblptr)->huffval, val, nsymbols * SIZEOF(UINT8));
  91              		.loc 1 191 3 view .LVU26
  92              	.LBB42:
  93              	.LBI42:
  31:/usr/include/x86_64-linux-gnu/bits/string_fortified.h **** 	       size_t __len))
  94              		.loc 2 31 1 view .LVU27
  95              	.LBB43:
  96              		.loc 2 34 3 view .LVU28
  97              		.loc 2 34 10 is_stmt 0 view .LVU29
  98 005f 488B4500 		movq	0(%rbp), %rax
  99              	.LBE43:
 100              	.LBE42:
 101              		.loc 1 191 3 view .LVU30
 102 0063 4863D3   		movslq	%ebx, %rdx
 103              	.LVL7:
 104              	.LBB45:
 105              	.LBB44:
 106              		.loc 2 34 10 view .LVU31
 107 0066 4C89E6   		movq	%r12, %rsi
 108 0069 488D7811 		leaq	17(%rax), %rdi
 109              	.LVL8:
 110              		.loc 2 34 10 view .LVU32
 111 006d E8000000 		call	memcpy@PLT
 111      00
 112              	.LVL9:
 113              		.loc 2 34 10 view .LVU33
 114              	.LBE44:
 115              	.LBE45:
 192:fltk-1.3.4-1/jpeg/jcparam.c **** 
 193:fltk-1.3.4-1/jpeg/jcparam.c ****   /* Initialize sent_table FALSE so table will be written to JPEG file. */
 194:fltk-1.3.4-1/jpeg/jcparam.c ****   (*htblptr)->sent_table = FALSE;
 116              		.loc 1 194 3 is_stmt 1 view .LVU34
 117              		.loc 1 194 4 is_stmt 0 view .LVU35
 118 0072 488B4500 		movq	0(%rbp), %rax
 119              		.loc 1 194 26 view .LVU36
 120 0076 C7801401 		movl	$0, 276(%rax)
 120      00000000 
 120      0000
 195:fltk-1.3.4-1/jpeg/jcparam.c **** }
 121              		.loc 1 195 1 view .LVU37
 122 0080 4883C410 		addq	$16, %rsp
 123              		.cfi_remember_state
 124              		.cfi_def_cfa_offset 32
 125 0084 5B       		popq	%rbx
 126              		.cfi_def_cfa_offset 24
 127              	.LVL10:
 128              		.loc 1 195 1 view .LVU38
 129 0085 5D       		popq	%rbp
 130              		.cfi_def_cfa_offset 16
 131              	.LVL11:
 132              		.loc 1 195 1 view .LVU39
 133 0086 415C     		popq	%r12
 134              		.cfi_def_cfa_offset 8
 135              	.LVL12:
 136              		.loc 1 195 1 view .LVU40
 137 0088 C3       		ret
 138              	.LVL13:
 139 0089 0F1F8000 		.p2align 4,,10
 139      000000
 140              		.p2align 3
 141              	.L8:
 142              		.cfi_restore_state
 176:fltk-1.3.4-1/jpeg/jcparam.c **** 
 143              		.loc 1 176 5 is_stmt 1 view .LVU41
 176:fltk-1.3.4-1/jpeg/jcparam.c **** 
 144              		.loc 1 176 16 is_stmt 0 view .LVU42
 145 0090 48897C24 		movq	%rdi, 8(%rsp)
 145      08
 146 0095 E8000000 		call	jpeg_alloc_huff_table@PLT
 146      00
 147              	.LVL14:
 176:fltk-1.3.4-1/jpeg/jcparam.c **** 
 148              		.loc 1 176 14 view .LVU43
 149 009a 488B7C24 		movq	8(%rsp), %rdi
 149      08
 150 009f 48894500 		movq	%rax, 0(%rbp)
 151 00a3 E971FFFF 		jmp	.L2
 151      FF
 152              		.cfi_endproc
 153              	.LFE56:
 155              		.section	.text.fill_dc_scans,"ax",@progbits
 156              		.p2align 4
 158              	fill_dc_scans:
 159              	.LVL15:
 160              	.LFB63:
 196:fltk-1.3.4-1/jpeg/jcparam.c **** 
 197:fltk-1.3.4-1/jpeg/jcparam.c **** 
 198:fltk-1.3.4-1/jpeg/jcparam.c **** LOCAL(void)
 199:fltk-1.3.4-1/jpeg/jcparam.c **** std_huff_tables (j_compress_ptr cinfo)
 200:fltk-1.3.4-1/jpeg/jcparam.c **** /* Set up the standard Huffman tables (cf. JPEG standard section K.3) */
 201:fltk-1.3.4-1/jpeg/jcparam.c **** /* IMPORTANT: these are only valid for 8-bit data precision! */
 202:fltk-1.3.4-1/jpeg/jcparam.c **** {
 203:fltk-1.3.4-1/jpeg/jcparam.c ****   static const UINT8 bits_dc_luminance[17] =
 204:fltk-1.3.4-1/jpeg/jcparam.c ****     { /* 0-base */ 0, 0, 1, 5, 1, 1, 1, 1, 1, 1, 0, 0, 0, 0, 0, 0, 0 };
 205:fltk-1.3.4-1/jpeg/jcparam.c ****   static const UINT8 val_dc_luminance[] =
 206:fltk-1.3.4-1/jpeg/jcparam.c ****     { 0, 1, 2, 3, 4, 5, 6, 7, 8, 9, 10, 11 };
 207:fltk-1.3.4-1/jpeg/jcparam.c ****   
 208:fltk-1.3.4-1/jpeg/jcparam.c ****   static const UINT8 bits_dc_chrominance[17] =
 209:fltk-1.3.4-1/jpeg/jcparam.c ****     { /* 0-base */ 0, 0, 3, 1, 1, 1, 1, 1, 1, 1, 1, 1, 0, 0, 0, 0, 0 };
 210:fltk-1.3.4-1/jpeg/jcparam.c ****   static const UINT8 val_dc_chrominance[] =
 211:fltk-1.3.4-1/jpeg/jcparam.c ****     { 0, 1, 2, 3, 4, 5, 6, 7, 8, 9, 10, 11 };
 212:fltk-1.3.4-1/jpeg/jcparam.c ****   
 213:fltk-1.3.4-1/jpeg/jcparam.c ****   static const UINT8 bits_ac_luminance[17] =
 214:fltk-1.3.4-1/jpeg/jcparam.c ****     { /* 0-base */ 0, 0, 2, 1, 3, 3, 2, 4, 3, 5, 5, 4, 4, 0, 0, 1, 0x7d };
 215:fltk-1.3.4-1/jpeg/jcparam.c ****   static const UINT8 val_ac_luminance[] =
 216:fltk-1.3.4-1/jpeg/jcparam.c ****     { 0x01, 0x02, 0x03, 0x00, 0x04, 0x11, 0x05, 0x12,
 217:fltk-1.3.4-1/jpeg/jcparam.c ****       0x21, 0x31, 0x41, 0x06, 0x13, 0x51, 0x61, 0x07,
 218:fltk-1.3.4-1/jpeg/jcparam.c ****       0x22, 0x71, 0x14, 0x32, 0x81, 0x91, 0xa1, 0x08,
 219:fltk-1.3.4-1/jpeg/jcparam.c ****       0x23, 0x42, 0xb1, 0xc1, 0x15, 0x52, 0xd1, 0xf0,
 220:fltk-1.3.4-1/jpeg/jcparam.c ****       0x24, 0x33, 0x62, 0x72, 0x82, 0x09, 0x0a, 0x16,
 221:fltk-1.3.4-1/jpeg/jcparam.c ****       0x17, 0x18, 0x19, 0x1a, 0x25, 0x26, 0x27, 0x28,
 222:fltk-1.3.4-1/jpeg/jcparam.c ****       0x29, 0x2a, 0x34, 0x35, 0x36, 0x37, 0x38, 0x39,
 223:fltk-1.3.4-1/jpeg/jcparam.c ****       0x3a, 0x43, 0x44, 0x45, 0x46, 0x47, 0x48, 0x49,
 224:fltk-1.3.4-1/jpeg/jcparam.c ****       0x4a, 0x53, 0x54, 0x55, 0x56, 0x57, 0x58, 0x59,
 225:fltk-1.3.4-1/jpeg/jcparam.c ****       0x5a, 0x63, 0x64, 0x65, 0x66, 0x67, 0x68, 0x69,
 226:fltk-1.3.4-1/jpeg/jcparam.c ****       0x6a, 0x73, 0x74, 0x75, 0x76, 0x77, 0x78, 0x79,
 227:fltk-1.3.4-1/jpeg/jcparam.c ****       0x7a, 0x83, 0x84, 0x85, 0x86, 0x87, 0x88, 0x89,
 228:fltk-1.3.4-1/jpeg/jcparam.c ****       0x8a, 0x92, 0x93, 0x94, 0x95, 0x96, 0x97, 0x98,
 229:fltk-1.3.4-1/jpeg/jcparam.c ****       0x99, 0x9a, 0xa2, 0xa3, 0xa4, 0xa5, 0xa6, 0xa7,
 230:fltk-1.3.4-1/jpeg/jcparam.c ****       0xa8, 0xa9, 0xaa, 0xb2, 0xb3, 0xb4, 0xb5, 0xb6,
 231:fltk-1.3.4-1/jpeg/jcparam.c ****       0xb7, 0xb8, 0xb9, 0xba, 0xc2, 0xc3, 0xc4, 0xc5,
 232:fltk-1.3.4-1/jpeg/jcparam.c ****       0xc6, 0xc7, 0xc8, 0xc9, 0xca, 0xd2, 0xd3, 0xd4,
 233:fltk-1.3.4-1/jpeg/jcparam.c ****       0xd5, 0xd6, 0xd7, 0xd8, 0xd9, 0xda, 0xe1, 0xe2,
 234:fltk-1.3.4-1/jpeg/jcparam.c ****       0xe3, 0xe4, 0xe5, 0xe6, 0xe7, 0xe8, 0xe9, 0xea,
 235:fltk-1.3.4-1/jpeg/jcparam.c ****       0xf1, 0xf2, 0xf3, 0xf4, 0xf5, 0xf6, 0xf7, 0xf8,
 236:fltk-1.3.4-1/jpeg/jcparam.c ****       0xf9, 0xfa };
 237:fltk-1.3.4-1/jpeg/jcparam.c ****   
 238:fltk-1.3.4-1/jpeg/jcparam.c ****   static const UINT8 bits_ac_chrominance[17] =
 239:fltk-1.3.4-1/jpeg/jcparam.c ****     { /* 0-base */ 0, 0, 2, 1, 2, 4, 4, 3, 4, 7, 5, 4, 4, 0, 1, 2, 0x77 };
 240:fltk-1.3.4-1/jpeg/jcparam.c ****   static const UINT8 val_ac_chrominance[] =
 241:fltk-1.3.4-1/jpeg/jcparam.c ****     { 0x00, 0x01, 0x02, 0x03, 0x11, 0x04, 0x05, 0x21,
 242:fltk-1.3.4-1/jpeg/jcparam.c ****       0x31, 0x06, 0x12, 0x41, 0x51, 0x07, 0x61, 0x71,
 243:fltk-1.3.4-1/jpeg/jcparam.c ****       0x13, 0x22, 0x32, 0x81, 0x08, 0x14, 0x42, 0x91,
 244:fltk-1.3.4-1/jpeg/jcparam.c ****       0xa1, 0xb1, 0xc1, 0x09, 0x23, 0x33, 0x52, 0xf0,
 245:fltk-1.3.4-1/jpeg/jcparam.c ****       0x15, 0x62, 0x72, 0xd1, 0x0a, 0x16, 0x24, 0x34,
 246:fltk-1.3.4-1/jpeg/jcparam.c ****       0xe1, 0x25, 0xf1, 0x17, 0x18, 0x19, 0x1a, 0x26,
 247:fltk-1.3.4-1/jpeg/jcparam.c ****       0x27, 0x28, 0x29, 0x2a, 0x35, 0x36, 0x37, 0x38,
 248:fltk-1.3.4-1/jpeg/jcparam.c ****       0x39, 0x3a, 0x43, 0x44, 0x45, 0x46, 0x47, 0x48,
 249:fltk-1.3.4-1/jpeg/jcparam.c ****       0x49, 0x4a, 0x53, 0x54, 0x55, 0x56, 0x57, 0x58,
 250:fltk-1.3.4-1/jpeg/jcparam.c ****       0x59, 0x5a, 0x63, 0x64, 0x65, 0x66, 0x67, 0x68,
 251:fltk-1.3.4-1/jpeg/jcparam.c ****       0x69, 0x6a, 0x73, 0x74, 0x75, 0x76, 0x77, 0x78,
 252:fltk-1.3.4-1/jpeg/jcparam.c ****       0x79, 0x7a, 0x82, 0x83, 0x84, 0x85, 0x86, 0x87,
 253:fltk-1.3.4-1/jpeg/jcparam.c ****       0x88, 0x89, 0x8a, 0x92, 0x93, 0x94, 0x95, 0x96,
 254:fltk-1.3.4-1/jpeg/jcparam.c ****       0x97, 0x98, 0x99, 0x9a, 0xa2, 0xa3, 0xa4, 0xa5,
 255:fltk-1.3.4-1/jpeg/jcparam.c ****       0xa6, 0xa7, 0xa8, 0xa9, 0xaa, 0xb2, 0xb3, 0xb4,
 256:fltk-1.3.4-1/jpeg/jcparam.c ****       0xb5, 0xb6, 0xb7, 0xb8, 0xb9, 0xba, 0xc2, 0xc3,
 257:fltk-1.3.4-1/jpeg/jcparam.c ****       0xc4, 0xc5, 0xc6, 0xc7, 0xc8, 0xc9, 0xca, 0xd2,
 258:fltk-1.3.4-1/jpeg/jcparam.c ****       0xd3, 0xd4, 0xd5, 0xd6, 0xd7, 0xd8, 0xd9, 0xda,
 259:fltk-1.3.4-1/jpeg/jcparam.c ****       0xe2, 0xe3, 0xe4, 0xe5, 0xe6, 0xe7, 0xe8, 0xe9,
 260:fltk-1.3.4-1/jpeg/jcparam.c ****       0xea, 0xf2, 0xf3, 0xf4, 0xf5, 0xf6, 0xf7, 0xf8,
 261:fltk-1.3.4-1/jpeg/jcparam.c ****       0xf9, 0xfa };
 262:fltk-1.3.4-1/jpeg/jcparam.c ****   
 263:fltk-1.3.4-1/jpeg/jcparam.c ****   add_huff_table(cinfo, &cinfo->dc_huff_tbl_ptrs[0],
 264:fltk-1.3.4-1/jpeg/jcparam.c **** 		 bits_dc_luminance, val_dc_luminance);
 265:fltk-1.3.4-1/jpeg/jcparam.c ****   add_huff_table(cinfo, &cinfo->ac_huff_tbl_ptrs[0],
 266:fltk-1.3.4-1/jpeg/jcparam.c **** 		 bits_ac_luminance, val_ac_luminance);
 267:fltk-1.3.4-1/jpeg/jcparam.c ****   add_huff_table(cinfo, &cinfo->dc_huff_tbl_ptrs[1],
 268:fltk-1.3.4-1/jpeg/jcparam.c **** 		 bits_dc_chrominance, val_dc_chrominance);
 269:fltk-1.3.4-1/jpeg/jcparam.c ****   add_huff_table(cinfo, &cinfo->ac_huff_tbl_ptrs[1],
 270:fltk-1.3.4-1/jpeg/jcparam.c **** 		 bits_ac_chrominance, val_ac_chrominance);
 271:fltk-1.3.4-1/jpeg/jcparam.c **** }
 272:fltk-1.3.4-1/jpeg/jcparam.c **** 
 273:fltk-1.3.4-1/jpeg/jcparam.c **** 
 274:fltk-1.3.4-1/jpeg/jcparam.c **** /*
 275:fltk-1.3.4-1/jpeg/jcparam.c ****  * Default parameter setup for compression.
 276:fltk-1.3.4-1/jpeg/jcparam.c ****  *
 277:fltk-1.3.4-1/jpeg/jcparam.c ****  * Applications that don't choose to use this routine must do their
 278:fltk-1.3.4-1/jpeg/jcparam.c ****  * own setup of all these parameters.  Alternately, you can call this
 279:fltk-1.3.4-1/jpeg/jcparam.c ****  * to establish defaults and then alter parameters selectively.  This
 280:fltk-1.3.4-1/jpeg/jcparam.c ****  * is the recommended approach since, if we add any new parameters,
 281:fltk-1.3.4-1/jpeg/jcparam.c ****  * your code will still work (they'll be set to reasonable defaults).
 282:fltk-1.3.4-1/jpeg/jcparam.c ****  */
 283:fltk-1.3.4-1/jpeg/jcparam.c **** 
 284:fltk-1.3.4-1/jpeg/jcparam.c **** GLOBAL(void)
 285:fltk-1.3.4-1/jpeg/jcparam.c **** jpeg_set_defaults (j_compress_ptr cinfo)
 286:fltk-1.3.4-1/jpeg/jcparam.c **** {
 287:fltk-1.3.4-1/jpeg/jcparam.c ****   int i;
 288:fltk-1.3.4-1/jpeg/jcparam.c **** 
 289:fltk-1.3.4-1/jpeg/jcparam.c ****   /* Safety check to ensure start_compress not called yet. */
 290:fltk-1.3.4-1/jpeg/jcparam.c ****   if (cinfo->global_state != CSTATE_START)
 291:fltk-1.3.4-1/jpeg/jcparam.c ****     ERREXIT1(cinfo, JERR_BAD_STATE, cinfo->global_state);
 292:fltk-1.3.4-1/jpeg/jcparam.c **** 
 293:fltk-1.3.4-1/jpeg/jcparam.c ****   /* Allocate comp_info array large enough for maximum component count.
 294:fltk-1.3.4-1/jpeg/jcparam.c ****    * Array is made permanent in case application wants to compress
 295:fltk-1.3.4-1/jpeg/jcparam.c ****    * multiple images at same param settings.
 296:fltk-1.3.4-1/jpeg/jcparam.c ****    */
 297:fltk-1.3.4-1/jpeg/jcparam.c ****   if (cinfo->comp_info == NULL)
 298:fltk-1.3.4-1/jpeg/jcparam.c ****     cinfo->comp_info = (jpeg_component_info *)
 299:fltk-1.3.4-1/jpeg/jcparam.c ****       (*cinfo->mem->alloc_small) ((j_common_ptr) cinfo, JPOOL_PERMANENT,
 300:fltk-1.3.4-1/jpeg/jcparam.c **** 				  MAX_COMPONENTS * SIZEOF(jpeg_component_info));
 301:fltk-1.3.4-1/jpeg/jcparam.c **** 
 302:fltk-1.3.4-1/jpeg/jcparam.c ****   /* Initialize everything not dependent on the color space */
 303:fltk-1.3.4-1/jpeg/jcparam.c **** 
 304:fltk-1.3.4-1/jpeg/jcparam.c ****   cinfo->scale_num = 1;		/* 1:1 scaling */
 305:fltk-1.3.4-1/jpeg/jcparam.c ****   cinfo->scale_denom = 1;
 306:fltk-1.3.4-1/jpeg/jcparam.c ****   cinfo->data_precision = BITS_IN_JSAMPLE;
 307:fltk-1.3.4-1/jpeg/jcparam.c ****   /* Set up two quantization tables using default quality of 75 */
 308:fltk-1.3.4-1/jpeg/jcparam.c ****   jpeg_set_quality(cinfo, 75, TRUE);
 309:fltk-1.3.4-1/jpeg/jcparam.c ****   /* Set up two Huffman tables */
 310:fltk-1.3.4-1/jpeg/jcparam.c ****   std_huff_tables(cinfo);
 311:fltk-1.3.4-1/jpeg/jcparam.c **** 
 312:fltk-1.3.4-1/jpeg/jcparam.c ****   /* Initialize default arithmetic coding conditioning */
 313:fltk-1.3.4-1/jpeg/jcparam.c ****   for (i = 0; i < NUM_ARITH_TBLS; i++) {
 314:fltk-1.3.4-1/jpeg/jcparam.c ****     cinfo->arith_dc_L[i] = 0;
 315:fltk-1.3.4-1/jpeg/jcparam.c ****     cinfo->arith_dc_U[i] = 1;
 316:fltk-1.3.4-1/jpeg/jcparam.c ****     cinfo->arith_ac_K[i] = 5;
 317:fltk-1.3.4-1/jpeg/jcparam.c ****   }
 318:fltk-1.3.4-1/jpeg/jcparam.c **** 
 319:fltk-1.3.4-1/jpeg/jcparam.c ****   /* Default is no multiple-scan output */
 320:fltk-1.3.4-1/jpeg/jcparam.c ****   cinfo->scan_info = NULL;
 321:fltk-1.3.4-1/jpeg/jcparam.c ****   cinfo->num_scans = 0;
 322:fltk-1.3.4-1/jpeg/jcparam.c **** 
 323:fltk-1.3.4-1/jpeg/jcparam.c ****   /* Expect normal source image, not raw downsampled data */
 324:fltk-1.3.4-1/jpeg/jcparam.c ****   cinfo->raw_data_in = FALSE;
 325:fltk-1.3.4-1/jpeg/jcparam.c **** 
 326:fltk-1.3.4-1/jpeg/jcparam.c ****   /* The standard Huffman tables are only valid for 8-bit data precision.
 327:fltk-1.3.4-1/jpeg/jcparam.c ****    * If the precision is higher, use arithmetic coding.
 328:fltk-1.3.4-1/jpeg/jcparam.c ****    * (Alternatively, using Huffman coding would be possible with forcing
 329:fltk-1.3.4-1/jpeg/jcparam.c ****    * optimization on so that usable tables will be computed, or by
 330:fltk-1.3.4-1/jpeg/jcparam.c ****    * supplying default tables that are valid for the desired precision.)
 331:fltk-1.3.4-1/jpeg/jcparam.c ****    * Otherwise, use Huffman coding by default.
 332:fltk-1.3.4-1/jpeg/jcparam.c ****    */
 333:fltk-1.3.4-1/jpeg/jcparam.c ****   cinfo->arith_code = cinfo->data_precision > 8 ? TRUE : FALSE;
 334:fltk-1.3.4-1/jpeg/jcparam.c **** 
 335:fltk-1.3.4-1/jpeg/jcparam.c ****   /* By default, don't do extra passes to optimize entropy coding */
 336:fltk-1.3.4-1/jpeg/jcparam.c ****   cinfo->optimize_coding = FALSE;
 337:fltk-1.3.4-1/jpeg/jcparam.c **** 
 338:fltk-1.3.4-1/jpeg/jcparam.c ****   /* By default, use the simpler non-cosited sampling alignment */
 339:fltk-1.3.4-1/jpeg/jcparam.c ****   cinfo->CCIR601_sampling = FALSE;
 340:fltk-1.3.4-1/jpeg/jcparam.c **** 
 341:fltk-1.3.4-1/jpeg/jcparam.c ****   /* By default, apply fancy downsampling */
 342:fltk-1.3.4-1/jpeg/jcparam.c ****   cinfo->do_fancy_downsampling = TRUE;
 343:fltk-1.3.4-1/jpeg/jcparam.c **** 
 344:fltk-1.3.4-1/jpeg/jcparam.c ****   /* No input smoothing */
 345:fltk-1.3.4-1/jpeg/jcparam.c ****   cinfo->smoothing_factor = 0;
 346:fltk-1.3.4-1/jpeg/jcparam.c **** 
 347:fltk-1.3.4-1/jpeg/jcparam.c ****   /* DCT algorithm preference */
 348:fltk-1.3.4-1/jpeg/jcparam.c ****   cinfo->dct_method = JDCT_DEFAULT;
 349:fltk-1.3.4-1/jpeg/jcparam.c **** 
 350:fltk-1.3.4-1/jpeg/jcparam.c ****   /* No restart markers */
 351:fltk-1.3.4-1/jpeg/jcparam.c ****   cinfo->restart_interval = 0;
 352:fltk-1.3.4-1/jpeg/jcparam.c ****   cinfo->restart_in_rows = 0;
 353:fltk-1.3.4-1/jpeg/jcparam.c **** 
 354:fltk-1.3.4-1/jpeg/jcparam.c ****   /* Fill in default JFIF marker parameters.  Note that whether the marker
 355:fltk-1.3.4-1/jpeg/jcparam.c ****    * will actually be written is determined by jpeg_set_colorspace.
 356:fltk-1.3.4-1/jpeg/jcparam.c ****    *
 357:fltk-1.3.4-1/jpeg/jcparam.c ****    * By default, the library emits JFIF version code 1.01.
 358:fltk-1.3.4-1/jpeg/jcparam.c ****    * An application that wants to emit JFIF 1.02 extension markers should set
 359:fltk-1.3.4-1/jpeg/jcparam.c ****    * JFIF_minor_version to 2.  We could probably get away with just defaulting
 360:fltk-1.3.4-1/jpeg/jcparam.c ****    * to 1.02, but there may still be some decoders in use that will complain
 361:fltk-1.3.4-1/jpeg/jcparam.c ****    * about that; saying 1.01 should minimize compatibility problems.
 362:fltk-1.3.4-1/jpeg/jcparam.c ****    *
 363:fltk-1.3.4-1/jpeg/jcparam.c ****    * For wide gamut colorspaces (BG_RGB and BG_YCC), the major version will be
 364:fltk-1.3.4-1/jpeg/jcparam.c ****    * overridden by jpeg_set_colorspace and set to 2.
 365:fltk-1.3.4-1/jpeg/jcparam.c ****    */
 366:fltk-1.3.4-1/jpeg/jcparam.c ****   cinfo->JFIF_major_version = 1; /* Default JFIF version = 1.01 */
 367:fltk-1.3.4-1/jpeg/jcparam.c ****   cinfo->JFIF_minor_version = 1;
 368:fltk-1.3.4-1/jpeg/jcparam.c ****   cinfo->density_unit = 0;	/* Pixel size is unknown by default */
 369:fltk-1.3.4-1/jpeg/jcparam.c ****   cinfo->X_density = 1;		/* Pixel aspect ratio is square by default */
 370:fltk-1.3.4-1/jpeg/jcparam.c ****   cinfo->Y_density = 1;
 371:fltk-1.3.4-1/jpeg/jcparam.c **** 
 372:fltk-1.3.4-1/jpeg/jcparam.c ****   /* No color transform */
 373:fltk-1.3.4-1/jpeg/jcparam.c ****   cinfo->color_transform = JCT_NONE;
 374:fltk-1.3.4-1/jpeg/jcparam.c **** 
 375:fltk-1.3.4-1/jpeg/jcparam.c ****   /* Choose JPEG colorspace based on input space, set defaults accordingly */
 376:fltk-1.3.4-1/jpeg/jcparam.c **** 
 377:fltk-1.3.4-1/jpeg/jcparam.c ****   jpeg_default_colorspace(cinfo);
 378:fltk-1.3.4-1/jpeg/jcparam.c **** }
 379:fltk-1.3.4-1/jpeg/jcparam.c **** 
 380:fltk-1.3.4-1/jpeg/jcparam.c **** 
 381:fltk-1.3.4-1/jpeg/jcparam.c **** /*
 382:fltk-1.3.4-1/jpeg/jcparam.c ****  * Select an appropriate JPEG colorspace for in_color_space.
 383:fltk-1.3.4-1/jpeg/jcparam.c ****  */
 384:fltk-1.3.4-1/jpeg/jcparam.c **** 
 385:fltk-1.3.4-1/jpeg/jcparam.c **** GLOBAL(void)
 386:fltk-1.3.4-1/jpeg/jcparam.c **** jpeg_default_colorspace (j_compress_ptr cinfo)
 387:fltk-1.3.4-1/jpeg/jcparam.c **** {
 388:fltk-1.3.4-1/jpeg/jcparam.c ****   switch (cinfo->in_color_space) {
 389:fltk-1.3.4-1/jpeg/jcparam.c ****   case JCS_UNKNOWN:
 390:fltk-1.3.4-1/jpeg/jcparam.c ****     jpeg_set_colorspace(cinfo, JCS_UNKNOWN);
 391:fltk-1.3.4-1/jpeg/jcparam.c ****     break;
 392:fltk-1.3.4-1/jpeg/jcparam.c ****   case JCS_GRAYSCALE:
 393:fltk-1.3.4-1/jpeg/jcparam.c ****     jpeg_set_colorspace(cinfo, JCS_GRAYSCALE);
 394:fltk-1.3.4-1/jpeg/jcparam.c ****     break;
 395:fltk-1.3.4-1/jpeg/jcparam.c ****   case JCS_RGB:
 396:fltk-1.3.4-1/jpeg/jcparam.c ****     jpeg_set_colorspace(cinfo, JCS_YCbCr);
 397:fltk-1.3.4-1/jpeg/jcparam.c ****     break;
 398:fltk-1.3.4-1/jpeg/jcparam.c ****   case JCS_YCbCr:
 399:fltk-1.3.4-1/jpeg/jcparam.c ****     jpeg_set_colorspace(cinfo, JCS_YCbCr);
 400:fltk-1.3.4-1/jpeg/jcparam.c ****     break;
 401:fltk-1.3.4-1/jpeg/jcparam.c ****   case JCS_CMYK:
 402:fltk-1.3.4-1/jpeg/jcparam.c ****     jpeg_set_colorspace(cinfo, JCS_CMYK); /* By default, no translation */
 403:fltk-1.3.4-1/jpeg/jcparam.c ****     break;
 404:fltk-1.3.4-1/jpeg/jcparam.c ****   case JCS_YCCK:
 405:fltk-1.3.4-1/jpeg/jcparam.c ****     jpeg_set_colorspace(cinfo, JCS_YCCK);
 406:fltk-1.3.4-1/jpeg/jcparam.c ****     break;
 407:fltk-1.3.4-1/jpeg/jcparam.c ****   case JCS_BG_RGB:
 408:fltk-1.3.4-1/jpeg/jcparam.c ****     /* No translation for now -- conversion to BG_YCC not yet supportet */
 409:fltk-1.3.4-1/jpeg/jcparam.c ****     jpeg_set_colorspace(cinfo, JCS_BG_RGB);
 410:fltk-1.3.4-1/jpeg/jcparam.c ****     break;
 411:fltk-1.3.4-1/jpeg/jcparam.c ****   case JCS_BG_YCC:
 412:fltk-1.3.4-1/jpeg/jcparam.c ****     jpeg_set_colorspace(cinfo, JCS_BG_YCC);
 413:fltk-1.3.4-1/jpeg/jcparam.c ****     break;
 414:fltk-1.3.4-1/jpeg/jcparam.c ****   default:
 415:fltk-1.3.4-1/jpeg/jcparam.c ****     ERREXIT(cinfo, JERR_BAD_IN_COLORSPACE);
 416:fltk-1.3.4-1/jpeg/jcparam.c ****   }
 417:fltk-1.3.4-1/jpeg/jcparam.c **** }
 418:fltk-1.3.4-1/jpeg/jcparam.c **** 
 419:fltk-1.3.4-1/jpeg/jcparam.c **** 
 420:fltk-1.3.4-1/jpeg/jcparam.c **** /*
 421:fltk-1.3.4-1/jpeg/jcparam.c ****  * Set the JPEG colorspace, and choose colorspace-dependent default values.
 422:fltk-1.3.4-1/jpeg/jcparam.c ****  */
 423:fltk-1.3.4-1/jpeg/jcparam.c **** 
 424:fltk-1.3.4-1/jpeg/jcparam.c **** GLOBAL(void)
 425:fltk-1.3.4-1/jpeg/jcparam.c **** jpeg_set_colorspace (j_compress_ptr cinfo, J_COLOR_SPACE colorspace)
 426:fltk-1.3.4-1/jpeg/jcparam.c **** {
 427:fltk-1.3.4-1/jpeg/jcparam.c ****   jpeg_component_info * compptr;
 428:fltk-1.3.4-1/jpeg/jcparam.c ****   int ci;
 429:fltk-1.3.4-1/jpeg/jcparam.c **** 
 430:fltk-1.3.4-1/jpeg/jcparam.c **** #define SET_COMP(index,id,hsamp,vsamp,quant,dctbl,actbl)  \
 431:fltk-1.3.4-1/jpeg/jcparam.c ****   (compptr = &cinfo->comp_info[index], \
 432:fltk-1.3.4-1/jpeg/jcparam.c ****    compptr->component_id = (id), \
 433:fltk-1.3.4-1/jpeg/jcparam.c ****    compptr->h_samp_factor = (hsamp), \
 434:fltk-1.3.4-1/jpeg/jcparam.c ****    compptr->v_samp_factor = (vsamp), \
 435:fltk-1.3.4-1/jpeg/jcparam.c ****    compptr->quant_tbl_no = (quant), \
 436:fltk-1.3.4-1/jpeg/jcparam.c ****    compptr->dc_tbl_no = (dctbl), \
 437:fltk-1.3.4-1/jpeg/jcparam.c ****    compptr->ac_tbl_no = (actbl) )
 438:fltk-1.3.4-1/jpeg/jcparam.c **** 
 439:fltk-1.3.4-1/jpeg/jcparam.c ****   /* Safety check to ensure start_compress not called yet. */
 440:fltk-1.3.4-1/jpeg/jcparam.c ****   if (cinfo->global_state != CSTATE_START)
 441:fltk-1.3.4-1/jpeg/jcparam.c ****     ERREXIT1(cinfo, JERR_BAD_STATE, cinfo->global_state);
 442:fltk-1.3.4-1/jpeg/jcparam.c **** 
 443:fltk-1.3.4-1/jpeg/jcparam.c ****   /* For all colorspaces, we use Q and Huff tables 0 for luminance components,
 444:fltk-1.3.4-1/jpeg/jcparam.c ****    * tables 1 for chrominance components.
 445:fltk-1.3.4-1/jpeg/jcparam.c ****    */
 446:fltk-1.3.4-1/jpeg/jcparam.c **** 
 447:fltk-1.3.4-1/jpeg/jcparam.c ****   cinfo->jpeg_color_space = colorspace;
 448:fltk-1.3.4-1/jpeg/jcparam.c **** 
 449:fltk-1.3.4-1/jpeg/jcparam.c ****   cinfo->write_JFIF_header = FALSE; /* No marker for non-JFIF colorspaces */
 450:fltk-1.3.4-1/jpeg/jcparam.c ****   cinfo->write_Adobe_marker = FALSE; /* write no Adobe marker by default */
 451:fltk-1.3.4-1/jpeg/jcparam.c **** 
 452:fltk-1.3.4-1/jpeg/jcparam.c ****   switch (colorspace) {
 453:fltk-1.3.4-1/jpeg/jcparam.c ****   case JCS_UNKNOWN:
 454:fltk-1.3.4-1/jpeg/jcparam.c ****     cinfo->num_components = cinfo->input_components;
 455:fltk-1.3.4-1/jpeg/jcparam.c ****     if (cinfo->num_components < 1 || cinfo->num_components > MAX_COMPONENTS)
 456:fltk-1.3.4-1/jpeg/jcparam.c ****       ERREXIT2(cinfo, JERR_COMPONENT_COUNT, cinfo->num_components,
 457:fltk-1.3.4-1/jpeg/jcparam.c **** 	       MAX_COMPONENTS);
 458:fltk-1.3.4-1/jpeg/jcparam.c ****     for (ci = 0; ci < cinfo->num_components; ci++) {
 459:fltk-1.3.4-1/jpeg/jcparam.c ****       SET_COMP(ci, ci, 1,1, 0, 0,0);
 460:fltk-1.3.4-1/jpeg/jcparam.c ****     }
 461:fltk-1.3.4-1/jpeg/jcparam.c ****     break;
 462:fltk-1.3.4-1/jpeg/jcparam.c ****   case JCS_GRAYSCALE:
 463:fltk-1.3.4-1/jpeg/jcparam.c ****     cinfo->write_JFIF_header = TRUE; /* Write a JFIF marker */
 464:fltk-1.3.4-1/jpeg/jcparam.c ****     cinfo->num_components = 1;
 465:fltk-1.3.4-1/jpeg/jcparam.c ****     /* JFIF specifies component ID 1 */
 466:fltk-1.3.4-1/jpeg/jcparam.c ****     SET_COMP(0, 0x01, 1,1, 0, 0,0);
 467:fltk-1.3.4-1/jpeg/jcparam.c ****     break;
 468:fltk-1.3.4-1/jpeg/jcparam.c ****   case JCS_RGB:
 469:fltk-1.3.4-1/jpeg/jcparam.c ****     cinfo->write_Adobe_marker = TRUE; /* write Adobe marker to flag RGB */
 470:fltk-1.3.4-1/jpeg/jcparam.c ****     cinfo->num_components = 3;
 471:fltk-1.3.4-1/jpeg/jcparam.c ****     SET_COMP(0, 0x52 /* 'R' */, 1,1, 0,
 472:fltk-1.3.4-1/jpeg/jcparam.c **** 		cinfo->color_transform == JCT_SUBTRACT_GREEN ? 1 : 0,
 473:fltk-1.3.4-1/jpeg/jcparam.c **** 		cinfo->color_transform == JCT_SUBTRACT_GREEN ? 1 : 0);
 474:fltk-1.3.4-1/jpeg/jcparam.c ****     SET_COMP(1, 0x47 /* 'G' */, 1,1, 0, 0,0);
 475:fltk-1.3.4-1/jpeg/jcparam.c ****     SET_COMP(2, 0x42 /* 'B' */, 1,1, 0,
 476:fltk-1.3.4-1/jpeg/jcparam.c **** 		cinfo->color_transform == JCT_SUBTRACT_GREEN ? 1 : 0,
 477:fltk-1.3.4-1/jpeg/jcparam.c **** 		cinfo->color_transform == JCT_SUBTRACT_GREEN ? 1 : 0);
 478:fltk-1.3.4-1/jpeg/jcparam.c ****     break;
 479:fltk-1.3.4-1/jpeg/jcparam.c ****   case JCS_YCbCr:
 480:fltk-1.3.4-1/jpeg/jcparam.c ****     cinfo->write_JFIF_header = TRUE; /* Write a JFIF marker */
 481:fltk-1.3.4-1/jpeg/jcparam.c ****     cinfo->num_components = 3;
 482:fltk-1.3.4-1/jpeg/jcparam.c ****     /* JFIF specifies component IDs 1,2,3 */
 483:fltk-1.3.4-1/jpeg/jcparam.c ****     /* We default to 2x2 subsamples of chrominance */
 484:fltk-1.3.4-1/jpeg/jcparam.c ****     SET_COMP(0, 0x01, 2,2, 0, 0,0);
 485:fltk-1.3.4-1/jpeg/jcparam.c ****     SET_COMP(1, 0x02, 1,1, 1, 1,1);
 486:fltk-1.3.4-1/jpeg/jcparam.c ****     SET_COMP(2, 0x03, 1,1, 1, 1,1);
 487:fltk-1.3.4-1/jpeg/jcparam.c ****     break;
 488:fltk-1.3.4-1/jpeg/jcparam.c ****   case JCS_CMYK:
 489:fltk-1.3.4-1/jpeg/jcparam.c ****     cinfo->write_Adobe_marker = TRUE; /* write Adobe marker to flag CMYK */
 490:fltk-1.3.4-1/jpeg/jcparam.c ****     cinfo->num_components = 4;
 491:fltk-1.3.4-1/jpeg/jcparam.c ****     SET_COMP(0, 0x43 /* 'C' */, 1,1, 0, 0,0);
 492:fltk-1.3.4-1/jpeg/jcparam.c ****     SET_COMP(1, 0x4D /* 'M' */, 1,1, 0, 0,0);
 493:fltk-1.3.4-1/jpeg/jcparam.c ****     SET_COMP(2, 0x59 /* 'Y' */, 1,1, 0, 0,0);
 494:fltk-1.3.4-1/jpeg/jcparam.c ****     SET_COMP(3, 0x4B /* 'K' */, 1,1, 0, 0,0);
 495:fltk-1.3.4-1/jpeg/jcparam.c ****     break;
 496:fltk-1.3.4-1/jpeg/jcparam.c ****   case JCS_YCCK:
 497:fltk-1.3.4-1/jpeg/jcparam.c ****     cinfo->write_Adobe_marker = TRUE; /* write Adobe marker to flag YCCK */
 498:fltk-1.3.4-1/jpeg/jcparam.c ****     cinfo->num_components = 4;
 499:fltk-1.3.4-1/jpeg/jcparam.c ****     SET_COMP(0, 0x01, 2,2, 0, 0,0);
 500:fltk-1.3.4-1/jpeg/jcparam.c ****     SET_COMP(1, 0x02, 1,1, 1, 1,1);
 501:fltk-1.3.4-1/jpeg/jcparam.c ****     SET_COMP(2, 0x03, 1,1, 1, 1,1);
 502:fltk-1.3.4-1/jpeg/jcparam.c ****     SET_COMP(3, 0x04, 2,2, 0, 0,0);
 503:fltk-1.3.4-1/jpeg/jcparam.c ****     break;
 504:fltk-1.3.4-1/jpeg/jcparam.c ****   case JCS_BG_RGB:
 505:fltk-1.3.4-1/jpeg/jcparam.c ****     cinfo->write_JFIF_header = TRUE; /* Write a JFIF marker */
 506:fltk-1.3.4-1/jpeg/jcparam.c ****     cinfo->JFIF_major_version = 2;   /* Set JFIF major version = 2 */
 507:fltk-1.3.4-1/jpeg/jcparam.c ****     cinfo->num_components = 3;
 508:fltk-1.3.4-1/jpeg/jcparam.c ****     /* Add offset 0x20 to the normal R/G/B component IDs */
 509:fltk-1.3.4-1/jpeg/jcparam.c ****     SET_COMP(0, 0x72 /* 'r' */, 1,1, 0,
 510:fltk-1.3.4-1/jpeg/jcparam.c **** 		cinfo->color_transform == JCT_SUBTRACT_GREEN ? 1 : 0,
 511:fltk-1.3.4-1/jpeg/jcparam.c **** 		cinfo->color_transform == JCT_SUBTRACT_GREEN ? 1 : 0);
 512:fltk-1.3.4-1/jpeg/jcparam.c ****     SET_COMP(1, 0x67 /* 'g' */, 1,1, 0, 0,0);
 513:fltk-1.3.4-1/jpeg/jcparam.c ****     SET_COMP(2, 0x62 /* 'b' */, 1,1, 0,
 514:fltk-1.3.4-1/jpeg/jcparam.c **** 		cinfo->color_transform == JCT_SUBTRACT_GREEN ? 1 : 0,
 515:fltk-1.3.4-1/jpeg/jcparam.c **** 		cinfo->color_transform == JCT_SUBTRACT_GREEN ? 1 : 0);
 516:fltk-1.3.4-1/jpeg/jcparam.c ****     break;
 517:fltk-1.3.4-1/jpeg/jcparam.c ****   case JCS_BG_YCC:
 518:fltk-1.3.4-1/jpeg/jcparam.c ****     cinfo->write_JFIF_header = TRUE; /* Write a JFIF marker */
 519:fltk-1.3.4-1/jpeg/jcparam.c ****     cinfo->JFIF_major_version = 2;   /* Set JFIF major version = 2 */
 520:fltk-1.3.4-1/jpeg/jcparam.c ****     cinfo->num_components = 3;
 521:fltk-1.3.4-1/jpeg/jcparam.c ****     /* Add offset 0x20 to the normal Cb/Cr component IDs */
 522:fltk-1.3.4-1/jpeg/jcparam.c ****     /* We default to 2x2 subsamples of chrominance */
 523:fltk-1.3.4-1/jpeg/jcparam.c ****     SET_COMP(0, 0x01, 2,2, 0, 0,0);
 524:fltk-1.3.4-1/jpeg/jcparam.c ****     SET_COMP(1, 0x22, 1,1, 1, 1,1);
 525:fltk-1.3.4-1/jpeg/jcparam.c ****     SET_COMP(2, 0x23, 1,1, 1, 1,1);
 526:fltk-1.3.4-1/jpeg/jcparam.c ****     break;
 527:fltk-1.3.4-1/jpeg/jcparam.c ****   default:
 528:fltk-1.3.4-1/jpeg/jcparam.c ****     ERREXIT(cinfo, JERR_BAD_J_COLORSPACE);
 529:fltk-1.3.4-1/jpeg/jcparam.c ****   }
 530:fltk-1.3.4-1/jpeg/jcparam.c **** }
 531:fltk-1.3.4-1/jpeg/jcparam.c **** 
 532:fltk-1.3.4-1/jpeg/jcparam.c **** 
 533:fltk-1.3.4-1/jpeg/jcparam.c **** #ifdef C_PROGRESSIVE_SUPPORTED
 534:fltk-1.3.4-1/jpeg/jcparam.c **** 
 535:fltk-1.3.4-1/jpeg/jcparam.c **** LOCAL(jpeg_scan_info *)
 536:fltk-1.3.4-1/jpeg/jcparam.c **** fill_a_scan (jpeg_scan_info * scanptr, int ci,
 537:fltk-1.3.4-1/jpeg/jcparam.c **** 	     int Ss, int Se, int Ah, int Al)
 538:fltk-1.3.4-1/jpeg/jcparam.c **** /* Support routine: generate one scan for specified component */
 539:fltk-1.3.4-1/jpeg/jcparam.c **** {
 540:fltk-1.3.4-1/jpeg/jcparam.c ****   scanptr->comps_in_scan = 1;
 541:fltk-1.3.4-1/jpeg/jcparam.c ****   scanptr->component_index[0] = ci;
 542:fltk-1.3.4-1/jpeg/jcparam.c ****   scanptr->Ss = Ss;
 543:fltk-1.3.4-1/jpeg/jcparam.c ****   scanptr->Se = Se;
 544:fltk-1.3.4-1/jpeg/jcparam.c ****   scanptr->Ah = Ah;
 545:fltk-1.3.4-1/jpeg/jcparam.c ****   scanptr->Al = Al;
 546:fltk-1.3.4-1/jpeg/jcparam.c ****   scanptr++;
 547:fltk-1.3.4-1/jpeg/jcparam.c ****   return scanptr;
 548:fltk-1.3.4-1/jpeg/jcparam.c **** }
 549:fltk-1.3.4-1/jpeg/jcparam.c **** 
 550:fltk-1.3.4-1/jpeg/jcparam.c **** LOCAL(jpeg_scan_info *)
 551:fltk-1.3.4-1/jpeg/jcparam.c **** fill_scans (jpeg_scan_info * scanptr, int ncomps,
 552:fltk-1.3.4-1/jpeg/jcparam.c **** 	    int Ss, int Se, int Ah, int Al)
 553:fltk-1.3.4-1/jpeg/jcparam.c **** /* Support routine: generate one scan for each component */
 554:fltk-1.3.4-1/jpeg/jcparam.c **** {
 555:fltk-1.3.4-1/jpeg/jcparam.c ****   int ci;
 556:fltk-1.3.4-1/jpeg/jcparam.c **** 
 557:fltk-1.3.4-1/jpeg/jcparam.c ****   for (ci = 0; ci < ncomps; ci++) {
 558:fltk-1.3.4-1/jpeg/jcparam.c ****     scanptr->comps_in_scan = 1;
 559:fltk-1.3.4-1/jpeg/jcparam.c ****     scanptr->component_index[0] = ci;
 560:fltk-1.3.4-1/jpeg/jcparam.c ****     scanptr->Ss = Ss;
 561:fltk-1.3.4-1/jpeg/jcparam.c ****     scanptr->Se = Se;
 562:fltk-1.3.4-1/jpeg/jcparam.c ****     scanptr->Ah = Ah;
 563:fltk-1.3.4-1/jpeg/jcparam.c ****     scanptr->Al = Al;
 564:fltk-1.3.4-1/jpeg/jcparam.c ****     scanptr++;
 565:fltk-1.3.4-1/jpeg/jcparam.c ****   }
 566:fltk-1.3.4-1/jpeg/jcparam.c ****   return scanptr;
 567:fltk-1.3.4-1/jpeg/jcparam.c **** }
 568:fltk-1.3.4-1/jpeg/jcparam.c **** 
 569:fltk-1.3.4-1/jpeg/jcparam.c **** LOCAL(jpeg_scan_info *)
 570:fltk-1.3.4-1/jpeg/jcparam.c **** fill_dc_scans (jpeg_scan_info * scanptr, int ncomps, int Ah, int Al)
 571:fltk-1.3.4-1/jpeg/jcparam.c **** /* Support routine: generate interleaved DC scan if possible, else N scans */
 572:fltk-1.3.4-1/jpeg/jcparam.c **** {
 161              		.loc 1 572 1 is_stmt 1 view -0
 162              		.cfi_startproc
 573:fltk-1.3.4-1/jpeg/jcparam.c ****   int ci;
 163              		.loc 1 573 3 view .LVU45
 574:fltk-1.3.4-1/jpeg/jcparam.c **** 
 575:fltk-1.3.4-1/jpeg/jcparam.c ****   if (ncomps <= MAX_COMPS_IN_SCAN) {
 164              		.loc 1 575 3 view .LVU46
 165              		.loc 1 575 6 is_stmt 0 view .LVU47
 166 0000 83FE04   		cmpl	$4, %esi
 167 0003 7F2B     		jg	.L14
 168              	.LVL16:
 169              	.LBB54:
 170              	.LBI54:
 570:fltk-1.3.4-1/jpeg/jcparam.c **** /* Support routine: generate interleaved DC scan if possible, else N scans */
 171              		.loc 1 570 1 is_stmt 1 view .LVU48
 172              	.LBB55:
 576:fltk-1.3.4-1/jpeg/jcparam.c ****     /* Single interleaved DC scan */
 577:fltk-1.3.4-1/jpeg/jcparam.c ****     scanptr->comps_in_scan = ncomps;
 173              		.loc 1 577 5 view .LVU49
 174              		.loc 1 577 28 is_stmt 0 view .LVU50
 175 0005 8937     		movl	%esi, (%rdi)
 578:fltk-1.3.4-1/jpeg/jcparam.c ****     for (ci = 0; ci < ncomps; ci++)
 176              		.loc 1 578 5 is_stmt 1 view .LVU51
 177              	.LVL17:
 178              		.loc 1 578 18 view .LVU52
 179              		.loc 1 578 5 is_stmt 0 view .LVU53
 180 0007 85F6     		testl	%esi, %esi
 181 0009 7E11     		jle	.L11
 182 000b 31C0     		xorl	%eax, %eax
 183              	.LVL18:
 184 000d 0F1F00   		.p2align 4,,10
 185              		.p2align 3
 186              	.L12:
 579:fltk-1.3.4-1/jpeg/jcparam.c ****       scanptr->component_index[ci] = ci;
 187              		.loc 1 579 7 is_stmt 1 view .LVU54
 188              		.loc 1 579 36 is_stmt 0 view .LVU55
 189 0010 89448704 		movl	%eax, 4(%rdi,%rax,4)
 578:fltk-1.3.4-1/jpeg/jcparam.c ****     for (ci = 0; ci < ncomps; ci++)
 190              		.loc 1 578 31 is_stmt 1 view .LVU56
 191              	.LVL19:
 578:fltk-1.3.4-1/jpeg/jcparam.c ****     for (ci = 0; ci < ncomps; ci++)
 192              		.loc 1 578 18 view .LVU57
 193 0014 4883C001 		addq	$1, %rax
 194              	.LVL20:
 578:fltk-1.3.4-1/jpeg/jcparam.c ****     for (ci = 0; ci < ncomps; ci++)
 195              		.loc 1 578 5 is_stmt 0 view .LVU58
 196 0018 39C6     		cmpl	%eax, %esi
 197 001a 7FF4     		jg	.L12
 198              	.LVL21:
 199              	.L11:
 580:fltk-1.3.4-1/jpeg/jcparam.c ****     scanptr->Ss = scanptr->Se = 0;
 200              		.loc 1 580 5 is_stmt 1 view .LVU59
 201              		.loc 1 580 17 is_stmt 0 view .LVU60
 202 001c 48C74714 		movq	$0, 20(%rdi)
 202      00000000 
 581:fltk-1.3.4-1/jpeg/jcparam.c ****     scanptr->Ah = Ah;
 203              		.loc 1 581 5 is_stmt 1 view .LVU61
 582:fltk-1.3.4-1/jpeg/jcparam.c ****     scanptr->Al = Al;
 583:fltk-1.3.4-1/jpeg/jcparam.c ****     scanptr++;
 204              		.loc 1 583 12 is_stmt 0 view .LVU62
 205 0024 488D4724 		leaq	36(%rdi), %rax
 581:fltk-1.3.4-1/jpeg/jcparam.c ****     scanptr->Ah = Ah;
 206              		.loc 1 581 17 view .LVU63
 207 0028 89571C   		movl	%edx, 28(%rdi)
 582:fltk-1.3.4-1/jpeg/jcparam.c ****     scanptr->Al = Al;
 208              		.loc 1 582 5 is_stmt 1 view .LVU64
 582:fltk-1.3.4-1/jpeg/jcparam.c ****     scanptr->Al = Al;
 209              		.loc 1 582 17 is_stmt 0 view .LVU65
 210 002b 894F20   		movl	%ecx, 32(%rdi)
 211              		.loc 1 583 5 is_stmt 1 view .LVU66
 212              	.LVL22:
 584:fltk-1.3.4-1/jpeg/jcparam.c ****   } else {
 585:fltk-1.3.4-1/jpeg/jcparam.c ****     /* Noninterleaved DC scan for each component */
 586:fltk-1.3.4-1/jpeg/jcparam.c ****     scanptr = fill_scans(scanptr, ncomps, 0, 0, Ah, Al);
 587:fltk-1.3.4-1/jpeg/jcparam.c ****   }
 588:fltk-1.3.4-1/jpeg/jcparam.c ****   return scanptr;
 213              		.loc 1 588 3 view .LVU67
 214              		.loc 1 588 3 is_stmt 0 view .LVU68
 215 002e C3       		ret
 216 002f 90       		.p2align 4,,10
 217              		.p2align 3
 218              	.L14:
 219              		.loc 1 588 3 view .LVU69
 220              	.LBE55:
 221              	.LBE54:
 222 0030 4989F8   		movq	%rdi, %r8
 223              	.LBB56:
 224              	.LBB57:
 557:fltk-1.3.4-1/jpeg/jcparam.c ****     scanptr->comps_in_scan = 1;
 225              		.loc 1 557 11 view .LVU70
 226 0033 4531C9   		xorl	%r9d, %r9d
 227 0036 662E0F1F 		.p2align 4,,10
 227      84000000 
 227      0000
 228              		.p2align 3
 229              	.L10:
 230              	.LVL23:
 558:fltk-1.3.4-1/jpeg/jcparam.c ****     scanptr->component_index[0] = ci;
 231              		.loc 1 558 5 is_stmt 1 view .LVU71
 559:fltk-1.3.4-1/jpeg/jcparam.c ****     scanptr->Ss = Ss;
 232              		.loc 1 559 33 is_stmt 0 view .LVU72
 233 0040 45894804 		movl	%r9d, 4(%r8)
 234 0044 4489C8   		movl	%r9d, %eax
 557:fltk-1.3.4-1/jpeg/jcparam.c ****     scanptr->comps_in_scan = 1;
 235              		.loc 1 557 31 view .LVU73
 236 0047 4183C101 		addl	$1, %r9d
 237              	.LVL24:
 564:fltk-1.3.4-1/jpeg/jcparam.c ****   }
 238              		.loc 1 564 12 view .LVU74
 239 004b 4983C024 		addq	$36, %r8
 240              	.LVL25:
 558:fltk-1.3.4-1/jpeg/jcparam.c ****     scanptr->component_index[0] = ci;
 241              		.loc 1 558 28 view .LVU75
 242 004f 41C740DC 		movl	$1, -36(%r8)
 242      01000000 
 559:fltk-1.3.4-1/jpeg/jcparam.c ****     scanptr->Ss = Ss;
 243              		.loc 1 559 5 is_stmt 1 view .LVU76
 560:fltk-1.3.4-1/jpeg/jcparam.c ****     scanptr->Se = Se;
 244              		.loc 1 560 5 view .LVU77
 560:fltk-1.3.4-1/jpeg/jcparam.c ****     scanptr->Se = Se;
 245              		.loc 1 560 17 is_stmt 0 view .LVU78
 246 0057 41C740F0 		movl	$0, -16(%r8)
 246      00000000 
 561:fltk-1.3.4-1/jpeg/jcparam.c ****     scanptr->Ah = Ah;
 247              		.loc 1 561 5 is_stmt 1 view .LVU79
 561:fltk-1.3.4-1/jpeg/jcparam.c ****     scanptr->Ah = Ah;
 248              		.loc 1 561 17 is_stmt 0 view .LVU80
 249 005f 41C740F4 		movl	$0, -12(%r8)
 249      00000000 
 562:fltk-1.3.4-1/jpeg/jcparam.c ****     scanptr->Al = Al;
 250              		.loc 1 562 5 is_stmt 1 view .LVU81
 562:fltk-1.3.4-1/jpeg/jcparam.c ****     scanptr->Al = Al;
 251              		.loc 1 562 17 is_stmt 0 view .LVU82
 252 0067 418950F8 		movl	%edx, -8(%r8)
 563:fltk-1.3.4-1/jpeg/jcparam.c ****     scanptr++;
 253              		.loc 1 563 5 is_stmt 1 view .LVU83
 563:fltk-1.3.4-1/jpeg/jcparam.c ****     scanptr++;
 254              		.loc 1 563 17 is_stmt 0 view .LVU84
 255 006b 418948FC 		movl	%ecx, -4(%r8)
 564:fltk-1.3.4-1/jpeg/jcparam.c ****   }
 256              		.loc 1 564 5 is_stmt 1 view .LVU85
 257              	.LVL26:
 557:fltk-1.3.4-1/jpeg/jcparam.c ****     scanptr->comps_in_scan = 1;
 258              		.loc 1 557 29 view .LVU86
 557:fltk-1.3.4-1/jpeg/jcparam.c ****     scanptr->comps_in_scan = 1;
 259              		.loc 1 557 16 view .LVU87
 557:fltk-1.3.4-1/jpeg/jcparam.c ****     scanptr->comps_in_scan = 1;
 260              		.loc 1 557 3 is_stmt 0 view .LVU88
 261 006f 4439CE   		cmpl	%r9d, %esi
 262 0072 75CC     		jne	.L10
 557:fltk-1.3.4-1/jpeg/jcparam.c ****     scanptr->comps_in_scan = 1;
 263              		.loc 1 557 3 view .LVU89
 264 0074 488D44C0 		leaq	9(%rax,%rax,8), %rax
 264      09
 265 0079 488D0487 		leaq	(%rdi,%rax,4), %rax
 266              	.LVL27:
 557:fltk-1.3.4-1/jpeg/jcparam.c ****     scanptr->comps_in_scan = 1;
 267              		.loc 1 557 3 view .LVU90
 268              	.LBE57:
 269              	.LBE56:
 270              		.loc 1 588 3 is_stmt 1 view .LVU91
 589:fltk-1.3.4-1/jpeg/jcparam.c **** }
 271              		.loc 1 589 1 is_stmt 0 view .LVU92
 272 007d C3       		ret
 273              		.cfi_endproc
 274              	.LFE63:
 276              		.section	.text.jpeg_add_quant_table,"ax",@progbits
 277              		.p2align 4
 278              		.globl	jpeg_add_quant_table
 280              	jpeg_add_quant_table:
 281              	.LVL28:
 282              	.LFB51:
  32:fltk-1.3.4-1/jpeg/jcparam.c ****   JQUANT_TBL ** qtblptr;
 283              		.loc 1 32 1 is_stmt 1 view -0
 284              		.cfi_startproc
  32:fltk-1.3.4-1/jpeg/jcparam.c ****   JQUANT_TBL ** qtblptr;
 285              		.loc 1 32 1 is_stmt 0 view .LVU94
 286 0000 F30F1EFA 		endbr64
  33:fltk-1.3.4-1/jpeg/jcparam.c ****   int i;
 287              		.loc 1 33 3 is_stmt 1 view .LVU95
  34:fltk-1.3.4-1/jpeg/jcparam.c ****   long temp;
 288              		.loc 1 34 3 view .LVU96
  35:fltk-1.3.4-1/jpeg/jcparam.c **** 
 289              		.loc 1 35 3 view .LVU97
  38:fltk-1.3.4-1/jpeg/jcparam.c ****     ERREXIT1(cinfo, JERR_BAD_STATE, cinfo->global_state);
 290              		.loc 1 38 3 view .LVU98
  32:fltk-1.3.4-1/jpeg/jcparam.c ****   JQUANT_TBL ** qtblptr;
 291              		.loc 1 32 1 is_stmt 0 view .LVU99
 292 0004 4156     		pushq	%r14
 293              		.cfi_def_cfa_offset 16
 294              		.cfi_offset 14, -16
 295 0006 4189CE   		movl	%ecx, %r14d
 296 0009 4155     		pushq	%r13
 297              		.cfi_def_cfa_offset 24
 298              		.cfi_offset 13, -24
 299 000b 4989FD   		movq	%rdi, %r13
 300 000e 4154     		pushq	%r12
 301              		.cfi_def_cfa_offset 32
 302              		.cfi_offset 12, -32
 303 0010 4589C4   		movl	%r8d, %r12d
 304 0013 55       		pushq	%rbp
 305              		.cfi_def_cfa_offset 40
 306              		.cfi_offset 6, -40
 307 0014 4863EE   		movslq	%esi, %rbp
 308 0017 53       		pushq	%rbx
 309              		.cfi_def_cfa_offset 48
 310              		.cfi_offset 3, -48
  38:fltk-1.3.4-1/jpeg/jcparam.c ****     ERREXIT1(cinfo, JERR_BAD_STATE, cinfo->global_state);
 311              		.loc 1 38 6 view .LVU100
 312 0018 837F2464 		cmpl	$100, 36(%rdi)
  32:fltk-1.3.4-1/jpeg/jcparam.c ****   JQUANT_TBL ** qtblptr;
 313              		.loc 1 32 1 view .LVU101
 314 001c 4889D3   		movq	%rdx, %rbx
  38:fltk-1.3.4-1/jpeg/jcparam.c ****     ERREXIT1(cinfo, JERR_BAD_STATE, cinfo->global_state);
 315              		.loc 1 38 6 view .LVU102
 316 001f 7418     		je	.L18
  39:fltk-1.3.4-1/jpeg/jcparam.c **** 
 317              		.loc 1 39 5 is_stmt 1 view .LVU103
 318 0021 488B07   		movq	(%rdi), %rax
 319 0024 C7402815 		movl	$21, 40(%rax)
 319      000000
 320 002b 488B07   		movq	(%rdi), %rax
 321 002e 8B5724   		movl	36(%rdi), %edx
 322              	.LVL29:
  39:fltk-1.3.4-1/jpeg/jcparam.c **** 
 323              		.loc 1 39 5 is_stmt 0 view .LVU104
 324 0031 89502C   		movl	%edx, 44(%rax)
 325 0034 488B07   		movq	(%rdi), %rax
 326 0037 FF10     		call	*(%rax)
 327              	.LVL30:
 328              	.L18:
  41:fltk-1.3.4-1/jpeg/jcparam.c ****     ERREXIT1(cinfo, JERR_DQT_INDEX, which_tbl);
 329              		.loc 1 41 3 is_stmt 1 view .LVU105
  41:fltk-1.3.4-1/jpeg/jcparam.c ****     ERREXIT1(cinfo, JERR_DQT_INDEX, which_tbl);
 330              		.loc 1 41 6 is_stmt 0 view .LVU106
 331 0039 83FD03   		cmpl	$3, %ebp
 332 003c 761B     		jbe	.L19
  42:fltk-1.3.4-1/jpeg/jcparam.c **** 
 333              		.loc 1 42 5 is_stmt 1 view .LVU107
 334 003e 498B4500 		movq	0(%r13), %rax
 335 0042 4C89EF   		movq	%r13, %rdi
 336 0045 C7402820 		movl	$32, 40(%rax)
 336      000000
 337 004c 498B4500 		movq	0(%r13), %rax
 338 0050 89682C   		movl	%ebp, 44(%rax)
 339 0053 498B4500 		movq	0(%r13), %rax
 340 0057 FF10     		call	*(%rax)
 341              	.LVL31:
 342              	.L19:
  44:fltk-1.3.4-1/jpeg/jcparam.c **** 
 343              		.loc 1 44 3 view .LVU108
  46:fltk-1.3.4-1/jpeg/jcparam.c ****     *qtblptr = jpeg_alloc_quant_table((j_common_ptr) cinfo);
 344              		.loc 1 46 3 view .LVU109
 345 0059 498D6CED 		leaq	0(%r13,%rbp,8), %rbp
 345      00
 346              	.LVL32:
  46:fltk-1.3.4-1/jpeg/jcparam.c ****     *qtblptr = jpeg_alloc_quant_table((j_common_ptr) cinfo);
 347              		.loc 1 46 7 is_stmt 0 view .LVU110
 348 005e 4C8B4D70 		movq	112(%rbp), %r9
  46:fltk-1.3.4-1/jpeg/jcparam.c ****     *qtblptr = jpeg_alloc_quant_table((j_common_ptr) cinfo);
 349              		.loc 1 46 6 view .LVU111
 350 0062 4D85C9   		testq	%r9, %r9
 351 0065 746A     		je	.L32
 352              	.L20:
 353 0067 4963FE   		movslq	%r14d, %rdi
  32:fltk-1.3.4-1/jpeg/jcparam.c ****   JQUANT_TBL ** qtblptr;
 354              		.loc 1 32 1 view .LVU112
 355 006a 31C9     		xorl	%ecx, %ecx
  50:fltk-1.3.4-1/jpeg/jcparam.c ****     /* limit the values to the valid range */
 356              		.loc 1 50 10 view .LVU113
 357 006c 41B86400 		movl	$100, %r8d
 357      0000
 358 0072 41BAFF7F 		movl	$32767, %r10d
 358      0000
 359 0078 EB0A     		jmp	.L24
 360 007a 660F1F44 		.p2align 4,,10
 360      0000
 361              		.p2align 3
 362              	.L33:
 363              	.LVL33:
  50:fltk-1.3.4-1/jpeg/jcparam.c ****     /* limit the values to the valid range */
 364              		.loc 1 50 10 view .LVU114
 365 0080 4C8B4D70 		movq	112(%rbp), %r9
 366              	.LVL34:
 367              	.L24:
  50:fltk-1.3.4-1/jpeg/jcparam.c ****     /* limit the values to the valid range */
 368              		.loc 1 50 13 view .LVU115
 369 0084 8B048B   		movl	(%rbx,%rcx,4), %eax
 370 0087 4863F1   		movslq	%ecx, %rsi
 371              	.LVL35:
  50:fltk-1.3.4-1/jpeg/jcparam.c ****     /* limit the values to the valid range */
 372              		.loc 1 50 5 is_stmt 1 view .LVU116
 373 008a BA010000 		movl	$1, %edx
 373      00
  50:fltk-1.3.4-1/jpeg/jcparam.c ****     /* limit the values to the valid range */
 374              		.loc 1 50 35 is_stmt 0 view .LVU117
 375 008f 480FAFC7 		imulq	%rdi, %rax
 376              	.LVL36:
  52:fltk-1.3.4-1/jpeg/jcparam.c ****     if (temp > 32767L) temp = 32767L; /* max quantizer needed for 12 bits */
 377              		.loc 1 52 5 is_stmt 1 view .LVU118
  52:fltk-1.3.4-1/jpeg/jcparam.c ****     if (temp > 32767L) temp = 32767L; /* max quantizer needed for 12 bits */
 378              		.loc 1 52 8 is_stmt 0 view .LVU119
 379 0093 4883F831 		cmpq	$49, %rax
 380 0097 7E12     		jle	.L21
  53:fltk-1.3.4-1/jpeg/jcparam.c ****     if (force_baseline && temp > 255L)
 381              		.loc 1 53 5 is_stmt 1 view .LVU120
 382              	.LVL37:
  54:fltk-1.3.4-1/jpeg/jcparam.c ****       temp = 255L;		/* limit to baseline range if requested */
 383              		.loc 1 54 5 view .LVU121
  54:fltk-1.3.4-1/jpeg/jcparam.c ****       temp = 255L;		/* limit to baseline range if requested */
 384              		.loc 1 54 8 is_stmt 0 view .LVU122
 385 0099 4585E4   		testl	%r12d, %r12d
 386 009c 7444     		je	.L27
 387 009e 483DCD63 		cmpq	$25549, %rax
 387      0000
 388 00a4 7E3C     		jle	.L27
 389 00a6 BAFF0000 		movl	$255, %edx
 389      00
 390              	.LVL38:
 391              	.L21:
  56:fltk-1.3.4-1/jpeg/jcparam.c ****   }
 392              		.loc 1 56 5 is_stmt 1 discriminator 2 view .LVU123
 393 00ab 4883C101 		addq	$1, %rcx
 394              	.LVL39:
  56:fltk-1.3.4-1/jpeg/jcparam.c ****   }
 395              		.loc 1 56 29 is_stmt 0 discriminator 2 view .LVU124
 396 00af 66418914 		movw	%dx, (%r9,%rsi,2)
 396      71
  49:fltk-1.3.4-1/jpeg/jcparam.c ****     temp = ((long) basic_table[i] * scale_factor + 50L) / 100L;
 397              		.loc 1 49 29 is_stmt 1 discriminator 2 view .LVU125
 398              	.LVL40:
  49:fltk-1.3.4-1/jpeg/jcparam.c ****     temp = ((long) basic_table[i] * scale_factor + 50L) / 100L;
 399              		.loc 1 49 15 discriminator 2 view .LVU126
  49:fltk-1.3.4-1/jpeg/jcparam.c ****     temp = ((long) basic_table[i] * scale_factor + 50L) / 100L;
 400              		.loc 1 49 3 is_stmt 0 discriminator 2 view .LVU127
 401 00b4 4883F940 		cmpq	$64, %rcx
 402 00b8 75C6     		jne	.L33
  60:fltk-1.3.4-1/jpeg/jcparam.c **** }
 403              		.loc 1 60 3 is_stmt 1 view .LVU128
  60:fltk-1.3.4-1/jpeg/jcparam.c **** }
 404              		.loc 1 60 4 is_stmt 0 view .LVU129
 405 00ba 488B4570 		movq	112(%rbp), %rax
  60:fltk-1.3.4-1/jpeg/jcparam.c **** }
 406              		.loc 1 60 26 view .LVU130
 407 00be C7808000 		movl	$0, 128(%rax)
 407      00000000 
 407      0000
  61:fltk-1.3.4-1/jpeg/jcparam.c **** 
 408              		.loc 1 61 1 view .LVU131
 409 00c8 5B       		popq	%rbx
 410              		.cfi_remember_state
 411              		.cfi_def_cfa_offset 40
 412              	.LVL41:
  61:fltk-1.3.4-1/jpeg/jcparam.c **** 
 413              		.loc 1 61 1 view .LVU132
 414 00c9 5D       		popq	%rbp
 415              		.cfi_def_cfa_offset 32
 416 00ca 415C     		popq	%r12
 417              		.cfi_def_cfa_offset 24
 418              	.LVL42:
  61:fltk-1.3.4-1/jpeg/jcparam.c **** 
 419              		.loc 1 61 1 view .LVU133
 420 00cc 415D     		popq	%r13
 421              		.cfi_def_cfa_offset 16
 422              	.LVL43:
  61:fltk-1.3.4-1/jpeg/jcparam.c **** 
 423              		.loc 1 61 1 view .LVU134
 424 00ce 415E     		popq	%r14
 425              		.cfi_def_cfa_offset 8
 426              	.LVL44:
  61:fltk-1.3.4-1/jpeg/jcparam.c **** 
 427              		.loc 1 61 1 view .LVU135
 428 00d0 C3       		ret
 429              	.LVL45:
 430              	.L32:
 431              		.cfi_restore_state
  47:fltk-1.3.4-1/jpeg/jcparam.c **** 
 432              		.loc 1 47 5 is_stmt 1 view .LVU136
  47:fltk-1.3.4-1/jpeg/jcparam.c **** 
 433              		.loc 1 47 16 is_stmt 0 view .LVU137
 434 00d1 4C89EF   		movq	%r13, %rdi
 435 00d4 E8000000 		call	jpeg_alloc_quant_table@PLT
 435      00
 436              	.LVL46:
  47:fltk-1.3.4-1/jpeg/jcparam.c **** 
 437              		.loc 1 47 14 view .LVU138
 438 00d9 48894570 		movq	%rax, 112(%rbp)
  47:fltk-1.3.4-1/jpeg/jcparam.c **** 
 439              		.loc 1 47 16 view .LVU139
 440 00dd 4989C1   		movq	%rax, %r9
 441 00e0 EB85     		jmp	.L20
 442              	.LVL47:
 443              	.L27:
  50:fltk-1.3.4-1/jpeg/jcparam.c ****     /* limit the values to the valid range */
 444              		.loc 1 50 50 view .LVU140
 445 00e2 4883C032 		addq	$50, %rax
 446              	.LVL48:
  50:fltk-1.3.4-1/jpeg/jcparam.c ****     /* limit the values to the valid range */
 447              		.loc 1 50 10 view .LVU141
 448 00e6 4899     		cqto
 449 00e8 49F7F8   		idivq	%r8
 450              	.LVL49:
  50:fltk-1.3.4-1/jpeg/jcparam.c ****     /* limit the values to the valid range */
 451              		.loc 1 50 10 view .LVU142
 452 00eb 483DFF7F 		cmpq	$32767, %rax
 452      0000
 453 00f1 490F4FC2 		cmovg	%r10, %rax
 454 00f5 4889C2   		movq	%rax, %rdx
 455 00f8 EBB1     		jmp	.L21
 456              		.cfi_endproc
 457              	.LFE51:
 459              		.section	.text.jpeg_default_qtables,"ax",@progbits
 460              		.p2align 4
 461              		.globl	jpeg_default_qtables
 463              	jpeg_default_qtables:
 464              	.LVL50:
 465              	.LFB52:
  96:fltk-1.3.4-1/jpeg/jcparam.c ****   /* Set up two quantization tables using the specified scaling */
 466              		.loc 1 96 1 is_stmt 1 view -0
 467              		.cfi_startproc
  96:fltk-1.3.4-1/jpeg/jcparam.c ****   /* Set up two quantization tables using the specified scaling */
 468              		.loc 1 96 1 is_stmt 0 view .LVU144
 469 0000 F30F1EFA 		endbr64
  98:fltk-1.3.4-1/jpeg/jcparam.c **** 		       cinfo->q_scale_factor[0], force_baseline);
 470              		.loc 1 98 3 is_stmt 1 view .LVU145
  96:fltk-1.3.4-1/jpeg/jcparam.c ****   /* Set up two quantization tables using the specified scaling */
 471              		.loc 1 96 1 is_stmt 0 view .LVU146
 472 0004 55       		pushq	%rbp
 473              		.cfi_def_cfa_offset 16
 474              		.cfi_offset 6, -16
  98:fltk-1.3.4-1/jpeg/jcparam.c **** 		       cinfo->q_scale_factor[0], force_baseline);
 475              		.loc 1 98 3 view .LVU147
 476 0005 4189F0   		movl	%esi, %r8d
  96:fltk-1.3.4-1/jpeg/jcparam.c ****   /* Set up two quantization tables using the specified scaling */
 477              		.loc 1 96 1 view .LVU148
 478 0008 4889FD   		movq	%rdi, %rbp
  98:fltk-1.3.4-1/jpeg/jcparam.c **** 		       cinfo->q_scale_factor[0], force_baseline);
 479              		.loc 1 98 3 view .LVU149
 480 000b 488D1500 		leaq	std_luminance_quant_tbl(%rip), %rdx
 480      000000
  96:fltk-1.3.4-1/jpeg/jcparam.c ****   /* Set up two quantization tables using the specified scaling */
 481              		.loc 1 96 1 view .LVU150
 482 0012 53       		pushq	%rbx
 483              		.cfi_def_cfa_offset 24
 484              		.cfi_offset 3, -24
 485 0013 89F3     		movl	%esi, %ebx
  98:fltk-1.3.4-1/jpeg/jcparam.c **** 		       cinfo->q_scale_factor[0], force_baseline);
 486              		.loc 1 98 3 view .LVU151
 487 0015 31F6     		xorl	%esi, %esi
 488              	.LVL51:
  96:fltk-1.3.4-1/jpeg/jcparam.c ****   /* Set up two quantization tables using the specified scaling */
 489              		.loc 1 96 1 view .LVU152
 490 0017 4883EC08 		subq	$8, %rsp
 491              		.cfi_def_cfa_offset 32
  98:fltk-1.3.4-1/jpeg/jcparam.c **** 		       cinfo->q_scale_factor[0], force_baseline);
 492              		.loc 1 98 3 view .LVU153
 493 001b 8B8F9000 		movl	144(%rdi), %ecx
 493      0000
 494 0021 E8000000 		call	jpeg_add_quant_table
 494      00
 495              	.LVL52:
 100:fltk-1.3.4-1/jpeg/jcparam.c **** 		       cinfo->q_scale_factor[1], force_baseline);
 496              		.loc 1 100 3 is_stmt 1 view .LVU154
 497 0026 4189D8   		movl	%ebx, %r8d
 498 0029 4889EF   		movq	%rbp, %rdi
 499 002c BE010000 		movl	$1, %esi
 499      00
 500 0031 8B8D9400 		movl	148(%rbp), %ecx
 500      0000
 102:fltk-1.3.4-1/jpeg/jcparam.c **** 
 501              		.loc 1 102 1 is_stmt 0 view .LVU155
 502 0037 4883C408 		addq	$8, %rsp
 503              		.cfi_def_cfa_offset 24
 100:fltk-1.3.4-1/jpeg/jcparam.c **** 		       cinfo->q_scale_factor[1], force_baseline);
 504              		.loc 1 100 3 view .LVU156
 505 003b 488D1500 		leaq	std_chrominance_quant_tbl(%rip), %rdx
 505      000000
 102:fltk-1.3.4-1/jpeg/jcparam.c **** 
 506              		.loc 1 102 1 view .LVU157
 507 0042 5B       		popq	%rbx
 508              		.cfi_def_cfa_offset 16
 509              	.LVL53:
 102:fltk-1.3.4-1/jpeg/jcparam.c **** 
 510              		.loc 1 102 1 view .LVU158
 511 0043 5D       		popq	%rbp
 512              		.cfi_def_cfa_offset 8
 513              	.LVL54:
 100:fltk-1.3.4-1/jpeg/jcparam.c **** 		       cinfo->q_scale_factor[1], force_baseline);
 514              		.loc 1 100 3 view .LVU159
 515 0044 E9000000 		jmp	jpeg_add_quant_table
 515      00
 516              	.LVL55:
 100:fltk-1.3.4-1/jpeg/jcparam.c **** 		       cinfo->q_scale_factor[1], force_baseline);
 517              		.loc 1 100 3 view .LVU160
 518              		.cfi_endproc
 519              	.LFE52:
 521              		.section	.text.jpeg_set_linear_quality,"ax",@progbits
 522              		.p2align 4
 523              		.globl	jpeg_set_linear_quality
 525              	jpeg_set_linear_quality:
 526              	.LVL56:
 527              	.LFB53:
 113:fltk-1.3.4-1/jpeg/jcparam.c ****   /* Set up two quantization tables using the specified scaling */
 528              		.loc 1 113 1 is_stmt 1 view -0
 529              		.cfi_startproc
 113:fltk-1.3.4-1/jpeg/jcparam.c ****   /* Set up two quantization tables using the specified scaling */
 530              		.loc 1 113 1 is_stmt 0 view .LVU162
 531 0000 F30F1EFA 		endbr64
 115:fltk-1.3.4-1/jpeg/jcparam.c **** 		       scale_factor, force_baseline);
 532              		.loc 1 115 3 is_stmt 1 view .LVU163
 113:fltk-1.3.4-1/jpeg/jcparam.c ****   /* Set up two quantization tables using the specified scaling */
 533              		.loc 1 113 1 is_stmt 0 view .LVU164
 534 0004 4154     		pushq	%r12
 535              		.cfi_def_cfa_offset 16
 536              		.cfi_offset 12, -16
 115:fltk-1.3.4-1/jpeg/jcparam.c **** 		       scale_factor, force_baseline);
 537              		.loc 1 115 3 view .LVU165
 538 0006 4189D0   		movl	%edx, %r8d
 113:fltk-1.3.4-1/jpeg/jcparam.c ****   /* Set up two quantization tables using the specified scaling */
 539              		.loc 1 113 1 view .LVU166
 540 0009 4189F4   		movl	%esi, %r12d
 115:fltk-1.3.4-1/jpeg/jcparam.c **** 		       scale_factor, force_baseline);
 541              		.loc 1 115 3 view .LVU167
 542 000c 89F1     		movl	%esi, %ecx
 113:fltk-1.3.4-1/jpeg/jcparam.c ****   /* Set up two quantization tables using the specified scaling */
 543              		.loc 1 113 1 view .LVU168
 544 000e 55       		pushq	%rbp
 545              		.cfi_def_cfa_offset 24
 546              		.cfi_offset 6, -24
 115:fltk-1.3.4-1/jpeg/jcparam.c **** 		       scale_factor, force_baseline);
 547              		.loc 1 115 3 view .LVU169
 548 000f 31F6     		xorl	%esi, %esi
 549              	.LVL57:
 113:fltk-1.3.4-1/jpeg/jcparam.c ****   /* Set up two quantization tables using the specified scaling */
 550              		.loc 1 113 1 view .LVU170
 551 0011 4889FD   		movq	%rdi, %rbp
 552 0014 53       		pushq	%rbx
 553              		.cfi_def_cfa_offset 32
 554              		.cfi_offset 3, -32
 113:fltk-1.3.4-1/jpeg/jcparam.c ****   /* Set up two quantization tables using the specified scaling */
 555              		.loc 1 113 1 view .LVU171
 556 0015 89D3     		movl	%edx, %ebx
 115:fltk-1.3.4-1/jpeg/jcparam.c **** 		       scale_factor, force_baseline);
 557              		.loc 1 115 3 view .LVU172
 558 0017 488D1500 		leaq	std_luminance_quant_tbl(%rip), %rdx
 558      000000
 559              	.LVL58:
 115:fltk-1.3.4-1/jpeg/jcparam.c **** 		       scale_factor, force_baseline);
 560              		.loc 1 115 3 view .LVU173
 561 001e E8000000 		call	jpeg_add_quant_table
 561      00
 562              	.LVL59:
 117:fltk-1.3.4-1/jpeg/jcparam.c **** 		       scale_factor, force_baseline);
 563              		.loc 1 117 3 is_stmt 1 view .LVU174
 564 0023 4189D8   		movl	%ebx, %r8d
 565 0026 4489E1   		movl	%r12d, %ecx
 119:fltk-1.3.4-1/jpeg/jcparam.c **** 
 566              		.loc 1 119 1 is_stmt 0 view .LVU175
 567 0029 5B       		popq	%rbx
 568              		.cfi_def_cfa_offset 24
 569              	.LVL60:
 117:fltk-1.3.4-1/jpeg/jcparam.c **** 		       scale_factor, force_baseline);
 570              		.loc 1 117 3 view .LVU176
 571 002a 4889EF   		movq	%rbp, %rdi
 572 002d 488D1500 		leaq	std_chrominance_quant_tbl(%rip), %rdx
 572      000000
 119:fltk-1.3.4-1/jpeg/jcparam.c **** 
 573              		.loc 1 119 1 view .LVU177
 574 0034 5D       		popq	%rbp
 575              		.cfi_def_cfa_offset 16
 576              	.LVL61:
 117:fltk-1.3.4-1/jpeg/jcparam.c **** 		       scale_factor, force_baseline);
 577              		.loc 1 117 3 view .LVU178
 578 0035 BE010000 		movl	$1, %esi
 578      00
 119:fltk-1.3.4-1/jpeg/jcparam.c **** 
 579              		.loc 1 119 1 view .LVU179
 580 003a 415C     		popq	%r12
 581              		.cfi_def_cfa_offset 8
 582              	.LVL62:
 117:fltk-1.3.4-1/jpeg/jcparam.c **** 		       scale_factor, force_baseline);
 583              		.loc 1 117 3 view .LVU180
 584 003c E9000000 		jmp	jpeg_add_quant_table
 584      00
 585              	.LVL63:
 117:fltk-1.3.4-1/jpeg/jcparam.c **** 		       scale_factor, force_baseline);
 586              		.loc 1 117 3 view .LVU181
 587              		.cfi_endproc
 588              	.LFE53:
 590              		.section	.text.jpeg_quality_scaling,"ax",@progbits
 591              		.p2align 4
 592              		.globl	jpeg_quality_scaling
 594              	jpeg_quality_scaling:
 595              	.LVL64:
 596              	.LFB54:
 128:fltk-1.3.4-1/jpeg/jcparam.c ****   /* Safety limit on quality factor.  Convert 0 to 1 to avoid zero divide. */
 597              		.loc 1 128 1 is_stmt 1 view -0
 598              		.cfi_startproc
 128:fltk-1.3.4-1/jpeg/jcparam.c ****   /* Safety limit on quality factor.  Convert 0 to 1 to avoid zero divide. */
 599              		.loc 1 128 1 is_stmt 0 view .LVU183
 600 0000 F30F1EFA 		endbr64
 130:fltk-1.3.4-1/jpeg/jcparam.c ****   if (quality > 100) quality = 100;
 601              		.loc 1 130 3 is_stmt 1 view .LVU184
 602 0004 B8881300 		movl	$5000, %eax
 602      00
 130:fltk-1.3.4-1/jpeg/jcparam.c ****   if (quality > 100) quality = 100;
 603              		.loc 1 130 6 is_stmt 0 view .LVU185
 604 0009 85FF     		testl	%edi, %edi
 605 000b 7E23     		jle	.L38
 131:fltk-1.3.4-1/jpeg/jcparam.c **** 
 606              		.loc 1 131 3 is_stmt 1 view .LVU186
 607 000d 31C0     		xorl	%eax, %eax
 131:fltk-1.3.4-1/jpeg/jcparam.c **** 
 608              		.loc 1 131 6 is_stmt 0 view .LVU187
 609 000f 83FF64   		cmpl	$100, %edi
 610 0012 7F1C     		jg	.L38
 139:fltk-1.3.4-1/jpeg/jcparam.c ****     quality = 5000 / quality;
 611              		.loc 1 139 3 is_stmt 1 view .LVU188
 139:fltk-1.3.4-1/jpeg/jcparam.c ****     quality = 5000 / quality;
 612              		.loc 1 139 6 is_stmt 0 view .LVU189
 613 0014 83FF31   		cmpl	$49, %edi
 614 0017 7E0F     		jle	.L41
 615 0019 B8640000 		movl	$100, %eax
 615      00
 616 001e 29F8     		subl	%edi, %eax
 617 0020 01C0     		addl	%eax, %eax
 618 0022 C3       		ret
 619              		.p2align 4,,10
 620 0023 0F1F4400 		.p2align 3
 620      00
 621              	.L41:
 622 0028 B8881300 		movl	$5000, %eax
 622      00
 623 002d 99       		cltd
 624 002e F7FF     		idivl	%edi
 625              	.L38:
 145:fltk-1.3.4-1/jpeg/jcparam.c **** 
 626              		.loc 1 145 1 view .LVU190
 627 0030 C3       		ret
 628              		.cfi_endproc
 629              	.LFE54:
 631              		.section	.text.jpeg_set_quality,"ax",@progbits
 632              		.p2align 4
 633              		.globl	jpeg_set_quality
 635              	jpeg_set_quality:
 636              	.LVL65:
 637              	.LFB55:
 155:fltk-1.3.4-1/jpeg/jcparam.c ****   /* Convert user 0-100 rating to percentage scaling */
 638              		.loc 1 155 1 is_stmt 1 view -0
 639              		.cfi_startproc
 155:fltk-1.3.4-1/jpeg/jcparam.c ****   /* Convert user 0-100 rating to percentage scaling */
 640              		.loc 1 155 1 is_stmt 0 view .LVU192
 641 0000 F30F1EFA 		endbr64
 157:fltk-1.3.4-1/jpeg/jcparam.c **** 
 642              		.loc 1 157 3 is_stmt 1 view .LVU193
 155:fltk-1.3.4-1/jpeg/jcparam.c ****   /* Convert user 0-100 rating to percentage scaling */
 643              		.loc 1 155 1 is_stmt 0 view .LVU194
 644 0004 89F1     		movl	%esi, %ecx
 645              	.LVL66:
 646              	.LBB58:
 647              	.LBI58:
 123:fltk-1.3.4-1/jpeg/jcparam.c **** /* Convert a user-specified quality rating to a percentage scaling factor
 648              		.loc 1 123 1 is_stmt 1 view .LVU195
 649              	.LBB59:
 130:fltk-1.3.4-1/jpeg/jcparam.c ****   if (quality > 100) quality = 100;
 650              		.loc 1 130 3 view .LVU196
 651              	.LBE59:
 652              	.LBE58:
 155:fltk-1.3.4-1/jpeg/jcparam.c ****   /* Convert user 0-100 rating to percentage scaling */
 653              		.loc 1 155 1 is_stmt 0 view .LVU197
 654 0006 4189D0   		movl	%edx, %r8d
 655              	.LBB64:
 656              	.LBB60:
 657 0009 BE881300 		movl	$5000, %esi
 657      00
 658              	.LVL67:
 130:fltk-1.3.4-1/jpeg/jcparam.c ****   if (quality > 100) quality = 100;
 659              		.loc 1 130 6 view .LVU198
 660 000e 85C9     		testl	%ecx, %ecx
 661 0010 7E07     		jle	.L49
 131:fltk-1.3.4-1/jpeg/jcparam.c **** 
 662              		.loc 1 131 3 is_stmt 1 view .LVU199
 663 0012 31F6     		xorl	%esi, %esi
 131:fltk-1.3.4-1/jpeg/jcparam.c **** 
 664              		.loc 1 131 6 is_stmt 0 view .LVU200
 665 0014 83F964   		cmpl	$100, %ecx
 666 0017 7E0F     		jle	.L52
 667              	.L49:
 668              	.LVL68:
 144:fltk-1.3.4-1/jpeg/jcparam.c **** }
 669              		.loc 1 144 3 is_stmt 1 view .LVU201
 144:fltk-1.3.4-1/jpeg/jcparam.c **** }
 670              		.loc 1 144 3 is_stmt 0 view .LVU202
 671              	.LBE60:
 672              	.LBE64:
 160:fltk-1.3.4-1/jpeg/jcparam.c **** }
 673              		.loc 1 160 3 is_stmt 1 view .LVU203
 674 0019 4489C2   		movl	%r8d, %edx
 675              	.LVL69:
 160:fltk-1.3.4-1/jpeg/jcparam.c **** }
 676              		.loc 1 160 3 is_stmt 0 view .LVU204
 677 001c E9000000 		jmp	jpeg_set_linear_quality
 677      00
 678              	.LVL70:
 679              		.p2align 4,,10
 680 0021 0F1F8000 		.p2align 3
 680      000000
 681              	.L52:
 682              	.LBB65:
 683              	.LBB61:
 139:fltk-1.3.4-1/jpeg/jcparam.c ****     quality = 5000 / quality;
 684              		.loc 1 139 3 is_stmt 1 view .LVU205
 139:fltk-1.3.4-1/jpeg/jcparam.c ****     quality = 5000 / quality;
 685              		.loc 1 139 6 is_stmt 0 view .LVU206
 686 0028 83F931   		cmpl	$49, %ecx
 687 002b 7F13     		jg	.L53
 688 002d B8881300 		movl	$5000, %eax
 688      00
 689 0032 99       		cltd
 690              	.LVL71:
 139:fltk-1.3.4-1/jpeg/jcparam.c ****     quality = 5000 / quality;
 691              		.loc 1 139 6 view .LVU207
 692 0033 F7F9     		idivl	%ecx
 693              	.LBE61:
 694              	.LBE65:
 160:fltk-1.3.4-1/jpeg/jcparam.c **** }
 695              		.loc 1 160 3 view .LVU208
 696 0035 4489C2   		movl	%r8d, %edx
 697 0038 89C6     		movl	%eax, %esi
 698              	.LVL72:
 699              	.LBB66:
 700              	.LBB62:
 144:fltk-1.3.4-1/jpeg/jcparam.c **** }
 701              		.loc 1 144 3 is_stmt 1 view .LVU209
 144:fltk-1.3.4-1/jpeg/jcparam.c **** }
 702              		.loc 1 144 3 is_stmt 0 view .LVU210
 703              	.LBE62:
 704              	.LBE66:
 160:fltk-1.3.4-1/jpeg/jcparam.c **** }
 705              		.loc 1 160 3 is_stmt 1 view .LVU211
 706 003a E9000000 		jmp	jpeg_set_linear_quality
 706      00
 707              	.LVL73:
 708 003f 90       		.p2align 4,,10
 709              		.p2align 3
 710              	.L53:
 160:fltk-1.3.4-1/jpeg/jcparam.c **** }
 711              		.loc 1 160 3 is_stmt 0 view .LVU212
 712 0040 BE640000 		movl	$100, %esi
 712      00
 713 0045 4489C2   		movl	%r8d, %edx
 714              	.LVL74:
 160:fltk-1.3.4-1/jpeg/jcparam.c **** }
 715              		.loc 1 160 3 view .LVU213
 716 0048 29CE     		subl	%ecx, %esi
 717 004a 01F6     		addl	%esi, %esi
 718              	.LVL75:
 719              	.LBB67:
 720              	.LBB63:
 144:fltk-1.3.4-1/jpeg/jcparam.c **** }
 721              		.loc 1 144 3 is_stmt 1 view .LVU214
 144:fltk-1.3.4-1/jpeg/jcparam.c **** }
 722              		.loc 1 144 3 is_stmt 0 view .LVU215
 723              	.LBE63:
 724              	.LBE67:
 160:fltk-1.3.4-1/jpeg/jcparam.c **** }
 725              		.loc 1 160 3 is_stmt 1 view .LVU216
 726 004c E9000000 		jmp	jpeg_set_linear_quality
 726      00
 727              	.LVL76:
 160:fltk-1.3.4-1/jpeg/jcparam.c **** }
 728              		.loc 1 160 3 is_stmt 0 view .LVU217
 729              		.cfi_endproc
 730              	.LFE55:
 732              		.section	.text.jpeg_set_colorspace,"ax",@progbits
 733              		.p2align 4
 734              		.globl	jpeg_set_colorspace
 736              	jpeg_set_colorspace:
 737              	.LVL77:
 738              	.LFB60:
 426:fltk-1.3.4-1/jpeg/jcparam.c ****   jpeg_component_info * compptr;
 739              		.loc 1 426 1 is_stmt 1 view -0
 740              		.cfi_startproc
 426:fltk-1.3.4-1/jpeg/jcparam.c ****   jpeg_component_info * compptr;
 741              		.loc 1 426 1 is_stmt 0 view .LVU219
 742 0000 F30F1EFA 		endbr64
 427:fltk-1.3.4-1/jpeg/jcparam.c ****   int ci;
 743              		.loc 1 427 3 is_stmt 1 view .LVU220
 428:fltk-1.3.4-1/jpeg/jcparam.c **** 
 744              		.loc 1 428 3 view .LVU221
 440:fltk-1.3.4-1/jpeg/jcparam.c ****     ERREXIT1(cinfo, JERR_BAD_STATE, cinfo->global_state);
 745              		.loc 1 440 3 view .LVU222
 426:fltk-1.3.4-1/jpeg/jcparam.c ****   jpeg_component_info * compptr;
 746              		.loc 1 426 1 is_stmt 0 view .LVU223
 747 0004 55       		pushq	%rbp
 748              		.cfi_def_cfa_offset 16
 749              		.cfi_offset 6, -16
 750 0005 4889FD   		movq	%rdi, %rbp
 751 0008 53       		pushq	%rbx
 752              		.cfi_def_cfa_offset 24
 753              		.cfi_offset 3, -24
 754 0009 89F3     		movl	%esi, %ebx
 755 000b 4883EC08 		subq	$8, %rsp
 756              		.cfi_def_cfa_offset 32
 440:fltk-1.3.4-1/jpeg/jcparam.c ****     ERREXIT1(cinfo, JERR_BAD_STATE, cinfo->global_state);
 757              		.loc 1 440 6 view .LVU224
 758 000f 837F2464 		cmpl	$100, 36(%rdi)
 759 0013 7418     		je	.L55
 441:fltk-1.3.4-1/jpeg/jcparam.c **** 
 760              		.loc 1 441 5 is_stmt 1 view .LVU225
 761 0015 488B07   		movq	(%rdi), %rax
 762 0018 C7402815 		movl	$21, 40(%rax)
 762      000000
 763 001f 488B07   		movq	(%rdi), %rax
 764 0022 8B5724   		movl	36(%rdi), %edx
 765 0025 89502C   		movl	%edx, 44(%rax)
 766 0028 488B07   		movq	(%rdi), %rax
 767 002b FF10     		call	*(%rax)
 768              	.LVL78:
 769              	.L55:
 447:fltk-1.3.4-1/jpeg/jcparam.c **** 
 770              		.loc 1 447 3 view .LVU226
 447:fltk-1.3.4-1/jpeg/jcparam.c **** 
 771              		.loc 1 447 27 is_stmt 0 view .LVU227
 772 002d 895D60   		movl	%ebx, 96(%rbp)
 449:fltk-1.3.4-1/jpeg/jcparam.c ****   cinfo->write_Adobe_marker = FALSE; /* write no Adobe marker by default */
 773              		.loc 1 449 3 is_stmt 1 view .LVU228
 449:fltk-1.3.4-1/jpeg/jcparam.c ****   cinfo->write_Adobe_marker = FALSE; /* write no Adobe marker by default */
 774              		.loc 1 449 28 is_stmt 0 view .LVU229
 775 0030 C7854401 		movl	$0, 324(%rbp)
 775      00000000 
 775      0000
 450:fltk-1.3.4-1/jpeg/jcparam.c **** 
 776              		.loc 1 450 3 is_stmt 1 view .LVU230
 450:fltk-1.3.4-1/jpeg/jcparam.c **** 
 777              		.loc 1 450 29 is_stmt 0 view .LVU231
 778 003a C7855001 		movl	$0, 336(%rbp)
 778      00000000 
 778      0000
 452:fltk-1.3.4-1/jpeg/jcparam.c ****   case JCS_UNKNOWN:
 779              		.loc 1 452 3 is_stmt 1 view .LVU232
 780 0044 83FB07   		cmpl	$7, %ebx
 781 0047 0F879E04 		ja	.L56
 781      0000
 782 004d 488D1500 		leaq	.L58(%rip), %rdx
 782      000000
 783 0054 4863049A 		movslq	(%rdx,%rbx,4), %rax
 784 0058 4801D0   		addq	%rdx, %rax
 785 005b 3EFFE0   		notrack jmp	*%rax
 786              		.section	.rodata.jpeg_set_colorspace,"a",@progbits
 787              		.align 4
 788              		.align 4
 789              	.L58:
 790 0000 00000000 		.long	.L65-.L58
 791 0004 00000000 		.long	.L64-.L58
 792 0008 00000000 		.long	.L63-.L58
 793 000c 00000000 		.long	.L62-.L58
 794 0010 00000000 		.long	.L61-.L58
 795 0014 00000000 		.long	.L60-.L58
 796 0018 00000000 		.long	.L59-.L58
 797 001c 00000000 		.long	.L57-.L58
 798              		.section	.text.jpeg_set_colorspace
 799 005e 6690     		.p2align 4,,10
 800              		.p2align 3
 801              	.L59:
 505:fltk-1.3.4-1/jpeg/jcparam.c ****     cinfo->JFIF_major_version = 2;   /* Set JFIF major version = 2 */
 802              		.loc 1 505 5 view .LVU233
 509:fltk-1.3.4-1/jpeg/jcparam.c **** 		cinfo->color_transform == JCT_SUBTRACT_GREEN ? 1 : 0,
 803              		.loc 1 509 5 is_stmt 0 view .LVU234
 804 0060 488B4568 		movq	104(%rbp), %rax
 506:fltk-1.3.4-1/jpeg/jcparam.c ****     cinfo->num_components = 3;
 805              		.loc 1 506 31 view .LVU235
 806 0064 C6854801 		movb	$2, 328(%rbp)
 806      000002
 509:fltk-1.3.4-1/jpeg/jcparam.c **** 		cinfo->color_transform == JCT_SUBTRACT_GREEN ? 1 : 0,
 807              		.loc 1 509 5 view .LVU236
 808 006b 31C9     		xorl	%ecx, %ecx
 809 006d 48BA0100 		movabsq	$4294967297, %rdx
 809      00000100 
 809      0000
 505:fltk-1.3.4-1/jpeg/jcparam.c ****     cinfo->JFIF_major_version = 2;   /* Set JFIF major version = 2 */
 810              		.loc 1 505 30 view .LVU237
 811 0077 C7854401 		movl	$1, 324(%rbp)
 811      00000100 
 811      0000
 506:fltk-1.3.4-1/jpeg/jcparam.c ****     cinfo->num_components = 3;
 812              		.loc 1 506 5 is_stmt 1 view .LVU238
 507:fltk-1.3.4-1/jpeg/jcparam.c ****     /* Add offset 0x20 to the normal R/G/B component IDs */
 813              		.loc 1 507 5 view .LVU239
 507:fltk-1.3.4-1/jpeg/jcparam.c ****     /* Add offset 0x20 to the normal R/G/B component IDs */
 814              		.loc 1 507 27 is_stmt 0 view .LVU240
 815 0081 C7455C03 		movl	$3, 92(%rbp)
 815      000000
 509:fltk-1.3.4-1/jpeg/jcparam.c **** 		cinfo->color_transform == JCT_SUBTRACT_GREEN ? 1 : 0,
 816              		.loc 1 509 5 is_stmt 1 view .LVU241
 817              	.LVL79:
 509:fltk-1.3.4-1/jpeg/jcparam.c **** 		cinfo->color_transform == JCT_SUBTRACT_GREEN ? 1 : 0,
 818              		.loc 1 509 5 is_stmt 0 view .LVU242
 819 0088 C7007200 		movl	$114, (%rax)
 819      0000
 820 008e 48895008 		movq	%rdx, 8(%rax)
 821 0092 C7401000 		movl	$0, 16(%rax)
 821      000000
 822 0099 83BD5401 		cmpl	$1, 340(%rbp)
 822      000001
 823 00a0 0F94C1   		sete	%cl
 824 00a3 894814   		movl	%ecx, 20(%rax)
 825 00a6 31C9     		xorl	%ecx, %ecx
 826 00a8 83BD5401 		cmpl	$1, 340(%rbp)
 826      000001
 827 00af 0F94C1   		sete	%cl
 828 00b2 894818   		movl	%ecx, 24(%rax)
 512:fltk-1.3.4-1/jpeg/jcparam.c ****     SET_COMP(2, 0x62 /* 'b' */, 1,1, 0,
 829              		.loc 1 512 5 is_stmt 1 view .LVU243
 830 00b5 488B4568 		movq	104(%rbp), %rax
 831              	.LVL80:
 512:fltk-1.3.4-1/jpeg/jcparam.c ****     SET_COMP(2, 0x62 /* 'b' */, 1,1, 0,
 832              		.loc 1 512 5 is_stmt 0 view .LVU244
 833 00b9 C7406067 		movl	$103, 96(%rax)
 833      000000
 834 00c0 48895068 		movq	%rdx, 104(%rax)
 835 00c4 48C74070 		movq	$0, 112(%rax)
 835      00000000 
 836 00cc C7407800 		movl	$0, 120(%rax)
 836      000000
 513:fltk-1.3.4-1/jpeg/jcparam.c **** 		cinfo->color_transform == JCT_SUBTRACT_GREEN ? 1 : 0,
 837              		.loc 1 513 5 is_stmt 1 view .LVU245
 838 00d3 488B4568 		movq	104(%rbp), %rax
 839              	.LVL81:
 513:fltk-1.3.4-1/jpeg/jcparam.c **** 		cinfo->color_transform == JCT_SUBTRACT_GREEN ? 1 : 0,
 840              		.loc 1 513 5 is_stmt 0 view .LVU246
 841 00d7 C780C000 		movl	$98, 192(%rax)
 841      00006200 
 841      0000
 842              	.LVL82:
 843              	.L72:
 513:fltk-1.3.4-1/jpeg/jcparam.c **** 		cinfo->color_transform == JCT_SUBTRACT_GREEN ? 1 : 0,
 844              		.loc 1 513 5 view .LVU247
 845 00e1 488990C8 		movq	%rdx, 200(%rax)
 845      000000
 846 00e8 31D2     		xorl	%edx, %edx
 847 00ea C780D000 		movl	$0, 208(%rax)
 847      00000000 
 847      0000
 848 00f4 83BD5401 		cmpl	$1, 340(%rbp)
 848      000001
 849 00fb 0F94C2   		sete	%dl
 850 00fe 8990D400 		movl	%edx, 212(%rax)
 850      0000
 851 0104 31D2     		xorl	%edx, %edx
 852 0106 83BD5401 		cmpl	$1, 340(%rbp)
 852      000001
 853 010d 0F94C2   		sete	%dl
 854 0110 8990D800 		movl	%edx, 216(%rax)
 854      0000
 516:fltk-1.3.4-1/jpeg/jcparam.c ****   case JCS_BG_YCC:
 855              		.loc 1 516 5 is_stmt 1 view .LVU248
 856              	.L54:
 530:fltk-1.3.4-1/jpeg/jcparam.c **** 
 857              		.loc 1 530 1 is_stmt 0 view .LVU249
 858 0116 4883C408 		addq	$8, %rsp
 859              		.cfi_remember_state
 860              		.cfi_def_cfa_offset 24
 861 011a 5B       		popq	%rbx
 862              		.cfi_def_cfa_offset 16
 863              	.LVL83:
 530:fltk-1.3.4-1/jpeg/jcparam.c **** 
 864              		.loc 1 530 1 view .LVU250
 865 011b 5D       		popq	%rbp
 866              		.cfi_def_cfa_offset 8
 867              	.LVL84:
 530:fltk-1.3.4-1/jpeg/jcparam.c **** 
 868              		.loc 1 530 1 view .LVU251
 869 011c C3       		ret
 870              	.LVL85:
 871 011d 0F1F00   		.p2align 4,,10
 872              		.p2align 3
 873              	.L57:
 874              		.cfi_restore_state
 518:fltk-1.3.4-1/jpeg/jcparam.c ****     cinfo->JFIF_major_version = 2;   /* Set JFIF major version = 2 */
 875              		.loc 1 518 5 is_stmt 1 view .LVU252
 523:fltk-1.3.4-1/jpeg/jcparam.c ****     SET_COMP(1, 0x22, 1,1, 1, 1,1);
 876              		.loc 1 523 5 is_stmt 0 view .LVU253
 877 0120 488B4568 		movq	104(%rbp), %rax
 519:fltk-1.3.4-1/jpeg/jcparam.c ****     cinfo->num_components = 3;
 878              		.loc 1 519 31 view .LVU254
 879 0124 C6854801 		movb	$2, 328(%rbp)
 879      000002
 523:fltk-1.3.4-1/jpeg/jcparam.c ****     SET_COMP(1, 0x22, 1,1, 1, 1,1);
 880              		.loc 1 523 5 view .LVU255
 881 012b 48B90200 		movabsq	$8589934594, %rcx
 881      00000200 
 881      0000
 524:fltk-1.3.4-1/jpeg/jcparam.c ****     SET_COMP(2, 0x23, 1,1, 1, 1,1);
 882              		.loc 1 524 5 view .LVU256
 883 0135 48BA0100 		movabsq	$4294967297, %rdx
 883      00000100 
 883      0000
 518:fltk-1.3.4-1/jpeg/jcparam.c ****     cinfo->JFIF_major_version = 2;   /* Set JFIF major version = 2 */
 884              		.loc 1 518 30 view .LVU257
 885 013f C7854401 		movl	$1, 324(%rbp)
 885      00000100 
 885      0000
 519:fltk-1.3.4-1/jpeg/jcparam.c ****     cinfo->num_components = 3;
 886              		.loc 1 519 5 is_stmt 1 view .LVU258
 520:fltk-1.3.4-1/jpeg/jcparam.c ****     /* Add offset 0x20 to the normal Cb/Cr component IDs */
 887              		.loc 1 520 5 view .LVU259
 520:fltk-1.3.4-1/jpeg/jcparam.c ****     /* Add offset 0x20 to the normal Cb/Cr component IDs */
 888              		.loc 1 520 27 is_stmt 0 view .LVU260
 889 0149 C7455C03 		movl	$3, 92(%rbp)
 889      000000
 523:fltk-1.3.4-1/jpeg/jcparam.c ****     SET_COMP(1, 0x22, 1,1, 1, 1,1);
 890              		.loc 1 523 5 is_stmt 1 view .LVU261
 891              	.LVL86:
 523:fltk-1.3.4-1/jpeg/jcparam.c ****     SET_COMP(1, 0x22, 1,1, 1, 1,1);
 892              		.loc 1 523 5 is_stmt 0 view .LVU262
 893 0150 C7000100 		movl	$1, (%rax)
 893      0000
 894 0156 48894808 		movq	%rcx, 8(%rax)
 895 015a 48C74010 		movq	$0, 16(%rax)
 895      00000000 
 896 0162 C7401800 		movl	$0, 24(%rax)
 896      000000
 524:fltk-1.3.4-1/jpeg/jcparam.c ****     SET_COMP(2, 0x23, 1,1, 1, 1,1);
 897              		.loc 1 524 5 is_stmt 1 view .LVU263
 898 0169 488B4568 		movq	104(%rbp), %rax
 899              	.LVL87:
 524:fltk-1.3.4-1/jpeg/jcparam.c ****     SET_COMP(2, 0x23, 1,1, 1, 1,1);
 900              		.loc 1 524 5 is_stmt 0 view .LVU264
 901 016d C7406022 		movl	$34, 96(%rax)
 901      000000
 902 0174 48895068 		movq	%rdx, 104(%rax)
 903 0178 48895070 		movq	%rdx, 112(%rax)
 904 017c C7407801 		movl	$1, 120(%rax)
 904      000000
 525:fltk-1.3.4-1/jpeg/jcparam.c ****     break;
 905              		.loc 1 525 5 is_stmt 1 view .LVU265
 906 0183 488B4568 		movq	104(%rbp), %rax
 907              	.LVL88:
 525:fltk-1.3.4-1/jpeg/jcparam.c ****     break;
 908              		.loc 1 525 5 is_stmt 0 view .LVU266
 909 0187 C780C000 		movl	$35, 192(%rax)
 909      00002300 
 909      0000
 910 0191 488990C8 		movq	%rdx, 200(%rax)
 910      000000
 911 0198 488990D0 		movq	%rdx, 208(%rax)
 911      000000
 912 019f C780D800 		movl	$1, 216(%rax)
 912      00000100 
 912      0000
 526:fltk-1.3.4-1/jpeg/jcparam.c ****   default:
 913              		.loc 1 526 5 is_stmt 1 view .LVU267
 530:fltk-1.3.4-1/jpeg/jcparam.c **** 
 914              		.loc 1 530 1 is_stmt 0 view .LVU268
 915 01a9 4883C408 		addq	$8, %rsp
 916              		.cfi_remember_state
 917              		.cfi_def_cfa_offset 24
 918 01ad 5B       		popq	%rbx
 919              		.cfi_def_cfa_offset 16
 920 01ae 5D       		popq	%rbp
 921              		.cfi_def_cfa_offset 8
 922              	.LVL89:
 530:fltk-1.3.4-1/jpeg/jcparam.c **** 
 923              		.loc 1 530 1 view .LVU269
 924 01af C3       		ret
 925              	.LVL90:
 926              		.p2align 4,,10
 927              		.p2align 3
 928              	.L65:
 929              		.cfi_restore_state
 454:fltk-1.3.4-1/jpeg/jcparam.c ****     if (cinfo->num_components < 1 || cinfo->num_components > MAX_COMPONENTS)
 930              		.loc 1 454 5 is_stmt 1 view .LVU270
 454:fltk-1.3.4-1/jpeg/jcparam.c ****     if (cinfo->num_components < 1 || cinfo->num_components > MAX_COMPONENTS)
 931              		.loc 1 454 34 is_stmt 0 view .LVU271
 932 01b0 8B4538   		movl	56(%rbp), %eax
 454:fltk-1.3.4-1/jpeg/jcparam.c ****     if (cinfo->num_components < 1 || cinfo->num_components > MAX_COMPONENTS)
 933              		.loc 1 454 27 view .LVU272
 934 01b3 89455C   		movl	%eax, 92(%rbp)
 455:fltk-1.3.4-1/jpeg/jcparam.c ****       ERREXIT2(cinfo, JERR_COMPONENT_COUNT, cinfo->num_components,
 935              		.loc 1 455 5 is_stmt 1 view .LVU273
 455:fltk-1.3.4-1/jpeg/jcparam.c ****       ERREXIT2(cinfo, JERR_COMPONENT_COUNT, cinfo->num_components,
 936              		.loc 1 455 35 is_stmt 0 view .LVU274
 937 01b6 83E801   		subl	$1, %eax
 455:fltk-1.3.4-1/jpeg/jcparam.c ****       ERREXIT2(cinfo, JERR_COMPONENT_COUNT, cinfo->num_components,
 938              		.loc 1 455 8 view .LVU275
 939 01b9 83F809   		cmpl	$9, %eax
 940 01bc 7634     		jbe	.L66
 456:fltk-1.3.4-1/jpeg/jcparam.c **** 	       MAX_COMPONENTS);
 941              		.loc 1 456 7 is_stmt 1 view .LVU276
 942 01be 488B4500 		movq	0(%rbp), %rax
 943 01c2 4889EF   		movq	%rbp, %rdi
 944 01c5 C740281B 		movl	$27, 40(%rax)
 944      000000
 945 01cc 488B4500 		movq	0(%rbp), %rax
 946 01d0 8B555C   		movl	92(%rbp), %edx
 947 01d3 89502C   		movl	%edx, 44(%rax)
 948 01d6 488B4500 		movq	0(%rbp), %rax
 949 01da C740300A 		movl	$10, 48(%rax)
 949      000000
 950 01e1 488B4500 		movq	0(%rbp), %rax
 951 01e5 FF10     		call	*(%rax)
 952              	.LVL91:
 458:fltk-1.3.4-1/jpeg/jcparam.c ****       SET_COMP(ci, ci, 1,1, 0, 0,0);
 953              		.loc 1 458 18 view .LVU277
 458:fltk-1.3.4-1/jpeg/jcparam.c ****       SET_COMP(ci, ci, 1,1, 0, 0,0);
 954              		.loc 1 458 5 is_stmt 0 view .LVU278
 955 01e7 8B455C   		movl	92(%rbp), %eax
 956 01ea 85C0     		testl	%eax, %eax
 957 01ec 0F8E24FF 		jle	.L54
 957      FFFF
 958              	.LVL92:
 959              	.L66:
 459:fltk-1.3.4-1/jpeg/jcparam.c ****     }
 960              		.loc 1 459 7 discriminator 3 view .LVU279
 961 01f2 48BE0100 		movabsq	$4294967297, %rsi
 961      00000100 
 961      0000
 426:fltk-1.3.4-1/jpeg/jcparam.c ****   jpeg_component_info * compptr;
 962              		.loc 1 426 1 discriminator 3 view .LVU280
 963 01fc 31C9     		xorl	%ecx, %ecx
 964 01fe 31D2     		xorl	%edx, %edx
 965              		.p2align 4,,10
 966              		.p2align 3
 967              	.L68:
 968              	.LVL93:
 459:fltk-1.3.4-1/jpeg/jcparam.c ****     }
 969              		.loc 1 459 7 is_stmt 1 discriminator 3 view .LVU281
 970 0200 488B4568 		movq	104(%rbp), %rax
 971 0204 4801C8   		addq	%rcx, %rax
 972              	.LVL94:
 459:fltk-1.3.4-1/jpeg/jcparam.c ****     }
 973              		.loc 1 459 7 is_stmt 0 discriminator 3 view .LVU282
 974 0207 4883C160 		addq	$96, %rcx
 975 020b 8910     		movl	%edx, (%rax)
 458:fltk-1.3.4-1/jpeg/jcparam.c ****       SET_COMP(ci, ci, 1,1, 0, 0,0);
 976              		.loc 1 458 48 discriminator 3 view .LVU283
 977 020d 83C201   		addl	$1, %edx
 978              	.LVL95:
 459:fltk-1.3.4-1/jpeg/jcparam.c ****     }
 979              		.loc 1 459 7 discriminator 3 view .LVU284
 980 0210 48897008 		movq	%rsi, 8(%rax)
 981 0214 48C74010 		movq	$0, 16(%rax)
 981      00000000 
 982 021c C7401800 		movl	$0, 24(%rax)
 982      000000
 458:fltk-1.3.4-1/jpeg/jcparam.c ****       SET_COMP(ci, ci, 1,1, 0, 0,0);
 983              		.loc 1 458 46 is_stmt 1 discriminator 3 view .LVU285
 984              	.LVL96:
 458:fltk-1.3.4-1/jpeg/jcparam.c ****       SET_COMP(ci, ci, 1,1, 0, 0,0);
 985              		.loc 1 458 18 discriminator 3 view .LVU286
 458:fltk-1.3.4-1/jpeg/jcparam.c ****       SET_COMP(ci, ci, 1,1, 0, 0,0);
 986              		.loc 1 458 5 is_stmt 0 discriminator 3 view .LVU287
 987 0223 39555C   		cmpl	%edx, 92(%rbp)
 988 0226 7FD8     		jg	.L68
 989 0228 E9E9FEFF 		jmp	.L54
 989      FF
 990              	.LVL97:
 991 022d 0F1F00   		.p2align 4,,10
 992              		.p2align 3
 993              	.L64:
 463:fltk-1.3.4-1/jpeg/jcparam.c ****     cinfo->num_components = 1;
 994              		.loc 1 463 5 is_stmt 1 view .LVU288
 466:fltk-1.3.4-1/jpeg/jcparam.c ****     break;
 995              		.loc 1 466 5 is_stmt 0 view .LVU289
 996 0230 488B4568 		movq	104(%rbp), %rax
 464:fltk-1.3.4-1/jpeg/jcparam.c ****     /* JFIF specifies component ID 1 */
 997              		.loc 1 464 27 view .LVU290
 998 0234 C7455C01 		movl	$1, 92(%rbp)
 998      000000
 466:fltk-1.3.4-1/jpeg/jcparam.c ****     break;
 999              		.loc 1 466 5 view .LVU291
 1000 023b 48B90100 		movabsq	$4294967297, %rcx
 1000      00000100 
 1000      0000
 463:fltk-1.3.4-1/jpeg/jcparam.c ****     cinfo->num_components = 1;
 1001              		.loc 1 463 30 view .LVU292
 1002 0245 C7854401 		movl	$1, 324(%rbp)
 1002      00000100 
 1002      0000
 464:fltk-1.3.4-1/jpeg/jcparam.c ****     /* JFIF specifies component ID 1 */
 1003              		.loc 1 464 5 is_stmt 1 view .LVU293
 466:fltk-1.3.4-1/jpeg/jcparam.c ****     break;
 1004              		.loc 1 466 5 view .LVU294
 1005              	.LVL98:
 466:fltk-1.3.4-1/jpeg/jcparam.c ****     break;
 1006              		.loc 1 466 5 is_stmt 0 view .LVU295
 1007 024f C7000100 		movl	$1, (%rax)
 1007      0000
 1008 0255 48894808 		movq	%rcx, 8(%rax)
 1009 0259 48C74010 		movq	$0, 16(%rax)
 1009      00000000 
 1010 0261 C7401800 		movl	$0, 24(%rax)
 1010      000000
 467:fltk-1.3.4-1/jpeg/jcparam.c ****   case JCS_RGB:
 1011              		.loc 1 467 5 is_stmt 1 view .LVU296
 530:fltk-1.3.4-1/jpeg/jcparam.c **** 
 1012              		.loc 1 530 1 is_stmt 0 view .LVU297
 1013 0268 4883C408 		addq	$8, %rsp
 1014              		.cfi_remember_state
 1015              		.cfi_def_cfa_offset 24
 1016 026c 5B       		popq	%rbx
 1017              		.cfi_def_cfa_offset 16
 1018 026d 5D       		popq	%rbp
 1019              		.cfi_def_cfa_offset 8
 1020              	.LVL99:
 530:fltk-1.3.4-1/jpeg/jcparam.c **** 
 1021              		.loc 1 530 1 view .LVU298
 1022 026e C3       		ret
 1023              	.LVL100:
 1024 026f 90       		.p2align 4,,10
 1025              		.p2align 3
 1026              	.L63:
 1027              		.cfi_restore_state
 469:fltk-1.3.4-1/jpeg/jcparam.c ****     cinfo->num_components = 3;
 1028              		.loc 1 469 5 is_stmt 1 view .LVU299
 471:fltk-1.3.4-1/jpeg/jcparam.c **** 		cinfo->color_transform == JCT_SUBTRACT_GREEN ? 1 : 0,
 1029              		.loc 1 471 5 is_stmt 0 view .LVU300
 1030 0270 488B4568 		movq	104(%rbp), %rax
 470:fltk-1.3.4-1/jpeg/jcparam.c ****     SET_COMP(0, 0x52 /* 'R' */, 1,1, 0,
 1031              		.loc 1 470 27 view .LVU301
 1032 0274 C7455C03 		movl	$3, 92(%rbp)
 1032      000000
 471:fltk-1.3.4-1/jpeg/jcparam.c **** 		cinfo->color_transform == JCT_SUBTRACT_GREEN ? 1 : 0,
 1033              		.loc 1 471 5 view .LVU302
 1034 027b 31C9     		xorl	%ecx, %ecx
 1035 027d 48BA0100 		movabsq	$4294967297, %rdx
 1035      00000100 
 1035      0000
 469:fltk-1.3.4-1/jpeg/jcparam.c ****     cinfo->num_components = 3;
 1036              		.loc 1 469 31 view .LVU303
 1037 0287 C7855001 		movl	$1, 336(%rbp)
 1037      00000100 
 1037      0000
 470:fltk-1.3.4-1/jpeg/jcparam.c ****     SET_COMP(0, 0x52 /* 'R' */, 1,1, 0,
 1038              		.loc 1 470 5 is_stmt 1 view .LVU304
 471:fltk-1.3.4-1/jpeg/jcparam.c **** 		cinfo->color_transform == JCT_SUBTRACT_GREEN ? 1 : 0,
 1039              		.loc 1 471 5 view .LVU305
 1040              	.LVL101:
 471:fltk-1.3.4-1/jpeg/jcparam.c **** 		cinfo->color_transform == JCT_SUBTRACT_GREEN ? 1 : 0,
 1041              		.loc 1 471 5 is_stmt 0 view .LVU306
 1042 0291 C7005200 		movl	$82, (%rax)
 1042      0000
 1043 0297 48895008 		movq	%rdx, 8(%rax)
 1044 029b C7401000 		movl	$0, 16(%rax)
 1044      000000
 1045 02a2 83BD5401 		cmpl	$1, 340(%rbp)
 1045      000001
 1046 02a9 0F94C1   		sete	%cl
 1047 02ac 894814   		movl	%ecx, 20(%rax)
 1048 02af 31C9     		xorl	%ecx, %ecx
 1049 02b1 83BD5401 		cmpl	$1, 340(%rbp)
 1049      000001
 1050 02b8 0F94C1   		sete	%cl
 1051 02bb 894818   		movl	%ecx, 24(%rax)
 474:fltk-1.3.4-1/jpeg/jcparam.c ****     SET_COMP(2, 0x42 /* 'B' */, 1,1, 0,
 1052              		.loc 1 474 5 is_stmt 1 view .LVU307
 1053 02be 488B4568 		movq	104(%rbp), %rax
 1054              	.LVL102:
 474:fltk-1.3.4-1/jpeg/jcparam.c ****     SET_COMP(2, 0x42 /* 'B' */, 1,1, 0,
 1055              		.loc 1 474 5 is_stmt 0 view .LVU308
 1056 02c2 C7406047 		movl	$71, 96(%rax)
 1056      000000
 1057 02c9 48895068 		movq	%rdx, 104(%rax)
 1058 02cd 48C74070 		movq	$0, 112(%rax)
 1058      00000000 
 1059 02d5 C7407800 		movl	$0, 120(%rax)
 1059      000000
 475:fltk-1.3.4-1/jpeg/jcparam.c **** 		cinfo->color_transform == JCT_SUBTRACT_GREEN ? 1 : 0,
 1060              		.loc 1 475 5 is_stmt 1 view .LVU309
 1061 02dc 488B4568 		movq	104(%rbp), %rax
 1062              	.LVL103:
 475:fltk-1.3.4-1/jpeg/jcparam.c **** 		cinfo->color_transform == JCT_SUBTRACT_GREEN ? 1 : 0,
 1063              		.loc 1 475 5 is_stmt 0 view .LVU310
 1064 02e0 C780C000 		movl	$66, 192(%rax)
 1064      00004200 
 1064      0000
 1065 02ea E9F2FDFF 		jmp	.L72
 1065      FF
 1066              	.LVL104:
 1067 02ef 90       		.p2align 4,,10
 1068              		.p2align 3
 1069              	.L62:
 480:fltk-1.3.4-1/jpeg/jcparam.c ****     cinfo->num_components = 3;
 1070              		.loc 1 480 5 is_stmt 1 view .LVU311
 484:fltk-1.3.4-1/jpeg/jcparam.c ****     SET_COMP(1, 0x02, 1,1, 1, 1,1);
 1071              		.loc 1 484 5 is_stmt 0 view .LVU312
 1072 02f0 488B4568 		movq	104(%rbp), %rax
 481:fltk-1.3.4-1/jpeg/jcparam.c ****     /* JFIF specifies component IDs 1,2,3 */
 1073              		.loc 1 481 27 view .LVU313
 1074 02f4 C7455C03 		movl	$3, 92(%rbp)
 1074      000000
 484:fltk-1.3.4-1/jpeg/jcparam.c ****     SET_COMP(1, 0x02, 1,1, 1, 1,1);
 1075              		.loc 1 484 5 view .LVU314
 1076 02fb 48B90200 		movabsq	$8589934594, %rcx
 1076      00000200 
 1076      0000
 485:fltk-1.3.4-1/jpeg/jcparam.c ****     SET_COMP(2, 0x03, 1,1, 1, 1,1);
 1077              		.loc 1 485 5 view .LVU315
 1078 0305 48BA0100 		movabsq	$4294967297, %rdx
 1078      00000100 
 1078      0000
 480:fltk-1.3.4-1/jpeg/jcparam.c ****     cinfo->num_components = 3;
 1079              		.loc 1 480 30 view .LVU316
 1080 030f C7854401 		movl	$1, 324(%rbp)
 1080      00000100 
 1080      0000
 481:fltk-1.3.4-1/jpeg/jcparam.c ****     /* JFIF specifies component IDs 1,2,3 */
 1081              		.loc 1 481 5 is_stmt 1 view .LVU317
 484:fltk-1.3.4-1/jpeg/jcparam.c ****     SET_COMP(1, 0x02, 1,1, 1, 1,1);
 1082              		.loc 1 484 5 view .LVU318
 1083              	.LVL105:
 484:fltk-1.3.4-1/jpeg/jcparam.c ****     SET_COMP(1, 0x02, 1,1, 1, 1,1);
 1084              		.loc 1 484 5 is_stmt 0 view .LVU319
 1085 0319 C7000100 		movl	$1, (%rax)
 1085      0000
 1086 031f 48894808 		movq	%rcx, 8(%rax)
 1087 0323 48C74010 		movq	$0, 16(%rax)
 1087      00000000 
 1088 032b C7401800 		movl	$0, 24(%rax)
 1088      000000
 485:fltk-1.3.4-1/jpeg/jcparam.c ****     SET_COMP(2, 0x03, 1,1, 1, 1,1);
 1089              		.loc 1 485 5 is_stmt 1 view .LVU320
 1090 0332 488B4568 		movq	104(%rbp), %rax
 1091              	.LVL106:
 485:fltk-1.3.4-1/jpeg/jcparam.c ****     SET_COMP(2, 0x03, 1,1, 1, 1,1);
 1092              		.loc 1 485 5 is_stmt 0 view .LVU321
 1093 0336 C7406002 		movl	$2, 96(%rax)
 1093      000000
 1094 033d 48895068 		movq	%rdx, 104(%rax)
 1095 0341 48895070 		movq	%rdx, 112(%rax)
 1096 0345 C7407801 		movl	$1, 120(%rax)
 1096      000000
 486:fltk-1.3.4-1/jpeg/jcparam.c ****     break;
 1097              		.loc 1 486 5 is_stmt 1 view .LVU322
 1098 034c 488B4568 		movq	104(%rbp), %rax
 1099              	.LVL107:
 486:fltk-1.3.4-1/jpeg/jcparam.c ****     break;
 1100              		.loc 1 486 5 is_stmt 0 view .LVU323
 1101 0350 C780C000 		movl	$3, 192(%rax)
 1101      00000300 
 1101      0000
 1102 035a 488990C8 		movq	%rdx, 200(%rax)
 1102      000000
 1103 0361 488990D0 		movq	%rdx, 208(%rax)
 1103      000000
 1104 0368 C780D800 		movl	$1, 216(%rax)
 1104      00000100 
 1104      0000
 487:fltk-1.3.4-1/jpeg/jcparam.c ****   case JCS_CMYK:
 1105              		.loc 1 487 5 is_stmt 1 view .LVU324
 530:fltk-1.3.4-1/jpeg/jcparam.c **** 
 1106              		.loc 1 530 1 is_stmt 0 view .LVU325
 1107 0372 4883C408 		addq	$8, %rsp
 1108              		.cfi_remember_state
 1109              		.cfi_def_cfa_offset 24
 1110 0376 5B       		popq	%rbx
 1111              		.cfi_def_cfa_offset 16
 1112 0377 5D       		popq	%rbp
 1113              		.cfi_def_cfa_offset 8
 1114              	.LVL108:
 530:fltk-1.3.4-1/jpeg/jcparam.c **** 
 1115              		.loc 1 530 1 view .LVU326
 1116 0378 C3       		ret
 1117              	.LVL109:
 1118 0379 0F1F8000 		.p2align 4,,10
 1118      000000
 1119              		.p2align 3
 1120              	.L61:
 1121              		.cfi_restore_state
 489:fltk-1.3.4-1/jpeg/jcparam.c ****     cinfo->num_components = 4;
 1122              		.loc 1 489 5 is_stmt 1 view .LVU327
 491:fltk-1.3.4-1/jpeg/jcparam.c ****     SET_COMP(1, 0x4D /* 'M' */, 1,1, 0, 0,0);
 1123              		.loc 1 491 5 is_stmt 0 view .LVU328
 1124 0380 488B4568 		movq	104(%rbp), %rax
 490:fltk-1.3.4-1/jpeg/jcparam.c ****     SET_COMP(0, 0x43 /* 'C' */, 1,1, 0, 0,0);
 1125              		.loc 1 490 27 view .LVU329
 1126 0384 C7455C04 		movl	$4, 92(%rbp)
 1126      000000
 491:fltk-1.3.4-1/jpeg/jcparam.c ****     SET_COMP(1, 0x4D /* 'M' */, 1,1, 0, 0,0);
 1127              		.loc 1 491 5 view .LVU330
 1128 038b 48BA0100 		movabsq	$4294967297, %rdx
 1128      00000100 
 1128      0000
 489:fltk-1.3.4-1/jpeg/jcparam.c ****     cinfo->num_components = 4;
 1129              		.loc 1 489 31 view .LVU331
 1130 0395 C7855001 		movl	$1, 336(%rbp)
 1130      00000100 
 1130      0000
 490:fltk-1.3.4-1/jpeg/jcparam.c ****     SET_COMP(0, 0x43 /* 'C' */, 1,1, 0, 0,0);
 1131              		.loc 1 490 5 is_stmt 1 view .LVU332
 491:fltk-1.3.4-1/jpeg/jcparam.c ****     SET_COMP(1, 0x4D /* 'M' */, 1,1, 0, 0,0);
 1132              		.loc 1 491 5 view .LVU333
 1133              	.LVL110:
 491:fltk-1.3.4-1/jpeg/jcparam.c ****     SET_COMP(1, 0x4D /* 'M' */, 1,1, 0, 0,0);
 1134              		.loc 1 491 5 is_stmt 0 view .LVU334
 1135 039f C7004300 		movl	$67, (%rax)
 1135      0000
 1136 03a5 48895008 		movq	%rdx, 8(%rax)
 1137 03a9 48C74010 		movq	$0, 16(%rax)
 1137      00000000 
 1138 03b1 C7401800 		movl	$0, 24(%rax)
 1138      000000
 492:fltk-1.3.4-1/jpeg/jcparam.c ****     SET_COMP(2, 0x59 /* 'Y' */, 1,1, 0, 0,0);
 1139              		.loc 1 492 5 is_stmt 1 view .LVU335
 1140 03b8 488B4568 		movq	104(%rbp), %rax
 1141              	.LVL111:
 492:fltk-1.3.4-1/jpeg/jcparam.c ****     SET_COMP(2, 0x59 /* 'Y' */, 1,1, 0, 0,0);
 1142              		.loc 1 492 5 is_stmt 0 view .LVU336
 1143 03bc C740604D 		movl	$77, 96(%rax)
 1143      000000
 1144 03c3 48895068 		movq	%rdx, 104(%rax)
 1145 03c7 48C74070 		movq	$0, 112(%rax)
 1145      00000000 
 1146 03cf C7407800 		movl	$0, 120(%rax)
 1146      000000
 493:fltk-1.3.4-1/jpeg/jcparam.c ****     SET_COMP(3, 0x4B /* 'K' */, 1,1, 0, 0,0);
 1147              		.loc 1 493 5 is_stmt 1 view .LVU337
 1148 03d6 488B4568 		movq	104(%rbp), %rax
 1149              	.LVL112:
 493:fltk-1.3.4-1/jpeg/jcparam.c ****     SET_COMP(3, 0x4B /* 'K' */, 1,1, 0, 0,0);
 1150              		.loc 1 493 5 is_stmt 0 view .LVU338
 1151 03da C780C000 		movl	$89, 192(%rax)
 1151      00005900 
 1151      0000
 1152 03e4 488990C8 		movq	%rdx, 200(%rax)
 1152      000000
 1153 03eb 48C780D0 		movq	$0, 208(%rax)
 1153      00000000 
 1153      000000
 1154 03f6 C780D800 		movl	$0, 216(%rax)
 1154      00000000 
 1154      0000
 494:fltk-1.3.4-1/jpeg/jcparam.c ****     break;
 1155              		.loc 1 494 5 is_stmt 1 view .LVU339
 1156 0400 488B4568 		movq	104(%rbp), %rax
 1157              	.LVL113:
 494:fltk-1.3.4-1/jpeg/jcparam.c ****     break;
 1158              		.loc 1 494 5 is_stmt 0 view .LVU340
 1159 0404 C7802001 		movl	$75, 288(%rax)
 1159      00004B00 
 1159      0000
 1160 040e 48899028 		movq	%rdx, 296(%rax)
 1160      010000
 1161 0415 48C78030 		movq	$0, 304(%rax)
 1161      01000000 
 1161      000000
 1162 0420 C7803801 		movl	$0, 312(%rax)
 1162      00000000 
 1162      0000
 495:fltk-1.3.4-1/jpeg/jcparam.c ****   case JCS_YCCK:
 1163              		.loc 1 495 5 is_stmt 1 view .LVU341
 530:fltk-1.3.4-1/jpeg/jcparam.c **** 
 1164              		.loc 1 530 1 is_stmt 0 view .LVU342
 1165 042a 4883C408 		addq	$8, %rsp
 1166              		.cfi_remember_state
 1167              		.cfi_def_cfa_offset 24
 1168 042e 5B       		popq	%rbx
 1169              		.cfi_def_cfa_offset 16
 1170 042f 5D       		popq	%rbp
 1171              		.cfi_def_cfa_offset 8
 1172              	.LVL114:
 530:fltk-1.3.4-1/jpeg/jcparam.c **** 
 1173              		.loc 1 530 1 view .LVU343
 1174 0430 C3       		ret
 1175              	.LVL115:
 1176              		.p2align 4,,10
 1177 0431 0F1F8000 		.p2align 3
 1177      000000
 1178              	.L60:
 1179              		.cfi_restore_state
 497:fltk-1.3.4-1/jpeg/jcparam.c ****     cinfo->num_components = 4;
 1180              		.loc 1 497 5 is_stmt 1 view .LVU344
 499:fltk-1.3.4-1/jpeg/jcparam.c ****     SET_COMP(1, 0x02, 1,1, 1, 1,1);
 1181              		.loc 1 499 5 is_stmt 0 view .LVU345
 1182 0438 488B4568 		movq	104(%rbp), %rax
 498:fltk-1.3.4-1/jpeg/jcparam.c ****     SET_COMP(0, 0x01, 2,2, 0, 0,0);
 1183              		.loc 1 498 27 view .LVU346
 1184 043c C7455C04 		movl	$4, 92(%rbp)
 1184      000000
 499:fltk-1.3.4-1/jpeg/jcparam.c ****     SET_COMP(1, 0x02, 1,1, 1, 1,1);
 1185              		.loc 1 499 5 view .LVU347
 1186 0443 48B90200 		movabsq	$8589934594, %rcx
 1186      00000200 
 1186      0000
 500:fltk-1.3.4-1/jpeg/jcparam.c ****     SET_COMP(2, 0x03, 1,1, 1, 1,1);
 1187              		.loc 1 500 5 view .LVU348
 1188 044d 48BA0100 		movabsq	$4294967297, %rdx
 1188      00000100 
 1188      0000
 497:fltk-1.3.4-1/jpeg/jcparam.c ****     cinfo->num_components = 4;
 1189              		.loc 1 497 31 view .LVU349
 1190 0457 C7855001 		movl	$1, 336(%rbp)
 1190      00000100 
 1190      0000
 498:fltk-1.3.4-1/jpeg/jcparam.c ****     SET_COMP(0, 0x01, 2,2, 0, 0,0);
 1191              		.loc 1 498 5 is_stmt 1 view .LVU350
 499:fltk-1.3.4-1/jpeg/jcparam.c ****     SET_COMP(1, 0x02, 1,1, 1, 1,1);
 1192              		.loc 1 499 5 view .LVU351
 1193              	.LVL116:
 499:fltk-1.3.4-1/jpeg/jcparam.c ****     SET_COMP(1, 0x02, 1,1, 1, 1,1);
 1194              		.loc 1 499 5 is_stmt 0 view .LVU352
 1195 0461 C7000100 		movl	$1, (%rax)
 1195      0000
 1196 0467 48894808 		movq	%rcx, 8(%rax)
 1197 046b 48C74010 		movq	$0, 16(%rax)
 1197      00000000 
 1198 0473 C7401800 		movl	$0, 24(%rax)
 1198      000000
 500:fltk-1.3.4-1/jpeg/jcparam.c ****     SET_COMP(2, 0x03, 1,1, 1, 1,1);
 1199              		.loc 1 500 5 is_stmt 1 view .LVU353
 1200 047a 488B4568 		movq	104(%rbp), %rax
 1201              	.LVL117:
 500:fltk-1.3.4-1/jpeg/jcparam.c ****     SET_COMP(2, 0x03, 1,1, 1, 1,1);
 1202              		.loc 1 500 5 is_stmt 0 view .LVU354
 1203 047e C7406002 		movl	$2, 96(%rax)
 1203      000000
 1204 0485 48895068 		movq	%rdx, 104(%rax)
 1205 0489 48895070 		movq	%rdx, 112(%rax)
 1206 048d C7407801 		movl	$1, 120(%rax)
 1206      000000
 501:fltk-1.3.4-1/jpeg/jcparam.c ****     SET_COMP(3, 0x04, 2,2, 0, 0,0);
 1207              		.loc 1 501 5 is_stmt 1 view .LVU355
 1208 0494 488B4568 		movq	104(%rbp), %rax
 1209              	.LVL118:
 501:fltk-1.3.4-1/jpeg/jcparam.c ****     SET_COMP(3, 0x04, 2,2, 0, 0,0);
 1210              		.loc 1 501 5 is_stmt 0 view .LVU356
 1211 0498 C780C000 		movl	$3, 192(%rax)
 1211      00000300 
 1211      0000
 1212 04a2 488990C8 		movq	%rdx, 200(%rax)
 1212      000000
 1213 04a9 488990D0 		movq	%rdx, 208(%rax)
 1213      000000
 1214 04b0 C780D800 		movl	$1, 216(%rax)
 1214      00000100 
 1214      0000
 502:fltk-1.3.4-1/jpeg/jcparam.c ****     break;
 1215              		.loc 1 502 5 is_stmt 1 view .LVU357
 1216 04ba 488B4568 		movq	104(%rbp), %rax
 1217              	.LVL119:
 502:fltk-1.3.4-1/jpeg/jcparam.c ****     break;
 1218              		.loc 1 502 5 is_stmt 0 view .LVU358
 1219 04be C7802001 		movl	$4, 288(%rax)
 1219      00000400 
 1219      0000
 1220 04c8 48898828 		movq	%rcx, 296(%rax)
 1220      010000
 1221 04cf 48C78030 		movq	$0, 304(%rax)
 1221      01000000 
 1221      000000
 1222 04da C7803801 		movl	$0, 312(%rax)
 1222      00000000 
 1222      0000
 503:fltk-1.3.4-1/jpeg/jcparam.c ****   case JCS_BG_RGB:
 1223              		.loc 1 503 5 is_stmt 1 view .LVU359
 530:fltk-1.3.4-1/jpeg/jcparam.c **** 
 1224              		.loc 1 530 1 is_stmt 0 view .LVU360
 1225 04e4 4883C408 		addq	$8, %rsp
 1226              		.cfi_remember_state
 1227              		.cfi_def_cfa_offset 24
 1228 04e8 5B       		popq	%rbx
 1229              		.cfi_def_cfa_offset 16
 1230 04e9 5D       		popq	%rbp
 1231              		.cfi_def_cfa_offset 8
 1232              	.LVL120:
 530:fltk-1.3.4-1/jpeg/jcparam.c **** 
 1233              		.loc 1 530 1 view .LVU361
 1234 04ea C3       		ret
 1235              	.LVL121:
 1236              	.L56:
 1237              		.cfi_restore_state
 528:fltk-1.3.4-1/jpeg/jcparam.c ****   }
 1238              		.loc 1 528 5 is_stmt 1 view .LVU362
 1239 04eb 488B4500 		movq	0(%rbp), %rax
 1240 04ef 4889EF   		movq	%rbp, %rdi
 1241 04f2 C740280B 		movl	$11, 40(%rax)
 1241      000000
 1242 04f9 488B4500 		movq	0(%rbp), %rax
 1243 04fd 488B00   		movq	(%rax), %rax
 530:fltk-1.3.4-1/jpeg/jcparam.c **** 
 1244              		.loc 1 530 1 is_stmt 0 view .LVU363
 1245 0500 4883C408 		addq	$8, %rsp
 1246              		.cfi_def_cfa_offset 24
 1247 0504 5B       		popq	%rbx
 1248              		.cfi_def_cfa_offset 16
 1249 0505 5D       		popq	%rbp
 1250              		.cfi_def_cfa_offset 8
 1251              	.LVL122:
 528:fltk-1.3.4-1/jpeg/jcparam.c ****   }
 1252              		.loc 1 528 5 view .LVU364
 1253 0506 FFE0     		jmp	*%rax
 1254              	.LVL123:
 528:fltk-1.3.4-1/jpeg/jcparam.c ****   }
 1255              		.loc 1 528 5 view .LVU365
 1256              		.cfi_endproc
 1257              	.LFE60:
 1259              		.section	.text.jpeg_default_colorspace,"ax",@progbits
 1260              		.p2align 4
 1261              		.globl	jpeg_default_colorspace
 1263              	jpeg_default_colorspace:
 1264              	.LVL124:
 1265              	.LFB59:
 387:fltk-1.3.4-1/jpeg/jcparam.c ****   switch (cinfo->in_color_space) {
 1266              		.loc 1 387 1 is_stmt 1 view -0
 1267              		.cfi_startproc
 387:fltk-1.3.4-1/jpeg/jcparam.c ****   switch (cinfo->in_color_space) {
 1268              		.loc 1 387 1 is_stmt 0 view .LVU367
 1269 0000 F30F1EFA 		endbr64
 388:fltk-1.3.4-1/jpeg/jcparam.c ****   case JCS_UNKNOWN:
 1270              		.loc 1 388 3 is_stmt 1 view .LVU368
 1271 0004 837F3C07 		cmpl	$7, 60(%rdi)
 1272 0008 777D     		ja	.L74
 1273 000a 8B473C   		movl	60(%rdi), %eax
 1274 000d 488D1500 		leaq	.L76(%rip), %rdx
 1274      000000
 1275 0014 48630482 		movslq	(%rdx,%rax,4), %rax
 1276 0018 4801D0   		addq	%rdx, %rax
 1277 001b 3EFFE0   		notrack jmp	*%rax
 1278              		.section	.rodata.jpeg_default_colorspace,"a",@progbits
 1279              		.align 4
 1280              		.align 4
 1281              	.L76:
 1282 0000 00000000 		.long	.L82-.L76
 1283 0004 00000000 		.long	.L81-.L76
 1284 0008 00000000 		.long	.L80-.L76
 1285 000c 00000000 		.long	.L80-.L76
 1286 0010 00000000 		.long	.L79-.L76
 1287 0014 00000000 		.long	.L78-.L76
 1288 0018 00000000 		.long	.L77-.L76
 1289 001c 00000000 		.long	.L75-.L76
 1290              		.section	.text.jpeg_default_colorspace
 1291 001e 6690     		.p2align 4,,10
 1292              		.p2align 3
 1293              	.L80:
 396:fltk-1.3.4-1/jpeg/jcparam.c ****     break;
 1294              		.loc 1 396 5 view .LVU369
 1295 0020 BE030000 		movl	$3, %esi
 1295      00
 1296 0025 E9000000 		jmp	jpeg_set_colorspace
 1296      00
 1297              	.LVL125:
 1298 002a 660F1F44 		.p2align 4,,10
 1298      0000
 1299              		.p2align 3
 1300              	.L81:
 393:fltk-1.3.4-1/jpeg/jcparam.c ****     break;
 1301              		.loc 1 393 5 view .LVU370
 1302 0030 BE010000 		movl	$1, %esi
 1302      00
 1303 0035 E9000000 		jmp	jpeg_set_colorspace
 1303      00
 1304              	.LVL126:
 1305 003a 660F1F44 		.p2align 4,,10
 1305      0000
 1306              		.p2align 3
 1307              	.L79:
 402:fltk-1.3.4-1/jpeg/jcparam.c ****     break;
 1308              		.loc 1 402 5 view .LVU371
 1309 0040 BE040000 		movl	$4, %esi
 1309      00
 1310 0045 E9000000 		jmp	jpeg_set_colorspace
 1310      00
 1311              	.LVL127:
 1312 004a 660F1F44 		.p2align 4,,10
 1312      0000
 1313              		.p2align 3
 1314              	.L78:
 405:fltk-1.3.4-1/jpeg/jcparam.c ****     break;
 1315              		.loc 1 405 5 view .LVU372
 1316 0050 BE050000 		movl	$5, %esi
 1316      00
 1317 0055 E9000000 		jmp	jpeg_set_colorspace
 1317      00
 1318              	.LVL128:
 1319 005a 660F1F44 		.p2align 4,,10
 1319      0000
 1320              		.p2align 3
 1321              	.L77:
 409:fltk-1.3.4-1/jpeg/jcparam.c ****     break;
 1322              		.loc 1 409 5 view .LVU373
 1323 0060 BE060000 		movl	$6, %esi
 1323      00
 1324 0065 E9000000 		jmp	jpeg_set_colorspace
 1324      00
 1325              	.LVL129:
 1326 006a 660F1F44 		.p2align 4,,10
 1326      0000
 1327              		.p2align 3
 1328              	.L75:
 412:fltk-1.3.4-1/jpeg/jcparam.c ****     break;
 1329              		.loc 1 412 5 view .LVU374
 1330 0070 BE070000 		movl	$7, %esi
 1330      00
 1331 0075 E9000000 		jmp	jpeg_set_colorspace
 1331      00
 1332              	.LVL130:
 1333 007a 660F1F44 		.p2align 4,,10
 1333      0000
 1334              		.p2align 3
 1335              	.L82:
 390:fltk-1.3.4-1/jpeg/jcparam.c ****     break;
 1336              		.loc 1 390 5 view .LVU375
 1337 0080 31F6     		xorl	%esi, %esi
 1338 0082 E9000000 		jmp	jpeg_set_colorspace
 1338      00
 1339              	.LVL131:
 1340              	.L74:
 415:fltk-1.3.4-1/jpeg/jcparam.c ****   }
 1341              		.loc 1 415 5 view .LVU376
 1342 0087 488B07   		movq	(%rdi), %rax
 1343 008a C740280A 		movl	$10, 40(%rax)
 1343      000000
 1344 0091 488B07   		movq	(%rdi), %rax
 1345 0094 FF20     		jmp	*(%rax)
 1346              	.LVL132:
 415:fltk-1.3.4-1/jpeg/jcparam.c ****   }
 1347              		.loc 1 415 5 is_stmt 0 view .LVU377
 1348              		.cfi_endproc
 1349              	.LFE59:
 1351              		.section	.text.jpeg_set_defaults,"ax",@progbits
 1352              		.p2align 4
 1353              		.globl	jpeg_set_defaults
 1355              	jpeg_set_defaults:
 1356              	.LVL133:
 1357              	.LFB58:
 286:fltk-1.3.4-1/jpeg/jcparam.c ****   int i;
 1358              		.loc 1 286 1 is_stmt 1 view -0
 1359              		.cfi_startproc
 286:fltk-1.3.4-1/jpeg/jcparam.c ****   int i;
 1360              		.loc 1 286 1 is_stmt 0 view .LVU379
 1361 0000 F30F1EFA 		endbr64
 287:fltk-1.3.4-1/jpeg/jcparam.c **** 
 1362              		.loc 1 287 3 is_stmt 1 view .LVU380
 290:fltk-1.3.4-1/jpeg/jcparam.c ****     ERREXIT1(cinfo, JERR_BAD_STATE, cinfo->global_state);
 1363              		.loc 1 290 3 view .LVU381
 286:fltk-1.3.4-1/jpeg/jcparam.c ****   int i;
 1364              		.loc 1 286 1 is_stmt 0 view .LVU382
 1365 0004 55       		pushq	%rbp
 1366              		.cfi_def_cfa_offset 16
 1367              		.cfi_offset 6, -16
 290:fltk-1.3.4-1/jpeg/jcparam.c ****     ERREXIT1(cinfo, JERR_BAD_STATE, cinfo->global_state);
 1368              		.loc 1 290 6 view .LVU383
 1369 0005 837F2464 		cmpl	$100, 36(%rdi)
 286:fltk-1.3.4-1/jpeg/jcparam.c ****   int i;
 1370              		.loc 1 286 1 view .LVU384
 1371 0009 4889FD   		movq	%rdi, %rbp
 290:fltk-1.3.4-1/jpeg/jcparam.c ****     ERREXIT1(cinfo, JERR_BAD_STATE, cinfo->global_state);
 1372              		.loc 1 290 6 view .LVU385
 1373 000c 7418     		je	.L84
 291:fltk-1.3.4-1/jpeg/jcparam.c **** 
 1374              		.loc 1 291 5 is_stmt 1 view .LVU386
 1375 000e 488B07   		movq	(%rdi), %rax
 1376 0011 C7402815 		movl	$21, 40(%rax)
 1376      000000
 1377 0018 488B07   		movq	(%rdi), %rax
 1378 001b 8B5724   		movl	36(%rdi), %edx
 1379 001e 89502C   		movl	%edx, 44(%rax)
 1380 0021 488B07   		movq	(%rdi), %rax
 1381 0024 FF10     		call	*(%rax)
 1382              	.LVL134:
 1383              	.L84:
 297:fltk-1.3.4-1/jpeg/jcparam.c ****     cinfo->comp_info = (jpeg_component_info *)
 1384              		.loc 1 297 3 view .LVU387
 297:fltk-1.3.4-1/jpeg/jcparam.c ****     cinfo->comp_info = (jpeg_component_info *)
 1385              		.loc 1 297 6 is_stmt 0 view .LVU388
 1386 0026 48837D68 		cmpq	$0, 104(%rbp)
 1386      00
 1387 002b 0F844F01 		je	.L89
 1387      0000
 1388              	.L85:
 304:fltk-1.3.4-1/jpeg/jcparam.c ****   cinfo->scale_denom = 1;
 1389              		.loc 1 304 3 is_stmt 1 view .LVU389
 305:fltk-1.3.4-1/jpeg/jcparam.c ****   cinfo->data_precision = BITS_IN_JSAMPLE;
 1390              		.loc 1 305 3 view .LVU390
 306:fltk-1.3.4-1/jpeg/jcparam.c ****   /* Set up two quantization tables using default quality of 75 */
 1391              		.loc 1 306 25 is_stmt 0 view .LVU391
 1392 0031 C7455808 		movl	$8, 88(%rbp)
 1392      000000
 1393              	.LBB72:
 1394              	.LBB73:
 160:fltk-1.3.4-1/jpeg/jcparam.c **** }
 1395              		.loc 1 160 3 view .LVU392
 1396 0038 BA010000 		movl	$1, %edx
 1396      00
 1397 003d BE320000 		movl	$50, %esi
 1397      00
 1398 0042 4889EF   		movq	%rbp, %rdi
 1399              	.LBE73:
 1400              	.LBE72:
 304:fltk-1.3.4-1/jpeg/jcparam.c ****   cinfo->scale_denom = 1;
 1401              		.loc 1 304 20 view .LVU393
 1402 0045 48B80100 		movabsq	$4294967297, %rax
 1402      00000100 
 1402      0000
 1403 004f 48894548 		movq	%rax, 72(%rbp)
 306:fltk-1.3.4-1/jpeg/jcparam.c ****   /* Set up two quantization tables using default quality of 75 */
 1404              		.loc 1 306 3 is_stmt 1 view .LVU394
 308:fltk-1.3.4-1/jpeg/jcparam.c ****   /* Set up two Huffman tables */
 1405              		.loc 1 308 3 view .LVU395
 1406              	.LVL135:
 1407              	.LBB76:
 1408              	.LBI72:
 149:fltk-1.3.4-1/jpeg/jcparam.c **** /* Set or change the 'quality' (quantization) setting, using default tables.
 1409              		.loc 1 149 1 view .LVU396
 1410              	.LBB74:
 157:fltk-1.3.4-1/jpeg/jcparam.c **** 
 1411              		.loc 1 157 3 view .LVU397
 157:fltk-1.3.4-1/jpeg/jcparam.c **** 
 1412              		.loc 1 157 3 is_stmt 0 view .LVU398
 1413              	.LBE74:
 1414              	.LBE76:
 130:fltk-1.3.4-1/jpeg/jcparam.c ****   if (quality > 100) quality = 100;
 1415              		.loc 1 130 3 is_stmt 1 view .LVU399
 131:fltk-1.3.4-1/jpeg/jcparam.c **** 
 1416              		.loc 1 131 3 view .LVU400
 139:fltk-1.3.4-1/jpeg/jcparam.c ****     quality = 5000 / quality;
 1417              		.loc 1 139 3 view .LVU401
 142:fltk-1.3.4-1/jpeg/jcparam.c **** 
 1418              		.loc 1 142 5 view .LVU402
 144:fltk-1.3.4-1/jpeg/jcparam.c **** }
 1419              		.loc 1 144 3 view .LVU403
 1420              	.LBB77:
 1421              	.LBB75:
 160:fltk-1.3.4-1/jpeg/jcparam.c **** }
 1422              		.loc 1 160 3 view .LVU404
 1423 0053 E8000000 		call	jpeg_set_linear_quality
 1423      00
 1424              	.LVL136:
 160:fltk-1.3.4-1/jpeg/jcparam.c **** }
 1425              		.loc 1 160 3 is_stmt 0 view .LVU405
 1426              	.LBE75:
 1427              	.LBE77:
 310:fltk-1.3.4-1/jpeg/jcparam.c **** 
 1428              		.loc 1 310 3 is_stmt 1 view .LVU406
 1429              	.LBB78:
 1430              	.LBI78:
 199:fltk-1.3.4-1/jpeg/jcparam.c **** /* Set up the standard Huffman tables (cf. JPEG standard section K.3) */
 1431              		.loc 1 199 1 view .LVU407
 1432              	.LBB79:
 203:fltk-1.3.4-1/jpeg/jcparam.c ****     { /* 0-base */ 0, 0, 1, 5, 1, 1, 1, 1, 1, 1, 0, 0, 0, 0, 0, 0, 0 };
 1433              		.loc 1 203 3 view .LVU408
 205:fltk-1.3.4-1/jpeg/jcparam.c ****     { 0, 1, 2, 3, 4, 5, 6, 7, 8, 9, 10, 11 };
 1434              		.loc 1 205 3 view .LVU409
 208:fltk-1.3.4-1/jpeg/jcparam.c ****     { /* 0-base */ 0, 0, 3, 1, 1, 1, 1, 1, 1, 1, 1, 1, 0, 0, 0, 0, 0 };
 1435              		.loc 1 208 3 view .LVU410
 210:fltk-1.3.4-1/jpeg/jcparam.c ****     { 0, 1, 2, 3, 4, 5, 6, 7, 8, 9, 10, 11 };
 1436              		.loc 1 210 3 view .LVU411
 213:fltk-1.3.4-1/jpeg/jcparam.c ****     { /* 0-base */ 0, 0, 2, 1, 3, 3, 2, 4, 3, 5, 5, 4, 4, 0, 0, 1, 0x7d };
 1437              		.loc 1 213 3 view .LVU412
 215:fltk-1.3.4-1/jpeg/jcparam.c ****     { 0x01, 0x02, 0x03, 0x00, 0x04, 0x11, 0x05, 0x12,
 1438              		.loc 1 215 3 view .LVU413
 238:fltk-1.3.4-1/jpeg/jcparam.c ****     { /* 0-base */ 0, 0, 2, 1, 2, 4, 4, 3, 4, 7, 5, 4, 4, 0, 1, 2, 0x77 };
 1439              		.loc 1 238 3 view .LVU414
 240:fltk-1.3.4-1/jpeg/jcparam.c ****     { 0x00, 0x01, 0x02, 0x03, 0x11, 0x04, 0x05, 0x21,
 1440              		.loc 1 240 3 view .LVU415
 263:fltk-1.3.4-1/jpeg/jcparam.c **** 		 bits_dc_luminance, val_dc_luminance);
 1441              		.loc 1 263 3 view .LVU416
 1442 0058 488DB5A0 		leaq	160(%rbp), %rsi
 1442      000000
 1443 005f 488D0D00 		leaq	val_dc_luminance.4435(%rip), %rcx
 1443      000000
 1444 0066 4889EF   		movq	%rbp, %rdi
 1445 0069 488D1500 		leaq	bits_dc_luminance.4434(%rip), %rdx
 1445      000000
 1446 0070 E8000000 		call	add_huff_table
 1446      00
 1447              	.LVL137:
 265:fltk-1.3.4-1/jpeg/jcparam.c **** 		 bits_ac_luminance, val_ac_luminance);
 1448              		.loc 1 265 3 view .LVU417
 1449 0075 488DB5C0 		leaq	192(%rbp), %rsi
 1449      000000
 1450 007c 488D0D00 		leaq	val_ac_luminance.4439(%rip), %rcx
 1450      000000
 1451 0083 4889EF   		movq	%rbp, %rdi
 1452 0086 488D1500 		leaq	bits_ac_luminance.4438(%rip), %rdx
 1452      000000
 1453 008d E8000000 		call	add_huff_table
 1453      00
 1454              	.LVL138:
 267:fltk-1.3.4-1/jpeg/jcparam.c **** 		 bits_dc_chrominance, val_dc_chrominance);
 1455              		.loc 1 267 3 view .LVU418
 1456 0092 488DB5A8 		leaq	168(%rbp), %rsi
 1456      000000
 1457 0099 488D0D00 		leaq	val_dc_chrominance.4437(%rip), %rcx
 1457      000000
 1458 00a0 4889EF   		movq	%rbp, %rdi
 1459 00a3 488D1500 		leaq	bits_dc_chrominance.4436(%rip), %rdx
 1459      000000
 1460 00aa E8000000 		call	add_huff_table
 1460      00
 1461              	.LVL139:
 269:fltk-1.3.4-1/jpeg/jcparam.c **** 		 bits_ac_chrominance, val_ac_chrominance);
 1462              		.loc 1 269 3 view .LVU419
 1463 00af 488D1500 		leaq	bits_ac_chrominance.4440(%rip), %rdx
 1463      000000
 1464 00b6 488DB5C8 		leaq	200(%rbp), %rsi
 1464      000000
 1465 00bd 4889EF   		movq	%rbp, %rdi
 1466 00c0 488D0D00 		leaq	val_ac_chrominance.4441(%rip), %rcx
 1466      000000
 1467 00c7 E8000000 		call	add_huff_table
 1467      00
 1468              	.LVL140:
 269:fltk-1.3.4-1/jpeg/jcparam.c **** 		 bits_ac_chrominance, val_ac_chrominance);
 1469              		.loc 1 269 3 is_stmt 0 view .LVU420
 1470              	.LBE79:
 1471              	.LBE78:
 313:fltk-1.3.4-1/jpeg/jcparam.c ****     cinfo->arith_dc_L[i] = 0;
 1472              		.loc 1 313 15 is_stmt 1 view .LVU421
 1473 00cc 488D85E0 		leaq	224(%rbp), %rax
 1473      000000
 1474 00d3 488D95F0 		leaq	240(%rbp), %rdx
 1474      000000
 1475              	.LVL141:
 1476 00da 660F1F44 		.p2align 4,,10
 1476      0000
 1477              		.p2align 3
 1478              	.L86:
 314:fltk-1.3.4-1/jpeg/jcparam.c ****     cinfo->arith_dc_U[i] = 1;
 1479              		.loc 1 314 5 discriminator 3 view .LVU422
 314:fltk-1.3.4-1/jpeg/jcparam.c ****     cinfo->arith_dc_U[i] = 1;
 1480              		.loc 1 314 26 is_stmt 0 discriminator 3 view .LVU423
 1481 00e0 C60000   		movb	$0, (%rax)
 315:fltk-1.3.4-1/jpeg/jcparam.c ****     cinfo->arith_ac_K[i] = 5;
 1482              		.loc 1 315 5 is_stmt 1 discriminator 3 view .LVU424
 1483 00e3 4883C001 		addq	$1, %rax
 1484              	.LVL142:
 315:fltk-1.3.4-1/jpeg/jcparam.c ****     cinfo->arith_ac_K[i] = 5;
 1485              		.loc 1 315 26 is_stmt 0 discriminator 3 view .LVU425
 1486 00e7 C6400F01 		movb	$1, 15(%rax)
 316:fltk-1.3.4-1/jpeg/jcparam.c ****   }
 1487              		.loc 1 316 5 is_stmt 1 discriminator 3 view .LVU426
 316:fltk-1.3.4-1/jpeg/jcparam.c ****   }
 1488              		.loc 1 316 26 is_stmt 0 discriminator 3 view .LVU427
 1489 00eb C6401F05 		movb	$5, 31(%rax)
 313:fltk-1.3.4-1/jpeg/jcparam.c ****     cinfo->arith_dc_L[i] = 0;
 1490              		.loc 1 313 35 is_stmt 1 discriminator 3 view .LVU428
 313:fltk-1.3.4-1/jpeg/jcparam.c ****     cinfo->arith_dc_L[i] = 0;
 1491              		.loc 1 313 15 discriminator 3 view .LVU429
 313:fltk-1.3.4-1/jpeg/jcparam.c ****     cinfo->arith_dc_L[i] = 0;
 1492              		.loc 1 313 3 is_stmt 0 discriminator 3 view .LVU430
 1493 00ef 4839D0   		cmpq	%rdx, %rax
 1494 00f2 75EC     		jne	.L86
 320:fltk-1.3.4-1/jpeg/jcparam.c ****   cinfo->num_scans = 0;
 1495              		.loc 1 320 3 is_stmt 1 view .LVU431
 333:fltk-1.3.4-1/jpeg/jcparam.c **** 
 1496              		.loc 1 333 56 is_stmt 0 view .LVU432
 1497 00f4 31C0     		xorl	%eax, %eax
 1498 00f6 837D5808 		cmpl	$8, 88(%rbp)
 377:fltk-1.3.4-1/jpeg/jcparam.c **** }
 1499              		.loc 1 377 3 view .LVU433
 1500 00fa 4889EF   		movq	%rbp, %rdi
 320:fltk-1.3.4-1/jpeg/jcparam.c ****   cinfo->num_scans = 0;
 1501              		.loc 1 320 20 view .LVU434
 1502 00fd 48C78518 		movq	$0, 280(%rbp)
 1502      01000000 
 1502      000000
 321:fltk-1.3.4-1/jpeg/jcparam.c **** 
 1503              		.loc 1 321 3 is_stmt 1 view .LVU435
 333:fltk-1.3.4-1/jpeg/jcparam.c **** 
 1504              		.loc 1 333 56 is_stmt 0 view .LVU436
 1505 0108 0F9FC0   		setg	%al
 321:fltk-1.3.4-1/jpeg/jcparam.c **** 
 1506              		.loc 1 321 20 view .LVU437
 1507 010b C7851001 		movl	$0, 272(%rbp)
 1507      00000000 
 1507      0000
 324:fltk-1.3.4-1/jpeg/jcparam.c **** 
 1508              		.loc 1 324 3 is_stmt 1 view .LVU438
 333:fltk-1.3.4-1/jpeg/jcparam.c **** 
 1509              		.loc 1 333 21 is_stmt 0 view .LVU439
 1510 0115 89852401 		movl	%eax, 292(%rbp)
 1510      0000
 366:fltk-1.3.4-1/jpeg/jcparam.c ****   cinfo->JFIF_minor_version = 1;
 1511              		.loc 1 366 29 view .LVU440
 1512 011b B8010100 		movl	$257, %eax
 1512      00
 324:fltk-1.3.4-1/jpeg/jcparam.c **** 
 1513              		.loc 1 324 22 view .LVU441
 1514 0120 C7852001 		movl	$0, 288(%rbp)
 1514      00000000 
 1514      0000
 333:fltk-1.3.4-1/jpeg/jcparam.c **** 
 1515              		.loc 1 333 3 is_stmt 1 view .LVU442
 336:fltk-1.3.4-1/jpeg/jcparam.c **** 
 1516              		.loc 1 336 3 view .LVU443
 339:fltk-1.3.4-1/jpeg/jcparam.c **** 
 1517              		.loc 1 339 3 view .LVU444
 342:fltk-1.3.4-1/jpeg/jcparam.c **** 
 1518              		.loc 1 342 3 view .LVU445
 345:fltk-1.3.4-1/jpeg/jcparam.c **** 
 1519              		.loc 1 345 3 view .LVU446
 348:fltk-1.3.4-1/jpeg/jcparam.c **** 
 1520              		.loc 1 348 3 view .LVU447
 351:fltk-1.3.4-1/jpeg/jcparam.c ****   cinfo->restart_in_rows = 0;
 1521              		.loc 1 351 3 view .LVU448
 352:fltk-1.3.4-1/jpeg/jcparam.c **** 
 1522              		.loc 1 352 3 view .LVU449
 336:fltk-1.3.4-1/jpeg/jcparam.c **** 
 1523              		.loc 1 336 26 is_stmt 0 view .LVU450
 1524 012a 48C78528 		movq	$0, 296(%rbp)
 1524      01000000 
 1524      000000
 342:fltk-1.3.4-1/jpeg/jcparam.c **** 
 1525              		.loc 1 342 32 view .LVU451
 1526 0135 48C78530 		movq	$1, 304(%rbp)
 1526      01000001 
 1526      000000
 348:fltk-1.3.4-1/jpeg/jcparam.c **** 
 1527              		.loc 1 348 21 view .LVU452
 1528 0140 48C78538 		movq	$0, 312(%rbp)
 1528      01000000 
 1528      000000
 352:fltk-1.3.4-1/jpeg/jcparam.c **** 
 1529              		.loc 1 352 26 view .LVU453
 1530 014b C7854001 		movl	$0, 320(%rbp)
 1530      00000000 
 1530      0000
 366:fltk-1.3.4-1/jpeg/jcparam.c ****   cinfo->JFIF_minor_version = 1;
 1531              		.loc 1 366 3 is_stmt 1 view .LVU454
 367:fltk-1.3.4-1/jpeg/jcparam.c ****   cinfo->density_unit = 0;	/* Pixel size is unknown by default */
 1532              		.loc 1 367 3 view .LVU455
 368:fltk-1.3.4-1/jpeg/jcparam.c ****   cinfo->X_density = 1;		/* Pixel aspect ratio is square by default */
 1533              		.loc 1 368 3 view .LVU456
 366:fltk-1.3.4-1/jpeg/jcparam.c ****   cinfo->JFIF_minor_version = 1;
 1534              		.loc 1 366 29 is_stmt 0 view .LVU457
 1535 0155 66898548 		movw	%ax, 328(%rbp)
 1535      010000
 368:fltk-1.3.4-1/jpeg/jcparam.c ****   cinfo->X_density = 1;		/* Pixel aspect ratio is square by default */
 1536              		.loc 1 368 23 view .LVU458
 1537 015c C6854A01 		movb	$0, 330(%rbp)
 1537      000000
 369:fltk-1.3.4-1/jpeg/jcparam.c ****   cinfo->Y_density = 1;
 1538              		.loc 1 369 3 is_stmt 1 view .LVU459
 370:fltk-1.3.4-1/jpeg/jcparam.c **** 
 1539              		.loc 1 370 3 view .LVU460
 369:fltk-1.3.4-1/jpeg/jcparam.c ****   cinfo->Y_density = 1;
 1540              		.loc 1 369 20 is_stmt 0 view .LVU461
 1541 0163 C7854C01 		movl	$65537, 332(%rbp)
 1541      00000100 
 1541      0100
 373:fltk-1.3.4-1/jpeg/jcparam.c **** 
 1542              		.loc 1 373 3 is_stmt 1 view .LVU462
 373:fltk-1.3.4-1/jpeg/jcparam.c **** 
 1543              		.loc 1 373 26 is_stmt 0 view .LVU463
 1544 016d C7855401 		movl	$0, 340(%rbp)
 1544      00000000 
 1544      0000
 377:fltk-1.3.4-1/jpeg/jcparam.c **** }
 1545              		.loc 1 377 3 is_stmt 1 view .LVU464
 378:fltk-1.3.4-1/jpeg/jcparam.c **** 
 1546              		.loc 1 378 1 is_stmt 0 view .LVU465
 1547 0177 5D       		popq	%rbp
 1548              		.cfi_remember_state
 1549              		.cfi_def_cfa_offset 8
 1550              	.LVL143:
 377:fltk-1.3.4-1/jpeg/jcparam.c **** }
 1551              		.loc 1 377 3 view .LVU466
 1552 0178 E9000000 		jmp	jpeg_default_colorspace
 1552      00
 1553              	.LVL144:
 1554 017d 0F1F00   		.p2align 4,,10
 1555              		.p2align 3
 1556              	.L89:
 1557              		.cfi_restore_state
 298:fltk-1.3.4-1/jpeg/jcparam.c ****       (*cinfo->mem->alloc_small) ((j_common_ptr) cinfo, JPOOL_PERMANENT,
 1558              		.loc 1 298 5 is_stmt 1 view .LVU467
 299:fltk-1.3.4-1/jpeg/jcparam.c **** 				  MAX_COMPONENTS * SIZEOF(jpeg_component_info));
 1559              		.loc 1 299 8 is_stmt 0 view .LVU468
 1560 0180 488B4508 		movq	8(%rbp), %rax
 1561 0184 BAC00300 		movl	$960, %edx
 1561      00
 1562 0189 31F6     		xorl	%esi, %esi
 1563 018b 4889EF   		movq	%rbp, %rdi
 1564 018e FF10     		call	*(%rax)
 1565              	.LVL145:
 298:fltk-1.3.4-1/jpeg/jcparam.c ****       (*cinfo->mem->alloc_small) ((j_common_ptr) cinfo, JPOOL_PERMANENT,
 1566              		.loc 1 298 22 view .LVU469
 1567 0190 48894568 		movq	%rax, 104(%rbp)
 1568 0194 E998FEFF 		jmp	.L85
 1568      FF
 1569              		.cfi_endproc
 1570              	.LFE58:
 1572              		.section	.text.jpeg_simple_progression,"ax",@progbits
 1573              		.p2align 4
 1574              		.globl	jpeg_simple_progression
 1576              	jpeg_simple_progression:
 1577              	.LVL146:
 1578              	.LFB64:
 590:fltk-1.3.4-1/jpeg/jcparam.c **** 
 591:fltk-1.3.4-1/jpeg/jcparam.c **** 
 592:fltk-1.3.4-1/jpeg/jcparam.c **** /*
 593:fltk-1.3.4-1/jpeg/jcparam.c ****  * Create a recommended progressive-JPEG script.
 594:fltk-1.3.4-1/jpeg/jcparam.c ****  * cinfo->num_components and cinfo->jpeg_color_space must be correct.
 595:fltk-1.3.4-1/jpeg/jcparam.c ****  */
 596:fltk-1.3.4-1/jpeg/jcparam.c **** 
 597:fltk-1.3.4-1/jpeg/jcparam.c **** GLOBAL(void)
 598:fltk-1.3.4-1/jpeg/jcparam.c **** jpeg_simple_progression (j_compress_ptr cinfo)
 599:fltk-1.3.4-1/jpeg/jcparam.c **** {
 1579              		.loc 1 599 1 is_stmt 1 view -0
 1580              		.cfi_startproc
 1581              		.loc 1 599 1 is_stmt 0 view .LVU471
 1582 0000 F30F1EFA 		endbr64
 600:fltk-1.3.4-1/jpeg/jcparam.c ****   int ncomps = cinfo->num_components;
 1583              		.loc 1 600 3 is_stmt 1 view .LVU472
 599:fltk-1.3.4-1/jpeg/jcparam.c ****   int ncomps = cinfo->num_components;
 1584              		.loc 1 599 1 is_stmt 0 view .LVU473
 1585 0004 4154     		pushq	%r12
 1586              		.cfi_def_cfa_offset 16
 1587              		.cfi_offset 12, -16
 1588 0006 55       		pushq	%rbp
 1589              		.cfi_def_cfa_offset 24
 1590              		.cfi_offset 6, -24
 1591 0007 53       		pushq	%rbx
 1592              		.cfi_def_cfa_offset 32
 1593              		.cfi_offset 3, -32
 601:fltk-1.3.4-1/jpeg/jcparam.c ****   int nscans;
 602:fltk-1.3.4-1/jpeg/jcparam.c ****   jpeg_scan_info * scanptr;
 603:fltk-1.3.4-1/jpeg/jcparam.c **** 
 604:fltk-1.3.4-1/jpeg/jcparam.c ****   /* Safety check to ensure start_compress not called yet. */
 605:fltk-1.3.4-1/jpeg/jcparam.c ****   if (cinfo->global_state != CSTATE_START)
 1594              		.loc 1 605 6 view .LVU474
 1595 0008 837F2464 		cmpl	$100, 36(%rdi)
 599:fltk-1.3.4-1/jpeg/jcparam.c ****   int ncomps = cinfo->num_components;
 1596              		.loc 1 599 1 view .LVU475
 1597 000c 4889FB   		movq	%rdi, %rbx
 600:fltk-1.3.4-1/jpeg/jcparam.c ****   int nscans;
 1598              		.loc 1 600 7 view .LVU476
 1599 000f 8B6F5C   		movl	92(%rdi), %ebp
 1600              	.LVL147:
 601:fltk-1.3.4-1/jpeg/jcparam.c ****   int nscans;
 1601              		.loc 1 601 3 is_stmt 1 view .LVU477
 602:fltk-1.3.4-1/jpeg/jcparam.c **** 
 1602              		.loc 1 602 3 view .LVU478
 1603              		.loc 1 605 3 view .LVU479
 1604              		.loc 1 605 6 is_stmt 0 view .LVU480
 1605 0012 7418     		je	.L91
 606:fltk-1.3.4-1/jpeg/jcparam.c ****     ERREXIT1(cinfo, JERR_BAD_STATE, cinfo->global_state);
 1606              		.loc 1 606 5 is_stmt 1 view .LVU481
 1607 0014 488B07   		movq	(%rdi), %rax
 1608 0017 C7402815 		movl	$21, 40(%rax)
 1608      000000
 1609 001e 488B07   		movq	(%rdi), %rax
 1610 0021 8B5724   		movl	36(%rdi), %edx
 1611 0024 89502C   		movl	%edx, 44(%rax)
 1612 0027 488B07   		movq	(%rdi), %rax
 1613 002a FF10     		call	*(%rax)
 1614              	.LVL148:
 1615              	.L91:
 607:fltk-1.3.4-1/jpeg/jcparam.c **** 
 608:fltk-1.3.4-1/jpeg/jcparam.c ****   /* Figure space needed for script.  Calculation must match code below! */
 609:fltk-1.3.4-1/jpeg/jcparam.c ****   if (ncomps == 3 &&
 1616              		.loc 1 609 3 view .LVU482
 1617              		.loc 1 609 6 is_stmt 0 view .LVU483
 1618 002c 83FD03   		cmpl	$3, %ebp
 1619 002f 0F84AB01 		je	.L118
 1619      0000
 610:fltk-1.3.4-1/jpeg/jcparam.c ****       (cinfo->jpeg_color_space == JCS_YCbCr ||
 611:fltk-1.3.4-1/jpeg/jcparam.c ****        cinfo->jpeg_color_space == JCS_BG_YCC)) {
 612:fltk-1.3.4-1/jpeg/jcparam.c ****     /* Custom script for YCC color images. */
 613:fltk-1.3.4-1/jpeg/jcparam.c ****     nscans = 10;
 614:fltk-1.3.4-1/jpeg/jcparam.c ****   } else {
 615:fltk-1.3.4-1/jpeg/jcparam.c ****     /* All-purpose script for other color spaces. */
 616:fltk-1.3.4-1/jpeg/jcparam.c ****     if (ncomps > MAX_COMPS_IN_SCAN)
 1620              		.loc 1 616 5 is_stmt 1 view .LVU484
 1621              		.loc 1 616 8 is_stmt 0 view .LVU485
 1622 0035 83FD04   		cmpl	$4, %ebp
 1623 0038 0F8EB701 		jle	.L94
 1623      0000
 617:fltk-1.3.4-1/jpeg/jcparam.c ****       nscans = 6 * ncomps;	/* 2 DC + 4 AC scans per component */
 1624              		.loc 1 617 7 is_stmt 1 view .LVU486
 1625              		.loc 1 617 14 is_stmt 0 view .LVU487
 1626 003e 448D646D 		leal	0(%rbp,%rbp,2), %r12d
 1626      00
 1627 0043 4501E4   		addl	%r12d, %r12d
 1628              	.LVL149:
 1629              	.L93:
 618:fltk-1.3.4-1/jpeg/jcparam.c ****     else
 619:fltk-1.3.4-1/jpeg/jcparam.c ****       nscans = 2 + 4 * ncomps;	/* 2 DC scans; 4 AC scans per component */
 620:fltk-1.3.4-1/jpeg/jcparam.c ****   }
 621:fltk-1.3.4-1/jpeg/jcparam.c **** 
 622:fltk-1.3.4-1/jpeg/jcparam.c ****   /* Allocate space for script.
 623:fltk-1.3.4-1/jpeg/jcparam.c ****    * We need to put it in the permanent pool in case the application performs
 624:fltk-1.3.4-1/jpeg/jcparam.c ****    * multiple compressions without changing the settings.  To avoid a memory
 625:fltk-1.3.4-1/jpeg/jcparam.c ****    * leak if jpeg_simple_progression is called repeatedly for the same JPEG
 626:fltk-1.3.4-1/jpeg/jcparam.c ****    * object, we try to re-use previously allocated space, and we allocate
 627:fltk-1.3.4-1/jpeg/jcparam.c ****    * enough space to handle YCC even if initially asked for grayscale.
 628:fltk-1.3.4-1/jpeg/jcparam.c ****    */
 629:fltk-1.3.4-1/jpeg/jcparam.c ****   if (cinfo->script_space == NULL || cinfo->script_space_size < nscans) {
 1630              		.loc 1 629 3 is_stmt 1 view .LVU488
 1631              		.loc 1 629 12 is_stmt 0 view .LVU489
 1632 0046 488BBB38 		movq	568(%rbx), %rdi
 1632      020000
 1633              		.loc 1 629 6 view .LVU490
 1634 004d 4885FF   		testq	%rdi, %rdi
 1635 0050 7409     		je	.L95
 1636              		.loc 1 629 35 discriminator 1 view .LVU491
 1637 0052 4439A340 		cmpl	%r12d, 576(%rbx)
 1637      020000
 1638 0059 7D32     		jge	.L96
 1639              	.L95:
 630:fltk-1.3.4-1/jpeg/jcparam.c ****     cinfo->script_space_size = MAX(nscans, 10);
 1640              		.loc 1 630 5 is_stmt 1 view .LVU492
 1641              		.loc 1 630 32 is_stmt 0 view .LVU493
 1642 005b 4183FC0A 		cmpl	$10, %r12d
 1643 005f B80A0000 		movl	$10, %eax
 1643      00
 631:fltk-1.3.4-1/jpeg/jcparam.c ****     cinfo->script_space = (jpeg_scan_info *)
 632:fltk-1.3.4-1/jpeg/jcparam.c ****       (*cinfo->mem->alloc_small) ((j_common_ptr) cinfo, JPOOL_PERMANENT,
 1644              		.loc 1 632 8 view .LVU494
 1645 0064 4889DF   		movq	%rbx, %rdi
 630:fltk-1.3.4-1/jpeg/jcparam.c ****     cinfo->script_space_size = MAX(nscans, 10);
 1646              		.loc 1 630 32 view .LVU495
 1647 0067 410F4DC4 		cmovge	%r12d, %eax
 1648              		.loc 1 632 8 view .LVU496
 1649 006b 31F6     		xorl	%esi, %esi
 630:fltk-1.3.4-1/jpeg/jcparam.c ****     cinfo->script_space_size = MAX(nscans, 10);
 1650              		.loc 1 630 30 view .LVU497
 1651 006d 89834002 		movl	%eax, 576(%rbx)
 1651      0000
 631:fltk-1.3.4-1/jpeg/jcparam.c ****     cinfo->script_space = (jpeg_scan_info *)
 1652              		.loc 1 631 5 is_stmt 1 view .LVU498
 633:fltk-1.3.4-1/jpeg/jcparam.c **** 			cinfo->script_space_size * SIZEOF(jpeg_scan_info));
 1653              		.loc 1 633 9 is_stmt 0 view .LVU499
 1654 0073 4898     		cltq
 632:fltk-1.3.4-1/jpeg/jcparam.c **** 			cinfo->script_space_size * SIZEOF(jpeg_scan_info));
 1655              		.loc 1 632 8 view .LVU500
 1656 0075 488D14C0 		leaq	(%rax,%rax,8), %rdx
 1657 0079 488B4308 		movq	8(%rbx), %rax
 1658 007d 48C1E202 		salq	$2, %rdx
 1659 0081 FF10     		call	*(%rax)
 1660              	.LVL150:
 631:fltk-1.3.4-1/jpeg/jcparam.c ****     cinfo->script_space = (jpeg_scan_info *)
 1661              		.loc 1 631 25 view .LVU501
 1662 0083 48898338 		movq	%rax, 568(%rbx)
 1662      020000
 632:fltk-1.3.4-1/jpeg/jcparam.c **** 			cinfo->script_space_size * SIZEOF(jpeg_scan_info));
 1663              		.loc 1 632 8 view .LVU502
 1664 008a 4889C7   		movq	%rax, %rdi
 1665              	.L96:
 634:fltk-1.3.4-1/jpeg/jcparam.c ****   }
 635:fltk-1.3.4-1/jpeg/jcparam.c ****   scanptr = cinfo->script_space;
 1666              		.loc 1 635 3 is_stmt 1 view .LVU503
 1667              	.LVL151:
 636:fltk-1.3.4-1/jpeg/jcparam.c ****   cinfo->scan_info = scanptr;
 1668              		.loc 1 636 3 view .LVU504
 1669              		.loc 1 636 20 is_stmt 0 view .LVU505
 1670 008d 4889BB18 		movq	%rdi, 280(%rbx)
 1670      010000
 637:fltk-1.3.4-1/jpeg/jcparam.c ****   cinfo->num_scans = nscans;
 1671              		.loc 1 637 3 is_stmt 1 view .LVU506
 1672              		.loc 1 637 20 is_stmt 0 view .LVU507
 1673 0094 4489A310 		movl	%r12d, 272(%rbx)
 1673      010000
 638:fltk-1.3.4-1/jpeg/jcparam.c **** 
 639:fltk-1.3.4-1/jpeg/jcparam.c ****   if (ncomps == 3 &&
 1674              		.loc 1 639 3 is_stmt 1 view .LVU508
 1675              		.loc 1 639 6 is_stmt 0 view .LVU509
 1676 009b 83FD03   		cmpl	$3, %ebp
 1677 009e 0F856401 		jne	.L97
 1677      0000
 640:fltk-1.3.4-1/jpeg/jcparam.c ****       (cinfo->jpeg_color_space == JCS_YCbCr ||
 1678              		.loc 1 640 45 discriminator 1 view .LVU510
 1679 00a4 8B4360   		movl	96(%rbx), %eax
 1680 00a7 83E0FB   		andl	$-5, %eax
 639:fltk-1.3.4-1/jpeg/jcparam.c ****       (cinfo->jpeg_color_space == JCS_YCbCr ||
 1681              		.loc 1 639 19 discriminator 1 view .LVU511
 1682 00aa 83F803   		cmpl	$3, %eax
 1683 00ad 0F848501 		je	.L119
 1683      0000
 641:fltk-1.3.4-1/jpeg/jcparam.c ****        cinfo->jpeg_color_space == JCS_BG_YCC)) {
 642:fltk-1.3.4-1/jpeg/jcparam.c ****     /* Custom script for YCC color images. */
 643:fltk-1.3.4-1/jpeg/jcparam.c ****     /* Initial DC scan */
 644:fltk-1.3.4-1/jpeg/jcparam.c ****     scanptr = fill_dc_scans(scanptr, ncomps, 0, 1);
 645:fltk-1.3.4-1/jpeg/jcparam.c ****     /* Initial AC scan: get some luma data out in a hurry */
 646:fltk-1.3.4-1/jpeg/jcparam.c ****     scanptr = fill_a_scan(scanptr, 0, 1, 5, 0, 2);
 647:fltk-1.3.4-1/jpeg/jcparam.c ****     /* Chroma data is too small to be worth expending many scans on */
 648:fltk-1.3.4-1/jpeg/jcparam.c ****     scanptr = fill_a_scan(scanptr, 2, 1, 63, 0, 1);
 649:fltk-1.3.4-1/jpeg/jcparam.c ****     scanptr = fill_a_scan(scanptr, 1, 1, 63, 0, 1);
 650:fltk-1.3.4-1/jpeg/jcparam.c ****     /* Complete spectral selection for luma AC */
 651:fltk-1.3.4-1/jpeg/jcparam.c ****     scanptr = fill_a_scan(scanptr, 0, 6, 63, 0, 2);
 652:fltk-1.3.4-1/jpeg/jcparam.c ****     /* Refine next bit of luma AC */
 653:fltk-1.3.4-1/jpeg/jcparam.c ****     scanptr = fill_a_scan(scanptr, 0, 1, 63, 2, 1);
 654:fltk-1.3.4-1/jpeg/jcparam.c ****     /* Finish DC successive approximation */
 655:fltk-1.3.4-1/jpeg/jcparam.c ****     scanptr = fill_dc_scans(scanptr, ncomps, 1, 0);
 656:fltk-1.3.4-1/jpeg/jcparam.c ****     /* Finish AC successive approximation */
 657:fltk-1.3.4-1/jpeg/jcparam.c ****     scanptr = fill_a_scan(scanptr, 2, 1, 63, 1, 0);
 658:fltk-1.3.4-1/jpeg/jcparam.c ****     scanptr = fill_a_scan(scanptr, 1, 1, 63, 1, 0);
 659:fltk-1.3.4-1/jpeg/jcparam.c ****     /* Luma bottom bit comes last since it's usually largest scan */
 660:fltk-1.3.4-1/jpeg/jcparam.c ****     scanptr = fill_a_scan(scanptr, 0, 1, 63, 1, 0);
 661:fltk-1.3.4-1/jpeg/jcparam.c ****   } else {
 662:fltk-1.3.4-1/jpeg/jcparam.c ****     /* All-purpose script for other color spaces. */
 663:fltk-1.3.4-1/jpeg/jcparam.c ****     /* Successive approximation first pass */
 664:fltk-1.3.4-1/jpeg/jcparam.c ****     scanptr = fill_dc_scans(scanptr, ncomps, 0, 1);
 1684              		.loc 1 664 5 is_stmt 1 view .LVU512
 1685              		.loc 1 664 15 is_stmt 0 view .LVU513
 1686 00b3 B9010000 		movl	$1, %ecx
 1686      00
 1687 00b8 31D2     		xorl	%edx, %edx
 1688 00ba BE030000 		movl	$3, %esi
 1688      00
 1689 00bf E8000000 		call	fill_dc_scans
 1689      00
 1690              	.LVL152:
 1691              		.loc 1 664 15 view .LVU514
 1692 00c4 4889C7   		movq	%rax, %rdi
 1693              	.LVL153:
 665:fltk-1.3.4-1/jpeg/jcparam.c ****     scanptr = fill_scans(scanptr, ncomps, 1, 5, 0, 2);
 1694              		.loc 1 665 5 is_stmt 1 view .LVU515
 1695              	.LBB120:
 1696              	.LBI120:
 551:fltk-1.3.4-1/jpeg/jcparam.c **** 	    int Ss, int Se, int Ah, int Al)
 1697              		.loc 1 551 1 view .LVU516
 1698              	.LBB121:
 555:fltk-1.3.4-1/jpeg/jcparam.c **** 
 1699              		.loc 1 555 3 view .LVU517
 557:fltk-1.3.4-1/jpeg/jcparam.c ****     scanptr->comps_in_scan = 1;
 1700              		.loc 1 557 3 view .LVU518
 557:fltk-1.3.4-1/jpeg/jcparam.c ****     scanptr->comps_in_scan = 1;
 1701              		.loc 1 557 16 view .LVU519
 1702              	.L106:
 557:fltk-1.3.4-1/jpeg/jcparam.c ****     scanptr->comps_in_scan = 1;
 1703              		.loc 1 557 16 is_stmt 0 view .LVU520
 1704              	.LBE121:
 1705              	.LBE120:
 613:fltk-1.3.4-1/jpeg/jcparam.c ****   } else {
 1706              		.loc 1 613 12 view .LVU521
 1707 00c7 4889FA   		movq	%rdi, %rdx
 1708 00ca 31C9     		xorl	%ecx, %ecx
 1709              	.LVL154:
 1710 00cc 0F1F4000 		.p2align 4,,10
 1711              		.p2align 3
 1712              	.L101:
 1713              	.LBB124:
 1714              	.LBB122:
 558:fltk-1.3.4-1/jpeg/jcparam.c ****     scanptr->component_index[0] = ci;
 1715              		.loc 1 558 5 is_stmt 1 view .LVU522
 559:fltk-1.3.4-1/jpeg/jcparam.c ****     scanptr->Ss = Ss;
 1716              		.loc 1 559 33 is_stmt 0 view .LVU523
 1717 00d0 894A04   		movl	%ecx, 4(%rdx)
 557:fltk-1.3.4-1/jpeg/jcparam.c ****     scanptr->comps_in_scan = 1;
 1718              		.loc 1 557 31 view .LVU524
 1719 00d3 83C101   		addl	$1, %ecx
 1720              	.LVL155:
 564:fltk-1.3.4-1/jpeg/jcparam.c ****   }
 1721              		.loc 1 564 12 view .LVU525
 1722 00d6 4883C224 		addq	$36, %rdx
 1723              	.LVL156:
 558:fltk-1.3.4-1/jpeg/jcparam.c ****     scanptr->component_index[0] = ci;
 1724              		.loc 1 558 28 view .LVU526
 1725 00da C742DC01 		movl	$1, -36(%rdx)
 1725      000000
 559:fltk-1.3.4-1/jpeg/jcparam.c ****     scanptr->Ss = Ss;
 1726              		.loc 1 559 5 is_stmt 1 view .LVU527
 560:fltk-1.3.4-1/jpeg/jcparam.c ****     scanptr->Se = Se;
 1727              		.loc 1 560 5 view .LVU528
 560:fltk-1.3.4-1/jpeg/jcparam.c ****     scanptr->Se = Se;
 1728              		.loc 1 560 17 is_stmt 0 view .LVU529
 1729 00e1 C742F001 		movl	$1, -16(%rdx)
 1729      000000
 561:fltk-1.3.4-1/jpeg/jcparam.c ****     scanptr->Ah = Ah;
 1730              		.loc 1 561 5 is_stmt 1 view .LVU530
 561:fltk-1.3.4-1/jpeg/jcparam.c ****     scanptr->Ah = Ah;
 1731              		.loc 1 561 17 is_stmt 0 view .LVU531
 1732 00e8 C742F405 		movl	$5, -12(%rdx)
 1732      000000
 562:fltk-1.3.4-1/jpeg/jcparam.c ****     scanptr->Al = Al;
 1733              		.loc 1 562 5 is_stmt 1 view .LVU532
 562:fltk-1.3.4-1/jpeg/jcparam.c ****     scanptr->Al = Al;
 1734              		.loc 1 562 17 is_stmt 0 view .LVU533
 1735 00ef C742F800 		movl	$0, -8(%rdx)
 1735      000000
 563:fltk-1.3.4-1/jpeg/jcparam.c ****     scanptr++;
 1736              		.loc 1 563 5 is_stmt 1 view .LVU534
 563:fltk-1.3.4-1/jpeg/jcparam.c ****     scanptr++;
 1737              		.loc 1 563 17 is_stmt 0 view .LVU535
 1738 00f6 C742FC02 		movl	$2, -4(%rdx)
 1738      000000
 564:fltk-1.3.4-1/jpeg/jcparam.c ****   }
 1739              		.loc 1 564 5 is_stmt 1 view .LVU536
 1740              	.LVL157:
 557:fltk-1.3.4-1/jpeg/jcparam.c ****     scanptr->comps_in_scan = 1;
 1741              		.loc 1 557 29 view .LVU537
 557:fltk-1.3.4-1/jpeg/jcparam.c ****     scanptr->comps_in_scan = 1;
 1742              		.loc 1 557 16 view .LVU538
 557:fltk-1.3.4-1/jpeg/jcparam.c ****     scanptr->comps_in_scan = 1;
 1743              		.loc 1 557 3 is_stmt 0 view .LVU539
 1744 00fd 39CD     		cmpl	%ecx, %ebp
 1745 00ff 7FCF     		jg	.L101
 1746 0101 8D45FF   		leal	-1(%rbp), %eax
 1747              	.LVL158:
 557:fltk-1.3.4-1/jpeg/jcparam.c ****     scanptr->comps_in_scan = 1;
 1748              		.loc 1 557 3 view .LVU540
 1749 0104 488D4CC0 		leaq	9(%rax,%rax,8), %rcx
 1749      09
 1750              	.LVL159:
 557:fltk-1.3.4-1/jpeg/jcparam.c ****     scanptr->comps_in_scan = 1;
 1751              		.loc 1 557 3 view .LVU541
 1752 0109 B8240000 		movl	$36, %eax
 1752      00
 1753 010e 48C1E102 		salq	$2, %rcx
 1754 0112 85ED     		testl	%ebp, %ebp
 1755 0114 480F4EC8 		cmovle	%rax, %rcx
 1756 0118 31D2     		xorl	%edx, %edx
 1757              	.LVL160:
 557:fltk-1.3.4-1/jpeg/jcparam.c ****     scanptr->comps_in_scan = 1;
 1758              		.loc 1 557 3 view .LVU542
 1759 011a 4801CF   		addq	%rcx, %rdi
 1760              	.LVL161:
 564:fltk-1.3.4-1/jpeg/jcparam.c ****   }
 1761              		.loc 1 564 12 view .LVU543
 1762 011d 4889F8   		movq	%rdi, %rax
 1763              	.LVL162:
 1764              		.p2align 4,,10
 1765              		.p2align 3
 1766              	.L102:
 564:fltk-1.3.4-1/jpeg/jcparam.c ****   }
 1767              		.loc 1 564 12 view .LVU544
 1768              	.LBE122:
 1769              	.LBE124:
 1770              	.LBB125:
 1771              	.LBB126:
 558:fltk-1.3.4-1/jpeg/jcparam.c ****     scanptr->component_index[0] = ci;
 1772              		.loc 1 558 5 is_stmt 1 view .LVU545
 559:fltk-1.3.4-1/jpeg/jcparam.c ****     scanptr->Ss = Ss;
 1773              		.loc 1 559 33 is_stmt 0 view .LVU546
 1774 0120 895004   		movl	%edx, 4(%rax)
 557:fltk-1.3.4-1/jpeg/jcparam.c ****     scanptr->comps_in_scan = 1;
 1775              		.loc 1 557 31 view .LVU547
 1776 0123 83C201   		addl	$1, %edx
 1777              	.LVL163:
 564:fltk-1.3.4-1/jpeg/jcparam.c ****   }
 1778              		.loc 1 564 12 view .LVU548
 1779 0126 4883C024 		addq	$36, %rax
 1780              	.LVL164:
 558:fltk-1.3.4-1/jpeg/jcparam.c ****     scanptr->component_index[0] = ci;
 1781              		.loc 1 558 28 view .LVU549
 1782 012a C740DC01 		movl	$1, -36(%rax)
 1782      000000
 559:fltk-1.3.4-1/jpeg/jcparam.c ****     scanptr->Ss = Ss;
 1783              		.loc 1 559 5 is_stmt 1 view .LVU550
 560:fltk-1.3.4-1/jpeg/jcparam.c ****     scanptr->Se = Se;
 1784              		.loc 1 560 5 view .LVU551
 560:fltk-1.3.4-1/jpeg/jcparam.c ****     scanptr->Se = Se;
 1785              		.loc 1 560 17 is_stmt 0 view .LVU552
 1786 0131 C740F006 		movl	$6, -16(%rax)
 1786      000000
 561:fltk-1.3.4-1/jpeg/jcparam.c ****     scanptr->Ah = Ah;
 1787              		.loc 1 561 5 is_stmt 1 view .LVU553
 561:fltk-1.3.4-1/jpeg/jcparam.c ****     scanptr->Ah = Ah;
 1788              		.loc 1 561 17 is_stmt 0 view .LVU554
 1789 0138 C740F43F 		movl	$63, -12(%rax)
 1789      000000
 562:fltk-1.3.4-1/jpeg/jcparam.c ****     scanptr->Al = Al;
 1790              		.loc 1 562 5 is_stmt 1 view .LVU555
 562:fltk-1.3.4-1/jpeg/jcparam.c ****     scanptr->Al = Al;
 1791              		.loc 1 562 17 is_stmt 0 view .LVU556
 1792 013f C740F800 		movl	$0, -8(%rax)
 1792      000000
 563:fltk-1.3.4-1/jpeg/jcparam.c ****     scanptr++;
 1793              		.loc 1 563 5 is_stmt 1 view .LVU557
 563:fltk-1.3.4-1/jpeg/jcparam.c ****     scanptr++;
 1794              		.loc 1 563 17 is_stmt 0 view .LVU558
 1795 0146 C740FC02 		movl	$2, -4(%rax)
 1795      000000
 564:fltk-1.3.4-1/jpeg/jcparam.c ****   }
 1796              		.loc 1 564 5 is_stmt 1 view .LVU559
 1797              	.LVL165:
 557:fltk-1.3.4-1/jpeg/jcparam.c ****     scanptr->comps_in_scan = 1;
 1798              		.loc 1 557 29 view .LVU560
 557:fltk-1.3.4-1/jpeg/jcparam.c ****     scanptr->comps_in_scan = 1;
 1799              		.loc 1 557 16 view .LVU561
 557:fltk-1.3.4-1/jpeg/jcparam.c ****     scanptr->comps_in_scan = 1;
 1800              		.loc 1 557 3 is_stmt 0 view .LVU562
 1801 014d 39D5     		cmpl	%edx, %ebp
 1802 014f 7FCF     		jg	.L102
 1803 0151 4801CF   		addq	%rcx, %rdi
 1804 0154 31D2     		xorl	%edx, %edx
 1805              	.LVL166:
 564:fltk-1.3.4-1/jpeg/jcparam.c ****   }
 1806              		.loc 1 564 12 view .LVU563
 1807 0156 4889F8   		movq	%rdi, %rax
 1808              	.LVL167:
 1809 0159 0F1F8000 		.p2align 4,,10
 1809      000000
 1810              		.p2align 3
 1811              	.L103:
 564:fltk-1.3.4-1/jpeg/jcparam.c ****   }
 1812              		.loc 1 564 12 view .LVU564
 1813              	.LBE126:
 1814              	.LBE125:
 1815              	.LBB128:
 1816              	.LBB129:
 558:fltk-1.3.4-1/jpeg/jcparam.c ****     scanptr->component_index[0] = ci;
 1817              		.loc 1 558 5 is_stmt 1 view .LVU565
 559:fltk-1.3.4-1/jpeg/jcparam.c ****     scanptr->Ss = Ss;
 1818              		.loc 1 559 33 is_stmt 0 view .LVU566
 1819 0160 895004   		movl	%edx, 4(%rax)
 557:fltk-1.3.4-1/jpeg/jcparam.c ****     scanptr->comps_in_scan = 1;
 1820              		.loc 1 557 31 view .LVU567
 1821 0163 83C201   		addl	$1, %edx
 1822              	.LVL168:
 564:fltk-1.3.4-1/jpeg/jcparam.c ****   }
 1823              		.loc 1 564 12 view .LVU568
 1824 0166 4883C024 		addq	$36, %rax
 1825              	.LVL169:
 558:fltk-1.3.4-1/jpeg/jcparam.c ****     scanptr->component_index[0] = ci;
 1826              		.loc 1 558 28 view .LVU569
 1827 016a C740DC01 		movl	$1, -36(%rax)
 1827      000000
 559:fltk-1.3.4-1/jpeg/jcparam.c ****     scanptr->Ss = Ss;
 1828              		.loc 1 559 5 is_stmt 1 view .LVU570
 560:fltk-1.3.4-1/jpeg/jcparam.c ****     scanptr->Se = Se;
 1829              		.loc 1 560 5 view .LVU571
 560:fltk-1.3.4-1/jpeg/jcparam.c ****     scanptr->Se = Se;
 1830              		.loc 1 560 17 is_stmt 0 view .LVU572
 1831 0171 C740F001 		movl	$1, -16(%rax)
 1831      000000
 561:fltk-1.3.4-1/jpeg/jcparam.c ****     scanptr->Ah = Ah;
 1832              		.loc 1 561 5 is_stmt 1 view .LVU573
 561:fltk-1.3.4-1/jpeg/jcparam.c ****     scanptr->Ah = Ah;
 1833              		.loc 1 561 17 is_stmt 0 view .LVU574
 1834 0178 C740F43F 		movl	$63, -12(%rax)
 1834      000000
 562:fltk-1.3.4-1/jpeg/jcparam.c ****     scanptr->Al = Al;
 1835              		.loc 1 562 5 is_stmt 1 view .LVU575
 562:fltk-1.3.4-1/jpeg/jcparam.c ****     scanptr->Al = Al;
 1836              		.loc 1 562 17 is_stmt 0 view .LVU576
 1837 017f C740F802 		movl	$2, -8(%rax)
 1837      000000
 563:fltk-1.3.4-1/jpeg/jcparam.c ****     scanptr++;
 1838              		.loc 1 563 5 is_stmt 1 view .LVU577
 563:fltk-1.3.4-1/jpeg/jcparam.c ****     scanptr++;
 1839              		.loc 1 563 17 is_stmt 0 view .LVU578
 1840 0186 C740FC01 		movl	$1, -4(%rax)
 1840      000000
 564:fltk-1.3.4-1/jpeg/jcparam.c ****   }
 1841              		.loc 1 564 5 is_stmt 1 view .LVU579
 1842              	.LVL170:
 557:fltk-1.3.4-1/jpeg/jcparam.c ****     scanptr->comps_in_scan = 1;
 1843              		.loc 1 557 29 view .LVU580
 557:fltk-1.3.4-1/jpeg/jcparam.c ****     scanptr->comps_in_scan = 1;
 1844              		.loc 1 557 16 view .LVU581
 557:fltk-1.3.4-1/jpeg/jcparam.c ****     scanptr->comps_in_scan = 1;
 1845              		.loc 1 557 3 is_stmt 0 view .LVU582
 1846 018d 39D5     		cmpl	%edx, %ebp
 1847 018f 7FCF     		jg	.L103
 566:fltk-1.3.4-1/jpeg/jcparam.c **** }
 1848              		.loc 1 566 3 is_stmt 1 view .LVU583
 1849              	.LVL171:
 566:fltk-1.3.4-1/jpeg/jcparam.c **** }
 1850              		.loc 1 566 3 is_stmt 0 view .LVU584
 1851              	.LBE129:
 1852              	.LBE128:
 666:fltk-1.3.4-1/jpeg/jcparam.c ****     scanptr = fill_scans(scanptr, ncomps, 6, 63, 0, 2);
 667:fltk-1.3.4-1/jpeg/jcparam.c ****     /* Successive approximation second pass */
 668:fltk-1.3.4-1/jpeg/jcparam.c ****     scanptr = fill_scans(scanptr, ncomps, 1, 63, 2, 1);
 669:fltk-1.3.4-1/jpeg/jcparam.c ****     /* Successive approximation final pass */
 670:fltk-1.3.4-1/jpeg/jcparam.c ****     scanptr = fill_dc_scans(scanptr, ncomps, 1, 0);
 1853              		.loc 1 670 5 is_stmt 1 view .LVU585
 1854              		.loc 1 670 15 is_stmt 0 view .LVU586
 1855 0191 4801CF   		addq	%rcx, %rdi
 1856              	.LVL172:
 1857              		.loc 1 670 15 view .LVU587
 1858 0194 BA010000 		movl	$1, %edx
 1858      00
 1859 0199 31C9     		xorl	%ecx, %ecx
 1860 019b 89EE     		movl	%ebp, %esi
 1861 019d E8000000 		call	fill_dc_scans
 1861      00
 1862              	.LVL173:
 671:fltk-1.3.4-1/jpeg/jcparam.c ****     scanptr = fill_scans(scanptr, ncomps, 1, 63, 1, 0);
 1863              		.loc 1 671 5 is_stmt 1 view .LVU588
 1864              	.LBB131:
 1865              	.LBI131:
 551:fltk-1.3.4-1/jpeg/jcparam.c **** 	    int Ss, int Se, int Ah, int Al)
 1866              		.loc 1 551 1 view .LVU589
 1867              	.LBB132:
 557:fltk-1.3.4-1/jpeg/jcparam.c ****     scanptr->comps_in_scan = 1;
 1868              		.loc 1 557 16 view .LVU590
 1869              	.LBE132:
 1870              	.LBE131:
 670:fltk-1.3.4-1/jpeg/jcparam.c ****     scanptr = fill_scans(scanptr, ncomps, 1, 63, 1, 0);
 1871              		.loc 1 670 15 is_stmt 0 view .LVU591
 1872 01a2 31D2     		xorl	%edx, %edx
 1873              	.LVL174:
 1874              		.p2align 4,,10
 1875 01a4 0F1F4000 		.p2align 3
 1876              	.L105:
 1877              	.LBB134:
 1878              	.LBB133:
 558:fltk-1.3.4-1/jpeg/jcparam.c ****     scanptr->component_index[0] = ci;
 1879              		.loc 1 558 5 is_stmt 1 view .LVU592
 559:fltk-1.3.4-1/jpeg/jcparam.c ****     scanptr->Ss = Ss;
 1880              		.loc 1 559 33 is_stmt 0 view .LVU593
 1881 01a8 895004   		movl	%edx, 4(%rax)
 557:fltk-1.3.4-1/jpeg/jcparam.c ****     scanptr->comps_in_scan = 1;
 1882              		.loc 1 557 31 view .LVU594
 1883 01ab 83C201   		addl	$1, %edx
 1884              	.LVL175:
 564:fltk-1.3.4-1/jpeg/jcparam.c ****   }
 1885              		.loc 1 564 12 view .LVU595
 1886 01ae 4883C024 		addq	$36, %rax
 1887              	.LVL176:
 558:fltk-1.3.4-1/jpeg/jcparam.c ****     scanptr->component_index[0] = ci;
 1888              		.loc 1 558 28 view .LVU596
 1889 01b2 C740DC01 		movl	$1, -36(%rax)
 1889      000000
 559:fltk-1.3.4-1/jpeg/jcparam.c ****     scanptr->Ss = Ss;
 1890              		.loc 1 559 5 is_stmt 1 view .LVU597
 560:fltk-1.3.4-1/jpeg/jcparam.c ****     scanptr->Se = Se;
 1891              		.loc 1 560 5 view .LVU598
 560:fltk-1.3.4-1/jpeg/jcparam.c ****     scanptr->Se = Se;
 1892              		.loc 1 560 17 is_stmt 0 view .LVU599
 1893 01b9 C740F001 		movl	$1, -16(%rax)
 1893      000000
 561:fltk-1.3.4-1/jpeg/jcparam.c ****     scanptr->Ah = Ah;
 1894              		.loc 1 561 5 is_stmt 1 view .LVU600
 561:fltk-1.3.4-1/jpeg/jcparam.c ****     scanptr->Ah = Ah;
 1895              		.loc 1 561 17 is_stmt 0 view .LVU601
 1896 01c0 C740F43F 		movl	$63, -12(%rax)
 1896      000000
 562:fltk-1.3.4-1/jpeg/jcparam.c ****     scanptr->Al = Al;
 1897              		.loc 1 562 5 is_stmt 1 view .LVU602
 562:fltk-1.3.4-1/jpeg/jcparam.c ****     scanptr->Al = Al;
 1898              		.loc 1 562 17 is_stmt 0 view .LVU603
 1899 01c7 C740F801 		movl	$1, -8(%rax)
 1899      000000
 563:fltk-1.3.4-1/jpeg/jcparam.c ****     scanptr++;
 1900              		.loc 1 563 5 is_stmt 1 view .LVU604
 563:fltk-1.3.4-1/jpeg/jcparam.c ****     scanptr++;
 1901              		.loc 1 563 17 is_stmt 0 view .LVU605
 1902 01ce C740FC00 		movl	$0, -4(%rax)
 1902      000000
 564:fltk-1.3.4-1/jpeg/jcparam.c ****   }
 1903              		.loc 1 564 5 is_stmt 1 view .LVU606
 1904              	.LVL177:
 557:fltk-1.3.4-1/jpeg/jcparam.c ****     scanptr->comps_in_scan = 1;
 1905              		.loc 1 557 29 view .LVU607
 557:fltk-1.3.4-1/jpeg/jcparam.c ****     scanptr->comps_in_scan = 1;
 1906              		.loc 1 557 16 view .LVU608
 557:fltk-1.3.4-1/jpeg/jcparam.c ****     scanptr->comps_in_scan = 1;
 1907              		.loc 1 557 3 is_stmt 0 view .LVU609
 1908 01d5 39D5     		cmpl	%edx, %ebp
 1909 01d7 7FCF     		jg	.L105
 1910              	.LBE133:
 1911              	.LBE134:
 672:fltk-1.3.4-1/jpeg/jcparam.c ****   }
 673:fltk-1.3.4-1/jpeg/jcparam.c **** }
 1912              		.loc 1 673 1 view .LVU610
 1913 01d9 5B       		popq	%rbx
 1914              		.cfi_remember_state
 1915              		.cfi_def_cfa_offset 24
 1916              	.LVL178:
 1917              		.loc 1 673 1 view .LVU611
 1918 01da 5D       		popq	%rbp
 1919              		.cfi_def_cfa_offset 16
 1920 01db 415C     		popq	%r12
 1921              		.cfi_def_cfa_offset 8
 1922              	.LVL179:
 1923              		.loc 1 673 1 view .LVU612
 1924 01dd C3       		ret
 1925              	.LVL180:
 1926 01de 6690     		.p2align 4,,10
 1927              		.p2align 3
 1928              	.L118:
 1929              		.cfi_restore_state
 610:fltk-1.3.4-1/jpeg/jcparam.c ****        cinfo->jpeg_color_space == JCS_BG_YCC)) {
 1930              		.loc 1 610 45 discriminator 1 view .LVU613
 1931 01e0 8B4360   		movl	96(%rbx), %eax
 613:fltk-1.3.4-1/jpeg/jcparam.c ****   } else {
 1932              		.loc 1 613 12 discriminator 1 view .LVU614
 1933 01e3 41BC0A00 		movl	$10, %r12d
 1933      0000
 610:fltk-1.3.4-1/jpeg/jcparam.c ****        cinfo->jpeg_color_space == JCS_BG_YCC)) {
 1934              		.loc 1 610 45 discriminator 1 view .LVU615
 1935 01e9 83E0FB   		andl	$-5, %eax
 609:fltk-1.3.4-1/jpeg/jcparam.c ****       (cinfo->jpeg_color_space == JCS_YCbCr ||
 1936              		.loc 1 609 19 discriminator 1 view .LVU616
 1937 01ec 83F803   		cmpl	$3, %eax
 1938 01ef 0F8451FE 		je	.L93
 1938      FFFF
 1939              	.L94:
 619:fltk-1.3.4-1/jpeg/jcparam.c ****   }
 1940              		.loc 1 619 7 is_stmt 1 view .LVU617
 619:fltk-1.3.4-1/jpeg/jcparam.c ****   }
 1941              		.loc 1 619 14 is_stmt 0 view .LVU618
 1942 01f5 448D24AD 		leal	2(,%rbp,4), %r12d
 1942      02000000 
 1943              	.LVL181:
 619:fltk-1.3.4-1/jpeg/jcparam.c ****   }
 1944              		.loc 1 619 14 view .LVU619
 1945 01fd E944FEFF 		jmp	.L93
 1945      FF
 1946              	.LVL182:
 1947              		.p2align 4,,10
 1948 0202 660F1F44 		.p2align 3
 1948      0000
 1949              	.L97:
 664:fltk-1.3.4-1/jpeg/jcparam.c ****     scanptr = fill_scans(scanptr, ncomps, 1, 5, 0, 2);
 1950              		.loc 1 664 5 is_stmt 1 view .LVU620
 664:fltk-1.3.4-1/jpeg/jcparam.c ****     scanptr = fill_scans(scanptr, ncomps, 1, 5, 0, 2);
 1951              		.loc 1 664 15 is_stmt 0 view .LVU621
 1952 0208 B9010000 		movl	$1, %ecx
 1952      00
 1953 020d 31D2     		xorl	%edx, %edx
 1954 020f 89EE     		movl	%ebp, %esi
 1955 0211 E8000000 		call	fill_dc_scans
 1955      00
 1956              	.LVL183:
 664:fltk-1.3.4-1/jpeg/jcparam.c ****     scanptr = fill_scans(scanptr, ncomps, 1, 5, 0, 2);
 1957              		.loc 1 664 15 view .LVU622
 1958 0216 4889C7   		movq	%rax, %rdi
 1959              	.LVL184:
 665:fltk-1.3.4-1/jpeg/jcparam.c ****     scanptr = fill_scans(scanptr, ncomps, 6, 63, 0, 2);
 1960              		.loc 1 665 5 is_stmt 1 view .LVU623
 1961              	.LBB135:
 551:fltk-1.3.4-1/jpeg/jcparam.c **** 	    int Ss, int Se, int Ah, int Al)
 1962              		.loc 1 551 1 view .LVU624
 1963              	.LBB123:
 555:fltk-1.3.4-1/jpeg/jcparam.c **** 
 1964              		.loc 1 555 3 view .LVU625
 557:fltk-1.3.4-1/jpeg/jcparam.c ****     scanptr->comps_in_scan = 1;
 1965              		.loc 1 557 3 view .LVU626
 557:fltk-1.3.4-1/jpeg/jcparam.c ****     scanptr->comps_in_scan = 1;
 1966              		.loc 1 557 16 view .LVU627
 557:fltk-1.3.4-1/jpeg/jcparam.c ****     scanptr->comps_in_scan = 1;
 1967              		.loc 1 557 3 is_stmt 0 view .LVU628
 1968 0219 85ED     		testl	%ebp, %ebp
 1969 021b 0F8FA6FE 		jg	.L106
 1969      FFFF
 1970              	.LVL185:
 557:fltk-1.3.4-1/jpeg/jcparam.c ****     scanptr->comps_in_scan = 1;
 1971              		.loc 1 557 3 view .LVU629
 1972              	.LBE123:
 1973              	.LBE135:
 1974              	.LBB136:
 1975              	.LBB127:
 557:fltk-1.3.4-1/jpeg/jcparam.c ****     scanptr->comps_in_scan = 1;
 1976              		.loc 1 557 16 is_stmt 1 view .LVU630
 557:fltk-1.3.4-1/jpeg/jcparam.c ****     scanptr->comps_in_scan = 1;
 1977              		.loc 1 557 16 is_stmt 0 view .LVU631
 1978              	.LBE127:
 1979              	.LBE136:
 1980              	.LBB137:
 1981              	.LBB130:
 557:fltk-1.3.4-1/jpeg/jcparam.c ****     scanptr->comps_in_scan = 1;
 1982              		.loc 1 557 16 is_stmt 1 view .LVU632
 566:fltk-1.3.4-1/jpeg/jcparam.c **** }
 1983              		.loc 1 566 3 view .LVU633
 566:fltk-1.3.4-1/jpeg/jcparam.c **** }
 1984              		.loc 1 566 3 is_stmt 0 view .LVU634
 1985              	.LBE130:
 1986              	.LBE137:
 670:fltk-1.3.4-1/jpeg/jcparam.c ****     scanptr = fill_scans(scanptr, ncomps, 1, 63, 1, 0);
 1987              		.loc 1 670 5 is_stmt 1 view .LVU635
 1988              		.loc 1 673 1 is_stmt 0 view .LVU636
 1989 0221 5B       		popq	%rbx
 1990              		.cfi_remember_state
 1991              		.cfi_def_cfa_offset 24
 1992              	.LVL186:
 670:fltk-1.3.4-1/jpeg/jcparam.c ****     scanptr = fill_scans(scanptr, ncomps, 1, 63, 1, 0);
 1993              		.loc 1 670 15 view .LVU637
 1994 0222 31C9     		xorl	%ecx, %ecx
 1995              		.loc 1 673 1 view .LVU638
 1996 0224 5D       		popq	%rbp
 1997              		.cfi_def_cfa_offset 16
 670:fltk-1.3.4-1/jpeg/jcparam.c ****     scanptr = fill_scans(scanptr, ncomps, 1, 63, 1, 0);
 1998              		.loc 1 670 15 view .LVU639
 1999 0225 BA010000 		movl	$1, %edx
 1999      00
 2000              		.loc 1 673 1 view .LVU640
 2001 022a 415C     		popq	%r12
 2002              		.cfi_def_cfa_offset 8
 2003              	.LVL187:
 670:fltk-1.3.4-1/jpeg/jcparam.c ****     scanptr = fill_scans(scanptr, ncomps, 1, 63, 1, 0);
 2004              		.loc 1 670 15 view .LVU641
 2005 022c E9000000 		jmp	fill_dc_scans
 2005      00
 2006              	.LVL188:
 2007              		.p2align 4,,10
 2008 0231 0F1F8000 		.p2align 3
 2008      000000
 2009              	.L119:
 2010              		.cfi_restore_state
 644:fltk-1.3.4-1/jpeg/jcparam.c ****     /* Initial AC scan: get some luma data out in a hurry */
 2011              		.loc 1 644 5 is_stmt 1 view .LVU642
 2012              	.LBB138:
 2013              	.LBI138:
 570:fltk-1.3.4-1/jpeg/jcparam.c **** /* Support routine: generate interleaved DC scan if possible, else N scans */
 2014              		.loc 1 570 1 view .LVU643
 2015              	.LBB139:
 573:fltk-1.3.4-1/jpeg/jcparam.c **** 
 2016              		.loc 1 573 3 view .LVU644
 575:fltk-1.3.4-1/jpeg/jcparam.c ****     /* Single interleaved DC scan */
 2017              		.loc 1 575 3 view .LVU645
 2018              	.LBB140:
 2019              	.LBI140:
 570:fltk-1.3.4-1/jpeg/jcparam.c **** /* Support routine: generate interleaved DC scan if possible, else N scans */
 2020              		.loc 1 570 1 view .LVU646
 2021              	.LBB141:
 577:fltk-1.3.4-1/jpeg/jcparam.c ****     for (ci = 0; ci < ncomps; ci++)
 2022              		.loc 1 577 5 view .LVU647
 578:fltk-1.3.4-1/jpeg/jcparam.c ****       scanptr->component_index[ci] = ci;
 2023              		.loc 1 578 5 view .LVU648
 578:fltk-1.3.4-1/jpeg/jcparam.c ****       scanptr->component_index[ci] = ci;
 2024              		.loc 1 578 18 view .LVU649
 579:fltk-1.3.4-1/jpeg/jcparam.c ****     scanptr->Ss = scanptr->Se = 0;
 2025              		.loc 1 579 7 view .LVU650
 578:fltk-1.3.4-1/jpeg/jcparam.c ****       scanptr->component_index[ci] = ci;
 2026              		.loc 1 578 31 view .LVU651
 578:fltk-1.3.4-1/jpeg/jcparam.c ****       scanptr->component_index[ci] = ci;
 2027              		.loc 1 578 18 view .LVU652
 579:fltk-1.3.4-1/jpeg/jcparam.c ****     scanptr->Ss = scanptr->Se = 0;
 2028              		.loc 1 579 7 view .LVU653
 578:fltk-1.3.4-1/jpeg/jcparam.c ****       scanptr->component_index[ci] = ci;
 2029              		.loc 1 578 31 view .LVU654
 578:fltk-1.3.4-1/jpeg/jcparam.c ****       scanptr->component_index[ci] = ci;
 2030              		.loc 1 578 18 view .LVU655
 579:fltk-1.3.4-1/jpeg/jcparam.c ****     scanptr->Ss = scanptr->Se = 0;
 2031              		.loc 1 579 7 view .LVU656
 2032              	.LBE141:
 2033              	.LBE140:
 2034              	.LBE139:
 2035              	.LBE138:
 2036              	.LBB151:
 2037              	.LBB152:
 542:fltk-1.3.4-1/jpeg/jcparam.c ****   scanptr->Se = Se;
 2038              		.loc 1 542 15 is_stmt 0 view .LVU657
 2039 0238 48B80100 		movabsq	$21474836481, %rax
 2039      00000500 
 2039      0000
 2040              	.LBE152:
 2041              	.LBE151:
 2042              	.LBB157:
 2043              	.LBB158:
 2044 0242 48BB0600 		movabsq	$270582939654, %rbx
 2044      00003F00 
 2044      0000
 2045              	.LVL189:
 542:fltk-1.3.4-1/jpeg/jcparam.c ****   scanptr->Se = Se;
 2046              		.loc 1 542 15 view .LVU658
 2047              	.LBE158:
 2048              	.LBE157:
 2049              	.LBB163:
 2050              	.LBB148:
 2051              	.LBB145:
 2052              	.LBB142:
 579:fltk-1.3.4-1/jpeg/jcparam.c ****     scanptr->Ss = scanptr->Se = 0;
 2053              		.loc 1 579 36 view .LVU659
 2054 024c 48BA0100 		movabsq	$8589934593, %rdx
 2054      00000200 
 2054      0000
 581:fltk-1.3.4-1/jpeg/jcparam.c ****     scanptr->Al = Al;
 2055              		.loc 1 581 17 view .LVU660
 2056 0256 48B90000 		movabsq	$4294967296, %rcx
 2056      00000100 
 2056      0000
 2057              	.LBE142:
 2058              	.LBE145:
 2059              	.LBE148:
 2060              	.LBE163:
 2061              	.LBB164:
 2062              	.LBB153:
 544:fltk-1.3.4-1/jpeg/jcparam.c ****   scanptr->Al = Al;
 2063              		.loc 1 544 15 view .LVU661
 2064 0260 49B80000 		movabsq	$8589934592, %r8
 2064      00000200 
 2064      0000
 542:fltk-1.3.4-1/jpeg/jcparam.c ****   scanptr->Se = Se;
 2065              		.loc 1 542 15 view .LVU662
 2066 026a 48894738 		movq	%rax, 56(%rdi)
 2067              	.LVL190:
 542:fltk-1.3.4-1/jpeg/jcparam.c ****   scanptr->Se = Se;
 2068              		.loc 1 542 15 view .LVU663
 2069              	.LBE153:
 2070              	.LBE164:
 2071              	.LBB165:
 2072              	.LBB166:
 540:fltk-1.3.4-1/jpeg/jcparam.c ****   scanptr->component_index[0] = ci;
 2073              		.loc 1 540 26 view .LVU664
 2074 026e 48BE0100 		movabsq	$4294967297, %rsi
 2074      00000100 
 2074      0000
 2075              	.LBE166:
 2076              	.LBE165:
 2077              	.LBB170:
 2078              	.LBB171:
 542:fltk-1.3.4-1/jpeg/jcparam.c ****   scanptr->Se = Se;
 2079              		.loc 1 542 15 view .LVU665
 2080 0278 48B80100 		movabsq	$270582939649, %rax
 2080      00003F00 
 2080      0000
 2081              	.LBE171:
 2082              	.LBE170:
 2083              	.LBB175:
 2084              	.LBB159:
 2085 0282 48899FA4 		movq	%rbx, 164(%rdi)
 2085      000000
 2086              	.LBE159:
 2087              	.LBE175:
 2088              	.LBB176:
 2089              	.LBB177:
 544:fltk-1.3.4-1/jpeg/jcparam.c ****   scanptr->Al = Al;
 2090              		.loc 1 544 15 view .LVU666
 2091 0289 48BB0200 		movabsq	$4294967298, %rbx
 2091      00000100 
 2091      0000
 2092              	.LBE177:
 2093              	.LBE176:
 2094              	.LBB181:
 2095              	.LBB149:
 2096              	.LBB146:
 2097              	.LBB143:
 577:fltk-1.3.4-1/jpeg/jcparam.c ****     for (ci = 0; ci < ncomps; ci++)
 2098              		.loc 1 577 28 view .LVU667
 2099 0293 48C70703 		movq	$3, (%rdi)
 2099      000000
 579:fltk-1.3.4-1/jpeg/jcparam.c ****     scanptr->Ss = scanptr->Se = 0;
 2100              		.loc 1 579 36 view .LVU668
 2101 029a 48895708 		movq	%rdx, 8(%rdi)
 578:fltk-1.3.4-1/jpeg/jcparam.c ****       scanptr->component_index[ci] = ci;
 2102              		.loc 1 578 31 is_stmt 1 view .LVU669
 2103              	.LVL191:
 578:fltk-1.3.4-1/jpeg/jcparam.c ****       scanptr->component_index[ci] = ci;
 2104              		.loc 1 578 18 view .LVU670
 580:fltk-1.3.4-1/jpeg/jcparam.c ****     scanptr->Ah = Ah;
 2105              		.loc 1 580 5 view .LVU671
 581:fltk-1.3.4-1/jpeg/jcparam.c ****     scanptr->Al = Al;
 2106              		.loc 1 581 5 view .LVU672
 582:fltk-1.3.4-1/jpeg/jcparam.c ****     scanptr++;
 2107              		.loc 1 582 5 view .LVU673
 583:fltk-1.3.4-1/jpeg/jcparam.c ****   } else {
 2108              		.loc 1 583 5 view .LVU674
 588:fltk-1.3.4-1/jpeg/jcparam.c **** }
 2109              		.loc 1 588 3 view .LVU675
 588:fltk-1.3.4-1/jpeg/jcparam.c **** }
 2110              		.loc 1 588 3 is_stmt 0 view .LVU676
 2111              	.LBE143:
 2112              	.LBE146:
 588:fltk-1.3.4-1/jpeg/jcparam.c **** }
 2113              		.loc 1 588 3 is_stmt 1 view .LVU677
 588:fltk-1.3.4-1/jpeg/jcparam.c **** }
 2114              		.loc 1 588 3 is_stmt 0 view .LVU678
 2115              	.LBE149:
 2116              	.LBE181:
 646:fltk-1.3.4-1/jpeg/jcparam.c ****     /* Chroma data is too small to be worth expending many scans on */
 2117              		.loc 1 646 5 is_stmt 1 view .LVU679
 2118              	.LBB182:
 2119              	.LBI151:
 536:fltk-1.3.4-1/jpeg/jcparam.c **** 	     int Ss, int Se, int Ah, int Al)
 2120              		.loc 1 536 1 view .LVU680
 2121              	.LBB154:
 540:fltk-1.3.4-1/jpeg/jcparam.c ****   scanptr->component_index[0] = ci;
 2122              		.loc 1 540 3 view .LVU681
 541:fltk-1.3.4-1/jpeg/jcparam.c ****   scanptr->Ss = Ss;
 2123              		.loc 1 541 3 view .LVU682
 2124              	.LBE154:
 2125              	.LBE182:
 2126              	.LBB183:
 2127              	.LBB150:
 2128              	.LBB147:
 2129              	.LBB144:
 580:fltk-1.3.4-1/jpeg/jcparam.c ****     scanptr->Ah = Ah;
 2130              		.loc 1 580 17 is_stmt 0 view .LVU683
 2131 029e 48C74714 		movq	$0, 20(%rdi)
 2131      00000000 
 581:fltk-1.3.4-1/jpeg/jcparam.c ****     scanptr->Al = Al;
 2132              		.loc 1 581 17 view .LVU684
 2133 02a6 48894F1C 		movq	%rcx, 28(%rdi)
 2134              	.LBE144:
 2135              	.LBE147:
 2136              	.LBE150:
 2137              	.LBE183:
 2138              	.LBB184:
 2139              	.LBB155:
 540:fltk-1.3.4-1/jpeg/jcparam.c ****   scanptr->component_index[0] = ci;
 2140              		.loc 1 540 26 view .LVU685
 2141 02aa 48C74724 		movq	$1, 36(%rdi)
 2141      01000000 
 542:fltk-1.3.4-1/jpeg/jcparam.c ****   scanptr->Se = Se;
 2142              		.loc 1 542 3 is_stmt 1 view .LVU686
 543:fltk-1.3.4-1/jpeg/jcparam.c ****   scanptr->Ah = Ah;
 2143              		.loc 1 543 3 view .LVU687
 544:fltk-1.3.4-1/jpeg/jcparam.c ****   scanptr->Al = Al;
 2144              		.loc 1 544 3 view .LVU688
 545:fltk-1.3.4-1/jpeg/jcparam.c ****   scanptr++;
 2145              		.loc 1 545 3 view .LVU689
 546:fltk-1.3.4-1/jpeg/jcparam.c ****   return scanptr;
 2146              		.loc 1 546 3 view .LVU690
 547:fltk-1.3.4-1/jpeg/jcparam.c **** }
 2147              		.loc 1 547 3 view .LVU691
 2148              	.LVL192:
 547:fltk-1.3.4-1/jpeg/jcparam.c **** }
 2149              		.loc 1 547 3 is_stmt 0 view .LVU692
 2150              	.LBE155:
 2151              	.LBE184:
 648:fltk-1.3.4-1/jpeg/jcparam.c ****     scanptr = fill_a_scan(scanptr, 1, 1, 63, 0, 1);
 2152              		.loc 1 648 5 is_stmt 1 view .LVU693
 2153              	.LBB185:
 2154              	.LBI170:
 536:fltk-1.3.4-1/jpeg/jcparam.c **** 	     int Ss, int Se, int Ah, int Al)
 2155              		.loc 1 536 1 view .LVU694
 2156              	.LBB172:
 540:fltk-1.3.4-1/jpeg/jcparam.c ****   scanptr->component_index[0] = ci;
 2157              		.loc 1 540 3 view .LVU695
 541:fltk-1.3.4-1/jpeg/jcparam.c ****   scanptr->Ss = Ss;
 2158              		.loc 1 541 3 view .LVU696
 2159              	.LBE172:
 2160              	.LBE185:
 2161              	.LBB186:
 2162              	.LBB156:
 544:fltk-1.3.4-1/jpeg/jcparam.c ****   scanptr->Al = Al;
 2163              		.loc 1 544 15 is_stmt 0 view .LVU697
 2164 02b2 4C894740 		movq	%r8, 64(%rdi)
 2165              	.LBE156:
 2166              	.LBE186:
 2167              	.LBB187:
 2168              	.LBB173:
 540:fltk-1.3.4-1/jpeg/jcparam.c ****   scanptr->component_index[0] = ci;
 2169              		.loc 1 540 26 view .LVU698
 2170 02b6 48895748 		movq	%rdx, 72(%rdi)
 542:fltk-1.3.4-1/jpeg/jcparam.c ****   scanptr->Se = Se;
 2171              		.loc 1 542 3 is_stmt 1 view .LVU699
 543:fltk-1.3.4-1/jpeg/jcparam.c ****   scanptr->Ah = Ah;
 2172              		.loc 1 543 3 view .LVU700
 544:fltk-1.3.4-1/jpeg/jcparam.c ****   scanptr->Al = Al;
 2173              		.loc 1 544 3 view .LVU701
 545:fltk-1.3.4-1/jpeg/jcparam.c ****   scanptr++;
 2174              		.loc 1 545 3 view .LVU702
 546:fltk-1.3.4-1/jpeg/jcparam.c ****   return scanptr;
 2175              		.loc 1 546 3 view .LVU703
 547:fltk-1.3.4-1/jpeg/jcparam.c **** }
 2176              		.loc 1 547 3 view .LVU704
 2177              	.LVL193:
 547:fltk-1.3.4-1/jpeg/jcparam.c **** }
 2178              		.loc 1 547 3 is_stmt 0 view .LVU705
 2179              	.LBE173:
 2180              	.LBE187:
 649:fltk-1.3.4-1/jpeg/jcparam.c ****     /* Complete spectral selection for luma AC */
 2181              		.loc 1 649 5 is_stmt 1 view .LVU706
 2182              	.LBB188:
 2183              	.LBI165:
 536:fltk-1.3.4-1/jpeg/jcparam.c **** 	     int Ss, int Se, int Ah, int Al)
 2184              		.loc 1 536 1 view .LVU707
 2185              	.LBB167:
 540:fltk-1.3.4-1/jpeg/jcparam.c ****   scanptr->component_index[0] = ci;
 2186              		.loc 1 540 3 view .LVU708
 541:fltk-1.3.4-1/jpeg/jcparam.c ****   scanptr->Ss = Ss;
 2187              		.loc 1 541 3 view .LVU709
 2188              	.LBE167:
 2189              	.LBE188:
 2190              	.LBB189:
 2191              	.LBB174:
 542:fltk-1.3.4-1/jpeg/jcparam.c ****   scanptr->Se = Se;
 2192              		.loc 1 542 15 is_stmt 0 view .LVU710
 2193 02ba 4889475C 		movq	%rax, 92(%rdi)
 544:fltk-1.3.4-1/jpeg/jcparam.c ****   scanptr->Al = Al;
 2194              		.loc 1 544 15 view .LVU711
 2195 02be 48894F64 		movq	%rcx, 100(%rdi)
 2196              	.LBE174:
 2197              	.LBE189:
 2198              	.LBB190:
 2199              	.LBB168:
 540:fltk-1.3.4-1/jpeg/jcparam.c ****   scanptr->component_index[0] = ci;
 2200              		.loc 1 540 26 view .LVU712
 2201 02c2 4889776C 		movq	%rsi, 108(%rdi)
 542:fltk-1.3.4-1/jpeg/jcparam.c ****   scanptr->Se = Se;
 2202              		.loc 1 542 3 is_stmt 1 view .LVU713
 543:fltk-1.3.4-1/jpeg/jcparam.c ****   scanptr->Ah = Ah;
 2203              		.loc 1 543 3 view .LVU714
 544:fltk-1.3.4-1/jpeg/jcparam.c ****   scanptr->Al = Al;
 2204              		.loc 1 544 3 view .LVU715
 545:fltk-1.3.4-1/jpeg/jcparam.c ****   scanptr++;
 2205              		.loc 1 545 3 view .LVU716
 546:fltk-1.3.4-1/jpeg/jcparam.c ****   return scanptr;
 2206              		.loc 1 546 3 view .LVU717
 547:fltk-1.3.4-1/jpeg/jcparam.c **** }
 2207              		.loc 1 547 3 view .LVU718
 2208              	.LVL194:
 547:fltk-1.3.4-1/jpeg/jcparam.c **** }
 2209              		.loc 1 547 3 is_stmt 0 view .LVU719
 2210              	.LBE168:
 2211              	.LBE190:
 651:fltk-1.3.4-1/jpeg/jcparam.c ****     /* Refine next bit of luma AC */
 2212              		.loc 1 651 5 is_stmt 1 view .LVU720
 2213              	.LBB191:
 2214              	.LBI157:
 536:fltk-1.3.4-1/jpeg/jcparam.c **** 	     int Ss, int Se, int Ah, int Al)
 2215              		.loc 1 536 1 view .LVU721
 2216              	.LBB160:
 540:fltk-1.3.4-1/jpeg/jcparam.c ****   scanptr->component_index[0] = ci;
 2217              		.loc 1 540 3 view .LVU722
 541:fltk-1.3.4-1/jpeg/jcparam.c ****   scanptr->Ss = Ss;
 2218              		.loc 1 541 3 view .LVU723
 2219              	.LBE160:
 2220              	.LBE191:
 2221              	.LBB192:
 2222              	.LBB169:
 542:fltk-1.3.4-1/jpeg/jcparam.c ****   scanptr->Se = Se;
 2223              		.loc 1 542 15 is_stmt 0 view .LVU724
 2224 02c6 48898780 		movq	%rax, 128(%rdi)
 2224      000000
 544:fltk-1.3.4-1/jpeg/jcparam.c ****   scanptr->Al = Al;
 2225              		.loc 1 544 15 view .LVU725
 2226 02cd 48898F88 		movq	%rcx, 136(%rdi)
 2226      000000
 2227              	.LBE169:
 2228              	.LBE192:
 2229              	.LBB193:
 2230              	.LBB161:
 540:fltk-1.3.4-1/jpeg/jcparam.c ****   scanptr->component_index[0] = ci;
 2231              		.loc 1 540 26 view .LVU726
 2232 02d4 48C78790 		movq	$1, 144(%rdi)
 2232      00000001 
 2232      000000
 542:fltk-1.3.4-1/jpeg/jcparam.c ****   scanptr->Se = Se;
 2233              		.loc 1 542 3 is_stmt 1 view .LVU727
 543:fltk-1.3.4-1/jpeg/jcparam.c ****   scanptr->Ah = Ah;
 2234              		.loc 1 543 3 view .LVU728
 544:fltk-1.3.4-1/jpeg/jcparam.c ****   scanptr->Al = Al;
 2235              		.loc 1 544 3 view .LVU729
 545:fltk-1.3.4-1/jpeg/jcparam.c ****   scanptr++;
 2236              		.loc 1 545 3 view .LVU730
 546:fltk-1.3.4-1/jpeg/jcparam.c ****   return scanptr;
 2237              		.loc 1 546 3 view .LVU731
 547:fltk-1.3.4-1/jpeg/jcparam.c **** }
 2238              		.loc 1 547 3 view .LVU732
 2239              	.LVL195:
 547:fltk-1.3.4-1/jpeg/jcparam.c **** }
 2240              		.loc 1 547 3 is_stmt 0 view .LVU733
 2241              	.LBE161:
 2242              	.LBE193:
 653:fltk-1.3.4-1/jpeg/jcparam.c ****     /* Finish DC successive approximation */
 2243              		.loc 1 653 5 is_stmt 1 view .LVU734
 2244              	.LBB194:
 2245              	.LBI176:
 536:fltk-1.3.4-1/jpeg/jcparam.c **** 	     int Ss, int Se, int Ah, int Al)
 2246              		.loc 1 536 1 view .LVU735
 2247              	.LBB178:
 540:fltk-1.3.4-1/jpeg/jcparam.c ****   scanptr->component_index[0] = ci;
 2248              		.loc 1 540 3 view .LVU736
 541:fltk-1.3.4-1/jpeg/jcparam.c ****   scanptr->Ss = Ss;
 2249              		.loc 1 541 3 view .LVU737
 2250              	.LBE178:
 2251              	.LBE194:
 2252              	.LBB195:
 2253              	.LBB162:
 544:fltk-1.3.4-1/jpeg/jcparam.c ****   scanptr->Al = Al;
 2254              		.loc 1 544 15 is_stmt 0 view .LVU738
 2255 02df 4C8987AC 		movq	%r8, 172(%rdi)
 2255      000000
 2256              	.LBE162:
 2257              	.LBE195:
 2258              	.LBB196:
 2259              	.LBB179:
 540:fltk-1.3.4-1/jpeg/jcparam.c ****   scanptr->component_index[0] = ci;
 2260              		.loc 1 540 26 view .LVU739
 2261 02e6 48C787B4 		movq	$1, 180(%rdi)
 2261      00000001 
 2261      000000
 542:fltk-1.3.4-1/jpeg/jcparam.c ****   scanptr->Se = Se;
 2262              		.loc 1 542 3 is_stmt 1 view .LVU740
 543:fltk-1.3.4-1/jpeg/jcparam.c ****   scanptr->Ah = Ah;
 2263              		.loc 1 543 3 view .LVU741
 544:fltk-1.3.4-1/jpeg/jcparam.c ****   scanptr->Al = Al;
 2264              		.loc 1 544 3 view .LVU742
 545:fltk-1.3.4-1/jpeg/jcparam.c ****   scanptr++;
 2265              		.loc 1 545 3 view .LVU743
 546:fltk-1.3.4-1/jpeg/jcparam.c ****   return scanptr;
 2266              		.loc 1 546 3 view .LVU744
 547:fltk-1.3.4-1/jpeg/jcparam.c **** }
 2267              		.loc 1 547 3 view .LVU745
 2268              	.LVL196:
 547:fltk-1.3.4-1/jpeg/jcparam.c **** }
 2269              		.loc 1 547 3 is_stmt 0 view .LVU746
 2270              	.LBE179:
 2271              	.LBE196:
 655:fltk-1.3.4-1/jpeg/jcparam.c ****     /* Finish AC successive approximation */
 2272              		.loc 1 655 5 is_stmt 1 view .LVU747
 2273              	.LBB197:
 2274              	.LBI197:
 570:fltk-1.3.4-1/jpeg/jcparam.c **** /* Support routine: generate interleaved DC scan if possible, else N scans */
 2275              		.loc 1 570 1 view .LVU748
 2276              	.LBB198:
 573:fltk-1.3.4-1/jpeg/jcparam.c **** 
 2277              		.loc 1 573 3 view .LVU749
 575:fltk-1.3.4-1/jpeg/jcparam.c ****     /* Single interleaved DC scan */
 2278              		.loc 1 575 3 view .LVU750
 2279              	.LBB199:
 2280              	.LBI199:
 570:fltk-1.3.4-1/jpeg/jcparam.c **** /* Support routine: generate interleaved DC scan if possible, else N scans */
 2281              		.loc 1 570 1 view .LVU751
 2282              	.LBB200:
 577:fltk-1.3.4-1/jpeg/jcparam.c ****     for (ci = 0; ci < ncomps; ci++)
 2283              		.loc 1 577 5 view .LVU752
 578:fltk-1.3.4-1/jpeg/jcparam.c ****       scanptr->component_index[ci] = ci;
 2284              		.loc 1 578 5 view .LVU753
 578:fltk-1.3.4-1/jpeg/jcparam.c ****       scanptr->component_index[ci] = ci;
 2285              		.loc 1 578 18 view .LVU754
 579:fltk-1.3.4-1/jpeg/jcparam.c ****     scanptr->Ss = scanptr->Se = 0;
 2286              		.loc 1 579 7 view .LVU755
 578:fltk-1.3.4-1/jpeg/jcparam.c ****       scanptr->component_index[ci] = ci;
 2287              		.loc 1 578 31 view .LVU756
 578:fltk-1.3.4-1/jpeg/jcparam.c ****       scanptr->component_index[ci] = ci;
 2288              		.loc 1 578 18 view .LVU757
 579:fltk-1.3.4-1/jpeg/jcparam.c ****     scanptr->Ss = scanptr->Se = 0;
 2289              		.loc 1 579 7 view .LVU758
 578:fltk-1.3.4-1/jpeg/jcparam.c ****       scanptr->component_index[ci] = ci;
 2290              		.loc 1 578 31 view .LVU759
 578:fltk-1.3.4-1/jpeg/jcparam.c ****       scanptr->component_index[ci] = ci;
 2291              		.loc 1 578 18 view .LVU760
 579:fltk-1.3.4-1/jpeg/jcparam.c ****     scanptr->Ss = scanptr->Se = 0;
 2292              		.loc 1 579 7 view .LVU761
 2293              	.LBE200:
 2294              	.LBE199:
 2295              	.LBE198:
 2296              	.LBE197:
 2297              	.LBB207:
 2298              	.LBB180:
 542:fltk-1.3.4-1/jpeg/jcparam.c ****   scanptr->Se = Se;
 2299              		.loc 1 542 15 is_stmt 0 view .LVU762
 2300 02f1 488987C8 		movq	%rax, 200(%rdi)
 2300      000000
 544:fltk-1.3.4-1/jpeg/jcparam.c ****   scanptr->Al = Al;
 2301              		.loc 1 544 15 view .LVU763
 2302 02f8 48899FD0 		movq	%rbx, 208(%rdi)
 2302      000000
 2303              	.LBE180:
 2304              	.LBE207:
 2305              	.LBB208:
 2306              	.LBB205:
 2307              	.LBB203:
 2308              	.LBB201:
 577:fltk-1.3.4-1/jpeg/jcparam.c ****     for (ci = 0; ci < ncomps; ci++)
 2309              		.loc 1 577 28 view .LVU764
 2310 02ff 48C787D8 		movq	$3, 216(%rdi)
 2310      00000003 
 2310      000000
 579:fltk-1.3.4-1/jpeg/jcparam.c ****     scanptr->Ss = scanptr->Se = 0;
 2311              		.loc 1 579 36 view .LVU765
 2312 030a 488997E0 		movq	%rdx, 224(%rdi)
 2312      000000
 578:fltk-1.3.4-1/jpeg/jcparam.c ****       scanptr->component_index[ci] = ci;
 2313              		.loc 1 578 31 is_stmt 1 view .LVU766
 2314              	.LVL197:
 578:fltk-1.3.4-1/jpeg/jcparam.c ****       scanptr->component_index[ci] = ci;
 2315              		.loc 1 578 18 view .LVU767
 580:fltk-1.3.4-1/jpeg/jcparam.c ****     scanptr->Ah = Ah;
 2316              		.loc 1 580 5 view .LVU768
 581:fltk-1.3.4-1/jpeg/jcparam.c ****     scanptr->Al = Al;
 2317              		.loc 1 581 5 view .LVU769
 582:fltk-1.3.4-1/jpeg/jcparam.c ****     scanptr++;
 2318              		.loc 1 582 5 view .LVU770
 583:fltk-1.3.4-1/jpeg/jcparam.c ****   } else {
 2319              		.loc 1 583 5 view .LVU771
 588:fltk-1.3.4-1/jpeg/jcparam.c **** }
 2320              		.loc 1 588 3 view .LVU772
 588:fltk-1.3.4-1/jpeg/jcparam.c **** }
 2321              		.loc 1 588 3 is_stmt 0 view .LVU773
 2322              	.LBE201:
 2323              	.LBE203:
 588:fltk-1.3.4-1/jpeg/jcparam.c **** }
 2324              		.loc 1 588 3 is_stmt 1 view .LVU774
 588:fltk-1.3.4-1/jpeg/jcparam.c **** }
 2325              		.loc 1 588 3 is_stmt 0 view .LVU775
 2326              	.LBE205:
 2327              	.LBE208:
 657:fltk-1.3.4-1/jpeg/jcparam.c ****     scanptr = fill_a_scan(scanptr, 1, 1, 63, 1, 0);
 2328              		.loc 1 657 5 is_stmt 1 view .LVU776
 2329              	.LBB209:
 2330              	.LBI209:
 536:fltk-1.3.4-1/jpeg/jcparam.c **** 	     int Ss, int Se, int Ah, int Al)
 2331              		.loc 1 536 1 view .LVU777
 2332              	.LBB210:
 540:fltk-1.3.4-1/jpeg/jcparam.c ****   scanptr->component_index[0] = ci;
 2333              		.loc 1 540 3 view .LVU778
 541:fltk-1.3.4-1/jpeg/jcparam.c ****   scanptr->Ss = Ss;
 2334              		.loc 1 541 3 view .LVU779
 2335              	.LBE210:
 2336              	.LBE209:
 2337              	.LBB213:
 2338              	.LBB206:
 2339              	.LBB204:
 2340              	.LBB202:
 580:fltk-1.3.4-1/jpeg/jcparam.c ****     scanptr->Ah = Ah;
 2341              		.loc 1 580 17 is_stmt 0 view .LVU780
 2342 0311 48C787EC 		movq	$0, 236(%rdi)
 2342      00000000 
 2342      000000
 581:fltk-1.3.4-1/jpeg/jcparam.c ****     scanptr->Al = Al;
 2343              		.loc 1 581 17 view .LVU781
 2344 031c 48C787F4 		movq	$1, 244(%rdi)
 2344      00000001 
 2344      000000
 2345              	.LBE202:
 2346              	.LBE204:
 2347              	.LBE206:
 2348              	.LBE213:
 2349              	.LBB214:
 2350              	.LBB211:
 540:fltk-1.3.4-1/jpeg/jcparam.c ****   scanptr->component_index[0] = ci;
 2351              		.loc 1 540 26 view .LVU782
 2352 0327 488997FC 		movq	%rdx, 252(%rdi)
 2352      000000
 542:fltk-1.3.4-1/jpeg/jcparam.c ****   scanptr->Se = Se;
 2353              		.loc 1 542 3 is_stmt 1 view .LVU783
 543:fltk-1.3.4-1/jpeg/jcparam.c ****   scanptr->Ah = Ah;
 2354              		.loc 1 543 3 view .LVU784
 544:fltk-1.3.4-1/jpeg/jcparam.c ****   scanptr->Al = Al;
 2355              		.loc 1 544 3 view .LVU785
 545:fltk-1.3.4-1/jpeg/jcparam.c ****   scanptr++;
 2356              		.loc 1 545 3 view .LVU786
 546:fltk-1.3.4-1/jpeg/jcparam.c ****   return scanptr;
 2357              		.loc 1 546 3 view .LVU787
 547:fltk-1.3.4-1/jpeg/jcparam.c **** }
 2358              		.loc 1 547 3 view .LVU788
 2359              	.LVL198:
 547:fltk-1.3.4-1/jpeg/jcparam.c **** }
 2360              		.loc 1 547 3 is_stmt 0 view .LVU789
 2361              	.LBE211:
 2362              	.LBE214:
 658:fltk-1.3.4-1/jpeg/jcparam.c ****     /* Luma bottom bit comes last since it's usually largest scan */
 2363              		.loc 1 658 5 is_stmt 1 view .LVU790
 2364              	.LBB215:
 2365              	.LBI215:
 536:fltk-1.3.4-1/jpeg/jcparam.c **** 	     int Ss, int Se, int Ah, int Al)
 2366              		.loc 1 536 1 view .LVU791
 2367              	.LBB216:
 540:fltk-1.3.4-1/jpeg/jcparam.c ****   scanptr->component_index[0] = ci;
 2368              		.loc 1 540 3 view .LVU792
 541:fltk-1.3.4-1/jpeg/jcparam.c ****   scanptr->Ss = Ss;
 2369              		.loc 1 541 3 view .LVU793
 2370              	.LBE216:
 2371              	.LBE215:
 2372              	.LBB219:
 2373              	.LBB212:
 542:fltk-1.3.4-1/jpeg/jcparam.c ****   scanptr->Se = Se;
 2374              		.loc 1 542 15 is_stmt 0 view .LVU794
 2375 032e 48898710 		movq	%rax, 272(%rdi)
 2375      010000
 544:fltk-1.3.4-1/jpeg/jcparam.c ****   scanptr->Al = Al;
 2376              		.loc 1 544 15 view .LVU795
 2377 0335 48C78718 		movq	$1, 280(%rdi)
 2377      01000001 
 2377      000000
 2378              	.LBE212:
 2379              	.LBE219:
 2380              	.LBB220:
 2381              	.LBB217:
 540:fltk-1.3.4-1/jpeg/jcparam.c ****   scanptr->component_index[0] = ci;
 2382              		.loc 1 540 26 view .LVU796
 2383 0340 4889B720 		movq	%rsi, 288(%rdi)
 2383      010000
 542:fltk-1.3.4-1/jpeg/jcparam.c ****   scanptr->Se = Se;
 2384              		.loc 1 542 3 is_stmt 1 view .LVU797
 543:fltk-1.3.4-1/jpeg/jcparam.c ****   scanptr->Ah = Ah;
 2385              		.loc 1 543 3 view .LVU798
 544:fltk-1.3.4-1/jpeg/jcparam.c ****   scanptr->Al = Al;
 2386              		.loc 1 544 3 view .LVU799
 545:fltk-1.3.4-1/jpeg/jcparam.c ****   scanptr++;
 2387              		.loc 1 545 3 view .LVU800
 546:fltk-1.3.4-1/jpeg/jcparam.c ****   return scanptr;
 2388              		.loc 1 546 3 view .LVU801
 547:fltk-1.3.4-1/jpeg/jcparam.c **** }
 2389              		.loc 1 547 3 view .LVU802
 2390              	.LVL199:
 547:fltk-1.3.4-1/jpeg/jcparam.c **** }
 2391              		.loc 1 547 3 is_stmt 0 view .LVU803
 2392              	.LBE217:
 2393              	.LBE220:
 660:fltk-1.3.4-1/jpeg/jcparam.c ****   } else {
 2394              		.loc 1 660 5 is_stmt 1 view .LVU804
 2395              	.LBB221:
 2396              	.LBI221:
 536:fltk-1.3.4-1/jpeg/jcparam.c **** 	     int Ss, int Se, int Ah, int Al)
 2397              		.loc 1 536 1 view .LVU805
 2398              	.LBB222:
 540:fltk-1.3.4-1/jpeg/jcparam.c ****   scanptr->component_index[0] = ci;
 2399              		.loc 1 540 3 view .LVU806
 541:fltk-1.3.4-1/jpeg/jcparam.c ****   scanptr->Ss = Ss;
 2400              		.loc 1 541 3 view .LVU807
 2401              	.LBE222:
 2402              	.LBE221:
 2403              	.LBB224:
 2404              	.LBB218:
 542:fltk-1.3.4-1/jpeg/jcparam.c ****   scanptr->Se = Se;
 2405              		.loc 1 542 15 is_stmt 0 view .LVU808
 2406 0347 48898734 		movq	%rax, 308(%rdi)
 2406      010000
 544:fltk-1.3.4-1/jpeg/jcparam.c ****   scanptr->Al = Al;
 2407              		.loc 1 544 15 view .LVU809
 2408 034e 48C7873C 		movq	$1, 316(%rdi)
 2408      01000001 
 2408      000000
 2409              	.LBE218:
 2410              	.LBE224:
 2411              	.LBB225:
 2412              	.LBB223:
 540:fltk-1.3.4-1/jpeg/jcparam.c ****   scanptr->component_index[0] = ci;
 2413              		.loc 1 540 26 view .LVU810
 2414 0359 48C78744 		movq	$1, 324(%rdi)
 2414      01000001 
 2414      000000
 542:fltk-1.3.4-1/jpeg/jcparam.c ****   scanptr->Se = Se;
 2415              		.loc 1 542 3 is_stmt 1 view .LVU811
 543:fltk-1.3.4-1/jpeg/jcparam.c ****   scanptr->Ah = Ah;
 2416              		.loc 1 543 3 view .LVU812
 544:fltk-1.3.4-1/jpeg/jcparam.c ****   scanptr->Al = Al;
 2417              		.loc 1 544 3 view .LVU813
 545:fltk-1.3.4-1/jpeg/jcparam.c ****   scanptr++;
 2418              		.loc 1 545 3 view .LVU814
 542:fltk-1.3.4-1/jpeg/jcparam.c ****   scanptr->Se = Se;
 2419              		.loc 1 542 15 is_stmt 0 view .LVU815
 2420 0364 48898758 		movq	%rax, 344(%rdi)
 2420      010000
 544:fltk-1.3.4-1/jpeg/jcparam.c ****   scanptr->Al = Al;
 2421              		.loc 1 544 15 view .LVU816
 2422 036b 48C78760 		movq	$1, 352(%rdi)
 2422      01000001 
 2422      000000
 546:fltk-1.3.4-1/jpeg/jcparam.c ****   return scanptr;
 2423              		.loc 1 546 3 is_stmt 1 view .LVU817
 547:fltk-1.3.4-1/jpeg/jcparam.c **** }
 2424              		.loc 1 547 3 view .LVU818
 2425              	.LVL200:
 547:fltk-1.3.4-1/jpeg/jcparam.c **** }
 2426              		.loc 1 547 3 is_stmt 0 view .LVU819
 2427              	.LBE223:
 2428              	.LBE225:
 2429              		.loc 1 673 1 view .LVU820
 2430 0376 5B       		popq	%rbx
 2431              		.cfi_def_cfa_offset 24
 2432 0377 5D       		popq	%rbp
 2433              		.cfi_def_cfa_offset 16
 2434              	.LVL201:
 2435              		.loc 1 673 1 view .LVU821
 2436 0378 415C     		popq	%r12
 2437              		.cfi_def_cfa_offset 8
 2438              	.LVL202:
 2439              		.loc 1 673 1 view .LVU822
 2440 037a C3       		ret
 2441              		.cfi_endproc
 2442              	.LFE64:
 2444              		.section	.rodata.val_ac_chrominance.4441,"a"
 2445              		.align 32
 2448              	val_ac_chrominance.4441:
 2449 0000 00       		.string	""
 2450 0001 01020311 		.ascii	"\001\002\003\021\004\005!1\006\022AQ\007aq\023\"2\201\b\024B"
 2450      04052131 
 2450      06124151 
 2450      07617113 
 2450      22328108 
 2451 0017 91A1B1C1 		.ascii	"\221\241\261\301\t#3R\360\025br\321\n\026$4\341%\361\027\030"
 2451      09233352 
 2451      F0156272 
 2451      D10A1624 
 2451      34E125F1 
 2452 002d 191A2627 		.ascii	"\031\032&'()*56789:CDEFGHIJSTUVWXYZcdefghijstuvwxyz\202\203\204"
 2452      28292A35 
 2452      36373839 
 2452      3A434445 
 2452      46474849 
 2453 005d 85868788 		.ascii	"\205\206\207\210\211\212\222\223\224\225\226\227\230\231\232"
 2453      898A9293 
 2453      94959697 
 2453      98999A
 2454 006c A2A3A4A5 		.ascii	"\242\243\244\245\246\247\250\251\252\262\263\264\265\266\267"
 2454      A6A7A8A9 
 2454      AAB2B3B4 
 2454      B5B6B7
 2455 007b B8B9BAC2 		.ascii	"\270\271\272\302\303\304\305\306\307\310\311\312\322\323\324"
 2455      C3C4C5C6 
 2455      C7C8C9CA 
 2455      D2D3D4
 2456 008a D5D6D7D8 		.ascii	"\325\326\327\330\331\332\342\343\344\345\346\347\350\351\352"
 2456      D9DAE2E3 
 2456      E4E5E6E7 
 2456      E8E9EA
 2457 0099 F2F3F4F5 		.ascii	"\362\363\364\365\366\367\370\371\372"
 2457      F6F7F8F9 
 2457      FA
 2458              		.section	.rodata.bits_ac_chrominance.4440,"a"
 2459              		.align 16
 2462              	bits_ac_chrominance.4440:
 2463 0000 00       		.string	""
 2464 0001 00       		.string	""
 2465 0002 02010204 		.string	"\002\001\002\004\004\003\004\007\005\004\004"
 2465      04030407 
 2465      05040400 
 2466 000e 010277   		.ascii	"\001\002w"
 2467              		.section	.rodata.val_dc_chrominance.4437,"a"
 2468              		.align 8
 2471              	val_dc_chrominance.4437:
 2472 0000 00       		.string	""
 2473 0001 01020304 		.ascii	"\001\002\003\004\005\006\007\b\t\n\013"
 2473      05060708 
 2473      090A0B
 2474              		.section	.rodata.bits_dc_chrominance.4436,"a"
 2475              		.align 16
 2478              	bits_dc_chrominance.4436:
 2479 0000 00       		.string	""
 2480 0001 00       		.string	""
 2481 0002 03010101 		.string	"\003\001\001\001\001\001\001\001\001\001"
 2481      01010101 
 2481      010100
 2482 000d 00       		.string	""
 2483 000e 00       		.string	""
 2484 000f 00       		.string	""
 2485 0010 00       		.string	""
 2486              		.section	.rodata.val_ac_luminance.4439,"a"
 2487              		.align 32
 2490              	val_ac_luminance.4439:
 2491 0000 01020300 		.string	"\001\002\003"
 2492 0004 04110512 		.ascii	"\004\021\005\022!1A\006\023Qa\007\"q\0242\201\221\241\b#B\261"
 2492      21314106 
 2492      13516107 
 2492      22711432 
 2492      8191A108 
 2493 001b C11552D1 		.ascii	"\301\025R\321\360$3br\202\t\n\026\027\030\031\032%&'()*45678"
 2493      F0243362 
 2493      7282090A 
 2493      16171819 
 2493      1A252627 
 2494 0037 393A4344 		.ascii	"9:CDEFGHIJSTUVWXYZcdefghijstuvwxyz\203\204\205\206\207\210\211"
 2494      45464748 
 2494      494A5354 
 2494      55565758 
 2494      595A6364 
 2495 0060 8A929394 		.ascii	"\212\222\223\224\225\226\227\230\231\232\242\243\244\245\246"
 2495      95969798 
 2495      999AA2A3 
 2495      A4A5A6
 2496 006f A7A8A9AA 		.ascii	"\247\250\251\252\262\263\264\265\266\267\270\271\272\302\303"
 2496      B2B3B4B5 
 2496      B6B7B8B9 
 2496      BAC2C3
 2497 007e C4C5C6C7 		.ascii	"\304\305\306\307\310\311\312\322\323\324\325\326\327\330\331"
 2497      C8C9CAD2 
 2497      D3D4D5D6 
 2497      D7D8D9
 2498 008d DAE1E2E3 		.ascii	"\332\341\342\343\344\345\346\347\350\351\352\361\362\363\364"
 2498      E4E5E6E7 
 2498      E8E9EAF1 
 2498      F2F3F4
 2499 009c F5F6F7F8 		.ascii	"\365\366\367\370\371\372"
 2499      F9FA
 2500              		.section	.rodata.bits_ac_luminance.4438,"a"
 2501              		.align 16
 2504              	bits_ac_luminance.4438:
 2505 0000 00       		.string	""
 2506 0001 00       		.string	""
 2507 0002 02010303 		.string	"\002\001\003\003\002\004\003\005\005\004\004"
 2507      02040305 
 2507      05040400 
 2508 000e 00       		.string	""
 2509 000f 017D     		.ascii	"\001}"
 2510              		.section	.rodata.val_dc_luminance.4435,"a"
 2511              		.align 8
 2514              	val_dc_luminance.4435:
 2515 0000 00       		.string	""
 2516 0001 01020304 		.ascii	"\001\002\003\004\005\006\007\b\t\n\013"
 2516      05060708 
 2516      090A0B
 2517              		.section	.rodata.bits_dc_luminance.4434,"a"
 2518              		.align 16
 2521              	bits_dc_luminance.4434:
 2522 0000 00       		.string	""
 2523 0001 00       		.string	""
 2524 0002 01050101 		.string	"\001\005\001\001\001\001\001\001"
 2524      01010101 
 2524      00
 2525 000b 00       		.string	""
 2526 000c 00       		.string	""
 2527 000d 00       		.string	""
 2528 000e 00       		.string	""
 2529 000f 00       		.string	""
 2530 0010 00       		.string	""
 2531              		.section	.rodata.std_chrominance_quant_tbl,"a"
 2532              		.align 32
 2535              	std_chrominance_quant_tbl:
 2536 0000 11000000 		.long	17
 2537 0004 12000000 		.long	18
 2538 0008 18000000 		.long	24
 2539 000c 2F000000 		.long	47
 2540 0010 63000000 		.long	99
 2541 0014 63000000 		.long	99
 2542 0018 63000000 		.long	99
 2543 001c 63000000 		.long	99
 2544 0020 12000000 		.long	18
 2545 0024 15000000 		.long	21
 2546 0028 1A000000 		.long	26
 2547 002c 42000000 		.long	66
 2548 0030 63000000 		.long	99
 2549 0034 63000000 		.long	99
 2550 0038 63000000 		.long	99
 2551 003c 63000000 		.long	99
 2552 0040 18000000 		.long	24
 2553 0044 1A000000 		.long	26
 2554 0048 38000000 		.long	56
 2555 004c 63000000 		.long	99
 2556 0050 63000000 		.long	99
 2557 0054 63000000 		.long	99
 2558 0058 63000000 		.long	99
 2559 005c 63000000 		.long	99
 2560 0060 2F000000 		.long	47
 2561 0064 42000000 		.long	66
 2562 0068 63000000 		.long	99
 2563 006c 63000000 		.long	99
 2564 0070 63000000 		.long	99
 2565 0074 63000000 		.long	99
 2566 0078 63000000 		.long	99
 2567 007c 63000000 		.long	99
 2568 0080 63000000 		.long	99
 2569 0084 63000000 		.long	99
 2570 0088 63000000 		.long	99
 2571 008c 63000000 		.long	99
 2572 0090 63000000 		.long	99
 2573 0094 63000000 		.long	99
 2574 0098 63000000 		.long	99
 2575 009c 63000000 		.long	99
 2576 00a0 63000000 		.long	99
 2577 00a4 63000000 		.long	99
 2578 00a8 63000000 		.long	99
 2579 00ac 63000000 		.long	99
 2580 00b0 63000000 		.long	99
 2581 00b4 63000000 		.long	99
 2582 00b8 63000000 		.long	99
 2583 00bc 63000000 		.long	99
 2584 00c0 63000000 		.long	99
 2585 00c4 63000000 		.long	99
 2586 00c8 63000000 		.long	99
 2587 00cc 63000000 		.long	99
 2588 00d0 63000000 		.long	99
 2589 00d4 63000000 		.long	99
 2590 00d8 63000000 		.long	99
 2591 00dc 63000000 		.long	99
 2592 00e0 63000000 		.long	99
 2593 00e4 63000000 		.long	99
 2594 00e8 63000000 		.long	99
 2595 00ec 63000000 		.long	99
 2596 00f0 63000000 		.long	99
 2597 00f4 63000000 		.long	99
 2598 00f8 63000000 		.long	99
 2599 00fc 63000000 		.long	99
 2600              		.section	.rodata.std_luminance_quant_tbl,"a"
 2601              		.align 32
 2604              	std_luminance_quant_tbl:
 2605 0000 10000000 		.long	16
 2606 0004 0B000000 		.long	11
 2607 0008 0A000000 		.long	10
 2608 000c 10000000 		.long	16
 2609 0010 18000000 		.long	24
 2610 0014 28000000 		.long	40
 2611 0018 33000000 		.long	51
 2612 001c 3D000000 		.long	61
 2613 0020 0C000000 		.long	12
 2614 0024 0C000000 		.long	12
 2615 0028 0E000000 		.long	14
 2616 002c 13000000 		.long	19
 2617 0030 1A000000 		.long	26
 2618 0034 3A000000 		.long	58
 2619 0038 3C000000 		.long	60
 2620 003c 37000000 		.long	55
 2621 0040 0E000000 		.long	14
 2622 0044 0D000000 		.long	13
 2623 0048 10000000 		.long	16
 2624 004c 18000000 		.long	24
 2625 0050 28000000 		.long	40
 2626 0054 39000000 		.long	57
 2627 0058 45000000 		.long	69
 2628 005c 38000000 		.long	56
 2629 0060 0E000000 		.long	14
 2630 0064 11000000 		.long	17
 2631 0068 16000000 		.long	22
 2632 006c 1D000000 		.long	29
 2633 0070 33000000 		.long	51
 2634 0074 57000000 		.long	87
 2635 0078 50000000 		.long	80
 2636 007c 3E000000 		.long	62
 2637 0080 12000000 		.long	18
 2638 0084 16000000 		.long	22
 2639 0088 25000000 		.long	37
 2640 008c 38000000 		.long	56
 2641 0090 44000000 		.long	68
 2642 0094 6D000000 		.long	109
 2643 0098 67000000 		.long	103
 2644 009c 4D000000 		.long	77
 2645 00a0 18000000 		.long	24
 2646 00a4 23000000 		.long	35
 2647 00a8 37000000 		.long	55
 2648 00ac 40000000 		.long	64
 2649 00b0 51000000 		.long	81
 2650 00b4 68000000 		.long	104
 2651 00b8 71000000 		.long	113
 2652 00bc 5C000000 		.long	92
 2653 00c0 31000000 		.long	49
 2654 00c4 40000000 		.long	64
 2655 00c8 4E000000 		.long	78
 2656 00cc 57000000 		.long	87
 2657 00d0 67000000 		.long	103
 2658 00d4 79000000 		.long	121
 2659 00d8 78000000 		.long	120
 2660 00dc 65000000 		.long	101
 2661 00e0 48000000 		.long	72
 2662 00e4 5C000000 		.long	92
 2663 00e8 5F000000 		.long	95
 2664 00ec 62000000 		.long	98
 2665 00f0 70000000 		.long	112
 2666 00f4 64000000 		.long	100
 2667 00f8 67000000 		.long	103
 2668 00fc 63000000 		.long	99
 2669              		.text
 2670              	.Letext0:
 2671              		.file 3 "/usr/lib/gcc/x86_64-linux-gnu/9/include/stddef.h"
 2672              		.file 4 "/usr/include/x86_64-linux-gnu/bits/types.h"
 2673              		.file 5 "/usr/include/x86_64-linux-gnu/bits/types/struct_FILE.h"
 2674              		.file 6 "/usr/include/x86_64-linux-gnu/bits/types/FILE.h"
 2675              		.file 7 "/usr/include/stdio.h"
 2676              		.file 8 "/usr/include/x86_64-linux-gnu/bits/sys_errlist.h"
 2677              		.file 9 "fltk-1.3.4-1/jpeg/jmorecfg.h"
 2678              		.file 10 "fltk-1.3.4-1/jpeg/jpeglib.h"
 2679              		.file 11 "fltk-1.3.4-1/jpeg/jpegint.h"
 2680              		.file 12 "fltk-1.3.4-1/jpeg/jerror.h"
 2681              		.file 13 "<built-in>"
 18944              		.section	.note.gnu.property,"a"
 18945              		.align 8
 18946 0000 04000000 		.long	 1f - 0f
 18947 0004 10000000 		.long	 4f - 1f
 18948 0008 05000000 		.long	 5
 18949              	0:
 18950 000c 474E5500 		.string	 "GNU"
 18951              	1:
 18952              		.align 8
 18953 0010 020000C0 		.long	 0xc0000002
 18954 0014 04000000 		.long	 3f - 2f
 18955              	2:
 18956 0018 03000000 		.long	 0x3
 18957              	3:
 18958 001c 00000000 		.align 8
 18959              	4:
DEFINED SYMBOLS
                            *ABS*:0000000000000000 jcparam.c
     /tmp/ccH3oGoG.s:7      .text.add_huff_table:0000000000000000 add_huff_table
     /tmp/ccH3oGoG.s:158    .text.fill_dc_scans:0000000000000000 fill_dc_scans
     /tmp/ccH3oGoG.s:280    .text.jpeg_add_quant_table:0000000000000000 jpeg_add_quant_table
     /tmp/ccH3oGoG.s:463    .text.jpeg_default_qtables:0000000000000000 jpeg_default_qtables
     /tmp/ccH3oGoG.s:2604   .rodata.std_luminance_quant_tbl:0000000000000000 std_luminance_quant_tbl
     /tmp/ccH3oGoG.s:2535   .rodata.std_chrominance_quant_tbl:0000000000000000 std_chrominance_quant_tbl
     /tmp/ccH3oGoG.s:525    .text.jpeg_set_linear_quality:0000000000000000 jpeg_set_linear_quality
     /tmp/ccH3oGoG.s:594    .text.jpeg_quality_scaling:0000000000000000 jpeg_quality_scaling
     /tmp/ccH3oGoG.s:635    .text.jpeg_set_quality:0000000000000000 jpeg_set_quality
     /tmp/ccH3oGoG.s:736    .text.jpeg_set_colorspace:0000000000000000 jpeg_set_colorspace
     /tmp/ccH3oGoG.s:1263   .text.jpeg_default_colorspace:0000000000000000 jpeg_default_colorspace
     /tmp/ccH3oGoG.s:1355   .text.jpeg_set_defaults:0000000000000000 jpeg_set_defaults
     /tmp/ccH3oGoG.s:2514   .rodata.val_dc_luminance.4435:0000000000000000 val_dc_luminance.4435
     /tmp/ccH3oGoG.s:2521   .rodata.bits_dc_luminance.4434:0000000000000000 bits_dc_luminance.4434
     /tmp/ccH3oGoG.s:2490   .rodata.val_ac_luminance.4439:0000000000000000 val_ac_luminance.4439
     /tmp/ccH3oGoG.s:2504   .rodata.bits_ac_luminance.4438:0000000000000000 bits_ac_luminance.4438
     /tmp/ccH3oGoG.s:2471   .rodata.val_dc_chrominance.4437:0000000000000000 val_dc_chrominance.4437
     /tmp/ccH3oGoG.s:2478   .rodata.bits_dc_chrominance.4436:0000000000000000 bits_dc_chrominance.4436
     /tmp/ccH3oGoG.s:2462   .rodata.bits_ac_chrominance.4440:0000000000000000 bits_ac_chrominance.4440
     /tmp/ccH3oGoG.s:2448   .rodata.val_ac_chrominance.4441:0000000000000000 val_ac_chrominance.4441
     /tmp/ccH3oGoG.s:1576   .text.jpeg_simple_progression:0000000000000000 jpeg_simple_progression
                           .group:0000000000000000 wm4.0.a6b23a418548ac0bda5d8549c4a2ec91
                           .group:0000000000000000 wm4.stdcpredef.h.19.8dc41bed5d9037ff9622e015fb5f0ce3
                           .group:0000000000000000 wm4.jconfig.h.10.247fc3ff67998f3074970b1373c70333
                           .group:0000000000000000 wm4.features.h.19.5b5f5a19624a0527f479fdc52d54808f
                           .group:0000000000000000 wm4.cdefs.h.19.98d80eddbb3f64f4f30cd9aee9c5593c
                           .group:0000000000000000 wm4.wordsize.h.4.baf119258a1e53d8dba67ceac44ab6bc
                           .group:0000000000000000 wm4.cdefs.h.475.fb75d2e4416aa349344e6f45f683bf28
                           .group:0000000000000000 wm4.stubs64.h.10.6ce4c34010988db072c080326a6b6319
                           .group:0000000000000000 wm4.libcheaderstart.h.37.d9274df4cc0172452960ad9644fa5579
                           .group:0000000000000000 wm4.stdlib.h.28.2cffa49d94c5d85f4538f55f7b59771d
                           .group:0000000000000000 wm4.stddef.h.181.13772e73e5434e8cc4fafaaddad2b5da
                           .group:0000000000000000 wm4.waitflags.h.25.41934de4af99038521c2782f418699b1
                           .group:0000000000000000 wm4.waitstatus.h.28.93f167f49d64e2b9b99f98d1162a93bf
                           .group:0000000000000000 wm4.stdlib.h.43.9fa4f727a2f1cb8d2450a574c9195553
                           .group:0000000000000000 wm4.floatn.h.20.80c7cf8a8dfad237004b28d051d5afda
                           .group:0000000000000000 wm4.floatncommon.h.34.7e1840d7dfb19e9bdb51aeb077d76637
                           .group:0000000000000000 wm4.stdlib.h.71.2927e068ec678159b4f68ec2f089f7e6
                           .group:0000000000000000 wm4.types.h.109.56eb9ae966b255288cc544f18746a7ff
                           .group:0000000000000000 wm4.typesizes.h.24.2c64f817c0dc4b6fb2a2c619d717be26
                           .group:0000000000000000 wm4.time64.h.24.a8166ae916ec910dab0d8987098d42ee
                           .group:0000000000000000 wm4.types.h.40.18f72bab8242c2bb4c532a2aa95b5f00
                           .group:0000000000000000 wm4.stddef.h.231.0adce5c8c1fd8096aaff50981b3d1f0f
                           .group:0000000000000000 wm4.endian.h.20.efabd1018df5d7b4052c27dc6bdd5ce5
                           .group:0000000000000000 wm4.endianness.h.2.2c6a211f7909f3af5e9e9cfa3b6b63c8
                           .group:0000000000000000 wm4.endian.h.40.9e5d395adda2f4eb53ae69b69b664084
                           .group:0000000000000000 wm4.endian.h.27.4c4f94262c4eaee2982fe00ed1b4f173
                           .group:0000000000000000 wm4.byteswap.h.24.5363c019348146aada5aeadf51456576
                           .group:0000000000000000 wm4.endian.h.39.30a606dbd99b6c3df61c1f06dbdabd4e
                           .group:0000000000000000 wm4.select.h.28.eb2f3debdbcffd1442ebddaebc4fb6ff
                           .group:0000000000000000 wm4.__sigset_t.h.2.6b1ab6ff3d7b8fd9c0c42b0d80afbd80
                           .group:0000000000000000 wm4.select.h.44.887a4ff60aa97fcd9c1be017735e1675
                           .group:0000000000000000 wm4.select2.h.27.f95f2ab0ffee66dc1b6575014894b21a
                           .group:0000000000000000 wm4.types.h.186.489a4ed8f2d29cd358843490f54ddea5
                           .group:0000000000000000 wm4.pthreadtypesarch.h.25.6063cba99664c916e22d3a912bcc348a
                           .group:0000000000000000 wm4.struct_mutex.h.20.ed51f515172b9be99e450ba83eb5dd99
                           .group:0000000000000000 wm4.struct_rwlock.h.21.0254880f2904e3833fb8ae683e0f0330
                           .group:0000000000000000 wm4.alloca.h.19.edefa922a76c1cbaaf1e416903ba2d1c
                           .group:0000000000000000 wm4.alloca.h.29.156e12058824cc23d961c4d3b13031f6
                           .group:0000000000000000 wm4.stdio.h.24.5c1b97eef3c86b7a2549420f69f4f128
                           .group:0000000000000000 wm4.libcheaderstart.h.31.87b3c285aeba93fe355ad19123070832
                           .group:0000000000000000 wm4.stdio.h.31.e39a94e203ad4e1d978c0fc68ce016ee
                           .group:0000000000000000 wm4.stddef.h.231.8136eebbab3406dbf57a7ec475dd5d83
                           .group:0000000000000000 wm4.stdarg.h.34.3a23a216c0c293b3d2ea2e89281481e6
                           .group:0000000000000000 wm4.struct_FILE.h.19.0888ac70396abe1031c03d393554032f
                           .group:0000000000000000 wm4.stdio.h.53.139e45cf040c0964b2932c0c1bdaf6b2
                           .group:0000000000000000 wm4.stdio_lim.h.19.e4b00b560d878dcfbc6635b3406640c5
                           .group:0000000000000000 wm4.stdio.h.141.d7a290e19ca077c9e4aa7c43ede17a73
                           .group:0000000000000000 wm4.stdio.h.20.b0caa08e5723aa5941367be0e5d2ec59
                           .group:0000000000000000 wm4.stdio2.h.20.f45a0373b68e1296c4aa8cc09d66a9df
                           .group:0000000000000000 wm4.string.h.23.93403f89af7dba8212345449bb14b09d
                           .group:0000000000000000 wm4.string.h.31.e39a94e203ad4e1d978c0fc68ce016ee
                           .group:0000000000000000 wm4.strings.h.19.a259f126920b1bb5ef76bc62b3984a3c
                           .group:0000000000000000 wm4.jinclude.h.67.b19f941ec97c4845fa4609292c7e2db4
                           .group:0000000000000000 wm4.jmorecfg.h.33.3b4c5f9cc07b3737823b06caf24d5b05
                           .group:0000000000000000 wm4.jpeglib.h.40.4f111c27252a38df39328d65454e82f4
                           .group:0000000000000000 wm4.jpegint.h.26.5219ef5d4e4921371d38e77b6091fd20
                           .group:0000000000000000 wm4.jerror.h.25.1dbd8674e70ab5215bc0037320e5c2a2

UNDEFINED SYMBOLS
_GLOBAL_OFFSET_TABLE_
memcpy
jpeg_alloc_huff_table
jpeg_alloc_quant_table
