   1              		.file	"jdapimin.c"
   2              		.text
   3              	.Ltext0:
   4              		.section	.text.jpeg_CreateDecompress,"ax",@progbits
   5              		.p2align 4
   6              		.globl	jpeg_CreateDecompress
   8              	jpeg_CreateDecompress:
   9              	.LVL0:
  10              	.LFB51:
  11              		.file 1 "fltk-1.3.4-1/jpeg/jdapimin.c"
   1:fltk-1.3.4-1/jpeg/jdapimin.c **** /*
   2:fltk-1.3.4-1/jpeg/jdapimin.c ****  * jdapimin.c
   3:fltk-1.3.4-1/jpeg/jdapimin.c ****  *
   4:fltk-1.3.4-1/jpeg/jdapimin.c ****  * Copyright (C) 1994-1998, Thomas G. Lane.
   5:fltk-1.3.4-1/jpeg/jdapimin.c ****  * Modified 2009-2013 by Guido Vollbeding.
   6:fltk-1.3.4-1/jpeg/jdapimin.c ****  * This file is part of the Independent JPEG Group's software.
   7:fltk-1.3.4-1/jpeg/jdapimin.c ****  * For conditions of distribution and use, see the accompanying README file.
   8:fltk-1.3.4-1/jpeg/jdapimin.c ****  *
   9:fltk-1.3.4-1/jpeg/jdapimin.c ****  * This file contains application interface code for the decompression half
  10:fltk-1.3.4-1/jpeg/jdapimin.c ****  * of the JPEG library.  These are the "minimum" API routines that may be
  11:fltk-1.3.4-1/jpeg/jdapimin.c ****  * needed in either the normal full-decompression case or the
  12:fltk-1.3.4-1/jpeg/jdapimin.c ****  * transcoding-only case.
  13:fltk-1.3.4-1/jpeg/jdapimin.c ****  *
  14:fltk-1.3.4-1/jpeg/jdapimin.c ****  * Most of the routines intended to be called directly by an application
  15:fltk-1.3.4-1/jpeg/jdapimin.c ****  * are in this file or in jdapistd.c.  But also see jcomapi.c for routines
  16:fltk-1.3.4-1/jpeg/jdapimin.c ****  * shared by compression and decompression, and jdtrans.c for the transcoding
  17:fltk-1.3.4-1/jpeg/jdapimin.c ****  * case.
  18:fltk-1.3.4-1/jpeg/jdapimin.c ****  */
  19:fltk-1.3.4-1/jpeg/jdapimin.c **** 
  20:fltk-1.3.4-1/jpeg/jdapimin.c **** #define JPEG_INTERNALS
  21:fltk-1.3.4-1/jpeg/jdapimin.c **** #include "jinclude.h"
  22:fltk-1.3.4-1/jpeg/jdapimin.c **** #include "jpeglib.h"
  23:fltk-1.3.4-1/jpeg/jdapimin.c **** 
  24:fltk-1.3.4-1/jpeg/jdapimin.c **** 
  25:fltk-1.3.4-1/jpeg/jdapimin.c **** /*
  26:fltk-1.3.4-1/jpeg/jdapimin.c ****  * Initialization of a JPEG decompression object.
  27:fltk-1.3.4-1/jpeg/jdapimin.c ****  * The error manager must already be set up (in case memory manager fails).
  28:fltk-1.3.4-1/jpeg/jdapimin.c ****  */
  29:fltk-1.3.4-1/jpeg/jdapimin.c **** 
  30:fltk-1.3.4-1/jpeg/jdapimin.c **** GLOBAL(void)
  31:fltk-1.3.4-1/jpeg/jdapimin.c **** jpeg_CreateDecompress (j_decompress_ptr cinfo, int version, size_t structsize)
  32:fltk-1.3.4-1/jpeg/jdapimin.c **** {
  12              		.loc 1 32 1 view -0
  13              		.cfi_startproc
  14              		.loc 1 32 1 is_stmt 0 view .LVU1
  15 0000 F30F1EFA 		endbr64
  33:fltk-1.3.4-1/jpeg/jdapimin.c ****   int i;
  16              		.loc 1 33 3 is_stmt 1 view .LVU2
  34:fltk-1.3.4-1/jpeg/jdapimin.c **** 
  35:fltk-1.3.4-1/jpeg/jdapimin.c ****   /* Guard against version mismatches between library and caller. */
  36:fltk-1.3.4-1/jpeg/jdapimin.c ****   cinfo->mem = NULL;		/* so jpeg_destroy knows mem mgr not called */
  17              		.loc 1 36 3 view .LVU3
  32:fltk-1.3.4-1/jpeg/jdapimin.c ****   int i;
  18              		.loc 1 32 1 is_stmt 0 view .LVU4
  19 0004 55       		pushq	%rbp
  20              		.cfi_def_cfa_offset 16
  21              		.cfi_offset 6, -16
  22 0005 4889D5   		movq	%rdx, %rbp
  23 0008 53       		pushq	%rbx
  24              		.cfi_def_cfa_offset 24
  25              		.cfi_offset 3, -24
  26 0009 4889FB   		movq	%rdi, %rbx
  27 000c 4883EC08 		subq	$8, %rsp
  28              		.cfi_def_cfa_offset 32
  29              		.loc 1 36 14 view .LVU5
  30 0010 48C74708 		movq	$0, 8(%rdi)
  30      00000000 
  37:fltk-1.3.4-1/jpeg/jdapimin.c ****   if (version != JPEG_LIB_VERSION)
  31              		.loc 1 37 3 is_stmt 1 view .LVU6
  32 0018 488B17   		movq	(%rdi), %rdx
  33              	.LVL1:
  34              		.loc 1 37 6 is_stmt 0 view .LVU7
  35 001b 83FE5A   		cmpl	$90, %esi
  36 001e 741F     		je	.L2
  38:fltk-1.3.4-1/jpeg/jdapimin.c ****     ERREXIT2(cinfo, JERR_BAD_LIB_VERSION, JPEG_LIB_VERSION, version);
  37              		.loc 1 38 5 is_stmt 1 view .LVU8
  38 0020 C742280D 		movl	$13, 40(%rdx)
  38      000000
  39 0027 488B07   		movq	(%rdi), %rax
  40 002a C7402C5A 		movl	$90, 44(%rax)
  40      000000
  41 0031 488B07   		movq	(%rdi), %rax
  42 0034 897030   		movl	%esi, 48(%rax)
  43 0037 488B07   		movq	(%rdi), %rax
  44 003a FF10     		call	*(%rax)
  45              	.LVL2:
  46              		.loc 1 38 5 is_stmt 0 view .LVU9
  47 003c 488B13   		movq	(%rbx), %rdx
  48              	.L2:
  39:fltk-1.3.4-1/jpeg/jdapimin.c ****   if (structsize != SIZEOF(struct jpeg_decompress_struct))
  49              		.loc 1 39 3 is_stmt 1 view .LVU10
  50              		.loc 1 39 6 is_stmt 0 view .LVU11
  51 003f 4881FD98 		cmpq	$664, %rbp
  51      020000
  52 0046 7422     		je	.L3
  40:fltk-1.3.4-1/jpeg/jdapimin.c ****     ERREXIT2(cinfo, JERR_BAD_STRUCT_SIZE, 
  53              		.loc 1 40 5 is_stmt 1 view .LVU12
  54 0048 C7422816 		movl	$22, 40(%rdx)
  54      000000
  55 004f 488B03   		movq	(%rbx), %rax
  56 0052 4889DF   		movq	%rbx, %rdi
  57 0055 C7402C98 		movl	$664, 44(%rax)
  57      020000
  58 005c 488B03   		movq	(%rbx), %rax
  59 005f 896830   		movl	%ebp, 48(%rax)
  60 0062 488B03   		movq	(%rbx), %rax
  61 0065 FF10     		call	*(%rax)
  62              	.LVL3:
  63 0067 488B13   		movq	(%rbx), %rdx
  64              	.L3:
  65              	.LBB5:
  41:fltk-1.3.4-1/jpeg/jdapimin.c **** 	     (int) SIZEOF(struct jpeg_decompress_struct), (int) structsize);
  42:fltk-1.3.4-1/jpeg/jdapimin.c **** 
  43:fltk-1.3.4-1/jpeg/jdapimin.c ****   /* For debugging purposes, we zero the whole master structure.
  44:fltk-1.3.4-1/jpeg/jdapimin.c ****    * But the application has already set the err pointer, and may have set
  45:fltk-1.3.4-1/jpeg/jdapimin.c ****    * client_data, so we have to save and restore those fields.
  46:fltk-1.3.4-1/jpeg/jdapimin.c ****    * Note: if application hasn't set client_data, tools like Purify may
  47:fltk-1.3.4-1/jpeg/jdapimin.c ****    * complain here.
  48:fltk-1.3.4-1/jpeg/jdapimin.c ****    */
  49:fltk-1.3.4-1/jpeg/jdapimin.c ****   {
  50:fltk-1.3.4-1/jpeg/jdapimin.c ****     struct jpeg_error_mgr * err = cinfo->err;
  66              		.loc 1 50 5 view .LVU13
  67              	.LVL4:
  51:fltk-1.3.4-1/jpeg/jdapimin.c ****     void * client_data = cinfo->client_data; /* ignore Purify complaint here */
  68              		.loc 1 51 5 view .LVU14
  69              	.LBB6:
  70              	.LBB7:
  71              		.file 2 "/usr/include/x86_64-linux-gnu/bits/string_fortified.h"
   1:/usr/include/x86_64-linux-gnu/bits/string_fortified.h **** /* Copyright (C) 2004-2020 Free Software Foundation, Inc.
   2:/usr/include/x86_64-linux-gnu/bits/string_fortified.h ****    This file is part of the GNU C Library.
   3:/usr/include/x86_64-linux-gnu/bits/string_fortified.h **** 
   4:/usr/include/x86_64-linux-gnu/bits/string_fortified.h ****    The GNU C Library is free software; you can redistribute it and/or
   5:/usr/include/x86_64-linux-gnu/bits/string_fortified.h ****    modify it under the terms of the GNU Lesser General Public
   6:/usr/include/x86_64-linux-gnu/bits/string_fortified.h ****    License as published by the Free Software Foundation; either
   7:/usr/include/x86_64-linux-gnu/bits/string_fortified.h ****    version 2.1 of the License, or (at your option) any later version.
   8:/usr/include/x86_64-linux-gnu/bits/string_fortified.h **** 
   9:/usr/include/x86_64-linux-gnu/bits/string_fortified.h ****    The GNU C Library is distributed in the hope that it will be useful,
  10:/usr/include/x86_64-linux-gnu/bits/string_fortified.h ****    but WITHOUT ANY WARRANTY; without even the implied warranty of
  11:/usr/include/x86_64-linux-gnu/bits/string_fortified.h ****    MERCHANTABILITY or FITNESS FOR A PARTICULAR PURPOSE.  See the GNU
  12:/usr/include/x86_64-linux-gnu/bits/string_fortified.h ****    Lesser General Public License for more details.
  13:/usr/include/x86_64-linux-gnu/bits/string_fortified.h **** 
  14:/usr/include/x86_64-linux-gnu/bits/string_fortified.h ****    You should have received a copy of the GNU Lesser General Public
  15:/usr/include/x86_64-linux-gnu/bits/string_fortified.h ****    License along with the GNU C Library; if not, see
  16:/usr/include/x86_64-linux-gnu/bits/string_fortified.h ****    <https://www.gnu.org/licenses/>.  */
  17:/usr/include/x86_64-linux-gnu/bits/string_fortified.h **** 
  18:/usr/include/x86_64-linux-gnu/bits/string_fortified.h **** #ifndef _BITS_STRING_FORTIFIED_H
  19:/usr/include/x86_64-linux-gnu/bits/string_fortified.h **** #define _BITS_STRING_FORTIFIED_H 1
  20:/usr/include/x86_64-linux-gnu/bits/string_fortified.h **** 
  21:/usr/include/x86_64-linux-gnu/bits/string_fortified.h **** #ifndef _STRING_H
  22:/usr/include/x86_64-linux-gnu/bits/string_fortified.h **** # error "Never use <bits/string_fortified.h> directly; include <string.h> instead."
  23:/usr/include/x86_64-linux-gnu/bits/string_fortified.h **** #endif
  24:/usr/include/x86_64-linux-gnu/bits/string_fortified.h **** 
  25:/usr/include/x86_64-linux-gnu/bits/string_fortified.h **** #if !__GNUC_PREREQ (5,0)
  26:/usr/include/x86_64-linux-gnu/bits/string_fortified.h **** __warndecl (__warn_memset_zero_len,
  27:/usr/include/x86_64-linux-gnu/bits/string_fortified.h **** 	    "memset used with constant zero length parameter; this could be due to transposed parameters")
  28:/usr/include/x86_64-linux-gnu/bits/string_fortified.h **** #endif
  29:/usr/include/x86_64-linux-gnu/bits/string_fortified.h **** 
  30:/usr/include/x86_64-linux-gnu/bits/string_fortified.h **** __fortify_function void *
  31:/usr/include/x86_64-linux-gnu/bits/string_fortified.h **** __NTH (memcpy (void *__restrict __dest, const void *__restrict __src,
  32:/usr/include/x86_64-linux-gnu/bits/string_fortified.h **** 	       size_t __len))
  33:/usr/include/x86_64-linux-gnu/bits/string_fortified.h **** {
  34:/usr/include/x86_64-linux-gnu/bits/string_fortified.h ****   return __builtin___memcpy_chk (__dest, __src, __len, __bos0 (__dest));
  35:/usr/include/x86_64-linux-gnu/bits/string_fortified.h **** }
  36:/usr/include/x86_64-linux-gnu/bits/string_fortified.h **** 
  37:/usr/include/x86_64-linux-gnu/bits/string_fortified.h **** __fortify_function void *
  38:/usr/include/x86_64-linux-gnu/bits/string_fortified.h **** __NTH (memmove (void *__dest, const void *__src, size_t __len))
  39:/usr/include/x86_64-linux-gnu/bits/string_fortified.h **** {
  40:/usr/include/x86_64-linux-gnu/bits/string_fortified.h ****   return __builtin___memmove_chk (__dest, __src, __len, __bos0 (__dest));
  41:/usr/include/x86_64-linux-gnu/bits/string_fortified.h **** }
  42:/usr/include/x86_64-linux-gnu/bits/string_fortified.h **** 
  43:/usr/include/x86_64-linux-gnu/bits/string_fortified.h **** #ifdef __USE_GNU
  44:/usr/include/x86_64-linux-gnu/bits/string_fortified.h **** __fortify_function void *
  45:/usr/include/x86_64-linux-gnu/bits/string_fortified.h **** __NTH (mempcpy (void *__restrict __dest, const void *__restrict __src,
  46:/usr/include/x86_64-linux-gnu/bits/string_fortified.h **** 		size_t __len))
  47:/usr/include/x86_64-linux-gnu/bits/string_fortified.h **** {
  48:/usr/include/x86_64-linux-gnu/bits/string_fortified.h ****   return __builtin___mempcpy_chk (__dest, __src, __len, __bos0 (__dest));
  49:/usr/include/x86_64-linux-gnu/bits/string_fortified.h **** }
  50:/usr/include/x86_64-linux-gnu/bits/string_fortified.h **** #endif
  51:/usr/include/x86_64-linux-gnu/bits/string_fortified.h **** 
  52:/usr/include/x86_64-linux-gnu/bits/string_fortified.h **** 
  53:/usr/include/x86_64-linux-gnu/bits/string_fortified.h **** /* The first two tests here help to catch a somewhat common problem
  54:/usr/include/x86_64-linux-gnu/bits/string_fortified.h ****    where the second and third parameter are transposed.  This is
  55:/usr/include/x86_64-linux-gnu/bits/string_fortified.h ****    especially problematic if the intended fill value is zero.  In this
  56:/usr/include/x86_64-linux-gnu/bits/string_fortified.h ****    case no work is done at all.  We detect these problems by referring
  57:/usr/include/x86_64-linux-gnu/bits/string_fortified.h ****    non-existing functions.  */
  58:/usr/include/x86_64-linux-gnu/bits/string_fortified.h **** __fortify_function void *
  59:/usr/include/x86_64-linux-gnu/bits/string_fortified.h **** __NTH (memset (void *__dest, int __ch, size_t __len))
  60:/usr/include/x86_64-linux-gnu/bits/string_fortified.h **** {
  61:/usr/include/x86_64-linux-gnu/bits/string_fortified.h ****   /* GCC-5.0 and newer implements these checks in the compiler, so we don't
  62:/usr/include/x86_64-linux-gnu/bits/string_fortified.h ****      need them here.  */
  63:/usr/include/x86_64-linux-gnu/bits/string_fortified.h **** #if !__GNUC_PREREQ (5,0)
  64:/usr/include/x86_64-linux-gnu/bits/string_fortified.h ****   if (__builtin_constant_p (__len) && __len == 0
  65:/usr/include/x86_64-linux-gnu/bits/string_fortified.h ****       && (!__builtin_constant_p (__ch) || __ch != 0))
  66:/usr/include/x86_64-linux-gnu/bits/string_fortified.h ****     {
  67:/usr/include/x86_64-linux-gnu/bits/string_fortified.h ****       __warn_memset_zero_len ();
  68:/usr/include/x86_64-linux-gnu/bits/string_fortified.h ****       return __dest;
  69:/usr/include/x86_64-linux-gnu/bits/string_fortified.h ****     }
  70:/usr/include/x86_64-linux-gnu/bits/string_fortified.h **** #endif
  71:/usr/include/x86_64-linux-gnu/bits/string_fortified.h ****   return __builtin___memset_chk (__dest, __ch, __len, __bos0 (__dest));
  72              		.loc 2 71 10 is_stmt 0 view .LVU15
  73 006a 488D7B08 		leaq	8(%rbx), %rdi
  74 006e 4889D9   		movq	%rbx, %rcx
  75 0071 31C0     		xorl	%eax, %eax
  76              	.LBE7:
  77              	.LBE6:
  78              		.loc 1 51 12 view .LVU16
  79 0073 488B7318 		movq	24(%rbx), %rsi
  80              	.LVL5:
  52:fltk-1.3.4-1/jpeg/jdapimin.c ****     MEMZERO(cinfo, SIZEOF(struct jpeg_decompress_struct));
  81              		.loc 1 52 5 is_stmt 1 view .LVU17
  82              	.LBB9:
  83              	.LBI6:
  59:/usr/include/x86_64-linux-gnu/bits/string_fortified.h **** {
  84              		.loc 2 59 1 view .LVU18
  85              	.LBB8:
  86              		.loc 2 71 3 view .LVU19
  87              		.loc 2 71 10 is_stmt 0 view .LVU20
  88 0077 48C78390 		movq	$0, 656(%rbx)
  88      02000000 
  88      000000
  89 0082 4883E7F8 		andq	$-8, %rdi
  90 0086 4829F9   		subq	%rdi, %rcx
  91 0089 81C19802 		addl	$664, %ecx
  91      0000
  92 008f C1E903   		shrl	$3, %ecx
  93 0092 F348AB   		rep stosq
  94              	.LVL6:
  95              		.loc 2 71 10 view .LVU21
  96              	.LBE8:
  97              	.LBE9:
  53:fltk-1.3.4-1/jpeg/jdapimin.c ****     cinfo->err = err;
  98              		.loc 1 53 5 is_stmt 1 view .LVU22
  99              		.loc 1 53 16 is_stmt 0 view .LVU23
 100 0095 488913   		movq	%rdx, (%rbx)
 101              	.LVL7:
  54:fltk-1.3.4-1/jpeg/jdapimin.c ****     cinfo->client_data = client_data;
 102              		.loc 1 54 5 is_stmt 1 view .LVU24
 103              	.LBE5:
  55:fltk-1.3.4-1/jpeg/jdapimin.c ****   }
  56:fltk-1.3.4-1/jpeg/jdapimin.c ****   cinfo->is_decompressor = TRUE;
  57:fltk-1.3.4-1/jpeg/jdapimin.c **** 
  58:fltk-1.3.4-1/jpeg/jdapimin.c ****   /* Initialize a memory manager instance for this object */
  59:fltk-1.3.4-1/jpeg/jdapimin.c ****   jinit_memory_mgr((j_common_ptr) cinfo);
 104              		.loc 1 59 3 is_stmt 0 view .LVU25
 105 0098 4889DF   		movq	%rbx, %rdi
 106              	.LBB10:
  54:fltk-1.3.4-1/jpeg/jdapimin.c ****     cinfo->client_data = client_data;
 107              		.loc 1 54 24 view .LVU26
 108 009b 48897318 		movq	%rsi, 24(%rbx)
 109              	.LBE10:
  56:fltk-1.3.4-1/jpeg/jdapimin.c **** 
 110              		.loc 1 56 3 is_stmt 1 view .LVU27
  56:fltk-1.3.4-1/jpeg/jdapimin.c **** 
 111              		.loc 1 56 26 is_stmt 0 view .LVU28
 112 009f C7432001 		movl	$1, 32(%rbx)
 112      000000
 113              		.loc 1 59 3 is_stmt 1 view .LVU29
 114 00a6 E8000000 		call	jinit_memory_mgr@PLT
 114      00
 115              	.LVL8:
  60:fltk-1.3.4-1/jpeg/jdapimin.c **** 
  61:fltk-1.3.4-1/jpeg/jdapimin.c ****   /* Zero out pointers to permanent structures. */
  62:fltk-1.3.4-1/jpeg/jdapimin.c ****   cinfo->progress = NULL;
 116              		.loc 1 62 3 view .LVU30
 117              		.loc 1 62 19 is_stmt 0 view .LVU31
 118 00ab 48C74310 		movq	$0, 16(%rbx)
 118      00000000 
  63:fltk-1.3.4-1/jpeg/jdapimin.c ****   cinfo->src = NULL;
 119              		.loc 1 63 3 is_stmt 1 view .LVU32
  64:fltk-1.3.4-1/jpeg/jdapimin.c **** 
  65:fltk-1.3.4-1/jpeg/jdapimin.c ****   for (i = 0; i < NUM_QUANT_TBLS; i++)
  66:fltk-1.3.4-1/jpeg/jdapimin.c ****     cinfo->quant_tbl_ptrs[i] = NULL;
  67:fltk-1.3.4-1/jpeg/jdapimin.c **** 
  68:fltk-1.3.4-1/jpeg/jdapimin.c ****   for (i = 0; i < NUM_HUFF_TBLS; i++) {
  69:fltk-1.3.4-1/jpeg/jdapimin.c ****     cinfo->dc_huff_tbl_ptrs[i] = NULL;
  70:fltk-1.3.4-1/jpeg/jdapimin.c ****     cinfo->ac_huff_tbl_ptrs[i] = NULL;
  71:fltk-1.3.4-1/jpeg/jdapimin.c ****   }
  72:fltk-1.3.4-1/jpeg/jdapimin.c **** 
  73:fltk-1.3.4-1/jpeg/jdapimin.c ****   /* Initialize marker processor so application can override methods
  74:fltk-1.3.4-1/jpeg/jdapimin.c ****    * for COM, APPn markers before calling jpeg_read_header.
  75:fltk-1.3.4-1/jpeg/jdapimin.c ****    */
  76:fltk-1.3.4-1/jpeg/jdapimin.c ****   cinfo->marker_list = NULL;
  77:fltk-1.3.4-1/jpeg/jdapimin.c ****   jinit_marker_reader(cinfo);
 120              		.loc 1 77 3 is_stmt 0 view .LVU33
 121 00b3 4889DF   		movq	%rbx, %rdi
  63:fltk-1.3.4-1/jpeg/jdapimin.c ****   cinfo->src = NULL;
 122              		.loc 1 63 14 view .LVU34
 123 00b6 48C74328 		movq	$0, 40(%rbx)
 123      00000000 
  65:fltk-1.3.4-1/jpeg/jdapimin.c ****     cinfo->quant_tbl_ptrs[i] = NULL;
 124              		.loc 1 65 3 is_stmt 1 view .LVU35
 125              	.LVL9:
  65:fltk-1.3.4-1/jpeg/jdapimin.c ****     cinfo->quant_tbl_ptrs[i] = NULL;
 126              		.loc 1 65 15 view .LVU36
  66:fltk-1.3.4-1/jpeg/jdapimin.c **** 
 127              		.loc 1 66 5 view .LVU37
  66:fltk-1.3.4-1/jpeg/jdapimin.c **** 
 128              		.loc 1 66 30 is_stmt 0 view .LVU38
 129 00be 48C783C8 		movq	$0, 200(%rbx)
 129      00000000 
 129      000000
  65:fltk-1.3.4-1/jpeg/jdapimin.c ****     cinfo->quant_tbl_ptrs[i] = NULL;
 130              		.loc 1 65 35 is_stmt 1 view .LVU39
 131              	.LVL10:
  65:fltk-1.3.4-1/jpeg/jdapimin.c ****     cinfo->quant_tbl_ptrs[i] = NULL;
 132              		.loc 1 65 15 view .LVU40
  66:fltk-1.3.4-1/jpeg/jdapimin.c **** 
 133              		.loc 1 66 5 view .LVU41
  66:fltk-1.3.4-1/jpeg/jdapimin.c **** 
 134              		.loc 1 66 30 is_stmt 0 view .LVU42
 135 00c9 48C783D0 		movq	$0, 208(%rbx)
 135      00000000 
 135      000000
  65:fltk-1.3.4-1/jpeg/jdapimin.c ****     cinfo->quant_tbl_ptrs[i] = NULL;
 136              		.loc 1 65 35 is_stmt 1 view .LVU43
 137              	.LVL11:
  65:fltk-1.3.4-1/jpeg/jdapimin.c ****     cinfo->quant_tbl_ptrs[i] = NULL;
 138              		.loc 1 65 15 view .LVU44
  66:fltk-1.3.4-1/jpeg/jdapimin.c **** 
 139              		.loc 1 66 5 view .LVU45
  66:fltk-1.3.4-1/jpeg/jdapimin.c **** 
 140              		.loc 1 66 30 is_stmt 0 view .LVU46
 141 00d4 48C783D8 		movq	$0, 216(%rbx)
 141      00000000 
 141      000000
  65:fltk-1.3.4-1/jpeg/jdapimin.c ****     cinfo->quant_tbl_ptrs[i] = NULL;
 142              		.loc 1 65 35 is_stmt 1 view .LVU47
 143              	.LVL12:
  65:fltk-1.3.4-1/jpeg/jdapimin.c ****     cinfo->quant_tbl_ptrs[i] = NULL;
 144              		.loc 1 65 15 view .LVU48
  66:fltk-1.3.4-1/jpeg/jdapimin.c **** 
 145              		.loc 1 66 5 view .LVU49
  66:fltk-1.3.4-1/jpeg/jdapimin.c **** 
 146              		.loc 1 66 30 is_stmt 0 view .LVU50
 147 00df 48C783E0 		movq	$0, 224(%rbx)
 147      00000000 
 147      000000
  65:fltk-1.3.4-1/jpeg/jdapimin.c ****     cinfo->quant_tbl_ptrs[i] = NULL;
 148              		.loc 1 65 35 is_stmt 1 view .LVU51
 149              	.LVL13:
  65:fltk-1.3.4-1/jpeg/jdapimin.c ****     cinfo->quant_tbl_ptrs[i] = NULL;
 150              		.loc 1 65 15 view .LVU52
  68:fltk-1.3.4-1/jpeg/jdapimin.c ****     cinfo->dc_huff_tbl_ptrs[i] = NULL;
 151              		.loc 1 68 15 view .LVU53
  69:fltk-1.3.4-1/jpeg/jdapimin.c ****     cinfo->ac_huff_tbl_ptrs[i] = NULL;
 152              		.loc 1 69 5 view .LVU54
  69:fltk-1.3.4-1/jpeg/jdapimin.c ****     cinfo->ac_huff_tbl_ptrs[i] = NULL;
 153              		.loc 1 69 32 is_stmt 0 view .LVU55
 154 00ea 48C783E8 		movq	$0, 232(%rbx)
 154      00000000 
 154      000000
  70:fltk-1.3.4-1/jpeg/jdapimin.c ****   }
 155              		.loc 1 70 5 is_stmt 1 view .LVU56
  70:fltk-1.3.4-1/jpeg/jdapimin.c ****   }
 156              		.loc 1 70 32 is_stmt 0 view .LVU57
 157 00f5 48C78308 		movq	$0, 264(%rbx)
 157      01000000 
 157      000000
  68:fltk-1.3.4-1/jpeg/jdapimin.c ****     cinfo->dc_huff_tbl_ptrs[i] = NULL;
 158              		.loc 1 68 34 is_stmt 1 view .LVU58
 159              	.LVL14:
  68:fltk-1.3.4-1/jpeg/jdapimin.c ****     cinfo->dc_huff_tbl_ptrs[i] = NULL;
 160              		.loc 1 68 15 view .LVU59
  69:fltk-1.3.4-1/jpeg/jdapimin.c ****     cinfo->ac_huff_tbl_ptrs[i] = NULL;
 161              		.loc 1 69 5 view .LVU60
  69:fltk-1.3.4-1/jpeg/jdapimin.c ****     cinfo->ac_huff_tbl_ptrs[i] = NULL;
 162              		.loc 1 69 32 is_stmt 0 view .LVU61
 163 0100 48C783F0 		movq	$0, 240(%rbx)
 163      00000000 
 163      000000
  70:fltk-1.3.4-1/jpeg/jdapimin.c ****   }
 164              		.loc 1 70 5 is_stmt 1 view .LVU62
  70:fltk-1.3.4-1/jpeg/jdapimin.c ****   }
 165              		.loc 1 70 32 is_stmt 0 view .LVU63
 166 010b 48C78310 		movq	$0, 272(%rbx)
 166      01000000 
 166      000000
  68:fltk-1.3.4-1/jpeg/jdapimin.c ****     cinfo->dc_huff_tbl_ptrs[i] = NULL;
 167              		.loc 1 68 34 is_stmt 1 view .LVU64
 168              	.LVL15:
  68:fltk-1.3.4-1/jpeg/jdapimin.c ****     cinfo->dc_huff_tbl_ptrs[i] = NULL;
 169              		.loc 1 68 15 view .LVU65
  69:fltk-1.3.4-1/jpeg/jdapimin.c ****     cinfo->ac_huff_tbl_ptrs[i] = NULL;
 170              		.loc 1 69 5 view .LVU66
  69:fltk-1.3.4-1/jpeg/jdapimin.c ****     cinfo->ac_huff_tbl_ptrs[i] = NULL;
 171              		.loc 1 69 32 is_stmt 0 view .LVU67
 172 0116 48C783F8 		movq	$0, 248(%rbx)
 172      00000000 
 172      000000
  70:fltk-1.3.4-1/jpeg/jdapimin.c ****   }
 173              		.loc 1 70 5 is_stmt 1 view .LVU68
  70:fltk-1.3.4-1/jpeg/jdapimin.c ****   }
 174              		.loc 1 70 32 is_stmt 0 view .LVU69
 175 0121 48C78318 		movq	$0, 280(%rbx)
 175      01000000 
 175      000000
  68:fltk-1.3.4-1/jpeg/jdapimin.c ****     cinfo->dc_huff_tbl_ptrs[i] = NULL;
 176              		.loc 1 68 34 is_stmt 1 view .LVU70
 177              	.LVL16:
  68:fltk-1.3.4-1/jpeg/jdapimin.c ****     cinfo->dc_huff_tbl_ptrs[i] = NULL;
 178              		.loc 1 68 15 view .LVU71
  69:fltk-1.3.4-1/jpeg/jdapimin.c ****     cinfo->ac_huff_tbl_ptrs[i] = NULL;
 179              		.loc 1 69 5 view .LVU72
  69:fltk-1.3.4-1/jpeg/jdapimin.c ****     cinfo->ac_huff_tbl_ptrs[i] = NULL;
 180              		.loc 1 69 32 is_stmt 0 view .LVU73
 181 012c 48C78300 		movq	$0, 256(%rbx)
 181      01000000 
 181      000000
  70:fltk-1.3.4-1/jpeg/jdapimin.c ****   }
 182              		.loc 1 70 5 is_stmt 1 view .LVU74
  70:fltk-1.3.4-1/jpeg/jdapimin.c ****   }
 183              		.loc 1 70 32 is_stmt 0 view .LVU75
 184 0137 48C78320 		movq	$0, 288(%rbx)
 184      01000000 
 184      000000
  68:fltk-1.3.4-1/jpeg/jdapimin.c ****     cinfo->dc_huff_tbl_ptrs[i] = NULL;
 185              		.loc 1 68 34 is_stmt 1 view .LVU76
 186              	.LVL17:
  68:fltk-1.3.4-1/jpeg/jdapimin.c ****     cinfo->dc_huff_tbl_ptrs[i] = NULL;
 187              		.loc 1 68 15 view .LVU77
  76:fltk-1.3.4-1/jpeg/jdapimin.c ****   jinit_marker_reader(cinfo);
 188              		.loc 1 76 3 view .LVU78
  76:fltk-1.3.4-1/jpeg/jdapimin.c ****   jinit_marker_reader(cinfo);
 189              		.loc 1 76 22 is_stmt 0 view .LVU79
 190 0142 48C78398 		movq	$0, 408(%rbx)
 190      01000000 
 190      000000
 191              		.loc 1 77 3 is_stmt 1 view .LVU80
 192 014d E8000000 		call	jinit_marker_reader@PLT
 192      00
 193              	.LVL18:
  78:fltk-1.3.4-1/jpeg/jdapimin.c **** 
  79:fltk-1.3.4-1/jpeg/jdapimin.c ****   /* And initialize the overall input controller. */
  80:fltk-1.3.4-1/jpeg/jdapimin.c ****   jinit_input_controller(cinfo);
 194              		.loc 1 80 3 view .LVU81
 195 0152 4889DF   		movq	%rbx, %rdi
 196 0155 E8000000 		call	jinit_input_controller@PLT
 196      00
 197              	.LVL19:
  81:fltk-1.3.4-1/jpeg/jdapimin.c **** 
  82:fltk-1.3.4-1/jpeg/jdapimin.c ****   /* OK, I'm ready */
  83:fltk-1.3.4-1/jpeg/jdapimin.c ****   cinfo->global_state = DSTATE_START;
 198              		.loc 1 83 3 view .LVU82
 199              		.loc 1 83 23 is_stmt 0 view .LVU83
 200 015a C74324C8 		movl	$200, 36(%rbx)
 200      000000
  84:fltk-1.3.4-1/jpeg/jdapimin.c **** }
 201              		.loc 1 84 1 view .LVU84
 202 0161 4883C408 		addq	$8, %rsp
 203              		.cfi_def_cfa_offset 24
 204 0165 5B       		popq	%rbx
 205              		.cfi_def_cfa_offset 16
 206              	.LVL20:
 207              		.loc 1 84 1 view .LVU85
 208 0166 5D       		popq	%rbp
 209              		.cfi_def_cfa_offset 8
 210              	.LVL21:
 211              		.loc 1 84 1 view .LVU86
 212 0167 C3       		ret
 213              		.cfi_endproc
 214              	.LFE51:
 216              		.section	.text.jpeg_destroy_decompress,"ax",@progbits
 217              		.p2align 4
 218              		.globl	jpeg_destroy_decompress
 220              	jpeg_destroy_decompress:
 221              	.LVL22:
 222              	.LFB52:
  85:fltk-1.3.4-1/jpeg/jdapimin.c **** 
  86:fltk-1.3.4-1/jpeg/jdapimin.c **** 
  87:fltk-1.3.4-1/jpeg/jdapimin.c **** /*
  88:fltk-1.3.4-1/jpeg/jdapimin.c ****  * Destruction of a JPEG decompression object
  89:fltk-1.3.4-1/jpeg/jdapimin.c ****  */
  90:fltk-1.3.4-1/jpeg/jdapimin.c **** 
  91:fltk-1.3.4-1/jpeg/jdapimin.c **** GLOBAL(void)
  92:fltk-1.3.4-1/jpeg/jdapimin.c **** jpeg_destroy_decompress (j_decompress_ptr cinfo)
  93:fltk-1.3.4-1/jpeg/jdapimin.c **** {
 223              		.loc 1 93 1 is_stmt 1 view -0
 224              		.cfi_startproc
 225              		.loc 1 93 1 is_stmt 0 view .LVU88
 226 0000 F30F1EFA 		endbr64
  94:fltk-1.3.4-1/jpeg/jdapimin.c ****   jpeg_destroy((j_common_ptr) cinfo); /* use common routine */
 227              		.loc 1 94 3 is_stmt 1 view .LVU89
 228 0004 E9000000 		jmp	jpeg_destroy@PLT
 228      00
 229              	.LVL23:
 230              		.loc 1 94 3 is_stmt 0 view .LVU90
 231              		.cfi_endproc
 232              	.LFE52:
 234              		.section	.text.jpeg_abort_decompress,"ax",@progbits
 235              		.p2align 4
 236              		.globl	jpeg_abort_decompress
 238              	jpeg_abort_decompress:
 239              	.LVL24:
 240              	.LFB53:
  95:fltk-1.3.4-1/jpeg/jdapimin.c **** }
  96:fltk-1.3.4-1/jpeg/jdapimin.c **** 
  97:fltk-1.3.4-1/jpeg/jdapimin.c **** 
  98:fltk-1.3.4-1/jpeg/jdapimin.c **** /*
  99:fltk-1.3.4-1/jpeg/jdapimin.c ****  * Abort processing of a JPEG decompression operation,
 100:fltk-1.3.4-1/jpeg/jdapimin.c ****  * but don't destroy the object itself.
 101:fltk-1.3.4-1/jpeg/jdapimin.c ****  */
 102:fltk-1.3.4-1/jpeg/jdapimin.c **** 
 103:fltk-1.3.4-1/jpeg/jdapimin.c **** GLOBAL(void)
 104:fltk-1.3.4-1/jpeg/jdapimin.c **** jpeg_abort_decompress (j_decompress_ptr cinfo)
 105:fltk-1.3.4-1/jpeg/jdapimin.c **** {
 241              		.loc 1 105 1 is_stmt 1 view -0
 242              		.cfi_startproc
 243              		.loc 1 105 1 is_stmt 0 view .LVU92
 244 0000 F30F1EFA 		endbr64
 106:fltk-1.3.4-1/jpeg/jdapimin.c ****   jpeg_abort((j_common_ptr) cinfo); /* use common routine */
 245              		.loc 1 106 3 is_stmt 1 view .LVU93
 246 0004 E9000000 		jmp	jpeg_abort@PLT
 246      00
 247              	.LVL25:
 248              		.loc 1 106 3 is_stmt 0 view .LVU94
 249              		.cfi_endproc
 250              	.LFE53:
 252              		.section	.text.jpeg_consume_input,"ax",@progbits
 253              		.p2align 4
 254              		.globl	jpeg_consume_input
 256              	jpeg_consume_input:
 257              	.LVL26:
 258              	.LFB56:
 107:fltk-1.3.4-1/jpeg/jdapimin.c **** }
 108:fltk-1.3.4-1/jpeg/jdapimin.c **** 
 109:fltk-1.3.4-1/jpeg/jdapimin.c **** 
 110:fltk-1.3.4-1/jpeg/jdapimin.c **** /*
 111:fltk-1.3.4-1/jpeg/jdapimin.c ****  * Set default decompression parameters.
 112:fltk-1.3.4-1/jpeg/jdapimin.c ****  */
 113:fltk-1.3.4-1/jpeg/jdapimin.c **** 
 114:fltk-1.3.4-1/jpeg/jdapimin.c **** LOCAL(void)
 115:fltk-1.3.4-1/jpeg/jdapimin.c **** default_decompress_parms (j_decompress_ptr cinfo)
 116:fltk-1.3.4-1/jpeg/jdapimin.c **** {
 117:fltk-1.3.4-1/jpeg/jdapimin.c ****   int cid0, cid1, cid2;
 118:fltk-1.3.4-1/jpeg/jdapimin.c **** 
 119:fltk-1.3.4-1/jpeg/jdapimin.c ****   /* Guess the input colorspace, and set output colorspace accordingly. */
 120:fltk-1.3.4-1/jpeg/jdapimin.c ****   /* Note application may override our guesses. */
 121:fltk-1.3.4-1/jpeg/jdapimin.c ****   switch (cinfo->num_components) {
 122:fltk-1.3.4-1/jpeg/jdapimin.c ****   case 1:
 123:fltk-1.3.4-1/jpeg/jdapimin.c ****     cinfo->jpeg_color_space = JCS_GRAYSCALE;
 124:fltk-1.3.4-1/jpeg/jdapimin.c ****     cinfo->out_color_space = JCS_GRAYSCALE;
 125:fltk-1.3.4-1/jpeg/jdapimin.c ****     break;
 126:fltk-1.3.4-1/jpeg/jdapimin.c ****     
 127:fltk-1.3.4-1/jpeg/jdapimin.c ****   case 3:
 128:fltk-1.3.4-1/jpeg/jdapimin.c ****     cid0 = cinfo->comp_info[0].component_id;
 129:fltk-1.3.4-1/jpeg/jdapimin.c ****     cid1 = cinfo->comp_info[1].component_id;
 130:fltk-1.3.4-1/jpeg/jdapimin.c ****     cid2 = cinfo->comp_info[2].component_id;
 131:fltk-1.3.4-1/jpeg/jdapimin.c **** 
 132:fltk-1.3.4-1/jpeg/jdapimin.c ****     /* First try to guess from the component IDs */
 133:fltk-1.3.4-1/jpeg/jdapimin.c ****     if      (cid0 == 0x01 && cid1 == 0x02 && cid2 == 0x03)
 134:fltk-1.3.4-1/jpeg/jdapimin.c ****       cinfo->jpeg_color_space = JCS_YCbCr;
 135:fltk-1.3.4-1/jpeg/jdapimin.c ****     else if (cid0 == 0x01 && cid1 == 0x22 && cid2 == 0x23)
 136:fltk-1.3.4-1/jpeg/jdapimin.c ****       cinfo->jpeg_color_space = JCS_BG_YCC;
 137:fltk-1.3.4-1/jpeg/jdapimin.c ****     else if (cid0 == 0x52 && cid1 == 0x47 && cid2 == 0x42)
 138:fltk-1.3.4-1/jpeg/jdapimin.c ****       cinfo->jpeg_color_space = JCS_RGB;	/* ASCII 'R', 'G', 'B' */
 139:fltk-1.3.4-1/jpeg/jdapimin.c ****     else if (cid0 == 0x72 && cid1 == 0x67 && cid2 == 0x62)
 140:fltk-1.3.4-1/jpeg/jdapimin.c ****       cinfo->jpeg_color_space = JCS_BG_RGB;	/* ASCII 'r', 'g', 'b' */
 141:fltk-1.3.4-1/jpeg/jdapimin.c ****     else if (cinfo->saw_JFIF_marker)
 142:fltk-1.3.4-1/jpeg/jdapimin.c ****       cinfo->jpeg_color_space = JCS_YCbCr;	/* assume it's YCbCr */
 143:fltk-1.3.4-1/jpeg/jdapimin.c ****     else if (cinfo->saw_Adobe_marker) {
 144:fltk-1.3.4-1/jpeg/jdapimin.c ****       switch (cinfo->Adobe_transform) {
 145:fltk-1.3.4-1/jpeg/jdapimin.c ****       case 0:
 146:fltk-1.3.4-1/jpeg/jdapimin.c **** 	cinfo->jpeg_color_space = JCS_RGB;
 147:fltk-1.3.4-1/jpeg/jdapimin.c **** 	break;
 148:fltk-1.3.4-1/jpeg/jdapimin.c ****       case 1:
 149:fltk-1.3.4-1/jpeg/jdapimin.c **** 	cinfo->jpeg_color_space = JCS_YCbCr;
 150:fltk-1.3.4-1/jpeg/jdapimin.c **** 	break;
 151:fltk-1.3.4-1/jpeg/jdapimin.c ****       default:
 152:fltk-1.3.4-1/jpeg/jdapimin.c **** 	WARNMS1(cinfo, JWRN_ADOBE_XFORM, cinfo->Adobe_transform);
 153:fltk-1.3.4-1/jpeg/jdapimin.c **** 	cinfo->jpeg_color_space = JCS_YCbCr;	/* assume it's YCbCr */
 154:fltk-1.3.4-1/jpeg/jdapimin.c **** 	break;
 155:fltk-1.3.4-1/jpeg/jdapimin.c ****       }
 156:fltk-1.3.4-1/jpeg/jdapimin.c ****     } else {
 157:fltk-1.3.4-1/jpeg/jdapimin.c ****       TRACEMS3(cinfo, 1, JTRC_UNKNOWN_IDS, cid0, cid1, cid2);
 158:fltk-1.3.4-1/jpeg/jdapimin.c ****       cinfo->jpeg_color_space = JCS_YCbCr;	/* assume it's YCbCr */
 159:fltk-1.3.4-1/jpeg/jdapimin.c ****     }
 160:fltk-1.3.4-1/jpeg/jdapimin.c ****     /* Always guess RGB is proper output colorspace. */
 161:fltk-1.3.4-1/jpeg/jdapimin.c ****     cinfo->out_color_space = JCS_RGB;
 162:fltk-1.3.4-1/jpeg/jdapimin.c ****     break;
 163:fltk-1.3.4-1/jpeg/jdapimin.c ****     
 164:fltk-1.3.4-1/jpeg/jdapimin.c ****   case 4:
 165:fltk-1.3.4-1/jpeg/jdapimin.c ****     if (cinfo->saw_Adobe_marker) {
 166:fltk-1.3.4-1/jpeg/jdapimin.c ****       switch (cinfo->Adobe_transform) {
 167:fltk-1.3.4-1/jpeg/jdapimin.c ****       case 0:
 168:fltk-1.3.4-1/jpeg/jdapimin.c **** 	cinfo->jpeg_color_space = JCS_CMYK;
 169:fltk-1.3.4-1/jpeg/jdapimin.c **** 	break;
 170:fltk-1.3.4-1/jpeg/jdapimin.c ****       case 2:
 171:fltk-1.3.4-1/jpeg/jdapimin.c **** 	cinfo->jpeg_color_space = JCS_YCCK;
 172:fltk-1.3.4-1/jpeg/jdapimin.c **** 	break;
 173:fltk-1.3.4-1/jpeg/jdapimin.c ****       default:
 174:fltk-1.3.4-1/jpeg/jdapimin.c **** 	WARNMS1(cinfo, JWRN_ADOBE_XFORM, cinfo->Adobe_transform);
 175:fltk-1.3.4-1/jpeg/jdapimin.c **** 	cinfo->jpeg_color_space = JCS_YCCK;	/* assume it's YCCK */
 176:fltk-1.3.4-1/jpeg/jdapimin.c **** 	break;
 177:fltk-1.3.4-1/jpeg/jdapimin.c ****       }
 178:fltk-1.3.4-1/jpeg/jdapimin.c ****     } else {
 179:fltk-1.3.4-1/jpeg/jdapimin.c ****       /* No special markers, assume straight CMYK. */
 180:fltk-1.3.4-1/jpeg/jdapimin.c ****       cinfo->jpeg_color_space = JCS_CMYK;
 181:fltk-1.3.4-1/jpeg/jdapimin.c ****     }
 182:fltk-1.3.4-1/jpeg/jdapimin.c ****     cinfo->out_color_space = JCS_CMYK;
 183:fltk-1.3.4-1/jpeg/jdapimin.c ****     break;
 184:fltk-1.3.4-1/jpeg/jdapimin.c ****     
 185:fltk-1.3.4-1/jpeg/jdapimin.c ****   default:
 186:fltk-1.3.4-1/jpeg/jdapimin.c ****     cinfo->jpeg_color_space = JCS_UNKNOWN;
 187:fltk-1.3.4-1/jpeg/jdapimin.c ****     cinfo->out_color_space = JCS_UNKNOWN;
 188:fltk-1.3.4-1/jpeg/jdapimin.c ****     break;
 189:fltk-1.3.4-1/jpeg/jdapimin.c ****   }
 190:fltk-1.3.4-1/jpeg/jdapimin.c **** 
 191:fltk-1.3.4-1/jpeg/jdapimin.c ****   /* Set defaults for other decompression parameters. */
 192:fltk-1.3.4-1/jpeg/jdapimin.c ****   cinfo->scale_num = cinfo->block_size;		/* 1:1 scaling */
 193:fltk-1.3.4-1/jpeg/jdapimin.c ****   cinfo->scale_denom = cinfo->block_size;
 194:fltk-1.3.4-1/jpeg/jdapimin.c ****   cinfo->output_gamma = 1.0;
 195:fltk-1.3.4-1/jpeg/jdapimin.c ****   cinfo->buffered_image = FALSE;
 196:fltk-1.3.4-1/jpeg/jdapimin.c ****   cinfo->raw_data_out = FALSE;
 197:fltk-1.3.4-1/jpeg/jdapimin.c ****   cinfo->dct_method = JDCT_DEFAULT;
 198:fltk-1.3.4-1/jpeg/jdapimin.c ****   cinfo->do_fancy_upsampling = TRUE;
 199:fltk-1.3.4-1/jpeg/jdapimin.c ****   cinfo->do_block_smoothing = TRUE;
 200:fltk-1.3.4-1/jpeg/jdapimin.c ****   cinfo->quantize_colors = FALSE;
 201:fltk-1.3.4-1/jpeg/jdapimin.c ****   /* We set these in case application only sets quantize_colors. */
 202:fltk-1.3.4-1/jpeg/jdapimin.c ****   cinfo->dither_mode = JDITHER_FS;
 203:fltk-1.3.4-1/jpeg/jdapimin.c **** #ifdef QUANT_2PASS_SUPPORTED
 204:fltk-1.3.4-1/jpeg/jdapimin.c ****   cinfo->two_pass_quantize = TRUE;
 205:fltk-1.3.4-1/jpeg/jdapimin.c **** #else
 206:fltk-1.3.4-1/jpeg/jdapimin.c ****   cinfo->two_pass_quantize = FALSE;
 207:fltk-1.3.4-1/jpeg/jdapimin.c **** #endif
 208:fltk-1.3.4-1/jpeg/jdapimin.c ****   cinfo->desired_number_of_colors = 256;
 209:fltk-1.3.4-1/jpeg/jdapimin.c ****   cinfo->colormap = NULL;
 210:fltk-1.3.4-1/jpeg/jdapimin.c ****   /* Initialize for no mode change in buffered-image mode. */
 211:fltk-1.3.4-1/jpeg/jdapimin.c ****   cinfo->enable_1pass_quant = FALSE;
 212:fltk-1.3.4-1/jpeg/jdapimin.c ****   cinfo->enable_external_quant = FALSE;
 213:fltk-1.3.4-1/jpeg/jdapimin.c ****   cinfo->enable_2pass_quant = FALSE;
 214:fltk-1.3.4-1/jpeg/jdapimin.c **** }
 215:fltk-1.3.4-1/jpeg/jdapimin.c **** 
 216:fltk-1.3.4-1/jpeg/jdapimin.c **** 
 217:fltk-1.3.4-1/jpeg/jdapimin.c **** /*
 218:fltk-1.3.4-1/jpeg/jdapimin.c ****  * Decompression startup: read start of JPEG datastream to see what's there.
 219:fltk-1.3.4-1/jpeg/jdapimin.c ****  * Need only initialize JPEG object and supply a data source before calling.
 220:fltk-1.3.4-1/jpeg/jdapimin.c ****  *
 221:fltk-1.3.4-1/jpeg/jdapimin.c ****  * This routine will read as far as the first SOS marker (ie, actual start of
 222:fltk-1.3.4-1/jpeg/jdapimin.c ****  * compressed data), and will save all tables and parameters in the JPEG
 223:fltk-1.3.4-1/jpeg/jdapimin.c ****  * object.  It will also initialize the decompression parameters to default
 224:fltk-1.3.4-1/jpeg/jdapimin.c ****  * values, and finally return JPEG_HEADER_OK.  On return, the application may
 225:fltk-1.3.4-1/jpeg/jdapimin.c ****  * adjust the decompression parameters and then call jpeg_start_decompress.
 226:fltk-1.3.4-1/jpeg/jdapimin.c ****  * (Or, if the application only wanted to determine the image parameters,
 227:fltk-1.3.4-1/jpeg/jdapimin.c ****  * the data need not be decompressed.  In that case, call jpeg_abort or
 228:fltk-1.3.4-1/jpeg/jdapimin.c ****  * jpeg_destroy to release any temporary space.)
 229:fltk-1.3.4-1/jpeg/jdapimin.c ****  * If an abbreviated (tables only) datastream is presented, the routine will
 230:fltk-1.3.4-1/jpeg/jdapimin.c ****  * return JPEG_HEADER_TABLES_ONLY upon reaching EOI.  The application may then
 231:fltk-1.3.4-1/jpeg/jdapimin.c ****  * re-use the JPEG object to read the abbreviated image datastream(s).
 232:fltk-1.3.4-1/jpeg/jdapimin.c ****  * It is unnecessary (but OK) to call jpeg_abort in this case.
 233:fltk-1.3.4-1/jpeg/jdapimin.c ****  * The JPEG_SUSPENDED return code only occurs if the data source module
 234:fltk-1.3.4-1/jpeg/jdapimin.c ****  * requests suspension of the decompressor.  In this case the application
 235:fltk-1.3.4-1/jpeg/jdapimin.c ****  * should load more source data and then re-call jpeg_read_header to resume
 236:fltk-1.3.4-1/jpeg/jdapimin.c ****  * processing.
 237:fltk-1.3.4-1/jpeg/jdapimin.c ****  * If a non-suspending data source is used and require_image is TRUE, then the
 238:fltk-1.3.4-1/jpeg/jdapimin.c ****  * return code need not be inspected since only JPEG_HEADER_OK is possible.
 239:fltk-1.3.4-1/jpeg/jdapimin.c ****  *
 240:fltk-1.3.4-1/jpeg/jdapimin.c ****  * This routine is now just a front end to jpeg_consume_input, with some
 241:fltk-1.3.4-1/jpeg/jdapimin.c ****  * extra error checking.
 242:fltk-1.3.4-1/jpeg/jdapimin.c ****  */
 243:fltk-1.3.4-1/jpeg/jdapimin.c **** 
 244:fltk-1.3.4-1/jpeg/jdapimin.c **** GLOBAL(int)
 245:fltk-1.3.4-1/jpeg/jdapimin.c **** jpeg_read_header (j_decompress_ptr cinfo, boolean require_image)
 246:fltk-1.3.4-1/jpeg/jdapimin.c **** {
 247:fltk-1.3.4-1/jpeg/jdapimin.c ****   int retcode;
 248:fltk-1.3.4-1/jpeg/jdapimin.c **** 
 249:fltk-1.3.4-1/jpeg/jdapimin.c ****   if (cinfo->global_state != DSTATE_START &&
 250:fltk-1.3.4-1/jpeg/jdapimin.c ****       cinfo->global_state != DSTATE_INHEADER)
 251:fltk-1.3.4-1/jpeg/jdapimin.c ****     ERREXIT1(cinfo, JERR_BAD_STATE, cinfo->global_state);
 252:fltk-1.3.4-1/jpeg/jdapimin.c **** 
 253:fltk-1.3.4-1/jpeg/jdapimin.c ****   retcode = jpeg_consume_input(cinfo);
 254:fltk-1.3.4-1/jpeg/jdapimin.c **** 
 255:fltk-1.3.4-1/jpeg/jdapimin.c ****   switch (retcode) {
 256:fltk-1.3.4-1/jpeg/jdapimin.c ****   case JPEG_REACHED_SOS:
 257:fltk-1.3.4-1/jpeg/jdapimin.c ****     retcode = JPEG_HEADER_OK;
 258:fltk-1.3.4-1/jpeg/jdapimin.c ****     break;
 259:fltk-1.3.4-1/jpeg/jdapimin.c ****   case JPEG_REACHED_EOI:
 260:fltk-1.3.4-1/jpeg/jdapimin.c ****     if (require_image)		/* Complain if application wanted an image */
 261:fltk-1.3.4-1/jpeg/jdapimin.c ****       ERREXIT(cinfo, JERR_NO_IMAGE);
 262:fltk-1.3.4-1/jpeg/jdapimin.c ****     /* Reset to start state; it would be safer to require the application to
 263:fltk-1.3.4-1/jpeg/jdapimin.c ****      * call jpeg_abort, but we can't change it now for compatibility reasons.
 264:fltk-1.3.4-1/jpeg/jdapimin.c ****      * A side effect is to free any temporary memory (there shouldn't be any).
 265:fltk-1.3.4-1/jpeg/jdapimin.c ****      */
 266:fltk-1.3.4-1/jpeg/jdapimin.c ****     jpeg_abort((j_common_ptr) cinfo); /* sets state = DSTATE_START */
 267:fltk-1.3.4-1/jpeg/jdapimin.c ****     retcode = JPEG_HEADER_TABLES_ONLY;
 268:fltk-1.3.4-1/jpeg/jdapimin.c ****     break;
 269:fltk-1.3.4-1/jpeg/jdapimin.c ****   case JPEG_SUSPENDED:
 270:fltk-1.3.4-1/jpeg/jdapimin.c ****     /* no work */
 271:fltk-1.3.4-1/jpeg/jdapimin.c ****     break;
 272:fltk-1.3.4-1/jpeg/jdapimin.c ****   }
 273:fltk-1.3.4-1/jpeg/jdapimin.c **** 
 274:fltk-1.3.4-1/jpeg/jdapimin.c ****   return retcode;
 275:fltk-1.3.4-1/jpeg/jdapimin.c **** }
 276:fltk-1.3.4-1/jpeg/jdapimin.c **** 
 277:fltk-1.3.4-1/jpeg/jdapimin.c **** 
 278:fltk-1.3.4-1/jpeg/jdapimin.c **** /*
 279:fltk-1.3.4-1/jpeg/jdapimin.c ****  * Consume data in advance of what the decompressor requires.
 280:fltk-1.3.4-1/jpeg/jdapimin.c ****  * This can be called at any time once the decompressor object has
 281:fltk-1.3.4-1/jpeg/jdapimin.c ****  * been created and a data source has been set up.
 282:fltk-1.3.4-1/jpeg/jdapimin.c ****  *
 283:fltk-1.3.4-1/jpeg/jdapimin.c ****  * This routine is essentially a state machine that handles a couple
 284:fltk-1.3.4-1/jpeg/jdapimin.c ****  * of critical state-transition actions, namely initial setup and
 285:fltk-1.3.4-1/jpeg/jdapimin.c ****  * transition from header scanning to ready-for-start_decompress.
 286:fltk-1.3.4-1/jpeg/jdapimin.c ****  * All the actual input is done via the input controller's consume_input
 287:fltk-1.3.4-1/jpeg/jdapimin.c ****  * method.
 288:fltk-1.3.4-1/jpeg/jdapimin.c ****  */
 289:fltk-1.3.4-1/jpeg/jdapimin.c **** 
 290:fltk-1.3.4-1/jpeg/jdapimin.c **** GLOBAL(int)
 291:fltk-1.3.4-1/jpeg/jdapimin.c **** jpeg_consume_input (j_decompress_ptr cinfo)
 292:fltk-1.3.4-1/jpeg/jdapimin.c **** {
 259              		.loc 1 292 1 is_stmt 1 view -0
 260              		.cfi_startproc
 261              		.loc 1 292 1 is_stmt 0 view .LVU96
 262 0000 F30F1EFA 		endbr64
 293:fltk-1.3.4-1/jpeg/jdapimin.c ****   int retcode = JPEG_SUSPENDED;
 263              		.loc 1 293 3 is_stmt 1 view .LVU97
 264              	.LVL27:
 294:fltk-1.3.4-1/jpeg/jdapimin.c **** 
 295:fltk-1.3.4-1/jpeg/jdapimin.c ****   /* NB: every possible DSTATE value should be listed in this switch */
 296:fltk-1.3.4-1/jpeg/jdapimin.c ****   switch (cinfo->global_state) {
 265              		.loc 1 296 3 view .LVU98
 292:fltk-1.3.4-1/jpeg/jdapimin.c ****   int retcode = JPEG_SUSPENDED;
 266              		.loc 1 292 1 is_stmt 0 view .LVU99
 267 0004 55       		pushq	%rbp
 268              		.cfi_def_cfa_offset 16
 269              		.cfi_offset 6, -16
 270 0005 4889FD   		movq	%rdi, %rbp
 271 0008 4883EC10 		subq	$16, %rsp
 272              		.cfi_def_cfa_offset 32
 273 000c 8B4724   		movl	36(%rdi), %eax
 274 000f 2DC80000 		subl	$200, %eax
 274      00
 275 0014 83F80A   		cmpl	$10, %eax
 276 0017 7767     		ja	.L15
 277 0019 488D1500 		leaq	.L17(%rip), %rdx
 277      000000
 278 0020 48630482 		movslq	(%rdx,%rax,4), %rax
 279 0024 4801D0   		addq	%rdx, %rax
 280 0027 3EFFE0   		notrack jmp	*%rax
 281              		.section	.rodata.jpeg_consume_input,"a",@progbits
 282              		.align 4
 283              		.align 4
 284              	.L17:
 285 0000 00000000 		.long	.L20-.L17
 286 0004 00000000 		.long	.L19-.L17
 287 0008 00000000 		.long	.L40-.L17
 288 000c 00000000 		.long	.L16-.L17
 289 0010 00000000 		.long	.L16-.L17
 290 0014 00000000 		.long	.L16-.L17
 291 0018 00000000 		.long	.L16-.L17
 292 001c 00000000 		.long	.L16-.L17
 293 0020 00000000 		.long	.L16-.L17
 294 0024 00000000 		.long	.L15-.L17
 295 0028 00000000 		.long	.L16-.L17
 296              		.section	.text.jpeg_consume_input
 297 002a 660F1F44 		.p2align 4,,10
 297      0000
 298              		.p2align 3
 299              	.L16:
 297:fltk-1.3.4-1/jpeg/jdapimin.c ****   case DSTATE_START:
 298:fltk-1.3.4-1/jpeg/jdapimin.c ****     /* Start-of-datastream actions: reset appropriate modules */
 299:fltk-1.3.4-1/jpeg/jdapimin.c ****     (*cinfo->inputctl->reset_input_controller) (cinfo);
 300:fltk-1.3.4-1/jpeg/jdapimin.c ****     /* Initialize application's data source module */
 301:fltk-1.3.4-1/jpeg/jdapimin.c ****     (*cinfo->src->init_source) (cinfo);
 302:fltk-1.3.4-1/jpeg/jdapimin.c ****     cinfo->global_state = DSTATE_INHEADER;
 303:fltk-1.3.4-1/jpeg/jdapimin.c ****     /*FALLTHROUGH*/
 304:fltk-1.3.4-1/jpeg/jdapimin.c ****   case DSTATE_INHEADER:
 305:fltk-1.3.4-1/jpeg/jdapimin.c ****     retcode = (*cinfo->inputctl->consume_input) (cinfo);
 306:fltk-1.3.4-1/jpeg/jdapimin.c ****     if (retcode == JPEG_REACHED_SOS) { /* Found SOS, prepare to decompress */
 307:fltk-1.3.4-1/jpeg/jdapimin.c ****       /* Set up default parameters based on header data */
 308:fltk-1.3.4-1/jpeg/jdapimin.c ****       default_decompress_parms(cinfo);
 309:fltk-1.3.4-1/jpeg/jdapimin.c ****       /* Set global state: ready for start_decompress */
 310:fltk-1.3.4-1/jpeg/jdapimin.c ****       cinfo->global_state = DSTATE_READY;
 311:fltk-1.3.4-1/jpeg/jdapimin.c ****     }
 312:fltk-1.3.4-1/jpeg/jdapimin.c ****     break;
 313:fltk-1.3.4-1/jpeg/jdapimin.c ****   case DSTATE_READY:
 314:fltk-1.3.4-1/jpeg/jdapimin.c ****     /* Can't advance past first SOS until start_decompress is called */
 315:fltk-1.3.4-1/jpeg/jdapimin.c ****     retcode = JPEG_REACHED_SOS;
 316:fltk-1.3.4-1/jpeg/jdapimin.c ****     break;
 317:fltk-1.3.4-1/jpeg/jdapimin.c ****   case DSTATE_PRELOAD:
 318:fltk-1.3.4-1/jpeg/jdapimin.c ****   case DSTATE_PRESCAN:
 319:fltk-1.3.4-1/jpeg/jdapimin.c ****   case DSTATE_SCANNING:
 320:fltk-1.3.4-1/jpeg/jdapimin.c ****   case DSTATE_RAW_OK:
 321:fltk-1.3.4-1/jpeg/jdapimin.c ****   case DSTATE_BUFIMAGE:
 322:fltk-1.3.4-1/jpeg/jdapimin.c ****   case DSTATE_BUFPOST:
 323:fltk-1.3.4-1/jpeg/jdapimin.c ****   case DSTATE_STOPPING:
 324:fltk-1.3.4-1/jpeg/jdapimin.c ****     retcode = (*cinfo->inputctl->consume_input) (cinfo);
 300              		.loc 1 324 5 is_stmt 1 view .LVU100
 301              		.loc 1 324 16 is_stmt 0 view .LVU101
 302 0030 488B8760 		movq	608(%rdi), %rax
 302      020000
 303 0037 488B00   		movq	(%rax), %rax
 325:fltk-1.3.4-1/jpeg/jdapimin.c ****     break;
 326:fltk-1.3.4-1/jpeg/jdapimin.c ****   default:
 327:fltk-1.3.4-1/jpeg/jdapimin.c ****     ERREXIT1(cinfo, JERR_BAD_STATE, cinfo->global_state);
 328:fltk-1.3.4-1/jpeg/jdapimin.c ****   }
 329:fltk-1.3.4-1/jpeg/jdapimin.c ****   return retcode;
 330:fltk-1.3.4-1/jpeg/jdapimin.c **** }
 304              		.loc 1 330 1 view .LVU102
 305 003a 4883C410 		addq	$16, %rsp
 306              		.cfi_remember_state
 307              		.cfi_def_cfa_offset 16
 308 003e 5D       		popq	%rbp
 309              		.cfi_def_cfa_offset 8
 324:fltk-1.3.4-1/jpeg/jdapimin.c ****     break;
 310              		.loc 1 324 16 view .LVU103
 311 003f FFE0     		jmp	*%rax
 312              	.LVL28:
 313              		.p2align 4,,10
 314 0041 0F1F8000 		.p2align 3
 314      000000
 315              	.L20:
 316              		.cfi_restore_state
 299:fltk-1.3.4-1/jpeg/jdapimin.c ****     /* Initialize application's data source module */
 317              		.loc 1 299 5 is_stmt 1 view .LVU104
 299:fltk-1.3.4-1/jpeg/jdapimin.c ****     /* Initialize application's data source module */
 318              		.loc 1 299 6 is_stmt 0 view .LVU105
 319 0048 488B8760 		movq	608(%rdi), %rax
 319      020000
 320 004f FF5008   		call	*8(%rax)
 321              	.LVL29:
 301:fltk-1.3.4-1/jpeg/jdapimin.c ****     cinfo->global_state = DSTATE_INHEADER;
 322              		.loc 1 301 5 is_stmt 1 view .LVU106
 301:fltk-1.3.4-1/jpeg/jdapimin.c ****     cinfo->global_state = DSTATE_INHEADER;
 323              		.loc 1 301 6 is_stmt 0 view .LVU107
 324 0052 488B4528 		movq	40(%rbp), %rax
 325 0056 4889EF   		movq	%rbp, %rdi
 326 0059 FF5010   		call	*16(%rax)
 327              	.LVL30:
 302:fltk-1.3.4-1/jpeg/jdapimin.c ****     /*FALLTHROUGH*/
 328              		.loc 1 302 5 is_stmt 1 view .LVU108
 302:fltk-1.3.4-1/jpeg/jdapimin.c ****     /*FALLTHROUGH*/
 329              		.loc 1 302 25 is_stmt 0 view .LVU109
 330 005c C74524C9 		movl	$201, 36(%rbp)
 330      000000
 331              	.L19:
 305:fltk-1.3.4-1/jpeg/jdapimin.c ****     if (retcode == JPEG_REACHED_SOS) { /* Found SOS, prepare to decompress */
 332              		.loc 1 305 5 is_stmt 1 view .LVU110
 305:fltk-1.3.4-1/jpeg/jdapimin.c ****     if (retcode == JPEG_REACHED_SOS) { /* Found SOS, prepare to decompress */
 333              		.loc 1 305 16 is_stmt 0 view .LVU111
 334 0063 488B8560 		movq	608(%rbp), %rax
 334      020000
 335 006a 4889EF   		movq	%rbp, %rdi
 336 006d FF10     		call	*(%rax)
 337              	.LVL31:
 306:fltk-1.3.4-1/jpeg/jdapimin.c ****       /* Set up default parameters based on header data */
 338              		.loc 1 306 5 is_stmt 1 view .LVU112
 306:fltk-1.3.4-1/jpeg/jdapimin.c ****       /* Set up default parameters based on header data */
 339              		.loc 1 306 8 is_stmt 0 view .LVU113
 340 006f 83F801   		cmpl	$1, %eax
 341 0072 744C     		je	.L68
 342              	.LVL32:
 343              	.L14:
 344              		.loc 1 330 1 view .LVU114
 345 0074 4883C410 		addq	$16, %rsp
 346              		.cfi_remember_state
 347              		.cfi_def_cfa_offset 16
 348 0078 5D       		popq	%rbp
 349              		.cfi_def_cfa_offset 8
 350              	.LVL33:
 351              		.loc 1 330 1 view .LVU115
 352 0079 C3       		ret
 353              	.LVL34:
 354 007a 660F1F44 		.p2align 4,,10
 354      0000
 355              		.p2align 3
 356              	.L15:
 357              		.cfi_restore_state
 327:fltk-1.3.4-1/jpeg/jdapimin.c ****   }
 358              		.loc 1 327 5 is_stmt 1 view .LVU116
 359 0080 488B4500 		movq	0(%rbp), %rax
 360 0084 4889EF   		movq	%rbp, %rdi
 361              	.LVL35:
 327:fltk-1.3.4-1/jpeg/jdapimin.c ****   }
 362              		.loc 1 327 5 is_stmt 0 view .LVU117
 363 0087 C7402815 		movl	$21, 40(%rax)
 363      000000
 364 008e 488B4500 		movq	0(%rbp), %rax
 365 0092 8B5524   		movl	36(%rbp), %edx
 366 0095 89502C   		movl	%edx, 44(%rax)
 367 0098 488B4500 		movq	0(%rbp), %rax
 368 009c FF10     		call	*(%rax)
 369              	.LVL36:
 370              		.loc 1 330 1 view .LVU118
 371 009e 4883C410 		addq	$16, %rsp
 372              		.cfi_remember_state
 373              		.cfi_def_cfa_offset 16
 293:fltk-1.3.4-1/jpeg/jdapimin.c **** 
 374              		.loc 1 293 7 view .LVU119
 375 00a2 31C0     		xorl	%eax, %eax
 376              		.loc 1 330 1 view .LVU120
 377 00a4 5D       		popq	%rbp
 378              		.cfi_def_cfa_offset 8
 379              	.LVL37:
 380              		.loc 1 330 1 view .LVU121
 381 00a5 C3       		ret
 382              	.LVL38:
 383 00a6 662E0F1F 		.p2align 4,,10
 383      84000000 
 383      0000
 384              		.p2align 3
 385              	.L40:
 386              		.cfi_restore_state
 296:fltk-1.3.4-1/jpeg/jdapimin.c ****   case DSTATE_START:
 387              		.loc 1 296 16 view .LVU122
 388 00b0 B8010000 		movl	$1, %eax
 388      00
 389              	.LVL39:
 329:fltk-1.3.4-1/jpeg/jdapimin.c **** }
 390              		.loc 1 329 3 is_stmt 1 view .LVU123
 329:fltk-1.3.4-1/jpeg/jdapimin.c **** }
 391              		.loc 1 329 10 is_stmt 0 view .LVU124
 392 00b5 EBBD     		jmp	.L14
 393              	.LVL40:
 394 00b7 660F1F84 		.p2align 4,,10
 394      00000000 
 394      00
 395              		.p2align 3
 396              	.L68:
 308:fltk-1.3.4-1/jpeg/jdapimin.c ****       /* Set global state: ready for start_decompress */
 397              		.loc 1 308 7 is_stmt 1 view .LVU125
 398              	.LBB14:
 399              	.LBI14:
 115:fltk-1.3.4-1/jpeg/jdapimin.c **** {
 400              		.loc 1 115 1 view .LVU126
 401              	.LBB15:
 117:fltk-1.3.4-1/jpeg/jdapimin.c **** 
 402              		.loc 1 117 3 view .LVU127
 121:fltk-1.3.4-1/jpeg/jdapimin.c ****   case 1:
 403              		.loc 1 121 3 view .LVU128
 121:fltk-1.3.4-1/jpeg/jdapimin.c ****   case 1:
 404              		.loc 1 121 16 is_stmt 0 view .LVU129
 405 00c0 8B5538   		movl	56(%rbp), %edx
 121:fltk-1.3.4-1/jpeg/jdapimin.c ****   case 1:
 406              		.loc 1 121 3 view .LVU130
 407 00c3 83FA03   		cmpl	$3, %edx
 408 00c6 0F849400 		je	.L21
 408      0000
 409 00cc 83FA04   		cmpl	$4, %edx
 410 00cf 0F843B01 		je	.L22
 410      0000
 123:fltk-1.3.4-1/jpeg/jdapimin.c ****     cinfo->out_color_space = JCS_GRAYSCALE;
 411              		.loc 1 123 29 view .LVU131
 412 00d5 83FA01   		cmpl	$1, %edx
 413 00d8 B9000000 		movl	$0, %ecx
 413      00
 414 00dd 48BA0100 		movabsq	$4294967297, %rdx
 414      00000100 
 414      0000
 415 00e7 480F45D1 		cmovne	%rcx, %rdx
 416 00eb 4889553C 		movq	%rdx, 60(%rbp)
 417              	.LVL41:
 418              	.L24:
 192:fltk-1.3.4-1/jpeg/jdapimin.c ****   cinfo->scale_denom = cinfo->block_size;
 419              		.loc 1 192 3 is_stmt 1 view .LVU132
 194:fltk-1.3.4-1/jpeg/jdapimin.c ****   cinfo->buffered_image = FALSE;
 420              		.loc 1 194 23 is_stmt 0 view .LVU133
 421 00ef 488B3500 		movq	.LC0(%rip), %rsi
 421      000000
 192:fltk-1.3.4-1/jpeg/jdapimin.c ****   cinfo->scale_denom = cinfo->block_size;
 422              		.loc 1 192 27 view .LVU134
 423 00f6 8B952C02 		movl	556(%rbp), %edx
 423      0000
 202:fltk-1.3.4-1/jpeg/jdapimin.c **** #ifdef QUANT_2PASS_SUPPORTED
 424              		.loc 1 202 22 view .LVU135
 425 00fc 48B90200 		movabsq	$4294967298, %rcx
 425      00000100 
 425      0000
 209:fltk-1.3.4-1/jpeg/jdapimin.c ****   /* Initialize for no mode change in buffered-image mode. */
 426              		.loc 1 209 19 view .LVU136
 427 0106 48C785A0 		movq	$0, 160(%rbp)
 427      00000000 
 427      000000
 195:fltk-1.3.4-1/jpeg/jdapimin.c ****   cinfo->raw_data_out = FALSE;
 428              		.loc 1 195 25 view .LVU137
 429 0111 48C74558 		movq	$0, 88(%rbp)
 429      00000000 
 194:fltk-1.3.4-1/jpeg/jdapimin.c ****   cinfo->buffered_image = FALSE;
 430              		.loc 1 194 23 view .LVU138
 431 0119 48897550 		movq	%rsi, 80(%rbp)
 197:fltk-1.3.4-1/jpeg/jdapimin.c ****   cinfo->do_fancy_upsampling = TRUE;
 432              		.loc 1 197 21 view .LVU139
 433 011d 48BE0000 		movabsq	$4294967296, %rsi
 433      00000100 
 433      0000
 192:fltk-1.3.4-1/jpeg/jdapimin.c ****   cinfo->scale_denom = cinfo->block_size;
 434              		.loc 1 192 20 view .LVU140
 435 0127 895544   		movl	%edx, 68(%rbp)
 193:fltk-1.3.4-1/jpeg/jdapimin.c ****   cinfo->output_gamma = 1.0;
 436              		.loc 1 193 3 is_stmt 1 view .LVU141
 193:fltk-1.3.4-1/jpeg/jdapimin.c ****   cinfo->output_gamma = 1.0;
 437              		.loc 1 193 22 is_stmt 0 view .LVU142
 438 012a 895548   		movl	%edx, 72(%rbp)
 194:fltk-1.3.4-1/jpeg/jdapimin.c ****   cinfo->buffered_image = FALSE;
 439              		.loc 1 194 3 is_stmt 1 view .LVU143
 195:fltk-1.3.4-1/jpeg/jdapimin.c ****   cinfo->raw_data_out = FALSE;
 440              		.loc 1 195 3 view .LVU144
 196:fltk-1.3.4-1/jpeg/jdapimin.c ****   cinfo->dct_method = JDCT_DEFAULT;
 441              		.loc 1 196 3 view .LVU145
 197:fltk-1.3.4-1/jpeg/jdapimin.c ****   cinfo->do_fancy_upsampling = TRUE;
 442              		.loc 1 197 3 view .LVU146
 198:fltk-1.3.4-1/jpeg/jdapimin.c ****   cinfo->do_block_smoothing = TRUE;
 443              		.loc 1 198 3 view .LVU147
 199:fltk-1.3.4-1/jpeg/jdapimin.c ****   cinfo->quantize_colors = FALSE;
 444              		.loc 1 199 3 view .LVU148
 200:fltk-1.3.4-1/jpeg/jdapimin.c ****   /* We set these in case application only sets quantize_colors. */
 445              		.loc 1 200 3 view .LVU149
 202:fltk-1.3.4-1/jpeg/jdapimin.c **** #ifdef QUANT_2PASS_SUPPORTED
 446              		.loc 1 202 3 view .LVU150
 204:fltk-1.3.4-1/jpeg/jdapimin.c **** #else
 447              		.loc 1 204 3 view .LVU151
 208:fltk-1.3.4-1/jpeg/jdapimin.c ****   cinfo->colormap = NULL;
 448              		.loc 1 208 3 view .LVU152
 209:fltk-1.3.4-1/jpeg/jdapimin.c ****   /* Initialize for no mode change in buffered-image mode. */
 449              		.loc 1 209 3 view .LVU153
 211:fltk-1.3.4-1/jpeg/jdapimin.c ****   cinfo->enable_external_quant = FALSE;
 450              		.loc 1 211 3 view .LVU154
 212:fltk-1.3.4-1/jpeg/jdapimin.c ****   cinfo->enable_2pass_quant = FALSE;
 451              		.loc 1 212 3 view .LVU155
 213:fltk-1.3.4-1/jpeg/jdapimin.c **** }
 452              		.loc 1 213 3 view .LVU156
 197:fltk-1.3.4-1/jpeg/jdapimin.c ****   cinfo->do_fancy_upsampling = TRUE;
 453              		.loc 1 197 21 is_stmt 0 view .LVU157
 454 012d 48897560 		movq	%rsi, 96(%rbp)
 199:fltk-1.3.4-1/jpeg/jdapimin.c ****   cinfo->quantize_colors = FALSE;
 455              		.loc 1 199 29 view .LVU158
 456 0131 48C74568 		movq	$1, 104(%rbp)
 456      01000000 
 202:fltk-1.3.4-1/jpeg/jdapimin.c **** #ifdef QUANT_2PASS_SUPPORTED
 457              		.loc 1 202 22 view .LVU159
 458 0139 48894D70 		movq	%rcx, 112(%rbp)
 208:fltk-1.3.4-1/jpeg/jdapimin.c ****   cinfo->colormap = NULL;
 459              		.loc 1 208 35 view .LVU160
 460 013d 48C74578 		movq	$256, 120(%rbp)
 460      00010000 
 212:fltk-1.3.4-1/jpeg/jdapimin.c ****   cinfo->enable_2pass_quant = FALSE;
 461              		.loc 1 212 32 view .LVU161
 462 0145 48C78580 		movq	$0, 128(%rbp)
 462      00000000 
 462      000000
 463              	.LVL42:
 212:fltk-1.3.4-1/jpeg/jdapimin.c ****   cinfo->enable_2pass_quant = FALSE;
 464              		.loc 1 212 32 view .LVU162
 465              	.LBE15:
 466              	.LBE14:
 310:fltk-1.3.4-1/jpeg/jdapimin.c ****     }
 467              		.loc 1 310 7 is_stmt 1 view .LVU163
 310:fltk-1.3.4-1/jpeg/jdapimin.c ****     }
 468              		.loc 1 310 27 is_stmt 0 view .LVU164
 469 0150 C74524CA 		movl	$202, 36(%rbp)
 469      000000
 470 0157 E918FFFF 		jmp	.L14
 470      FF
 471              	.LVL43:
 472 015c 0F1F4000 		.p2align 4,,10
 473              		.p2align 3
 474              	.L21:
 475              	.LBB19:
 476              	.LBB18:
 128:fltk-1.3.4-1/jpeg/jdapimin.c ****     cid1 = cinfo->comp_info[1].component_id;
 477              		.loc 1 128 5 is_stmt 1 view .LVU165
 128:fltk-1.3.4-1/jpeg/jdapimin.c ****     cid1 = cinfo->comp_info[1].component_id;
 478              		.loc 1 128 17 is_stmt 0 view .LVU166
 479 0160 488B9530 		movq	304(%rbp), %rdx
 479      010000
 128:fltk-1.3.4-1/jpeg/jdapimin.c ****     cid1 = cinfo->comp_info[1].component_id;
 480              		.loc 1 128 10 view .LVU167
 481 0167 8B32     		movl	(%rdx), %esi
 482              	.LVL44:
 129:fltk-1.3.4-1/jpeg/jdapimin.c ****     cid2 = cinfo->comp_info[2].component_id;
 483              		.loc 1 129 5 is_stmt 1 view .LVU168
 129:fltk-1.3.4-1/jpeg/jdapimin.c ****     cid2 = cinfo->comp_info[2].component_id;
 484              		.loc 1 129 10 is_stmt 0 view .LVU169
 485 0169 8B4A60   		movl	96(%rdx), %ecx
 486              	.LVL45:
 130:fltk-1.3.4-1/jpeg/jdapimin.c **** 
 487              		.loc 1 130 5 is_stmt 1 view .LVU170
 130:fltk-1.3.4-1/jpeg/jdapimin.c **** 
 488              		.loc 1 130 10 is_stmt 0 view .LVU171
 489 016c 8B92C000 		movl	192(%rdx), %edx
 489      0000
 490              	.LVL46:
 133:fltk-1.3.4-1/jpeg/jdapimin.c ****       cinfo->jpeg_color_space = JCS_YCbCr;
 491              		.loc 1 133 5 is_stmt 1 view .LVU172
 133:fltk-1.3.4-1/jpeg/jdapimin.c ****       cinfo->jpeg_color_space = JCS_YCbCr;
 492              		.loc 1 133 19 is_stmt 0 view .LVU173
 493 0172 83FE01   		cmpl	$1, %esi
 494 0175 400F94C7 		sete	%dil
 133:fltk-1.3.4-1/jpeg/jdapimin.c ****       cinfo->jpeg_color_space = JCS_YCbCr;
 495              		.loc 1 133 13 view .LVU174
 496 0179 83F902   		cmpl	$2, %ecx
 497 017c 0F85D600 		jne	.L25
 497      0000
 498 0182 4084FF   		testb	%dil, %dil
 499 0185 0F84CD00 		je	.L25
 499      0000
 133:fltk-1.3.4-1/jpeg/jdapimin.c ****       cinfo->jpeg_color_space = JCS_YCbCr;
 500              		.loc 1 133 43 view .LVU175
 501 018b 83FA03   		cmpl	$3, %edx
 502 018e 0F84E000 		je	.L33
 502      0000
 503              	.L26:
 141:fltk-1.3.4-1/jpeg/jdapimin.c ****       cinfo->jpeg_color_space = JCS_YCbCr;	/* assume it's YCbCr */
 504              		.loc 1 141 10 is_stmt 1 view .LVU176
 141:fltk-1.3.4-1/jpeg/jdapimin.c ****       cinfo->jpeg_color_space = JCS_YCbCr;	/* assume it's YCbCr */
 505              		.loc 1 141 13 is_stmt 0 view .LVU177
 506 0194 448B8578 		movl	376(%rbp), %r8d
 506      010000
 507 019b 4585C0   		testl	%r8d, %r8d
 508 019e 0F85D000 		jne	.L33
 508      0000
 143:fltk-1.3.4-1/jpeg/jdapimin.c ****       switch (cinfo->Adobe_transform) {
 509              		.loc 1 143 10 is_stmt 1 view .LVU178
 143:fltk-1.3.4-1/jpeg/jdapimin.c ****       switch (cinfo->Adobe_transform) {
 510              		.loc 1 143 13 is_stmt 0 view .LVU179
 511 01a4 8BBD8401 		movl	388(%rbp), %edi
 511      0000
 512 01aa 85FF     		testl	%edi, %edi
 513 01ac 0F842E01 		je	.L31
 513      0000
 144:fltk-1.3.4-1/jpeg/jdapimin.c ****       case 0:
 514              		.loc 1 144 7 is_stmt 1 view .LVU180
 144:fltk-1.3.4-1/jpeg/jdapimin.c ****       case 0:
 515              		.loc 1 144 20 is_stmt 0 view .LVU181
 516 01b2 0FB69588 		movzbl	392(%rbp), %edx
 516      010000
 517              	.LVL47:
 144:fltk-1.3.4-1/jpeg/jdapimin.c ****       case 0:
 518              		.loc 1 144 20 view .LVU182
 519 01b9 84D2     		testb	%dl, %dl
 520 01bb 0F84D700 		je	.L32
 520      0000
 521 01c1 80FA01   		cmpb	$1, %dl
 522 01c4 0F84AA00 		je	.L33
 522      0000
 152:fltk-1.3.4-1/jpeg/jdapimin.c **** 	cinfo->jpeg_color_space = JCS_YCbCr;	/* assume it's YCbCr */
 523              		.loc 1 152 2 view .LVU183
 524 01ca 488B5500 		movq	0(%rbp), %rdx
 525 01ce 8944240C 		movl	%eax, 12(%rsp)
 152:fltk-1.3.4-1/jpeg/jdapimin.c **** 	cinfo->jpeg_color_space = JCS_YCbCr;	/* assume it's YCbCr */
 526              		.loc 1 152 2 is_stmt 1 view .LVU184
 527 01d2 83CEFF   		orl	$-1, %esi
 528              	.LVL48:
 152:fltk-1.3.4-1/jpeg/jdapimin.c **** 	cinfo->jpeg_color_space = JCS_YCbCr;	/* assume it's YCbCr */
 529              		.loc 1 152 2 is_stmt 0 view .LVU185
 530 01d5 4889EF   		movq	%rbp, %rdi
 531 01d8 C7422874 		movl	$116, 40(%rdx)
 531      000000
 532              	.LVL49:
 152:fltk-1.3.4-1/jpeg/jdapimin.c **** 	cinfo->jpeg_color_space = JCS_YCbCr;	/* assume it's YCbCr */
 533              		.loc 1 152 2 view .LVU186
 534 01df 488B5500 		movq	0(%rbp), %rdx
 535 01e3 0FB68D88 		movzbl	392(%rbp), %ecx
 535      010000
 536              	.LVL50:
 152:fltk-1.3.4-1/jpeg/jdapimin.c **** 	cinfo->jpeg_color_space = JCS_YCbCr;	/* assume it's YCbCr */
 537              		.loc 1 152 2 view .LVU187
 538 01ea 894A2C   		movl	%ecx, 44(%rdx)
 539 01ed 488B5500 		movq	0(%rbp), %rdx
 540 01f1 FF5208   		call	*8(%rdx)
 541              	.LVL51:
 153:fltk-1.3.4-1/jpeg/jdapimin.c **** 	break;
 542              		.loc 1 153 2 is_stmt 1 view .LVU188
 153:fltk-1.3.4-1/jpeg/jdapimin.c **** 	break;
 543              		.loc 1 153 26 is_stmt 0 view .LVU189
 544 01f4 C7453C03 		movl	$3, 60(%rbp)
 544      000000
 154:fltk-1.3.4-1/jpeg/jdapimin.c ****       }
 545              		.loc 1 154 2 is_stmt 1 view .LVU190
 546 01fb 8B44240C 		movl	12(%rsp), %eax
 547              	.LVL52:
 548 01ff 90       		.p2align 4,,10
 549              		.p2align 3
 550              	.L27:
 161:fltk-1.3.4-1/jpeg/jdapimin.c ****     break;
 551              		.loc 1 161 5 view .LVU191
 161:fltk-1.3.4-1/jpeg/jdapimin.c ****     break;
 552              		.loc 1 161 28 is_stmt 0 view .LVU192
 553 0200 C7454002 		movl	$2, 64(%rbp)
 553      000000
 162:fltk-1.3.4-1/jpeg/jdapimin.c ****     
 554              		.loc 1 162 5 is_stmt 1 view .LVU193
 555 0207 E9E3FEFF 		jmp	.L24
 555      FF
 556              	.LVL53:
 557 020c 0F1F4000 		.p2align 4,,10
 558              		.p2align 3
 559              	.L22:
 165:fltk-1.3.4-1/jpeg/jdapimin.c ****       switch (cinfo->Adobe_transform) {
 560              		.loc 1 165 5 view .LVU194
 165:fltk-1.3.4-1/jpeg/jdapimin.c ****       switch (cinfo->Adobe_transform) {
 561              		.loc 1 165 8 is_stmt 0 view .LVU195
 562 0210 8B958401 		movl	388(%rbp), %edx
 562      0000
 563 0216 85D2     		testl	%edx, %edx
 564 0218 742E     		je	.L35
 166:fltk-1.3.4-1/jpeg/jdapimin.c ****       case 0:
 565              		.loc 1 166 7 is_stmt 1 view .LVU196
 166:fltk-1.3.4-1/jpeg/jdapimin.c ****       case 0:
 566              		.loc 1 166 20 is_stmt 0 view .LVU197
 567 021a 0FB69588 		movzbl	392(%rbp), %edx
 567      010000
 568 0221 84D2     		testb	%dl, %dl
 569 0223 7423     		je	.L35
 570 0225 80FA02   		cmpb	$2, %dl
 571 0228 757A     		jne	.L69
 171:fltk-1.3.4-1/jpeg/jdapimin.c **** 	break;
 572              		.loc 1 171 2 is_stmt 1 view .LVU198
 171:fltk-1.3.4-1/jpeg/jdapimin.c **** 	break;
 573              		.loc 1 171 26 is_stmt 0 view .LVU199
 574 022a C7453C05 		movl	$5, 60(%rbp)
 574      000000
 172:fltk-1.3.4-1/jpeg/jdapimin.c ****       default:
 575              		.loc 1 172 2 is_stmt 1 view .LVU200
 576              	.LVL54:
 577              		.p2align 4,,10
 578 0231 0F1F8000 		.p2align 3
 578      000000
 579              	.L39:
 182:fltk-1.3.4-1/jpeg/jdapimin.c ****     break;
 580              		.loc 1 182 5 view .LVU201
 182:fltk-1.3.4-1/jpeg/jdapimin.c ****     break;
 581              		.loc 1 182 28 is_stmt 0 view .LVU202
 582 0238 C7454004 		movl	$4, 64(%rbp)
 582      000000
 183:fltk-1.3.4-1/jpeg/jdapimin.c ****     
 583              		.loc 1 183 5 is_stmt 1 view .LVU203
 584 023f E9ABFEFF 		jmp	.L24
 584      FF
 585              	.LVL55:
 586              		.p2align 4,,10
 587 0244 0F1F4000 		.p2align 3
 588              	.L35:
 180:fltk-1.3.4-1/jpeg/jdapimin.c ****     }
 589              		.loc 1 180 7 view .LVU204
 180:fltk-1.3.4-1/jpeg/jdapimin.c ****     }
 590              		.loc 1 180 31 is_stmt 0 view .LVU205
 591 0248 C7453C04 		movl	$4, 60(%rbp)
 591      000000
 592 024f EBE7     		jmp	.L39
 593              	.LVL56:
 594              		.p2align 4,,10
 595 0251 0F1F8000 		.p2align 3
 595      000000
 596              	.L25:
 135:fltk-1.3.4-1/jpeg/jdapimin.c ****       cinfo->jpeg_color_space = JCS_BG_YCC;
 597              		.loc 1 135 10 is_stmt 1 view .LVU206
 135:fltk-1.3.4-1/jpeg/jdapimin.c ****       cinfo->jpeg_color_space = JCS_BG_YCC;
 598              		.loc 1 135 13 is_stmt 0 view .LVU207
 599 0258 83F922   		cmpl	$34, %ecx
 600 025b 7520     		jne	.L28
 601 025d 4084FF   		testb	%dil, %dil
 602 0260 741B     		je	.L28
 135:fltk-1.3.4-1/jpeg/jdapimin.c ****       cinfo->jpeg_color_space = JCS_BG_YCC;
 603              		.loc 1 135 43 view .LVU208
 604 0262 83FA23   		cmpl	$35, %edx
 605 0265 0F8529FF 		jne	.L26
 605      FFFF
 136:fltk-1.3.4-1/jpeg/jdapimin.c ****     else if (cid0 == 0x52 && cid1 == 0x47 && cid2 == 0x42)
 606              		.loc 1 136 7 is_stmt 1 view .LVU209
 136:fltk-1.3.4-1/jpeg/jdapimin.c ****     else if (cid0 == 0x52 && cid1 == 0x47 && cid2 == 0x42)
 607              		.loc 1 136 31 is_stmt 0 view .LVU210
 608 026b C7453C07 		movl	$7, 60(%rbp)
 608      000000
 609 0272 EB8C     		jmp	.L27
 610              	.LVL57:
 611              	.L33:
 149:fltk-1.3.4-1/jpeg/jdapimin.c **** 	break;
 612              		.loc 1 149 2 is_stmt 1 view .LVU211
 149:fltk-1.3.4-1/jpeg/jdapimin.c **** 	break;
 613              		.loc 1 149 26 is_stmt 0 view .LVU212
 614 0274 C7453C03 		movl	$3, 60(%rbp)
 614      000000
 615              	.LVL58:
 150:fltk-1.3.4-1/jpeg/jdapimin.c ****       default:
 616              		.loc 1 150 2 is_stmt 1 view .LVU213
 617 027b EB83     		jmp	.L27
 618              	.LVL59:
 619              	.L28:
 137:fltk-1.3.4-1/jpeg/jdapimin.c ****       cinfo->jpeg_color_space = JCS_RGB;	/* ASCII 'R', 'G', 'B' */
 620              		.loc 1 137 10 view .LVU214
 137:fltk-1.3.4-1/jpeg/jdapimin.c ****       cinfo->jpeg_color_space = JCS_RGB;	/* ASCII 'R', 'G', 'B' */
 621              		.loc 1 137 13 is_stmt 0 view .LVU215
 622 027d 83FE52   		cmpl	$82, %esi
 623 0280 0F859500 		jne	.L29
 623      0000
 624 0286 83F947   		cmpl	$71, %ecx
 625 0289 0F858C00 		jne	.L29
 625      0000
 137:fltk-1.3.4-1/jpeg/jdapimin.c ****       cinfo->jpeg_color_space = JCS_RGB;	/* ASCII 'R', 'G', 'B' */
 626              		.loc 1 137 43 view .LVU216
 627 028f 83FA42   		cmpl	$66, %edx
 628 0292 0F85FCFE 		jne	.L26
 628      FFFF
 629              	.LVL60:
 630              	.L32:
 146:fltk-1.3.4-1/jpeg/jdapimin.c **** 	break;
 631              		.loc 1 146 2 is_stmt 1 view .LVU217
 146:fltk-1.3.4-1/jpeg/jdapimin.c **** 	break;
 632              		.loc 1 146 26 is_stmt 0 view .LVU218
 633 0298 C7453C02 		movl	$2, 60(%rbp)
 633      000000
 634              	.LVL61:
 147:fltk-1.3.4-1/jpeg/jdapimin.c ****       case 1:
 635              		.loc 1 147 2 is_stmt 1 view .LVU219
 636 029f E95CFFFF 		jmp	.L27
 636      FF
 637              	.LVL62:
 638              	.L69:
 174:fltk-1.3.4-1/jpeg/jdapimin.c **** 	cinfo->jpeg_color_space = JCS_YCCK;	/* assume it's YCCK */
 639              		.loc 1 174 2 is_stmt 0 view .LVU220
 640 02a4 488B5500 		movq	0(%rbp), %rdx
 641 02a8 8944240C 		movl	%eax, 12(%rsp)
 174:fltk-1.3.4-1/jpeg/jdapimin.c **** 	cinfo->jpeg_color_space = JCS_YCCK;	/* assume it's YCCK */
 642              		.loc 1 174 2 is_stmt 1 view .LVU221
 643 02ac BEFFFFFF 		movl	$-1, %esi
 643      FF
 644 02b1 4889EF   		movq	%rbp, %rdi
 645 02b4 C7422874 		movl	$116, 40(%rdx)
 645      000000
 646 02bb 488B5500 		movq	0(%rbp), %rdx
 647 02bf 0FB68D88 		movzbl	392(%rbp), %ecx
 647      010000
 648 02c6 894A2C   		movl	%ecx, 44(%rdx)
 649 02c9 488B5500 		movq	0(%rbp), %rdx
 650 02cd FF5208   		call	*8(%rdx)
 651              	.LVL63:
 175:fltk-1.3.4-1/jpeg/jdapimin.c **** 	break;
 652              		.loc 1 175 2 view .LVU222
 175:fltk-1.3.4-1/jpeg/jdapimin.c **** 	break;
 653              		.loc 1 175 26 is_stmt 0 view .LVU223
 654 02d0 C7453C05 		movl	$5, 60(%rbp)
 654      000000
 176:fltk-1.3.4-1/jpeg/jdapimin.c ****       }
 655              		.loc 1 176 2 is_stmt 1 view .LVU224
 656 02d7 8B44240C 		movl	12(%rsp), %eax
 657 02db E958FFFF 		jmp	.L39
 657      FF
 658              	.LVL64:
 659              	.L31:
 660              	.LBB16:
 157:fltk-1.3.4-1/jpeg/jdapimin.c ****       cinfo->jpeg_color_space = JCS_YCbCr;	/* assume it's YCbCr */
 661              		.loc 1 157 7 is_stmt 0 view .LVU225
 662 02e0 488B7D00 		movq	0(%rbp), %rdi
 663 02e4 8944240C 		movl	%eax, 12(%rsp)
 664              	.LBE16:
 157:fltk-1.3.4-1/jpeg/jdapimin.c ****       cinfo->jpeg_color_space = JCS_YCbCr;	/* assume it's YCbCr */
 665              		.loc 1 157 7 is_stmt 1 view .LVU226
 666              	.LBB17:
 157:fltk-1.3.4-1/jpeg/jdapimin.c ****       cinfo->jpeg_color_space = JCS_YCbCr;	/* assume it's YCbCr */
 667              		.loc 1 157 7 view .LVU227
 668              	.LVL65:
 157:fltk-1.3.4-1/jpeg/jdapimin.c ****       cinfo->jpeg_color_space = JCS_YCbCr;	/* assume it's YCbCr */
 669              		.loc 1 157 7 view .LVU228
 670 02e8 89772C   		movl	%esi, 44(%rdi)
 157:fltk-1.3.4-1/jpeg/jdapimin.c ****       cinfo->jpeg_color_space = JCS_YCbCr;	/* assume it's YCbCr */
 671              		.loc 1 157 7 view .LVU229
 672 02eb BE010000 		movl	$1, %esi
 672      00
 673              	.LVL66:
 157:fltk-1.3.4-1/jpeg/jdapimin.c ****       cinfo->jpeg_color_space = JCS_YCbCr;	/* assume it's YCbCr */
 674              		.loc 1 157 7 is_stmt 0 view .LVU230
 675 02f0 894F30   		movl	%ecx, 48(%rdi)
 157:fltk-1.3.4-1/jpeg/jdapimin.c ****       cinfo->jpeg_color_space = JCS_YCbCr;	/* assume it's YCbCr */
 676              		.loc 1 157 7 is_stmt 1 view .LVU231
 677 02f3 895734   		movl	%edx, 52(%rdi)
 157:fltk-1.3.4-1/jpeg/jdapimin.c ****       cinfo->jpeg_color_space = JCS_YCbCr;	/* assume it's YCbCr */
 678              		.loc 1 157 7 view .LVU232
 679 02f6 488B5500 		movq	0(%rbp), %rdx
 680              	.LVL67:
 157:fltk-1.3.4-1/jpeg/jdapimin.c ****       cinfo->jpeg_color_space = JCS_YCbCr;	/* assume it's YCbCr */
 681              		.loc 1 157 7 is_stmt 0 view .LVU233
 682 02fa 4889EF   		movq	%rbp, %rdi
 683              	.LVL68:
 157:fltk-1.3.4-1/jpeg/jdapimin.c ****       cinfo->jpeg_color_space = JCS_YCbCr;	/* assume it's YCbCr */
 684              		.loc 1 157 7 view .LVU234
 685 02fd C7422871 		movl	$113, 40(%rdx)
 685      000000
 157:fltk-1.3.4-1/jpeg/jdapimin.c ****       cinfo->jpeg_color_space = JCS_YCbCr;	/* assume it's YCbCr */
 686              		.loc 1 157 7 is_stmt 1 view .LVU235
 687 0304 488B5500 		movq	0(%rbp), %rdx
 688 0308 FF5208   		call	*8(%rdx)
 689              	.LVL69:
 157:fltk-1.3.4-1/jpeg/jdapimin.c ****       cinfo->jpeg_color_space = JCS_YCbCr;	/* assume it's YCbCr */
 690              		.loc 1 157 7 is_stmt 0 view .LVU236
 691              	.LBE17:
 157:fltk-1.3.4-1/jpeg/jdapimin.c ****       cinfo->jpeg_color_space = JCS_YCbCr;	/* assume it's YCbCr */
 692              		.loc 1 157 7 is_stmt 1 view .LVU237
 158:fltk-1.3.4-1/jpeg/jdapimin.c ****     }
 693              		.loc 1 158 7 view .LVU238
 158:fltk-1.3.4-1/jpeg/jdapimin.c ****     }
 694              		.loc 1 158 31 is_stmt 0 view .LVU239
 695 030b C7453C03 		movl	$3, 60(%rbp)
 695      000000
 696 0312 8B44240C 		movl	12(%rsp), %eax
 697 0316 E9E5FEFF 		jmp	.L27
 697      FF
 698              	.LVL70:
 699              	.L29:
 139:fltk-1.3.4-1/jpeg/jdapimin.c ****       cinfo->jpeg_color_space = JCS_BG_RGB;	/* ASCII 'r', 'g', 'b' */
 700              		.loc 1 139 10 is_stmt 1 view .LVU240
 139:fltk-1.3.4-1/jpeg/jdapimin.c ****       cinfo->jpeg_color_space = JCS_BG_RGB;	/* ASCII 'r', 'g', 'b' */
 701              		.loc 1 139 19 is_stmt 0 view .LVU241
 702 031b 83FE72   		cmpl	$114, %esi
 703 031e 410F94C0 		sete	%r8b
 139:fltk-1.3.4-1/jpeg/jdapimin.c ****       cinfo->jpeg_color_space = JCS_BG_RGB;	/* ASCII 'r', 'g', 'b' */
 704              		.loc 1 139 35 view .LVU242
 705 0322 83F967   		cmpl	$103, %ecx
 706 0325 400F94C7 		sete	%dil
 139:fltk-1.3.4-1/jpeg/jdapimin.c ****       cinfo->jpeg_color_space = JCS_BG_RGB;	/* ASCII 'r', 'g', 'b' */
 707              		.loc 1 139 43 view .LVU243
 708 0329 4184F8   		testb	%dil, %r8b
 709 032c 0F8462FE 		je	.L26
 709      FFFF
 710 0332 83FA62   		cmpl	$98, %edx
 711 0335 0F8559FE 		jne	.L26
 711      FFFF
 140:fltk-1.3.4-1/jpeg/jdapimin.c ****     else if (cinfo->saw_JFIF_marker)
 712              		.loc 1 140 7 is_stmt 1 view .LVU244
 140:fltk-1.3.4-1/jpeg/jdapimin.c ****     else if (cinfo->saw_JFIF_marker)
 713              		.loc 1 140 31 is_stmt 0 view .LVU245
 714 033b C7453C06 		movl	$6, 60(%rbp)
 714      000000
 715 0342 E9B9FEFF 		jmp	.L27
 715      FF
 716              	.LBE18:
 717              	.LBE19:
 718              		.cfi_endproc
 719              	.LFE56:
 721              		.section	.text.jpeg_read_header,"ax",@progbits
 722              		.p2align 4
 723              		.globl	jpeg_read_header
 725              	jpeg_read_header:
 726              	.LVL71:
 727              	.LFB55:
 246:fltk-1.3.4-1/jpeg/jdapimin.c ****   int retcode;
 728              		.loc 1 246 1 is_stmt 1 view -0
 729              		.cfi_startproc
 246:fltk-1.3.4-1/jpeg/jdapimin.c ****   int retcode;
 730              		.loc 1 246 1 is_stmt 0 view .LVU247
 731 0000 F30F1EFA 		endbr64
 247:fltk-1.3.4-1/jpeg/jdapimin.c **** 
 732              		.loc 1 247 3 is_stmt 1 view .LVU248
 249:fltk-1.3.4-1/jpeg/jdapimin.c ****       cinfo->global_state != DSTATE_INHEADER)
 733              		.loc 1 249 3 view .LVU249
 246:fltk-1.3.4-1/jpeg/jdapimin.c ****   int retcode;
 734              		.loc 1 246 1 is_stmt 0 view .LVU250
 735 0004 4154     		pushq	%r12
 736              		.cfi_def_cfa_offset 16
 737              		.cfi_offset 12, -16
 738 0006 55       		pushq	%rbp
 739              		.cfi_def_cfa_offset 24
 740              		.cfi_offset 6, -24
 741 0007 4889FD   		movq	%rdi, %rbp
 742 000a 53       		pushq	%rbx
 743              		.cfi_def_cfa_offset 32
 744              		.cfi_offset 3, -32
 249:fltk-1.3.4-1/jpeg/jdapimin.c ****       cinfo->global_state != DSTATE_INHEADER)
 745              		.loc 1 249 43 view .LVU251
 746 000b 8B4724   		movl	36(%rdi), %eax
 246:fltk-1.3.4-1/jpeg/jdapimin.c ****   int retcode;
 747              		.loc 1 246 1 view .LVU252
 748 000e 89F3     		movl	%esi, %ebx
 249:fltk-1.3.4-1/jpeg/jdapimin.c ****       cinfo->global_state != DSTATE_INHEADER)
 749              		.loc 1 249 43 view .LVU253
 750 0010 2DC80000 		subl	$200, %eax
 750      00
 249:fltk-1.3.4-1/jpeg/jdapimin.c ****       cinfo->global_state != DSTATE_INHEADER)
 751              		.loc 1 249 6 view .LVU254
 752 0015 83F801   		cmpl	$1, %eax
 753 0018 7618     		jbe	.L71
 251:fltk-1.3.4-1/jpeg/jdapimin.c **** 
 754              		.loc 1 251 5 is_stmt 1 view .LVU255
 755 001a 488B07   		movq	(%rdi), %rax
 756 001d C7402815 		movl	$21, 40(%rax)
 756      000000
 757 0024 488B07   		movq	(%rdi), %rax
 758 0027 8B5724   		movl	36(%rdi), %edx
 759 002a 89502C   		movl	%edx, 44(%rax)
 760 002d 488B07   		movq	(%rdi), %rax
 761 0030 FF10     		call	*(%rax)
 762              	.LVL72:
 763              	.L71:
 253:fltk-1.3.4-1/jpeg/jdapimin.c **** 
 764              		.loc 1 253 3 view .LVU256
 253:fltk-1.3.4-1/jpeg/jdapimin.c **** 
 765              		.loc 1 253 13 is_stmt 0 view .LVU257
 766 0032 4889EF   		movq	%rbp, %rdi
 767 0035 E8000000 		call	jpeg_consume_input
 767      00
 768              	.LVL73:
 769 003a 4189C4   		movl	%eax, %r12d
 770              	.LVL74:
 255:fltk-1.3.4-1/jpeg/jdapimin.c ****   case JPEG_REACHED_SOS:
 771              		.loc 1 255 3 is_stmt 1 view .LVU258
 772 003d 83F801   		cmpl	$1, %eax
 773 0040 7425     		je	.L70
 774 0042 83F802   		cmpl	$2, %eax
 775 0045 7520     		jne	.L70
 260:fltk-1.3.4-1/jpeg/jdapimin.c ****       ERREXIT(cinfo, JERR_NO_IMAGE);
 776              		.loc 1 260 5 view .LVU259
 260:fltk-1.3.4-1/jpeg/jdapimin.c ****       ERREXIT(cinfo, JERR_NO_IMAGE);
 777              		.loc 1 260 8 is_stmt 0 view .LVU260
 778 0047 85DB     		testl	%ebx, %ebx
 779 0049 7414     		je	.L73
 261:fltk-1.3.4-1/jpeg/jdapimin.c ****     /* Reset to start state; it would be safer to require the application to
 780              		.loc 1 261 7 is_stmt 1 view .LVU261
 781 004b 488B4500 		movq	0(%rbp), %rax
 782              	.LVL75:
 261:fltk-1.3.4-1/jpeg/jdapimin.c ****     /* Reset to start state; it would be safer to require the application to
 783              		.loc 1 261 7 is_stmt 0 view .LVU262
 784 004f 4889EF   		movq	%rbp, %rdi
 785 0052 C7402835 		movl	$53, 40(%rax)
 785      000000
 786 0059 488B4500 		movq	0(%rbp), %rax
 787 005d FF10     		call	*(%rax)
 788              	.LVL76:
 789              	.L73:
 266:fltk-1.3.4-1/jpeg/jdapimin.c ****     retcode = JPEG_HEADER_TABLES_ONLY;
 790              		.loc 1 266 5 is_stmt 1 view .LVU263
 791 005f 4889EF   		movq	%rbp, %rdi
 792 0062 E8000000 		call	jpeg_abort@PLT
 792      00
 793              	.LVL77:
 267:fltk-1.3.4-1/jpeg/jdapimin.c ****     break;
 794              		.loc 1 267 5 view .LVU264
 268:fltk-1.3.4-1/jpeg/jdapimin.c ****   case JPEG_SUSPENDED:
 795              		.loc 1 268 5 view .LVU265
 274:fltk-1.3.4-1/jpeg/jdapimin.c **** }
 796              		.loc 1 274 3 view .LVU266
 797              	.L70:
 275:fltk-1.3.4-1/jpeg/jdapimin.c **** 
 798              		.loc 1 275 1 is_stmt 0 view .LVU267
 799 0067 4489E0   		movl	%r12d, %eax
 800 006a 5B       		popq	%rbx
 801              		.cfi_def_cfa_offset 24
 802              	.LVL78:
 275:fltk-1.3.4-1/jpeg/jdapimin.c **** 
 803              		.loc 1 275 1 view .LVU268
 804 006b 5D       		popq	%rbp
 805              		.cfi_def_cfa_offset 16
 806              	.LVL79:
 275:fltk-1.3.4-1/jpeg/jdapimin.c **** 
 807              		.loc 1 275 1 view .LVU269
 808 006c 415C     		popq	%r12
 809              		.cfi_def_cfa_offset 8
 810              	.LVL80:
 275:fltk-1.3.4-1/jpeg/jdapimin.c **** 
 811              		.loc 1 275 1 view .LVU270
 812 006e C3       		ret
 813              		.cfi_endproc
 814              	.LFE55:
 816              		.section	.text.jpeg_input_complete,"ax",@progbits
 817              		.p2align 4
 818              		.globl	jpeg_input_complete
 820              	jpeg_input_complete:
 821              	.LVL81:
 822              	.LFB57:
 331:fltk-1.3.4-1/jpeg/jdapimin.c **** 
 332:fltk-1.3.4-1/jpeg/jdapimin.c **** 
 333:fltk-1.3.4-1/jpeg/jdapimin.c **** /*
 334:fltk-1.3.4-1/jpeg/jdapimin.c ****  * Have we finished reading the input file?
 335:fltk-1.3.4-1/jpeg/jdapimin.c ****  */
 336:fltk-1.3.4-1/jpeg/jdapimin.c **** 
 337:fltk-1.3.4-1/jpeg/jdapimin.c **** GLOBAL(boolean)
 338:fltk-1.3.4-1/jpeg/jdapimin.c **** jpeg_input_complete (j_decompress_ptr cinfo)
 339:fltk-1.3.4-1/jpeg/jdapimin.c **** {
 823              		.loc 1 339 1 is_stmt 1 view -0
 824              		.cfi_startproc
 825              		.loc 1 339 1 is_stmt 0 view .LVU272
 826 0000 F30F1EFA 		endbr64
 340:fltk-1.3.4-1/jpeg/jdapimin.c ****   /* Check for valid jpeg object */
 341:fltk-1.3.4-1/jpeg/jdapimin.c ****   if (cinfo->global_state < DSTATE_START ||
 827              		.loc 1 341 3 is_stmt 1 view .LVU273
 828              		.loc 1 341 42 is_stmt 0 view .LVU274
 829 0004 8B4724   		movl	36(%rdi), %eax
 339:fltk-1.3.4-1/jpeg/jdapimin.c ****   /* Check for valid jpeg object */
 830              		.loc 1 339 1 view .LVU275
 831 0007 53       		pushq	%rbx
 832              		.cfi_def_cfa_offset 16
 833              		.cfi_offset 3, -16
 339:fltk-1.3.4-1/jpeg/jdapimin.c ****   /* Check for valid jpeg object */
 834              		.loc 1 339 1 view .LVU276
 835 0008 4889FB   		movq	%rdi, %rbx
 836              		.loc 1 341 42 view .LVU277
 837 000b 2DC80000 		subl	$200, %eax
 837      00
 838              		.loc 1 341 6 view .LVU278
 839 0010 83F80A   		cmpl	$10, %eax
 840 0013 7618     		jbe	.L82
 342:fltk-1.3.4-1/jpeg/jdapimin.c ****       cinfo->global_state > DSTATE_STOPPING)
 343:fltk-1.3.4-1/jpeg/jdapimin.c ****     ERREXIT1(cinfo, JERR_BAD_STATE, cinfo->global_state);
 841              		.loc 1 343 5 is_stmt 1 view .LVU279
 842 0015 488B07   		movq	(%rdi), %rax
 843 0018 C7402815 		movl	$21, 40(%rax)
 843      000000
 844 001f 488B07   		movq	(%rdi), %rax
 845 0022 8B5724   		movl	36(%rdi), %edx
 846 0025 89502C   		movl	%edx, 44(%rax)
 847 0028 488B07   		movq	(%rdi), %rax
 848 002b FF10     		call	*(%rax)
 849              	.LVL82:
 850              	.L82:
 344:fltk-1.3.4-1/jpeg/jdapimin.c ****   return cinfo->inputctl->eoi_reached;
 851              		.loc 1 344 3 view .LVU280
 852              		.loc 1 344 25 is_stmt 0 view .LVU281
 853 002d 488B8360 		movq	608(%rbx), %rax
 853      020000
 345:fltk-1.3.4-1/jpeg/jdapimin.c **** }
 854              		.loc 1 345 1 view .LVU282
 855 0034 5B       		popq	%rbx
 856              		.cfi_def_cfa_offset 8
 857              	.LVL83:
 344:fltk-1.3.4-1/jpeg/jdapimin.c ****   return cinfo->inputctl->eoi_reached;
 858              		.loc 1 344 25 view .LVU283
 859 0035 8B4024   		movl	36(%rax), %eax
 860              		.loc 1 345 1 view .LVU284
 861 0038 C3       		ret
 862              		.cfi_endproc
 863              	.LFE57:
 865              		.section	.text.jpeg_has_multiple_scans,"ax",@progbits
 866              		.p2align 4
 867              		.globl	jpeg_has_multiple_scans
 869              	jpeg_has_multiple_scans:
 870              	.LVL84:
 871              	.LFB58:
 346:fltk-1.3.4-1/jpeg/jdapimin.c **** 
 347:fltk-1.3.4-1/jpeg/jdapimin.c **** 
 348:fltk-1.3.4-1/jpeg/jdapimin.c **** /*
 349:fltk-1.3.4-1/jpeg/jdapimin.c ****  * Is there more than one scan?
 350:fltk-1.3.4-1/jpeg/jdapimin.c ****  */
 351:fltk-1.3.4-1/jpeg/jdapimin.c **** 
 352:fltk-1.3.4-1/jpeg/jdapimin.c **** GLOBAL(boolean)
 353:fltk-1.3.4-1/jpeg/jdapimin.c **** jpeg_has_multiple_scans (j_decompress_ptr cinfo)
 354:fltk-1.3.4-1/jpeg/jdapimin.c **** {
 872              		.loc 1 354 1 is_stmt 1 view -0
 873              		.cfi_startproc
 874              		.loc 1 354 1 is_stmt 0 view .LVU286
 875 0000 F30F1EFA 		endbr64
 355:fltk-1.3.4-1/jpeg/jdapimin.c ****   /* Only valid after jpeg_read_header completes */
 356:fltk-1.3.4-1/jpeg/jdapimin.c ****   if (cinfo->global_state < DSTATE_READY ||
 876              		.loc 1 356 3 is_stmt 1 view .LVU287
 877              		.loc 1 356 42 is_stmt 0 view .LVU288
 878 0004 8B4724   		movl	36(%rdi), %eax
 354:fltk-1.3.4-1/jpeg/jdapimin.c ****   /* Only valid after jpeg_read_header completes */
 879              		.loc 1 354 1 view .LVU289
 880 0007 53       		pushq	%rbx
 881              		.cfi_def_cfa_offset 16
 882              		.cfi_offset 3, -16
 354:fltk-1.3.4-1/jpeg/jdapimin.c ****   /* Only valid after jpeg_read_header completes */
 883              		.loc 1 354 1 view .LVU290
 884 0008 4889FB   		movq	%rdi, %rbx
 885              		.loc 1 356 42 view .LVU291
 886 000b 2DCA0000 		subl	$202, %eax
 886      00
 887              		.loc 1 356 6 view .LVU292
 888 0010 83F808   		cmpl	$8, %eax
 889 0013 7618     		jbe	.L85
 357:fltk-1.3.4-1/jpeg/jdapimin.c ****       cinfo->global_state > DSTATE_STOPPING)
 358:fltk-1.3.4-1/jpeg/jdapimin.c ****     ERREXIT1(cinfo, JERR_BAD_STATE, cinfo->global_state);
 890              		.loc 1 358 5 is_stmt 1 view .LVU293
 891 0015 488B07   		movq	(%rdi), %rax
 892 0018 C7402815 		movl	$21, 40(%rax)
 892      000000
 893 001f 488B07   		movq	(%rdi), %rax
 894 0022 8B5724   		movl	36(%rdi), %edx
 895 0025 89502C   		movl	%edx, 44(%rax)
 896 0028 488B07   		movq	(%rdi), %rax
 897 002b FF10     		call	*(%rax)
 898              	.LVL85:
 899              	.L85:
 359:fltk-1.3.4-1/jpeg/jdapimin.c ****   return cinfo->inputctl->has_multiple_scans;
 900              		.loc 1 359 3 view .LVU294
 901              		.loc 1 359 25 is_stmt 0 view .LVU295
 902 002d 488B8360 		movq	608(%rbx), %rax
 902      020000
 360:fltk-1.3.4-1/jpeg/jdapimin.c **** }
 903              		.loc 1 360 1 view .LVU296
 904 0034 5B       		popq	%rbx
 905              		.cfi_def_cfa_offset 8
 906              	.LVL86:
 359:fltk-1.3.4-1/jpeg/jdapimin.c ****   return cinfo->inputctl->has_multiple_scans;
 907              		.loc 1 359 25 view .LVU297
 908 0035 8B4020   		movl	32(%rax), %eax
 909              		.loc 1 360 1 view .LVU298
 910 0038 C3       		ret
 911              		.cfi_endproc
 912              	.LFE58:
 914              		.section	.text.jpeg_finish_decompress,"ax",@progbits
 915              		.p2align 4
 916              		.globl	jpeg_finish_decompress
 918              	jpeg_finish_decompress:
 919              	.LVL87:
 920              	.LFB59:
 361:fltk-1.3.4-1/jpeg/jdapimin.c **** 
 362:fltk-1.3.4-1/jpeg/jdapimin.c **** 
 363:fltk-1.3.4-1/jpeg/jdapimin.c **** /*
 364:fltk-1.3.4-1/jpeg/jdapimin.c ****  * Finish JPEG decompression.
 365:fltk-1.3.4-1/jpeg/jdapimin.c ****  *
 366:fltk-1.3.4-1/jpeg/jdapimin.c ****  * This will normally just verify the file trailer and release temp storage.
 367:fltk-1.3.4-1/jpeg/jdapimin.c ****  *
 368:fltk-1.3.4-1/jpeg/jdapimin.c ****  * Returns FALSE if suspended.  The return value need be inspected only if
 369:fltk-1.3.4-1/jpeg/jdapimin.c ****  * a suspending data source is used.
 370:fltk-1.3.4-1/jpeg/jdapimin.c ****  */
 371:fltk-1.3.4-1/jpeg/jdapimin.c **** 
 372:fltk-1.3.4-1/jpeg/jdapimin.c **** GLOBAL(boolean)
 373:fltk-1.3.4-1/jpeg/jdapimin.c **** jpeg_finish_decompress (j_decompress_ptr cinfo)
 374:fltk-1.3.4-1/jpeg/jdapimin.c **** {
 921              		.loc 1 374 1 is_stmt 1 view -0
 922              		.cfi_startproc
 923              		.loc 1 374 1 is_stmt 0 view .LVU300
 924 0000 F30F1EFA 		endbr64
 375:fltk-1.3.4-1/jpeg/jdapimin.c ****   if ((cinfo->global_state == DSTATE_SCANNING ||
 925              		.loc 1 375 3 is_stmt 1 view .LVU301
 374:fltk-1.3.4-1/jpeg/jdapimin.c ****   if ((cinfo->global_state == DSTATE_SCANNING ||
 926              		.loc 1 374 1 is_stmt 0 view .LVU302
 927 0004 4154     		pushq	%r12
 928              		.cfi_def_cfa_offset 16
 929              		.cfi_offset 12, -16
 930 0006 55       		pushq	%rbp
 931              		.cfi_def_cfa_offset 24
 932              		.cfi_offset 6, -24
 933 0007 4889FD   		movq	%rdi, %rbp
 934 000a 4883EC08 		subq	$8, %rsp
 935              		.cfi_def_cfa_offset 32
 936              		.loc 1 375 13 view .LVU303
 937 000e 8B4724   		movl	36(%rdi), %eax
 938              		.loc 1 375 47 view .LVU304
 939 0011 8D9033FF 		leal	-205(%rax), %edx
 939      FFFF
 940              		.loc 1 375 6 view .LVU305
 941 0017 83FA01   		cmpl	$1, %edx
 942 001a 0F869000 		jbe	.L103
 942      0000
 376:fltk-1.3.4-1/jpeg/jdapimin.c ****        cinfo->global_state == DSTATE_RAW_OK) && ! cinfo->buffered_image) {
 377:fltk-1.3.4-1/jpeg/jdapimin.c ****     /* Terminate final pass of non-buffered mode */
 378:fltk-1.3.4-1/jpeg/jdapimin.c ****     if (cinfo->output_scanline < cinfo->output_height)
 379:fltk-1.3.4-1/jpeg/jdapimin.c ****       ERREXIT(cinfo, JERR_TOO_LITTLE_DATA);
 380:fltk-1.3.4-1/jpeg/jdapimin.c ****     (*cinfo->master->finish_output_pass) (cinfo);
 381:fltk-1.3.4-1/jpeg/jdapimin.c ****     cinfo->global_state = DSTATE_STOPPING;
 382:fltk-1.3.4-1/jpeg/jdapimin.c ****   } else if (cinfo->global_state == DSTATE_BUFIMAGE) {
 943              		.loc 1 382 10 is_stmt 1 view .LVU306
 944              		.loc 1 382 13 is_stmt 0 view .LVU307
 945 0020 3DCF0000 		cmpl	$207, %eax
 945      00
 946 0025 7479     		je	.L104
 383:fltk-1.3.4-1/jpeg/jdapimin.c ****     /* Finishing after a buffered-image operation */
 384:fltk-1.3.4-1/jpeg/jdapimin.c ****     cinfo->global_state = DSTATE_STOPPING;
 385:fltk-1.3.4-1/jpeg/jdapimin.c ****   } else if (cinfo->global_state != DSTATE_STOPPING) {
 947              		.loc 1 385 10 is_stmt 1 view .LVU308
 948              		.loc 1 385 13 is_stmt 0 view .LVU309
 949 0027 3DD20000 		cmpl	$210, %eax
 949      00
 950 002c 743B     		je	.L93
 951              	.L89:
 386:fltk-1.3.4-1/jpeg/jdapimin.c ****     /* STOPPING = repeat call after a suspension, anything else is error */
 387:fltk-1.3.4-1/jpeg/jdapimin.c ****     ERREXIT1(cinfo, JERR_BAD_STATE, cinfo->global_state);
 952              		.loc 1 387 5 is_stmt 1 view .LVU310
 953 002e 488B4500 		movq	0(%rbp), %rax
 954 0032 4889EF   		movq	%rbp, %rdi
 955              	.LVL88:
 956              		.loc 1 387 5 is_stmt 0 view .LVU311
 957 0035 C7402815 		movl	$21, 40(%rax)
 957      000000
 958 003c 488B4500 		movq	0(%rbp), %rax
 959 0040 8B5524   		movl	36(%rbp), %edx
 960 0043 89502C   		movl	%edx, 44(%rax)
 961 0046 488B4500 		movq	0(%rbp), %rax
 962 004a FF10     		call	*(%rax)
 963              	.LVL89:
 388:fltk-1.3.4-1/jpeg/jdapimin.c ****   }
 389:fltk-1.3.4-1/jpeg/jdapimin.c ****   /* Read until EOI */
 390:fltk-1.3.4-1/jpeg/jdapimin.c ****   while (! cinfo->inputctl->eoi_reached) {
 964              		.loc 1 390 9 is_stmt 1 view .LVU312
 965              		.loc 1 390 17 is_stmt 0 view .LVU313
 966 004c 488B8560 		movq	608(%rbp), %rax
 966      020000
 967              		.loc 1 390 27 view .LVU314
 968 0053 448B6024 		movl	36(%rax), %r12d
 969              		.loc 1 390 9 view .LVU315
 970 0057 4585E4   		testl	%r12d, %r12d
 971 005a 751D     		jne	.L105
 972 005c 0F1F4000 		.p2align 4,,10
 973              		.p2align 3
 974              	.L95:
 391:fltk-1.3.4-1/jpeg/jdapimin.c ****     if ((*cinfo->inputctl->consume_input) (cinfo) == JPEG_SUSPENDED)
 975              		.loc 1 391 5 is_stmt 1 view .LVU316
 976              		.loc 1 391 10 is_stmt 0 view .LVU317
 977 0060 4889EF   		movq	%rbp, %rdi
 978 0063 FF10     		call	*(%rax)
 979              	.LVL90:
 980              		.loc 1 391 8 view .LVU318
 981 0065 85C0     		testl	%eax, %eax
 982 0067 7428     		je	.L87
 983              	.L93:
 390:fltk-1.3.4-1/jpeg/jdapimin.c ****     if ((*cinfo->inputctl->consume_input) (cinfo) == JPEG_SUSPENDED)
 984              		.loc 1 390 9 is_stmt 1 view .LVU319
 390:fltk-1.3.4-1/jpeg/jdapimin.c ****     if ((*cinfo->inputctl->consume_input) (cinfo) == JPEG_SUSPENDED)
 985              		.loc 1 390 17 is_stmt 0 view .LVU320
 986 0069 488B8560 		movq	608(%rbp), %rax
 986      020000
 390:fltk-1.3.4-1/jpeg/jdapimin.c ****     if ((*cinfo->inputctl->consume_input) (cinfo) == JPEG_SUSPENDED)
 987              		.loc 1 390 27 view .LVU321
 988 0070 448B6024 		movl	36(%rax), %r12d
 390:fltk-1.3.4-1/jpeg/jdapimin.c ****     if ((*cinfo->inputctl->consume_input) (cinfo) == JPEG_SUSPENDED)
 989              		.loc 1 390 9 view .LVU322
 990 0074 4585E4   		testl	%r12d, %r12d
 991 0077 74E7     		je	.L95
 992              	.L105:
 392:fltk-1.3.4-1/jpeg/jdapimin.c ****       return FALSE;		/* Suspend, come back later */
 393:fltk-1.3.4-1/jpeg/jdapimin.c ****   }
 394:fltk-1.3.4-1/jpeg/jdapimin.c ****   /* Do final cleanup */
 395:fltk-1.3.4-1/jpeg/jdapimin.c ****   (*cinfo->src->term_source) (cinfo);
 993              		.loc 1 395 3 is_stmt 1 view .LVU323
 994              		.loc 1 395 4 is_stmt 0 view .LVU324
 995 0079 488B4528 		movq	40(%rbp), %rax
 996 007d 4889EF   		movq	%rbp, %rdi
 396:fltk-1.3.4-1/jpeg/jdapimin.c ****   /* We can use jpeg_abort to release memory and reset global_state */
 397:fltk-1.3.4-1/jpeg/jdapimin.c ****   jpeg_abort((j_common_ptr) cinfo);
 398:fltk-1.3.4-1/jpeg/jdapimin.c ****   return TRUE;
 997              		.loc 1 398 10 view .LVU325
 998 0080 41BC0100 		movl	$1, %r12d
 998      0000
 395:fltk-1.3.4-1/jpeg/jdapimin.c ****   /* We can use jpeg_abort to release memory and reset global_state */
 999              		.loc 1 395 4 view .LVU326
 1000 0086 FF5030   		call	*48(%rax)
 1001              	.LVL91:
 397:fltk-1.3.4-1/jpeg/jdapimin.c ****   return TRUE;
 1002              		.loc 1 397 3 is_stmt 1 view .LVU327
 1003 0089 4889EF   		movq	%rbp, %rdi
 1004 008c E8000000 		call	jpeg_abort@PLT
 1004      00
 1005              	.LVL92:
 1006              		.loc 1 398 3 view .LVU328
 1007              	.L87:
 399:fltk-1.3.4-1/jpeg/jdapimin.c **** }
 1008              		.loc 1 399 1 is_stmt 0 view .LVU329
 1009 0091 4883C408 		addq	$8, %rsp
 1010              		.cfi_remember_state
 1011              		.cfi_def_cfa_offset 24
 1012 0095 4489E0   		movl	%r12d, %eax
 1013 0098 5D       		popq	%rbp
 1014              		.cfi_def_cfa_offset 16
 1015              	.LVL93:
 1016              		.loc 1 399 1 view .LVU330
 1017 0099 415C     		popq	%r12
 1018              		.cfi_def_cfa_offset 8
 1019 009b C3       		ret
 1020              	.LVL94:
 1021 009c 0F1F4000 		.p2align 4,,10
 1022              		.p2align 3
 1023              	.L104:
 1024              		.cfi_restore_state
 384:fltk-1.3.4-1/jpeg/jdapimin.c ****   } else if (cinfo->global_state != DSTATE_STOPPING) {
 1025              		.loc 1 384 5 is_stmt 1 view .LVU331
 384:fltk-1.3.4-1/jpeg/jdapimin.c ****   } else if (cinfo->global_state != DSTATE_STOPPING) {
 1026              		.loc 1 384 25 is_stmt 0 view .LVU332
 1027 00a0 C74724D2 		movl	$210, 36(%rdi)
 1027      000000
 1028 00a7 EBC0     		jmp	.L93
 1029 00a9 0F1F8000 		.p2align 4,,10
 1029      000000
 1030              		.p2align 3
 1031              	.L103:
 376:fltk-1.3.4-1/jpeg/jdapimin.c ****     /* Terminate final pass of non-buffered mode */
 1032              		.loc 1 376 46 view .LVU333
 1033 00b0 8B4758   		movl	88(%rdi), %eax
 1034 00b3 85C0     		testl	%eax, %eax
 1035 00b5 0F8573FF 		jne	.L89
 1035      FFFF
 378:fltk-1.3.4-1/jpeg/jdapimin.c ****       ERREXIT(cinfo, JERR_TOO_LITTLE_DATA);
 1036              		.loc 1 378 5 is_stmt 1 view .LVU334
 378:fltk-1.3.4-1/jpeg/jdapimin.c ****       ERREXIT(cinfo, JERR_TOO_LITTLE_DATA);
 1037              		.loc 1 378 8 is_stmt 0 view .LVU335
 1038 00bb 8B878C00 		movl	140(%rdi), %eax
 1038      0000
 1039 00c1 3987A800 		cmpl	%eax, 168(%rdi)
 1039      0000
 1040 00c7 730F     		jnb	.L90
 379:fltk-1.3.4-1/jpeg/jdapimin.c ****     (*cinfo->master->finish_output_pass) (cinfo);
 1041              		.loc 1 379 7 is_stmt 1 view .LVU336
 1042 00c9 488B07   		movq	(%rdi), %rax
 1043 00cc C7402845 		movl	$69, 40(%rax)
 1043      000000
 1044 00d3 488B07   		movq	(%rdi), %rax
 1045 00d6 FF10     		call	*(%rax)
 1046              	.LVL95:
 1047              	.L90:
 380:fltk-1.3.4-1/jpeg/jdapimin.c ****     cinfo->global_state = DSTATE_STOPPING;
 1048              		.loc 1 380 5 view .LVU337
 380:fltk-1.3.4-1/jpeg/jdapimin.c ****     cinfo->global_state = DSTATE_STOPPING;
 1049              		.loc 1 380 6 is_stmt 0 view .LVU338
 1050 00d8 488B8540 		movq	576(%rbp), %rax
 1050      020000
 1051 00df 4889EF   		movq	%rbp, %rdi
 1052 00e2 FF5008   		call	*8(%rax)
 1053              	.LVL96:
 381:fltk-1.3.4-1/jpeg/jdapimin.c ****   } else if (cinfo->global_state == DSTATE_BUFIMAGE) {
 1054              		.loc 1 381 5 is_stmt 1 view .LVU339
 381:fltk-1.3.4-1/jpeg/jdapimin.c ****   } else if (cinfo->global_state == DSTATE_BUFIMAGE) {
 1055              		.loc 1 381 25 is_stmt 0 view .LVU340
 1056 00e5 C74524D2 		movl	$210, 36(%rbp)
 1056      000000
 1057 00ec E978FFFF 		jmp	.L93
 1057      FF
 1058              		.cfi_endproc
 1059              	.LFE59:
 1061              		.section	.rodata.cst8,"aM",@progbits,8
 1062              		.align 8
 1063              	.LC0:
 1064 0000 00000000 		.long	0
 1065 0004 0000F03F 		.long	1072693248
 1066              		.text
 1067              	.Letext0:
 1068              		.file 3 "/usr/lib/gcc/x86_64-linux-gnu/9/include/stddef.h"
 1069              		.file 4 "/usr/include/x86_64-linux-gnu/bits/types.h"
 1070              		.file 5 "/usr/include/x86_64-linux-gnu/bits/types/struct_FILE.h"
 1071              		.file 6 "/usr/include/x86_64-linux-gnu/bits/types/FILE.h"
 1072              		.file 7 "/usr/include/stdio.h"
 1073              		.file 8 "/usr/include/x86_64-linux-gnu/bits/sys_errlist.h"
 1074              		.file 9 "fltk-1.3.4-1/jpeg/jmorecfg.h"
 1075              		.file 10 "fltk-1.3.4-1/jpeg/jpeglib.h"
 1076              		.file 11 "fltk-1.3.4-1/jpeg/jpegint.h"
 1077              		.file 12 "fltk-1.3.4-1/jpeg/jerror.h"
 13547              		.section	.note.gnu.property,"a"
 13548              		.align 8
 13549 0000 04000000 		.long	 1f - 0f
 13550 0004 10000000 		.long	 4f - 1f
 13551 0008 05000000 		.long	 5
 13552              	0:
 13553 000c 474E5500 		.string	 "GNU"
 13554              	1:
 13555              		.align 8
 13556 0010 020000C0 		.long	 0xc0000002
 13557 0014 04000000 		.long	 3f - 2f
 13558              	2:
 13559 0018 03000000 		.long	 0x3
 13560              	3:
 13561 001c 00000000 		.align 8
 13562              	4: