   1              		.file	"jdarith.c"
   2              		.text
   3              	.Ltext0:
   4              		.section	.text.get_byte,"ax",@progbits
   5              		.p2align 4
   7              	get_byte:
   8              	.LVL0:
   9              	.LFB51:
  10              		.file 1 "fltk-1.3.4-1/jpeg/jdarith.c"
   1:fltk-1.3.4-1/jpeg/jdarith.c **** /*
   2:fltk-1.3.4-1/jpeg/jdarith.c ****  * jdarith.c
   3:fltk-1.3.4-1/jpeg/jdarith.c ****  *
   4:fltk-1.3.4-1/jpeg/jdarith.c ****  * Developed 1997-2013 by Guido Vollbeding.
   5:fltk-1.3.4-1/jpeg/jdarith.c ****  * This file is part of the Independent JPEG Group's software.
   6:fltk-1.3.4-1/jpeg/jdarith.c ****  * For conditions of distribution and use, see the accompanying README file.
   7:fltk-1.3.4-1/jpeg/jdarith.c ****  *
   8:fltk-1.3.4-1/jpeg/jdarith.c ****  * This file contains portable arithmetic entropy decoding routines for JPEG
   9:fltk-1.3.4-1/jpeg/jdarith.c ****  * (implementing the ISO/IEC IS 10918-1 and CCITT Recommendation ITU-T T.81).
  10:fltk-1.3.4-1/jpeg/jdarith.c ****  *
  11:fltk-1.3.4-1/jpeg/jdarith.c ****  * Both sequential and progressive modes are supported in this single module.
  12:fltk-1.3.4-1/jpeg/jdarith.c ****  *
  13:fltk-1.3.4-1/jpeg/jdarith.c ****  * Suspension is not currently supported in this module.
  14:fltk-1.3.4-1/jpeg/jdarith.c ****  */
  15:fltk-1.3.4-1/jpeg/jdarith.c **** 
  16:fltk-1.3.4-1/jpeg/jdarith.c **** #define JPEG_INTERNALS
  17:fltk-1.3.4-1/jpeg/jdarith.c **** #include "jinclude.h"
  18:fltk-1.3.4-1/jpeg/jdarith.c **** #include "jpeglib.h"
  19:fltk-1.3.4-1/jpeg/jdarith.c **** 
  20:fltk-1.3.4-1/jpeg/jdarith.c **** 
  21:fltk-1.3.4-1/jpeg/jdarith.c **** /* Expanded entropy decoder object for arithmetic decoding. */
  22:fltk-1.3.4-1/jpeg/jdarith.c **** 
  23:fltk-1.3.4-1/jpeg/jdarith.c **** typedef struct {
  24:fltk-1.3.4-1/jpeg/jdarith.c ****   struct jpeg_entropy_decoder pub; /* public fields */
  25:fltk-1.3.4-1/jpeg/jdarith.c **** 
  26:fltk-1.3.4-1/jpeg/jdarith.c ****   INT32 c;       /* C register, base of coding interval + input bit buffer */
  27:fltk-1.3.4-1/jpeg/jdarith.c ****   INT32 a;               /* A register, normalized size of coding interval */
  28:fltk-1.3.4-1/jpeg/jdarith.c ****   int ct;     /* bit shift counter, # of bits left in bit buffer part of C */
  29:fltk-1.3.4-1/jpeg/jdarith.c ****                                                          /* init: ct = -16 */
  30:fltk-1.3.4-1/jpeg/jdarith.c ****                                                          /* run: ct = 0..7 */
  31:fltk-1.3.4-1/jpeg/jdarith.c ****                                                          /* error: ct = -1 */
  32:fltk-1.3.4-1/jpeg/jdarith.c ****   int last_dc_val[MAX_COMPS_IN_SCAN]; /* last DC coef for each component */
  33:fltk-1.3.4-1/jpeg/jdarith.c ****   int dc_context[MAX_COMPS_IN_SCAN]; /* context index for DC conditioning */
  34:fltk-1.3.4-1/jpeg/jdarith.c **** 
  35:fltk-1.3.4-1/jpeg/jdarith.c ****   unsigned int restarts_to_go;	/* MCUs left in this restart interval */
  36:fltk-1.3.4-1/jpeg/jdarith.c **** 
  37:fltk-1.3.4-1/jpeg/jdarith.c ****   /* Pointers to statistics areas (these workspaces have image lifespan) */
  38:fltk-1.3.4-1/jpeg/jdarith.c ****   unsigned char * dc_stats[NUM_ARITH_TBLS];
  39:fltk-1.3.4-1/jpeg/jdarith.c ****   unsigned char * ac_stats[NUM_ARITH_TBLS];
  40:fltk-1.3.4-1/jpeg/jdarith.c **** 
  41:fltk-1.3.4-1/jpeg/jdarith.c ****   /* Statistics bin for coding with fixed probability 0.5 */
  42:fltk-1.3.4-1/jpeg/jdarith.c ****   unsigned char fixed_bin[4];
  43:fltk-1.3.4-1/jpeg/jdarith.c **** } arith_entropy_decoder;
  44:fltk-1.3.4-1/jpeg/jdarith.c **** 
  45:fltk-1.3.4-1/jpeg/jdarith.c **** typedef arith_entropy_decoder * arith_entropy_ptr;
  46:fltk-1.3.4-1/jpeg/jdarith.c **** 
  47:fltk-1.3.4-1/jpeg/jdarith.c **** /* The following two definitions specify the allocation chunk size
  48:fltk-1.3.4-1/jpeg/jdarith.c ****  * for the statistics area.
  49:fltk-1.3.4-1/jpeg/jdarith.c ****  * According to sections F.1.4.4.1.3 and F.1.4.4.2, we need at least
  50:fltk-1.3.4-1/jpeg/jdarith.c ****  * 49 statistics bins for DC, and 245 statistics bins for AC coding.
  51:fltk-1.3.4-1/jpeg/jdarith.c ****  *
  52:fltk-1.3.4-1/jpeg/jdarith.c ****  * We use a compact representation with 1 byte per statistics bin,
  53:fltk-1.3.4-1/jpeg/jdarith.c ****  * thus the numbers directly represent byte sizes.
  54:fltk-1.3.4-1/jpeg/jdarith.c ****  * This 1 byte per statistics bin contains the meaning of the MPS
  55:fltk-1.3.4-1/jpeg/jdarith.c ****  * (more probable symbol) in the highest bit (mask 0x80), and the
  56:fltk-1.3.4-1/jpeg/jdarith.c ****  * index into the probability estimation state machine table
  57:fltk-1.3.4-1/jpeg/jdarith.c ****  * in the lower bits (mask 0x7F).
  58:fltk-1.3.4-1/jpeg/jdarith.c ****  */
  59:fltk-1.3.4-1/jpeg/jdarith.c **** 
  60:fltk-1.3.4-1/jpeg/jdarith.c **** #define DC_STAT_BINS 64
  61:fltk-1.3.4-1/jpeg/jdarith.c **** #define AC_STAT_BINS 256
  62:fltk-1.3.4-1/jpeg/jdarith.c **** 
  63:fltk-1.3.4-1/jpeg/jdarith.c **** 
  64:fltk-1.3.4-1/jpeg/jdarith.c **** LOCAL(int)
  65:fltk-1.3.4-1/jpeg/jdarith.c **** get_byte (j_decompress_ptr cinfo)
  66:fltk-1.3.4-1/jpeg/jdarith.c **** /* Read next input byte; we do not support suspension in this module. */
  67:fltk-1.3.4-1/jpeg/jdarith.c **** {
  11              		.loc 1 67 1 view -0
  12              		.cfi_startproc
  68:fltk-1.3.4-1/jpeg/jdarith.c ****   struct jpeg_source_mgr * src = cinfo->src;
  13              		.loc 1 68 3 view .LVU1
  67:fltk-1.3.4-1/jpeg/jdarith.c ****   struct jpeg_source_mgr * src = cinfo->src;
  14              		.loc 1 67 1 is_stmt 0 view .LVU2
  15 0000 55       		pushq	%rbp
  16              		.cfi_def_cfa_offset 16
  17              		.cfi_offset 6, -16
  18 0001 53       		pushq	%rbx
  19              		.cfi_def_cfa_offset 24
  20              		.cfi_offset 3, -24
  21 0002 4883EC08 		subq	$8, %rsp
  22              		.cfi_def_cfa_offset 32
  23              		.loc 1 68 28 view .LVU3
  24 0006 488B5F28 		movq	40(%rdi), %rbx
  25              	.LVL1:
  69:fltk-1.3.4-1/jpeg/jdarith.c **** 
  70:fltk-1.3.4-1/jpeg/jdarith.c ****   if (src->bytes_in_buffer == 0)
  26              		.loc 1 70 3 is_stmt 1 view .LVU4
  27              		.loc 1 70 10 is_stmt 0 view .LVU5
  28 000a 488B4308 		movq	8(%rbx), %rax
  29              		.loc 1 70 6 view .LVU6
  30 000e 4885C0   		testq	%rax, %rax
  31 0011 750E     		jne	.L2
  32 0013 4889FD   		movq	%rdi, %rbp
  71:fltk-1.3.4-1/jpeg/jdarith.c ****     if (! (*src->fill_input_buffer) (cinfo))
  33              		.loc 1 71 5 is_stmt 1 view .LVU7
  34              		.loc 1 71 12 is_stmt 0 view .LVU8
  35 0016 FF5318   		call	*24(%rbx)
  36              	.LVL2:
  37              		.loc 1 71 8 view .LVU9
  38 0019 85C0     		testl	%eax, %eax
  39 001b 7423     		je	.L3
  40              	.L5:
  41 001d 488B4308 		movq	8(%rbx), %rax
  42              	.LVL3:
  43              	.L2:
  72:fltk-1.3.4-1/jpeg/jdarith.c ****       ERREXIT(cinfo, JERR_CANT_SUSPEND);
  73:fltk-1.3.4-1/jpeg/jdarith.c ****   src->bytes_in_buffer--;
  44              		.loc 1 73 3 is_stmt 1 view .LVU10
  45              		.loc 1 73 23 is_stmt 0 view .LVU11
  46 0021 4883E801 		subq	$1, %rax
  47 0025 48894308 		movq	%rax, 8(%rbx)
  74:fltk-1.3.4-1/jpeg/jdarith.c ****   return GETJOCTET(*src->next_input_byte++);
  48              		.loc 1 74 3 is_stmt 1 view .LVU12
  49              		.loc 1 74 10 is_stmt 0 view .LVU13
  50 0029 488B03   		movq	(%rbx), %rax
  51 002c 488D5001 		leaq	1(%rax), %rdx
  52 0030 488913   		movq	%rdx, (%rbx)
  53 0033 0FB600   		movzbl	(%rax), %eax
  75:fltk-1.3.4-1/jpeg/jdarith.c **** }
  54              		.loc 1 75 1 view .LVU14
  55 0036 4883C408 		addq	$8, %rsp
  56              		.cfi_remember_state
  57              		.cfi_def_cfa_offset 24
  58 003a 5B       		popq	%rbx
  59              		.cfi_def_cfa_offset 16
  60              	.LVL4:
  61              		.loc 1 75 1 view .LVU15
  62 003b 5D       		popq	%rbp
  63              		.cfi_def_cfa_offset 8
  64 003c C3       		ret
  65              	.LVL5:
  66 003d 0F1F00   		.p2align 4,,10
  67              		.p2align 3
  68              	.L3:
  69              		.cfi_restore_state
  72:fltk-1.3.4-1/jpeg/jdarith.c ****       ERREXIT(cinfo, JERR_CANT_SUSPEND);
  70              		.loc 1 72 7 is_stmt 1 view .LVU16
  71 0040 488B4500 		movq	0(%rbp), %rax
  72 0044 4889EF   		movq	%rbp, %rdi
  73 0047 C7402819 		movl	$25, 40(%rax)
  73      000000
  74 004e 488B4500 		movq	0(%rbp), %rax
  75 0052 FF10     		call	*(%rax)
  76              	.LVL6:
  77 0054 EBC7     		jmp	.L5
  78              		.cfi_endproc
  79              	.LFE51:
  81              		.section	.text.arith_decode,"ax",@progbits
  82              		.p2align 4
  84              	arith_decode:
  85              	.LVL7:
  86              	.LFB52:
  76:fltk-1.3.4-1/jpeg/jdarith.c **** 
  77:fltk-1.3.4-1/jpeg/jdarith.c **** 
  78:fltk-1.3.4-1/jpeg/jdarith.c **** /*
  79:fltk-1.3.4-1/jpeg/jdarith.c ****  * The core arithmetic decoding routine (common in JPEG and JBIG).
  80:fltk-1.3.4-1/jpeg/jdarith.c ****  * This needs to go as fast as possible.
  81:fltk-1.3.4-1/jpeg/jdarith.c ****  * Machine-dependent optimization facilities
  82:fltk-1.3.4-1/jpeg/jdarith.c ****  * are not utilized in this portable implementation.
  83:fltk-1.3.4-1/jpeg/jdarith.c ****  * However, this code should be fairly efficient and
  84:fltk-1.3.4-1/jpeg/jdarith.c ****  * may be a good base for further optimizations anyway.
  85:fltk-1.3.4-1/jpeg/jdarith.c ****  *
  86:fltk-1.3.4-1/jpeg/jdarith.c ****  * Return value is 0 or 1 (binary decision).
  87:fltk-1.3.4-1/jpeg/jdarith.c ****  *
  88:fltk-1.3.4-1/jpeg/jdarith.c ****  * Note: I've changed the handling of the code base & bit
  89:fltk-1.3.4-1/jpeg/jdarith.c ****  * buffer register C compared to other implementations
  90:fltk-1.3.4-1/jpeg/jdarith.c ****  * based on the standards layout & procedures.
  91:fltk-1.3.4-1/jpeg/jdarith.c ****  * While it also contains both the actual base of the
  92:fltk-1.3.4-1/jpeg/jdarith.c ****  * coding interval (16 bits) and the next-bits buffer,
  93:fltk-1.3.4-1/jpeg/jdarith.c ****  * the cut-point between these two parts is floating
  94:fltk-1.3.4-1/jpeg/jdarith.c ****  * (instead of fixed) with the bit shift counter CT.
  95:fltk-1.3.4-1/jpeg/jdarith.c ****  * Thus, we also need only one (variable instead of
  96:fltk-1.3.4-1/jpeg/jdarith.c ****  * fixed size) shift for the LPS/MPS decision, and
  97:fltk-1.3.4-1/jpeg/jdarith.c ****  * we can get away with any renormalization update
  98:fltk-1.3.4-1/jpeg/jdarith.c ****  * of C (except for new data insertion, of course).
  99:fltk-1.3.4-1/jpeg/jdarith.c ****  *
 100:fltk-1.3.4-1/jpeg/jdarith.c ****  * I've also introduced a new scheme for accessing
 101:fltk-1.3.4-1/jpeg/jdarith.c ****  * the probability estimation state machine table,
 102:fltk-1.3.4-1/jpeg/jdarith.c ****  * derived from Markus Kuhn's JBIG implementation.
 103:fltk-1.3.4-1/jpeg/jdarith.c ****  */
 104:fltk-1.3.4-1/jpeg/jdarith.c **** 
 105:fltk-1.3.4-1/jpeg/jdarith.c **** LOCAL(int)
 106:fltk-1.3.4-1/jpeg/jdarith.c **** arith_decode (j_decompress_ptr cinfo, unsigned char *st)
 107:fltk-1.3.4-1/jpeg/jdarith.c **** {
  87              		.loc 1 107 1 view -0
  88              		.cfi_startproc
 108:fltk-1.3.4-1/jpeg/jdarith.c ****   register arith_entropy_ptr e = (arith_entropy_ptr) cinfo->entropy;
  89              		.loc 1 108 3 view .LVU18
 107:fltk-1.3.4-1/jpeg/jdarith.c ****   register arith_entropy_ptr e = (arith_entropy_ptr) cinfo->entropy;
  90              		.loc 1 107 1 is_stmt 0 view .LVU19
  91 0000 4154     		pushq	%r12
  92              		.cfi_def_cfa_offset 16
  93              		.cfi_offset 12, -16
  94 0002 55       		pushq	%rbp
  95              		.cfi_def_cfa_offset 24
  96              		.cfi_offset 6, -24
  97 0003 4889F5   		movq	%rsi, %rbp
  98 0006 53       		pushq	%rbx
  99              		.cfi_def_cfa_offset 32
 100              		.cfi_offset 3, -32
 101              		.loc 1 108 30 view .LVU20
 102 0007 488B9F70 		movq	624(%rdi), %rbx
 102      020000
 103              	.LVL8:
 109:fltk-1.3.4-1/jpeg/jdarith.c ****   register unsigned char nl, nm;
 104              		.loc 1 109 3 is_stmt 1 view .LVU21
 110:fltk-1.3.4-1/jpeg/jdarith.c ****   register INT32 qe, temp;
 105              		.loc 1 110 3 view .LVU22
 111:fltk-1.3.4-1/jpeg/jdarith.c ****   register int sv, data;
 106              		.loc 1 111 3 view .LVU23
 112:fltk-1.3.4-1/jpeg/jdarith.c **** 
 113:fltk-1.3.4-1/jpeg/jdarith.c ****   /* Renormalization & data input per section D.2.6 */
 114:fltk-1.3.4-1/jpeg/jdarith.c ****   while (e->a < 0x8000L) {
 107              		.loc 1 114 3 view .LVU24
 108              		.loc 1 114 9 view .LVU25
 109              		.loc 1 114 11 is_stmt 0 view .LVU26
 110 000e 488B5320 		movq	32(%rbx), %rdx
 111 0012 8B4B28   		movl	40(%rbx), %ecx
 112              		.loc 1 114 9 view .LVU27
 113 0015 4881FAFF 		cmpq	$32767, %rdx
 113      7F0000
 114 001c 7F77     		jg	.L8
 115 001e 4989FC   		movq	%rdi, %r12
 116 0021 EB1A     		jmp	.L16
 117              	.LVL9:
 118              		.p2align 4,,10
 119 0023 0F1F4400 		.p2align 3
 119      00
 120              	.L28:
 121              		.loc 1 114 9 view .LVU28
 122 0028 488B4320 		movq	32(%rbx), %rax
 123 002c 488D1400 		leaq	(%rax,%rax), %rdx
 124              	.L10:
 115:fltk-1.3.4-1/jpeg/jdarith.c ****     if (--e->ct < 0) {
 116:fltk-1.3.4-1/jpeg/jdarith.c ****       /* Need to fetch next data byte */
 117:fltk-1.3.4-1/jpeg/jdarith.c ****       if (cinfo->unread_marker)
 118:fltk-1.3.4-1/jpeg/jdarith.c **** 	data = 0;		/* stuff zero data */
 119:fltk-1.3.4-1/jpeg/jdarith.c ****       else {
 120:fltk-1.3.4-1/jpeg/jdarith.c **** 	data = get_byte(cinfo);	/* read next input byte */
 121:fltk-1.3.4-1/jpeg/jdarith.c **** 	if (data == 0xFF) {	/* zero stuff or marker code */
 122:fltk-1.3.4-1/jpeg/jdarith.c **** 	  do data = get_byte(cinfo);
 123:fltk-1.3.4-1/jpeg/jdarith.c **** 	  while (data == 0xFF);	/* swallow extra 0xFF bytes */
 124:fltk-1.3.4-1/jpeg/jdarith.c **** 	  if (data == 0)
 125:fltk-1.3.4-1/jpeg/jdarith.c **** 	    data = 0xFF;	/* discard stuffed zero byte */
 126:fltk-1.3.4-1/jpeg/jdarith.c **** 	  else {
 127:fltk-1.3.4-1/jpeg/jdarith.c **** 	    /* Note: Different from the Huffman decoder, hitting
 128:fltk-1.3.4-1/jpeg/jdarith.c **** 	     * a marker while processing the compressed data
 129:fltk-1.3.4-1/jpeg/jdarith.c **** 	     * segment is legal in arithmetic coding.
 130:fltk-1.3.4-1/jpeg/jdarith.c **** 	     * The convention is to supply zero data
 131:fltk-1.3.4-1/jpeg/jdarith.c **** 	     * then until decoding is complete.
 132:fltk-1.3.4-1/jpeg/jdarith.c **** 	     */
 133:fltk-1.3.4-1/jpeg/jdarith.c **** 	    cinfo->unread_marker = data;
 134:fltk-1.3.4-1/jpeg/jdarith.c **** 	    data = 0;
 135:fltk-1.3.4-1/jpeg/jdarith.c **** 	  }
 136:fltk-1.3.4-1/jpeg/jdarith.c **** 	}
 137:fltk-1.3.4-1/jpeg/jdarith.c ****       }
 138:fltk-1.3.4-1/jpeg/jdarith.c ****       e->c = (e->c << 8) | data; /* insert data into C register */
 139:fltk-1.3.4-1/jpeg/jdarith.c ****       if ((e->ct += 8) < 0)	 /* update bit shift counter */
 140:fltk-1.3.4-1/jpeg/jdarith.c **** 	/* Need more initial bytes */
 141:fltk-1.3.4-1/jpeg/jdarith.c **** 	if (++e->ct == 0)
 142:fltk-1.3.4-1/jpeg/jdarith.c **** 	  /* Got 2 initial bytes -> re-init A and exit loop */
 143:fltk-1.3.4-1/jpeg/jdarith.c **** 	  e->a = 0x8000L; /* => e->a = 0x10000L after loop exit */
 144:fltk-1.3.4-1/jpeg/jdarith.c ****     }
 145:fltk-1.3.4-1/jpeg/jdarith.c ****     e->a <<= 1;
 125              		.loc 1 145 5 is_stmt 1 view .LVU29
 126              		.loc 1 145 10 is_stmt 0 view .LVU30
 127 0030 48895320 		movq	%rdx, 32(%rbx)
 114:fltk-1.3.4-1/jpeg/jdarith.c ****     if (--e->ct < 0) {
 128              		.loc 1 114 9 is_stmt 1 view .LVU31
 129 0034 4881FAFF 		cmpq	$32767, %rdx
 129      7F0000
 130 003b 7F58     		jg	.L8
 131              	.L16:
 115:fltk-1.3.4-1/jpeg/jdarith.c ****     if (--e->ct < 0) {
 132              		.loc 1 115 5 view .LVU32
 115:fltk-1.3.4-1/jpeg/jdarith.c ****     if (--e->ct < 0) {
 133              		.loc 1 115 9 is_stmt 0 view .LVU33
 134 003d 83E901   		subl	$1, %ecx
 115:fltk-1.3.4-1/jpeg/jdarith.c ****     if (--e->ct < 0) {
 135              		.loc 1 115 8 view .LVU34
 136 0040 894B28   		movl	%ecx, 40(%rbx)
 137 0043 79E3     		jns	.L28
 117:fltk-1.3.4-1/jpeg/jdarith.c **** 	data = 0;		/* stuff zero data */
 138              		.loc 1 117 7 is_stmt 1 view .LVU35
 117:fltk-1.3.4-1/jpeg/jdarith.c **** 	data = 0;		/* stuff zero data */
 139              		.loc 1 117 10 is_stmt 0 view .LVU36
 140 0045 418B8424 		movl	572(%r12), %eax
 140      3C020000 
 141 004d 31D2     		xorl	%edx, %edx
 142 004f 85C0     		testl	%eax, %eax
 143 0051 0F84A100 		je	.L30
 143      0000
 144              	.L11:
 138:fltk-1.3.4-1/jpeg/jdarith.c ****       if ((e->ct += 8) < 0)	 /* update bit shift counter */
 145              		.loc 1 138 7 is_stmt 1 view .LVU37
 138:fltk-1.3.4-1/jpeg/jdarith.c ****       if ((e->ct += 8) < 0)	 /* update bit shift counter */
 146              		.loc 1 138 20 is_stmt 0 view .LVU38
 147 0057 488B4318 		movq	24(%rbx), %rax
 148 005b 48C1E008 		salq	$8, %rax
 138:fltk-1.3.4-1/jpeg/jdarith.c ****       if ((e->ct += 8) < 0)	 /* update bit shift counter */
 149              		.loc 1 138 26 view .LVU39
 150 005f 4809D0   		orq	%rdx, %rax
 151 0062 48894318 		movq	%rax, 24(%rbx)
 139:fltk-1.3.4-1/jpeg/jdarith.c **** 	/* Need more initial bytes */
 152              		.loc 1 139 7 is_stmt 1 view .LVU40
 139:fltk-1.3.4-1/jpeg/jdarith.c **** 	/* Need more initial bytes */
 153              		.loc 1 139 18 is_stmt 0 view .LVU41
 154 0066 8D4108   		leal	8(%rcx), %eax
 155 0069 894328   		movl	%eax, 40(%rbx)
 139:fltk-1.3.4-1/jpeg/jdarith.c **** 	/* Need more initial bytes */
 156              		.loc 1 139 10 view .LVU42
 157 006c 85C0     		testl	%eax, %eax
 158 006e 7810     		js	.L14
 159 0070 488B7320 		movq	32(%rbx), %rsi
 160 0074 89C1     		movl	%eax, %ecx
 161 0076 488D1436 		leaq	(%rsi,%rsi), %rdx
 162 007a EBB4     		jmp	.L10
 163 007c 0F1F4000 		.p2align 4,,10
 164              		.p2align 3
 165              	.L14:
 141:fltk-1.3.4-1/jpeg/jdarith.c **** 	  /* Got 2 initial bytes -> re-init A and exit loop */
 166              		.loc 1 141 2 is_stmt 1 view .LVU43
 141:fltk-1.3.4-1/jpeg/jdarith.c **** 	  /* Got 2 initial bytes -> re-init A and exit loop */
 167              		.loc 1 141 6 is_stmt 0 view .LVU44
 168 0080 83C109   		addl	$9, %ecx
 141:fltk-1.3.4-1/jpeg/jdarith.c **** 	  /* Got 2 initial bytes -> re-init A and exit loop */
 169              		.loc 1 141 5 view .LVU45
 170 0083 894B28   		movl	%ecx, 40(%rbx)
 171 0086 75A0     		jne	.L28
 143:fltk-1.3.4-1/jpeg/jdarith.c ****     }
 172              		.loc 1 143 4 is_stmt 1 view .LVU46
 173              		.loc 1 145 5 view .LVU47
 174              		.loc 1 145 10 is_stmt 0 view .LVU48
 175 0088 48C74320 		movq	$65536, 32(%rbx)
 175      00000100 
 114:fltk-1.3.4-1/jpeg/jdarith.c ****     if (--e->ct < 0) {
 176              		.loc 1 114 9 is_stmt 1 view .LVU49
 177              		.loc 1 145 10 is_stmt 0 view .LVU50
 178 0090 BA000001 		movl	$65536, %edx
 178      00
 179              	.LVL10:
 180              	.L8:
 146:fltk-1.3.4-1/jpeg/jdarith.c ****   }
 147:fltk-1.3.4-1/jpeg/jdarith.c **** 
 148:fltk-1.3.4-1/jpeg/jdarith.c ****   /* Fetch values from our compact representation of Table D.3(D.2):
 149:fltk-1.3.4-1/jpeg/jdarith.c ****    * Qe values and probability estimation state machine
 150:fltk-1.3.4-1/jpeg/jdarith.c ****    */
 151:fltk-1.3.4-1/jpeg/jdarith.c ****   sv = *st;
 181              		.loc 1 151 3 is_stmt 1 view .LVU51
 182              		.loc 1 151 8 is_stmt 0 view .LVU52
 183 0095 0FB64500 		movzbl	0(%rbp), %eax
 152:fltk-1.3.4-1/jpeg/jdarith.c ****   qe = jpeg_aritab[sv & 0x7F];	/* => Qe_Value */
 184              		.loc 1 152 6 view .LVU53
 185 0099 488D3D00 		leaq	jpeg_aritab(%rip), %rdi
 185      000000
 151:fltk-1.3.4-1/jpeg/jdarith.c ****   qe = jpeg_aritab[sv & 0x7F];	/* => Qe_Value */
 186              		.loc 1 151 8 view .LVU54
 187 00a0 89C6     		movl	%eax, %esi
 188              	.LVL11:
 189              		.loc 1 152 3 is_stmt 1 view .LVU55
 190              		.loc 1 152 6 is_stmt 0 view .LVU56
 191 00a2 4989F0   		movq	%rsi, %r8
 192 00a5 4183E07F 		andl	$127, %r8d
 193 00a9 4A8B3CC7 		movq	(%rdi,%r8,8), %rdi
 194              	.LVL12:
 153:fltk-1.3.4-1/jpeg/jdarith.c ****   nl = qe & 0xFF; qe >>= 8;	/* Next_Index_LPS + Switch_MPS */
 195              		.loc 1 153 3 is_stmt 1 view .LVU57
 196              		.loc 1 153 19 view .LVU58
 154:fltk-1.3.4-1/jpeg/jdarith.c ****   nm = qe & 0xFF; qe >>= 8;	/* Next_Index_MPS */
 197              		.loc 1 154 22 is_stmt 0 view .LVU59
 198 00ad 4989F8   		movq	%rdi, %r8
 153:fltk-1.3.4-1/jpeg/jdarith.c ****   nl = qe & 0xFF; qe >>= 8;	/* Next_Index_LPS + Switch_MPS */
 199              		.loc 1 153 22 view .LVU60
 200 00b0 4989FA   		movq	%rdi, %r10
 201              		.loc 1 154 22 view .LVU61
 202 00b3 49C1F810 		sarq	$16, %r8
 153:fltk-1.3.4-1/jpeg/jdarith.c ****   nl = qe & 0xFF; qe >>= 8;	/* Next_Index_LPS + Switch_MPS */
 203              		.loc 1 153 22 view .LVU62
 204 00b7 49C1FA08 		sarq	$8, %r10
 205              	.LVL13:
 206              		.loc 1 154 3 is_stmt 1 view .LVU63
 207              		.loc 1 154 19 view .LVU64
 155:fltk-1.3.4-1/jpeg/jdarith.c **** 
 156:fltk-1.3.4-1/jpeg/jdarith.c ****   /* Decode & estimation procedures per sections D.2.4 & D.2.5 */
 157:fltk-1.3.4-1/jpeg/jdarith.c ****   temp = e->a - qe;
 208              		.loc 1 157 3 view .LVU65
 209              		.loc 1 157 8 is_stmt 0 view .LVU66
 210 00bb 4C29C2   		subq	%r8, %rdx
 211              	.LVL14:
 158:fltk-1.3.4-1/jpeg/jdarith.c ****   e->a = temp;
 212              		.loc 1 158 3 is_stmt 1 view .LVU67
 159:fltk-1.3.4-1/jpeg/jdarith.c ****   temp <<= e->ct;
 213              		.loc 1 159 8 is_stmt 0 view .LVU68
 214 00be 4989D1   		movq	%rdx, %r9
 158:fltk-1.3.4-1/jpeg/jdarith.c ****   e->a = temp;
 215              		.loc 1 158 8 view .LVU69
 216 00c1 48895320 		movq	%rdx, 32(%rbx)
 217              		.loc 1 159 3 is_stmt 1 view .LVU70
 218              		.loc 1 159 8 is_stmt 0 view .LVU71
 219 00c5 49D3E1   		salq	%cl, %r9
 220              	.LVL15:
 160:fltk-1.3.4-1/jpeg/jdarith.c ****   if (e->c >= temp) {
 221              		.loc 1 160 3 is_stmt 1 view .LVU72
 222              		.loc 1 160 8 is_stmt 0 view .LVU73
 223 00c8 488B4B18 		movq	24(%rbx), %rcx
 224              		.loc 1 160 6 view .LVU74
 225 00cc 4C39C9   		cmpq	%r9, %rcx
 226 00cf 7C6F     		jl	.L17
 161:fltk-1.3.4-1/jpeg/jdarith.c ****     e->c -= temp;
 227              		.loc 1 161 5 is_stmt 1 view .LVU75
 228              		.loc 1 161 10 is_stmt 0 view .LVU76
 229 00d1 4C29C9   		subq	%r9, %rcx
 162:fltk-1.3.4-1/jpeg/jdarith.c ****     /* Conditional LPS (less probable symbol) exchange */
 163:fltk-1.3.4-1/jpeg/jdarith.c ****     if (e->a < qe) {
 164:fltk-1.3.4-1/jpeg/jdarith.c ****       e->a = qe;
 230              		.loc 1 164 12 view .LVU77
 231 00d4 4C894320 		movq	%r8, 32(%rbx)
 161:fltk-1.3.4-1/jpeg/jdarith.c ****     e->c -= temp;
 232              		.loc 1 161 10 view .LVU78
 233 00d8 48894B18 		movq	%rcx, 24(%rbx)
 163:fltk-1.3.4-1/jpeg/jdarith.c ****       e->a = qe;
 234              		.loc 1 163 5 is_stmt 1 view .LVU79
 235 00dc 89C1     		movl	%eax, %ecx
 236 00de 83E180   		andl	$-128, %ecx
 163:fltk-1.3.4-1/jpeg/jdarith.c ****       e->a = qe;
 237              		.loc 1 163 8 is_stmt 0 view .LVU80
 238 00e1 4939D0   		cmpq	%rdx, %r8
 239 00e4 7E6D     		jle	.L29
 240              	.L20:
 165:fltk-1.3.4-1/jpeg/jdarith.c ****       *st = (sv & 0x80) ^ nm;	/* Estimate_after_MPS */
 166:fltk-1.3.4-1/jpeg/jdarith.c ****     } else {
 167:fltk-1.3.4-1/jpeg/jdarith.c ****       e->a = qe;
 168:fltk-1.3.4-1/jpeg/jdarith.c ****       *st = (sv & 0x80) ^ nl;	/* Estimate_after_LPS */
 169:fltk-1.3.4-1/jpeg/jdarith.c ****       sv ^= 0x80;		/* Exchange LPS/MPS */
 170:fltk-1.3.4-1/jpeg/jdarith.c ****     }
 171:fltk-1.3.4-1/jpeg/jdarith.c ****   } else if (e->a < 0x8000L) {
 172:fltk-1.3.4-1/jpeg/jdarith.c ****     /* Conditional MPS (more probable symbol) exchange */
 173:fltk-1.3.4-1/jpeg/jdarith.c ****     if (e->a < qe) {
 174:fltk-1.3.4-1/jpeg/jdarith.c ****       *st = (sv & 0x80) ^ nl;	/* Estimate_after_LPS */
 175:fltk-1.3.4-1/jpeg/jdarith.c ****       sv ^= 0x80;		/* Exchange LPS/MPS */
 176:fltk-1.3.4-1/jpeg/jdarith.c ****     } else {
 177:fltk-1.3.4-1/jpeg/jdarith.c ****       *st = (sv & 0x80) ^ nm;	/* Estimate_after_MPS */
 241              		.loc 1 177 7 is_stmt 1 view .LVU81
 242              		.loc 1 177 25 is_stmt 0 view .LVU82
 243 00e6 4431D1   		xorl	%r10d, %ecx
 244 00e9 884D00   		movb	%cl, 0(%rbp)
 245              	.L19:
 178:fltk-1.3.4-1/jpeg/jdarith.c ****     }
 179:fltk-1.3.4-1/jpeg/jdarith.c ****   }
 180:fltk-1.3.4-1/jpeg/jdarith.c **** 
 181:fltk-1.3.4-1/jpeg/jdarith.c ****   return sv >> 7;
 246              		.loc 1 181 3 is_stmt 1 view .LVU83
 182:fltk-1.3.4-1/jpeg/jdarith.c **** }
 247              		.loc 1 182 1 is_stmt 0 view .LVU84
 248 00ec 5B       		popq	%rbx
 249              		.cfi_remember_state
 250              		.cfi_def_cfa_offset 24
 251              	.LVL16:
 181:fltk-1.3.4-1/jpeg/jdarith.c **** }
 252              		.loc 1 181 13 view .LVU85
 253 00ed C1F807   		sarl	$7, %eax
 254              	.LVL17:
 255              		.loc 1 182 1 view .LVU86
 256 00f0 5D       		popq	%rbp
 257              		.cfi_def_cfa_offset 16
 258              	.LVL18:
 259              		.loc 1 182 1 view .LVU87
 260 00f1 415C     		popq	%r12
 261              		.cfi_def_cfa_offset 8
 262 00f3 C3       		ret
 263              	.LVL19:
 264              		.p2align 4,,10
 265 00f4 0F1F4000 		.p2align 3
 266              	.L30:
 267              		.cfi_restore_state
 120:fltk-1.3.4-1/jpeg/jdarith.c **** 	if (data == 0xFF) {	/* zero stuff or marker code */
 268              		.loc 1 120 2 is_stmt 1 view .LVU88
 120:fltk-1.3.4-1/jpeg/jdarith.c **** 	if (data == 0xFF) {	/* zero stuff or marker code */
 269              		.loc 1 120 9 is_stmt 0 view .LVU89
 270 00f8 4C89E7   		movq	%r12, %rdi
 271 00fb E8000000 		call	get_byte
 271      00
 272              	.LVL20:
 121:fltk-1.3.4-1/jpeg/jdarith.c **** 	  do data = get_byte(cinfo);
 273              		.loc 1 121 2 is_stmt 1 view .LVU90
 121:fltk-1.3.4-1/jpeg/jdarith.c **** 	  do data = get_byte(cinfo);
 274              		.loc 1 121 5 is_stmt 0 view .LVU91
 275 0100 3DFF0000 		cmpl	$255, %eax
 275      00
 276 0105 7411     		je	.L12
 277 0107 8B4B28   		movl	40(%rbx), %ecx
 278 010a 4863D0   		movslq	%eax, %rdx
 279 010d E945FFFF 		jmp	.L11
 279      FF
 280              		.p2align 4,,10
 281 0112 660F1F44 		.p2align 3
 281      0000
 282              	.L12:
 122:fltk-1.3.4-1/jpeg/jdarith.c **** 	  while (data == 0xFF);	/* swallow extra 0xFF bytes */
 283              		.loc 1 122 4 is_stmt 1 discriminator 1 view .LVU92
 122:fltk-1.3.4-1/jpeg/jdarith.c **** 	  while (data == 0xFF);	/* swallow extra 0xFF bytes */
 284              		.loc 1 122 7 discriminator 1 view .LVU93
 122:fltk-1.3.4-1/jpeg/jdarith.c **** 	  while (data == 0xFF);	/* swallow extra 0xFF bytes */
 285              		.loc 1 122 14 is_stmt 0 discriminator 1 view .LVU94
 286 0118 4C89E7   		movq	%r12, %rdi
 287 011b E8000000 		call	get_byte
 287      00
 288              	.LVL21:
 123:fltk-1.3.4-1/jpeg/jdarith.c **** 	  if (data == 0)
 289              		.loc 1 123 10 is_stmt 1 discriminator 1 view .LVU95
 123:fltk-1.3.4-1/jpeg/jdarith.c **** 	  if (data == 0)
 290              		.loc 1 123 4 is_stmt 0 discriminator 1 view .LVU96
 291 0120 3DFF0000 		cmpl	$255, %eax
 291      00
 292 0125 74F1     		je	.L12
 124:fltk-1.3.4-1/jpeg/jdarith.c **** 	    data = 0xFF;	/* discard stuffed zero byte */
 293              		.loc 1 124 4 is_stmt 1 view .LVU97
 124:fltk-1.3.4-1/jpeg/jdarith.c **** 	    data = 0xFF;	/* discard stuffed zero byte */
 294              		.loc 1 124 7 is_stmt 0 view .LVU98
 295 0127 85C0     		testl	%eax, %eax
 296 0129 753C     		jne	.L13
 297 012b 8B4B28   		movl	40(%rbx), %ecx
 298 012e BAFF0000 		movl	$255, %edx
 298      00
 299 0133 E91FFFFF 		jmp	.L11
 299      FF
 300              	.LVL22:
 301 0138 0F1F8400 		.p2align 4,,10
 301      00000000 
 302              		.p2align 3
 303              	.L17:
 171:fltk-1.3.4-1/jpeg/jdarith.c ****     /* Conditional MPS (more probable symbol) exchange */
 304              		.loc 1 171 10 is_stmt 1 view .LVU99
 171:fltk-1.3.4-1/jpeg/jdarith.c ****     /* Conditional MPS (more probable symbol) exchange */
 305              		.loc 1 171 13 is_stmt 0 view .LVU100
 306 0140 4881FAFF 		cmpq	$32767, %rdx
 306      7F0000
 307 0147 7FA3     		jg	.L19
 173:fltk-1.3.4-1/jpeg/jdarith.c ****       *st = (sv & 0x80) ^ nl;	/* Estimate_after_LPS */
 308              		.loc 1 173 5 is_stmt 1 view .LVU101
 309 0149 89C1     		movl	%eax, %ecx
 310 014b 83E180   		andl	$-128, %ecx
 173:fltk-1.3.4-1/jpeg/jdarith.c ****       *st = (sv & 0x80) ^ nl;	/* Estimate_after_LPS */
 311              		.loc 1 173 8 is_stmt 0 view .LVU102
 312 014e 4939D0   		cmpq	%rdx, %r8
 313 0151 7E93     		jle	.L20
 314              	.L29:
 174:fltk-1.3.4-1/jpeg/jdarith.c ****       sv ^= 0x80;		/* Exchange LPS/MPS */
 315              		.loc 1 174 7 is_stmt 1 view .LVU103
 175:fltk-1.3.4-1/jpeg/jdarith.c ****     } else {
 316              		.loc 1 175 10 is_stmt 0 view .LVU104
 317 0153 8D4680   		leal	-128(%rsi), %eax
 318              	.LVL23:
 174:fltk-1.3.4-1/jpeg/jdarith.c ****       sv ^= 0x80;		/* Exchange LPS/MPS */
 319              		.loc 1 174 25 view .LVU105
 320 0156 31CF     		xorl	%ecx, %edi
 321              	.LVL24:
 322              		.loc 1 182 1 view .LVU106
 323 0158 5B       		popq	%rbx
 324              		.cfi_remember_state
 325              		.cfi_def_cfa_offset 24
 326              	.LVL25:
 175:fltk-1.3.4-1/jpeg/jdarith.c ****     } else {
 327              		.loc 1 175 10 view .LVU107
 328 0159 0FB6C0   		movzbl	%al, %eax
 174:fltk-1.3.4-1/jpeg/jdarith.c ****       sv ^= 0x80;		/* Exchange LPS/MPS */
 329              		.loc 1 174 25 view .LVU108
 330 015c 40887D00 		movb	%dil, 0(%rbp)
 175:fltk-1.3.4-1/jpeg/jdarith.c ****     } else {
 331              		.loc 1 175 7 is_stmt 1 view .LVU109
 332              	.LVL26:
 181:fltk-1.3.4-1/jpeg/jdarith.c **** }
 333              		.loc 1 181 3 view .LVU110
 334              		.loc 1 182 1 is_stmt 0 view .LVU111
 335 0160 5D       		popq	%rbp
 336              		.cfi_def_cfa_offset 16
 337              	.LVL27:
 181:fltk-1.3.4-1/jpeg/jdarith.c **** }
 338              		.loc 1 181 13 view .LVU112
 339 0161 C1F807   		sarl	$7, %eax
 340              	.LVL28:
 341              		.loc 1 182 1 view .LVU113
 342 0164 415C     		popq	%r12
 343              		.cfi_def_cfa_offset 8
 344 0166 C3       		ret
 345              	.LVL29:
 346              	.L13:
 347              		.cfi_restore_state
 133:fltk-1.3.4-1/jpeg/jdarith.c **** 	    data = 0;
 348              		.loc 1 133 6 is_stmt 1 view .LVU114
 133:fltk-1.3.4-1/jpeg/jdarith.c **** 	    data = 0;
 349              		.loc 1 133 27 is_stmt 0 view .LVU115
 350 0167 41898424 		movl	%eax, 572(%r12)
 350      3C020000 
 134:fltk-1.3.4-1/jpeg/jdarith.c **** 	  }
 351              		.loc 1 134 6 is_stmt 1 view .LVU116
 352              	.LVL30:
 133:fltk-1.3.4-1/jpeg/jdarith.c **** 	    data = 0;
 353              		.loc 1 133 27 is_stmt 0 view .LVU117
 354 016f 31D2     		xorl	%edx, %edx
 355 0171 8B4B28   		movl	40(%rbx), %ecx
 356 0174 E9DEFEFF 		jmp	.L11
 356      FF
 357              		.cfi_endproc
 358              	.LFE52:
 360              		.section	.text.finish_pass,"ax",@progbits
 361              		.p2align 4
 363              	finish_pass:
 364              	.LVL31:
 365              	.LFB60:
 183:fltk-1.3.4-1/jpeg/jdarith.c **** 
 184:fltk-1.3.4-1/jpeg/jdarith.c **** 
 185:fltk-1.3.4-1/jpeg/jdarith.c **** /*
 186:fltk-1.3.4-1/jpeg/jdarith.c ****  * Check for a restart marker & resynchronize decoder.
 187:fltk-1.3.4-1/jpeg/jdarith.c ****  */
 188:fltk-1.3.4-1/jpeg/jdarith.c **** 
 189:fltk-1.3.4-1/jpeg/jdarith.c **** LOCAL(void)
 190:fltk-1.3.4-1/jpeg/jdarith.c **** process_restart (j_decompress_ptr cinfo)
 191:fltk-1.3.4-1/jpeg/jdarith.c **** {
 192:fltk-1.3.4-1/jpeg/jdarith.c ****   arith_entropy_ptr entropy = (arith_entropy_ptr) cinfo->entropy;
 193:fltk-1.3.4-1/jpeg/jdarith.c ****   int ci;
 194:fltk-1.3.4-1/jpeg/jdarith.c ****   jpeg_component_info * compptr;
 195:fltk-1.3.4-1/jpeg/jdarith.c **** 
 196:fltk-1.3.4-1/jpeg/jdarith.c ****   /* Advance past the RSTn marker */
 197:fltk-1.3.4-1/jpeg/jdarith.c ****   if (! (*cinfo->marker->read_restart_marker) (cinfo))
 198:fltk-1.3.4-1/jpeg/jdarith.c ****     ERREXIT(cinfo, JERR_CANT_SUSPEND);
 199:fltk-1.3.4-1/jpeg/jdarith.c **** 
 200:fltk-1.3.4-1/jpeg/jdarith.c ****   /* Re-initialize statistics areas */
 201:fltk-1.3.4-1/jpeg/jdarith.c ****   for (ci = 0; ci < cinfo->comps_in_scan; ci++) {
 202:fltk-1.3.4-1/jpeg/jdarith.c ****     compptr = cinfo->cur_comp_info[ci];
 203:fltk-1.3.4-1/jpeg/jdarith.c ****     if (! cinfo->progressive_mode || (cinfo->Ss == 0 && cinfo->Ah == 0)) {
 204:fltk-1.3.4-1/jpeg/jdarith.c ****       MEMZERO(entropy->dc_stats[compptr->dc_tbl_no], DC_STAT_BINS);
 205:fltk-1.3.4-1/jpeg/jdarith.c ****       /* Reset DC predictions to 0 */
 206:fltk-1.3.4-1/jpeg/jdarith.c ****       entropy->last_dc_val[ci] = 0;
 207:fltk-1.3.4-1/jpeg/jdarith.c ****       entropy->dc_context[ci] = 0;
 208:fltk-1.3.4-1/jpeg/jdarith.c ****     }
 209:fltk-1.3.4-1/jpeg/jdarith.c ****     if ((! cinfo->progressive_mode && cinfo->lim_Se) ||
 210:fltk-1.3.4-1/jpeg/jdarith.c **** 	(cinfo->progressive_mode && cinfo->Ss)) {
 211:fltk-1.3.4-1/jpeg/jdarith.c ****       MEMZERO(entropy->ac_stats[compptr->ac_tbl_no], AC_STAT_BINS);
 212:fltk-1.3.4-1/jpeg/jdarith.c ****     }
 213:fltk-1.3.4-1/jpeg/jdarith.c ****   }
 214:fltk-1.3.4-1/jpeg/jdarith.c **** 
 215:fltk-1.3.4-1/jpeg/jdarith.c ****   /* Reset arithmetic decoding variables */
 216:fltk-1.3.4-1/jpeg/jdarith.c ****   entropy->c = 0;
 217:fltk-1.3.4-1/jpeg/jdarith.c ****   entropy->a = 0;
 218:fltk-1.3.4-1/jpeg/jdarith.c ****   entropy->ct = -16;	/* force reading 2 initial bytes to fill C */
 219:fltk-1.3.4-1/jpeg/jdarith.c **** 
 220:fltk-1.3.4-1/jpeg/jdarith.c ****   /* Reset restart counter */
 221:fltk-1.3.4-1/jpeg/jdarith.c ****   entropy->restarts_to_go = cinfo->restart_interval;
 222:fltk-1.3.4-1/jpeg/jdarith.c **** }
 223:fltk-1.3.4-1/jpeg/jdarith.c **** 
 224:fltk-1.3.4-1/jpeg/jdarith.c **** 
 225:fltk-1.3.4-1/jpeg/jdarith.c **** /*
 226:fltk-1.3.4-1/jpeg/jdarith.c ****  * Arithmetic MCU decoding.
 227:fltk-1.3.4-1/jpeg/jdarith.c ****  * Each of these routines decodes and returns one MCU's worth of
 228:fltk-1.3.4-1/jpeg/jdarith.c ****  * arithmetic-compressed coefficients.
 229:fltk-1.3.4-1/jpeg/jdarith.c ****  * The coefficients are reordered from zigzag order into natural array order,
 230:fltk-1.3.4-1/jpeg/jdarith.c ****  * but are not dequantized.
 231:fltk-1.3.4-1/jpeg/jdarith.c ****  *
 232:fltk-1.3.4-1/jpeg/jdarith.c ****  * The i'th block of the MCU is stored into the block pointed to by
 233:fltk-1.3.4-1/jpeg/jdarith.c ****  * MCU_data[i].  WE ASSUME THIS AREA IS INITIALLY ZEROED BY THE CALLER.
 234:fltk-1.3.4-1/jpeg/jdarith.c ****  */
 235:fltk-1.3.4-1/jpeg/jdarith.c **** 
 236:fltk-1.3.4-1/jpeg/jdarith.c **** /*
 237:fltk-1.3.4-1/jpeg/jdarith.c ****  * MCU decoding for DC initial scan (either spectral selection,
 238:fltk-1.3.4-1/jpeg/jdarith.c ****  * or first pass of successive approximation).
 239:fltk-1.3.4-1/jpeg/jdarith.c ****  */
 240:fltk-1.3.4-1/jpeg/jdarith.c **** 
 241:fltk-1.3.4-1/jpeg/jdarith.c **** METHODDEF(boolean)
 242:fltk-1.3.4-1/jpeg/jdarith.c **** decode_mcu_DC_first (j_decompress_ptr cinfo, JBLOCKROW *MCU_data)
 243:fltk-1.3.4-1/jpeg/jdarith.c **** {
 244:fltk-1.3.4-1/jpeg/jdarith.c ****   arith_entropy_ptr entropy = (arith_entropy_ptr) cinfo->entropy;
 245:fltk-1.3.4-1/jpeg/jdarith.c ****   JBLOCKROW block;
 246:fltk-1.3.4-1/jpeg/jdarith.c ****   unsigned char *st;
 247:fltk-1.3.4-1/jpeg/jdarith.c ****   int blkn, ci, tbl, sign;
 248:fltk-1.3.4-1/jpeg/jdarith.c ****   int v, m;
 249:fltk-1.3.4-1/jpeg/jdarith.c **** 
 250:fltk-1.3.4-1/jpeg/jdarith.c ****   /* Process restart marker if needed */
 251:fltk-1.3.4-1/jpeg/jdarith.c ****   if (cinfo->restart_interval) {
 252:fltk-1.3.4-1/jpeg/jdarith.c ****     if (entropy->restarts_to_go == 0)
 253:fltk-1.3.4-1/jpeg/jdarith.c ****       process_restart(cinfo);
 254:fltk-1.3.4-1/jpeg/jdarith.c ****     entropy->restarts_to_go--;
 255:fltk-1.3.4-1/jpeg/jdarith.c ****   }
 256:fltk-1.3.4-1/jpeg/jdarith.c **** 
 257:fltk-1.3.4-1/jpeg/jdarith.c ****   if (entropy->ct == -1) return TRUE;	/* if error do nothing */
 258:fltk-1.3.4-1/jpeg/jdarith.c **** 
 259:fltk-1.3.4-1/jpeg/jdarith.c ****   /* Outer loop handles each block in the MCU */
 260:fltk-1.3.4-1/jpeg/jdarith.c **** 
 261:fltk-1.3.4-1/jpeg/jdarith.c ****   for (blkn = 0; blkn < cinfo->blocks_in_MCU; blkn++) {
 262:fltk-1.3.4-1/jpeg/jdarith.c ****     block = MCU_data[blkn];
 263:fltk-1.3.4-1/jpeg/jdarith.c ****     ci = cinfo->MCU_membership[blkn];
 264:fltk-1.3.4-1/jpeg/jdarith.c ****     tbl = cinfo->cur_comp_info[ci]->dc_tbl_no;
 265:fltk-1.3.4-1/jpeg/jdarith.c **** 
 266:fltk-1.3.4-1/jpeg/jdarith.c ****     /* Sections F.2.4.1 & F.1.4.4.1: Decoding of DC coefficients */
 267:fltk-1.3.4-1/jpeg/jdarith.c **** 
 268:fltk-1.3.4-1/jpeg/jdarith.c ****     /* Table F.4: Point to statistics bin S0 for DC coefficient coding */
 269:fltk-1.3.4-1/jpeg/jdarith.c ****     st = entropy->dc_stats[tbl] + entropy->dc_context[ci];
 270:fltk-1.3.4-1/jpeg/jdarith.c **** 
 271:fltk-1.3.4-1/jpeg/jdarith.c ****     /* Figure F.19: Decode_DC_DIFF */
 272:fltk-1.3.4-1/jpeg/jdarith.c ****     if (arith_decode(cinfo, st) == 0)
 273:fltk-1.3.4-1/jpeg/jdarith.c ****       entropy->dc_context[ci] = 0;
 274:fltk-1.3.4-1/jpeg/jdarith.c ****     else {
 275:fltk-1.3.4-1/jpeg/jdarith.c ****       /* Figure F.21: Decoding nonzero value v */
 276:fltk-1.3.4-1/jpeg/jdarith.c ****       /* Figure F.22: Decoding the sign of v */
 277:fltk-1.3.4-1/jpeg/jdarith.c ****       sign = arith_decode(cinfo, st + 1);
 278:fltk-1.3.4-1/jpeg/jdarith.c ****       st += 2; st += sign;
 279:fltk-1.3.4-1/jpeg/jdarith.c ****       /* Figure F.23: Decoding the magnitude category of v */
 280:fltk-1.3.4-1/jpeg/jdarith.c ****       if ((m = arith_decode(cinfo, st)) != 0) {
 281:fltk-1.3.4-1/jpeg/jdarith.c **** 	st = entropy->dc_stats[tbl] + 20;	/* Table F.4: X1 = 20 */
 282:fltk-1.3.4-1/jpeg/jdarith.c **** 	while (arith_decode(cinfo, st)) {
 283:fltk-1.3.4-1/jpeg/jdarith.c **** 	  if ((m <<= 1) == 0x8000) {
 284:fltk-1.3.4-1/jpeg/jdarith.c **** 	    WARNMS(cinfo, JWRN_ARITH_BAD_CODE);
 285:fltk-1.3.4-1/jpeg/jdarith.c **** 	    entropy->ct = -1;			/* magnitude overflow */
 286:fltk-1.3.4-1/jpeg/jdarith.c **** 	    return TRUE;
 287:fltk-1.3.4-1/jpeg/jdarith.c **** 	  }
 288:fltk-1.3.4-1/jpeg/jdarith.c **** 	  st += 1;
 289:fltk-1.3.4-1/jpeg/jdarith.c **** 	}
 290:fltk-1.3.4-1/jpeg/jdarith.c ****       }
 291:fltk-1.3.4-1/jpeg/jdarith.c ****       /* Section F.1.4.4.1.2: Establish dc_context conditioning category */
 292:fltk-1.3.4-1/jpeg/jdarith.c ****       if (m < (int) ((1L << cinfo->arith_dc_L[tbl]) >> 1))
 293:fltk-1.3.4-1/jpeg/jdarith.c **** 	entropy->dc_context[ci] = 0;		   /* zero diff category */
 294:fltk-1.3.4-1/jpeg/jdarith.c ****       else if (m > (int) ((1L << cinfo->arith_dc_U[tbl]) >> 1))
 295:fltk-1.3.4-1/jpeg/jdarith.c **** 	entropy->dc_context[ci] = 12 + (sign * 4); /* large diff category */
 296:fltk-1.3.4-1/jpeg/jdarith.c ****       else
 297:fltk-1.3.4-1/jpeg/jdarith.c **** 	entropy->dc_context[ci] = 4 + (sign * 4);  /* small diff category */
 298:fltk-1.3.4-1/jpeg/jdarith.c ****       v = m;
 299:fltk-1.3.4-1/jpeg/jdarith.c ****       /* Figure F.24: Decoding the magnitude bit pattern of v */
 300:fltk-1.3.4-1/jpeg/jdarith.c ****       st += 14;
 301:fltk-1.3.4-1/jpeg/jdarith.c ****       while (m >>= 1)
 302:fltk-1.3.4-1/jpeg/jdarith.c **** 	if (arith_decode(cinfo, st)) v |= m;
 303:fltk-1.3.4-1/jpeg/jdarith.c ****       v += 1; if (sign) v = -v;
 304:fltk-1.3.4-1/jpeg/jdarith.c ****       entropy->last_dc_val[ci] += v;
 305:fltk-1.3.4-1/jpeg/jdarith.c ****     }
 306:fltk-1.3.4-1/jpeg/jdarith.c **** 
 307:fltk-1.3.4-1/jpeg/jdarith.c ****     /* Scale and output the DC coefficient (assumes jpeg_natural_order[0]=0) */
 308:fltk-1.3.4-1/jpeg/jdarith.c ****     (*block)[0] = (JCOEF) (entropy->last_dc_val[ci] << cinfo->Al);
 309:fltk-1.3.4-1/jpeg/jdarith.c ****   }
 310:fltk-1.3.4-1/jpeg/jdarith.c **** 
 311:fltk-1.3.4-1/jpeg/jdarith.c ****   return TRUE;
 312:fltk-1.3.4-1/jpeg/jdarith.c **** }
 313:fltk-1.3.4-1/jpeg/jdarith.c **** 
 314:fltk-1.3.4-1/jpeg/jdarith.c **** 
 315:fltk-1.3.4-1/jpeg/jdarith.c **** /*
 316:fltk-1.3.4-1/jpeg/jdarith.c ****  * MCU decoding for AC initial scan (either spectral selection,
 317:fltk-1.3.4-1/jpeg/jdarith.c ****  * or first pass of successive approximation).
 318:fltk-1.3.4-1/jpeg/jdarith.c ****  */
 319:fltk-1.3.4-1/jpeg/jdarith.c **** 
 320:fltk-1.3.4-1/jpeg/jdarith.c **** METHODDEF(boolean)
 321:fltk-1.3.4-1/jpeg/jdarith.c **** decode_mcu_AC_first (j_decompress_ptr cinfo, JBLOCKROW *MCU_data)
 322:fltk-1.3.4-1/jpeg/jdarith.c **** {
 323:fltk-1.3.4-1/jpeg/jdarith.c ****   arith_entropy_ptr entropy = (arith_entropy_ptr) cinfo->entropy;
 324:fltk-1.3.4-1/jpeg/jdarith.c ****   JBLOCKROW block;
 325:fltk-1.3.4-1/jpeg/jdarith.c ****   unsigned char *st;
 326:fltk-1.3.4-1/jpeg/jdarith.c ****   int tbl, sign, k;
 327:fltk-1.3.4-1/jpeg/jdarith.c ****   int v, m;
 328:fltk-1.3.4-1/jpeg/jdarith.c ****   const int * natural_order;
 329:fltk-1.3.4-1/jpeg/jdarith.c **** 
 330:fltk-1.3.4-1/jpeg/jdarith.c ****   /* Process restart marker if needed */
 331:fltk-1.3.4-1/jpeg/jdarith.c ****   if (cinfo->restart_interval) {
 332:fltk-1.3.4-1/jpeg/jdarith.c ****     if (entropy->restarts_to_go == 0)
 333:fltk-1.3.4-1/jpeg/jdarith.c ****       process_restart(cinfo);
 334:fltk-1.3.4-1/jpeg/jdarith.c ****     entropy->restarts_to_go--;
 335:fltk-1.3.4-1/jpeg/jdarith.c ****   }
 336:fltk-1.3.4-1/jpeg/jdarith.c **** 
 337:fltk-1.3.4-1/jpeg/jdarith.c ****   if (entropy->ct == -1) return TRUE;	/* if error do nothing */
 338:fltk-1.3.4-1/jpeg/jdarith.c **** 
 339:fltk-1.3.4-1/jpeg/jdarith.c ****   natural_order = cinfo->natural_order;
 340:fltk-1.3.4-1/jpeg/jdarith.c **** 
 341:fltk-1.3.4-1/jpeg/jdarith.c ****   /* There is always only one block per MCU */
 342:fltk-1.3.4-1/jpeg/jdarith.c ****   block = MCU_data[0];
 343:fltk-1.3.4-1/jpeg/jdarith.c ****   tbl = cinfo->cur_comp_info[0]->ac_tbl_no;
 344:fltk-1.3.4-1/jpeg/jdarith.c **** 
 345:fltk-1.3.4-1/jpeg/jdarith.c ****   /* Sections F.2.4.2 & F.1.4.4.2: Decoding of AC coefficients */
 346:fltk-1.3.4-1/jpeg/jdarith.c **** 
 347:fltk-1.3.4-1/jpeg/jdarith.c ****   /* Figure F.20: Decode_AC_coefficients */
 348:fltk-1.3.4-1/jpeg/jdarith.c ****   k = cinfo->Ss - 1;
 349:fltk-1.3.4-1/jpeg/jdarith.c ****   do {
 350:fltk-1.3.4-1/jpeg/jdarith.c ****     st = entropy->ac_stats[tbl] + 3 * k;
 351:fltk-1.3.4-1/jpeg/jdarith.c ****     if (arith_decode(cinfo, st)) break;		/* EOB flag */
 352:fltk-1.3.4-1/jpeg/jdarith.c ****     for (;;) {
 353:fltk-1.3.4-1/jpeg/jdarith.c ****       k++;
 354:fltk-1.3.4-1/jpeg/jdarith.c ****       if (arith_decode(cinfo, st + 1)) break;
 355:fltk-1.3.4-1/jpeg/jdarith.c ****       st += 3;
 356:fltk-1.3.4-1/jpeg/jdarith.c ****       if (k >= cinfo->Se) {
 357:fltk-1.3.4-1/jpeg/jdarith.c **** 	WARNMS(cinfo, JWRN_ARITH_BAD_CODE);
 358:fltk-1.3.4-1/jpeg/jdarith.c **** 	entropy->ct = -1;			/* spectral overflow */
 359:fltk-1.3.4-1/jpeg/jdarith.c **** 	return TRUE;
 360:fltk-1.3.4-1/jpeg/jdarith.c ****       }
 361:fltk-1.3.4-1/jpeg/jdarith.c ****     }
 362:fltk-1.3.4-1/jpeg/jdarith.c ****     /* Figure F.21: Decoding nonzero value v */
 363:fltk-1.3.4-1/jpeg/jdarith.c ****     /* Figure F.22: Decoding the sign of v */
 364:fltk-1.3.4-1/jpeg/jdarith.c ****     sign = arith_decode(cinfo, entropy->fixed_bin);
 365:fltk-1.3.4-1/jpeg/jdarith.c ****     st += 2;
 366:fltk-1.3.4-1/jpeg/jdarith.c ****     /* Figure F.23: Decoding the magnitude category of v */
 367:fltk-1.3.4-1/jpeg/jdarith.c ****     if ((m = arith_decode(cinfo, st)) != 0) {
 368:fltk-1.3.4-1/jpeg/jdarith.c ****       if (arith_decode(cinfo, st)) {
 369:fltk-1.3.4-1/jpeg/jdarith.c **** 	m <<= 1;
 370:fltk-1.3.4-1/jpeg/jdarith.c **** 	st = entropy->ac_stats[tbl] +
 371:fltk-1.3.4-1/jpeg/jdarith.c **** 	     (k <= cinfo->arith_ac_K[tbl] ? 189 : 217);
 372:fltk-1.3.4-1/jpeg/jdarith.c **** 	while (arith_decode(cinfo, st)) {
 373:fltk-1.3.4-1/jpeg/jdarith.c **** 	  if ((m <<= 1) == 0x8000) {
 374:fltk-1.3.4-1/jpeg/jdarith.c **** 	    WARNMS(cinfo, JWRN_ARITH_BAD_CODE);
 375:fltk-1.3.4-1/jpeg/jdarith.c **** 	    entropy->ct = -1;			/* magnitude overflow */
 376:fltk-1.3.4-1/jpeg/jdarith.c **** 	    return TRUE;
 377:fltk-1.3.4-1/jpeg/jdarith.c **** 	  }
 378:fltk-1.3.4-1/jpeg/jdarith.c **** 	  st += 1;
 379:fltk-1.3.4-1/jpeg/jdarith.c **** 	}
 380:fltk-1.3.4-1/jpeg/jdarith.c ****       }
 381:fltk-1.3.4-1/jpeg/jdarith.c ****     }
 382:fltk-1.3.4-1/jpeg/jdarith.c ****     v = m;
 383:fltk-1.3.4-1/jpeg/jdarith.c ****     /* Figure F.24: Decoding the magnitude bit pattern of v */
 384:fltk-1.3.4-1/jpeg/jdarith.c ****     st += 14;
 385:fltk-1.3.4-1/jpeg/jdarith.c ****     while (m >>= 1)
 386:fltk-1.3.4-1/jpeg/jdarith.c ****       if (arith_decode(cinfo, st)) v |= m;
 387:fltk-1.3.4-1/jpeg/jdarith.c ****     v += 1; if (sign) v = -v;
 388:fltk-1.3.4-1/jpeg/jdarith.c ****     /* Scale and output coefficient in natural (dezigzagged) order */
 389:fltk-1.3.4-1/jpeg/jdarith.c ****     (*block)[natural_order[k]] = (JCOEF) (v << cinfo->Al);
 390:fltk-1.3.4-1/jpeg/jdarith.c ****   } while (k < cinfo->Se);
 391:fltk-1.3.4-1/jpeg/jdarith.c **** 
 392:fltk-1.3.4-1/jpeg/jdarith.c ****   return TRUE;
 393:fltk-1.3.4-1/jpeg/jdarith.c **** }
 394:fltk-1.3.4-1/jpeg/jdarith.c **** 
 395:fltk-1.3.4-1/jpeg/jdarith.c **** 
 396:fltk-1.3.4-1/jpeg/jdarith.c **** /*
 397:fltk-1.3.4-1/jpeg/jdarith.c ****  * MCU decoding for DC successive approximation refinement scan.
 398:fltk-1.3.4-1/jpeg/jdarith.c ****  * Note: we assume such scans can be multi-component,
 399:fltk-1.3.4-1/jpeg/jdarith.c ****  * although the spec is not very clear on the point.
 400:fltk-1.3.4-1/jpeg/jdarith.c ****  */
 401:fltk-1.3.4-1/jpeg/jdarith.c **** 
 402:fltk-1.3.4-1/jpeg/jdarith.c **** METHODDEF(boolean)
 403:fltk-1.3.4-1/jpeg/jdarith.c **** decode_mcu_DC_refine (j_decompress_ptr cinfo, JBLOCKROW *MCU_data)
 404:fltk-1.3.4-1/jpeg/jdarith.c **** {
 405:fltk-1.3.4-1/jpeg/jdarith.c ****   arith_entropy_ptr entropy = (arith_entropy_ptr) cinfo->entropy;
 406:fltk-1.3.4-1/jpeg/jdarith.c ****   unsigned char *st;
 407:fltk-1.3.4-1/jpeg/jdarith.c ****   int p1, blkn;
 408:fltk-1.3.4-1/jpeg/jdarith.c **** 
 409:fltk-1.3.4-1/jpeg/jdarith.c ****   /* Process restart marker if needed */
 410:fltk-1.3.4-1/jpeg/jdarith.c ****   if (cinfo->restart_interval) {
 411:fltk-1.3.4-1/jpeg/jdarith.c ****     if (entropy->restarts_to_go == 0)
 412:fltk-1.3.4-1/jpeg/jdarith.c ****       process_restart(cinfo);
 413:fltk-1.3.4-1/jpeg/jdarith.c ****     entropy->restarts_to_go--;
 414:fltk-1.3.4-1/jpeg/jdarith.c ****   }
 415:fltk-1.3.4-1/jpeg/jdarith.c **** 
 416:fltk-1.3.4-1/jpeg/jdarith.c ****   st = entropy->fixed_bin;	/* use fixed probability estimation */
 417:fltk-1.3.4-1/jpeg/jdarith.c ****   p1 = 1 << cinfo->Al;		/* 1 in the bit position being coded */
 418:fltk-1.3.4-1/jpeg/jdarith.c **** 
 419:fltk-1.3.4-1/jpeg/jdarith.c ****   /* Outer loop handles each block in the MCU */
 420:fltk-1.3.4-1/jpeg/jdarith.c **** 
 421:fltk-1.3.4-1/jpeg/jdarith.c ****   for (blkn = 0; blkn < cinfo->blocks_in_MCU; blkn++) {
 422:fltk-1.3.4-1/jpeg/jdarith.c ****     /* Encoded data is simply the next bit of the two's-complement DC value */
 423:fltk-1.3.4-1/jpeg/jdarith.c ****     if (arith_decode(cinfo, st))
 424:fltk-1.3.4-1/jpeg/jdarith.c ****       MCU_data[blkn][0][0] |= p1;
 425:fltk-1.3.4-1/jpeg/jdarith.c ****   }
 426:fltk-1.3.4-1/jpeg/jdarith.c **** 
 427:fltk-1.3.4-1/jpeg/jdarith.c ****   return TRUE;
 428:fltk-1.3.4-1/jpeg/jdarith.c **** }
 429:fltk-1.3.4-1/jpeg/jdarith.c **** 
 430:fltk-1.3.4-1/jpeg/jdarith.c **** 
 431:fltk-1.3.4-1/jpeg/jdarith.c **** /*
 432:fltk-1.3.4-1/jpeg/jdarith.c ****  * MCU decoding for AC successive approximation refinement scan.
 433:fltk-1.3.4-1/jpeg/jdarith.c ****  */
 434:fltk-1.3.4-1/jpeg/jdarith.c **** 
 435:fltk-1.3.4-1/jpeg/jdarith.c **** METHODDEF(boolean)
 436:fltk-1.3.4-1/jpeg/jdarith.c **** decode_mcu_AC_refine (j_decompress_ptr cinfo, JBLOCKROW *MCU_data)
 437:fltk-1.3.4-1/jpeg/jdarith.c **** {
 438:fltk-1.3.4-1/jpeg/jdarith.c ****   arith_entropy_ptr entropy = (arith_entropy_ptr) cinfo->entropy;
 439:fltk-1.3.4-1/jpeg/jdarith.c ****   JBLOCKROW block;
 440:fltk-1.3.4-1/jpeg/jdarith.c ****   JCOEFPTR thiscoef;
 441:fltk-1.3.4-1/jpeg/jdarith.c ****   unsigned char *st;
 442:fltk-1.3.4-1/jpeg/jdarith.c ****   int tbl, k, kex;
 443:fltk-1.3.4-1/jpeg/jdarith.c ****   int p1, m1;
 444:fltk-1.3.4-1/jpeg/jdarith.c ****   const int * natural_order;
 445:fltk-1.3.4-1/jpeg/jdarith.c **** 
 446:fltk-1.3.4-1/jpeg/jdarith.c ****   /* Process restart marker if needed */
 447:fltk-1.3.4-1/jpeg/jdarith.c ****   if (cinfo->restart_interval) {
 448:fltk-1.3.4-1/jpeg/jdarith.c ****     if (entropy->restarts_to_go == 0)
 449:fltk-1.3.4-1/jpeg/jdarith.c ****       process_restart(cinfo);
 450:fltk-1.3.4-1/jpeg/jdarith.c ****     entropy->restarts_to_go--;
 451:fltk-1.3.4-1/jpeg/jdarith.c ****   }
 452:fltk-1.3.4-1/jpeg/jdarith.c **** 
 453:fltk-1.3.4-1/jpeg/jdarith.c ****   if (entropy->ct == -1) return TRUE;	/* if error do nothing */
 454:fltk-1.3.4-1/jpeg/jdarith.c **** 
 455:fltk-1.3.4-1/jpeg/jdarith.c ****   natural_order = cinfo->natural_order;
 456:fltk-1.3.4-1/jpeg/jdarith.c **** 
 457:fltk-1.3.4-1/jpeg/jdarith.c ****   /* There is always only one block per MCU */
 458:fltk-1.3.4-1/jpeg/jdarith.c ****   block = MCU_data[0];
 459:fltk-1.3.4-1/jpeg/jdarith.c ****   tbl = cinfo->cur_comp_info[0]->ac_tbl_no;
 460:fltk-1.3.4-1/jpeg/jdarith.c **** 
 461:fltk-1.3.4-1/jpeg/jdarith.c ****   p1 = 1 << cinfo->Al;		/* 1 in the bit position being coded */
 462:fltk-1.3.4-1/jpeg/jdarith.c ****   m1 = (-1) << cinfo->Al;	/* -1 in the bit position being coded */
 463:fltk-1.3.4-1/jpeg/jdarith.c **** 
 464:fltk-1.3.4-1/jpeg/jdarith.c ****   /* Establish EOBx (previous stage end-of-block) index */
 465:fltk-1.3.4-1/jpeg/jdarith.c ****   kex = cinfo->Se;
 466:fltk-1.3.4-1/jpeg/jdarith.c ****   do {
 467:fltk-1.3.4-1/jpeg/jdarith.c ****     if ((*block)[natural_order[kex]]) break;
 468:fltk-1.3.4-1/jpeg/jdarith.c ****   } while (--kex);
 469:fltk-1.3.4-1/jpeg/jdarith.c **** 
 470:fltk-1.3.4-1/jpeg/jdarith.c ****   k = cinfo->Ss - 1;
 471:fltk-1.3.4-1/jpeg/jdarith.c ****   do {
 472:fltk-1.3.4-1/jpeg/jdarith.c ****     st = entropy->ac_stats[tbl] + 3 * k;
 473:fltk-1.3.4-1/jpeg/jdarith.c ****     if (k >= kex)
 474:fltk-1.3.4-1/jpeg/jdarith.c ****       if (arith_decode(cinfo, st)) break;	/* EOB flag */
 475:fltk-1.3.4-1/jpeg/jdarith.c ****     for (;;) {
 476:fltk-1.3.4-1/jpeg/jdarith.c ****       thiscoef = *block + natural_order[++k];
 477:fltk-1.3.4-1/jpeg/jdarith.c ****       if (*thiscoef) {				/* previously nonzero coef */
 478:fltk-1.3.4-1/jpeg/jdarith.c **** 	if (arith_decode(cinfo, st + 2)) {
 479:fltk-1.3.4-1/jpeg/jdarith.c **** 	  if (*thiscoef < 0)
 480:fltk-1.3.4-1/jpeg/jdarith.c **** 	    *thiscoef += m1;
 481:fltk-1.3.4-1/jpeg/jdarith.c **** 	  else
 482:fltk-1.3.4-1/jpeg/jdarith.c **** 	    *thiscoef += p1;
 483:fltk-1.3.4-1/jpeg/jdarith.c **** 	}
 484:fltk-1.3.4-1/jpeg/jdarith.c **** 	break;
 485:fltk-1.3.4-1/jpeg/jdarith.c ****       }
 486:fltk-1.3.4-1/jpeg/jdarith.c ****       if (arith_decode(cinfo, st + 1)) {	/* newly nonzero coef */
 487:fltk-1.3.4-1/jpeg/jdarith.c **** 	if (arith_decode(cinfo, entropy->fixed_bin))
 488:fltk-1.3.4-1/jpeg/jdarith.c **** 	  *thiscoef = m1;
 489:fltk-1.3.4-1/jpeg/jdarith.c **** 	else
 490:fltk-1.3.4-1/jpeg/jdarith.c **** 	  *thiscoef = p1;
 491:fltk-1.3.4-1/jpeg/jdarith.c **** 	break;
 492:fltk-1.3.4-1/jpeg/jdarith.c ****       }
 493:fltk-1.3.4-1/jpeg/jdarith.c ****       st += 3;
 494:fltk-1.3.4-1/jpeg/jdarith.c ****       if (k >= cinfo->Se) {
 495:fltk-1.3.4-1/jpeg/jdarith.c **** 	WARNMS(cinfo, JWRN_ARITH_BAD_CODE);
 496:fltk-1.3.4-1/jpeg/jdarith.c **** 	entropy->ct = -1;			/* spectral overflow */
 497:fltk-1.3.4-1/jpeg/jdarith.c **** 	return TRUE;
 498:fltk-1.3.4-1/jpeg/jdarith.c ****       }
 499:fltk-1.3.4-1/jpeg/jdarith.c ****     }
 500:fltk-1.3.4-1/jpeg/jdarith.c ****   } while (k < cinfo->Se);
 501:fltk-1.3.4-1/jpeg/jdarith.c **** 
 502:fltk-1.3.4-1/jpeg/jdarith.c ****   return TRUE;
 503:fltk-1.3.4-1/jpeg/jdarith.c **** }
 504:fltk-1.3.4-1/jpeg/jdarith.c **** 
 505:fltk-1.3.4-1/jpeg/jdarith.c **** 
 506:fltk-1.3.4-1/jpeg/jdarith.c **** /*
 507:fltk-1.3.4-1/jpeg/jdarith.c ****  * Decode one MCU's worth of arithmetic-compressed coefficients.
 508:fltk-1.3.4-1/jpeg/jdarith.c ****  */
 509:fltk-1.3.4-1/jpeg/jdarith.c **** 
 510:fltk-1.3.4-1/jpeg/jdarith.c **** METHODDEF(boolean)
 511:fltk-1.3.4-1/jpeg/jdarith.c **** decode_mcu (j_decompress_ptr cinfo, JBLOCKROW *MCU_data)
 512:fltk-1.3.4-1/jpeg/jdarith.c **** {
 513:fltk-1.3.4-1/jpeg/jdarith.c ****   arith_entropy_ptr entropy = (arith_entropy_ptr) cinfo->entropy;
 514:fltk-1.3.4-1/jpeg/jdarith.c ****   jpeg_component_info * compptr;
 515:fltk-1.3.4-1/jpeg/jdarith.c ****   JBLOCKROW block;
 516:fltk-1.3.4-1/jpeg/jdarith.c ****   unsigned char *st;
 517:fltk-1.3.4-1/jpeg/jdarith.c ****   int blkn, ci, tbl, sign, k;
 518:fltk-1.3.4-1/jpeg/jdarith.c ****   int v, m;
 519:fltk-1.3.4-1/jpeg/jdarith.c ****   const int * natural_order;
 520:fltk-1.3.4-1/jpeg/jdarith.c **** 
 521:fltk-1.3.4-1/jpeg/jdarith.c ****   /* Process restart marker if needed */
 522:fltk-1.3.4-1/jpeg/jdarith.c ****   if (cinfo->restart_interval) {
 523:fltk-1.3.4-1/jpeg/jdarith.c ****     if (entropy->restarts_to_go == 0)
 524:fltk-1.3.4-1/jpeg/jdarith.c ****       process_restart(cinfo);
 525:fltk-1.3.4-1/jpeg/jdarith.c ****     entropy->restarts_to_go--;
 526:fltk-1.3.4-1/jpeg/jdarith.c ****   }
 527:fltk-1.3.4-1/jpeg/jdarith.c **** 
 528:fltk-1.3.4-1/jpeg/jdarith.c ****   if (entropy->ct == -1) return TRUE;	/* if error do nothing */
 529:fltk-1.3.4-1/jpeg/jdarith.c **** 
 530:fltk-1.3.4-1/jpeg/jdarith.c ****   natural_order = cinfo->natural_order;
 531:fltk-1.3.4-1/jpeg/jdarith.c **** 
 532:fltk-1.3.4-1/jpeg/jdarith.c ****   /* Outer loop handles each block in the MCU */
 533:fltk-1.3.4-1/jpeg/jdarith.c **** 
 534:fltk-1.3.4-1/jpeg/jdarith.c ****   for (blkn = 0; blkn < cinfo->blocks_in_MCU; blkn++) {
 535:fltk-1.3.4-1/jpeg/jdarith.c ****     block = MCU_data[blkn];
 536:fltk-1.3.4-1/jpeg/jdarith.c ****     ci = cinfo->MCU_membership[blkn];
 537:fltk-1.3.4-1/jpeg/jdarith.c ****     compptr = cinfo->cur_comp_info[ci];
 538:fltk-1.3.4-1/jpeg/jdarith.c **** 
 539:fltk-1.3.4-1/jpeg/jdarith.c ****     /* Sections F.2.4.1 & F.1.4.4.1: Decoding of DC coefficients */
 540:fltk-1.3.4-1/jpeg/jdarith.c **** 
 541:fltk-1.3.4-1/jpeg/jdarith.c ****     tbl = compptr->dc_tbl_no;
 542:fltk-1.3.4-1/jpeg/jdarith.c **** 
 543:fltk-1.3.4-1/jpeg/jdarith.c ****     /* Table F.4: Point to statistics bin S0 for DC coefficient coding */
 544:fltk-1.3.4-1/jpeg/jdarith.c ****     st = entropy->dc_stats[tbl] + entropy->dc_context[ci];
 545:fltk-1.3.4-1/jpeg/jdarith.c **** 
 546:fltk-1.3.4-1/jpeg/jdarith.c ****     /* Figure F.19: Decode_DC_DIFF */
 547:fltk-1.3.4-1/jpeg/jdarith.c ****     if (arith_decode(cinfo, st) == 0)
 548:fltk-1.3.4-1/jpeg/jdarith.c ****       entropy->dc_context[ci] = 0;
 549:fltk-1.3.4-1/jpeg/jdarith.c ****     else {
 550:fltk-1.3.4-1/jpeg/jdarith.c ****       /* Figure F.21: Decoding nonzero value v */
 551:fltk-1.3.4-1/jpeg/jdarith.c ****       /* Figure F.22: Decoding the sign of v */
 552:fltk-1.3.4-1/jpeg/jdarith.c ****       sign = arith_decode(cinfo, st + 1);
 553:fltk-1.3.4-1/jpeg/jdarith.c ****       st += 2; st += sign;
 554:fltk-1.3.4-1/jpeg/jdarith.c ****       /* Figure F.23: Decoding the magnitude category of v */
 555:fltk-1.3.4-1/jpeg/jdarith.c ****       if ((m = arith_decode(cinfo, st)) != 0) {
 556:fltk-1.3.4-1/jpeg/jdarith.c **** 	st = entropy->dc_stats[tbl] + 20;	/* Table F.4: X1 = 20 */
 557:fltk-1.3.4-1/jpeg/jdarith.c **** 	while (arith_decode(cinfo, st)) {
 558:fltk-1.3.4-1/jpeg/jdarith.c **** 	  if ((m <<= 1) == 0x8000) {
 559:fltk-1.3.4-1/jpeg/jdarith.c **** 	    WARNMS(cinfo, JWRN_ARITH_BAD_CODE);
 560:fltk-1.3.4-1/jpeg/jdarith.c **** 	    entropy->ct = -1;			/* magnitude overflow */
 561:fltk-1.3.4-1/jpeg/jdarith.c **** 	    return TRUE;
 562:fltk-1.3.4-1/jpeg/jdarith.c **** 	  }
 563:fltk-1.3.4-1/jpeg/jdarith.c **** 	  st += 1;
 564:fltk-1.3.4-1/jpeg/jdarith.c **** 	}
 565:fltk-1.3.4-1/jpeg/jdarith.c ****       }
 566:fltk-1.3.4-1/jpeg/jdarith.c ****       /* Section F.1.4.4.1.2: Establish dc_context conditioning category */
 567:fltk-1.3.4-1/jpeg/jdarith.c ****       if (m < (int) ((1L << cinfo->arith_dc_L[tbl]) >> 1))
 568:fltk-1.3.4-1/jpeg/jdarith.c **** 	entropy->dc_context[ci] = 0;		   /* zero diff category */
 569:fltk-1.3.4-1/jpeg/jdarith.c ****       else if (m > (int) ((1L << cinfo->arith_dc_U[tbl]) >> 1))
 570:fltk-1.3.4-1/jpeg/jdarith.c **** 	entropy->dc_context[ci] = 12 + (sign * 4); /* large diff category */
 571:fltk-1.3.4-1/jpeg/jdarith.c ****       else
 572:fltk-1.3.4-1/jpeg/jdarith.c **** 	entropy->dc_context[ci] = 4 + (sign * 4);  /* small diff category */
 573:fltk-1.3.4-1/jpeg/jdarith.c ****       v = m;
 574:fltk-1.3.4-1/jpeg/jdarith.c ****       /* Figure F.24: Decoding the magnitude bit pattern of v */
 575:fltk-1.3.4-1/jpeg/jdarith.c ****       st += 14;
 576:fltk-1.3.4-1/jpeg/jdarith.c ****       while (m >>= 1)
 577:fltk-1.3.4-1/jpeg/jdarith.c **** 	if (arith_decode(cinfo, st)) v |= m;
 578:fltk-1.3.4-1/jpeg/jdarith.c ****       v += 1; if (sign) v = -v;
 579:fltk-1.3.4-1/jpeg/jdarith.c ****       entropy->last_dc_val[ci] += v;
 580:fltk-1.3.4-1/jpeg/jdarith.c ****     }
 581:fltk-1.3.4-1/jpeg/jdarith.c **** 
 582:fltk-1.3.4-1/jpeg/jdarith.c ****     (*block)[0] = (JCOEF) entropy->last_dc_val[ci];
 583:fltk-1.3.4-1/jpeg/jdarith.c **** 
 584:fltk-1.3.4-1/jpeg/jdarith.c ****     /* Sections F.2.4.2 & F.1.4.4.2: Decoding of AC coefficients */
 585:fltk-1.3.4-1/jpeg/jdarith.c **** 
 586:fltk-1.3.4-1/jpeg/jdarith.c ****     if (cinfo->lim_Se == 0) continue;
 587:fltk-1.3.4-1/jpeg/jdarith.c ****     tbl = compptr->ac_tbl_no;
 588:fltk-1.3.4-1/jpeg/jdarith.c ****     k = 0;
 589:fltk-1.3.4-1/jpeg/jdarith.c **** 
 590:fltk-1.3.4-1/jpeg/jdarith.c ****     /* Figure F.20: Decode_AC_coefficients */
 591:fltk-1.3.4-1/jpeg/jdarith.c ****     do {
 592:fltk-1.3.4-1/jpeg/jdarith.c ****       st = entropy->ac_stats[tbl] + 3 * k;
 593:fltk-1.3.4-1/jpeg/jdarith.c ****       if (arith_decode(cinfo, st)) break;	/* EOB flag */
 594:fltk-1.3.4-1/jpeg/jdarith.c ****       for (;;) {
 595:fltk-1.3.4-1/jpeg/jdarith.c **** 	k++;
 596:fltk-1.3.4-1/jpeg/jdarith.c **** 	if (arith_decode(cinfo, st + 1)) break;
 597:fltk-1.3.4-1/jpeg/jdarith.c **** 	st += 3;
 598:fltk-1.3.4-1/jpeg/jdarith.c **** 	if (k >= cinfo->lim_Se) {
 599:fltk-1.3.4-1/jpeg/jdarith.c **** 	  WARNMS(cinfo, JWRN_ARITH_BAD_CODE);
 600:fltk-1.3.4-1/jpeg/jdarith.c **** 	  entropy->ct = -1;			/* spectral overflow */
 601:fltk-1.3.4-1/jpeg/jdarith.c **** 	  return TRUE;
 602:fltk-1.3.4-1/jpeg/jdarith.c **** 	}
 603:fltk-1.3.4-1/jpeg/jdarith.c ****       }
 604:fltk-1.3.4-1/jpeg/jdarith.c ****       /* Figure F.21: Decoding nonzero value v */
 605:fltk-1.3.4-1/jpeg/jdarith.c ****       /* Figure F.22: Decoding the sign of v */
 606:fltk-1.3.4-1/jpeg/jdarith.c ****       sign = arith_decode(cinfo, entropy->fixed_bin);
 607:fltk-1.3.4-1/jpeg/jdarith.c ****       st += 2;
 608:fltk-1.3.4-1/jpeg/jdarith.c ****       /* Figure F.23: Decoding the magnitude category of v */
 609:fltk-1.3.4-1/jpeg/jdarith.c ****       if ((m = arith_decode(cinfo, st)) != 0) {
 610:fltk-1.3.4-1/jpeg/jdarith.c **** 	if (arith_decode(cinfo, st)) {
 611:fltk-1.3.4-1/jpeg/jdarith.c **** 	  m <<= 1;
 612:fltk-1.3.4-1/jpeg/jdarith.c **** 	  st = entropy->ac_stats[tbl] +
 613:fltk-1.3.4-1/jpeg/jdarith.c **** 	       (k <= cinfo->arith_ac_K[tbl] ? 189 : 217);
 614:fltk-1.3.4-1/jpeg/jdarith.c **** 	  while (arith_decode(cinfo, st)) {
 615:fltk-1.3.4-1/jpeg/jdarith.c **** 	    if ((m <<= 1) == 0x8000) {
 616:fltk-1.3.4-1/jpeg/jdarith.c **** 	      WARNMS(cinfo, JWRN_ARITH_BAD_CODE);
 617:fltk-1.3.4-1/jpeg/jdarith.c **** 	      entropy->ct = -1;			/* magnitude overflow */
 618:fltk-1.3.4-1/jpeg/jdarith.c **** 	      return TRUE;
 619:fltk-1.3.4-1/jpeg/jdarith.c **** 	    }
 620:fltk-1.3.4-1/jpeg/jdarith.c **** 	    st += 1;
 621:fltk-1.3.4-1/jpeg/jdarith.c **** 	  }
 622:fltk-1.3.4-1/jpeg/jdarith.c **** 	}
 623:fltk-1.3.4-1/jpeg/jdarith.c ****       }
 624:fltk-1.3.4-1/jpeg/jdarith.c ****       v = m;
 625:fltk-1.3.4-1/jpeg/jdarith.c ****       /* Figure F.24: Decoding the magnitude bit pattern of v */
 626:fltk-1.3.4-1/jpeg/jdarith.c ****       st += 14;
 627:fltk-1.3.4-1/jpeg/jdarith.c ****       while (m >>= 1)
 628:fltk-1.3.4-1/jpeg/jdarith.c **** 	if (arith_decode(cinfo, st)) v |= m;
 629:fltk-1.3.4-1/jpeg/jdarith.c ****       v += 1; if (sign) v = -v;
 630:fltk-1.3.4-1/jpeg/jdarith.c ****       (*block)[natural_order[k]] = (JCOEF) v;
 631:fltk-1.3.4-1/jpeg/jdarith.c ****     } while (k < cinfo->lim_Se);
 632:fltk-1.3.4-1/jpeg/jdarith.c ****   }
 633:fltk-1.3.4-1/jpeg/jdarith.c **** 
 634:fltk-1.3.4-1/jpeg/jdarith.c ****   return TRUE;
 635:fltk-1.3.4-1/jpeg/jdarith.c **** }
 636:fltk-1.3.4-1/jpeg/jdarith.c **** 
 637:fltk-1.3.4-1/jpeg/jdarith.c **** 
 638:fltk-1.3.4-1/jpeg/jdarith.c **** /*
 639:fltk-1.3.4-1/jpeg/jdarith.c ****  * Initialize for an arithmetic-compressed scan.
 640:fltk-1.3.4-1/jpeg/jdarith.c ****  */
 641:fltk-1.3.4-1/jpeg/jdarith.c **** 
 642:fltk-1.3.4-1/jpeg/jdarith.c **** METHODDEF(void)
 643:fltk-1.3.4-1/jpeg/jdarith.c **** start_pass (j_decompress_ptr cinfo)
 644:fltk-1.3.4-1/jpeg/jdarith.c **** {
 645:fltk-1.3.4-1/jpeg/jdarith.c ****   arith_entropy_ptr entropy = (arith_entropy_ptr) cinfo->entropy;
 646:fltk-1.3.4-1/jpeg/jdarith.c ****   int ci, tbl;
 647:fltk-1.3.4-1/jpeg/jdarith.c ****   jpeg_component_info * compptr;
 648:fltk-1.3.4-1/jpeg/jdarith.c **** 
 649:fltk-1.3.4-1/jpeg/jdarith.c ****   if (cinfo->progressive_mode) {
 650:fltk-1.3.4-1/jpeg/jdarith.c ****     /* Validate progressive scan parameters */
 651:fltk-1.3.4-1/jpeg/jdarith.c ****     if (cinfo->Ss == 0) {
 652:fltk-1.3.4-1/jpeg/jdarith.c ****       if (cinfo->Se != 0)
 653:fltk-1.3.4-1/jpeg/jdarith.c **** 	goto bad;
 654:fltk-1.3.4-1/jpeg/jdarith.c ****     } else {
 655:fltk-1.3.4-1/jpeg/jdarith.c ****       /* need not check Ss/Se < 0 since they came from unsigned bytes */
 656:fltk-1.3.4-1/jpeg/jdarith.c ****       if (cinfo->Se < cinfo->Ss || cinfo->Se > cinfo->lim_Se)
 657:fltk-1.3.4-1/jpeg/jdarith.c **** 	goto bad;
 658:fltk-1.3.4-1/jpeg/jdarith.c ****       /* AC scans may have only one component */
 659:fltk-1.3.4-1/jpeg/jdarith.c ****       if (cinfo->comps_in_scan != 1)
 660:fltk-1.3.4-1/jpeg/jdarith.c **** 	goto bad;
 661:fltk-1.3.4-1/jpeg/jdarith.c ****     }
 662:fltk-1.3.4-1/jpeg/jdarith.c ****     if (cinfo->Ah != 0) {
 663:fltk-1.3.4-1/jpeg/jdarith.c ****       /* Successive approximation refinement scan: must have Al = Ah-1. */
 664:fltk-1.3.4-1/jpeg/jdarith.c ****       if (cinfo->Ah-1 != cinfo->Al)
 665:fltk-1.3.4-1/jpeg/jdarith.c **** 	goto bad;
 666:fltk-1.3.4-1/jpeg/jdarith.c ****     }
 667:fltk-1.3.4-1/jpeg/jdarith.c ****     if (cinfo->Al > 13) {	/* need not check for < 0 */
 668:fltk-1.3.4-1/jpeg/jdarith.c ****       bad:
 669:fltk-1.3.4-1/jpeg/jdarith.c ****       ERREXIT4(cinfo, JERR_BAD_PROGRESSION,
 670:fltk-1.3.4-1/jpeg/jdarith.c **** 	       cinfo->Ss, cinfo->Se, cinfo->Ah, cinfo->Al);
 671:fltk-1.3.4-1/jpeg/jdarith.c ****     }
 672:fltk-1.3.4-1/jpeg/jdarith.c ****     /* Update progression status, and verify that scan order is legal.
 673:fltk-1.3.4-1/jpeg/jdarith.c ****      * Note that inter-scan inconsistencies are treated as warnings
 674:fltk-1.3.4-1/jpeg/jdarith.c ****      * not fatal errors ... not clear if this is right way to behave.
 675:fltk-1.3.4-1/jpeg/jdarith.c ****      */
 676:fltk-1.3.4-1/jpeg/jdarith.c ****     for (ci = 0; ci < cinfo->comps_in_scan; ci++) {
 677:fltk-1.3.4-1/jpeg/jdarith.c ****       int coefi, cindex = cinfo->cur_comp_info[ci]->component_index;
 678:fltk-1.3.4-1/jpeg/jdarith.c ****       int *coef_bit_ptr = & cinfo->coef_bits[cindex][0];
 679:fltk-1.3.4-1/jpeg/jdarith.c ****       if (cinfo->Ss && coef_bit_ptr[0] < 0) /* AC without prior DC scan */
 680:fltk-1.3.4-1/jpeg/jdarith.c **** 	WARNMS2(cinfo, JWRN_BOGUS_PROGRESSION, cindex, 0);
 681:fltk-1.3.4-1/jpeg/jdarith.c ****       for (coefi = cinfo->Ss; coefi <= cinfo->Se; coefi++) {
 682:fltk-1.3.4-1/jpeg/jdarith.c **** 	int expected = (coef_bit_ptr[coefi] < 0) ? 0 : coef_bit_ptr[coefi];
 683:fltk-1.3.4-1/jpeg/jdarith.c **** 	if (cinfo->Ah != expected)
 684:fltk-1.3.4-1/jpeg/jdarith.c **** 	  WARNMS2(cinfo, JWRN_BOGUS_PROGRESSION, cindex, coefi);
 685:fltk-1.3.4-1/jpeg/jdarith.c **** 	coef_bit_ptr[coefi] = cinfo->Al;
 686:fltk-1.3.4-1/jpeg/jdarith.c ****       }
 687:fltk-1.3.4-1/jpeg/jdarith.c ****     }
 688:fltk-1.3.4-1/jpeg/jdarith.c ****     /* Select MCU decoding routine */
 689:fltk-1.3.4-1/jpeg/jdarith.c ****     if (cinfo->Ah == 0) {
 690:fltk-1.3.4-1/jpeg/jdarith.c ****       if (cinfo->Ss == 0)
 691:fltk-1.3.4-1/jpeg/jdarith.c **** 	entropy->pub.decode_mcu = decode_mcu_DC_first;
 692:fltk-1.3.4-1/jpeg/jdarith.c ****       else
 693:fltk-1.3.4-1/jpeg/jdarith.c **** 	entropy->pub.decode_mcu = decode_mcu_AC_first;
 694:fltk-1.3.4-1/jpeg/jdarith.c ****     } else {
 695:fltk-1.3.4-1/jpeg/jdarith.c ****       if (cinfo->Ss == 0)
 696:fltk-1.3.4-1/jpeg/jdarith.c **** 	entropy->pub.decode_mcu = decode_mcu_DC_refine;
 697:fltk-1.3.4-1/jpeg/jdarith.c ****       else
 698:fltk-1.3.4-1/jpeg/jdarith.c **** 	entropy->pub.decode_mcu = decode_mcu_AC_refine;
 699:fltk-1.3.4-1/jpeg/jdarith.c ****     }
 700:fltk-1.3.4-1/jpeg/jdarith.c ****   } else {
 701:fltk-1.3.4-1/jpeg/jdarith.c ****     /* Check that the scan parameters Ss, Se, Ah/Al are OK for sequential JPEG.
 702:fltk-1.3.4-1/jpeg/jdarith.c ****      * This ought to be an error condition, but we make it a warning.
 703:fltk-1.3.4-1/jpeg/jdarith.c ****      */
 704:fltk-1.3.4-1/jpeg/jdarith.c ****     if (cinfo->Ss != 0 || cinfo->Ah != 0 || cinfo->Al != 0 ||
 705:fltk-1.3.4-1/jpeg/jdarith.c **** 	(cinfo->Se < DCTSIZE2 && cinfo->Se != cinfo->lim_Se))
 706:fltk-1.3.4-1/jpeg/jdarith.c ****       WARNMS(cinfo, JWRN_NOT_SEQUENTIAL);
 707:fltk-1.3.4-1/jpeg/jdarith.c ****     /* Select MCU decoding routine */
 708:fltk-1.3.4-1/jpeg/jdarith.c ****     entropy->pub.decode_mcu = decode_mcu;
 709:fltk-1.3.4-1/jpeg/jdarith.c ****   }
 710:fltk-1.3.4-1/jpeg/jdarith.c **** 
 711:fltk-1.3.4-1/jpeg/jdarith.c ****   /* Allocate & initialize requested statistics areas */
 712:fltk-1.3.4-1/jpeg/jdarith.c ****   for (ci = 0; ci < cinfo->comps_in_scan; ci++) {
 713:fltk-1.3.4-1/jpeg/jdarith.c ****     compptr = cinfo->cur_comp_info[ci];
 714:fltk-1.3.4-1/jpeg/jdarith.c ****     if (! cinfo->progressive_mode || (cinfo->Ss == 0 && cinfo->Ah == 0)) {
 715:fltk-1.3.4-1/jpeg/jdarith.c ****       tbl = compptr->dc_tbl_no;
 716:fltk-1.3.4-1/jpeg/jdarith.c ****       if (tbl < 0 || tbl >= NUM_ARITH_TBLS)
 717:fltk-1.3.4-1/jpeg/jdarith.c **** 	ERREXIT1(cinfo, JERR_NO_ARITH_TABLE, tbl);
 718:fltk-1.3.4-1/jpeg/jdarith.c ****       if (entropy->dc_stats[tbl] == NULL)
 719:fltk-1.3.4-1/jpeg/jdarith.c **** 	entropy->dc_stats[tbl] = (unsigned char *) (*cinfo->mem->alloc_small)
 720:fltk-1.3.4-1/jpeg/jdarith.c **** 	  ((j_common_ptr) cinfo, JPOOL_IMAGE, DC_STAT_BINS);
 721:fltk-1.3.4-1/jpeg/jdarith.c ****       MEMZERO(entropy->dc_stats[tbl], DC_STAT_BINS);
 722:fltk-1.3.4-1/jpeg/jdarith.c ****       /* Initialize DC predictions to 0 */
 723:fltk-1.3.4-1/jpeg/jdarith.c ****       entropy->last_dc_val[ci] = 0;
 724:fltk-1.3.4-1/jpeg/jdarith.c ****       entropy->dc_context[ci] = 0;
 725:fltk-1.3.4-1/jpeg/jdarith.c ****     }
 726:fltk-1.3.4-1/jpeg/jdarith.c ****     if ((! cinfo->progressive_mode && cinfo->lim_Se) ||
 727:fltk-1.3.4-1/jpeg/jdarith.c **** 	(cinfo->progressive_mode && cinfo->Ss)) {
 728:fltk-1.3.4-1/jpeg/jdarith.c ****       tbl = compptr->ac_tbl_no;
 729:fltk-1.3.4-1/jpeg/jdarith.c ****       if (tbl < 0 || tbl >= NUM_ARITH_TBLS)
 730:fltk-1.3.4-1/jpeg/jdarith.c **** 	ERREXIT1(cinfo, JERR_NO_ARITH_TABLE, tbl);
 731:fltk-1.3.4-1/jpeg/jdarith.c ****       if (entropy->ac_stats[tbl] == NULL)
 732:fltk-1.3.4-1/jpeg/jdarith.c **** 	entropy->ac_stats[tbl] = (unsigned char *) (*cinfo->mem->alloc_small)
 733:fltk-1.3.4-1/jpeg/jdarith.c **** 	  ((j_common_ptr) cinfo, JPOOL_IMAGE, AC_STAT_BINS);
 734:fltk-1.3.4-1/jpeg/jdarith.c ****       MEMZERO(entropy->ac_stats[tbl], AC_STAT_BINS);
 735:fltk-1.3.4-1/jpeg/jdarith.c ****     }
 736:fltk-1.3.4-1/jpeg/jdarith.c ****   }
 737:fltk-1.3.4-1/jpeg/jdarith.c **** 
 738:fltk-1.3.4-1/jpeg/jdarith.c ****   /* Initialize arithmetic decoding variables */
 739:fltk-1.3.4-1/jpeg/jdarith.c ****   entropy->c = 0;
 740:fltk-1.3.4-1/jpeg/jdarith.c ****   entropy->a = 0;
 741:fltk-1.3.4-1/jpeg/jdarith.c ****   entropy->ct = -16;	/* force reading 2 initial bytes to fill C */
 742:fltk-1.3.4-1/jpeg/jdarith.c **** 
 743:fltk-1.3.4-1/jpeg/jdarith.c ****   /* Initialize restart counter */
 744:fltk-1.3.4-1/jpeg/jdarith.c ****   entropy->restarts_to_go = cinfo->restart_interval;
 745:fltk-1.3.4-1/jpeg/jdarith.c **** }
 746:fltk-1.3.4-1/jpeg/jdarith.c **** 
 747:fltk-1.3.4-1/jpeg/jdarith.c **** 
 748:fltk-1.3.4-1/jpeg/jdarith.c **** /*
 749:fltk-1.3.4-1/jpeg/jdarith.c ****  * Finish up at the end of an arithmetic-compressed scan.
 750:fltk-1.3.4-1/jpeg/jdarith.c ****  */
 751:fltk-1.3.4-1/jpeg/jdarith.c **** 
 752:fltk-1.3.4-1/jpeg/jdarith.c **** METHODDEF(void)
 753:fltk-1.3.4-1/jpeg/jdarith.c **** finish_pass (j_decompress_ptr cinfo)
 754:fltk-1.3.4-1/jpeg/jdarith.c **** {
 366              		.loc 1 754 1 is_stmt 1 view -0
 367              		.cfi_startproc
 368              		.loc 1 754 1 is_stmt 0 view .LVU119
 369 0000 F30F1EFA 		endbr64
 755:fltk-1.3.4-1/jpeg/jdarith.c ****   /* no work necessary here */
 756:fltk-1.3.4-1/jpeg/jdarith.c **** }
 370              		.loc 1 756 1 is_stmt 1 view .LVU120
 371 0004 C3       		ret
 372              		.cfi_endproc
 373              	.LFE60:
 375              		.section	.text.process_restart,"ax",@progbits
 376              		.p2align 4
 378              	process_restart:
 379              	.LVL32:
 380              	.LFB53:
 191:fltk-1.3.4-1/jpeg/jdarith.c ****   arith_entropy_ptr entropy = (arith_entropy_ptr) cinfo->entropy;
 381              		.loc 1 191 1 view -0
 382              		.cfi_startproc
 192:fltk-1.3.4-1/jpeg/jdarith.c ****   int ci;
 383              		.loc 1 192 3 view .LVU122
 191:fltk-1.3.4-1/jpeg/jdarith.c ****   arith_entropy_ptr entropy = (arith_entropy_ptr) cinfo->entropy;
 384              		.loc 1 191 1 is_stmt 0 view .LVU123
 385 0000 55       		pushq	%rbp
 386              		.cfi_def_cfa_offset 16
 387              		.cfi_offset 6, -16
 388 0001 53       		pushq	%rbx
 389              		.cfi_def_cfa_offset 24
 390              		.cfi_offset 3, -24
 391 0002 4889FB   		movq	%rdi, %rbx
 392 0005 4883EC08 		subq	$8, %rsp
 393              		.cfi_def_cfa_offset 32
 197:fltk-1.3.4-1/jpeg/jdarith.c ****     ERREXIT(cinfo, JERR_CANT_SUSPEND);
 394              		.loc 1 197 10 view .LVU124
 395 0009 488B8768 		movq	616(%rdi), %rax
 395      020000
 192:fltk-1.3.4-1/jpeg/jdarith.c ****   int ci;
 396              		.loc 1 192 21 view .LVU125
 397 0010 488BAF70 		movq	624(%rdi), %rbp
 397      020000
 398              	.LVL33:
 193:fltk-1.3.4-1/jpeg/jdarith.c ****   jpeg_component_info * compptr;
 399              		.loc 1 193 3 is_stmt 1 view .LVU126
 194:fltk-1.3.4-1/jpeg/jdarith.c **** 
 400              		.loc 1 194 3 view .LVU127
 197:fltk-1.3.4-1/jpeg/jdarith.c ****     ERREXIT(cinfo, JERR_CANT_SUSPEND);
 401              		.loc 1 197 3 view .LVU128
 197:fltk-1.3.4-1/jpeg/jdarith.c ****     ERREXIT(cinfo, JERR_CANT_SUSPEND);
 402              		.loc 1 197 10 is_stmt 0 view .LVU129
 403 0017 FF5010   		call	*16(%rax)
 404              	.LVL34:
 197:fltk-1.3.4-1/jpeg/jdarith.c ****     ERREXIT(cinfo, JERR_CANT_SUSPEND);
 405              		.loc 1 197 6 view .LVU130
 406 001a 85C0     		testl	%eax, %eax
 407 001c 7512     		jne	.L33
 198:fltk-1.3.4-1/jpeg/jdarith.c **** 
 408              		.loc 1 198 5 is_stmt 1 view .LVU131
 409 001e 488B03   		movq	(%rbx), %rax
 410 0021 4889DF   		movq	%rbx, %rdi
 411 0024 C7402819 		movl	$25, 40(%rax)
 411      000000
 412 002b 488B03   		movq	(%rbx), %rax
 413 002e FF10     		call	*(%rax)
 414              	.LVL35:
 415              	.L33:
 201:fltk-1.3.4-1/jpeg/jdarith.c ****     compptr = cinfo->cur_comp_info[ci];
 416              		.loc 1 201 16 discriminator 1 view .LVU132
 201:fltk-1.3.4-1/jpeg/jdarith.c ****     compptr = cinfo->cur_comp_info[ci];
 417              		.loc 1 201 3 is_stmt 0 discriminator 1 view .LVU133
 418 0030 8B8BC001 		movl	448(%rbx), %ecx
 418      0000
 419 0036 31D2     		xorl	%edx, %edx
 420              	.LBB12:
 421              	.LBB13:
 422              		.file 2 "/usr/include/x86_64-linux-gnu/bits/string_fortified.h"
   1:/usr/include/x86_64-linux-gnu/bits/string_fortified.h **** /* Copyright (C) 2004-2020 Free Software Foundation, Inc.
   2:/usr/include/x86_64-linux-gnu/bits/string_fortified.h ****    This file is part of the GNU C Library.
   3:/usr/include/x86_64-linux-gnu/bits/string_fortified.h **** 
   4:/usr/include/x86_64-linux-gnu/bits/string_fortified.h ****    The GNU C Library is free software; you can redistribute it and/or
   5:/usr/include/x86_64-linux-gnu/bits/string_fortified.h ****    modify it under the terms of the GNU Lesser General Public
   6:/usr/include/x86_64-linux-gnu/bits/string_fortified.h ****    License as published by the Free Software Foundation; either
   7:/usr/include/x86_64-linux-gnu/bits/string_fortified.h ****    version 2.1 of the License, or (at your option) any later version.
   8:/usr/include/x86_64-linux-gnu/bits/string_fortified.h **** 
   9:/usr/include/x86_64-linux-gnu/bits/string_fortified.h ****    The GNU C Library is distributed in the hope that it will be useful,
  10:/usr/include/x86_64-linux-gnu/bits/string_fortified.h ****    but WITHOUT ANY WARRANTY; without even the implied warranty of
  11:/usr/include/x86_64-linux-gnu/bits/string_fortified.h ****    MERCHANTABILITY or FITNESS FOR A PARTICULAR PURPOSE.  See the GNU
  12:/usr/include/x86_64-linux-gnu/bits/string_fortified.h ****    Lesser General Public License for more details.
  13:/usr/include/x86_64-linux-gnu/bits/string_fortified.h **** 
  14:/usr/include/x86_64-linux-gnu/bits/string_fortified.h ****    You should have received a copy of the GNU Lesser General Public
  15:/usr/include/x86_64-linux-gnu/bits/string_fortified.h ****    License along with the GNU C Library; if not, see
  16:/usr/include/x86_64-linux-gnu/bits/string_fortified.h ****    <https://www.gnu.org/licenses/>.  */
  17:/usr/include/x86_64-linux-gnu/bits/string_fortified.h **** 
  18:/usr/include/x86_64-linux-gnu/bits/string_fortified.h **** #ifndef _BITS_STRING_FORTIFIED_H
  19:/usr/include/x86_64-linux-gnu/bits/string_fortified.h **** #define _BITS_STRING_FORTIFIED_H 1
  20:/usr/include/x86_64-linux-gnu/bits/string_fortified.h **** 
  21:/usr/include/x86_64-linux-gnu/bits/string_fortified.h **** #ifndef _STRING_H
  22:/usr/include/x86_64-linux-gnu/bits/string_fortified.h **** # error "Never use <bits/string_fortified.h> directly; include <string.h> instead."
  23:/usr/include/x86_64-linux-gnu/bits/string_fortified.h **** #endif
  24:/usr/include/x86_64-linux-gnu/bits/string_fortified.h **** 
  25:/usr/include/x86_64-linux-gnu/bits/string_fortified.h **** #if !__GNUC_PREREQ (5,0)
  26:/usr/include/x86_64-linux-gnu/bits/string_fortified.h **** __warndecl (__warn_memset_zero_len,
  27:/usr/include/x86_64-linux-gnu/bits/string_fortified.h **** 	    "memset used with constant zero length parameter; this could be due to transposed parameters")
  28:/usr/include/x86_64-linux-gnu/bits/string_fortified.h **** #endif
  29:/usr/include/x86_64-linux-gnu/bits/string_fortified.h **** 
  30:/usr/include/x86_64-linux-gnu/bits/string_fortified.h **** __fortify_function void *
  31:/usr/include/x86_64-linux-gnu/bits/string_fortified.h **** __NTH (memcpy (void *__restrict __dest, const void *__restrict __src,
  32:/usr/include/x86_64-linux-gnu/bits/string_fortified.h **** 	       size_t __len))
  33:/usr/include/x86_64-linux-gnu/bits/string_fortified.h **** {
  34:/usr/include/x86_64-linux-gnu/bits/string_fortified.h ****   return __builtin___memcpy_chk (__dest, __src, __len, __bos0 (__dest));
  35:/usr/include/x86_64-linux-gnu/bits/string_fortified.h **** }
  36:/usr/include/x86_64-linux-gnu/bits/string_fortified.h **** 
  37:/usr/include/x86_64-linux-gnu/bits/string_fortified.h **** __fortify_function void *
  38:/usr/include/x86_64-linux-gnu/bits/string_fortified.h **** __NTH (memmove (void *__dest, const void *__src, size_t __len))
  39:/usr/include/x86_64-linux-gnu/bits/string_fortified.h **** {
  40:/usr/include/x86_64-linux-gnu/bits/string_fortified.h ****   return __builtin___memmove_chk (__dest, __src, __len, __bos0 (__dest));
  41:/usr/include/x86_64-linux-gnu/bits/string_fortified.h **** }
  42:/usr/include/x86_64-linux-gnu/bits/string_fortified.h **** 
  43:/usr/include/x86_64-linux-gnu/bits/string_fortified.h **** #ifdef __USE_GNU
  44:/usr/include/x86_64-linux-gnu/bits/string_fortified.h **** __fortify_function void *
  45:/usr/include/x86_64-linux-gnu/bits/string_fortified.h **** __NTH (mempcpy (void *__restrict __dest, const void *__restrict __src,
  46:/usr/include/x86_64-linux-gnu/bits/string_fortified.h **** 		size_t __len))
  47:/usr/include/x86_64-linux-gnu/bits/string_fortified.h **** {
  48:/usr/include/x86_64-linux-gnu/bits/string_fortified.h ****   return __builtin___mempcpy_chk (__dest, __src, __len, __bos0 (__dest));
  49:/usr/include/x86_64-linux-gnu/bits/string_fortified.h **** }
  50:/usr/include/x86_64-linux-gnu/bits/string_fortified.h **** #endif
  51:/usr/include/x86_64-linux-gnu/bits/string_fortified.h **** 
  52:/usr/include/x86_64-linux-gnu/bits/string_fortified.h **** 
  53:/usr/include/x86_64-linux-gnu/bits/string_fortified.h **** /* The first two tests here help to catch a somewhat common problem
  54:/usr/include/x86_64-linux-gnu/bits/string_fortified.h ****    where the second and third parameter are transposed.  This is
  55:/usr/include/x86_64-linux-gnu/bits/string_fortified.h ****    especially problematic if the intended fill value is zero.  In this
  56:/usr/include/x86_64-linux-gnu/bits/string_fortified.h ****    case no work is done at all.  We detect these problems by referring
  57:/usr/include/x86_64-linux-gnu/bits/string_fortified.h ****    non-existing functions.  */
  58:/usr/include/x86_64-linux-gnu/bits/string_fortified.h **** __fortify_function void *
  59:/usr/include/x86_64-linux-gnu/bits/string_fortified.h **** __NTH (memset (void *__dest, int __ch, size_t __len))
  60:/usr/include/x86_64-linux-gnu/bits/string_fortified.h **** {
  61:/usr/include/x86_64-linux-gnu/bits/string_fortified.h ****   /* GCC-5.0 and newer implements these checks in the compiler, so we don't
  62:/usr/include/x86_64-linux-gnu/bits/string_fortified.h ****      need them here.  */
  63:/usr/include/x86_64-linux-gnu/bits/string_fortified.h **** #if !__GNUC_PREREQ (5,0)
  64:/usr/include/x86_64-linux-gnu/bits/string_fortified.h ****   if (__builtin_constant_p (__len) && __len == 0
  65:/usr/include/x86_64-linux-gnu/bits/string_fortified.h ****       && (!__builtin_constant_p (__ch) || __ch != 0))
  66:/usr/include/x86_64-linux-gnu/bits/string_fortified.h ****     {
  67:/usr/include/x86_64-linux-gnu/bits/string_fortified.h ****       __warn_memset_zero_len ();
  68:/usr/include/x86_64-linux-gnu/bits/string_fortified.h ****       return __dest;
  69:/usr/include/x86_64-linux-gnu/bits/string_fortified.h ****     }
  70:/usr/include/x86_64-linux-gnu/bits/string_fortified.h **** #endif
  71:/usr/include/x86_64-linux-gnu/bits/string_fortified.h ****   return __builtin___memset_chk (__dest, __ch, __len, __bos0 (__dest));
 423              		.loc 2 71 10 discriminator 1 view .LVU134
 424 0038 31C0     		xorl	%eax, %eax
 425              	.LBE13:
 426              	.LBE12:
 201:fltk-1.3.4-1/jpeg/jdarith.c ****     compptr = cinfo->cur_comp_info[ci];
 427              		.loc 1 201 3 discriminator 1 view .LVU135
 428 003a 85C9     		testl	%ecx, %ecx
 429 003c 0F8EB900 		jle	.L40
 429      0000
 430              	.LVL36:
 431              		.p2align 4,,10
 432 0042 660F1F44 		.p2align 3
 432      0000
 433              	.L34:
 202:fltk-1.3.4-1/jpeg/jdarith.c ****     if (! cinfo->progressive_mode || (cinfo->Ss == 0 && cinfo->Ah == 0)) {
 434              		.loc 1 202 5 is_stmt 1 view .LVU136
 203:fltk-1.3.4-1/jpeg/jdarith.c ****       MEMZERO(entropy->dc_stats[compptr->dc_tbl_no], DC_STAT_BINS);
 435              		.loc 1 203 8 is_stmt 0 view .LVU137
 436 0048 448B9B3C 		movl	316(%rbx), %r11d
 436      010000
 202:fltk-1.3.4-1/jpeg/jdarith.c ****     if (! cinfo->progressive_mode || (cinfo->Ss == 0 && cinfo->Ah == 0)) {
 437              		.loc 1 202 13 view .LVU138
 438 004f 488BB4D3 		movq	456(%rbx,%rdx,8), %rsi
 438      C8010000 
 439              	.LVL37:
 203:fltk-1.3.4-1/jpeg/jdarith.c ****       MEMZERO(entropy->dc_stats[compptr->dc_tbl_no], DC_STAT_BINS);
 440              		.loc 1 203 5 is_stmt 1 view .LVU139
 203:fltk-1.3.4-1/jpeg/jdarith.c ****       MEMZERO(entropy->dc_stats[compptr->dc_tbl_no], DC_STAT_BINS);
 441              		.loc 1 203 8 is_stmt 0 view .LVU140
 442 0057 4585DB   		testl	%r11d, %r11d
 443 005a 7418     		je	.L35
 203:fltk-1.3.4-1/jpeg/jdarith.c ****       MEMZERO(entropy->dc_stats[compptr->dc_tbl_no], DC_STAT_BINS);
 444              		.loc 1 203 35 discriminator 1 view .LVU141
 445 005c 448B931C 		movl	540(%rbx), %r10d
 445      020000
 446 0063 4585D2   		testl	%r10d, %r10d
 447 0066 754E     		jne	.L36
 203:fltk-1.3.4-1/jpeg/jdarith.c ****       MEMZERO(entropy->dc_stats[compptr->dc_tbl_no], DC_STAT_BINS);
 448              		.loc 1 203 54 discriminator 2 view .LVU142
 449 0068 448B8B24 		movl	548(%rbx), %r9d
 449      020000
 450 006f 4585C9   		testl	%r9d, %r9d
 451 0072 7577     		jne	.L39
 452              	.L35:
 204:fltk-1.3.4-1/jpeg/jdarith.c ****       /* Reset DC predictions to 0 */
 453              		.loc 1 204 7 is_stmt 1 view .LVU143
 454              	.LVL38:
 455              	.LBB16:
 456              	.LBI16:
  59:/usr/include/x86_64-linux-gnu/bits/string_fortified.h **** {
 457              		.loc 2 59 1 view .LVU144
 458              	.LBB17:
 459              		.loc 2 71 3 view .LVU145
 460              	.LBE17:
 461              	.LBE16:
 204:fltk-1.3.4-1/jpeg/jdarith.c ****       /* Reset DC predictions to 0 */
 462              		.loc 1 204 7 is_stmt 0 view .LVU146
 463 0074 48634E14 		movslq	20(%rsi), %rcx
 464              	.LVL39:
 465              	.LBB19:
 466              	.LBB18:
 467              		.loc 2 71 10 view .LVU147
 468 0078 660FEFC0 		pxor	%xmm0, %xmm0
 469 007c 488B4CCD 		movq	80(%rbp,%rcx,8), %rcx
 469      50
 470              	.LVL40:
 471              		.loc 2 71 10 view .LVU148
 472 0081 0F1101   		movups	%xmm0, (%rcx)
 473              	.LVL41:
 474              		.loc 2 71 10 view .LVU149
 475 0084 0F114110 		movups	%xmm0, 16(%rcx)
 476 0088 0F114120 		movups	%xmm0, 32(%rcx)
 477 008c 0F114130 		movups	%xmm0, 48(%rcx)
 478              	.LVL42:
 479              		.loc 2 71 10 view .LVU150
 480              	.LBE18:
 481              	.LBE19:
 206:fltk-1.3.4-1/jpeg/jdarith.c ****       entropy->dc_context[ci] = 0;
 482              		.loc 1 206 7 is_stmt 1 view .LVU151
 206:fltk-1.3.4-1/jpeg/jdarith.c ****       entropy->dc_context[ci] = 0;
 483              		.loc 1 206 32 is_stmt 0 view .LVU152
 484 0090 C744952C 		movl	$0, 44(%rbp,%rdx,4)
 484      00000000 
 207:fltk-1.3.4-1/jpeg/jdarith.c ****     }
 485              		.loc 1 207 7 is_stmt 1 view .LVU153
 207:fltk-1.3.4-1/jpeg/jdarith.c ****     }
 486              		.loc 1 207 31 is_stmt 0 view .LVU154
 487 0098 C744953C 		movl	$0, 60(%rbp,%rdx,4)
 487      00000000 
 209:fltk-1.3.4-1/jpeg/jdarith.c **** 	(cinfo->progressive_mode && cinfo->Ss)) {
 488              		.loc 1 209 5 is_stmt 1 view .LVU155
 209:fltk-1.3.4-1/jpeg/jdarith.c **** 	(cinfo->progressive_mode && cinfo->Ss)) {
 489              		.loc 1 209 8 is_stmt 0 view .LVU156
 490 00a0 448B833C 		movl	316(%rbx), %r8d
 490      010000
 491 00a7 4585C0   		testl	%r8d, %r8d
 492 00aa 7576     		jne	.L46
 209:fltk-1.3.4-1/jpeg/jdarith.c **** 	(cinfo->progressive_mode && cinfo->Ss)) {
 493              		.loc 1 209 36 discriminator 1 view .LVU157
 494 00ac 8B8B3802 		movl	568(%rbx), %ecx
 494      0000
 495 00b2 85C9     		testl	%ecx, %ecx
 496 00b4 7435     		je	.L39
 497              	.L36:
 211:fltk-1.3.4-1/jpeg/jdarith.c ****     }
 498              		.loc 1 211 7 is_stmt 1 view .LVU158
 499              	.LVL43:
 500              	.LBB20:
 501              	.LBI12:
  59:/usr/include/x86_64-linux-gnu/bits/string_fortified.h **** {
 502              		.loc 2 59 1 view .LVU159
 503              	.LBB14:
 504              		.loc 2 71 3 view .LVU160
 505              	.LBE14:
 506              	.LBE20:
 211:fltk-1.3.4-1/jpeg/jdarith.c ****     }
 507              		.loc 1 211 7 is_stmt 0 view .LVU161
 508 00b6 48634E18 		movslq	24(%rsi), %rcx
 509              	.LVL44:
 510              	.LBB21:
 511              	.LBB15:
 512              		.loc 2 71 10 view .LVU162
 513 00ba 488B8CCD 		movq	208(%rbp,%rcx,8), %rcx
 513      D0000000 
 514              	.LVL45:
 515              		.loc 2 71 10 view .LVU163
 516 00c2 488D7908 		leaq	8(%rcx), %rdi
 517 00c6 48C70100 		movq	$0, (%rcx)
 517      000000
 518              	.LVL46:
 519              		.loc 2 71 10 view .LVU164
 520 00cd 48C781F8 		movq	$0, 248(%rcx)
 520      00000000 
 520      000000
 521 00d8 4883E7F8 		andq	$-8, %rdi
 522 00dc 4829F9   		subq	%rdi, %rcx
 523 00df 81C10001 		addl	$256, %ecx
 523      0000
 524 00e5 C1E903   		shrl	$3, %ecx
 525 00e8 F348AB   		rep stosq
 526              	.LVL47:
 527              	.L39:
 528              		.loc 2 71 10 view .LVU165
 529              	.LBE15:
 530              	.LBE21:
 201:fltk-1.3.4-1/jpeg/jdarith.c ****     compptr = cinfo->cur_comp_info[ci];
 531              		.loc 1 201 43 is_stmt 1 discriminator 2 view .LVU166
 201:fltk-1.3.4-1/jpeg/jdarith.c ****     compptr = cinfo->cur_comp_info[ci];
 532              		.loc 1 201 16 discriminator 2 view .LVU167
 533 00eb 4883C201 		addq	$1, %rdx
 534              	.LVL48:
 201:fltk-1.3.4-1/jpeg/jdarith.c ****     compptr = cinfo->cur_comp_info[ci];
 535              		.loc 1 201 3 is_stmt 0 discriminator 2 view .LVU168
 536 00ef 3993C001 		cmpl	%edx, 448(%rbx)
 536      0000
 537 00f5 0F8F4DFF 		jg	.L34
 537      FFFF
 538              	.LVL49:
 539              	.L40:
 216:fltk-1.3.4-1/jpeg/jdarith.c ****   entropy->a = 0;
 540              		.loc 1 216 3 is_stmt 1 view .LVU169
 216:fltk-1.3.4-1/jpeg/jdarith.c ****   entropy->a = 0;
 541              		.loc 1 216 14 is_stmt 0 view .LVU170
 542 00fb 48C74518 		movq	$0, 24(%rbp)
 542      00000000 
 217:fltk-1.3.4-1/jpeg/jdarith.c ****   entropy->ct = -16;	/* force reading 2 initial bytes to fill C */
 543              		.loc 1 217 3 is_stmt 1 view .LVU171
 217:fltk-1.3.4-1/jpeg/jdarith.c ****   entropy->ct = -16;	/* force reading 2 initial bytes to fill C */
 544              		.loc 1 217 14 is_stmt 0 view .LVU172
 545 0103 48C74520 		movq	$0, 32(%rbp)
 545      00000000 
 218:fltk-1.3.4-1/jpeg/jdarith.c **** 
 546              		.loc 1 218 3 is_stmt 1 view .LVU173
 218:fltk-1.3.4-1/jpeg/jdarith.c **** 
 547              		.loc 1 218 15 is_stmt 0 view .LVU174
 548 010b C74528F0 		movl	$-16, 40(%rbp)
 548      FFFFFF
 221:fltk-1.3.4-1/jpeg/jdarith.c **** }
 549              		.loc 1 221 3 is_stmt 1 view .LVU175
 221:fltk-1.3.4-1/jpeg/jdarith.c **** }
 550              		.loc 1 221 34 is_stmt 0 view .LVU176
 551 0112 8B837401 		movl	372(%rbx), %eax
 551      0000
 221:fltk-1.3.4-1/jpeg/jdarith.c **** }
 552              		.loc 1 221 27 view .LVU177
 553 0118 89454C   		movl	%eax, 76(%rbp)
 222:fltk-1.3.4-1/jpeg/jdarith.c **** 
 554              		.loc 1 222 1 view .LVU178
 555 011b 4883C408 		addq	$8, %rsp
 556              		.cfi_remember_state
 557              		.cfi_def_cfa_offset 24
 558 011f 5B       		popq	%rbx
 559              		.cfi_def_cfa_offset 16
 560              	.LVL50:
 222:fltk-1.3.4-1/jpeg/jdarith.c **** 
 561              		.loc 1 222 1 view .LVU179
 562 0120 5D       		popq	%rbp
 563              		.cfi_def_cfa_offset 8
 564              	.LVL51:
 222:fltk-1.3.4-1/jpeg/jdarith.c **** 
 565              		.loc 1 222 1 view .LVU180
 566 0121 C3       		ret
 567              	.LVL52:
 568              	.L46:
 569              		.cfi_restore_state
 210:fltk-1.3.4-1/jpeg/jdarith.c ****       MEMZERO(entropy->ac_stats[compptr->ac_tbl_no], AC_STAT_BINS);
 570              		.loc 1 210 27 view .LVU181
 571 0122 8BBB1C02 		movl	540(%rbx), %edi
 571      0000
 572 0128 85FF     		testl	%edi, %edi
 573 012a 74BF     		je	.L39
 574 012c EB88     		jmp	.L36
 575              		.cfi_endproc
 576              	.LFE53:
 578              		.section	.text.decode_mcu_DC_first,"ax",@progbits
 579              		.p2align 4
 581              	decode_mcu_DC_first:
 582              	.LVL53:
 583              	.LFB54:
 243:fltk-1.3.4-1/jpeg/jdarith.c ****   arith_entropy_ptr entropy = (arith_entropy_ptr) cinfo->entropy;
 584              		.loc 1 243 1 is_stmt 1 view -0
 585              		.cfi_startproc
 243:fltk-1.3.4-1/jpeg/jdarith.c ****   arith_entropy_ptr entropy = (arith_entropy_ptr) cinfo->entropy;
 586              		.loc 1 243 1 is_stmt 0 view .LVU183
 587 0000 F30F1EFA 		endbr64
 244:fltk-1.3.4-1/jpeg/jdarith.c ****   JBLOCKROW block;
 588              		.loc 1 244 3 is_stmt 1 view .LVU184
 243:fltk-1.3.4-1/jpeg/jdarith.c ****   arith_entropy_ptr entropy = (arith_entropy_ptr) cinfo->entropy;
 589              		.loc 1 243 1 is_stmt 0 view .LVU185
 590 0004 4157     		pushq	%r15
 591              		.cfi_def_cfa_offset 16
 592              		.cfi_offset 15, -16
 593 0006 4989FF   		movq	%rdi, %r15
 594 0009 4156     		pushq	%r14
 595              		.cfi_def_cfa_offset 24
 596              		.cfi_offset 14, -24
 597 000b 4155     		pushq	%r13
 598              		.cfi_def_cfa_offset 32
 599              		.cfi_offset 13, -32
 600 000d 4154     		pushq	%r12
 601              		.cfi_def_cfa_offset 40
 602              		.cfi_offset 12, -40
 603 000f 55       		pushq	%rbp
 604              		.cfi_def_cfa_offset 48
 605              		.cfi_offset 6, -48
 606 0010 53       		pushq	%rbx
 607              		.cfi_def_cfa_offset 56
 608              		.cfi_offset 3, -56
 609 0011 4883EC38 		subq	$56, %rsp
 610              		.cfi_def_cfa_offset 112
 244:fltk-1.3.4-1/jpeg/jdarith.c ****   JBLOCKROW block;
 611              		.loc 1 244 21 view .LVU186
 612 0015 488B8770 		movq	624(%rdi), %rax
 612      020000
 251:fltk-1.3.4-1/jpeg/jdarith.c ****     if (entropy->restarts_to_go == 0)
 613              		.loc 1 251 6 view .LVU187
 614 001c 8BBF7401 		movl	372(%rdi), %edi
 614      0000
 615              	.LVL54:
 243:fltk-1.3.4-1/jpeg/jdarith.c ****   arith_entropy_ptr entropy = (arith_entropy_ptr) cinfo->entropy;
 616              		.loc 1 243 1 view .LVU188
 617 0022 48897424 		movq	%rsi, 32(%rsp)
 617      20
 244:fltk-1.3.4-1/jpeg/jdarith.c ****   JBLOCKROW block;
 618              		.loc 1 244 21 view .LVU189
 619 0027 48894424 		movq	%rax, 16(%rsp)
 619      10
 620              	.LVL55:
 245:fltk-1.3.4-1/jpeg/jdarith.c ****   unsigned char *st;
 621              		.loc 1 245 3 is_stmt 1 view .LVU190
 246:fltk-1.3.4-1/jpeg/jdarith.c ****   int blkn, ci, tbl, sign;
 622              		.loc 1 246 3 view .LVU191
 247:fltk-1.3.4-1/jpeg/jdarith.c ****   int v, m;
 623              		.loc 1 247 3 view .LVU192
 248:fltk-1.3.4-1/jpeg/jdarith.c **** 
 624              		.loc 1 248 3 view .LVU193
 251:fltk-1.3.4-1/jpeg/jdarith.c ****     if (entropy->restarts_to_go == 0)
 625              		.loc 1 251 3 view .LVU194
 251:fltk-1.3.4-1/jpeg/jdarith.c ****     if (entropy->restarts_to_go == 0)
 626              		.loc 1 251 6 is_stmt 0 view .LVU195
 627 002c 85FF     		testl	%edi, %edi
 628 002e 7416     		je	.L48
 252:fltk-1.3.4-1/jpeg/jdarith.c ****       process_restart(cinfo);
 629              		.loc 1 252 5 is_stmt 1 view .LVU196
 252:fltk-1.3.4-1/jpeg/jdarith.c ****       process_restart(cinfo);
 630              		.loc 1 252 16 is_stmt 0 view .LVU197
 631 0030 8B404C   		movl	76(%rax), %eax
 632              	.LVL56:
 252:fltk-1.3.4-1/jpeg/jdarith.c ****       process_restart(cinfo);
 633              		.loc 1 252 8 view .LVU198
 634 0033 85C0     		testl	%eax, %eax
 635 0035 0F842502 		je	.L77
 635      0000
 254:fltk-1.3.4-1/jpeg/jdarith.c ****   }
 636              		.loc 1 254 5 is_stmt 1 view .LVU199
 254:fltk-1.3.4-1/jpeg/jdarith.c ****   }
 637              		.loc 1 254 28 is_stmt 0 view .LVU200
 638 003b 488B5C24 		movq	16(%rsp), %rbx
 638      10
 639 0040 83E801   		subl	$1, %eax
 640 0043 89434C   		movl	%eax, 76(%rbx)
 641              	.LVL57:
 642              	.L48:
 257:fltk-1.3.4-1/jpeg/jdarith.c **** 
 643              		.loc 1 257 3 is_stmt 1 view .LVU201
 257:fltk-1.3.4-1/jpeg/jdarith.c **** 
 644              		.loc 1 257 6 is_stmt 0 view .LVU202
 645 0046 488B4424 		movq	16(%rsp), %rax
 645      10
 646 004b 837828FF 		cmpl	$-1, 40(%rax)
 647 004f 0F841F01 		je	.L51
 647      0000
 648              	.LVL58:
 261:fltk-1.3.4-1/jpeg/jdarith.c ****     block = MCU_data[blkn];
 649              		.loc 1 261 18 is_stmt 1 view .LVU203
 261:fltk-1.3.4-1/jpeg/jdarith.c ****     block = MCU_data[blkn];
 650              		.loc 1 261 3 is_stmt 0 view .LVU204
 651 0055 418BB7F0 		movl	496(%r15), %esi
 651      010000
 652 005c 85F6     		testl	%esi, %esi
 653 005e 0F8E1001 		jle	.L51
 653      0000
 654 0064 31DB     		xorl	%ebx, %ebx
 655 0066 EB34     		jmp	.L67
 656              	.LVL59:
 657 0068 0F1F8400 		.p2align 4,,10
 657      00000000 
 658              		.p2align 3
 659              	.L78:
 273:fltk-1.3.4-1/jpeg/jdarith.c ****     else {
 660              		.loc 1 273 7 is_stmt 1 view .LVU205
 273:fltk-1.3.4-1/jpeg/jdarith.c ****     else {
 661              		.loc 1 273 31 is_stmt 0 view .LVU206
 662 0070 C7453C00 		movl	$0, 60(%rbp)
 662      000000
 663 0077 8B552C   		movl	44(%rbp), %edx
 664              	.LVL60:
 665              	.L54:
 308:fltk-1.3.4-1/jpeg/jdarith.c ****   }
 666              		.loc 1 308 5 is_stmt 1 discriminator 2 view .LVU207
 308:fltk-1.3.4-1/jpeg/jdarith.c ****   }
 667              		.loc 1 308 53 is_stmt 0 discriminator 2 view .LVU208
 668 007a 418B8F28 		movl	552(%r15), %ecx
 668      020000
 308:fltk-1.3.4-1/jpeg/jdarith.c ****   }
 669              		.loc 1 308 19 discriminator 2 view .LVU209
 670 0081 488B4424 		movq	8(%rsp), %rax
 670      08
 671 0086 4883C301 		addq	$1, %rbx
 672              	.LVL61:
 308:fltk-1.3.4-1/jpeg/jdarith.c ****   }
 673              		.loc 1 308 53 discriminator 2 view .LVU210
 674 008a D3E2     		sall	%cl, %edx
 308:fltk-1.3.4-1/jpeg/jdarith.c ****   }
 675              		.loc 1 308 19 discriminator 2 view .LVU211
 676 008c 668910   		movw	%dx, (%rax)
 261:fltk-1.3.4-1/jpeg/jdarith.c ****     block = MCU_data[blkn];
 677              		.loc 1 261 47 is_stmt 1 discriminator 2 view .LVU212
 261:fltk-1.3.4-1/jpeg/jdarith.c ****     block = MCU_data[blkn];
 678              		.loc 1 261 18 discriminator 2 view .LVU213
 261:fltk-1.3.4-1/jpeg/jdarith.c ****     block = MCU_data[blkn];
 679              		.loc 1 261 3 is_stmt 0 discriminator 2 view .LVU214
 680 008f 41399FF0 		cmpl	%ebx, 496(%r15)
 680      010000
 681 0096 0F8ED800 		jle	.L51
 681      0000
 682              	.LVL62:
 683              	.L67:
 262:fltk-1.3.4-1/jpeg/jdarith.c ****     ci = cinfo->MCU_membership[blkn];
 684              		.loc 1 262 5 is_stmt 1 view .LVU215
 262:fltk-1.3.4-1/jpeg/jdarith.c ****     ci = cinfo->MCU_membership[blkn];
 685              		.loc 1 262 11 is_stmt 0 view .LVU216
 686 009c 488B4424 		movq	32(%rsp), %rax
 686      20
 687 00a1 488B7C24 		movq	16(%rsp), %rdi
 687      10
 688 00a6 488B04D8 		movq	(%rax,%rbx,8), %rax
 689 00aa 48894424 		movq	%rax, 8(%rsp)
 689      08
 690              	.LVL63:
 263:fltk-1.3.4-1/jpeg/jdarith.c ****     tbl = cinfo->cur_comp_info[ci]->dc_tbl_no;
 691              		.loc 1 263 5 is_stmt 1 view .LVU217
 264:fltk-1.3.4-1/jpeg/jdarith.c **** 
 692              		.loc 1 264 5 view .LVU218
 264:fltk-1.3.4-1/jpeg/jdarith.c **** 
 693              		.loc 1 264 31 is_stmt 0 view .LVU219
 694 00af 4963849F 		movslq	500(%r15,%rbx,4), %rax
 694      F4010000 
 695              	.LVL64:
 264:fltk-1.3.4-1/jpeg/jdarith.c **** 
 696              		.loc 1 264 9 view .LVU220
 697 00b7 498B94C7 		movq	456(%r15,%rax,8), %rdx
 697      C8010000 
 698              	.LVL65:
 269:fltk-1.3.4-1/jpeg/jdarith.c **** 
 699              		.loc 1 269 5 is_stmt 1 view .LVU221
 700 00bf 488D2C87 		leaq	(%rdi,%rax,4), %rbp
 701 00c3 48634A14 		movslq	20(%rdx), %rcx
 269:fltk-1.3.4-1/jpeg/jdarith.c **** 
 702              		.loc 1 269 54 is_stmt 0 view .LVU222
 703 00c7 4863553C 		movslq	60(%rbp), %rdx
 704              	.LVL66:
 269:fltk-1.3.4-1/jpeg/jdarith.c **** 
 705              		.loc 1 269 54 view .LVU223
 706 00cb 4C8D34CF 		leaq	(%rdi,%rcx,8), %r14
 272:fltk-1.3.4-1/jpeg/jdarith.c ****       entropy->dc_context[ci] = 0;
 707              		.loc 1 272 9 view .LVU224
 708 00cf 4C89FF   		movq	%r15, %rdi
 709 00d2 48894C24 		movq	%rcx, 24(%rsp)
 709      18
 269:fltk-1.3.4-1/jpeg/jdarith.c **** 
 710              		.loc 1 269 8 view .LVU225
 711 00d7 49035650 		addq	80(%r14), %rdx
 272:fltk-1.3.4-1/jpeg/jdarith.c ****       entropy->dc_context[ci] = 0;
 712              		.loc 1 272 9 view .LVU226
 713 00db 4889D6   		movq	%rdx, %rsi
 269:fltk-1.3.4-1/jpeg/jdarith.c **** 
 714              		.loc 1 269 8 view .LVU227
 715 00de 4989D4   		movq	%rdx, %r12
 716              	.LVL67:
 272:fltk-1.3.4-1/jpeg/jdarith.c ****       entropy->dc_context[ci] = 0;
 717              		.loc 1 272 5 is_stmt 1 view .LVU228
 272:fltk-1.3.4-1/jpeg/jdarith.c ****       entropy->dc_context[ci] = 0;
 718              		.loc 1 272 9 is_stmt 0 view .LVU229
 719 00e1 E8000000 		call	arith_decode
 719      00
 720              	.LVL68:
 272:fltk-1.3.4-1/jpeg/jdarith.c ****       entropy->dc_context[ci] = 0;
 721              		.loc 1 272 8 view .LVU230
 722 00e6 85C0     		testl	%eax, %eax
 723 00e8 7486     		je	.L78
 277:fltk-1.3.4-1/jpeg/jdarith.c ****       st += 2; st += sign;
 724              		.loc 1 277 7 is_stmt 1 view .LVU231
 277:fltk-1.3.4-1/jpeg/jdarith.c ****       st += 2; st += sign;
 725              		.loc 1 277 14 is_stmt 0 view .LVU232
 726 00ea 498D7424 		leaq	1(%r12), %rsi
 726      01
 727 00ef 4C89FF   		movq	%r15, %rdi
 728 00f2 E8000000 		call	arith_decode
 728      00
 729              	.LVL69:
 280:fltk-1.3.4-1/jpeg/jdarith.c **** 	st = entropy->dc_stats[tbl] + 20;	/* Table F.4: X1 = 20 */
 730              		.loc 1 280 16 view .LVU233
 731 00f7 4C89FF   		movq	%r15, %rdi
 277:fltk-1.3.4-1/jpeg/jdarith.c ****       st += 2; st += sign;
 732              		.loc 1 277 14 view .LVU234
 733 00fa 8944242C 		movl	%eax, 44(%rsp)
 734              	.LVL70:
 278:fltk-1.3.4-1/jpeg/jdarith.c ****       /* Figure F.23: Decoding the magnitude category of v */
 735              		.loc 1 278 7 is_stmt 1 view .LVU235
 278:fltk-1.3.4-1/jpeg/jdarith.c ****       /* Figure F.23: Decoding the magnitude category of v */
 736              		.loc 1 278 16 view .LVU236
 278:fltk-1.3.4-1/jpeg/jdarith.c ****       /* Figure F.23: Decoding the magnitude category of v */
 737              		.loc 1 278 19 is_stmt 0 view .LVU237
 738 00fe 4898     		cltq
 739              	.LVL71:
 278:fltk-1.3.4-1/jpeg/jdarith.c ****       /* Figure F.23: Decoding the magnitude category of v */
 740              		.loc 1 278 19 view .LVU238
 741 0100 4D8D6C04 		leaq	2(%r12,%rax), %r13
 741      02
 742              	.LVL72:
 280:fltk-1.3.4-1/jpeg/jdarith.c **** 	st = entropy->dc_stats[tbl] + 20;	/* Table F.4: X1 = 20 */
 743              		.loc 1 280 7 is_stmt 1 view .LVU239
 280:fltk-1.3.4-1/jpeg/jdarith.c **** 	st = entropy->dc_stats[tbl] + 20;	/* Table F.4: X1 = 20 */
 744              		.loc 1 280 16 is_stmt 0 view .LVU240
 745 0105 4C89EE   		movq	%r13, %rsi
 746 0108 E8000000 		call	arith_decode
 746      00
 747              	.LVL73:
 748 010d 4189C4   		movl	%eax, %r12d
 749              	.LVL74:
 280:fltk-1.3.4-1/jpeg/jdarith.c **** 	st = entropy->dc_stats[tbl] + 20;	/* Table F.4: X1 = 20 */
 750              		.loc 1 280 10 view .LVU241
 751 0110 85C0     		testl	%eax, %eax
 752 0112 747C     		je	.L68
 281:fltk-1.3.4-1/jpeg/jdarith.c **** 	while (arith_decode(cinfo, st)) {
 753              		.loc 1 281 2 is_stmt 1 view .LVU242
 281:fltk-1.3.4-1/jpeg/jdarith.c **** 	while (arith_decode(cinfo, st)) {
 754              		.loc 1 281 5 is_stmt 0 view .LVU243
 755 0114 498B7650 		movq	80(%r14), %rsi
 756 0118 4C8D6E14 		leaq	20(%rsi), %r13
 757              	.LVL75:
 282:fltk-1.3.4-1/jpeg/jdarith.c **** 	  if ((m <<= 1) == 0x8000) {
 758              		.loc 1 282 2 is_stmt 1 view .LVU244
 282:fltk-1.3.4-1/jpeg/jdarith.c **** 	  if ((m <<= 1) == 0x8000) {
 759              		.loc 1 282 8 is_stmt 0 view .LVU245
 760 011c EB12     		jmp	.L56
 761              	.LVL76:
 762 011e 6690     		.p2align 4,,10
 763              		.p2align 3
 764              	.L58:
 283:fltk-1.3.4-1/jpeg/jdarith.c **** 	    WARNMS(cinfo, JWRN_ARITH_BAD_CODE);
 765              		.loc 1 283 4 is_stmt 1 view .LVU246
 283:fltk-1.3.4-1/jpeg/jdarith.c **** 	    WARNMS(cinfo, JWRN_ARITH_BAD_CODE);
 766              		.loc 1 283 11 is_stmt 0 view .LVU247
 767 0120 4501E4   		addl	%r12d, %r12d
 768              	.LVL77:
 283:fltk-1.3.4-1/jpeg/jdarith.c **** 	    WARNMS(cinfo, JWRN_ARITH_BAD_CODE);
 769              		.loc 1 283 7 view .LVU248
 770 0123 4181FC00 		cmpl	$32768, %r12d
 770      800000
 771 012a 7424     		je	.L79
 288:fltk-1.3.4-1/jpeg/jdarith.c **** 	}
 772              		.loc 1 288 4 is_stmt 1 view .LVU249
 288:fltk-1.3.4-1/jpeg/jdarith.c **** 	}
 773              		.loc 1 288 7 is_stmt 0 view .LVU250
 774 012c 4983C501 		addq	$1, %r13
 775              	.LVL78:
 776              	.L56:
 282:fltk-1.3.4-1/jpeg/jdarith.c **** 	  if ((m <<= 1) == 0x8000) {
 777              		.loc 1 282 8 is_stmt 1 view .LVU251
 282:fltk-1.3.4-1/jpeg/jdarith.c **** 	  if ((m <<= 1) == 0x8000) {
 778              		.loc 1 282 9 is_stmt 0 view .LVU252
 779 0130 4C89EE   		movq	%r13, %rsi
 780 0133 4C89FF   		movq	%r15, %rdi
 781 0136 E8000000 		call	arith_decode
 781      00
 782              	.LVL79:
 282:fltk-1.3.4-1/jpeg/jdarith.c **** 	  if ((m <<= 1) == 0x8000) {
 783              		.loc 1 282 8 view .LVU253
 784 013b 85C0     		testl	%eax, %eax
 785 013d 75E1     		jne	.L58
 282:fltk-1.3.4-1/jpeg/jdarith.c **** 	  if ((m <<= 1) == 0x8000) {
 786              		.loc 1 282 8 view .LVU254
 787 013f 4589E6   		movl	%r12d, %r14d
 788 0142 41D1FE   		sarl	%r14d
 789 0145 EB4C     		jmp	.L55
 790 0147 660F1F84 		.p2align 4,,10
 790      00000000 
 790      00
 791              		.p2align 3
 792              	.L79:
 284:fltk-1.3.4-1/jpeg/jdarith.c **** 	    entropy->ct = -1;			/* magnitude overflow */
 793              		.loc 1 284 6 is_stmt 1 view .LVU255
 794 0150 498B07   		movq	(%r15), %rax
 795 0153 BEFFFFFF 		movl	$-1, %esi
 795      FF
 796 0158 4C89FF   		movq	%r15, %rdi
 797 015b C7402875 		movl	$117, 40(%rax)
 797      000000
 798 0162 498B07   		movq	(%r15), %rax
 799 0165 FF5008   		call	*8(%rax)
 800              	.LVL80:
 285:fltk-1.3.4-1/jpeg/jdarith.c **** 	    return TRUE;
 801              		.loc 1 285 6 view .LVU256
 285:fltk-1.3.4-1/jpeg/jdarith.c **** 	    return TRUE;
 802              		.loc 1 285 18 is_stmt 0 view .LVU257
 803 0168 488B4424 		movq	16(%rsp), %rax
 803      10
 804 016d C74028FF 		movl	$-1, 40(%rax)
 804      FFFFFF
 286:fltk-1.3.4-1/jpeg/jdarith.c **** 	  }
 805              		.loc 1 286 6 is_stmt 1 view .LVU258
 806              	.LVL81:
 807              	.L51:
 312:fltk-1.3.4-1/jpeg/jdarith.c **** 
 808              		.loc 1 312 1 is_stmt 0 view .LVU259
 809 0174 4883C438 		addq	$56, %rsp
 810              		.cfi_remember_state
 811              		.cfi_def_cfa_offset 56
 812 0178 B8010000 		movl	$1, %eax
 812      00
 813 017d 5B       		popq	%rbx
 814              		.cfi_def_cfa_offset 48
 815 017e 5D       		popq	%rbp
 816              		.cfi_def_cfa_offset 40
 817 017f 415C     		popq	%r12
 818              		.cfi_def_cfa_offset 32
 819 0181 415D     		popq	%r13
 820              		.cfi_def_cfa_offset 24
 821 0183 415E     		popq	%r14
 822              		.cfi_def_cfa_offset 16
 823 0185 415F     		popq	%r15
 824              		.cfi_def_cfa_offset 8
 825              	.LVL82:
 312:fltk-1.3.4-1/jpeg/jdarith.c **** 
 826              		.loc 1 312 1 view .LVU260
 827 0187 C3       		ret
 828              	.LVL83:
 829 0188 0F1F8400 		.p2align 4,,10
 829      00000000 
 830              		.p2align 3
 831              	.L68:
 832              		.cfi_restore_state
 312:fltk-1.3.4-1/jpeg/jdarith.c **** 
 833              		.loc 1 312 1 view .LVU261
 834 0190 4531F6   		xorl	%r14d, %r14d
 835              	.LVL84:
 836              	.L55:
 292:fltk-1.3.4-1/jpeg/jdarith.c **** 	entropy->dc_context[ci] = 0;		   /* zero diff category */
 837              		.loc 1 292 7 is_stmt 1 view .LVU262
 292:fltk-1.3.4-1/jpeg/jdarith.c **** 	entropy->dc_context[ci] = 0;		   /* zero diff category */
 838              		.loc 1 292 46 is_stmt 0 view .LVU263
 839 0193 488B4424 		movq	24(%rsp), %rax
 839      18
 840 0198 410FB68C 		movzbl	324(%r15,%rax), %ecx
 840      07440100 
 840      00
 292:fltk-1.3.4-1/jpeg/jdarith.c **** 	entropy->dc_context[ci] = 0;		   /* zero diff category */
 841              		.loc 1 292 26 view .LVU264
 842 01a1 B8010000 		movl	$1, %eax
 842      00
 843 01a6 48D3E0   		salq	%cl, %rax
 292:fltk-1.3.4-1/jpeg/jdarith.c **** 	entropy->dc_context[ci] = 0;		   /* zero diff category */
 844              		.loc 1 292 53 view .LVU265
 845 01a9 48D1F8   		sarq	%rax
 292:fltk-1.3.4-1/jpeg/jdarith.c **** 	entropy->dc_context[ci] = 0;		   /* zero diff category */
 846              		.loc 1 292 10 view .LVU266
 847 01ac 4139C4   		cmpl	%eax, %r12d
 848 01af 7D5F     		jge	.L59
 293:fltk-1.3.4-1/jpeg/jdarith.c ****       else if (m > (int) ((1L << cinfo->arith_dc_U[tbl]) >> 1))
 849              		.loc 1 293 2 is_stmt 1 view .LVU267
 293:fltk-1.3.4-1/jpeg/jdarith.c ****       else if (m > (int) ((1L << cinfo->arith_dc_U[tbl]) >> 1))
 850              		.loc 1 293 26 is_stmt 0 view .LVU268
 851 01b1 C7453C00 		movl	$0, 60(%rbp)
 851      000000
 852              	.L60:
 298:fltk-1.3.4-1/jpeg/jdarith.c ****       /* Figure F.24: Decoding the magnitude bit pattern of v */
 853              		.loc 1 298 7 is_stmt 1 view .LVU269
 854              	.LVL85:
 300:fltk-1.3.4-1/jpeg/jdarith.c ****       while (m >>= 1)
 855              		.loc 1 300 7 view .LVU270
 300:fltk-1.3.4-1/jpeg/jdarith.c ****       while (m >>= 1)
 856              		.loc 1 300 10 is_stmt 0 view .LVU271
 857 01b8 4983C50E 		addq	$14, %r13
 858              	.LVL86:
 301:fltk-1.3.4-1/jpeg/jdarith.c **** 	if (arith_decode(cinfo, st)) v |= m;
 859              		.loc 1 301 7 is_stmt 1 view .LVU272
 301:fltk-1.3.4-1/jpeg/jdarith.c **** 	if (arith_decode(cinfo, st)) v |= m;
 860              		.loc 1 301 13 view .LVU273
 301:fltk-1.3.4-1/jpeg/jdarith.c **** 	if (arith_decode(cinfo, st)) v |= m;
 861              		.loc 1 301 13 is_stmt 0 view .LVU274
 862 01bc 4585F6   		testl	%r14d, %r14d
 863 01bf 7427     		je	.L62
 864              	.LVL87:
 865              		.p2align 4,,10
 866 01c1 0F1F8000 		.p2align 3
 866      000000
 867              	.L64:
 302:fltk-1.3.4-1/jpeg/jdarith.c ****       v += 1; if (sign) v = -v;
 868              		.loc 1 302 2 is_stmt 1 view .LVU275
 302:fltk-1.3.4-1/jpeg/jdarith.c ****       v += 1; if (sign) v = -v;
 869              		.loc 1 302 6 is_stmt 0 view .LVU276
 870 01c8 4C89EE   		movq	%r13, %rsi
 871 01cb 4C89FF   		movq	%r15, %rdi
 872 01ce E8000000 		call	arith_decode
 872      00
 873              	.LVL88:
 874 01d3 4189C0   		movl	%eax, %r8d
 302:fltk-1.3.4-1/jpeg/jdarith.c ****       v += 1; if (sign) v = -v;
 875              		.loc 1 302 33 view .LVU277
 876 01d6 4489E0   		movl	%r12d, %eax
 877 01d9 4409F0   		orl	%r14d, %eax
 878 01dc 4585C0   		testl	%r8d, %r8d
 879 01df 440F45E0 		cmovne	%eax, %r12d
 880              	.LVL89:
 301:fltk-1.3.4-1/jpeg/jdarith.c **** 	if (arith_decode(cinfo, st)) v |= m;
 881              		.loc 1 301 13 is_stmt 1 view .LVU278
 301:fltk-1.3.4-1/jpeg/jdarith.c **** 	if (arith_decode(cinfo, st)) v |= m;
 882              		.loc 1 301 13 is_stmt 0 view .LVU279
 883 01e3 41D1FE   		sarl	%r14d
 884              	.LVL90:
 301:fltk-1.3.4-1/jpeg/jdarith.c **** 	if (arith_decode(cinfo, st)) v |= m;
 885              		.loc 1 301 13 view .LVU280
 886 01e6 75E0     		jne	.L64
 887              	.LVL91:
 888              	.L62:
 303:fltk-1.3.4-1/jpeg/jdarith.c ****       entropy->last_dc_val[ci] += v;
 889              		.loc 1 303 7 is_stmt 1 view .LVU281
 303:fltk-1.3.4-1/jpeg/jdarith.c ****       entropy->last_dc_val[ci] += v;
 890              		.loc 1 303 15 view .LVU282
 303:fltk-1.3.4-1/jpeg/jdarith.c ****       entropy->last_dc_val[ci] += v;
 891              		.loc 1 303 9 is_stmt 0 view .LVU283
 892 01e8 8B4C242C 		movl	44(%rsp), %ecx
 893 01ec 4489E2   		movl	%r12d, %edx
 894 01ef 418D4424 		leal	1(%r12), %eax
 894      01
 895              	.LVL92:
 303:fltk-1.3.4-1/jpeg/jdarith.c ****       entropy->last_dc_val[ci] += v;
 896              		.loc 1 303 9 view .LVU284
 897 01f4 F7D2     		notl	%edx
 898 01f6 85C9     		testl	%ecx, %ecx
 899 01f8 0F44D0   		cmove	%eax, %edx
 900              	.LVL93:
 304:fltk-1.3.4-1/jpeg/jdarith.c ****     }
 901              		.loc 1 304 7 is_stmt 1 view .LVU285
 304:fltk-1.3.4-1/jpeg/jdarith.c ****     }
 902              		.loc 1 304 32 is_stmt 0 view .LVU286
 903 01fb 03552C   		addl	44(%rbp), %edx
 904              	.LVL94:
 304:fltk-1.3.4-1/jpeg/jdarith.c ****     }
 905              		.loc 1 304 32 view .LVU287
 906 01fe 89552C   		movl	%edx, 44(%rbp)
 907 0201 E974FEFF 		jmp	.L54
 907      FF
 908              	.LVL95:
 909 0206 662E0F1F 		.p2align 4,,10
 909      84000000 
 909      0000
 910              		.p2align 3
 911              	.L59:
 294:fltk-1.3.4-1/jpeg/jdarith.c **** 	entropy->dc_context[ci] = 12 + (sign * 4); /* large diff category */
 912              		.loc 1 294 12 is_stmt 1 view .LVU288
 294:fltk-1.3.4-1/jpeg/jdarith.c **** 	entropy->dc_context[ci] = 12 + (sign * 4); /* large diff category */
 913              		.loc 1 294 51 is_stmt 0 view .LVU289
 914 0210 488B4424 		movq	24(%rsp), %rax
 914      18
 915 0215 410FB68C 		movzbl	340(%r15,%rax), %ecx
 915      07540100 
 915      00
 294:fltk-1.3.4-1/jpeg/jdarith.c **** 	entropy->dc_context[ci] = 12 + (sign * 4); /* large diff category */
 916              		.loc 1 294 31 view .LVU290
 917 021e B8010000 		movl	$1, %eax
 917      00
 918 0223 48D3E0   		salq	%cl, %rax
 294:fltk-1.3.4-1/jpeg/jdarith.c **** 	entropy->dc_context[ci] = 12 + (sign * 4); /* large diff category */
 919              		.loc 1 294 58 view .LVU291
 920 0226 48D1F8   		sarq	%rax
 294:fltk-1.3.4-1/jpeg/jdarith.c **** 	entropy->dc_context[ci] = 12 + (sign * 4); /* large diff category */
 921              		.loc 1 294 15 view .LVU292
 922 0229 4139C4   		cmpl	%eax, %r12d
 295:fltk-1.3.4-1/jpeg/jdarith.c ****       else
 923              		.loc 1 295 31 view .LVU293
 924 022c 8B44242C 		movl	44(%rsp), %eax
 294:fltk-1.3.4-1/jpeg/jdarith.c **** 	entropy->dc_context[ci] = 12 + (sign * 4); /* large diff category */
 925              		.loc 1 294 15 view .LVU294
 926 0230 7E16     		jle	.L61
 295:fltk-1.3.4-1/jpeg/jdarith.c ****       else
 927              		.loc 1 295 2 is_stmt 1 view .LVU295
 295:fltk-1.3.4-1/jpeg/jdarith.c ****       else
 928              		.loc 1 295 31 is_stmt 0 view .LVU296
 929 0232 8D04850C 		leal	12(,%rax,4), %eax
 929      000000
 930 0239 89453C   		movl	%eax, 60(%rbp)
 931 023c E977FFFF 		jmp	.L60
 931      FF
 932              		.p2align 4,,10
 933 0241 0F1F8000 		.p2align 3
 933      000000
 934              	.L61:
 297:fltk-1.3.4-1/jpeg/jdarith.c ****       v = m;
 935              		.loc 1 297 2 is_stmt 1 view .LVU297
 297:fltk-1.3.4-1/jpeg/jdarith.c ****       v = m;
 936              		.loc 1 297 30 is_stmt 0 view .LVU298
 937 0248 8D048504 		leal	4(,%rax,4), %eax
 937      000000
 938 024f 89453C   		movl	%eax, 60(%rbp)
 939 0252 E961FFFF 		jmp	.L60
 939      FF
 940              	.LVL96:
 941 0257 660F1F84 		.p2align 4,,10
 941      00000000 
 941      00
 942              		.p2align 3
 943              	.L77:
 253:fltk-1.3.4-1/jpeg/jdarith.c ****     entropy->restarts_to_go--;
 944              		.loc 1 253 7 is_stmt 1 view .LVU299
 945 0260 4C89FF   		movq	%r15, %rdi
 946 0263 E8000000 		call	process_restart
 946      00
 947              	.LVL97:
 253:fltk-1.3.4-1/jpeg/jdarith.c ****     entropy->restarts_to_go--;
 948              		.loc 1 253 7 is_stmt 0 view .LVU300
 949 0268 488B4424 		movq	16(%rsp), %rax
 949      10
 254:fltk-1.3.4-1/jpeg/jdarith.c ****   }
 950              		.loc 1 254 28 view .LVU301
 951 026d 488B5C24 		movq	16(%rsp), %rbx
 951      10
 952 0272 8B404C   		movl	76(%rax), %eax
 254:fltk-1.3.4-1/jpeg/jdarith.c ****   }
 953              		.loc 1 254 5 is_stmt 1 view .LVU302
 254:fltk-1.3.4-1/jpeg/jdarith.c ****   }
 954              		.loc 1 254 28 is_stmt 0 view .LVU303
 955 0275 83E801   		subl	$1, %eax
 956 0278 89434C   		movl	%eax, 76(%rbx)
 957 027b E9C6FDFF 		jmp	.L48
 957      FF
 958              		.cfi_endproc
 959              	.LFE54:
 961              		.section	.text.decode_mcu_AC_first,"ax",@progbits
 962              		.p2align 4
 964              	decode_mcu_AC_first:
 965              	.LVL98:
 966              	.LFB55:
 322:fltk-1.3.4-1/jpeg/jdarith.c ****   arith_entropy_ptr entropy = (arith_entropy_ptr) cinfo->entropy;
 967              		.loc 1 322 1 is_stmt 1 view -0
 968              		.cfi_startproc
 322:fltk-1.3.4-1/jpeg/jdarith.c ****   arith_entropy_ptr entropy = (arith_entropy_ptr) cinfo->entropy;
 969              		.loc 1 322 1 is_stmt 0 view .LVU305
 970 0000 F30F1EFA 		endbr64
 323:fltk-1.3.4-1/jpeg/jdarith.c ****   JBLOCKROW block;
 971              		.loc 1 323 3 is_stmt 1 view .LVU306
 322:fltk-1.3.4-1/jpeg/jdarith.c ****   arith_entropy_ptr entropy = (arith_entropy_ptr) cinfo->entropy;
 972              		.loc 1 322 1 is_stmt 0 view .LVU307
 973 0004 4157     		pushq	%r15
 974              		.cfi_def_cfa_offset 16
 975              		.cfi_offset 15, -16
 976 0006 4989FF   		movq	%rdi, %r15
 977 0009 4156     		pushq	%r14
 978              		.cfi_def_cfa_offset 24
 979              		.cfi_offset 14, -24
 980 000b 4155     		pushq	%r13
 981              		.cfi_def_cfa_offset 32
 982              		.cfi_offset 13, -32
 983 000d 4154     		pushq	%r12
 984              		.cfi_def_cfa_offset 40
 985              		.cfi_offset 12, -40
 986 000f 55       		pushq	%rbp
 987              		.cfi_def_cfa_offset 48
 988              		.cfi_offset 6, -48
 989 0010 53       		pushq	%rbx
 990              		.cfi_def_cfa_offset 56
 991              		.cfi_offset 3, -56
 992 0011 4883EC38 		subq	$56, %rsp
 993              		.cfi_def_cfa_offset 112
 323:fltk-1.3.4-1/jpeg/jdarith.c ****   JBLOCKROW block;
 994              		.loc 1 323 21 view .LVU308
 995 0015 4C8BA770 		movq	624(%rdi), %r12
 995      020000
 996              	.LVL99:
 324:fltk-1.3.4-1/jpeg/jdarith.c ****   unsigned char *st;
 997              		.loc 1 324 3 is_stmt 1 view .LVU309
 325:fltk-1.3.4-1/jpeg/jdarith.c ****   int tbl, sign, k;
 998              		.loc 1 325 3 view .LVU310
 326:fltk-1.3.4-1/jpeg/jdarith.c ****   int v, m;
 999              		.loc 1 326 3 view .LVU311
 327:fltk-1.3.4-1/jpeg/jdarith.c ****   const int * natural_order;
 1000              		.loc 1 327 3 view .LVU312
 328:fltk-1.3.4-1/jpeg/jdarith.c **** 
 1001              		.loc 1 328 3 view .LVU313
 331:fltk-1.3.4-1/jpeg/jdarith.c ****     if (entropy->restarts_to_go == 0)
 1002              		.loc 1 331 3 view .LVU314
 331:fltk-1.3.4-1/jpeg/jdarith.c ****     if (entropy->restarts_to_go == 0)
 1003              		.loc 1 331 6 is_stmt 0 view .LVU315
 1004 001c 8BBF7401 		movl	372(%rdi), %edi
 1004      0000
 1005              	.LVL100:
 331:fltk-1.3.4-1/jpeg/jdarith.c ****     if (entropy->restarts_to_go == 0)
 1006              		.loc 1 331 6 view .LVU316
 1007 0022 85FF     		testl	%edi, %edi
 1008 0024 7415     		je	.L81
 332:fltk-1.3.4-1/jpeg/jdarith.c ****       process_restart(cinfo);
 1009              		.loc 1 332 5 is_stmt 1 view .LVU317
 332:fltk-1.3.4-1/jpeg/jdarith.c ****       process_restart(cinfo);
 1010              		.loc 1 332 16 is_stmt 0 view .LVU318
 1011 0026 418B4424 		movl	76(%r12), %eax
 1011      4C
 332:fltk-1.3.4-1/jpeg/jdarith.c ****       process_restart(cinfo);
 1012              		.loc 1 332 8 view .LVU319
 1013 002b 85C0     		testl	%eax, %eax
 1014 002d 0F849501 		je	.L115
 1014      0000
 1015              	.LVL101:
 1016              	.L82:
 334:fltk-1.3.4-1/jpeg/jdarith.c ****   }
 1017              		.loc 1 334 5 is_stmt 1 view .LVU320
 334:fltk-1.3.4-1/jpeg/jdarith.c ****   }
 1018              		.loc 1 334 28 is_stmt 0 view .LVU321
 1019 0033 83E801   		subl	$1, %eax
 1020 0036 41894424 		movl	%eax, 76(%r12)
 1020      4C
 1021              	.L81:
 337:fltk-1.3.4-1/jpeg/jdarith.c **** 
 1022              		.loc 1 337 3 is_stmt 1 view .LVU322
 337:fltk-1.3.4-1/jpeg/jdarith.c **** 
 1023              		.loc 1 337 6 is_stmt 0 view .LVU323
 1024 003b 41837C24 		cmpl	$-1, 40(%r12)
 1024      28FF
 1025 0041 0F84EE00 		je	.L84
 1025      0000
 339:fltk-1.3.4-1/jpeg/jdarith.c **** 
 1026              		.loc 1 339 3 is_stmt 1 view .LVU324
 339:fltk-1.3.4-1/jpeg/jdarith.c **** 
 1027              		.loc 1 339 17 is_stmt 0 view .LVU325
 1028 0047 498B8730 		movq	560(%r15), %rax
 1028      020000
 348:fltk-1.3.4-1/jpeg/jdarith.c ****   do {
 1029              		.loc 1 348 5 view .LVU326
 1030 004e 418B8F1C 		movl	540(%r15), %ecx
 1030      020000
 339:fltk-1.3.4-1/jpeg/jdarith.c **** 
 1031              		.loc 1 339 17 view .LVU327
 1032 0055 48894424 		movq	%rax, 16(%rsp)
 1032      10
 1033              	.LVL102:
 342:fltk-1.3.4-1/jpeg/jdarith.c ****   tbl = cinfo->cur_comp_info[0]->ac_tbl_no;
 1034              		.loc 1 342 3 is_stmt 1 view .LVU328
 342:fltk-1.3.4-1/jpeg/jdarith.c ****   tbl = cinfo->cur_comp_info[0]->ac_tbl_no;
 1035              		.loc 1 342 9 is_stmt 0 view .LVU329
 1036 005a 488B06   		movq	(%rsi), %rax
 1037              	.LVL103:
 348:fltk-1.3.4-1/jpeg/jdarith.c ****   do {
 1038              		.loc 1 348 5 view .LVU330
 1039 005d 8D69FF   		leal	-1(%rcx), %ebp
 342:fltk-1.3.4-1/jpeg/jdarith.c ****   tbl = cinfo->cur_comp_info[0]->ac_tbl_no;
 1040              		.loc 1 342 9 view .LVU331
 1041 0060 48894424 		movq	%rax, 24(%rsp)
 1041      18
 1042              	.LVL104:
 343:fltk-1.3.4-1/jpeg/jdarith.c **** 
 1043              		.loc 1 343 3 is_stmt 1 view .LVU332
 343:fltk-1.3.4-1/jpeg/jdarith.c **** 
 1044              		.loc 1 343 7 is_stmt 0 view .LVU333
 1045 0065 498B87C8 		movq	456(%r15), %rax
 1045      010000
 1046              	.LVL105:
 348:fltk-1.3.4-1/jpeg/jdarith.c ****   do {
 1047              		.loc 1 348 3 is_stmt 1 view .LVU334
 348:fltk-1.3.4-1/jpeg/jdarith.c ****   do {
 1048              		.loc 1 348 3 is_stmt 0 view .LVU335
 1049 006c 48634018 		movslq	24(%rax), %rax
 1050              	.LVL106:
 348:fltk-1.3.4-1/jpeg/jdarith.c ****   do {
 1051              		.loc 1 348 3 view .LVU336
 1052 0070 48894424 		movq	%rax, 40(%rsp)
 1052      28
 1053 0075 498D04C4 		leaq	(%r12,%rax,8), %rax
 1054 0079 48894424 		movq	%rax, 8(%rsp)
 1054      08
 1055              	.LVL107:
 1056              	.L97:
 349:fltk-1.3.4-1/jpeg/jdarith.c ****     st = entropy->ac_stats[tbl] + 3 * k;
 1057              		.loc 1 349 3 is_stmt 1 view .LVU337
 350:fltk-1.3.4-1/jpeg/jdarith.c ****     if (arith_decode(cinfo, st)) break;		/* EOB flag */
 1058              		.loc 1 350 5 view .LVU338
 350:fltk-1.3.4-1/jpeg/jdarith.c ****     if (arith_decode(cinfo, st)) break;		/* EOB flag */
 1059              		.loc 1 350 8 is_stmt 0 view .LVU339
 1060 007e 488B4424 		movq	8(%rsp), %rax
 1060      08
 350:fltk-1.3.4-1/jpeg/jdarith.c ****     if (arith_decode(cinfo, st)) break;		/* EOB flag */
 1061              		.loc 1 350 37 view .LVU340
 1062 0083 8D5C6D00 		leal	0(%rbp,%rbp,2), %ebx
 351:fltk-1.3.4-1/jpeg/jdarith.c ****     for (;;) {
 1063              		.loc 1 351 9 view .LVU341
 1064 0087 4C89FF   		movq	%r15, %rdi
 350:fltk-1.3.4-1/jpeg/jdarith.c ****     if (arith_decode(cinfo, st)) break;		/* EOB flag */
 1065              		.loc 1 350 37 view .LVU342
 1066 008a 4863DB   		movslq	%ebx, %rbx
 350:fltk-1.3.4-1/jpeg/jdarith.c ****     if (arith_decode(cinfo, st)) break;		/* EOB flag */
 1067              		.loc 1 350 8 view .LVU343
 1068 008d 480398D0 		addq	208(%rax), %rbx
 1068      000000
 1069              	.LVL108:
 351:fltk-1.3.4-1/jpeg/jdarith.c ****     for (;;) {
 1070              		.loc 1 351 5 is_stmt 1 view .LVU344
 351:fltk-1.3.4-1/jpeg/jdarith.c ****     for (;;) {
 1071              		.loc 1 351 9 is_stmt 0 view .LVU345
 1072 0094 4889DE   		movq	%rbx, %rsi
 1073 0097 E8000000 		call	arith_decode
 1073      00
 1074              	.LVL109:
 351:fltk-1.3.4-1/jpeg/jdarith.c ****     for (;;) {
 1075              		.loc 1 351 8 view .LVU346
 1076 009c 85C0     		testl	%eax, %eax
 1077 009e 7419     		je	.L87
 351:fltk-1.3.4-1/jpeg/jdarith.c ****     for (;;) {
 1078              		.loc 1 351 8 view .LVU347
 1079 00a0 E9900000 		jmp	.L84
 1079      00
 1080              		.p2align 4,,10
 1081 00a5 0F1F00   		.p2align 3
 1082              	.L116:
 355:fltk-1.3.4-1/jpeg/jdarith.c ****       if (k >= cinfo->Se) {
 1083              		.loc 1 355 7 is_stmt 1 view .LVU348
 355:fltk-1.3.4-1/jpeg/jdarith.c ****       if (k >= cinfo->Se) {
 1084              		.loc 1 355 10 is_stmt 0 view .LVU349
 1085 00a8 4883C303 		addq	$3, %rbx
 1086              	.LVL110:
 356:fltk-1.3.4-1/jpeg/jdarith.c **** 	WARNMS(cinfo, JWRN_ARITH_BAD_CODE);
 1087              		.loc 1 356 7 is_stmt 1 view .LVU350
 356:fltk-1.3.4-1/jpeg/jdarith.c **** 	WARNMS(cinfo, JWRN_ARITH_BAD_CODE);
 1088              		.loc 1 356 10 is_stmt 0 view .LVU351
 1089 00ac 4139AF20 		cmpl	%ebp, 544(%r15)
 1089      020000
 1090 00b3 0F8E9700 		jle	.L114
 1090      0000
 1091              	.L87:
 352:fltk-1.3.4-1/jpeg/jdarith.c ****       k++;
 1092              		.loc 1 352 5 is_stmt 1 view .LVU352
 353:fltk-1.3.4-1/jpeg/jdarith.c ****       if (arith_decode(cinfo, st + 1)) break;
 1093              		.loc 1 353 7 view .LVU353
 354:fltk-1.3.4-1/jpeg/jdarith.c ****       st += 3;
 1094              		.loc 1 354 11 is_stmt 0 view .LVU354
 1095 00b9 488D7301 		leaq	1(%rbx), %rsi
 1096 00bd 4C89FF   		movq	%r15, %rdi
 353:fltk-1.3.4-1/jpeg/jdarith.c ****       if (arith_decode(cinfo, st + 1)) break;
 1097              		.loc 1 353 8 view .LVU355
 1098 00c0 83C501   		addl	$1, %ebp
 1099              	.LVL111:
 354:fltk-1.3.4-1/jpeg/jdarith.c ****       st += 3;
 1100              		.loc 1 354 7 is_stmt 1 view .LVU356
 354:fltk-1.3.4-1/jpeg/jdarith.c ****       st += 3;
 1101              		.loc 1 354 11 is_stmt 0 view .LVU357
 1102 00c3 E8000000 		call	arith_decode
 1102      00
 1103              	.LVL112:
 354:fltk-1.3.4-1/jpeg/jdarith.c ****       st += 3;
 1104              		.loc 1 354 10 view .LVU358
 1105 00c8 85C0     		testl	%eax, %eax
 1106 00ca 74DC     		je	.L116
 364:fltk-1.3.4-1/jpeg/jdarith.c ****     st += 2;
 1107              		.loc 1 364 5 is_stmt 1 view .LVU359
 364:fltk-1.3.4-1/jpeg/jdarith.c ****     st += 2;
 1108              		.loc 1 364 39 is_stmt 0 view .LVU360
 1109 00cc 498DB424 		leaq	336(%r12), %rsi
 1109      50010000 
 364:fltk-1.3.4-1/jpeg/jdarith.c ****     st += 2;
 1110              		.loc 1 364 12 view .LVU361
 1111 00d4 4C89FF   		movq	%r15, %rdi
 365:fltk-1.3.4-1/jpeg/jdarith.c ****     /* Figure F.23: Decoding the magnitude category of v */
 1112              		.loc 1 365 8 view .LVU362
 1113 00d7 4883C302 		addq	$2, %rbx
 1114              	.LVL113:
 364:fltk-1.3.4-1/jpeg/jdarith.c ****     st += 2;
 1115              		.loc 1 364 12 view .LVU363
 1116 00db E8000000 		call	arith_decode
 1116      00
 1117              	.LVL114:
 367:fltk-1.3.4-1/jpeg/jdarith.c ****       if (arith_decode(cinfo, st)) {
 1118              		.loc 1 367 14 view .LVU364
 1119 00e0 4889DE   		movq	%rbx, %rsi
 1120 00e3 4C89FF   		movq	%r15, %rdi
 364:fltk-1.3.4-1/jpeg/jdarith.c ****     st += 2;
 1121              		.loc 1 364 12 view .LVU365
 1122 00e6 89442424 		movl	%eax, 36(%rsp)
 1123              	.LVL115:
 365:fltk-1.3.4-1/jpeg/jdarith.c ****     /* Figure F.23: Decoding the magnitude category of v */
 1124              		.loc 1 365 5 is_stmt 1 view .LVU366
 367:fltk-1.3.4-1/jpeg/jdarith.c ****       if (arith_decode(cinfo, st)) {
 1125              		.loc 1 367 5 view .LVU367
 367:fltk-1.3.4-1/jpeg/jdarith.c ****       if (arith_decode(cinfo, st)) {
 1126              		.loc 1 367 14 is_stmt 0 view .LVU368
 1127 00ea E8000000 		call	arith_decode
 1127      00
 1128              	.LVL116:
 367:fltk-1.3.4-1/jpeg/jdarith.c ****       if (arith_decode(cinfo, st)) {
 1129              		.loc 1 367 14 view .LVU369
 1130 00ef 4189C6   		movl	%eax, %r14d
 1131              	.LVL117:
 367:fltk-1.3.4-1/jpeg/jdarith.c ****       if (arith_decode(cinfo, st)) {
 1132              		.loc 1 367 14 view .LVU370
 1133 00f2 B8010000 		movl	$1, %eax
 1133      00
 1134              	.LVL118:
 367:fltk-1.3.4-1/jpeg/jdarith.c ****       if (arith_decode(cinfo, st)) {
 1135              		.loc 1 367 8 view .LVU371
 1136 00f7 4585F6   		testl	%r14d, %r14d
 1137 00fa 757C     		jne	.L117
 1138              	.LVL119:
 1139              	.L88:
 387:fltk-1.3.4-1/jpeg/jdarith.c ****     /* Scale and output coefficient in natural (dezigzagged) order */
 1140              		.loc 1 387 5 is_stmt 1 view .LVU372
 387:fltk-1.3.4-1/jpeg/jdarith.c ****     /* Scale and output coefficient in natural (dezigzagged) order */
 1141              		.loc 1 387 13 view .LVU373
 387:fltk-1.3.4-1/jpeg/jdarith.c ****     /* Scale and output coefficient in natural (dezigzagged) order */
 1142              		.loc 1 387 25 is_stmt 0 view .LVU374
 1143 00fc 8B4C2424 		movl	36(%rsp), %ecx
 1144 0100 4489F2   		movl	%r14d, %edx
 1145 0103 F7D2     		notl	%edx
 1146 0105 85C9     		testl	%ecx, %ecx
 389:fltk-1.3.4-1/jpeg/jdarith.c ****   } while (k < cinfo->Se);
 1147              		.loc 1 389 32 view .LVU375
 1148 0107 488B4C24 		movq	16(%rsp), %rcx
 1148      10
 387:fltk-1.3.4-1/jpeg/jdarith.c ****     /* Scale and output coefficient in natural (dezigzagged) order */
 1149              		.loc 1 387 25 view .LVU376
 1150 010c 0F45C2   		cmovne	%edx, %eax
 1151              	.LVL120:
 389:fltk-1.3.4-1/jpeg/jdarith.c ****   } while (k < cinfo->Se);
 1152              		.loc 1 389 5 is_stmt 1 view .LVU377
 389:fltk-1.3.4-1/jpeg/jdarith.c ****   } while (k < cinfo->Se);
 1153              		.loc 1 389 27 is_stmt 0 view .LVU378
 1154 010f 4863D5   		movslq	%ebp, %rdx
 389:fltk-1.3.4-1/jpeg/jdarith.c ****   } while (k < cinfo->Se);
 1155              		.loc 1 389 32 view .LVU379
 1156 0112 48631491 		movslq	(%rcx,%rdx,4), %rdx
 389:fltk-1.3.4-1/jpeg/jdarith.c ****   } while (k < cinfo->Se);
 1157              		.loc 1 389 45 view .LVU380
 1158 0116 418B8F28 		movl	552(%r15), %ecx
 1158      020000
 1159 011d D3E0     		sall	%cl, %eax
 1160              	.LVL121:
 389:fltk-1.3.4-1/jpeg/jdarith.c ****   } while (k < cinfo->Se);
 1161              		.loc 1 389 34 view .LVU381
 1162 011f 488B4C24 		movq	24(%rsp), %rcx
 1162      18
 1163 0124 66890451 		movw	%ax, (%rcx,%rdx,2)
 390:fltk-1.3.4-1/jpeg/jdarith.c **** 
 1164              		.loc 1 390 11 is_stmt 1 view .LVU382
 390:fltk-1.3.4-1/jpeg/jdarith.c **** 
 1165              		.loc 1 390 3 is_stmt 0 view .LVU383
 1166 0128 4139AF20 		cmpl	%ebp, 544(%r15)
 1166      020000
 1167 012f 0F8F49FF 		jg	.L97
 1167      FFFF
 1168              	.LVL122:
 1169              	.L84:
 393:fltk-1.3.4-1/jpeg/jdarith.c **** 
 1170              		.loc 1 393 1 view .LVU384
 1171 0135 4883C438 		addq	$56, %rsp
 1172              		.cfi_remember_state
 1173              		.cfi_def_cfa_offset 56
 1174 0139 B8010000 		movl	$1, %eax
 1174      00
 1175 013e 5B       		popq	%rbx
 1176              		.cfi_def_cfa_offset 48
 1177 013f 5D       		popq	%rbp
 1178              		.cfi_def_cfa_offset 40
 1179 0140 415C     		popq	%r12
 1180              		.cfi_def_cfa_offset 32
 1181              	.LVL123:
 393:fltk-1.3.4-1/jpeg/jdarith.c **** 
 1182              		.loc 1 393 1 view .LVU385
 1183 0142 415D     		popq	%r13
 1184              		.cfi_def_cfa_offset 24
 1185 0144 415E     		popq	%r14
 1186              		.cfi_def_cfa_offset 16
 1187 0146 415F     		popq	%r15
 1188              		.cfi_def_cfa_offset 8
 1189              	.LVL124:
 393:fltk-1.3.4-1/jpeg/jdarith.c **** 
 1190              		.loc 1 393 1 view .LVU386
 1191 0148 C3       		ret
 1192              	.LVL125:
 1193 0149 0F1F8000 		.p2align 4,,10
 1193      000000
 1194              		.p2align 3
 1195              	.L114:
 1196              		.cfi_restore_state
 374:fltk-1.3.4-1/jpeg/jdarith.c **** 	    entropy->ct = -1;			/* magnitude overflow */
 1197              		.loc 1 374 6 is_stmt 1 view .LVU387
 1198 0150 498B07   		movq	(%r15), %rax
 1199 0153 BEFFFFFF 		movl	$-1, %esi
 1199      FF
 1200 0158 4C89FF   		movq	%r15, %rdi
 1201 015b C7402875 		movl	$117, 40(%rax)
 1201      000000
 1202              	.LVL126:
 374:fltk-1.3.4-1/jpeg/jdarith.c **** 	    entropy->ct = -1;			/* magnitude overflow */
 1203              		.loc 1 374 6 is_stmt 0 view .LVU388
 1204 0162 498B07   		movq	(%r15), %rax
 1205 0165 FF5008   		call	*8(%rax)
 1206              	.LVL127:
 375:fltk-1.3.4-1/jpeg/jdarith.c **** 	    return TRUE;
 1207              		.loc 1 375 6 is_stmt 1 view .LVU389
 375:fltk-1.3.4-1/jpeg/jdarith.c **** 	    return TRUE;
 1208              		.loc 1 375 18 is_stmt 0 view .LVU390
 1209 0168 41C74424 		movl	$-1, 40(%r12)
 1209      28FFFFFF 
 1209      FF
 376:fltk-1.3.4-1/jpeg/jdarith.c **** 	  }
 1210              		.loc 1 376 6 is_stmt 1 view .LVU391
 376:fltk-1.3.4-1/jpeg/jdarith.c **** 	  }
 1211              		.loc 1 376 13 is_stmt 0 view .LVU392
 1212 0171 EBC2     		jmp	.L84
 1213              	.LVL128:
 1214              		.p2align 4,,10
 1215 0173 0F1F4400 		.p2align 3
 1215      00
 1216              	.L117:
 368:fltk-1.3.4-1/jpeg/jdarith.c **** 	m <<= 1;
 1217              		.loc 1 368 7 is_stmt 1 view .LVU393
 368:fltk-1.3.4-1/jpeg/jdarith.c **** 	m <<= 1;
 1218              		.loc 1 368 11 is_stmt 0 view .LVU394
 1219 0178 4889DE   		movq	%rbx, %rsi
 1220 017b 4C89FF   		movq	%r15, %rdi
 1221 017e E8000000 		call	arith_decode
 1221      00
 1222              	.LVL129:
 368:fltk-1.3.4-1/jpeg/jdarith.c **** 	m <<= 1;
 1223              		.loc 1 368 10 view .LVU395
 1224 0183 85C0     		testl	%eax, %eax
 1225 0185 755D     		jne	.L118
 1226              	.L89:
 382:fltk-1.3.4-1/jpeg/jdarith.c ****     /* Figure F.24: Decoding the magnitude bit pattern of v */
 1227              		.loc 1 382 5 is_stmt 1 view .LVU396
 1228              	.LVL130:
 384:fltk-1.3.4-1/jpeg/jdarith.c ****     while (m >>= 1)
 1229              		.loc 1 384 5 view .LVU397
 385:fltk-1.3.4-1/jpeg/jdarith.c ****       if (arith_decode(cinfo, st)) v |= m;
 1230              		.loc 1 385 11 is_stmt 0 view .LVU398
 1231 0187 4589F5   		movl	%r14d, %r13d
 384:fltk-1.3.4-1/jpeg/jdarith.c ****     while (m >>= 1)
 1232              		.loc 1 384 8 view .LVU399
 1233 018a 4883C30E 		addq	$14, %rbx
 1234              	.LVL131:
 385:fltk-1.3.4-1/jpeg/jdarith.c ****       if (arith_decode(cinfo, st)) v |= m;
 1235              		.loc 1 385 5 is_stmt 1 view .LVU400
 385:fltk-1.3.4-1/jpeg/jdarith.c ****       if (arith_decode(cinfo, st)) v |= m;
 1236              		.loc 1 385 11 view .LVU401
 385:fltk-1.3.4-1/jpeg/jdarith.c ****       if (arith_decode(cinfo, st)) v |= m;
 1237              		.loc 1 385 11 is_stmt 0 view .LVU402
 1238 018e 41D1FD   		sarl	%r13d
 1239              	.LVL132:
 385:fltk-1.3.4-1/jpeg/jdarith.c ****       if (arith_decode(cinfo, st)) v |= m;
 1240              		.loc 1 385 11 view .LVU403
 1241 0191 7425     		je	.L113
 1242              		.p2align 4,,10
 1243 0193 0F1F4400 		.p2align 3
 1243      00
 1244              	.L94:
 386:fltk-1.3.4-1/jpeg/jdarith.c ****     v += 1; if (sign) v = -v;
 1245              		.loc 1 386 7 is_stmt 1 view .LVU404
 386:fltk-1.3.4-1/jpeg/jdarith.c ****     v += 1; if (sign) v = -v;
 1246              		.loc 1 386 11 is_stmt 0 view .LVU405
 1247 0198 4889DE   		movq	%rbx, %rsi
 1248 019b 4C89FF   		movq	%r15, %rdi
 1249 019e E8000000 		call	arith_decode
 1249      00
 1250              	.LVL133:
 1251 01a3 4189C0   		movl	%eax, %r8d
 386:fltk-1.3.4-1/jpeg/jdarith.c ****     v += 1; if (sign) v = -v;
 1252              		.loc 1 386 38 view .LVU406
 1253 01a6 4489F0   		movl	%r14d, %eax
 1254 01a9 4409E8   		orl	%r13d, %eax
 1255 01ac 4585C0   		testl	%r8d, %r8d
 1256 01af 440F45F0 		cmovne	%eax, %r14d
 1257              	.LVL134:
 385:fltk-1.3.4-1/jpeg/jdarith.c ****       if (arith_decode(cinfo, st)) v |= m;
 1258              		.loc 1 385 11 is_stmt 1 view .LVU407
 385:fltk-1.3.4-1/jpeg/jdarith.c ****       if (arith_decode(cinfo, st)) v |= m;
 1259              		.loc 1 385 11 is_stmt 0 view .LVU408
 1260 01b3 41D1FD   		sarl	%r13d
 1261              	.LVL135:
 385:fltk-1.3.4-1/jpeg/jdarith.c ****       if (arith_decode(cinfo, st)) v |= m;
 1262              		.loc 1 385 11 view .LVU409
 1263 01b6 75E0     		jne	.L94
 1264              	.L113:
 385:fltk-1.3.4-1/jpeg/jdarith.c ****       if (arith_decode(cinfo, st)) v |= m;
 1265              		.loc 1 385 11 view .LVU410
 1266 01b8 418D4601 		leal	1(%r14), %eax
 1267 01bc E93BFFFF 		jmp	.L88
 1267      FF
 1268              	.LVL136:
 1269              		.p2align 4,,10
 1270 01c1 0F1F8000 		.p2align 3
 1270      000000
 1271              	.L115:
 333:fltk-1.3.4-1/jpeg/jdarith.c ****     entropy->restarts_to_go--;
 1272              		.loc 1 333 7 view .LVU411
 1273 01c8 4C89FF   		movq	%r15, %rdi
 1274 01cb 48897424 		movq	%rsi, 8(%rsp)
 1274      08
 333:fltk-1.3.4-1/jpeg/jdarith.c ****     entropy->restarts_to_go--;
 1275              		.loc 1 333 7 is_stmt 1 view .LVU412
 1276 01d0 E8000000 		call	process_restart
 1276      00
 1277              	.LVL137:
 333:fltk-1.3.4-1/jpeg/jdarith.c ****     entropy->restarts_to_go--;
 1278              		.loc 1 333 7 is_stmt 0 view .LVU413
 1279 01d5 418B4424 		movl	76(%r12), %eax
 1279      4C
 1280 01da 488B7424 		movq	8(%rsp), %rsi
 1280      08
 1281 01df E94FFEFF 		jmp	.L82
 1281      FF
 1282              	.LVL138:
 1283              	.L118:
 369:fltk-1.3.4-1/jpeg/jdarith.c **** 	st = entropy->ac_stats[tbl] +
 1284              		.loc 1 369 2 is_stmt 1 view .LVU414
 371:fltk-1.3.4-1/jpeg/jdarith.c **** 	while (arith_decode(cinfo, st)) {
 1285              		.loc 1 371 30 is_stmt 0 view .LVU415
 1286 01e4 488B4424 		movq	40(%rsp), %rax
 1286      28
 369:fltk-1.3.4-1/jpeg/jdarith.c **** 	st = entropy->ac_stats[tbl] +
 1287              		.loc 1 369 4 view .LVU416
 1288 01e9 4501F6   		addl	%r14d, %r14d
 1289              	.LVL139:
 370:fltk-1.3.4-1/jpeg/jdarith.c **** 	     (k <= cinfo->arith_ac_K[tbl] ? 189 : 217);
 1290              		.loc 1 370 2 is_stmt 1 view .LVU417
 371:fltk-1.3.4-1/jpeg/jdarith.c **** 	while (arith_decode(cinfo, st)) {
 1291              		.loc 1 371 42 is_stmt 0 view .LVU418
 1292 01ec BBBD0000 		movl	$189, %ebx
 1292      00
 1293              	.LVL140:
 371:fltk-1.3.4-1/jpeg/jdarith.c **** 	while (arith_decode(cinfo, st)) {
 1294              		.loc 1 371 30 view .LVU419
 1295 01f1 410FB684 		movzbl	356(%r15,%rax), %eax
 1295      07640100 
 1295      00
 371:fltk-1.3.4-1/jpeg/jdarith.c **** 	while (arith_decode(cinfo, st)) {
 1296              		.loc 1 371 42 view .LVU420
 1297 01fa 39E8     		cmpl	%ebp, %eax
 1298 01fc B8D90000 		movl	$217, %eax
 1298      00
 1299 0201 480F4CD8 		cmovl	%rax, %rbx
 370:fltk-1.3.4-1/jpeg/jdarith.c **** 	     (k <= cinfo->arith_ac_K[tbl] ? 189 : 217);
 1300              		.loc 1 370 5 view .LVU421
 1301 0205 488B4424 		movq	8(%rsp), %rax
 1301      08
 1302 020a 480398D0 		addq	208(%rax), %rbx
 1302      000000
 1303              	.LVL141:
 372:fltk-1.3.4-1/jpeg/jdarith.c **** 	  if ((m <<= 1) == 0x8000) {
 1304              		.loc 1 372 2 is_stmt 1 view .LVU422
 372:fltk-1.3.4-1/jpeg/jdarith.c **** 	  if ((m <<= 1) == 0x8000) {
 1305              		.loc 1 372 8 is_stmt 0 view .LVU423
 1306 0211 EB19     		jmp	.L91
 1307              		.p2align 4,,10
 1308 0213 0F1F4400 		.p2align 3
 1308      00
 1309              	.L93:
 373:fltk-1.3.4-1/jpeg/jdarith.c **** 	    WARNMS(cinfo, JWRN_ARITH_BAD_CODE);
 1310              		.loc 1 373 4 is_stmt 1 view .LVU424
 373:fltk-1.3.4-1/jpeg/jdarith.c **** 	    WARNMS(cinfo, JWRN_ARITH_BAD_CODE);
 1311              		.loc 1 373 11 is_stmt 0 view .LVU425
 1312 0218 4501F6   		addl	%r14d, %r14d
 1313              	.LVL142:
 373:fltk-1.3.4-1/jpeg/jdarith.c **** 	    WARNMS(cinfo, JWRN_ARITH_BAD_CODE);
 1314              		.loc 1 373 7 view .LVU426
 1315 021b 4181FE00 		cmpl	$32768, %r14d
 1315      800000
 1316 0222 0F8428FF 		je	.L114
 1316      FFFF
 378:fltk-1.3.4-1/jpeg/jdarith.c **** 	}
 1317              		.loc 1 378 4 is_stmt 1 view .LVU427
 378:fltk-1.3.4-1/jpeg/jdarith.c **** 	}
 1318              		.loc 1 378 7 is_stmt 0 view .LVU428
 1319 0228 4883C301 		addq	$1, %rbx
 1320              	.LVL143:
 1321              	.L91:
 372:fltk-1.3.4-1/jpeg/jdarith.c **** 	  if ((m <<= 1) == 0x8000) {
 1322              		.loc 1 372 8 is_stmt 1 view .LVU429
 372:fltk-1.3.4-1/jpeg/jdarith.c **** 	  if ((m <<= 1) == 0x8000) {
 1323              		.loc 1 372 9 is_stmt 0 view .LVU430
 1324 022c 4889DE   		movq	%rbx, %rsi
 1325 022f 4C89FF   		movq	%r15, %rdi
 1326 0232 E8000000 		call	arith_decode
 1326      00
 1327              	.LVL144:
 372:fltk-1.3.4-1/jpeg/jdarith.c **** 	  if ((m <<= 1) == 0x8000) {
 1328              		.loc 1 372 8 view .LVU431
 1329 0237 85C0     		testl	%eax, %eax
 1330 0239 75DD     		jne	.L93
 372:fltk-1.3.4-1/jpeg/jdarith.c **** 	  if ((m <<= 1) == 0x8000) {
 1331              		.loc 1 372 8 view .LVU432
 1332 023b E947FFFF 		jmp	.L89
 1332      FF
 1333              		.cfi_endproc
 1334              	.LFE55:
 1336              		.section	.text.decode_mcu_DC_refine,"ax",@progbits
 1337              		.p2align 4
 1339              	decode_mcu_DC_refine:
 1340              	.LVL145:
 1341              	.LFB56:
 404:fltk-1.3.4-1/jpeg/jdarith.c ****   arith_entropy_ptr entropy = (arith_entropy_ptr) cinfo->entropy;
 1342              		.loc 1 404 1 is_stmt 1 view -0
 1343              		.cfi_startproc
 404:fltk-1.3.4-1/jpeg/jdarith.c ****   arith_entropy_ptr entropy = (arith_entropy_ptr) cinfo->entropy;
 1344              		.loc 1 404 1 is_stmt 0 view .LVU434
 1345 0000 F30F1EFA 		endbr64
 405:fltk-1.3.4-1/jpeg/jdarith.c ****   unsigned char *st;
 1346              		.loc 1 405 3 is_stmt 1 view .LVU435
 404:fltk-1.3.4-1/jpeg/jdarith.c ****   arith_entropy_ptr entropy = (arith_entropy_ptr) cinfo->entropy;
 1347              		.loc 1 404 1 is_stmt 0 view .LVU436
 1348 0004 4156     		pushq	%r14
 1349              		.cfi_def_cfa_offset 16
 1350              		.cfi_offset 14, -16
 1351 0006 4989F6   		movq	%rsi, %r14
 1352 0009 4155     		pushq	%r13
 1353              		.cfi_def_cfa_offset 24
 1354              		.cfi_offset 13, -24
 1355 000b 4154     		pushq	%r12
 1356              		.cfi_def_cfa_offset 32
 1357              		.cfi_offset 12, -32
 1358 000d 55       		pushq	%rbp
 1359              		.cfi_def_cfa_offset 40
 1360              		.cfi_offset 6, -40
 1361 000e 4889FD   		movq	%rdi, %rbp
 1362 0011 53       		pushq	%rbx
 1363              		.cfi_def_cfa_offset 48
 1364              		.cfi_offset 3, -48
 410:fltk-1.3.4-1/jpeg/jdarith.c ****     if (entropy->restarts_to_go == 0)
 1365              		.loc 1 410 6 view .LVU437
 1366 0012 8B977401 		movl	372(%rdi), %edx
 1366      0000
 405:fltk-1.3.4-1/jpeg/jdarith.c ****   unsigned char *st;
 1367              		.loc 1 405 21 view .LVU438
 1368 0018 4C8BA770 		movq	624(%rdi), %r12
 1368      020000
 1369              	.LVL146:
 406:fltk-1.3.4-1/jpeg/jdarith.c ****   int p1, blkn;
 1370              		.loc 1 406 3 is_stmt 1 view .LVU439
 407:fltk-1.3.4-1/jpeg/jdarith.c **** 
 1371              		.loc 1 407 3 view .LVU440
 410:fltk-1.3.4-1/jpeg/jdarith.c ****     if (entropy->restarts_to_go == 0)
 1372              		.loc 1 410 3 view .LVU441
 410:fltk-1.3.4-1/jpeg/jdarith.c ****     if (entropy->restarts_to_go == 0)
 1373              		.loc 1 410 6 is_stmt 0 view .LVU442
 1374 001f 85D2     		testl	%edx, %edx
 1375 0021 7411     		je	.L120
 411:fltk-1.3.4-1/jpeg/jdarith.c ****       process_restart(cinfo);
 1376              		.loc 1 411 5 is_stmt 1 view .LVU443
 411:fltk-1.3.4-1/jpeg/jdarith.c ****       process_restart(cinfo);
 1377              		.loc 1 411 16 is_stmt 0 view .LVU444
 1378 0023 418B4424 		movl	76(%r12), %eax
 1378      4C
 411:fltk-1.3.4-1/jpeg/jdarith.c ****       process_restart(cinfo);
 1379              		.loc 1 411 8 view .LVU445
 1380 0028 85C0     		testl	%eax, %eax
 1381 002a 746C     		je	.L133
 1382              	.LVL147:
 1383              	.L121:
 413:fltk-1.3.4-1/jpeg/jdarith.c ****   }
 1384              		.loc 1 413 5 is_stmt 1 view .LVU446
 413:fltk-1.3.4-1/jpeg/jdarith.c ****   }
 1385              		.loc 1 413 28 is_stmt 0 view .LVU447
 1386 002c 83E801   		subl	$1, %eax
 1387 002f 41894424 		movl	%eax, 76(%r12)
 1387      4C
 1388              	.L120:
 416:fltk-1.3.4-1/jpeg/jdarith.c ****   p1 = 1 << cinfo->Al;		/* 1 in the bit position being coded */
 1389              		.loc 1 416 3 is_stmt 1 view .LVU448
 417:fltk-1.3.4-1/jpeg/jdarith.c **** 
 1390              		.loc 1 417 6 is_stmt 0 view .LVU449
 1391 0034 8B8D2802 		movl	552(%rbp), %ecx
 1391      0000
 421:fltk-1.3.4-1/jpeg/jdarith.c ****     /* Encoded data is simply the next bit of the two's-complement DC value */
 1392              		.loc 1 421 3 view .LVU450
 1393 003a 8B85F001 		movl	496(%rbp), %eax
 1393      0000
 417:fltk-1.3.4-1/jpeg/jdarith.c **** 
 1394              		.loc 1 417 6 view .LVU451
 1395 0040 41BD0100 		movl	$1, %r13d
 1395      0000
 421:fltk-1.3.4-1/jpeg/jdarith.c ****     /* Encoded data is simply the next bit of the two's-complement DC value */
 1396              		.loc 1 421 3 view .LVU452
 1397 0046 31DB     		xorl	%ebx, %ebx
 416:fltk-1.3.4-1/jpeg/jdarith.c ****   p1 = 1 << cinfo->Al;		/* 1 in the bit position being coded */
 1398              		.loc 1 416 6 view .LVU453
 1399 0048 4981C450 		addq	$336, %r12
 1399      010000
 1400              	.LVL148:
 417:fltk-1.3.4-1/jpeg/jdarith.c **** 
 1401              		.loc 1 417 3 is_stmt 1 view .LVU454
 417:fltk-1.3.4-1/jpeg/jdarith.c **** 
 1402              		.loc 1 417 6 is_stmt 0 view .LVU455
 1403 004f 41D3E5   		sall	%cl, %r13d
 1404              	.LVL149:
 421:fltk-1.3.4-1/jpeg/jdarith.c ****     /* Encoded data is simply the next bit of the two's-complement DC value */
 1405              		.loc 1 421 3 is_stmt 1 view .LVU456
 421:fltk-1.3.4-1/jpeg/jdarith.c ****     /* Encoded data is simply the next bit of the two's-complement DC value */
 1406              		.loc 1 421 18 view .LVU457
 421:fltk-1.3.4-1/jpeg/jdarith.c ****     /* Encoded data is simply the next bit of the two's-complement DC value */
 1407              		.loc 1 421 3 is_stmt 0 view .LVU458
 1408 0052 85C0     		testl	%eax, %eax
 1409 0054 7E2D     		jle	.L131
 1410              	.LVL150:
 1411 0056 662E0F1F 		.p2align 4,,10
 1411      84000000 
 1411      0000
 1412              		.p2align 3
 1413              	.L122:
 423:fltk-1.3.4-1/jpeg/jdarith.c ****       MCU_data[blkn][0][0] |= p1;
 1414              		.loc 1 423 5 is_stmt 1 view .LVU459
 423:fltk-1.3.4-1/jpeg/jdarith.c ****       MCU_data[blkn][0][0] |= p1;
 1415              		.loc 1 423 9 is_stmt 0 view .LVU460
 1416 0060 4C89E6   		movq	%r12, %rsi
 1417 0063 4889EF   		movq	%rbp, %rdi
 1418 0066 E8000000 		call	arith_decode
 1418      00
 1419              	.LVL151:
 423:fltk-1.3.4-1/jpeg/jdarith.c ****       MCU_data[blkn][0][0] |= p1;
 1420              		.loc 1 423 8 view .LVU461
 1421 006b 85C0     		testl	%eax, %eax
 1422 006d 7408     		je	.L123
 424:fltk-1.3.4-1/jpeg/jdarith.c ****   }
 1423              		.loc 1 424 7 is_stmt 1 view .LVU462
 424:fltk-1.3.4-1/jpeg/jdarith.c ****   }
 1424              		.loc 1 424 15 is_stmt 0 view .LVU463
 1425 006f 498B04DE 		movq	(%r14,%rbx,8), %rax
 424:fltk-1.3.4-1/jpeg/jdarith.c ****   }
 1426              		.loc 1 424 28 view .LVU464
 1427 0073 66440928 		orw	%r13w, (%rax)
 1428              	.L123:
 421:fltk-1.3.4-1/jpeg/jdarith.c ****     /* Encoded data is simply the next bit of the two's-complement DC value */
 1429              		.loc 1 421 47 is_stmt 1 discriminator 2 view .LVU465
 1430              	.LVL152:
 421:fltk-1.3.4-1/jpeg/jdarith.c ****     /* Encoded data is simply the next bit of the two's-complement DC value */
 1431              		.loc 1 421 18 discriminator 2 view .LVU466
 1432 0077 4883C301 		addq	$1, %rbx
 1433              	.LVL153:
 421:fltk-1.3.4-1/jpeg/jdarith.c ****     /* Encoded data is simply the next bit of the two's-complement DC value */
 1434              		.loc 1 421 3 is_stmt 0 discriminator 2 view .LVU467
 1435 007b 399DF001 		cmpl	%ebx, 496(%rbp)
 1435      0000
 1436 0081 7FDD     		jg	.L122
 1437              	.L131:
 428:fltk-1.3.4-1/jpeg/jdarith.c **** 
 1438              		.loc 1 428 1 view .LVU468
 1439 0083 5B       		popq	%rbx
 1440              		.cfi_remember_state
 1441              		.cfi_def_cfa_offset 40
 1442 0084 B8010000 		movl	$1, %eax
 1442      00
 1443 0089 5D       		popq	%rbp
 1444              		.cfi_def_cfa_offset 32
 1445              	.LVL154:
 428:fltk-1.3.4-1/jpeg/jdarith.c **** 
 1446              		.loc 1 428 1 view .LVU469
 1447 008a 415C     		popq	%r12
 1448              		.cfi_def_cfa_offset 24
 1449              	.LVL155:
 428:fltk-1.3.4-1/jpeg/jdarith.c **** 
 1450              		.loc 1 428 1 view .LVU470
 1451 008c 415D     		popq	%r13
 1452              		.cfi_def_cfa_offset 16
 1453              	.LVL156:
 428:fltk-1.3.4-1/jpeg/jdarith.c **** 
 1454              		.loc 1 428 1 view .LVU471
 1455 008e 415E     		popq	%r14
 1456              		.cfi_def_cfa_offset 8
 1457              	.LVL157:
 428:fltk-1.3.4-1/jpeg/jdarith.c **** 
 1458              		.loc 1 428 1 view .LVU472
 1459 0090 C3       		ret
 1460              	.LVL158:
 1461              		.p2align 4,,10
 1462 0091 0F1F8000 		.p2align 3
 1462      000000
 1463              	.L133:
 1464              		.cfi_restore_state
 412:fltk-1.3.4-1/jpeg/jdarith.c ****     entropy->restarts_to_go--;
 1465              		.loc 1 412 7 is_stmt 1 view .LVU473
 1466 0098 E8000000 		call	process_restart
 1466      00
 1467              	.LVL159:
 412:fltk-1.3.4-1/jpeg/jdarith.c ****     entropy->restarts_to_go--;
 1468              		.loc 1 412 7 is_stmt 0 view .LVU474
 1469 009d 418B4424 		movl	76(%r12), %eax
 1469      4C
 1470 00a2 EB88     		jmp	.L121
 1471              		.cfi_endproc
 1472              	.LFE56:
 1474              		.section	.text.decode_mcu_AC_refine,"ax",@progbits
 1475              		.p2align 4
 1477              	decode_mcu_AC_refine:
 1478              	.LVL160:
 1479              	.LFB57:
 437:fltk-1.3.4-1/jpeg/jdarith.c ****   arith_entropy_ptr entropy = (arith_entropy_ptr) cinfo->entropy;
 1480              		.loc 1 437 1 is_stmt 1 view -0
 1481              		.cfi_startproc
 437:fltk-1.3.4-1/jpeg/jdarith.c ****   arith_entropy_ptr entropy = (arith_entropy_ptr) cinfo->entropy;
 1482              		.loc 1 437 1 is_stmt 0 view .LVU476
 1483 0000 F30F1EFA 		endbr64
 438:fltk-1.3.4-1/jpeg/jdarith.c ****   JBLOCKROW block;
 1484              		.loc 1 438 3 is_stmt 1 view .LVU477
 437:fltk-1.3.4-1/jpeg/jdarith.c ****   arith_entropy_ptr entropy = (arith_entropy_ptr) cinfo->entropy;
 1485              		.loc 1 437 1 is_stmt 0 view .LVU478
 1486 0004 4157     		pushq	%r15
 1487              		.cfi_def_cfa_offset 16
 1488              		.cfi_offset 15, -16
 1489 0006 4989FF   		movq	%rdi, %r15
 1490 0009 4156     		pushq	%r14
 1491              		.cfi_def_cfa_offset 24
 1492              		.cfi_offset 14, -24
 1493 000b 4155     		pushq	%r13
 1494              		.cfi_def_cfa_offset 32
 1495              		.cfi_offset 13, -32
 1496 000d 4154     		pushq	%r12
 1497              		.cfi_def_cfa_offset 40
 1498              		.cfi_offset 12, -40
 1499 000f 55       		pushq	%rbp
 1500              		.cfi_def_cfa_offset 48
 1501              		.cfi_offset 6, -48
 1502 0010 53       		pushq	%rbx
 1503              		.cfi_def_cfa_offset 56
 1504              		.cfi_offset 3, -56
 1505 0011 4883EC38 		subq	$56, %rsp
 1506              		.cfi_def_cfa_offset 112
 438:fltk-1.3.4-1/jpeg/jdarith.c ****   JBLOCKROW block;
 1507              		.loc 1 438 21 view .LVU479
 1508 0015 488B8770 		movq	624(%rdi), %rax
 1508      020000
 447:fltk-1.3.4-1/jpeg/jdarith.c ****     if (entropy->restarts_to_go == 0)
 1509              		.loc 1 447 6 view .LVU480
 1510 001c 8B977401 		movl	372(%rdi), %edx
 1510      0000
 438:fltk-1.3.4-1/jpeg/jdarith.c ****   JBLOCKROW block;
 1511              		.loc 1 438 21 view .LVU481
 1512 0022 48894424 		movq	%rax, 24(%rsp)
 1512      18
 1513              	.LVL161:
 439:fltk-1.3.4-1/jpeg/jdarith.c ****   JCOEFPTR thiscoef;
 1514              		.loc 1 439 3 is_stmt 1 view .LVU482
 440:fltk-1.3.4-1/jpeg/jdarith.c ****   unsigned char *st;
 1515              		.loc 1 440 3 view .LVU483
 441:fltk-1.3.4-1/jpeg/jdarith.c ****   int tbl, k, kex;
 1516              		.loc 1 441 3 view .LVU484
 442:fltk-1.3.4-1/jpeg/jdarith.c ****   int p1, m1;
 1517              		.loc 1 442 3 view .LVU485
 443:fltk-1.3.4-1/jpeg/jdarith.c ****   const int * natural_order;
 1518              		.loc 1 443 3 view .LVU486
 444:fltk-1.3.4-1/jpeg/jdarith.c **** 
 1519              		.loc 1 444 3 view .LVU487
 447:fltk-1.3.4-1/jpeg/jdarith.c ****     if (entropy->restarts_to_go == 0)
 1520              		.loc 1 447 3 view .LVU488
 447:fltk-1.3.4-1/jpeg/jdarith.c ****     if (entropy->restarts_to_go == 0)
 1521              		.loc 1 447 6 is_stmt 0 view .LVU489
 1522 0027 85D2     		testl	%edx, %edx
 1523 0029 7416     		je	.L135
 448:fltk-1.3.4-1/jpeg/jdarith.c ****       process_restart(cinfo);
 1524              		.loc 1 448 5 is_stmt 1 view .LVU490
 448:fltk-1.3.4-1/jpeg/jdarith.c ****       process_restart(cinfo);
 1525              		.loc 1 448 16 is_stmt 0 view .LVU491
 1526 002b 8B404C   		movl	76(%rax), %eax
 1527              	.LVL162:
 448:fltk-1.3.4-1/jpeg/jdarith.c ****       process_restart(cinfo);
 1528              		.loc 1 448 8 view .LVU492
 1529 002e 85C0     		testl	%eax, %eax
 1530 0030 0F84C301 		je	.L158
 1530      0000
 1531              	.LVL163:
 1532              	.L136:
 450:fltk-1.3.4-1/jpeg/jdarith.c ****   }
 1533              		.loc 1 450 5 is_stmt 1 view .LVU493
 450:fltk-1.3.4-1/jpeg/jdarith.c ****   }
 1534              		.loc 1 450 28 is_stmt 0 view .LVU494
 1535 0036 488B5424 		movq	24(%rsp), %rdx
 1535      18
 1536 003b 83E801   		subl	$1, %eax
 1537 003e 89424C   		movl	%eax, 76(%rdx)
 1538              	.L135:
 453:fltk-1.3.4-1/jpeg/jdarith.c **** 
 1539              		.loc 1 453 3 is_stmt 1 view .LVU495
 453:fltk-1.3.4-1/jpeg/jdarith.c **** 
 1540              		.loc 1 453 6 is_stmt 0 view .LVU496
 1541 0041 488B4424 		movq	24(%rsp), %rax
 1541      18
 1542 0046 837828FF 		cmpl	$-1, 40(%rax)
 1543 004a 0F841C01 		je	.L138
 1543      0000
 455:fltk-1.3.4-1/jpeg/jdarith.c **** 
 1544              		.loc 1 455 3 is_stmt 1 view .LVU497
 455:fltk-1.3.4-1/jpeg/jdarith.c **** 
 1545              		.loc 1 455 17 is_stmt 0 view .LVU498
 1546 0050 498B8730 		movq	560(%r15), %rax
 1546      020000
 461:fltk-1.3.4-1/jpeg/jdarith.c ****   m1 = (-1) << cinfo->Al;	/* -1 in the bit position being coded */
 1547              		.loc 1 461 18 view .LVU499
 1548 0057 418B8F28 		movl	552(%r15), %ecx
 1548      020000
 458:fltk-1.3.4-1/jpeg/jdarith.c ****   tbl = cinfo->cur_comp_info[0]->ac_tbl_no;
 1549              		.loc 1 458 9 view .LVU500
 1550 005e 4C8B26   		movq	(%rsi), %r12
 455:fltk-1.3.4-1/jpeg/jdarith.c **** 
 1551              		.loc 1 455 17 view .LVU501
 1552 0061 48894424 		movq	%rax, 8(%rsp)
 1552      08
 1553              	.LVL164:
 458:fltk-1.3.4-1/jpeg/jdarith.c ****   tbl = cinfo->cur_comp_info[0]->ac_tbl_no;
 1554              		.loc 1 458 3 is_stmt 1 view .LVU502
 459:fltk-1.3.4-1/jpeg/jdarith.c **** 
 1555              		.loc 1 459 3 view .LVU503
 459:fltk-1.3.4-1/jpeg/jdarith.c **** 
 1556              		.loc 1 459 7 is_stmt 0 view .LVU504
 1557 0066 498B87C8 		movq	456(%r15), %rax
 1557      010000
 1558              	.LVL165:
 459:fltk-1.3.4-1/jpeg/jdarith.c **** 
 1559              		.loc 1 459 7 view .LVU505
 1560 006d 8B7018   		movl	24(%rax), %esi
 1561              	.LVL166:
 461:fltk-1.3.4-1/jpeg/jdarith.c ****   m1 = (-1) << cinfo->Al;	/* -1 in the bit position being coded */
 1562              		.loc 1 461 3 is_stmt 1 view .LVU506
 461:fltk-1.3.4-1/jpeg/jdarith.c ****   m1 = (-1) << cinfo->Al;	/* -1 in the bit position being coded */
 1563              		.loc 1 461 6 is_stmt 0 view .LVU507
 1564 0070 B8010000 		movl	$1, %eax
 1564      00
 1565 0075 D3E0     		sall	%cl, %eax
 1566 0077 89442428 		movl	%eax, 40(%rsp)
 1567              	.LVL167:
 462:fltk-1.3.4-1/jpeg/jdarith.c **** 
 1568              		.loc 1 462 3 is_stmt 1 view .LVU508
 462:fltk-1.3.4-1/jpeg/jdarith.c **** 
 1569              		.loc 1 462 6 is_stmt 0 view .LVU509
 1570 007b B8FFFFFF 		movl	$-1, %eax
 1570      FF
 1571              	.LVL168:
 462:fltk-1.3.4-1/jpeg/jdarith.c **** 
 1572              		.loc 1 462 6 view .LVU510
 1573 0080 D3E0     		sall	%cl, %eax
 1574 0082 8944242C 		movl	%eax, 44(%rsp)
 1575              	.LVL169:
 465:fltk-1.3.4-1/jpeg/jdarith.c ****   do {
 1576              		.loc 1 465 3 is_stmt 1 view .LVU511
 465:fltk-1.3.4-1/jpeg/jdarith.c ****   do {
 1577              		.loc 1 465 3 is_stmt 0 view .LVU512
 1578 0086 49638720 		movslq	544(%r15), %rax
 1578      020000
 1579              	.LVL170:
 465:fltk-1.3.4-1/jpeg/jdarith.c ****   do {
 1580              		.loc 1 465 3 view .LVU513
 1581 008d EB0D     		jmp	.L140
 1582              	.LVL171:
 1583 008f 90       		.p2align 4,,10
 1584              		.p2align 3
 1585              	.L159:
 468:fltk-1.3.4-1/jpeg/jdarith.c **** 
 1586              		.loc 1 468 11 is_stmt 1 view .LVU514
 468:fltk-1.3.4-1/jpeg/jdarith.c **** 
 1587              		.loc 1 468 11 is_stmt 0 view .LVU515
 1588 0090 4883E801 		subq	$1, %rax
 1589              	.LVL172:
 468:fltk-1.3.4-1/jpeg/jdarith.c **** 
 1590              		.loc 1 468 11 view .LVU516
 1591 0094 89442414 		movl	%eax, 20(%rsp)
 1592              	.LVL173:
 468:fltk-1.3.4-1/jpeg/jdarith.c **** 
 1593              		.loc 1 468 3 view .LVU517
 1594 0098 85C0     		testl	%eax, %eax
 1595 009a 7415     		je	.L139
 1596              	.L140:
 467:fltk-1.3.4-1/jpeg/jdarith.c ****   } while (--kex);
 1597              		.loc 1 467 17 view .LVU518
 1598 009c 488B4C24 		movq	8(%rsp), %rcx
 1598      08
 1599 00a1 89442414 		movl	%eax, 20(%rsp)
 1600              	.LVL174:
 466:fltk-1.3.4-1/jpeg/jdarith.c ****     if ((*block)[natural_order[kex]]) break;
 1601              		.loc 1 466 3 is_stmt 1 view .LVU519
 467:fltk-1.3.4-1/jpeg/jdarith.c ****   } while (--kex);
 1602              		.loc 1 467 5 view .LVU520
 467:fltk-1.3.4-1/jpeg/jdarith.c ****   } while (--kex);
 1603              		.loc 1 467 17 is_stmt 0 view .LVU521
 1604 00a5 48631481 		movslq	(%rcx,%rax,4), %rdx
 467:fltk-1.3.4-1/jpeg/jdarith.c ****   } while (--kex);
 1605              		.loc 1 467 8 view .LVU522
 1606 00a9 6641833C 		cmpw	$0, (%r12,%rdx,2)
 1606      5400
 1607 00af 74DF     		je	.L159
 1608              	.LVL175:
 1609              	.L139:
 470:fltk-1.3.4-1/jpeg/jdarith.c ****   do {
 1610              		.loc 1 470 3 is_stmt 1 view .LVU523
 470:fltk-1.3.4-1/jpeg/jdarith.c ****   do {
 1611              		.loc 1 470 5 is_stmt 0 view .LVU524
 1612 00b1 418B871C 		movl	540(%r15), %eax
 1612      020000
 1613 00b8 8D58FF   		leal	-1(%rax), %ebx
 1614              	.LVL176:
 470:fltk-1.3.4-1/jpeg/jdarith.c ****   do {
 1615              		.loc 1 470 5 view .LVU525
 1616 00bb 4863C6   		movslq	%esi, %rax
 472:fltk-1.3.4-1/jpeg/jdarith.c ****     if (k >= kex)
 1617              		.loc 1 472 27 view .LVU526
 1618 00be 4883C01A 		addq	$26, %rax
 1619 00c2 48894424 		movq	%rax, 32(%rsp)
 1619      20
 1620              	.LVL177:
 1621              	.L150:
 471:fltk-1.3.4-1/jpeg/jdarith.c ****     st = entropy->ac_stats[tbl] + 3 * k;
 1622              		.loc 1 471 3 is_stmt 1 view .LVU527
 472:fltk-1.3.4-1/jpeg/jdarith.c ****     if (k >= kex)
 1623              		.loc 1 472 5 view .LVU528
 472:fltk-1.3.4-1/jpeg/jdarith.c ****     if (k >= kex)
 1624              		.loc 1 472 8 is_stmt 0 view .LVU529
 1625 00c7 488B4424 		movq	24(%rsp), %rax
 1625      18
 1626 00cc 488B5424 		movq	32(%rsp), %rdx
 1626      20
 472:fltk-1.3.4-1/jpeg/jdarith.c ****     if (k >= kex)
 1627              		.loc 1 472 37 view .LVU530
 1628 00d1 8D0C5B   		leal	(%rbx,%rbx,2), %ecx
 1629 00d4 4863C9   		movslq	%ecx, %rcx
 472:fltk-1.3.4-1/jpeg/jdarith.c ****     if (k >= kex)
 1630              		.loc 1 472 8 view .LVU531
 1631 00d7 48030CD0 		addq	(%rax,%rdx,8), %rcx
 1632 00db 4989CD   		movq	%rcx, %r13
 1633              	.LVL178:
 473:fltk-1.3.4-1/jpeg/jdarith.c ****       if (arith_decode(cinfo, st)) break;	/* EOB flag */
 1634              		.loc 1 473 5 is_stmt 1 view .LVU532
 473:fltk-1.3.4-1/jpeg/jdarith.c ****       if (arith_decode(cinfo, st)) break;	/* EOB flag */
 1635              		.loc 1 473 8 is_stmt 0 view .LVU533
 1636 00de 3B5C2414 		cmpl	20(%rsp), %ebx
 1637 00e2 0F8D9800 		jge	.L141
 1637      0000
 1638              	.LVL179:
 1639              	.L144:
 473:fltk-1.3.4-1/jpeg/jdarith.c ****       if (arith_decode(cinfo, st)) break;	/* EOB flag */
 1640              		.loc 1 473 8 view .LVU534
 1641 00e8 83C301   		addl	$1, %ebx
 1642              	.LVL180:
 473:fltk-1.3.4-1/jpeg/jdarith.c ****       if (arith_decode(cinfo, st)) break;	/* EOB flag */
 1643              		.loc 1 473 8 view .LVU535
 1644 00eb 4863EB   		movslq	%ebx, %rbp
 1645 00ee EB2C     		jmp	.L142
 1646              	.LVL181:
 1647              		.p2align 4,,10
 1648              		.p2align 3
 1649              	.L145:
 486:fltk-1.3.4-1/jpeg/jdarith.c **** 	if (arith_decode(cinfo, entropy->fixed_bin))
 1650              		.loc 1 486 7 is_stmt 1 view .LVU536
 486:fltk-1.3.4-1/jpeg/jdarith.c **** 	if (arith_decode(cinfo, entropy->fixed_bin))
 1651              		.loc 1 486 11 is_stmt 0 view .LVU537
 1652 00f0 498D7501 		leaq	1(%r13), %rsi
 1653 00f4 4C89FF   		movq	%r15, %rdi
 1654 00f7 E8000000 		call	arith_decode
 1654      00
 1655              	.LVL182:
 486:fltk-1.3.4-1/jpeg/jdarith.c **** 	if (arith_decode(cinfo, entropy->fixed_bin))
 1656              		.loc 1 486 10 view .LVU538
 1657 00fc 85C0     		testl	%eax, %eax
 1658 00fe 0F859400 		jne	.L160
 1658      0000
 493:fltk-1.3.4-1/jpeg/jdarith.c ****       if (k >= cinfo->Se) {
 1659              		.loc 1 493 7 is_stmt 1 view .LVU539
 1660 0104 4883C501 		addq	$1, %rbp
 493:fltk-1.3.4-1/jpeg/jdarith.c ****       if (k >= cinfo->Se) {
 1661              		.loc 1 493 10 is_stmt 0 view .LVU540
 1662 0108 4983C503 		addq	$3, %r13
 1663              	.LVL183:
 494:fltk-1.3.4-1/jpeg/jdarith.c **** 	WARNMS(cinfo, JWRN_ARITH_BAD_CODE);
 1664              		.loc 1 494 7 is_stmt 1 view .LVU541
 494:fltk-1.3.4-1/jpeg/jdarith.c **** 	WARNMS(cinfo, JWRN_ARITH_BAD_CODE);
 1665              		.loc 1 494 10 is_stmt 0 view .LVU542
 1666 010c 8D45FF   		leal	-1(%rbp), %eax
 1667 010f 41398720 		cmpl	%eax, 544(%r15)
 1667      020000
 1668 0116 0F8EB400 		jle	.L161
 1668      0000
 1669              	.LVL184:
 1670              	.L142:
 475:fltk-1.3.4-1/jpeg/jdarith.c ****       thiscoef = *block + natural_order[++k];
 1671              		.loc 1 475 5 is_stmt 1 view .LVU543
 476:fltk-1.3.4-1/jpeg/jdarith.c ****       if (*thiscoef) {				/* previously nonzero coef */
 1672              		.loc 1 476 7 view .LVU544
 476:fltk-1.3.4-1/jpeg/jdarith.c ****       if (*thiscoef) {				/* previously nonzero coef */
 1673              		.loc 1 476 40 is_stmt 0 view .LVU545
 1674 011c 488B4424 		movq	8(%rsp), %rax
 1674      08
 476:fltk-1.3.4-1/jpeg/jdarith.c ****       if (*thiscoef) {				/* previously nonzero coef */
 1675              		.loc 1 476 16 view .LVU546
 1676 0121 89EB     		movl	%ebp, %ebx
 1677              	.LVL185:
 476:fltk-1.3.4-1/jpeg/jdarith.c ****       if (*thiscoef) {				/* previously nonzero coef */
 1678              		.loc 1 476 40 view .LVU547
 1679 0123 486304A8 		movslq	(%rax,%rbp,4), %rax
 476:fltk-1.3.4-1/jpeg/jdarith.c ****       if (*thiscoef) {				/* previously nonzero coef */
 1680              		.loc 1 476 16 view .LVU548
 1681 0127 4D8D3444 		leaq	(%r12,%rax,2), %r14
 1682              	.LVL186:
 477:fltk-1.3.4-1/jpeg/jdarith.c **** 	if (arith_decode(cinfo, st + 2)) {
 1683              		.loc 1 477 7 is_stmt 1 view .LVU549
 477:fltk-1.3.4-1/jpeg/jdarith.c **** 	if (arith_decode(cinfo, st + 2)) {
 1684              		.loc 1 477 10 is_stmt 0 view .LVU550
 1685 012b 6641833E 		cmpw	$0, (%r14)
 1685      00
 1686 0130 74BE     		je	.L145
 478:fltk-1.3.4-1/jpeg/jdarith.c **** 	  if (*thiscoef < 0)
 1687              		.loc 1 478 2 is_stmt 1 view .LVU551
 478:fltk-1.3.4-1/jpeg/jdarith.c **** 	  if (*thiscoef < 0)
 1688              		.loc 1 478 6 is_stmt 0 view .LVU552
 1689 0132 498D7502 		leaq	2(%r13), %rsi
 1690 0136 4C89FF   		movq	%r15, %rdi
 1691 0139 E8000000 		call	arith_decode
 1691      00
 1692              	.LVL187:
 478:fltk-1.3.4-1/jpeg/jdarith.c **** 	  if (*thiscoef < 0)
 1693              		.loc 1 478 5 view .LVU553
 1694 013e 85C0     		testl	%eax, %eax
 1695 0140 741D     		je	.L146
 479:fltk-1.3.4-1/jpeg/jdarith.c **** 	    *thiscoef += m1;
 1696              		.loc 1 479 4 is_stmt 1 view .LVU554
 479:fltk-1.3.4-1/jpeg/jdarith.c **** 	    *thiscoef += m1;
 1697              		.loc 1 479 8 is_stmt 0 view .LVU555
 1698 0142 410FB716 		movzwl	(%r14), %edx
 480:fltk-1.3.4-1/jpeg/jdarith.c **** 	  else
 1699              		.loc 1 480 16 view .LVU556
 1700 0146 0FB74424 		movzwl	40(%rsp), %eax
 1700      28
 1701 014b 8D0C02   		leal	(%rdx,%rax), %ecx
 1702 014e 0FB74424 		movzwl	44(%rsp), %eax
 1702      2C
 1703 0153 01D0     		addl	%edx, %eax
 1704 0155 6685D2   		testw	%dx, %dx
 1705 0158 0F49C1   		cmovns	%ecx, %eax
 1706 015b 66418906 		movw	%ax, (%r14)
 1707              	.L146:
 500:fltk-1.3.4-1/jpeg/jdarith.c **** 
 1708              		.loc 1 500 11 is_stmt 1 view .LVU557
 500:fltk-1.3.4-1/jpeg/jdarith.c **** 
 1709              		.loc 1 500 3 is_stmt 0 view .LVU558
 1710 015f 41399F20 		cmpl	%ebx, 544(%r15)
 1710      020000
 1711 0166 0F8F5BFF 		jg	.L150
 1711      FFFF
 1712              	.LVL188:
 1713              	.L138:
 503:fltk-1.3.4-1/jpeg/jdarith.c **** 
 1714              		.loc 1 503 1 view .LVU559
 1715 016c 4883C438 		addq	$56, %rsp
 1716              		.cfi_remember_state
 1717              		.cfi_def_cfa_offset 56
 1718 0170 B8010000 		movl	$1, %eax
 1718      00
 1719 0175 5B       		popq	%rbx
 1720              		.cfi_def_cfa_offset 48
 1721 0176 5D       		popq	%rbp
 1722              		.cfi_def_cfa_offset 40
 1723 0177 415C     		popq	%r12
 1724              		.cfi_def_cfa_offset 32
 1725 0179 415D     		popq	%r13
 1726              		.cfi_def_cfa_offset 24
 1727 017b 415E     		popq	%r14
 1728              		.cfi_def_cfa_offset 16
 1729 017d 415F     		popq	%r15
 1730              		.cfi_def_cfa_offset 8
 1731              	.LVL189:
 503:fltk-1.3.4-1/jpeg/jdarith.c **** 
 1732              		.loc 1 503 1 view .LVU560
 1733 017f C3       		ret
 1734              	.LVL190:
 1735              		.p2align 4,,10
 1736              		.p2align 3
 1737              	.L141:
 1738              		.cfi_restore_state
 474:fltk-1.3.4-1/jpeg/jdarith.c ****     for (;;) {
 1739              		.loc 1 474 7 is_stmt 1 view .LVU561
 474:fltk-1.3.4-1/jpeg/jdarith.c ****     for (;;) {
 1740              		.loc 1 474 11 is_stmt 0 view .LVU562
 1741 0180 4889CE   		movq	%rcx, %rsi
 1742 0183 4C89FF   		movq	%r15, %rdi
 1743 0186 E8000000 		call	arith_decode
 1743      00
 1744              	.LVL191:
 474:fltk-1.3.4-1/jpeg/jdarith.c ****     for (;;) {
 1745              		.loc 1 474 10 view .LVU563
 1746 018b 85C0     		testl	%eax, %eax
 1747 018d 0F8455FF 		je	.L144
 1747      FFFF
 1748 0193 EBD7     		jmp	.L138
 1749              	.LVL192:
 1750              		.p2align 4,,10
 1751 0195 0F1F00   		.p2align 3
 1752              	.L160:
 487:fltk-1.3.4-1/jpeg/jdarith.c **** 	  *thiscoef = m1;
 1753              		.loc 1 487 2 is_stmt 1 view .LVU564
 487:fltk-1.3.4-1/jpeg/jdarith.c **** 	  *thiscoef = m1;
 1754              		.loc 1 487 33 is_stmt 0 view .LVU565
 1755 0198 488B4424 		movq	24(%rsp), %rax
 1755      18
 487:fltk-1.3.4-1/jpeg/jdarith.c **** 	  *thiscoef = m1;
 1756              		.loc 1 487 6 view .LVU566
 1757 019d 4C89FF   		movq	%r15, %rdi
 487:fltk-1.3.4-1/jpeg/jdarith.c **** 	  *thiscoef = m1;
 1758              		.loc 1 487 33 view .LVU567
 1759 01a0 488DB050 		leaq	336(%rax), %rsi
 1759      010000
 487:fltk-1.3.4-1/jpeg/jdarith.c **** 	  *thiscoef = m1;
 1760              		.loc 1 487 6 view .LVU568
 1761 01a7 E8000000 		call	arith_decode
 1761      00
 1762              	.LVL193:
 488:fltk-1.3.4-1/jpeg/jdarith.c **** 	else
 1763              		.loc 1 488 14 view .LVU569
 1764 01ac 85C0     		testl	%eax, %eax
 1765 01ae 0FB74424 		movzwl	44(%rsp), %eax
 1765      2C
 1766 01b3 660F4444 		cmove	40(%rsp), %ax
 1766      2428
 1767 01b9 66418906 		movw	%ax, (%r14)
 500:fltk-1.3.4-1/jpeg/jdarith.c **** 
 1768              		.loc 1 500 11 is_stmt 1 view .LVU570
 500:fltk-1.3.4-1/jpeg/jdarith.c **** 
 1769              		.loc 1 500 3 is_stmt 0 view .LVU571
 1770 01bd 41399F20 		cmpl	%ebx, 544(%r15)
 1770      020000
 1771 01c4 0F8FFDFE 		jg	.L150
 1771      FFFF
 1772 01ca EBA0     		jmp	.L138
 1773 01cc 0F1F4000 		.p2align 4,,10
 1774              		.p2align 3
 1775              	.L161:
 495:fltk-1.3.4-1/jpeg/jdarith.c **** 	entropy->ct = -1;			/* spectral overflow */
 1776              		.loc 1 495 2 is_stmt 1 view .LVU572
 1777 01d0 498B07   		movq	(%r15), %rax
 1778 01d3 BEFFFFFF 		movl	$-1, %esi
 1778      FF
 1779 01d8 4C89FF   		movq	%r15, %rdi
 1780 01db C7402875 		movl	$117, 40(%rax)
 1780      000000
 1781 01e2 498B07   		movq	(%r15), %rax
 1782 01e5 FF5008   		call	*8(%rax)
 1783              	.LVL194:
 496:fltk-1.3.4-1/jpeg/jdarith.c **** 	return TRUE;
 1784              		.loc 1 496 2 view .LVU573
 496:fltk-1.3.4-1/jpeg/jdarith.c **** 	return TRUE;
 1785              		.loc 1 496 14 is_stmt 0 view .LVU574
 1786 01e8 488B4424 		movq	24(%rsp), %rax
 1786      18
 1787 01ed C74028FF 		movl	$-1, 40(%rax)
 1787      FFFFFF
 497:fltk-1.3.4-1/jpeg/jdarith.c ****       }
 1788              		.loc 1 497 2 is_stmt 1 view .LVU575
 497:fltk-1.3.4-1/jpeg/jdarith.c ****       }
 1789              		.loc 1 497 9 is_stmt 0 view .LVU576
 1790 01f4 E973FFFF 		jmp	.L138
 1790      FF
 1791              	.LVL195:
 1792              	.L158:
 497:fltk-1.3.4-1/jpeg/jdarith.c ****       }
 1793              		.loc 1 497 9 view .LVU577
 1794 01f9 48897424 		movq	%rsi, 8(%rsp)
 1794      08
 449:fltk-1.3.4-1/jpeg/jdarith.c ****     entropy->restarts_to_go--;
 1795              		.loc 1 449 7 is_stmt 1 view .LVU578
 1796 01fe E8000000 		call	process_restart
 1796      00
 1797              	.LVL196:
 449:fltk-1.3.4-1/jpeg/jdarith.c ****     entropy->restarts_to_go--;
 1798              		.loc 1 449 7 is_stmt 0 view .LVU579
 1799 0203 488B4424 		movq	24(%rsp), %rax
 1799      18
 1800 0208 488B7424 		movq	8(%rsp), %rsi
 1800      08
 1801 020d 8B404C   		movl	76(%rax), %eax
 1802 0210 E921FEFF 		jmp	.L136
 1802      FF
 1803              		.cfi_endproc
 1804              	.LFE57:
 1806              		.section	.text.decode_mcu,"ax",@progbits
 1807              		.p2align 4
 1809              	decode_mcu:
 1810              	.LVL197:
 1811              	.LFB58:
 512:fltk-1.3.4-1/jpeg/jdarith.c ****   arith_entropy_ptr entropy = (arith_entropy_ptr) cinfo->entropy;
 1812              		.loc 1 512 1 is_stmt 1 view -0
 1813              		.cfi_startproc
 512:fltk-1.3.4-1/jpeg/jdarith.c ****   arith_entropy_ptr entropy = (arith_entropy_ptr) cinfo->entropy;
 1814              		.loc 1 512 1 is_stmt 0 view .LVU581
 1815 0000 F30F1EFA 		endbr64
 513:fltk-1.3.4-1/jpeg/jdarith.c ****   jpeg_component_info * compptr;
 1816              		.loc 1 513 3 is_stmt 1 view .LVU582
 512:fltk-1.3.4-1/jpeg/jdarith.c ****   arith_entropy_ptr entropy = (arith_entropy_ptr) cinfo->entropy;
 1817              		.loc 1 512 1 is_stmt 0 view .LVU583
 1818 0004 4157     		pushq	%r15
 1819              		.cfi_def_cfa_offset 16
 1820              		.cfi_offset 15, -16
 1821 0006 4156     		pushq	%r14
 1822              		.cfi_def_cfa_offset 24
 1823              		.cfi_offset 14, -24
 1824 0008 4989FE   		movq	%rdi, %r14
 1825 000b 4155     		pushq	%r13
 1826              		.cfi_def_cfa_offset 32
 1827              		.cfi_offset 13, -32
 1828 000d 4154     		pushq	%r12
 1829              		.cfi_def_cfa_offset 40
 1830              		.cfi_offset 12, -40
 1831 000f 55       		pushq	%rbp
 1832              		.cfi_def_cfa_offset 48
 1833              		.cfi_offset 6, -48
 1834 0010 53       		pushq	%rbx
 1835              		.cfi_def_cfa_offset 56
 1836              		.cfi_offset 3, -56
 1837 0011 4883EC48 		subq	$72, %rsp
 1838              		.cfi_def_cfa_offset 128
 522:fltk-1.3.4-1/jpeg/jdarith.c ****     if (entropy->restarts_to_go == 0)
 1839              		.loc 1 522 6 view .LVU584
 1840 0015 448B8F74 		movl	372(%rdi), %r9d
 1840      010000
 513:fltk-1.3.4-1/jpeg/jdarith.c ****   jpeg_component_info * compptr;
 1841              		.loc 1 513 21 view .LVU585
 1842 001c 488B9F70 		movq	624(%rdi), %rbx
 1842      020000
 1843              	.LVL198:
 514:fltk-1.3.4-1/jpeg/jdarith.c ****   JBLOCKROW block;
 1844              		.loc 1 514 3 is_stmt 1 view .LVU586
 515:fltk-1.3.4-1/jpeg/jdarith.c ****   unsigned char *st;
 1845              		.loc 1 515 3 view .LVU587
 516:fltk-1.3.4-1/jpeg/jdarith.c ****   int blkn, ci, tbl, sign, k;
 1846              		.loc 1 516 3 view .LVU588
 517:fltk-1.3.4-1/jpeg/jdarith.c ****   int v, m;
 1847              		.loc 1 517 3 view .LVU589
 518:fltk-1.3.4-1/jpeg/jdarith.c ****   const int * natural_order;
 1848              		.loc 1 518 3 view .LVU590
 519:fltk-1.3.4-1/jpeg/jdarith.c **** 
 1849              		.loc 1 519 3 view .LVU591
 522:fltk-1.3.4-1/jpeg/jdarith.c ****     if (entropy->restarts_to_go == 0)
 1850              		.loc 1 522 3 view .LVU592
 512:fltk-1.3.4-1/jpeg/jdarith.c ****   arith_entropy_ptr entropy = (arith_entropy_ptr) cinfo->entropy;
 1851              		.loc 1 512 1 is_stmt 0 view .LVU593
 1852 0023 48897424 		movq	%rsi, 24(%rsp)
 1852      18
 522:fltk-1.3.4-1/jpeg/jdarith.c ****     if (entropy->restarts_to_go == 0)
 1853              		.loc 1 522 6 view .LVU594
 1854 0028 4585C9   		testl	%r9d, %r9d
 1855 002b 7411     		je	.L163
 523:fltk-1.3.4-1/jpeg/jdarith.c ****       process_restart(cinfo);
 1856              		.loc 1 523 5 is_stmt 1 view .LVU595
 523:fltk-1.3.4-1/jpeg/jdarith.c ****       process_restart(cinfo);
 1857              		.loc 1 523 16 is_stmt 0 view .LVU596
 1858 002d 8B434C   		movl	76(%rbx), %eax
 523:fltk-1.3.4-1/jpeg/jdarith.c ****       process_restart(cinfo);
 1859              		.loc 1 523 8 view .LVU597
 1860 0030 85C0     		testl	%eax, %eax
 1861 0032 0F844003 		je	.L225
 1861      0000
 525:fltk-1.3.4-1/jpeg/jdarith.c ****   }
 1862              		.loc 1 525 5 is_stmt 1 view .LVU598
 525:fltk-1.3.4-1/jpeg/jdarith.c ****   }
 1863              		.loc 1 525 28 is_stmt 0 view .LVU599
 1864 0038 83E801   		subl	$1, %eax
 1865 003b 89434C   		movl	%eax, 76(%rbx)
 1866              	.LVL199:
 1867              	.L163:
 528:fltk-1.3.4-1/jpeg/jdarith.c **** 
 1868              		.loc 1 528 3 is_stmt 1 view .LVU600
 528:fltk-1.3.4-1/jpeg/jdarith.c **** 
 1869              		.loc 1 528 6 is_stmt 0 view .LVU601
 1870 003e 837B28FF 		cmpl	$-1, 40(%rbx)
 1871 0042 0F84B100 		je	.L166
 1871      0000
 530:fltk-1.3.4-1/jpeg/jdarith.c **** 
 1872              		.loc 1 530 3 is_stmt 1 view .LVU602
 530:fltk-1.3.4-1/jpeg/jdarith.c **** 
 1873              		.loc 1 530 17 is_stmt 0 view .LVU603
 1874 0048 498B8630 		movq	560(%r14), %rax
 1874      020000
 534:fltk-1.3.4-1/jpeg/jdarith.c ****     block = MCU_data[blkn];
 1875              		.loc 1 534 3 view .LVU604
 1876 004f 458B86F0 		movl	496(%r14), %r8d
 1876      010000
 530:fltk-1.3.4-1/jpeg/jdarith.c **** 
 1877              		.loc 1 530 17 view .LVU605
 1878 0056 48894424 		movq	%rax, 48(%rsp)
 1878      30
 1879              	.LVL200:
 534:fltk-1.3.4-1/jpeg/jdarith.c ****     block = MCU_data[blkn];
 1880              		.loc 1 534 3 is_stmt 1 view .LVU606
 534:fltk-1.3.4-1/jpeg/jdarith.c ****     block = MCU_data[blkn];
 1881              		.loc 1 534 18 view .LVU607
 534:fltk-1.3.4-1/jpeg/jdarith.c ****     block = MCU_data[blkn];
 1882              		.loc 1 534 3 is_stmt 0 view .LVU608
 1883 005b 4585C0   		testl	%r8d, %r8d
 1884 005e 0F8E9500 		jle	.L166
 1884      0000
 1885 0064 48C74424 		movq	$0, 8(%rsp)
 1885      08000000 
 1885      00
 1886              	.LVL201:
 1887              	.L183:
 535:fltk-1.3.4-1/jpeg/jdarith.c ****     ci = cinfo->MCU_membership[blkn];
 1888              		.loc 1 535 5 is_stmt 1 view .LVU609
 535:fltk-1.3.4-1/jpeg/jdarith.c ****     ci = cinfo->MCU_membership[blkn];
 1889              		.loc 1 535 11 is_stmt 0 view .LVU610
 1890 006d 488B4424 		movq	8(%rsp), %rax
 1890      08
 1891 0072 488B5424 		movq	24(%rsp), %rdx
 1891      18
 547:fltk-1.3.4-1/jpeg/jdarith.c ****       entropy->dc_context[ci] = 0;
 1892              		.loc 1 547 9 view .LVU611
 1893 0077 4C89F7   		movq	%r14, %rdi
 535:fltk-1.3.4-1/jpeg/jdarith.c ****     ci = cinfo->MCU_membership[blkn];
 1894              		.loc 1 535 11 view .LVU612
 1895 007a 488B14C2 		movq	(%rdx,%rax,8), %rdx
 537:fltk-1.3.4-1/jpeg/jdarith.c **** 
 1896              		.loc 1 537 13 view .LVU613
 1897 007e 49638486 		movslq	500(%r14,%rax,4), %rax
 1897      F4010000 
 535:fltk-1.3.4-1/jpeg/jdarith.c ****     ci = cinfo->MCU_membership[blkn];
 1898              		.loc 1 535 11 view .LVU614
 1899 0086 48895424 		movq	%rdx, 16(%rsp)
 1899      10
 1900              	.LVL202:
 536:fltk-1.3.4-1/jpeg/jdarith.c ****     compptr = cinfo->cur_comp_info[ci];
 1901              		.loc 1 536 5 is_stmt 1 view .LVU615
 537:fltk-1.3.4-1/jpeg/jdarith.c **** 
 1902              		.loc 1 537 5 view .LVU616
 537:fltk-1.3.4-1/jpeg/jdarith.c **** 
 1903              		.loc 1 537 13 is_stmt 0 view .LVU617
 1904 008b 498B94C6 		movq	456(%r14,%rax,8), %rdx
 1904      C8010000 
 1905              	.LVL203:
 537:fltk-1.3.4-1/jpeg/jdarith.c **** 
 1906              		.loc 1 537 13 view .LVU618
 1907 0093 488D2C83 		leaq	(%rbx,%rax,4), %rbp
 1908 0097 48634A14 		movslq	20(%rdx), %rcx
 1909 009b 48895424 		movq	%rdx, 32(%rsp)
 1909      20
 1910              	.LVL204:
 541:fltk-1.3.4-1/jpeg/jdarith.c **** 
 1911              		.loc 1 541 5 is_stmt 1 view .LVU619
 544:fltk-1.3.4-1/jpeg/jdarith.c **** 
 1912              		.loc 1 544 5 view .LVU620
 1913 00a0 4C8D3CCB 		leaq	(%rbx,%rcx,8), %r15
 1914 00a4 48894C24 		movq	%rcx, 40(%rsp)
 1914      28
 544:fltk-1.3.4-1/jpeg/jdarith.c **** 
 1915              		.loc 1 544 54 is_stmt 0 view .LVU621
 1916 00a9 48634D3C 		movslq	60(%rbp), %rcx
 544:fltk-1.3.4-1/jpeg/jdarith.c **** 
 1917              		.loc 1 544 8 view .LVU622
 1918 00ad 49034F50 		addq	80(%r15), %rcx
 547:fltk-1.3.4-1/jpeg/jdarith.c ****       entropy->dc_context[ci] = 0;
 1919              		.loc 1 547 9 view .LVU623
 1920 00b1 4889CE   		movq	%rcx, %rsi
 544:fltk-1.3.4-1/jpeg/jdarith.c **** 
 1921              		.loc 1 544 8 view .LVU624
 1922 00b4 4989CC   		movq	%rcx, %r12
 1923              	.LVL205:
 547:fltk-1.3.4-1/jpeg/jdarith.c ****       entropy->dc_context[ci] = 0;
 1924              		.loc 1 547 5 is_stmt 1 view .LVU625
 547:fltk-1.3.4-1/jpeg/jdarith.c ****       entropy->dc_context[ci] = 0;
 1925              		.loc 1 547 9 is_stmt 0 view .LVU626
 1926 00b7 E8000000 		call	arith_decode
 1926      00
 1927              	.LVL206:
 547:fltk-1.3.4-1/jpeg/jdarith.c ****       entropy->dc_context[ci] = 0;
 1928              		.loc 1 547 8 view .LVU627
 1929 00bc 85C0     		testl	%eax, %eax
 1930 00be 0F854401 		jne	.L168
 1930      0000
 548:fltk-1.3.4-1/jpeg/jdarith.c ****     else {
 1931              		.loc 1 548 7 is_stmt 1 view .LVU628
 548:fltk-1.3.4-1/jpeg/jdarith.c ****     else {
 1932              		.loc 1 548 31 is_stmt 0 view .LVU629
 1933 00c4 C7453C00 		movl	$0, 60(%rbp)
 1933      000000
 1934 00cb 8B452C   		movl	44(%rbp), %eax
 1935              	.LVL207:
 1936              	.L169:
 582:fltk-1.3.4-1/jpeg/jdarith.c **** 
 1937              		.loc 1 582 5 is_stmt 1 view .LVU630
 582:fltk-1.3.4-1/jpeg/jdarith.c **** 
 1938              		.loc 1 582 19 is_stmt 0 view .LVU631
 1939 00ce 488B5424 		movq	16(%rsp), %rdx
 1939      10
 1940 00d3 668902   		movw	%ax, (%rdx)
 586:fltk-1.3.4-1/jpeg/jdarith.c ****     tbl = compptr->ac_tbl_no;
 1941              		.loc 1 586 5 is_stmt 1 view .LVU632
 586:fltk-1.3.4-1/jpeg/jdarith.c ****     tbl = compptr->ac_tbl_no;
 1942              		.loc 1 586 8 is_stmt 0 view .LVU633
 1943 00d6 418BB638 		movl	568(%r14), %esi
 1943      020000
 1944 00dd 85F6     		testl	%esi, %esi
 1945 00df 752F     		jne	.L182
 1946              	.LVL208:
 1947              	.L184:
 534:fltk-1.3.4-1/jpeg/jdarith.c ****     block = MCU_data[blkn];
 1948              		.loc 1 534 47 is_stmt 1 view .LVU634
 534:fltk-1.3.4-1/jpeg/jdarith.c ****     block = MCU_data[blkn];
 1949              		.loc 1 534 18 view .LVU635
 1950 00e1 48834424 		addq	$1, 8(%rsp)
 1950      0801
 1951              	.LVL209:
 534:fltk-1.3.4-1/jpeg/jdarith.c ****     block = MCU_data[blkn];
 1952              		.loc 1 534 18 is_stmt 0 view .LVU636
 1953 00e7 488B4424 		movq	8(%rsp), %rax
 1953      08
 534:fltk-1.3.4-1/jpeg/jdarith.c ****     block = MCU_data[blkn];
 1954              		.loc 1 534 3 view .LVU637
 1955 00ec 413986F0 		cmpl	%eax, 496(%r14)
 1955      010000
 1956 00f3 0F8F74FF 		jg	.L183
 1956      FFFF
 1957              	.LVL210:
 1958              	.L166:
 635:fltk-1.3.4-1/jpeg/jdarith.c **** 
 1959              		.loc 1 635 1 view .LVU638
 1960 00f9 4883C448 		addq	$72, %rsp
 1961              		.cfi_remember_state
 1962              		.cfi_def_cfa_offset 56
 1963 00fd B8010000 		movl	$1, %eax
 1963      00
 1964 0102 5B       		popq	%rbx
 1965              		.cfi_def_cfa_offset 48
 1966              	.LVL211:
 635:fltk-1.3.4-1/jpeg/jdarith.c **** 
 1967              		.loc 1 635 1 view .LVU639
 1968 0103 5D       		popq	%rbp
 1969              		.cfi_def_cfa_offset 40
 1970 0104 415C     		popq	%r12
 1971              		.cfi_def_cfa_offset 32
 1972 0106 415D     		popq	%r13
 1973              		.cfi_def_cfa_offset 24
 1974 0108 415E     		popq	%r14
 1975              		.cfi_def_cfa_offset 16
 1976              	.LVL212:
 635:fltk-1.3.4-1/jpeg/jdarith.c **** 
 1977              		.loc 1 635 1 view .LVU640
 1978 010a 415F     		popq	%r15
 1979              		.cfi_def_cfa_offset 8
 1980 010c C3       		ret
 1981              	.LVL213:
 1982 010d 0F1F00   		.p2align 4,,10
 1983              		.p2align 3
 1984              	.L182:
 1985              		.cfi_restore_state
 587:fltk-1.3.4-1/jpeg/jdarith.c ****     k = 0;
 1986              		.loc 1 587 5 is_stmt 1 view .LVU641
 588:fltk-1.3.4-1/jpeg/jdarith.c **** 
 1987              		.loc 1 588 5 view .LVU642
 588:fltk-1.3.4-1/jpeg/jdarith.c **** 
 1988              		.loc 1 588 5 is_stmt 0 view .LVU643
 1989 0110 488B4424 		movq	32(%rsp), %rax
 1989      20
 588:fltk-1.3.4-1/jpeg/jdarith.c **** 
 1990              		.loc 1 588 7 view .LVU644
 1991 0115 4531ED   		xorl	%r13d, %r13d
 1992 0118 48634018 		movslq	24(%rax), %rax
 1993 011c 48894424 		movq	%rax, 56(%rsp)
 1993      38
 1994 0121 488D04C3 		leaq	(%rbx,%rax,8), %rax
 1995 0125 48894424 		movq	%rax, 32(%rsp)
 1995      20
 1996              	.LVL214:
 1997              	.L196:
 591:fltk-1.3.4-1/jpeg/jdarith.c ****       st = entropy->ac_stats[tbl] + 3 * k;
 1998              		.loc 1 591 5 is_stmt 1 view .LVU645
 592:fltk-1.3.4-1/jpeg/jdarith.c ****       if (arith_decode(cinfo, st)) break;	/* EOB flag */
 1999              		.loc 1 592 7 view .LVU646
 592:fltk-1.3.4-1/jpeg/jdarith.c ****       if (arith_decode(cinfo, st)) break;	/* EOB flag */
 2000              		.loc 1 592 10 is_stmt 0 view .LVU647
 2001 012a 488B4424 		movq	32(%rsp), %rax
 2001      20
 592:fltk-1.3.4-1/jpeg/jdarith.c ****       if (arith_decode(cinfo, st)) break;	/* EOB flag */
 2002              		.loc 1 592 39 view .LVU648
 2003 012f 438D6C6D 		leal	0(%r13,%r13,2), %ebp
 2003      00
 593:fltk-1.3.4-1/jpeg/jdarith.c ****       for (;;) {
 2004              		.loc 1 593 11 view .LVU649
 2005 0134 4C89F7   		movq	%r14, %rdi
 592:fltk-1.3.4-1/jpeg/jdarith.c ****       if (arith_decode(cinfo, st)) break;	/* EOB flag */
 2006              		.loc 1 592 39 view .LVU650
 2007 0137 4863ED   		movslq	%ebp, %rbp
 592:fltk-1.3.4-1/jpeg/jdarith.c ****       if (arith_decode(cinfo, st)) break;	/* EOB flag */
 2008              		.loc 1 592 10 view .LVU651
 2009 013a 4803A8D0 		addq	208(%rax), %rbp
 2009      000000
 2010              	.LVL215:
 593:fltk-1.3.4-1/jpeg/jdarith.c ****       for (;;) {
 2011              		.loc 1 593 7 is_stmt 1 view .LVU652
 593:fltk-1.3.4-1/jpeg/jdarith.c ****       for (;;) {
 2012              		.loc 1 593 11 is_stmt 0 view .LVU653
 2013 0141 4889EE   		movq	%rbp, %rsi
 2014 0144 E8000000 		call	arith_decode
 2014      00
 2015              	.LVL216:
 593:fltk-1.3.4-1/jpeg/jdarith.c ****       for (;;) {
 2016              		.loc 1 593 10 view .LVU654
 2017 0149 85C0     		testl	%eax, %eax
 2018 014b 7414     		je	.L186
 2019 014d EB92     		jmp	.L184
 2020 014f 90       		.p2align 4,,10
 2021              		.p2align 3
 2022              	.L226:
 597:fltk-1.3.4-1/jpeg/jdarith.c **** 	if (k >= cinfo->lim_Se) {
 2023              		.loc 1 597 2 is_stmt 1 view .LVU655
 597:fltk-1.3.4-1/jpeg/jdarith.c **** 	if (k >= cinfo->lim_Se) {
 2024              		.loc 1 597 5 is_stmt 0 view .LVU656
 2025 0150 4883C503 		addq	$3, %rbp
 2026              	.LVL217:
 598:fltk-1.3.4-1/jpeg/jdarith.c **** 	  WARNMS(cinfo, JWRN_ARITH_BAD_CODE);
 2027              		.loc 1 598 2 is_stmt 1 view .LVU657
 598:fltk-1.3.4-1/jpeg/jdarith.c **** 	  WARNMS(cinfo, JWRN_ARITH_BAD_CODE);
 2028              		.loc 1 598 5 is_stmt 0 view .LVU658
 2029 0154 4539AE38 		cmpl	%r13d, 568(%r14)
 2029      020000
 2030 015b 0F8E7F00 		jle	.L224
 2030      0000
 2031              	.L186:
 594:fltk-1.3.4-1/jpeg/jdarith.c **** 	k++;
 2032              		.loc 1 594 7 is_stmt 1 view .LVU659
 595:fltk-1.3.4-1/jpeg/jdarith.c **** 	if (arith_decode(cinfo, st + 1)) break;
 2033              		.loc 1 595 2 view .LVU660
 596:fltk-1.3.4-1/jpeg/jdarith.c **** 	st += 3;
 2034              		.loc 1 596 6 is_stmt 0 view .LVU661
 2035 0161 488D7501 		leaq	1(%rbp), %rsi
 2036 0165 4C89F7   		movq	%r14, %rdi
 595:fltk-1.3.4-1/jpeg/jdarith.c **** 	if (arith_decode(cinfo, st + 1)) break;
 2037              		.loc 1 595 3 view .LVU662
 2038 0168 4183C501 		addl	$1, %r13d
 2039              	.LVL218:
 596:fltk-1.3.4-1/jpeg/jdarith.c **** 	st += 3;
 2040              		.loc 1 596 2 is_stmt 1 view .LVU663
 596:fltk-1.3.4-1/jpeg/jdarith.c **** 	st += 3;
 2041              		.loc 1 596 6 is_stmt 0 view .LVU664
 2042 016c E8000000 		call	arith_decode
 2042      00
 2043              	.LVL219:
 596:fltk-1.3.4-1/jpeg/jdarith.c **** 	st += 3;
 2044              		.loc 1 596 5 view .LVU665
 2045 0171 85C0     		testl	%eax, %eax
 2046 0173 74DB     		je	.L226
 606:fltk-1.3.4-1/jpeg/jdarith.c ****       st += 2;
 2047              		.loc 1 606 7 is_stmt 1 view .LVU666
 606:fltk-1.3.4-1/jpeg/jdarith.c ****       st += 2;
 2048              		.loc 1 606 41 is_stmt 0 view .LVU667
 2049 0175 488DB350 		leaq	336(%rbx), %rsi
 2049      010000
 606:fltk-1.3.4-1/jpeg/jdarith.c ****       st += 2;
 2050              		.loc 1 606 14 view .LVU668
 2051 017c 4C89F7   		movq	%r14, %rdi
 607:fltk-1.3.4-1/jpeg/jdarith.c ****       /* Figure F.23: Decoding the magnitude category of v */
 2052              		.loc 1 607 10 view .LVU669
 2053 017f 4883C502 		addq	$2, %rbp
 2054              	.LVL220:
 606:fltk-1.3.4-1/jpeg/jdarith.c ****       st += 2;
 2055              		.loc 1 606 14 view .LVU670
 2056 0183 E8000000 		call	arith_decode
 2056      00
 2057              	.LVL221:
 609:fltk-1.3.4-1/jpeg/jdarith.c **** 	if (arith_decode(cinfo, st)) {
 2058              		.loc 1 609 16 view .LVU671
 2059 0188 4889EE   		movq	%rbp, %rsi
 2060 018b 4C89F7   		movq	%r14, %rdi
 606:fltk-1.3.4-1/jpeg/jdarith.c ****       st += 2;
 2061              		.loc 1 606 14 view .LVU672
 2062 018e 89442428 		movl	%eax, 40(%rsp)
 2063              	.LVL222:
 607:fltk-1.3.4-1/jpeg/jdarith.c ****       /* Figure F.23: Decoding the magnitude category of v */
 2064              		.loc 1 607 7 is_stmt 1 view .LVU673
 609:fltk-1.3.4-1/jpeg/jdarith.c **** 	if (arith_decode(cinfo, st)) {
 2065              		.loc 1 609 7 view .LVU674
 609:fltk-1.3.4-1/jpeg/jdarith.c **** 	if (arith_decode(cinfo, st)) {
 2066              		.loc 1 609 16 is_stmt 0 view .LVU675
 2067 0192 E8000000 		call	arith_decode
 2067      00
 2068              	.LVL223:
 609:fltk-1.3.4-1/jpeg/jdarith.c **** 	if (arith_decode(cinfo, st)) {
 2069              		.loc 1 609 16 view .LVU676
 2070 0197 4189C7   		movl	%eax, %r15d
 2071              	.LVL224:
 609:fltk-1.3.4-1/jpeg/jdarith.c **** 	if (arith_decode(cinfo, st)) {
 2072              		.loc 1 609 16 view .LVU677
 2073 019a B8010000 		movl	$1, %eax
 2073      00
 2074              	.LVL225:
 609:fltk-1.3.4-1/jpeg/jdarith.c **** 	if (arith_decode(cinfo, st)) {
 2075              		.loc 1 609 10 view .LVU678
 2076 019f 4585FF   		testl	%r15d, %r15d
 2077 01a2 0F854801 		jne	.L227
 2077      0000
 2078              	.LVL226:
 2079              	.L187:
 629:fltk-1.3.4-1/jpeg/jdarith.c ****       (*block)[natural_order[k]] = (JCOEF) v;
 2080              		.loc 1 629 7 is_stmt 1 view .LVU679
 629:fltk-1.3.4-1/jpeg/jdarith.c ****       (*block)[natural_order[k]] = (JCOEF) v;
 2081              		.loc 1 629 15 view .LVU680
 629:fltk-1.3.4-1/jpeg/jdarith.c ****       (*block)[natural_order[k]] = (JCOEF) v;
 2082              		.loc 1 629 27 is_stmt 0 view .LVU681
 2083 01a8 8B4C2428 		movl	40(%rsp), %ecx
 2084 01ac 4489FA   		movl	%r15d, %edx
 2085 01af F7D2     		notl	%edx
 2086 01b1 85C9     		testl	%ecx, %ecx
 630:fltk-1.3.4-1/jpeg/jdarith.c ****     } while (k < cinfo->lim_Se);
 2087              		.loc 1 630 34 view .LVU682
 2088 01b3 488B4C24 		movq	48(%rsp), %rcx
 2088      30
 629:fltk-1.3.4-1/jpeg/jdarith.c ****       (*block)[natural_order[k]] = (JCOEF) v;
 2089              		.loc 1 629 27 view .LVU683
 2090 01b8 0F45C2   		cmovne	%edx, %eax
 2091              	.LVL227:
 630:fltk-1.3.4-1/jpeg/jdarith.c ****     } while (k < cinfo->lim_Se);
 2092              		.loc 1 630 7 is_stmt 1 view .LVU684
 630:fltk-1.3.4-1/jpeg/jdarith.c ****     } while (k < cinfo->lim_Se);
 2093              		.loc 1 630 29 is_stmt 0 view .LVU685
 2094 01bb 4963D5   		movslq	%r13d, %rdx
 630:fltk-1.3.4-1/jpeg/jdarith.c ****     } while (k < cinfo->lim_Se);
 2095              		.loc 1 630 34 view .LVU686
 2096 01be 48631491 		movslq	(%rcx,%rdx,4), %rdx
 630:fltk-1.3.4-1/jpeg/jdarith.c ****     } while (k < cinfo->lim_Se);
 2097              		.loc 1 630 36 view .LVU687
 2098 01c2 488B4C24 		movq	16(%rsp), %rcx
 2098      10
 2099 01c7 66890451 		movw	%ax, (%rcx,%rdx,2)
 631:fltk-1.3.4-1/jpeg/jdarith.c ****   }
 2100              		.loc 1 631 13 is_stmt 1 view .LVU688
 631:fltk-1.3.4-1/jpeg/jdarith.c ****   }
 2101              		.loc 1 631 5 is_stmt 0 view .LVU689
 2102 01cb 4539AE38 		cmpl	%r13d, 568(%r14)
 2102      020000
 2103 01d2 0F8F52FF 		jg	.L196
 2103      FFFF
 2104 01d8 E904FFFF 		jmp	.L184
 2104      FF
 2105              	.LVL228:
 2106 01dd 0F1F00   		.p2align 4,,10
 2107              		.p2align 3
 2108              	.L224:
 616:fltk-1.3.4-1/jpeg/jdarith.c **** 	      entropy->ct = -1;			/* magnitude overflow */
 2109              		.loc 1 616 8 is_stmt 1 view .LVU690
 2110 01e0 498B06   		movq	(%r14), %rax
 2111 01e3 BEFFFFFF 		movl	$-1, %esi
 2111      FF
 2112 01e8 4C89F7   		movq	%r14, %rdi
 2113 01eb C7402875 		movl	$117, 40(%rax)
 2113      000000
 2114              	.LVL229:
 616:fltk-1.3.4-1/jpeg/jdarith.c **** 	      entropy->ct = -1;			/* magnitude overflow */
 2115              		.loc 1 616 8 is_stmt 0 view .LVU691
 2116 01f2 498B06   		movq	(%r14), %rax
 2117 01f5 FF5008   		call	*8(%rax)
 2118              	.LVL230:
 617:fltk-1.3.4-1/jpeg/jdarith.c **** 	      return TRUE;
 2119              		.loc 1 617 8 is_stmt 1 view .LVU692
 617:fltk-1.3.4-1/jpeg/jdarith.c **** 	      return TRUE;
 2120              		.loc 1 617 20 is_stmt 0 view .LVU693
 2121 01f8 C74328FF 		movl	$-1, 40(%rbx)
 2121      FFFFFF
 618:fltk-1.3.4-1/jpeg/jdarith.c **** 	    }
 2122              		.loc 1 618 8 is_stmt 1 view .LVU694
 618:fltk-1.3.4-1/jpeg/jdarith.c **** 	    }
 2123              		.loc 1 618 15 is_stmt 0 view .LVU695
 2124 01ff E9F5FEFF 		jmp	.L166
 2124      FF
 2125              	.LVL231:
 2126              		.p2align 4,,10
 2127 0204 0F1F4000 		.p2align 3
 2128              	.L168:
 552:fltk-1.3.4-1/jpeg/jdarith.c ****       st += 2; st += sign;
 2129              		.loc 1 552 7 is_stmt 1 view .LVU696
 552:fltk-1.3.4-1/jpeg/jdarith.c ****       st += 2; st += sign;
 2130              		.loc 1 552 14 is_stmt 0 view .LVU697
 2131 0208 498D7424 		leaq	1(%r12), %rsi
 2131      01
 2132 020d 4C89F7   		movq	%r14, %rdi
 2133 0210 E8000000 		call	arith_decode
 2133      00
 2134              	.LVL232:
 555:fltk-1.3.4-1/jpeg/jdarith.c **** 	st = entropy->dc_stats[tbl] + 20;	/* Table F.4: X1 = 20 */
 2135              		.loc 1 555 16 view .LVU698
 2136 0215 4C89F7   		movq	%r14, %rdi
 552:fltk-1.3.4-1/jpeg/jdarith.c ****       st += 2; st += sign;
 2137              		.loc 1 552 14 view .LVU699
 2138 0218 89442438 		movl	%eax, 56(%rsp)
 2139              	.LVL233:
 553:fltk-1.3.4-1/jpeg/jdarith.c ****       /* Figure F.23: Decoding the magnitude category of v */
 2140              		.loc 1 553 7 is_stmt 1 view .LVU700
 553:fltk-1.3.4-1/jpeg/jdarith.c ****       /* Figure F.23: Decoding the magnitude category of v */
 2141              		.loc 1 553 16 view .LVU701
 553:fltk-1.3.4-1/jpeg/jdarith.c ****       /* Figure F.23: Decoding the magnitude category of v */
 2142              		.loc 1 553 19 is_stmt 0 view .LVU702
 2143 021c 4898     		cltq
 2144              	.LVL234:
 553:fltk-1.3.4-1/jpeg/jdarith.c ****       /* Figure F.23: Decoding the magnitude category of v */
 2145              		.loc 1 553 19 view .LVU703
 2146 021e 4D8D6C04 		leaq	2(%r12,%rax), %r13
 2146      02
 2147              	.LVL235:
 555:fltk-1.3.4-1/jpeg/jdarith.c **** 	st = entropy->dc_stats[tbl] + 20;	/* Table F.4: X1 = 20 */
 2148              		.loc 1 555 7 is_stmt 1 view .LVU704
 555:fltk-1.3.4-1/jpeg/jdarith.c **** 	st = entropy->dc_stats[tbl] + 20;	/* Table F.4: X1 = 20 */
 2149              		.loc 1 555 16 is_stmt 0 view .LVU705
 2150 0223 4C89EE   		movq	%r13, %rsi
 2151 0226 E8000000 		call	arith_decode
 2151      00
 2152              	.LVL236:
 2153 022b 4189C4   		movl	%eax, %r12d
 2154              	.LVL237:
 555:fltk-1.3.4-1/jpeg/jdarith.c **** 	st = entropy->dc_stats[tbl] + 20;	/* Table F.4: X1 = 20 */
 2155              		.loc 1 555 10 view .LVU706
 2156 022e 85C0     		testl	%eax, %eax
 2157 0230 757E     		jne	.L228
 2158 0232 4531FF   		xorl	%r15d, %r15d
 2159              	.LVL238:
 2160              	.L170:
 567:fltk-1.3.4-1/jpeg/jdarith.c **** 	entropy->dc_context[ci] = 0;		   /* zero diff category */
 2161              		.loc 1 567 7 is_stmt 1 view .LVU707
 567:fltk-1.3.4-1/jpeg/jdarith.c **** 	entropy->dc_context[ci] = 0;		   /* zero diff category */
 2162              		.loc 1 567 46 is_stmt 0 view .LVU708
 2163 0235 488B4424 		movq	40(%rsp), %rax
 2163      28
 2164 023a 410FB68C 		movzbl	324(%r14,%rax), %ecx
 2164      06440100 
 2164      00
 567:fltk-1.3.4-1/jpeg/jdarith.c **** 	entropy->dc_context[ci] = 0;		   /* zero diff category */
 2165              		.loc 1 567 26 view .LVU709
 2166 0243 B8010000 		movl	$1, %eax
 2166      00
 2167 0248 48D3E0   		salq	%cl, %rax
 567:fltk-1.3.4-1/jpeg/jdarith.c **** 	entropy->dc_context[ci] = 0;		   /* zero diff category */
 2168              		.loc 1 567 53 view .LVU710
 2169 024b 48D1F8   		sarq	%rax
 567:fltk-1.3.4-1/jpeg/jdarith.c **** 	entropy->dc_context[ci] = 0;		   /* zero diff category */
 2170              		.loc 1 567 10 view .LVU711
 2171 024e 4139C4   		cmpl	%eax, %r12d
 2172 0251 0F8DE900 		jge	.L174
 2172      0000
 568:fltk-1.3.4-1/jpeg/jdarith.c ****       else if (m > (int) ((1L << cinfo->arith_dc_U[tbl]) >> 1))
 2173              		.loc 1 568 2 is_stmt 1 view .LVU712
 568:fltk-1.3.4-1/jpeg/jdarith.c ****       else if (m > (int) ((1L << cinfo->arith_dc_U[tbl]) >> 1))
 2174              		.loc 1 568 26 is_stmt 0 view .LVU713
 2175 0257 C7453C00 		movl	$0, 60(%rbp)
 2175      000000
 2176              	.L175:
 573:fltk-1.3.4-1/jpeg/jdarith.c ****       /* Figure F.24: Decoding the magnitude bit pattern of v */
 2177              		.loc 1 573 7 is_stmt 1 view .LVU714
 2178              	.LVL239:
 575:fltk-1.3.4-1/jpeg/jdarith.c ****       while (m >>= 1)
 2179              		.loc 1 575 7 view .LVU715
 575:fltk-1.3.4-1/jpeg/jdarith.c ****       while (m >>= 1)
 2180              		.loc 1 575 10 is_stmt 0 view .LVU716
 2181 025e 4983C50E 		addq	$14, %r13
 2182              	.LVL240:
 576:fltk-1.3.4-1/jpeg/jdarith.c **** 	if (arith_decode(cinfo, st)) v |= m;
 2183              		.loc 1 576 7 is_stmt 1 view .LVU717
 576:fltk-1.3.4-1/jpeg/jdarith.c **** 	if (arith_decode(cinfo, st)) v |= m;
 2184              		.loc 1 576 13 view .LVU718
 576:fltk-1.3.4-1/jpeg/jdarith.c **** 	if (arith_decode(cinfo, st)) v |= m;
 2185              		.loc 1 576 13 is_stmt 0 view .LVU719
 2186 0262 4585FF   		testl	%r15d, %r15d
 2187 0265 7429     		je	.L177
 2188              	.LVL241:
 2189 0267 660F1F84 		.p2align 4,,10
 2189      00000000 
 2189      00
 2190              		.p2align 3
 2191              	.L179:
 577:fltk-1.3.4-1/jpeg/jdarith.c ****       v += 1; if (sign) v = -v;
 2192              		.loc 1 577 2 is_stmt 1 view .LVU720
 577:fltk-1.3.4-1/jpeg/jdarith.c ****       v += 1; if (sign) v = -v;
 2193              		.loc 1 577 6 is_stmt 0 view .LVU721
 2194 0270 4C89EE   		movq	%r13, %rsi
 2195 0273 4C89F7   		movq	%r14, %rdi
 2196 0276 E8000000 		call	arith_decode
 2196      00
 2197              	.LVL242:
 2198 027b 4189C0   		movl	%eax, %r8d
 577:fltk-1.3.4-1/jpeg/jdarith.c ****       v += 1; if (sign) v = -v;
 2199              		.loc 1 577 33 view .LVU722
 2200 027e 4489E0   		movl	%r12d, %eax
 2201 0281 4409F8   		orl	%r15d, %eax
 2202 0284 4585C0   		testl	%r8d, %r8d
 2203 0287 440F45E0 		cmovne	%eax, %r12d
 2204              	.LVL243:
 576:fltk-1.3.4-1/jpeg/jdarith.c **** 	if (arith_decode(cinfo, st)) v |= m;
 2205              		.loc 1 576 13 is_stmt 1 view .LVU723
 576:fltk-1.3.4-1/jpeg/jdarith.c **** 	if (arith_decode(cinfo, st)) v |= m;
 2206              		.loc 1 576 13 is_stmt 0 view .LVU724
 2207 028b 41D1FF   		sarl	%r15d
 2208              	.LVL244:
 576:fltk-1.3.4-1/jpeg/jdarith.c **** 	if (arith_decode(cinfo, st)) v |= m;
 2209              		.loc 1 576 13 view .LVU725
 2210 028e 75E0     		jne	.L179
 2211              	.LVL245:
 2212              	.L177:
 578:fltk-1.3.4-1/jpeg/jdarith.c ****       entropy->last_dc_val[ci] += v;
 2213              		.loc 1 578 7 is_stmt 1 view .LVU726
 578:fltk-1.3.4-1/jpeg/jdarith.c ****       entropy->last_dc_val[ci] += v;
 2214              		.loc 1 578 15 view .LVU727
 578:fltk-1.3.4-1/jpeg/jdarith.c ****       entropy->last_dc_val[ci] += v;
 2215              		.loc 1 578 9 is_stmt 0 view .LVU728
 2216 0290 8B7C2438 		movl	56(%rsp), %edi
 2217 0294 4489E0   		movl	%r12d, %eax
 2218 0297 418D4C24 		leal	1(%r12), %ecx
 2218      01
 2219              	.LVL246:
 578:fltk-1.3.4-1/jpeg/jdarith.c ****       entropy->last_dc_val[ci] += v;
 2220              		.loc 1 578 9 view .LVU729
 2221 029c F7D0     		notl	%eax
 2222 029e 85FF     		testl	%edi, %edi
 2223 02a0 0F44C1   		cmove	%ecx, %eax
 2224              	.LVL247:
 579:fltk-1.3.4-1/jpeg/jdarith.c ****     }
 2225              		.loc 1 579 7 is_stmt 1 view .LVU730
 579:fltk-1.3.4-1/jpeg/jdarith.c ****     }
 2226              		.loc 1 579 32 is_stmt 0 view .LVU731
 2227 02a3 03452C   		addl	44(%rbp), %eax
 2228              	.LVL248:
 579:fltk-1.3.4-1/jpeg/jdarith.c ****     }
 2229              		.loc 1 579 32 view .LVU732
 2230 02a6 89452C   		movl	%eax, 44(%rbp)
 2231 02a9 E920FEFF 		jmp	.L169
 2231      FF
 2232              	.LVL249:
 2233 02ae 6690     		.p2align 4,,10
 2234              		.p2align 3
 2235              	.L228:
 556:fltk-1.3.4-1/jpeg/jdarith.c **** 	while (arith_decode(cinfo, st)) {
 2236              		.loc 1 556 2 is_stmt 1 view .LVU733
 556:fltk-1.3.4-1/jpeg/jdarith.c **** 	while (arith_decode(cinfo, st)) {
 2237              		.loc 1 556 5 is_stmt 0 view .LVU734
 2238 02b0 498B7750 		movq	80(%r15), %rsi
 2239 02b4 4C8D6E14 		leaq	20(%rsi), %r13
 2240              	.LVL250:
 557:fltk-1.3.4-1/jpeg/jdarith.c **** 	  if ((m <<= 1) == 0x8000) {
 2241              		.loc 1 557 2 is_stmt 1 view .LVU735
 557:fltk-1.3.4-1/jpeg/jdarith.c **** 	  if ((m <<= 1) == 0x8000) {
 2242              		.loc 1 557 8 is_stmt 0 view .LVU736
 2243 02b8 EB1A     		jmp	.L171
 2244              	.LVL251:
 2245 02ba 660F1F44 		.p2align 4,,10
 2245      0000
 2246              		.p2align 3
 2247              	.L173:
 558:fltk-1.3.4-1/jpeg/jdarith.c **** 	    WARNMS(cinfo, JWRN_ARITH_BAD_CODE);
 2248              		.loc 1 558 4 is_stmt 1 view .LVU737
 558:fltk-1.3.4-1/jpeg/jdarith.c **** 	    WARNMS(cinfo, JWRN_ARITH_BAD_CODE);
 2249              		.loc 1 558 11 is_stmt 0 view .LVU738
 2250 02c0 4501E4   		addl	%r12d, %r12d
 2251              	.LVL252:
 558:fltk-1.3.4-1/jpeg/jdarith.c **** 	    WARNMS(cinfo, JWRN_ARITH_BAD_CODE);
 2252              		.loc 1 558 7 view .LVU739
 2253 02c3 4181FC00 		cmpl	$32768, %r12d
 2253      800000
 2254 02ca 0F8410FF 		je	.L224
 2254      FFFF
 563:fltk-1.3.4-1/jpeg/jdarith.c **** 	}
 2255              		.loc 1 563 4 is_stmt 1 view .LVU740
 563:fltk-1.3.4-1/jpeg/jdarith.c **** 	}
 2256              		.loc 1 563 7 is_stmt 0 view .LVU741
 2257 02d0 4983C501 		addq	$1, %r13
 2258              	.LVL253:
 2259              	.L171:
 557:fltk-1.3.4-1/jpeg/jdarith.c **** 	  if ((m <<= 1) == 0x8000) {
 2260              		.loc 1 557 8 is_stmt 1 view .LVU742
 557:fltk-1.3.4-1/jpeg/jdarith.c **** 	  if ((m <<= 1) == 0x8000) {
 2261              		.loc 1 557 9 is_stmt 0 view .LVU743
 2262 02d4 4C89EE   		movq	%r13, %rsi
 2263 02d7 4C89F7   		movq	%r14, %rdi
 2264 02da E8000000 		call	arith_decode
 2264      00
 2265              	.LVL254:
 557:fltk-1.3.4-1/jpeg/jdarith.c **** 	  if ((m <<= 1) == 0x8000) {
 2266              		.loc 1 557 8 view .LVU744
 2267 02df 85C0     		testl	%eax, %eax
 2268 02e1 75DD     		jne	.L173
 557:fltk-1.3.4-1/jpeg/jdarith.c **** 	  if ((m <<= 1) == 0x8000) {
 2269              		.loc 1 557 8 view .LVU745
 2270 02e3 4589E7   		movl	%r12d, %r15d
 2271 02e6 41D1FF   		sarl	%r15d
 2272 02e9 E947FFFF 		jmp	.L170
 2272      FF
 2273              	.LVL255:
 2274 02ee 6690     		.p2align 4,,10
 2275              		.p2align 3
 2276              	.L227:
 610:fltk-1.3.4-1/jpeg/jdarith.c **** 	  m <<= 1;
 2277              		.loc 1 610 2 is_stmt 1 view .LVU746
 610:fltk-1.3.4-1/jpeg/jdarith.c **** 	  m <<= 1;
 2278              		.loc 1 610 6 is_stmt 0 view .LVU747
 2279 02f0 4889EE   		movq	%rbp, %rsi
 2280 02f3 4C89F7   		movq	%r14, %rdi
 2281 02f6 E8000000 		call	arith_decode
 2281      00
 2282              	.LVL256:
 610:fltk-1.3.4-1/jpeg/jdarith.c **** 	  m <<= 1;
 2283              		.loc 1 610 5 view .LVU748
 2284 02fb 85C0     		testl	%eax, %eax
 2285 02fd 0F859700 		jne	.L229
 2285      0000
 2286              	.L188:
 624:fltk-1.3.4-1/jpeg/jdarith.c ****       /* Figure F.24: Decoding the magnitude bit pattern of v */
 2287              		.loc 1 624 7 is_stmt 1 view .LVU749
 2288              	.LVL257:
 626:fltk-1.3.4-1/jpeg/jdarith.c ****       while (m >>= 1)
 2289              		.loc 1 626 7 view .LVU750
 627:fltk-1.3.4-1/jpeg/jdarith.c **** 	if (arith_decode(cinfo, st)) v |= m;
 2290              		.loc 1 627 13 is_stmt 0 view .LVU751
 2291 0303 4589FC   		movl	%r15d, %r12d
 626:fltk-1.3.4-1/jpeg/jdarith.c ****       while (m >>= 1)
 2292              		.loc 1 626 10 view .LVU752
 2293 0306 4883C50E 		addq	$14, %rbp
 2294              	.LVL258:
 627:fltk-1.3.4-1/jpeg/jdarith.c **** 	if (arith_decode(cinfo, st)) v |= m;
 2295              		.loc 1 627 7 is_stmt 1 view .LVU753
 627:fltk-1.3.4-1/jpeg/jdarith.c **** 	if (arith_decode(cinfo, st)) v |= m;
 2296              		.loc 1 627 13 view .LVU754
 627:fltk-1.3.4-1/jpeg/jdarith.c **** 	if (arith_decode(cinfo, st)) v |= m;
 2297              		.loc 1 627 13 is_stmt 0 view .LVU755
 2298 030a 41D1FC   		sarl	%r12d
 2299              	.LVL259:
 627:fltk-1.3.4-1/jpeg/jdarith.c **** 	if (arith_decode(cinfo, st)) v |= m;
 2300              		.loc 1 627 13 view .LVU756
 2301 030d 7421     		je	.L222
 2302 030f 90       		.p2align 4,,10
 2303              		.p2align 3
 2304              	.L193:
 628:fltk-1.3.4-1/jpeg/jdarith.c ****       v += 1; if (sign) v = -v;
 2305              		.loc 1 628 2 is_stmt 1 view .LVU757
 628:fltk-1.3.4-1/jpeg/jdarith.c ****       v += 1; if (sign) v = -v;
 2306              		.loc 1 628 6 is_stmt 0 view .LVU758
 2307 0310 4889EE   		movq	%rbp, %rsi
 2308 0313 4C89F7   		movq	%r14, %rdi
 2309 0316 E8000000 		call	arith_decode
 2309      00
 2310              	.LVL260:
 2311 031b 4189C0   		movl	%eax, %r8d
 628:fltk-1.3.4-1/jpeg/jdarith.c ****       v += 1; if (sign) v = -v;
 2312              		.loc 1 628 33 view .LVU759
 2313 031e 4489F8   		movl	%r15d, %eax
 2314 0321 4409E0   		orl	%r12d, %eax
 2315 0324 4585C0   		testl	%r8d, %r8d
 2316 0327 440F45F8 		cmovne	%eax, %r15d
 2317              	.LVL261:
 627:fltk-1.3.4-1/jpeg/jdarith.c **** 	if (arith_decode(cinfo, st)) v |= m;
 2318              		.loc 1 627 13 is_stmt 1 view .LVU760
 627:fltk-1.3.4-1/jpeg/jdarith.c **** 	if (arith_decode(cinfo, st)) v |= m;
 2319              		.loc 1 627 13 is_stmt 0 view .LVU761
 2320 032b 41D1FC   		sarl	%r12d
 2321              	.LVL262:
 627:fltk-1.3.4-1/jpeg/jdarith.c **** 	if (arith_decode(cinfo, st)) v |= m;
 2322              		.loc 1 627 13 view .LVU762
 2323 032e 75E0     		jne	.L193
 2324              	.L222:
 627:fltk-1.3.4-1/jpeg/jdarith.c **** 	if (arith_decode(cinfo, st)) v |= m;
 2325              		.loc 1 627 13 view .LVU763
 2326 0330 418D4701 		leal	1(%r15), %eax
 2327 0334 E96FFEFF 		jmp	.L187
 2327      FF
 2328              	.LVL263:
 2329 0339 0F1F8000 		.p2align 4,,10
 2329      000000
 2330              		.p2align 3
 2331              	.L174:
 569:fltk-1.3.4-1/jpeg/jdarith.c **** 	entropy->dc_context[ci] = 12 + (sign * 4); /* large diff category */
 2332              		.loc 1 569 12 is_stmt 1 view .LVU764
 569:fltk-1.3.4-1/jpeg/jdarith.c **** 	entropy->dc_context[ci] = 12 + (sign * 4); /* large diff category */
 2333              		.loc 1 569 51 is_stmt 0 view .LVU765
 2334 0340 488B4424 		movq	40(%rsp), %rax
 2334      28
 2335 0345 410FB68C 		movzbl	340(%r14,%rax), %ecx
 2335      06540100 
 2335      00
 569:fltk-1.3.4-1/jpeg/jdarith.c **** 	entropy->dc_context[ci] = 12 + (sign * 4); /* large diff category */
 2336              		.loc 1 569 31 view .LVU766
 2337 034e B8010000 		movl	$1, %eax
 2337      00
 2338 0353 48D3E0   		salq	%cl, %rax
 569:fltk-1.3.4-1/jpeg/jdarith.c **** 	entropy->dc_context[ci] = 12 + (sign * 4); /* large diff category */
 2339              		.loc 1 569 58 view .LVU767
 2340 0356 48D1F8   		sarq	%rax
 569:fltk-1.3.4-1/jpeg/jdarith.c **** 	entropy->dc_context[ci] = 12 + (sign * 4); /* large diff category */
 2341              		.loc 1 569 15 view .LVU768
 2342 0359 4139C4   		cmpl	%eax, %r12d
 570:fltk-1.3.4-1/jpeg/jdarith.c ****       else
 2343              		.loc 1 570 31 view .LVU769
 2344 035c 8B442438 		movl	56(%rsp), %eax
 569:fltk-1.3.4-1/jpeg/jdarith.c **** 	entropy->dc_context[ci] = 12 + (sign * 4); /* large diff category */
 2345              		.loc 1 569 15 view .LVU770
 2346 0360 7E29     		jle	.L176
 570:fltk-1.3.4-1/jpeg/jdarith.c ****       else
 2347              		.loc 1 570 2 is_stmt 1 view .LVU771
 570:fltk-1.3.4-1/jpeg/jdarith.c ****       else
 2348              		.loc 1 570 31 is_stmt 0 view .LVU772
 2349 0362 8D04850C 		leal	12(,%rax,4), %eax
 2349      000000
 2350 0369 89453C   		movl	%eax, 60(%rbp)
 2351 036c E9EDFEFF 		jmp	.L175
 2351      FF
 2352              	.LVL264:
 2353              		.p2align 4,,10
 2354 0371 0F1F8000 		.p2align 3
 2354      000000
 2355              	.L225:
 524:fltk-1.3.4-1/jpeg/jdarith.c ****     entropy->restarts_to_go--;
 2356              		.loc 1 524 7 is_stmt 1 view .LVU773
 2357 0378 E8000000 		call	process_restart
 2357      00
 2358              	.LVL265:
 524:fltk-1.3.4-1/jpeg/jdarith.c ****     entropy->restarts_to_go--;
 2359              		.loc 1 524 7 is_stmt 0 view .LVU774
 2360 037d 8B434C   		movl	76(%rbx), %eax
 525:fltk-1.3.4-1/jpeg/jdarith.c ****   }
 2361              		.loc 1 525 5 is_stmt 1 view .LVU775
 525:fltk-1.3.4-1/jpeg/jdarith.c ****   }
 2362              		.loc 1 525 28 is_stmt 0 view .LVU776
 2363 0380 83E801   		subl	$1, %eax
 2364 0383 89434C   		movl	%eax, 76(%rbx)
 2365 0386 E9B3FCFF 		jmp	.L163
 2365      FF
 2366              	.LVL266:
 2367              	.L176:
 572:fltk-1.3.4-1/jpeg/jdarith.c ****       v = m;
 2368              		.loc 1 572 2 is_stmt 1 view .LVU777
 572:fltk-1.3.4-1/jpeg/jdarith.c ****       v = m;
 2369              		.loc 1 572 30 is_stmt 0 view .LVU778
 2370 038b 8D048504 		leal	4(,%rax,4), %eax
 2370      000000
 2371 0392 89453C   		movl	%eax, 60(%rbp)
 2372 0395 E9C4FEFF 		jmp	.L175
 2372      FF
 2373              	.LVL267:
 2374              	.L229:
 611:fltk-1.3.4-1/jpeg/jdarith.c **** 	  st = entropy->ac_stats[tbl] +
 2375              		.loc 1 611 4 is_stmt 1 view .LVU779
 613:fltk-1.3.4-1/jpeg/jdarith.c **** 	  while (arith_decode(cinfo, st)) {
 2376              		.loc 1 613 32 is_stmt 0 view .LVU780
 2377 039a 488B4424 		movq	56(%rsp), %rax
 2377      38
 611:fltk-1.3.4-1/jpeg/jdarith.c **** 	  st = entropy->ac_stats[tbl] +
 2378              		.loc 1 611 6 view .LVU781
 2379 039f 4501FF   		addl	%r15d, %r15d
 2380              	.LVL268:
 612:fltk-1.3.4-1/jpeg/jdarith.c **** 	       (k <= cinfo->arith_ac_K[tbl] ? 189 : 217);
 2381              		.loc 1 612 4 is_stmt 1 view .LVU782
 613:fltk-1.3.4-1/jpeg/jdarith.c **** 	  while (arith_decode(cinfo, st)) {
 2382              		.loc 1 613 44 is_stmt 0 view .LVU783
 2383 03a2 BDBD0000 		movl	$189, %ebp
 2383      00
 2384              	.LVL269:
 613:fltk-1.3.4-1/jpeg/jdarith.c **** 	  while (arith_decode(cinfo, st)) {
 2385              		.loc 1 613 32 view .LVU784
 2386 03a7 410FB684 		movzbl	356(%r14,%rax), %eax
 2386      06640100 
 2386      00
 613:fltk-1.3.4-1/jpeg/jdarith.c **** 	  while (arith_decode(cinfo, st)) {
 2387              		.loc 1 613 44 view .LVU785
 2388 03b0 4439E8   		cmpl	%r13d, %eax
 2389 03b3 B8D90000 		movl	$217, %eax
 2389      00
 2390 03b8 480F4CE8 		cmovl	%rax, %rbp
 612:fltk-1.3.4-1/jpeg/jdarith.c **** 	       (k <= cinfo->arith_ac_K[tbl] ? 189 : 217);
 2391              		.loc 1 612 7 view .LVU786
 2392 03bc 488B4424 		movq	32(%rsp), %rax
 2392      20
 2393 03c1 4803A8D0 		addq	208(%rax), %rbp
 2393      000000
 2394              	.LVL270:
 614:fltk-1.3.4-1/jpeg/jdarith.c **** 	    if ((m <<= 1) == 0x8000) {
 2395              		.loc 1 614 4 is_stmt 1 view .LVU787
 614:fltk-1.3.4-1/jpeg/jdarith.c **** 	    if ((m <<= 1) == 0x8000) {
 2396              		.loc 1 614 10 is_stmt 0 view .LVU788
 2397 03c8 EB1A     		jmp	.L190
 2398 03ca 660F1F44 		.p2align 4,,10
 2398      0000
 2399              		.p2align 3
 2400              	.L192:
 615:fltk-1.3.4-1/jpeg/jdarith.c **** 	      WARNMS(cinfo, JWRN_ARITH_BAD_CODE);
 2401              		.loc 1 615 6 is_stmt 1 view .LVU789
 615:fltk-1.3.4-1/jpeg/jdarith.c **** 	      WARNMS(cinfo, JWRN_ARITH_BAD_CODE);
 2402              		.loc 1 615 13 is_stmt 0 view .LVU790
 2403 03d0 4501FF   		addl	%r15d, %r15d
 2404              	.LVL271:
 615:fltk-1.3.4-1/jpeg/jdarith.c **** 	      WARNMS(cinfo, JWRN_ARITH_BAD_CODE);
 2405              		.loc 1 615 9 view .LVU791
 2406 03d3 4181FF00 		cmpl	$32768, %r15d
 2406      800000
 2407 03da 0F8400FE 		je	.L224
 2407      FFFF
 620:fltk-1.3.4-1/jpeg/jdarith.c **** 	  }
 2408              		.loc 1 620 6 is_stmt 1 view .LVU792
 620:fltk-1.3.4-1/jpeg/jdarith.c **** 	  }
 2409              		.loc 1 620 9 is_stmt 0 view .LVU793
 2410 03e0 4883C501 		addq	$1, %rbp
 2411              	.LVL272:
 2412              	.L190:
 614:fltk-1.3.4-1/jpeg/jdarith.c **** 	    if ((m <<= 1) == 0x8000) {
 2413              		.loc 1 614 10 is_stmt 1 view .LVU794
 614:fltk-1.3.4-1/jpeg/jdarith.c **** 	    if ((m <<= 1) == 0x8000) {
 2414              		.loc 1 614 11 is_stmt 0 view .LVU795
 2415 03e4 4889EE   		movq	%rbp, %rsi
 2416 03e7 4C89F7   		movq	%r14, %rdi
 2417 03ea E8000000 		call	arith_decode
 2417      00
 2418              	.LVL273:
 614:fltk-1.3.4-1/jpeg/jdarith.c **** 	    if ((m <<= 1) == 0x8000) {
 2419              		.loc 1 614 10 view .LVU796
 2420 03ef 85C0     		testl	%eax, %eax
 2421 03f1 75DD     		jne	.L192
 614:fltk-1.3.4-1/jpeg/jdarith.c **** 	    if ((m <<= 1) == 0x8000) {
 2422              		.loc 1 614 10 view .LVU797
 2423 03f3 E90BFFFF 		jmp	.L188
 2423      FF
 2424              		.cfi_endproc
 2425              	.LFE58:
 2427              		.section	.text.start_pass,"ax",@progbits
 2428              		.p2align 4
 2430              	start_pass:
 2431              	.LVL274:
 2432              	.LFB59:
 644:fltk-1.3.4-1/jpeg/jdarith.c ****   arith_entropy_ptr entropy = (arith_entropy_ptr) cinfo->entropy;
 2433              		.loc 1 644 1 is_stmt 1 view -0
 2434              		.cfi_startproc
 644:fltk-1.3.4-1/jpeg/jdarith.c ****   arith_entropy_ptr entropy = (arith_entropy_ptr) cinfo->entropy;
 2435              		.loc 1 644 1 is_stmt 0 view .LVU799
 2436 0000 F30F1EFA 		endbr64
 645:fltk-1.3.4-1/jpeg/jdarith.c ****   int ci, tbl;
 2437              		.loc 1 645 3 is_stmt 1 view .LVU800
 644:fltk-1.3.4-1/jpeg/jdarith.c ****   arith_entropy_ptr entropy = (arith_entropy_ptr) cinfo->entropy;
 2438              		.loc 1 644 1 is_stmt 0 view .LVU801
 2439 0004 4157     		pushq	%r15
 2440              		.cfi_def_cfa_offset 16
 2441              		.cfi_offset 15, -16
 2442 0006 4156     		pushq	%r14
 2443              		.cfi_def_cfa_offset 24
 2444              		.cfi_offset 14, -24
 2445 0008 4155     		pushq	%r13
 2446              		.cfi_def_cfa_offset 32
 2447              		.cfi_offset 13, -32
 2448 000a 4154     		pushq	%r12
 2449              		.cfi_def_cfa_offset 40
 2450              		.cfi_offset 12, -40
 2451 000c 55       		pushq	%rbp
 2452              		.cfi_def_cfa_offset 48
 2453              		.cfi_offset 6, -48
 2454 000d 53       		pushq	%rbx
 2455              		.cfi_def_cfa_offset 56
 2456              		.cfi_offset 3, -56
 2457 000e 4889FB   		movq	%rdi, %rbx
 2458 0011 4883EC18 		subq	$24, %rsp
 2459              		.cfi_def_cfa_offset 80
 649:fltk-1.3.4-1/jpeg/jdarith.c ****     /* Validate progressive scan parameters */
 2460              		.loc 1 649 6 view .LVU802
 2461 0015 8B873C01 		movl	316(%rdi), %eax
 2461      0000
 645:fltk-1.3.4-1/jpeg/jdarith.c ****   int ci, tbl;
 2462              		.loc 1 645 21 view .LVU803
 2463 001b 4C8BAF70 		movq	624(%rdi), %r13
 2463      020000
 2464              	.LVL275:
 646:fltk-1.3.4-1/jpeg/jdarith.c ****   jpeg_component_info * compptr;
 2465              		.loc 1 646 3 is_stmt 1 view .LVU804
 647:fltk-1.3.4-1/jpeg/jdarith.c **** 
 2466              		.loc 1 647 3 view .LVU805
 649:fltk-1.3.4-1/jpeg/jdarith.c ****     /* Validate progressive scan parameters */
 2467              		.loc 1 649 3 view .LVU806
 2468 0022 4863AF1C 		movslq	540(%rdi), %rbp
 2468      020000
 649:fltk-1.3.4-1/jpeg/jdarith.c ****     /* Validate progressive scan parameters */
 2469              		.loc 1 649 6 is_stmt 0 view .LVU807
 2470 0029 85C0     		testl	%eax, %eax
 2471 002b 0F849F01 		je	.L231
 2471      0000
 651:fltk-1.3.4-1/jpeg/jdarith.c ****       if (cinfo->Se != 0)
 2472              		.loc 1 651 5 is_stmt 1 view .LVU808
 2473 0031 8B872002 		movl	544(%rdi), %eax
 2473      0000
 651:fltk-1.3.4-1/jpeg/jdarith.c ****       if (cinfo->Se != 0)
 2474              		.loc 1 651 8 is_stmt 0 view .LVU809
 2475 0037 85ED     		testl	%ebp, %ebp
 2476 0039 0F852103 		jne	.L232
 2476      0000
 652:fltk-1.3.4-1/jpeg/jdarith.c **** 	goto bad;
 2477              		.loc 1 652 7 is_stmt 1 view .LVU810
 652:fltk-1.3.4-1/jpeg/jdarith.c **** 	goto bad;
 2478              		.loc 1 652 10 is_stmt 0 view .LVU811
 2479 003f 85C0     		testl	%eax, %eax
 2480 0041 7525     		jne	.L233
 2481              	.L234:
 662:fltk-1.3.4-1/jpeg/jdarith.c ****       /* Successive approximation refinement scan: must have Al = Ah-1. */
 2482              		.loc 1 662 5 is_stmt 1 view .LVU812
 662:fltk-1.3.4-1/jpeg/jdarith.c ****       /* Successive approximation refinement scan: must have Al = Ah-1. */
 2483              		.loc 1 662 14 is_stmt 0 view .LVU813
 2484 0043 8B832402 		movl	548(%rbx), %eax
 2484      0000
 2485 0049 8B932802 		movl	552(%rbx), %edx
 2485      0000
 662:fltk-1.3.4-1/jpeg/jdarith.c ****       /* Successive approximation refinement scan: must have Al = Ah-1. */
 2486              		.loc 1 662 8 view .LVU814
 2487 004f 85C0     		testl	%eax, %eax
 2488 0051 0F84EE03 		je	.L235
 2488      0000
 664:fltk-1.3.4-1/jpeg/jdarith.c **** 	goto bad;
 2489              		.loc 1 664 7 is_stmt 1 view .LVU815
 664:fltk-1.3.4-1/jpeg/jdarith.c **** 	goto bad;
 2490              		.loc 1 664 20 is_stmt 0 view .LVU816
 2491 0057 83E801   		subl	$1, %eax
 664:fltk-1.3.4-1/jpeg/jdarith.c **** 	goto bad;
 2492              		.loc 1 664 10 view .LVU817
 2493 005a 39D0     		cmpl	%edx, %eax
 2494 005c 0F84E303 		je	.L235
 2494      0000
 2495              	.LVL276:
 2496              		.p2align 4,,10
 2497 0062 660F1F44 		.p2align 3
 2497      0000
 2498              	.L233:
 669:fltk-1.3.4-1/jpeg/jdarith.c **** 	       cinfo->Ss, cinfo->Se, cinfo->Ah, cinfo->Al);
 2499              		.loc 1 669 7 is_stmt 1 view .LVU818
 2500 0068 488B03   		movq	(%rbx), %rax
 2501 006b 4889DF   		movq	%rbx, %rdi
 2502 006e C7402811 		movl	$17, 40(%rax)
 2502      000000
 2503 0075 488B03   		movq	(%rbx), %rax
 2504 0078 8B931C02 		movl	540(%rbx), %edx
 2504      0000
 2505 007e 89502C   		movl	%edx, 44(%rax)
 2506 0081 488B03   		movq	(%rbx), %rax
 2507 0084 8B932002 		movl	544(%rbx), %edx
 2507      0000
 2508 008a 895030   		movl	%edx, 48(%rax)
 2509 008d 488B03   		movq	(%rbx), %rax
 2510 0090 8B932402 		movl	548(%rbx), %edx
 2510      0000
 2511 0096 895034   		movl	%edx, 52(%rax)
 2512 0099 488B03   		movq	(%rbx), %rax
 2513 009c 8B932802 		movl	552(%rbx), %edx
 2513      0000
 2514 00a2 895038   		movl	%edx, 56(%rax)
 2515 00a5 488B03   		movq	(%rbx), %rax
 2516 00a8 FF10     		call	*(%rax)
 2517              	.LVL277:
 2518 00aa 4863AB1C 		movslq	540(%rbx), %rbp
 2518      020000
 2519              	.L236:
 2520              	.LVL278:
 676:fltk-1.3.4-1/jpeg/jdarith.c ****       int coefi, cindex = cinfo->cur_comp_info[ci]->component_index;
 2521              		.loc 1 676 18 discriminator 1 view .LVU819
 676:fltk-1.3.4-1/jpeg/jdarith.c ****       int coefi, cindex = cinfo->cur_comp_info[ci]->component_index;
 2522              		.loc 1 676 5 is_stmt 0 discriminator 1 view .LVU820
 2523 00b1 8B83C001 		movl	448(%rbx), %eax
 2523      0000
 2524 00b7 85C0     		testl	%eax, %eax
 2525 00b9 0F8EE000 		jle	.L237
 2525      0000
 676:fltk-1.3.4-1/jpeg/jdarith.c ****       int coefi, cindex = cinfo->cur_comp_info[ci]->component_index;
 2526              		.loc 1 676 5 view .LVU821
 2527 00bf 48C74424 		movq	$0, 8(%rsp)
 2527      08000000 
 2527      00
 2528              	.LBB22:
 2529              	.LBB23:
 682:fltk-1.3.4-1/jpeg/jdarith.c **** 	if (cinfo->Ah != expected)
 2530              		.loc 1 682 6 view .LVU822
 2531 00c8 4531E4   		xorl	%r12d, %r12d
 2532              	.LVL279:
 2533              	.L242:
 682:fltk-1.3.4-1/jpeg/jdarith.c **** 	if (cinfo->Ah != expected)
 2534              		.loc 1 682 6 view .LVU823
 2535              	.LBE23:
 677:fltk-1.3.4-1/jpeg/jdarith.c ****       int *coef_bit_ptr = & cinfo->coef_bits[cindex][0];
 2536              		.loc 1 677 7 is_stmt 1 view .LVU824
 677:fltk-1.3.4-1/jpeg/jdarith.c ****       int *coef_bit_ptr = & cinfo->coef_bits[cindex][0];
 2537              		.loc 1 677 18 is_stmt 0 view .LVU825
 2538 00cb 488B4424 		movq	8(%rsp), %rax
 2538      08
 2539 00d0 488B84C3 		movq	456(%rbx,%rax,8), %rax
 2539      C8010000 
 2540 00d8 48634004 		movslq	4(%rax), %rax
 2541 00dc 4989C6   		movq	%rax, %r14
 2542              	.LVL280:
 678:fltk-1.3.4-1/jpeg/jdarith.c ****       if (cinfo->Ss && coef_bit_ptr[0] < 0) /* AC without prior DC scan */
 2543              		.loc 1 678 7 is_stmt 1 view .LVU826
 678:fltk-1.3.4-1/jpeg/jdarith.c ****       if (cinfo->Ss && coef_bit_ptr[0] < 0) /* AC without prior DC scan */
 2544              		.loc 1 678 45 is_stmt 0 view .LVU827
 2545 00df 48C1E008 		salq	$8, %rax
 2546              	.LVL281:
 678:fltk-1.3.4-1/jpeg/jdarith.c ****       if (cinfo->Ss && coef_bit_ptr[0] < 0) /* AC without prior DC scan */
 2547              		.loc 1 678 45 view .LVU828
 2548 00e3 480383C0 		addq	192(%rbx), %rax
 2548      000000
 2549 00ea 4989C7   		movq	%rax, %r15
 2550              	.LVL282:
 679:fltk-1.3.4-1/jpeg/jdarith.c **** 	WARNMS2(cinfo, JWRN_BOGUS_PROGRESSION, cindex, 0);
 2551              		.loc 1 679 7 is_stmt 1 view .LVU829
 679:fltk-1.3.4-1/jpeg/jdarith.c **** 	WARNMS2(cinfo, JWRN_BOGUS_PROGRESSION, cindex, 0);
 2552              		.loc 1 679 10 is_stmt 0 view .LVU830
 2553 00ed 85ED     		testl	%ebp, %ebp
 2554 00ef 7436     		je	.L238
 679:fltk-1.3.4-1/jpeg/jdarith.c **** 	WARNMS2(cinfo, JWRN_BOGUS_PROGRESSION, cindex, 0);
 2555              		.loc 1 679 21 discriminator 1 view .LVU831
 2556 00f1 8B00     		movl	(%rax), %eax
 2557              	.LVL283:
 679:fltk-1.3.4-1/jpeg/jdarith.c **** 	WARNMS2(cinfo, JWRN_BOGUS_PROGRESSION, cindex, 0);
 2558              		.loc 1 679 21 discriminator 1 view .LVU832
 2559 00f3 85C0     		testl	%eax, %eax
 2560 00f5 7930     		jns	.L238
 680:fltk-1.3.4-1/jpeg/jdarith.c ****       for (coefi = cinfo->Ss; coefi <= cinfo->Se; coefi++) {
 2561              		.loc 1 680 2 is_stmt 1 view .LVU833
 2562 00f7 488B13   		movq	(%rbx), %rdx
 2563 00fa BEFFFFFF 		movl	$-1, %esi
 2563      FF
 2564 00ff 4889DF   		movq	%rbx, %rdi
 2565 0102 C7422876 		movl	$118, 40(%rdx)
 2565      000000
 2566 0109 488B13   		movq	(%rbx), %rdx
 2567 010c 4489722C 		movl	%r14d, 44(%rdx)
 2568 0110 488B13   		movq	(%rbx), %rdx
 2569 0113 C7423000 		movl	$0, 48(%rdx)
 2569      000000
 2570 011a 488B13   		movq	(%rbx), %rdx
 2571 011d FF5208   		call	*8(%rdx)
 2572              	.LVL284:
 2573 0120 4863AB1C 		movslq	540(%rbx), %rbp
 2573      020000
 2574              	.L238:
 681:fltk-1.3.4-1/jpeg/jdarith.c **** 	int expected = (coef_bit_ptr[coefi] < 0) ? 0 : coef_bit_ptr[coefi];
 2575              		.loc 1 681 7 view .LVU834
 2576              	.LVL285:
 681:fltk-1.3.4-1/jpeg/jdarith.c **** 	int expected = (coef_bit_ptr[coefi] < 0) ? 0 : coef_bit_ptr[coefi];
 2577              		.loc 1 681 31 view .LVU835
 681:fltk-1.3.4-1/jpeg/jdarith.c **** 	int expected = (coef_bit_ptr[coefi] < 0) ? 0 : coef_bit_ptr[coefi];
 2578              		.loc 1 681 7 is_stmt 0 view .LVU836
 2579 0127 39AB2002 		cmpl	%ebp, 544(%rbx)
 2579      0000
 2580 012d 7C59     		jl	.L239
 2581              	.LVL286:
 2582 012f 90       		.p2align 4,,10
 2583              		.p2align 3
 2584              	.L241:
 2585              	.LBB24:
 682:fltk-1.3.4-1/jpeg/jdarith.c **** 	if (cinfo->Ah != expected)
 2586              		.loc 1 682 2 is_stmt 1 view .LVU837
 683:fltk-1.3.4-1/jpeg/jdarith.c **** 	  WARNMS2(cinfo, JWRN_BOGUS_PROGRESSION, cindex, coefi);
 2587              		.loc 1 683 2 view .LVU838
 682:fltk-1.3.4-1/jpeg/jdarith.c **** 	if (cinfo->Ah != expected)
 2588              		.loc 1 682 6 is_stmt 0 view .LVU839
 2589 0130 418B04AF 		movl	(%r15,%rbp,4), %eax
 2590 0134 4489E2   		movl	%r12d, %edx
 2591 0137 85C0     		testl	%eax, %eax
 2592 0139 410F4914 		cmovns	(%r15,%rbp,4), %edx
 2592      AF
 683:fltk-1.3.4-1/jpeg/jdarith.c **** 	  WARNMS2(cinfo, JWRN_BOGUS_PROGRESSION, cindex, coefi);
 2593              		.loc 1 683 5 view .LVU840
 2594 013e 39932402 		cmpl	%edx, 548(%rbx)
 2594      0000
 2595 0144 7425     		je	.L240
 684:fltk-1.3.4-1/jpeg/jdarith.c **** 	coef_bit_ptr[coefi] = cinfo->Al;
 2596              		.loc 1 684 4 is_stmt 1 view .LVU841
 2597 0146 488B13   		movq	(%rbx), %rdx
 2598 0149 BEFFFFFF 		movl	$-1, %esi
 2598      FF
 2599 014e 4889DF   		movq	%rbx, %rdi
 2600 0151 C7422876 		movl	$118, 40(%rdx)
 2600      000000
 2601              	.LVL287:
 684:fltk-1.3.4-1/jpeg/jdarith.c **** 	coef_bit_ptr[coefi] = cinfo->Al;
 2602              		.loc 1 684 4 is_stmt 0 view .LVU842
 2603 0158 488B13   		movq	(%rbx), %rdx
 2604 015b 4489722C 		movl	%r14d, 44(%rdx)
 2605 015f 488B13   		movq	(%rbx), %rdx
 2606 0162 896A30   		movl	%ebp, 48(%rdx)
 2607 0165 488B13   		movq	(%rbx), %rdx
 2608 0168 FF5208   		call	*8(%rdx)
 2609              	.LVL288:
 2610              	.L240:
 685:fltk-1.3.4-1/jpeg/jdarith.c ****       }
 2611              		.loc 1 685 2 is_stmt 1 discriminator 2 view .LVU843
 685:fltk-1.3.4-1/jpeg/jdarith.c ****       }
 2612              		.loc 1 685 29 is_stmt 0 discriminator 2 view .LVU844
 2613 016b 8B932802 		movl	552(%rbx), %edx
 2613      0000
 685:fltk-1.3.4-1/jpeg/jdarith.c ****       }
 2614              		.loc 1 685 22 discriminator 2 view .LVU845
 2615 0171 418914AF 		movl	%edx, (%r15,%rbp,4)
 2616              	.LBE24:
 681:fltk-1.3.4-1/jpeg/jdarith.c **** 	int expected = (coef_bit_ptr[coefi] < 0) ? 0 : coef_bit_ptr[coefi];
 2617              		.loc 1 681 51 is_stmt 1 discriminator 2 view .LVU846
 2618              	.LVL289:
 681:fltk-1.3.4-1/jpeg/jdarith.c **** 	int expected = (coef_bit_ptr[coefi] < 0) ? 0 : coef_bit_ptr[coefi];
 2619              		.loc 1 681 31 discriminator 2 view .LVU847
 2620 0175 4883C501 		addq	$1, %rbp
 2621              	.LVL290:
 681:fltk-1.3.4-1/jpeg/jdarith.c **** 	int expected = (coef_bit_ptr[coefi] < 0) ? 0 : coef_bit_ptr[coefi];
 2622              		.loc 1 681 7 is_stmt 0 discriminator 2 view .LVU848
 2623 0179 39AB2002 		cmpl	%ebp, 544(%rbx)
 2623      0000
 2624 017f 7DAF     		jge	.L241
 2625 0181 4863AB1C 		movslq	540(%rbx), %rbp
 2625      020000
 2626              	.L239:
 681:fltk-1.3.4-1/jpeg/jdarith.c **** 	int expected = (coef_bit_ptr[coefi] < 0) ? 0 : coef_bit_ptr[coefi];
 2627              		.loc 1 681 7 discriminator 2 view .LVU849
 2628              	.LBE22:
 676:fltk-1.3.4-1/jpeg/jdarith.c ****       int coefi, cindex = cinfo->cur_comp_info[ci]->component_index;
 2629              		.loc 1 676 45 is_stmt 1 discriminator 2 view .LVU850
 2630              	.LVL291:
 676:fltk-1.3.4-1/jpeg/jdarith.c ****       int coefi, cindex = cinfo->cur_comp_info[ci]->component_index;
 2631              		.loc 1 676 18 discriminator 2 view .LVU851
 2632 0188 48834424 		addq	$1, 8(%rsp)
 2632      0801
 2633              	.LVL292:
 676:fltk-1.3.4-1/jpeg/jdarith.c ****       int coefi, cindex = cinfo->cur_comp_info[ci]->component_index;
 2634              		.loc 1 676 18 is_stmt 0 discriminator 2 view .LVU852
 2635 018e 488B4424 		movq	8(%rsp), %rax
 2635      08
 676:fltk-1.3.4-1/jpeg/jdarith.c ****       int coefi, cindex = cinfo->cur_comp_info[ci]->component_index;
 2636              		.loc 1 676 5 discriminator 2 view .LVU853
 2637 0193 3983C001 		cmpl	%eax, 448(%rbx)
 2637      0000
 2638 0199 0F8F2CFF 		jg	.L242
 2638      FFFF
 2639              	.LVL293:
 2640              	.L237:
 689:fltk-1.3.4-1/jpeg/jdarith.c ****       if (cinfo->Ss == 0)
 2641              		.loc 1 689 5 is_stmt 1 view .LVU854
 689:fltk-1.3.4-1/jpeg/jdarith.c ****       if (cinfo->Ss == 0)
 2642              		.loc 1 689 8 is_stmt 0 view .LVU855
 2643 019f 448BA324 		movl	548(%rbx), %r12d
 2643      020000
 2644 01a6 4585E4   		testl	%r12d, %r12d
 2645 01a9 0F857902 		jne	.L243
 2645      0000
 690:fltk-1.3.4-1/jpeg/jdarith.c **** 	entropy->pub.decode_mcu = decode_mcu_DC_first;
 2646              		.loc 1 690 7 is_stmt 1 view .LVU856
 691:fltk-1.3.4-1/jpeg/jdarith.c ****       else
 2647              		.loc 1 691 26 is_stmt 0 view .LVU857
 2648 01af 85ED     		testl	%ebp, %ebp
 2649 01b1 488D0500 		leaq	decode_mcu_DC_first(%rip), %rax
 2649      000000
 2650 01b8 488D1500 		leaq	decode_mcu_AC_first(%rip), %rdx
 2650      000000
 2651 01bf 480F45C2 		cmovne	%rdx, %rax
 2652 01c3 49894508 		movq	%rax, 8(%r13)
 2653 01c7 EB32     		jmp	.L245
 2654 01c9 0F1F8000 		.p2align 4,,10
 2654      000000
 2655              		.p2align 3
 2656              	.L231:
 704:fltk-1.3.4-1/jpeg/jdarith.c **** 	(cinfo->Se < DCTSIZE2 && cinfo->Se != cinfo->lim_Se))
 2657              		.loc 1 704 5 is_stmt 1 view .LVU858
 704:fltk-1.3.4-1/jpeg/jdarith.c **** 	(cinfo->Se < DCTSIZE2 && cinfo->Se != cinfo->lim_Se))
 2658              		.loc 1 704 8 is_stmt 0 view .LVU859
 2659 01d0 85ED     		testl	%ebp, %ebp
 2660 01d2 0F84B801 		je	.L273
 2660      0000
 2661              	.L247:
 706:fltk-1.3.4-1/jpeg/jdarith.c ****     /* Select MCU decoding routine */
 2662              		.loc 1 706 7 is_stmt 1 view .LVU860
 2663 01d8 488B03   		movq	(%rbx), %rax
 2664 01db BEFFFFFF 		movl	$-1, %esi
 2664      FF
 2665 01e0 4889DF   		movq	%rbx, %rdi
 2666 01e3 C740287D 		movl	$125, 40(%rax)
 2666      000000
 2667 01ea 488B03   		movq	(%rbx), %rax
 2668 01ed FF5008   		call	*8(%rax)
 2669              	.LVL294:
 2670              	.L248:
 708:fltk-1.3.4-1/jpeg/jdarith.c ****   }
 2671              		.loc 1 708 5 view .LVU861
 708:fltk-1.3.4-1/jpeg/jdarith.c ****   }
 2672              		.loc 1 708 29 is_stmt 0 view .LVU862
 2673 01f0 488D0500 		leaq	decode_mcu(%rip), %rax
 2673      000000
 2674 01f7 49894508 		movq	%rax, 8(%r13)
 2675              	.L245:
 2676              	.LVL295:
 712:fltk-1.3.4-1/jpeg/jdarith.c ****     compptr = cinfo->cur_comp_info[ci];
 2677              		.loc 1 712 16 is_stmt 1 discriminator 1 view .LVU863
 712:fltk-1.3.4-1/jpeg/jdarith.c ****     compptr = cinfo->cur_comp_info[ci];
 2678              		.loc 1 712 3 is_stmt 0 discriminator 1 view .LVU864
 2679 01fb 448B8BC0 		movl	448(%rbx), %r9d
 2679      010000
 2680 0202 4531E4   		xorl	%r12d, %r12d
 2681              	.LBB25:
 2682              	.LBB26:
 2683              		.loc 2 71 10 discriminator 1 view .LVU865
 2684 0205 31ED     		xorl	%ebp, %ebp
 2685              	.LBE26:
 2686              	.LBE25:
 712:fltk-1.3.4-1/jpeg/jdarith.c ****     compptr = cinfo->cur_comp_info[ci];
 2687              		.loc 1 712 3 discriminator 1 view .LVU866
 2688 0207 4585C9   		testl	%r9d, %r9d
 2689 020a 0F8E1701 		jle	.L259
 2689      0000
 2690              	.LVL296:
 2691              		.p2align 4,,10
 2692              		.p2align 3
 2693              	.L249:
 713:fltk-1.3.4-1/jpeg/jdarith.c ****     if (! cinfo->progressive_mode || (cinfo->Ss == 0 && cinfo->Ah == 0)) {
 2694              		.loc 1 713 5 is_stmt 1 view .LVU867
 714:fltk-1.3.4-1/jpeg/jdarith.c ****       tbl = compptr->dc_tbl_no;
 2695              		.loc 1 714 8 is_stmt 0 view .LVU868
 2696 0210 448B833C 		movl	316(%rbx), %r8d
 2696      010000
 713:fltk-1.3.4-1/jpeg/jdarith.c ****     if (! cinfo->progressive_mode || (cinfo->Ss == 0 && cinfo->Ah == 0)) {
 2697              		.loc 1 713 13 view .LVU869
 2698 0217 4E8BBCE3 		movq	456(%rbx,%r12,8), %r15
 2698      C8010000 
 2699              	.LVL297:
 714:fltk-1.3.4-1/jpeg/jdarith.c ****       tbl = compptr->dc_tbl_no;
 2700              		.loc 1 714 5 is_stmt 1 view .LVU870
 714:fltk-1.3.4-1/jpeg/jdarith.c ****       tbl = compptr->dc_tbl_no;
 2701              		.loc 1 714 8 is_stmt 0 view .LVU871
 2702 021f 4585C0   		testl	%r8d, %r8d
 2703 0222 741C     		je	.L250
 714:fltk-1.3.4-1/jpeg/jdarith.c ****       tbl = compptr->dc_tbl_no;
 2704              		.loc 1 714 35 discriminator 1 view .LVU872
 2705 0224 8BBB1C02 		movl	540(%rbx), %edi
 2705      0000
 2706 022a 85FF     		testl	%edi, %edi
 2707 022c 0F858000 		jne	.L251
 2707      0000
 714:fltk-1.3.4-1/jpeg/jdarith.c ****       tbl = compptr->dc_tbl_no;
 2708              		.loc 1 714 54 discriminator 2 view .LVU873
 2709 0232 8BB32402 		movl	548(%rbx), %esi
 2709      0000
 2710 0238 85F6     		testl	%esi, %esi
 2711 023a 0F85D600 		jne	.L256
 2711      0000
 2712              	.L250:
 715:fltk-1.3.4-1/jpeg/jdarith.c ****       if (tbl < 0 || tbl >= NUM_ARITH_TBLS)
 2713              		.loc 1 715 7 is_stmt 1 view .LVU874
 715:fltk-1.3.4-1/jpeg/jdarith.c ****       if (tbl < 0 || tbl >= NUM_ARITH_TBLS)
 2714              		.loc 1 715 11 is_stmt 0 view .LVU875
 2715 0240 4D637714 		movslq	20(%r15), %r14
 2716              	.LVL298:
 716:fltk-1.3.4-1/jpeg/jdarith.c **** 	ERREXIT1(cinfo, JERR_NO_ARITH_TABLE, tbl);
 2717              		.loc 1 716 7 is_stmt 1 view .LVU876
 716:fltk-1.3.4-1/jpeg/jdarith.c **** 	ERREXIT1(cinfo, JERR_NO_ARITH_TABLE, tbl);
 2718              		.loc 1 716 10 is_stmt 0 view .LVU877
 2719 0244 4183FE0F 		cmpl	$15, %r14d
 2720 0248 7619     		jbe	.L253
 717:fltk-1.3.4-1/jpeg/jdarith.c ****       if (entropy->dc_stats[tbl] == NULL)
 2721              		.loc 1 717 2 is_stmt 1 view .LVU878
 2722 024a 488B03   		movq	(%rbx), %rax
 2723 024d 4889DF   		movq	%rbx, %rdi
 2724 0250 C7402832 		movl	$50, 40(%rax)
 2724      000000
 2725              	.LVL299:
 717:fltk-1.3.4-1/jpeg/jdarith.c ****       if (entropy->dc_stats[tbl] == NULL)
 2726              		.loc 1 717 2 is_stmt 0 view .LVU879
 2727 0257 488B03   		movq	(%rbx), %rax
 2728 025a 4489702C 		movl	%r14d, 44(%rax)
 2729 025e 488B03   		movq	(%rbx), %rax
 2730 0261 FF10     		call	*(%rax)
 2731              	.LVL300:
 2732              	.L253:
 718:fltk-1.3.4-1/jpeg/jdarith.c **** 	entropy->dc_stats[tbl] = (unsigned char *) (*cinfo->mem->alloc_small)
 2733              		.loc 1 718 7 is_stmt 1 view .LVU880
 2734 0263 4F8D74F5 		leaq	0(%r13,%r14,8), %r14
 2734      00
 2735              	.LVL301:
 718:fltk-1.3.4-1/jpeg/jdarith.c **** 	entropy->dc_stats[tbl] = (unsigned char *) (*cinfo->mem->alloc_small)
 2736              		.loc 1 718 28 is_stmt 0 view .LVU881
 2737 0268 498B4650 		movq	80(%r14), %rax
 718:fltk-1.3.4-1/jpeg/jdarith.c **** 	entropy->dc_stats[tbl] = (unsigned char *) (*cinfo->mem->alloc_small)
 2738              		.loc 1 718 10 view .LVU882
 2739 026c 4885C0   		testq	%rax, %rax
 2740 026f 0F845B01 		je	.L274
 2740      0000
 2741              	.L254:
 721:fltk-1.3.4-1/jpeg/jdarith.c ****       /* Initialize DC predictions to 0 */
 2742              		.loc 1 721 7 is_stmt 1 view .LVU883
 2743              	.LVL302:
 2744              	.LBB28:
 2745              	.LBI28:
  59:/usr/include/x86_64-linux-gnu/bits/string_fortified.h **** {
 2746              		.loc 2 59 1 view .LVU884
 2747              	.LBB29:
 2748              		.loc 2 71 3 view .LVU885
 2749              		.loc 2 71 10 is_stmt 0 view .LVU886
 2750 0275 660FEFC0 		pxor	%xmm0, %xmm0
 2751 0279 0F1100   		movups	%xmm0, (%rax)
 2752              		.loc 2 71 10 view .LVU887
 2753 027c 0F114010 		movups	%xmm0, 16(%rax)
 2754 0280 0F114020 		movups	%xmm0, 32(%rax)
 2755 0284 0F114030 		movups	%xmm0, 48(%rax)
 2756              	.LVL303:
 2757              		.loc 2 71 10 view .LVU888
 2758              	.LBE29:
 2759              	.LBE28:
 723:fltk-1.3.4-1/jpeg/jdarith.c ****       entropy->dc_context[ci] = 0;
 2760              		.loc 1 723 7 is_stmt 1 view .LVU889
 723:fltk-1.3.4-1/jpeg/jdarith.c ****       entropy->dc_context[ci] = 0;
 2761              		.loc 1 723 32 is_stmt 0 view .LVU890
 2762 0288 43C744A5 		movl	$0, 44(%r13,%r12,4)
 2762      2C000000 
 2762      00
 724:fltk-1.3.4-1/jpeg/jdarith.c ****     }
 2763              		.loc 1 724 7 is_stmt 1 view .LVU891
 724:fltk-1.3.4-1/jpeg/jdarith.c ****     }
 2764              		.loc 1 724 31 is_stmt 0 view .LVU892
 2765 0291 43C744A5 		movl	$0, 60(%r13,%r12,4)
 2765      3C000000 
 2765      00
 726:fltk-1.3.4-1/jpeg/jdarith.c **** 	(cinfo->progressive_mode && cinfo->Ss)) {
 2766              		.loc 1 726 5 is_stmt 1 view .LVU893
 726:fltk-1.3.4-1/jpeg/jdarith.c **** 	(cinfo->progressive_mode && cinfo->Ss)) {
 2767              		.loc 1 726 8 is_stmt 0 view .LVU894
 2768 029a 8B8B3C01 		movl	316(%rbx), %ecx
 2768      0000
 2769 02a0 85C9     		testl	%ecx, %ecx
 2770 02a2 0F856801 		jne	.L275
 2770      0000
 726:fltk-1.3.4-1/jpeg/jdarith.c **** 	(cinfo->progressive_mode && cinfo->Ss)) {
 2771              		.loc 1 726 36 discriminator 1 view .LVU895
 2772 02a8 8B833802 		movl	568(%rbx), %eax
 2772      0000
 2773 02ae 85C0     		testl	%eax, %eax
 2774 02b0 7464     		je	.L256
 2775              	.L251:
 728:fltk-1.3.4-1/jpeg/jdarith.c ****       if (tbl < 0 || tbl >= NUM_ARITH_TBLS)
 2776              		.loc 1 728 7 is_stmt 1 view .LVU896
 728:fltk-1.3.4-1/jpeg/jdarith.c ****       if (tbl < 0 || tbl >= NUM_ARITH_TBLS)
 2777              		.loc 1 728 11 is_stmt 0 view .LVU897
 2778 02b2 4D637718 		movslq	24(%r15), %r14
 2779              	.LVL304:
 729:fltk-1.3.4-1/jpeg/jdarith.c **** 	ERREXIT1(cinfo, JERR_NO_ARITH_TABLE, tbl);
 2780              		.loc 1 729 7 is_stmt 1 view .LVU898
 729:fltk-1.3.4-1/jpeg/jdarith.c **** 	ERREXIT1(cinfo, JERR_NO_ARITH_TABLE, tbl);
 2781              		.loc 1 729 10 is_stmt 0 view .LVU899
 2782 02b6 4183FE0F 		cmpl	$15, %r14d
 2783 02ba 7619     		jbe	.L257
 730:fltk-1.3.4-1/jpeg/jdarith.c ****       if (entropy->ac_stats[tbl] == NULL)
 2784              		.loc 1 730 2 is_stmt 1 view .LVU900
 2785 02bc 488B03   		movq	(%rbx), %rax
 2786 02bf 4889DF   		movq	%rbx, %rdi
 2787 02c2 C7402832 		movl	$50, 40(%rax)
 2787      000000
 2788              	.LVL305:
 730:fltk-1.3.4-1/jpeg/jdarith.c ****       if (entropy->ac_stats[tbl] == NULL)
 2789              		.loc 1 730 2 is_stmt 0 view .LVU901
 2790 02c9 488B03   		movq	(%rbx), %rax
 2791 02cc 4489702C 		movl	%r14d, 44(%rax)
 2792 02d0 488B03   		movq	(%rbx), %rax
 2793 02d3 FF10     		call	*(%rax)
 2794              	.LVL306:
 2795              	.L257:
 731:fltk-1.3.4-1/jpeg/jdarith.c **** 	entropy->ac_stats[tbl] = (unsigned char *) (*cinfo->mem->alloc_small)
 2796              		.loc 1 731 7 is_stmt 1 view .LVU902
 2797 02d5 4F8D74F5 		leaq	0(%r13,%r14,8), %r14
 2797      00
 2798              	.LVL307:
 731:fltk-1.3.4-1/jpeg/jdarith.c **** 	entropy->ac_stats[tbl] = (unsigned char *) (*cinfo->mem->alloc_small)
 2799              		.loc 1 731 28 is_stmt 0 view .LVU903
 2800 02da 498B86D0 		movq	208(%r14), %rax
 2800      000000
 731:fltk-1.3.4-1/jpeg/jdarith.c **** 	entropy->ac_stats[tbl] = (unsigned char *) (*cinfo->mem->alloc_small)
 2801              		.loc 1 731 10 view .LVU904
 2802 02e1 4885C0   		testq	%rax, %rax
 2803 02e4 0F840601 		je	.L276
 2803      0000
 2804              	.L258:
 734:fltk-1.3.4-1/jpeg/jdarith.c ****     }
 2805              		.loc 1 734 7 is_stmt 1 view .LVU905
 2806              	.LVL308:
 2807              	.LBB30:
 2808              	.LBI25:
  59:/usr/include/x86_64-linux-gnu/bits/string_fortified.h **** {
 2809              		.loc 2 59 1 view .LVU906
 2810              	.LBB27:
 2811              		.loc 2 71 3 view .LVU907
 2812              		.loc 2 71 10 is_stmt 0 view .LVU908
 2813 02ea 488D7808 		leaq	8(%rax), %rdi
 2814 02ee 48C70000 		movq	$0, (%rax)
 2814      000000
 2815              		.loc 2 71 10 view .LVU909
 2816 02f5 48C780F8 		movq	$0, 248(%rax)
 2816      00000000 
 2816      000000
 2817 0300 4883E7F8 		andq	$-8, %rdi
 2818 0304 4829F8   		subq	%rdi, %rax
 2819 0307 8D880001 		leal	256(%rax), %ecx
 2819      0000
 2820 030d 4889E8   		movq	%rbp, %rax
 2821 0310 C1E903   		shrl	$3, %ecx
 2822 0313 F348AB   		rep stosq
 2823              	.LVL309:
 2824              	.L256:
 2825              		.loc 2 71 10 view .LVU910
 2826              	.LBE27:
 2827              	.LBE30:
 712:fltk-1.3.4-1/jpeg/jdarith.c ****     compptr = cinfo->cur_comp_info[ci];
 2828              		.loc 1 712 43 is_stmt 1 discriminator 2 view .LVU911
 712:fltk-1.3.4-1/jpeg/jdarith.c ****     compptr = cinfo->cur_comp_info[ci];
 2829              		.loc 1 712 16 discriminator 2 view .LVU912
 2830 0316 4983C401 		addq	$1, %r12
 2831              	.LVL310:
 712:fltk-1.3.4-1/jpeg/jdarith.c ****     compptr = cinfo->cur_comp_info[ci];
 2832              		.loc 1 712 3 is_stmt 0 discriminator 2 view .LVU913
 2833 031a 4439A3C0 		cmpl	%r12d, 448(%rbx)
 2833      010000
 2834 0321 0F8FE9FE 		jg	.L249
 2834      FFFF
 2835              	.LVL311:
 2836              	.L259:
 739:fltk-1.3.4-1/jpeg/jdarith.c ****   entropy->a = 0;
 2837              		.loc 1 739 3 is_stmt 1 view .LVU914
 739:fltk-1.3.4-1/jpeg/jdarith.c ****   entropy->a = 0;
 2838              		.loc 1 739 14 is_stmt 0 view .LVU915
 2839 0327 49C74518 		movq	$0, 24(%r13)
 2839      00000000 
 740:fltk-1.3.4-1/jpeg/jdarith.c ****   entropy->ct = -16;	/* force reading 2 initial bytes to fill C */
 2840              		.loc 1 740 3 is_stmt 1 view .LVU916
 740:fltk-1.3.4-1/jpeg/jdarith.c ****   entropy->ct = -16;	/* force reading 2 initial bytes to fill C */
 2841              		.loc 1 740 14 is_stmt 0 view .LVU917
 2842 032f 49C74520 		movq	$0, 32(%r13)
 2842      00000000 
 741:fltk-1.3.4-1/jpeg/jdarith.c **** 
 2843              		.loc 1 741 3 is_stmt 1 view .LVU918
 741:fltk-1.3.4-1/jpeg/jdarith.c **** 
 2844              		.loc 1 741 15 is_stmt 0 view .LVU919
 2845 0337 41C74528 		movl	$-16, 40(%r13)
 2845      F0FFFFFF 
 744:fltk-1.3.4-1/jpeg/jdarith.c **** }
 2846              		.loc 1 744 3 is_stmt 1 view .LVU920
 744:fltk-1.3.4-1/jpeg/jdarith.c **** }
 2847              		.loc 1 744 34 is_stmt 0 view .LVU921
 2848 033f 8B837401 		movl	372(%rbx), %eax
 2848      0000
 744:fltk-1.3.4-1/jpeg/jdarith.c **** }
 2849              		.loc 1 744 27 view .LVU922
 2850 0345 4189454C 		movl	%eax, 76(%r13)
 745:fltk-1.3.4-1/jpeg/jdarith.c **** 
 2851              		.loc 1 745 1 view .LVU923
 2852 0349 4883C418 		addq	$24, %rsp
 2853              		.cfi_remember_state
 2854              		.cfi_def_cfa_offset 56
 2855 034d 5B       		popq	%rbx
 2856              		.cfi_def_cfa_offset 48
 2857              	.LVL312:
 745:fltk-1.3.4-1/jpeg/jdarith.c **** 
 2858              		.loc 1 745 1 view .LVU924
 2859 034e 5D       		popq	%rbp
 2860              		.cfi_def_cfa_offset 40
 2861 034f 415C     		popq	%r12
 2862              		.cfi_def_cfa_offset 32
 2863 0351 415D     		popq	%r13
 2864              		.cfi_def_cfa_offset 24
 2865              	.LVL313:
 745:fltk-1.3.4-1/jpeg/jdarith.c **** 
 2866              		.loc 1 745 1 view .LVU925
 2867 0353 415E     		popq	%r14
 2868              		.cfi_def_cfa_offset 16
 2869 0355 415F     		popq	%r15
 2870              		.cfi_def_cfa_offset 8
 2871 0357 C3       		ret
 2872              	.LVL314:
 2873 0358 0F1F8400 		.p2align 4,,10
 2873      00000000 
 2874              		.p2align 3
 2875              	.L232:
 2876              		.cfi_restore_state
 656:fltk-1.3.4-1/jpeg/jdarith.c **** 	goto bad;
 2877              		.loc 1 656 7 is_stmt 1 view .LVU926
 656:fltk-1.3.4-1/jpeg/jdarith.c **** 	goto bad;
 2878              		.loc 1 656 10 is_stmt 0 view .LVU927
 2879 0360 39E8     		cmpl	%ebp, %eax
 2880 0362 0F8C00FD 		jl	.L233
 2880      FFFF
 656:fltk-1.3.4-1/jpeg/jdarith.c **** 	goto bad;
 2881              		.loc 1 656 33 discriminator 1 view .LVU928
 2882 0368 39873802 		cmpl	%eax, 568(%rdi)
 2882      0000
 2883 036e 0F8CF4FC 		jl	.L233
 2883      FFFF
 659:fltk-1.3.4-1/jpeg/jdarith.c **** 	goto bad;
 2884              		.loc 1 659 7 is_stmt 1 view .LVU929
 659:fltk-1.3.4-1/jpeg/jdarith.c **** 	goto bad;
 2885              		.loc 1 659 10 is_stmt 0 view .LVU930
 2886 0374 83BFC001 		cmpl	$1, 448(%rdi)
 2886      000001
 2887 037b 0F85E7FC 		jne	.L233
 2887      FFFF
 2888 0381 E9BDFCFF 		jmp	.L234
 2888      FF
 2889 0386 662E0F1F 		.p2align 4,,10
 2889      84000000 
 2889      0000
 2890              		.p2align 3
 2891              	.L273:
 704:fltk-1.3.4-1/jpeg/jdarith.c **** 	(cinfo->Se < DCTSIZE2 && cinfo->Se != cinfo->lim_Se))
 2892              		.loc 1 704 24 discriminator 1 view .LVU931
 2893 0390 448B9F24 		movl	548(%rdi), %r11d
 2893      020000
 2894 0397 4585DB   		testl	%r11d, %r11d
 2895 039a 0F8538FE 		jne	.L247
 2895      FFFF
 704:fltk-1.3.4-1/jpeg/jdarith.c **** 	(cinfo->Se < DCTSIZE2 && cinfo->Se != cinfo->lim_Se))
 2896              		.loc 1 704 42 discriminator 2 view .LVU932
 2897 03a0 448B9728 		movl	552(%rdi), %r10d
 2897      020000
 2898 03a7 4585D2   		testl	%r10d, %r10d
 2899 03aa 0F8528FE 		jne	.L247
 2899      FFFF
 705:fltk-1.3.4-1/jpeg/jdarith.c ****       WARNMS(cinfo, JWRN_NOT_SEQUENTIAL);
 2900              		.loc 1 705 8 discriminator 3 view .LVU933
 2901 03b0 8B872002 		movl	544(%rdi), %eax
 2901      0000
 704:fltk-1.3.4-1/jpeg/jdarith.c **** 	(cinfo->Se < DCTSIZE2 && cinfo->Se != cinfo->lim_Se))
 2902              		.loc 1 704 60 discriminator 3 view .LVU934
 2903 03b6 83F83F   		cmpl	$63, %eax
 2904 03b9 0F8F31FE 		jg	.L248
 2904      FFFF
 705:fltk-1.3.4-1/jpeg/jdarith.c ****       WARNMS(cinfo, JWRN_NOT_SEQUENTIAL);
 2905              		.loc 1 705 24 view .LVU935
 2906 03bf 3B873802 		cmpl	568(%rdi), %eax
 2906      0000
 2907 03c5 0F850DFE 		jne	.L247
 2907      FFFF
 2908 03cb E920FEFF 		jmp	.L248
 2908      FF
 2909              	.LVL315:
 2910              		.p2align 4,,10
 2911              		.p2align 3
 2912              	.L274:
 719:fltk-1.3.4-1/jpeg/jdarith.c **** 	  ((j_common_ptr) cinfo, JPOOL_IMAGE, DC_STAT_BINS);
 2913              		.loc 1 719 2 is_stmt 1 view .LVU936
 719:fltk-1.3.4-1/jpeg/jdarith.c **** 	  ((j_common_ptr) cinfo, JPOOL_IMAGE, DC_STAT_BINS);
 2914              		.loc 1 719 46 is_stmt 0 view .LVU937
 2915 03d0 488B4308 		movq	8(%rbx), %rax
 2916 03d4 BA400000 		movl	$64, %edx
 2916      00
 2917 03d9 BE010000 		movl	$1, %esi
 2917      00
 2918 03de 4889DF   		movq	%rbx, %rdi
 2919 03e1 FF10     		call	*(%rax)
 2920              	.LVL316:
 719:fltk-1.3.4-1/jpeg/jdarith.c **** 	  ((j_common_ptr) cinfo, JPOOL_IMAGE, DC_STAT_BINS);
 2921              		.loc 1 719 25 view .LVU938
 2922 03e3 49894650 		movq	%rax, 80(%r14)
 2923 03e7 E989FEFF 		jmp	.L254
 2923      FF
 2924 03ec 0F1F4000 		.p2align 4,,10
 2925              		.p2align 3
 2926              	.L276:
 732:fltk-1.3.4-1/jpeg/jdarith.c **** 	  ((j_common_ptr) cinfo, JPOOL_IMAGE, AC_STAT_BINS);
 2927              		.loc 1 732 2 is_stmt 1 view .LVU939
 732:fltk-1.3.4-1/jpeg/jdarith.c **** 	  ((j_common_ptr) cinfo, JPOOL_IMAGE, AC_STAT_BINS);
 2928              		.loc 1 732 46 is_stmt 0 view .LVU940
 2929 03f0 488B4308 		movq	8(%rbx), %rax
 2930 03f4 BA000100 		movl	$256, %edx
 2930      00
 2931 03f9 BE010000 		movl	$1, %esi
 2931      00
 2932 03fe 4889DF   		movq	%rbx, %rdi
 2933 0401 FF10     		call	*(%rax)
 2934              	.LVL317:
 732:fltk-1.3.4-1/jpeg/jdarith.c **** 	  ((j_common_ptr) cinfo, JPOOL_IMAGE, AC_STAT_BINS);
 2935              		.loc 1 732 25 view .LVU941
 2936 0403 498986D0 		movq	%rax, 208(%r14)
 2936      000000
 2937 040a E9DBFEFF 		jmp	.L258
 2937      FF
 2938 040f 90       		.p2align 4,,10
 2939              		.p2align 3
 2940              	.L275:
 727:fltk-1.3.4-1/jpeg/jdarith.c ****       tbl = compptr->ac_tbl_no;
 2941              		.loc 1 727 27 view .LVU942
 2942 0410 8B931C02 		movl	540(%rbx), %edx
 2942      0000
 2943 0416 85D2     		testl	%edx, %edx
 2944 0418 0F84F8FE 		je	.L256
 2944      FFFF
 2945 041e E98FFEFF 		jmp	.L251
 2945      FF
 2946              	.LVL318:
 2947              		.p2align 4,,10
 2948 0423 0F1F4400 		.p2align 3
 2948      00
 2949              	.L243:
 695:fltk-1.3.4-1/jpeg/jdarith.c **** 	entropy->pub.decode_mcu = decode_mcu_DC_refine;
 2950              		.loc 1 695 7 is_stmt 1 view .LVU943
 696:fltk-1.3.4-1/jpeg/jdarith.c ****       else
 2951              		.loc 1 696 26 is_stmt 0 view .LVU944
 2952 0428 85ED     		testl	%ebp, %ebp
 2953 042a 488D0500 		leaq	decode_mcu_DC_refine(%rip), %rax
 2953      000000
 2954 0431 488D1500 		leaq	decode_mcu_AC_refine(%rip), %rdx
 2954      000000
 2955 0438 480F45C2 		cmovne	%rdx, %rax
 2956 043c 49894508 		movq	%rax, 8(%r13)
 2957 0440 E9B6FDFF 		jmp	.L245
 2957      FF
 2958              	.L235:
 667:fltk-1.3.4-1/jpeg/jdarith.c ****       bad:
 2959              		.loc 1 667 5 is_stmt 1 view .LVU945
 667:fltk-1.3.4-1/jpeg/jdarith.c ****       bad:
 2960              		.loc 1 667 8 is_stmt 0 view .LVU946
 2961 0445 83FA0D   		cmpl	$13, %edx
 2962 0448 0F8E63FC 		jle	.L236
 2962      FFFF
 668:fltk-1.3.4-1/jpeg/jdarith.c ****       ERREXIT4(cinfo, JERR_BAD_PROGRESSION,
 2963              		.loc 1 668 7 view .LVU947
 2964 044e E915FCFF 		jmp	.L233
 2964      FF
 2965              		.cfi_endproc
 2966              	.LFE59:
 2968              		.section	.text.jinit_arith_decoder,"ax",@progbits
 2969              		.p2align 4
 2970              		.globl	jinit_arith_decoder
 2972              	jinit_arith_decoder:
 2973              	.LVL319:
 2974              	.LFB61:
 757:fltk-1.3.4-1/jpeg/jdarith.c **** 
 758:fltk-1.3.4-1/jpeg/jdarith.c **** 
 759:fltk-1.3.4-1/jpeg/jdarith.c **** /*
 760:fltk-1.3.4-1/jpeg/jdarith.c ****  * Module initialization routine for arithmetic entropy decoding.
 761:fltk-1.3.4-1/jpeg/jdarith.c ****  */
 762:fltk-1.3.4-1/jpeg/jdarith.c **** 
 763:fltk-1.3.4-1/jpeg/jdarith.c **** GLOBAL(void)
 764:fltk-1.3.4-1/jpeg/jdarith.c **** jinit_arith_decoder (j_decompress_ptr cinfo)
 765:fltk-1.3.4-1/jpeg/jdarith.c **** {
 2975              		.loc 1 765 1 is_stmt 1 view -0
 2976              		.cfi_startproc
 2977              		.loc 1 765 1 is_stmt 0 view .LVU949
 2978 0000 F30F1EFA 		endbr64
 766:fltk-1.3.4-1/jpeg/jdarith.c ****   arith_entropy_ptr entropy;
 2979              		.loc 1 766 3 is_stmt 1 view .LVU950
 767:fltk-1.3.4-1/jpeg/jdarith.c ****   int i;
 2980              		.loc 1 767 3 view .LVU951
 768:fltk-1.3.4-1/jpeg/jdarith.c **** 
 769:fltk-1.3.4-1/jpeg/jdarith.c ****   entropy = (arith_entropy_ptr)
 2981              		.loc 1 769 3 view .LVU952
 765:fltk-1.3.4-1/jpeg/jdarith.c ****   arith_entropy_ptr entropy;
 2982              		.loc 1 765 1 is_stmt 0 view .LVU953
 2983 0004 53       		pushq	%rbx
 2984              		.cfi_def_cfa_offset 16
 2985              		.cfi_offset 3, -16
 770:fltk-1.3.4-1/jpeg/jdarith.c ****     (*cinfo->mem->alloc_small) ((j_common_ptr) cinfo, JPOOL_IMAGE,
 2986              		.loc 1 770 6 view .LVU954
 2987 0005 488B4708 		movq	8(%rdi), %rax
 765:fltk-1.3.4-1/jpeg/jdarith.c ****   arith_entropy_ptr entropy;
 2988              		.loc 1 765 1 view .LVU955
 2989 0009 4889FB   		movq	%rdi, %rbx
 2990              		.loc 1 770 6 view .LVU956
 2991 000c BA580100 		movl	$344, %edx
 2991      00
 2992 0011 BE010000 		movl	$1, %esi
 2992      00
 2993 0016 FF10     		call	*(%rax)
 2994              	.LVL320:
 2995              		.loc 1 770 6 view .LVU957
 2996 0018 4889C1   		movq	%rax, %rcx
 2997              	.LVL321:
 771:fltk-1.3.4-1/jpeg/jdarith.c **** 				SIZEOF(arith_entropy_decoder));
 772:fltk-1.3.4-1/jpeg/jdarith.c ****   cinfo->entropy = &entropy->pub;
 2998              		.loc 1 772 3 is_stmt 1 view .LVU958
 2999              		.loc 1 772 18 is_stmt 0 view .LVU959
 3000 001b 48898370 		movq	%rax, 624(%rbx)
 3000      020000
 773:fltk-1.3.4-1/jpeg/jdarith.c ****   entropy->pub.start_pass = start_pass;
 3001              		.loc 1 773 3 is_stmt 1 view .LVU960
 3002              		.loc 1 773 27 is_stmt 0 view .LVU961
 3003 0022 488D0500 		leaq	start_pass(%rip), %rax
 3003      000000
 3004              	.LVL322:
 3005              		.loc 1 773 27 view .LVU962
 3006 0029 488901   		movq	%rax, (%rcx)
 774:fltk-1.3.4-1/jpeg/jdarith.c ****   entropy->pub.finish_pass = finish_pass;
 3007              		.loc 1 774 3 is_stmt 1 view .LVU963
 3008              		.loc 1 774 28 is_stmt 0 view .LVU964
 3009 002c 488D0500 		leaq	finish_pass(%rip), %rax
 3009      000000
 3010 0033 488D91D0 		leaq	208(%rcx), %rdx
 3010      000000
 3011 003a 48894110 		movq	%rax, 16(%rcx)
 775:fltk-1.3.4-1/jpeg/jdarith.c **** 
 776:fltk-1.3.4-1/jpeg/jdarith.c ****   /* Mark tables unallocated */
 777:fltk-1.3.4-1/jpeg/jdarith.c ****   for (i = 0; i < NUM_ARITH_TBLS; i++) {
 3012              		.loc 1 777 3 is_stmt 1 view .LVU965
 3013              	.LVL323:
 3014              		.loc 1 777 15 view .LVU966
 3015 003e 488D4150 		leaq	80(%rcx), %rax
 3016              	.LVL324:
 3017              		.p2align 4,,10
 3018 0042 660F1F44 		.p2align 3
 3018      0000
 3019              	.L278:
 778:fltk-1.3.4-1/jpeg/jdarith.c ****     entropy->dc_stats[i] = NULL;
 3020              		.loc 1 778 5 discriminator 3 view .LVU967
 3021              		.loc 1 778 26 is_stmt 0 discriminator 3 view .LVU968
 3022 0048 48C70000 		movq	$0, (%rax)
 3022      000000
 779:fltk-1.3.4-1/jpeg/jdarith.c ****     entropy->ac_stats[i] = NULL;
 3023              		.loc 1 779 5 is_stmt 1 discriminator 3 view .LVU969
 3024 004f 4883C008 		addq	$8, %rax
 3025              		.loc 1 779 26 is_stmt 0 discriminator 3 view .LVU970
 3026 0053 48C74078 		movq	$0, 120(%rax)
 3026      00000000 
 777:fltk-1.3.4-1/jpeg/jdarith.c ****     entropy->dc_stats[i] = NULL;
 3027              		.loc 1 777 35 is_stmt 1 discriminator 3 view .LVU971
 777:fltk-1.3.4-1/jpeg/jdarith.c ****     entropy->dc_stats[i] = NULL;
 3028              		.loc 1 777 15 discriminator 3 view .LVU972
 777:fltk-1.3.4-1/jpeg/jdarith.c ****     entropy->dc_stats[i] = NULL;
 3029              		.loc 1 777 3 is_stmt 0 discriminator 3 view .LVU973
 3030 005b 4839D0   		cmpq	%rdx, %rax
 3031 005e 75E8     		jne	.L278
 780:fltk-1.3.4-1/jpeg/jdarith.c ****   }
 781:fltk-1.3.4-1/jpeg/jdarith.c **** 
 782:fltk-1.3.4-1/jpeg/jdarith.c ****   /* Initialize index for fixed probability estimation */
 783:fltk-1.3.4-1/jpeg/jdarith.c ****   entropy->fixed_bin[0] = 113;
 3032              		.loc 1 783 3 is_stmt 1 view .LVU974
 3033              		.loc 1 783 25 is_stmt 0 view .LVU975
 3034 0060 C6815001 		movb	$113, 336(%rcx)
 3034      000071
 784:fltk-1.3.4-1/jpeg/jdarith.c **** 
 785:fltk-1.3.4-1/jpeg/jdarith.c ****   if (cinfo->progressive_mode) {
 3035              		.loc 1 785 3 is_stmt 1 view .LVU976
 3036              		.loc 1 785 6 is_stmt 0 view .LVU977
 3037 0067 8B933C01 		movl	316(%rbx), %edx
 3037      0000
 3038 006d 85D2     		testl	%edx, %edx
 3039 006f 746E     		je	.L277
 3040              	.LBB31:
 786:fltk-1.3.4-1/jpeg/jdarith.c ****     /* Create progression status table */
 787:fltk-1.3.4-1/jpeg/jdarith.c ****     int *coef_bit_ptr, ci;
 3041              		.loc 1 787 5 is_stmt 1 view .LVU978
 788:fltk-1.3.4-1/jpeg/jdarith.c ****     cinfo->coef_bits = (int (*)[DCTSIZE2])
 3042              		.loc 1 788 5 view .LVU979
 789:fltk-1.3.4-1/jpeg/jdarith.c ****       (*cinfo->mem->alloc_small) ((j_common_ptr) cinfo, JPOOL_IMAGE,
 790:fltk-1.3.4-1/jpeg/jdarith.c **** 				  cinfo->num_components*DCTSIZE2*SIZEOF(int));
 3043              		.loc 1 790 28 is_stmt 0 view .LVU980
 3044 0071 8B5338   		movl	56(%rbx), %edx
 789:fltk-1.3.4-1/jpeg/jdarith.c ****       (*cinfo->mem->alloc_small) ((j_common_ptr) cinfo, JPOOL_IMAGE,
 3045              		.loc 1 789 8 view .LVU981
 3046 0074 488B4308 		movq	8(%rbx), %rax
 3047 0078 BE010000 		movl	$1, %esi
 3047      00
 3048 007d 4889DF   		movq	%rbx, %rdi
 3049              		.loc 1 790 28 view .LVU982
 3050 0080 C1E206   		sall	$6, %edx
 3051 0083 4863D2   		movslq	%edx, %rdx
 789:fltk-1.3.4-1/jpeg/jdarith.c ****       (*cinfo->mem->alloc_small) ((j_common_ptr) cinfo, JPOOL_IMAGE,
 3052              		.loc 1 789 8 view .LVU983
 3053 0086 48C1E202 		salq	$2, %rdx
 3054 008a FF10     		call	*(%rax)
 3055              	.LVL325:
 788:fltk-1.3.4-1/jpeg/jdarith.c ****     cinfo->coef_bits = (int (*)[DCTSIZE2])
 3056              		.loc 1 788 22 view .LVU984
 3057 008c 488983C0 		movq	%rax, 192(%rbx)
 3057      000000
 791:fltk-1.3.4-1/jpeg/jdarith.c ****     coef_bit_ptr = & cinfo->coef_bits[0][0];
 3058              		.loc 1 791 5 is_stmt 1 view .LVU985
 789:fltk-1.3.4-1/jpeg/jdarith.c ****       (*cinfo->mem->alloc_small) ((j_common_ptr) cinfo, JPOOL_IMAGE,
 3059              		.loc 1 789 8 is_stmt 0 view .LVU986
 3060 0093 4889C2   		movq	%rax, %rdx
 3061              	.LVL326:
 792:fltk-1.3.4-1/jpeg/jdarith.c ****     for (ci = 0; ci < cinfo->num_components; ci++) 
 3062              		.loc 1 792 5 is_stmt 1 view .LVU987
 3063              		.loc 1 792 18 view .LVU988
 3064              		.loc 1 792 5 is_stmt 0 view .LVU989
 3065 0096 8B4338   		movl	56(%rbx), %eax
 3066              	.LVL327:
 3067              		.loc 1 792 5 view .LVU990
 3068 0099 85C0     		testl	%eax, %eax
 3069 009b 7E42     		jle	.L277
 3070 009d 4881C200 		addq	$256, %rdx
 3070      010000
 3071              	.LVL328:
 3072              		.loc 1 792 13 view .LVU991
 3073 00a4 31C9     		xorl	%ecx, %ecx
 3074              	.LVL329:
 3075 00a6 662E0F1F 		.p2align 4,,10
 3075      84000000 
 3075      0000
 3076              		.p2align 3
 3077              	.L281:
 3078              		.loc 1 792 13 view .LVU992
 3079 00b0 488D8200 		leaq	-256(%rdx), %rax
 3079      FFFFFF
 3080              	.LVL330:
 3081 00b7 660F1F84 		.p2align 4,,10
 3081      00000000 
 3081      00
 3082              		.p2align 3
 3083              	.L280:
 793:fltk-1.3.4-1/jpeg/jdarith.c ****       for (i = 0; i < DCTSIZE2; i++)
 794:fltk-1.3.4-1/jpeg/jdarith.c **** 	*coef_bit_ptr++ = -1;
 3084              		.loc 1 794 2 is_stmt 1 discriminator 3 view .LVU993
 3085              		.loc 1 794 15 is_stmt 0 discriminator 3 view .LVU994
 3086 00c0 4883C004 		addq	$4, %rax
 3087              	.LVL331:
 3088              		.loc 1 794 18 discriminator 3 view .LVU995
 3089 00c4 C740FCFF 		movl	$-1, -4(%rax)
 3089      FFFFFF
 793:fltk-1.3.4-1/jpeg/jdarith.c ****       for (i = 0; i < DCTSIZE2; i++)
 3090              		.loc 1 793 33 is_stmt 1 discriminator 3 view .LVU996
 793:fltk-1.3.4-1/jpeg/jdarith.c ****       for (i = 0; i < DCTSIZE2; i++)
 3091              		.loc 1 793 19 discriminator 3 view .LVU997
 793:fltk-1.3.4-1/jpeg/jdarith.c ****       for (i = 0; i < DCTSIZE2; i++)
 3092              		.loc 1 793 7 is_stmt 0 discriminator 3 view .LVU998
 3093 00cb 4839D0   		cmpq	%rdx, %rax
 3094 00ce 75F0     		jne	.L280
 792:fltk-1.3.4-1/jpeg/jdarith.c ****     for (ci = 0; ci < cinfo->num_components; ci++) 
 3095              		.loc 1 792 46 is_stmt 1 discriminator 2 view .LVU999
 792:fltk-1.3.4-1/jpeg/jdarith.c ****     for (ci = 0; ci < cinfo->num_components; ci++) 
 3096              		.loc 1 792 48 is_stmt 0 discriminator 2 view .LVU1000
 3097 00d0 83C101   		addl	$1, %ecx
 3098              	.LVL332:
 792:fltk-1.3.4-1/jpeg/jdarith.c ****     for (ci = 0; ci < cinfo->num_components; ci++) 
 3099              		.loc 1 792 18 is_stmt 1 discriminator 2 view .LVU1001
 3100 00d3 4881C200 		addq	$256, %rdx
 3100      010000
 3101              	.LVL333:
 792:fltk-1.3.4-1/jpeg/jdarith.c ****     for (ci = 0; ci < cinfo->num_components; ci++) 
 3102              		.loc 1 792 5 is_stmt 0 discriminator 2 view .LVU1002
 3103 00da 394B38   		cmpl	%ecx, 56(%rbx)
 3104 00dd 7FD1     		jg	.L281
 3105              	.LVL334:
 3106              	.L277:
 792:fltk-1.3.4-1/jpeg/jdarith.c ****     for (ci = 0; ci < cinfo->num_components; ci++) 
 3107              		.loc 1 792 5 discriminator 2 view .LVU1003
 3108              	.LBE31:
 795:fltk-1.3.4-1/jpeg/jdarith.c ****   }
 796:fltk-1.3.4-1/jpeg/jdarith.c **** }
 3109              		.loc 1 796 1 view .LVU1004
 3110 00df 5B       		popq	%rbx
 3111              		.cfi_def_cfa_offset 8
 3112              	.LVL335:
 3113              		.loc 1 796 1 view .LVU1005
 3114 00e0 C3       		ret
 3115              		.cfi_endproc
 3116              	.LFE61:
 3118              		.text
 3119              	.Letext0:
 3120              		.file 3 "/usr/lib/gcc/x86_64-linux-gnu/9/include/stddef.h"
 3121              		.file 4 "/usr/include/x86_64-linux-gnu/bits/types.h"
 3122              		.file 5 "/usr/include/x86_64-linux-gnu/bits/types/struct_FILE.h"
 3123              		.file 6 "/usr/include/x86_64-linux-gnu/bits/types/FILE.h"
 3124              		.file 7 "/usr/include/stdio.h"
 3125              		.file 8 "/usr/include/x86_64-linux-gnu/bits/sys_errlist.h"
 3126              		.file 9 "fltk-1.3.4-1/jpeg/jmorecfg.h"
 3127              		.file 10 "fltk-1.3.4-1/jpeg/jpeglib.h"
 3128              		.file 11 "fltk-1.3.4-1/jpeg/jpegint.h"
 3129              		.file 12 "fltk-1.3.4-1/jpeg/jerror.h"
 19224              		.section	.note.gnu.property,"a"
 19225              		.align 8
 19226 0000 04000000 		.long	 1f - 0f
 19227 0004 10000000 		.long	 4f - 1f
 19228 0008 05000000 		.long	 5
 19229              	0:
 19230 000c 474E5500 		.string	 "GNU"
 19231              	1:
 19232              		.align 8
 19233 0010 020000C0 		.long	 0xc0000002
 19234 0014 04000000 		.long	 3f - 2f
 19235              	2:
 19236 0018 03000000 		.long	 0x3
 19237              	3:
 19238 001c 00000000 		.align 8
 19239              	4:
DEFINED SYMBOLS
                            *ABS*:0000000000000000 jdarith.c
     /tmp/ccADLSPo.s:7      .text.get_byte:0000000000000000 get_byte
     /tmp/ccADLSPo.s:84     .text.arith_decode:0000000000000000 arith_decode
     /tmp/ccADLSPo.s:363    .text.finish_pass:0000000000000000 finish_pass
     /tmp/ccADLSPo.s:378    .text.process_restart:0000000000000000 process_restart
     /tmp/ccADLSPo.s:581    .text.decode_mcu_DC_first:0000000000000000 decode_mcu_DC_first
     /tmp/ccADLSPo.s:964    .text.decode_mcu_AC_first:0000000000000000 decode_mcu_AC_first
     /tmp/ccADLSPo.s:1339   .text.decode_mcu_DC_refine:0000000000000000 decode_mcu_DC_refine
     /tmp/ccADLSPo.s:1477   .text.decode_mcu_AC_refine:0000000000000000 decode_mcu_AC_refine
     /tmp/ccADLSPo.s:1809   .text.decode_mcu:0000000000000000 decode_mcu
     /tmp/ccADLSPo.s:2430   .text.start_pass:0000000000000000 start_pass
     /tmp/ccADLSPo.s:2972   .text.jinit_arith_decoder:0000000000000000 jinit_arith_decoder
                           .group:0000000000000000 wm4.0.a6b23a418548ac0bda5d8549c4a2ec91
                           .group:0000000000000000 wm4.stdcpredef.h.19.8dc41bed5d9037ff9622e015fb5f0ce3
                           .group:0000000000000000 wm4.jconfig.h.10.247fc3ff67998f3074970b1373c70333
                           .group:0000000000000000 wm4.features.h.19.5b5f5a19624a0527f479fdc52d54808f
                           .group:0000000000000000 wm4.cdefs.h.19.98d80eddbb3f64f4f30cd9aee9c5593c
                           .group:0000000000000000 wm4.wordsize.h.4.baf119258a1e53d8dba67ceac44ab6bc
                           .group:0000000000000000 wm4.cdefs.h.475.fb75d2e4416aa349344e6f45f683bf28
                           .group:0000000000000000 wm4.stubs64.h.10.6ce4c34010988db072c080326a6b6319
                           .group:0000000000000000 wm4.libcheaderstart.h.37.d9274df4cc0172452960ad9644fa5579
                           .group:0000000000000000 wm4.stdlib.h.28.2cffa49d94c5d85f4538f55f7b59771d
                           .group:0000000000000000 wm4.stddef.h.181.13772e73e5434e8cc4fafaaddad2b5da
                           .group:0000000000000000 wm4.waitflags.h.25.41934de4af99038521c2782f418699b1
                           .group:0000000000000000 wm4.waitstatus.h.28.93f167f49d64e2b9b99f98d1162a93bf
                           .group:0000000000000000 wm4.stdlib.h.43.9fa4f727a2f1cb8d2450a574c9195553
                           .group:0000000000000000 wm4.floatn.h.20.80c7cf8a8dfad237004b28d051d5afda
                           .group:0000000000000000 wm4.floatncommon.h.34.7e1840d7dfb19e9bdb51aeb077d76637
                           .group:0000000000000000 wm4.stdlib.h.71.2927e068ec678159b4f68ec2f089f7e6
                           .group:0000000000000000 wm4.types.h.109.56eb9ae966b255288cc544f18746a7ff
                           .group:0000000000000000 wm4.typesizes.h.24.2c64f817c0dc4b6fb2a2c619d717be26
                           .group:0000000000000000 wm4.time64.h.24.a8166ae916ec910dab0d8987098d42ee
                           .group:0000000000000000 wm4.types.h.40.18f72bab8242c2bb4c532a2aa95b5f00
                           .group:0000000000000000 wm4.stddef.h.231.0adce5c8c1fd8096aaff50981b3d1f0f
                           .group:0000000000000000 wm4.endian.h.20.efabd1018df5d7b4052c27dc6bdd5ce5
                           .group:0000000000000000 wm4.endianness.h.2.2c6a211f7909f3af5e9e9cfa3b6b63c8
                           .group:0000000000000000 wm4.endian.h.40.9e5d395adda2f4eb53ae69b69b664084
                           .group:0000000000000000 wm4.endian.h.27.4c4f94262c4eaee2982fe00ed1b4f173
                           .group:0000000000000000 wm4.byteswap.h.24.5363c019348146aada5aeadf51456576
                           .group:0000000000000000 wm4.endian.h.39.30a606dbd99b6c3df61c1f06dbdabd4e
                           .group:0000000000000000 wm4.select.h.28.eb2f3debdbcffd1442ebddaebc4fb6ff
                           .group:0000000000000000 wm4.__sigset_t.h.2.6b1ab6ff3d7b8fd9c0c42b0d80afbd80
                           .group:0000000000000000 wm4.select.h.44.887a4ff60aa97fcd9c1be017735e1675
                           .group:0000000000000000 wm4.select2.h.27.f95f2ab0ffee66dc1b6575014894b21a
                           .group:0000000000000000 wm4.types.h.186.489a4ed8f2d29cd358843490f54ddea5
                           .group:0000000000000000 wm4.pthreadtypesarch.h.25.6063cba99664c916e22d3a912bcc348a
                           .group:0000000000000000 wm4.struct_mutex.h.20.ed51f515172b9be99e450ba83eb5dd99
                           .group:0000000000000000 wm4.struct_rwlock.h.21.0254880f2904e3833fb8ae683e0f0330
                           .group:0000000000000000 wm4.alloca.h.19.edefa922a76c1cbaaf1e416903ba2d1c
                           .group:0000000000000000 wm4.alloca.h.29.156e12058824cc23d961c4d3b13031f6
                           .group:0000000000000000 wm4.stdio.h.24.5c1b97eef3c86b7a2549420f69f4f128
                           .group:0000000000000000 wm4.libcheaderstart.h.31.87b3c285aeba93fe355ad19123070832
                           .group:0000000000000000 wm4.stdio.h.31.e39a94e203ad4e1d978c0fc68ce016ee
                           .group:0000000000000000 wm4.stddef.h.231.8136eebbab3406dbf57a7ec475dd5d83
                           .group:0000000000000000 wm4.stdarg.h.34.3a23a216c0c293b3d2ea2e89281481e6
                           .group:0000000000000000 wm4.struct_FILE.h.19.0888ac70396abe1031c03d393554032f
                           .group:0000000000000000 wm4.stdio.h.53.139e45cf040c0964b2932c0c1bdaf6b2
                           .group:0000000000000000 wm4.stdio_lim.h.19.e4b00b560d878dcfbc6635b3406640c5
                           .group:0000000000000000 wm4.stdio.h.141.d7a290e19ca077c9e4aa7c43ede17a73
                           .group:0000000000000000 wm4.stdio.h.20.b0caa08e5723aa5941367be0e5d2ec59
                           .group:0000000000000000 wm4.stdio2.h.20.f45a0373b68e1296c4aa8cc09d66a9df
                           .group:0000000000000000 wm4.string.h.23.93403f89af7dba8212345449bb14b09d
                           .group:0000000000000000 wm4.string.h.31.e39a94e203ad4e1d978c0fc68ce016ee
                           .group:0000000000000000 wm4.strings.h.19.a259f126920b1bb5ef76bc62b3984a3c
                           .group:0000000000000000 wm4.jinclude.h.67.b19f941ec97c4845fa4609292c7e2db4
                           .group:0000000000000000 wm4.jmorecfg.h.33.3b4c5f9cc07b3737823b06caf24d5b05
                           .group:0000000000000000 wm4.jpeglib.h.40.4f111c27252a38df39328d65454e82f4
                           .group:0000000000000000 wm4.jpegint.h.26.5219ef5d4e4921371d38e77b6091fd20
                           .group:0000000000000000 wm4.jerror.h.25.1dbd8674e70ab5215bc0037320e5c2a2

UNDEFINED SYMBOLS
jpeg_aritab
