   1              		.file	"jdmarker.c"
   2              		.text
   3              	.Ltext0:
   4              		.section	.text.get_sof,"ax",@progbits
   5              		.p2align 4
   7              	get_sof:
   8              	.LVL0:
   9              	.LFB52:
  10              		.file 1 "fltk-1.3.4-1/jpeg/jdmarker.c"
   1:fltk-1.3.4-1/jpeg/jdmarker.c **** /*
   2:fltk-1.3.4-1/jpeg/jdmarker.c ****  * jdmarker.c
   3:fltk-1.3.4-1/jpeg/jdmarker.c ****  *
   4:fltk-1.3.4-1/jpeg/jdmarker.c ****  * Copyright (C) 1991-1998, Thomas G. Lane.
   5:fltk-1.3.4-1/jpeg/jdmarker.c ****  * Modified 2009-2013 by Guido Vollbeding.
   6:fltk-1.3.4-1/jpeg/jdmarker.c ****  * This file is part of the Independent JPEG Group's software.
   7:fltk-1.3.4-1/jpeg/jdmarker.c ****  * For conditions of distribution and use, see the accompanying README file.
   8:fltk-1.3.4-1/jpeg/jdmarker.c ****  *
   9:fltk-1.3.4-1/jpeg/jdmarker.c ****  * This file contains routines to decode JPEG datastream markers.
  10:fltk-1.3.4-1/jpeg/jdmarker.c ****  * Most of the complexity arises from our desire to support input
  11:fltk-1.3.4-1/jpeg/jdmarker.c ****  * suspension: if not all of the data for a marker is available,
  12:fltk-1.3.4-1/jpeg/jdmarker.c ****  * we must exit back to the application.  On resumption, we reprocess
  13:fltk-1.3.4-1/jpeg/jdmarker.c ****  * the marker.
  14:fltk-1.3.4-1/jpeg/jdmarker.c ****  */
  15:fltk-1.3.4-1/jpeg/jdmarker.c **** 
  16:fltk-1.3.4-1/jpeg/jdmarker.c **** #define JPEG_INTERNALS
  17:fltk-1.3.4-1/jpeg/jdmarker.c **** #include "jinclude.h"
  18:fltk-1.3.4-1/jpeg/jdmarker.c **** #include "jpeglib.h"
  19:fltk-1.3.4-1/jpeg/jdmarker.c **** 
  20:fltk-1.3.4-1/jpeg/jdmarker.c **** 
  21:fltk-1.3.4-1/jpeg/jdmarker.c **** typedef enum {			/* JPEG marker codes */
  22:fltk-1.3.4-1/jpeg/jdmarker.c ****   M_SOF0  = 0xc0,
  23:fltk-1.3.4-1/jpeg/jdmarker.c ****   M_SOF1  = 0xc1,
  24:fltk-1.3.4-1/jpeg/jdmarker.c ****   M_SOF2  = 0xc2,
  25:fltk-1.3.4-1/jpeg/jdmarker.c ****   M_SOF3  = 0xc3,
  26:fltk-1.3.4-1/jpeg/jdmarker.c **** 
  27:fltk-1.3.4-1/jpeg/jdmarker.c ****   M_SOF5  = 0xc5,
  28:fltk-1.3.4-1/jpeg/jdmarker.c ****   M_SOF6  = 0xc6,
  29:fltk-1.3.4-1/jpeg/jdmarker.c ****   M_SOF7  = 0xc7,
  30:fltk-1.3.4-1/jpeg/jdmarker.c **** 
  31:fltk-1.3.4-1/jpeg/jdmarker.c ****   M_JPG   = 0xc8,
  32:fltk-1.3.4-1/jpeg/jdmarker.c ****   M_SOF9  = 0xc9,
  33:fltk-1.3.4-1/jpeg/jdmarker.c ****   M_SOF10 = 0xca,
  34:fltk-1.3.4-1/jpeg/jdmarker.c ****   M_SOF11 = 0xcb,
  35:fltk-1.3.4-1/jpeg/jdmarker.c **** 
  36:fltk-1.3.4-1/jpeg/jdmarker.c ****   M_SOF13 = 0xcd,
  37:fltk-1.3.4-1/jpeg/jdmarker.c ****   M_SOF14 = 0xce,
  38:fltk-1.3.4-1/jpeg/jdmarker.c ****   M_SOF15 = 0xcf,
  39:fltk-1.3.4-1/jpeg/jdmarker.c **** 
  40:fltk-1.3.4-1/jpeg/jdmarker.c ****   M_DHT   = 0xc4,
  41:fltk-1.3.4-1/jpeg/jdmarker.c **** 
  42:fltk-1.3.4-1/jpeg/jdmarker.c ****   M_DAC   = 0xcc,
  43:fltk-1.3.4-1/jpeg/jdmarker.c **** 
  44:fltk-1.3.4-1/jpeg/jdmarker.c ****   M_RST0  = 0xd0,
  45:fltk-1.3.4-1/jpeg/jdmarker.c ****   M_RST1  = 0xd1,
  46:fltk-1.3.4-1/jpeg/jdmarker.c ****   M_RST2  = 0xd2,
  47:fltk-1.3.4-1/jpeg/jdmarker.c ****   M_RST3  = 0xd3,
  48:fltk-1.3.4-1/jpeg/jdmarker.c ****   M_RST4  = 0xd4,
  49:fltk-1.3.4-1/jpeg/jdmarker.c ****   M_RST5  = 0xd5,
  50:fltk-1.3.4-1/jpeg/jdmarker.c ****   M_RST6  = 0xd6,
  51:fltk-1.3.4-1/jpeg/jdmarker.c ****   M_RST7  = 0xd7,
  52:fltk-1.3.4-1/jpeg/jdmarker.c **** 
  53:fltk-1.3.4-1/jpeg/jdmarker.c ****   M_SOI   = 0xd8,
  54:fltk-1.3.4-1/jpeg/jdmarker.c ****   M_EOI   = 0xd9,
  55:fltk-1.3.4-1/jpeg/jdmarker.c ****   M_SOS   = 0xda,
  56:fltk-1.3.4-1/jpeg/jdmarker.c ****   M_DQT   = 0xdb,
  57:fltk-1.3.4-1/jpeg/jdmarker.c ****   M_DNL   = 0xdc,
  58:fltk-1.3.4-1/jpeg/jdmarker.c ****   M_DRI   = 0xdd,
  59:fltk-1.3.4-1/jpeg/jdmarker.c ****   M_DHP   = 0xde,
  60:fltk-1.3.4-1/jpeg/jdmarker.c ****   M_EXP   = 0xdf,
  61:fltk-1.3.4-1/jpeg/jdmarker.c **** 
  62:fltk-1.3.4-1/jpeg/jdmarker.c ****   M_APP0  = 0xe0,
  63:fltk-1.3.4-1/jpeg/jdmarker.c ****   M_APP1  = 0xe1,
  64:fltk-1.3.4-1/jpeg/jdmarker.c ****   M_APP2  = 0xe2,
  65:fltk-1.3.4-1/jpeg/jdmarker.c ****   M_APP3  = 0xe3,
  66:fltk-1.3.4-1/jpeg/jdmarker.c ****   M_APP4  = 0xe4,
  67:fltk-1.3.4-1/jpeg/jdmarker.c ****   M_APP5  = 0xe5,
  68:fltk-1.3.4-1/jpeg/jdmarker.c ****   M_APP6  = 0xe6,
  69:fltk-1.3.4-1/jpeg/jdmarker.c ****   M_APP7  = 0xe7,
  70:fltk-1.3.4-1/jpeg/jdmarker.c ****   M_APP8  = 0xe8,
  71:fltk-1.3.4-1/jpeg/jdmarker.c ****   M_APP9  = 0xe9,
  72:fltk-1.3.4-1/jpeg/jdmarker.c ****   M_APP10 = 0xea,
  73:fltk-1.3.4-1/jpeg/jdmarker.c ****   M_APP11 = 0xeb,
  74:fltk-1.3.4-1/jpeg/jdmarker.c ****   M_APP12 = 0xec,
  75:fltk-1.3.4-1/jpeg/jdmarker.c ****   M_APP13 = 0xed,
  76:fltk-1.3.4-1/jpeg/jdmarker.c ****   M_APP14 = 0xee,
  77:fltk-1.3.4-1/jpeg/jdmarker.c ****   M_APP15 = 0xef,
  78:fltk-1.3.4-1/jpeg/jdmarker.c **** 
  79:fltk-1.3.4-1/jpeg/jdmarker.c ****   M_JPG0  = 0xf0,
  80:fltk-1.3.4-1/jpeg/jdmarker.c ****   M_JPG8  = 0xf8,
  81:fltk-1.3.4-1/jpeg/jdmarker.c ****   M_JPG13 = 0xfd,
  82:fltk-1.3.4-1/jpeg/jdmarker.c ****   M_COM   = 0xfe,
  83:fltk-1.3.4-1/jpeg/jdmarker.c **** 
  84:fltk-1.3.4-1/jpeg/jdmarker.c ****   M_TEM   = 0x01,
  85:fltk-1.3.4-1/jpeg/jdmarker.c **** 
  86:fltk-1.3.4-1/jpeg/jdmarker.c ****   M_ERROR = 0x100
  87:fltk-1.3.4-1/jpeg/jdmarker.c **** } JPEG_MARKER;
  88:fltk-1.3.4-1/jpeg/jdmarker.c **** 
  89:fltk-1.3.4-1/jpeg/jdmarker.c **** 
  90:fltk-1.3.4-1/jpeg/jdmarker.c **** /* Private state */
  91:fltk-1.3.4-1/jpeg/jdmarker.c **** 
  92:fltk-1.3.4-1/jpeg/jdmarker.c **** typedef struct {
  93:fltk-1.3.4-1/jpeg/jdmarker.c ****   struct jpeg_marker_reader pub; /* public fields */
  94:fltk-1.3.4-1/jpeg/jdmarker.c **** 
  95:fltk-1.3.4-1/jpeg/jdmarker.c ****   /* Application-overridable marker processing methods */
  96:fltk-1.3.4-1/jpeg/jdmarker.c ****   jpeg_marker_parser_method process_COM;
  97:fltk-1.3.4-1/jpeg/jdmarker.c ****   jpeg_marker_parser_method process_APPn[16];
  98:fltk-1.3.4-1/jpeg/jdmarker.c **** 
  99:fltk-1.3.4-1/jpeg/jdmarker.c ****   /* Limit on marker data length to save for each marker type */
 100:fltk-1.3.4-1/jpeg/jdmarker.c ****   unsigned int length_limit_COM;
 101:fltk-1.3.4-1/jpeg/jdmarker.c ****   unsigned int length_limit_APPn[16];
 102:fltk-1.3.4-1/jpeg/jdmarker.c **** 
 103:fltk-1.3.4-1/jpeg/jdmarker.c ****   /* Status of COM/APPn marker saving */
 104:fltk-1.3.4-1/jpeg/jdmarker.c ****   jpeg_saved_marker_ptr cur_marker;	/* NULL if not processing a marker */
 105:fltk-1.3.4-1/jpeg/jdmarker.c ****   unsigned int bytes_read;		/* data bytes read so far in marker */
 106:fltk-1.3.4-1/jpeg/jdmarker.c ****   /* Note: cur_marker is not linked into marker_list until it's all read. */
 107:fltk-1.3.4-1/jpeg/jdmarker.c **** } my_marker_reader;
 108:fltk-1.3.4-1/jpeg/jdmarker.c **** 
 109:fltk-1.3.4-1/jpeg/jdmarker.c **** typedef my_marker_reader * my_marker_ptr;
 110:fltk-1.3.4-1/jpeg/jdmarker.c **** 
 111:fltk-1.3.4-1/jpeg/jdmarker.c **** 
 112:fltk-1.3.4-1/jpeg/jdmarker.c **** /*
 113:fltk-1.3.4-1/jpeg/jdmarker.c ****  * Macros for fetching data from the data source module.
 114:fltk-1.3.4-1/jpeg/jdmarker.c ****  *
 115:fltk-1.3.4-1/jpeg/jdmarker.c ****  * At all times, cinfo->src->next_input_byte and ->bytes_in_buffer reflect
 116:fltk-1.3.4-1/jpeg/jdmarker.c ****  * the current restart point; we update them only when we have reached a
 117:fltk-1.3.4-1/jpeg/jdmarker.c ****  * suitable place to restart if a suspension occurs.
 118:fltk-1.3.4-1/jpeg/jdmarker.c ****  */
 119:fltk-1.3.4-1/jpeg/jdmarker.c **** 
 120:fltk-1.3.4-1/jpeg/jdmarker.c **** /* Declare and initialize local copies of input pointer/count */
 121:fltk-1.3.4-1/jpeg/jdmarker.c **** #define INPUT_VARS(cinfo)  \
 122:fltk-1.3.4-1/jpeg/jdmarker.c **** 	struct jpeg_source_mgr * datasrc = (cinfo)->src;  \
 123:fltk-1.3.4-1/jpeg/jdmarker.c **** 	const JOCTET * next_input_byte = datasrc->next_input_byte;  \
 124:fltk-1.3.4-1/jpeg/jdmarker.c **** 	size_t bytes_in_buffer = datasrc->bytes_in_buffer
 125:fltk-1.3.4-1/jpeg/jdmarker.c **** 
 126:fltk-1.3.4-1/jpeg/jdmarker.c **** /* Unload the local copies --- do this only at a restart boundary */
 127:fltk-1.3.4-1/jpeg/jdmarker.c **** #define INPUT_SYNC(cinfo)  \
 128:fltk-1.3.4-1/jpeg/jdmarker.c **** 	( datasrc->next_input_byte = next_input_byte,  \
 129:fltk-1.3.4-1/jpeg/jdmarker.c **** 	  datasrc->bytes_in_buffer = bytes_in_buffer )
 130:fltk-1.3.4-1/jpeg/jdmarker.c **** 
 131:fltk-1.3.4-1/jpeg/jdmarker.c **** /* Reload the local copies --- used only in MAKE_BYTE_AVAIL */
 132:fltk-1.3.4-1/jpeg/jdmarker.c **** #define INPUT_RELOAD(cinfo)  \
 133:fltk-1.3.4-1/jpeg/jdmarker.c **** 	( next_input_byte = datasrc->next_input_byte,  \
 134:fltk-1.3.4-1/jpeg/jdmarker.c **** 	  bytes_in_buffer = datasrc->bytes_in_buffer )
 135:fltk-1.3.4-1/jpeg/jdmarker.c **** 
 136:fltk-1.3.4-1/jpeg/jdmarker.c **** /* Internal macro for INPUT_BYTE and INPUT_2BYTES: make a byte available.
 137:fltk-1.3.4-1/jpeg/jdmarker.c ****  * Note we do *not* do INPUT_SYNC before calling fill_input_buffer,
 138:fltk-1.3.4-1/jpeg/jdmarker.c ****  * but we must reload the local copies after a successful fill.
 139:fltk-1.3.4-1/jpeg/jdmarker.c ****  */
 140:fltk-1.3.4-1/jpeg/jdmarker.c **** #define MAKE_BYTE_AVAIL(cinfo,action)  \
 141:fltk-1.3.4-1/jpeg/jdmarker.c **** 	if (bytes_in_buffer == 0) {  \
 142:fltk-1.3.4-1/jpeg/jdmarker.c **** 	  if (! (*datasrc->fill_input_buffer) (cinfo))  \
 143:fltk-1.3.4-1/jpeg/jdmarker.c **** 	    { action; }  \
 144:fltk-1.3.4-1/jpeg/jdmarker.c **** 	  INPUT_RELOAD(cinfo);  \
 145:fltk-1.3.4-1/jpeg/jdmarker.c **** 	}
 146:fltk-1.3.4-1/jpeg/jdmarker.c **** 
 147:fltk-1.3.4-1/jpeg/jdmarker.c **** /* Read a byte into variable V.
 148:fltk-1.3.4-1/jpeg/jdmarker.c ****  * If must suspend, take the specified action (typically "return FALSE").
 149:fltk-1.3.4-1/jpeg/jdmarker.c ****  */
 150:fltk-1.3.4-1/jpeg/jdmarker.c **** #define INPUT_BYTE(cinfo,V,action)  \
 151:fltk-1.3.4-1/jpeg/jdmarker.c **** 	MAKESTMT( MAKE_BYTE_AVAIL(cinfo,action); \
 152:fltk-1.3.4-1/jpeg/jdmarker.c **** 		  bytes_in_buffer--; \
 153:fltk-1.3.4-1/jpeg/jdmarker.c **** 		  V = GETJOCTET(*next_input_byte++); )
 154:fltk-1.3.4-1/jpeg/jdmarker.c **** 
 155:fltk-1.3.4-1/jpeg/jdmarker.c **** /* As above, but read two bytes interpreted as an unsigned 16-bit integer.
 156:fltk-1.3.4-1/jpeg/jdmarker.c ****  * V should be declared unsigned int or perhaps INT32.
 157:fltk-1.3.4-1/jpeg/jdmarker.c ****  */
 158:fltk-1.3.4-1/jpeg/jdmarker.c **** #define INPUT_2BYTES(cinfo,V,action)  \
 159:fltk-1.3.4-1/jpeg/jdmarker.c **** 	MAKESTMT( MAKE_BYTE_AVAIL(cinfo,action); \
 160:fltk-1.3.4-1/jpeg/jdmarker.c **** 		  bytes_in_buffer--; \
 161:fltk-1.3.4-1/jpeg/jdmarker.c **** 		  V = ((unsigned int) GETJOCTET(*next_input_byte++)) << 8; \
 162:fltk-1.3.4-1/jpeg/jdmarker.c **** 		  MAKE_BYTE_AVAIL(cinfo,action); \
 163:fltk-1.3.4-1/jpeg/jdmarker.c **** 		  bytes_in_buffer--; \
 164:fltk-1.3.4-1/jpeg/jdmarker.c **** 		  V += GETJOCTET(*next_input_byte++); )
 165:fltk-1.3.4-1/jpeg/jdmarker.c **** 
 166:fltk-1.3.4-1/jpeg/jdmarker.c **** 
 167:fltk-1.3.4-1/jpeg/jdmarker.c **** /*
 168:fltk-1.3.4-1/jpeg/jdmarker.c ****  * Routines to process JPEG markers.
 169:fltk-1.3.4-1/jpeg/jdmarker.c ****  *
 170:fltk-1.3.4-1/jpeg/jdmarker.c ****  * Entry condition: JPEG marker itself has been read and its code saved
 171:fltk-1.3.4-1/jpeg/jdmarker.c ****  *   in cinfo->unread_marker; input restart point is just after the marker.
 172:fltk-1.3.4-1/jpeg/jdmarker.c ****  *
 173:fltk-1.3.4-1/jpeg/jdmarker.c ****  * Exit: if return TRUE, have read and processed any parameters, and have
 174:fltk-1.3.4-1/jpeg/jdmarker.c ****  *   updated the restart point to point after the parameters.
 175:fltk-1.3.4-1/jpeg/jdmarker.c ****  *   If return FALSE, was forced to suspend before reaching end of
 176:fltk-1.3.4-1/jpeg/jdmarker.c ****  *   marker parameters; restart point has not been moved.  Same routine
 177:fltk-1.3.4-1/jpeg/jdmarker.c ****  *   will be called again after application supplies more input data.
 178:fltk-1.3.4-1/jpeg/jdmarker.c ****  *
 179:fltk-1.3.4-1/jpeg/jdmarker.c ****  * This approach to suspension assumes that all of a marker's parameters
 180:fltk-1.3.4-1/jpeg/jdmarker.c ****  * can fit into a single input bufferload.  This should hold for "normal"
 181:fltk-1.3.4-1/jpeg/jdmarker.c ****  * markers.  Some COM/APPn markers might have large parameter segments
 182:fltk-1.3.4-1/jpeg/jdmarker.c ****  * that might not fit.  If we are simply dropping such a marker, we use
 183:fltk-1.3.4-1/jpeg/jdmarker.c ****  * skip_input_data to get past it, and thereby put the problem on the
 184:fltk-1.3.4-1/jpeg/jdmarker.c ****  * source manager's shoulders.  If we are saving the marker's contents
 185:fltk-1.3.4-1/jpeg/jdmarker.c ****  * into memory, we use a slightly different convention: when forced to
 186:fltk-1.3.4-1/jpeg/jdmarker.c ****  * suspend, the marker processor updates the restart point to the end of
 187:fltk-1.3.4-1/jpeg/jdmarker.c ****  * what it's consumed (ie, the end of the buffer) before returning FALSE.
 188:fltk-1.3.4-1/jpeg/jdmarker.c ****  * On resumption, cinfo->unread_marker still contains the marker code,
 189:fltk-1.3.4-1/jpeg/jdmarker.c ****  * but the data source will point to the next chunk of marker data.
 190:fltk-1.3.4-1/jpeg/jdmarker.c ****  * The marker processor must retain internal state to deal with this.
 191:fltk-1.3.4-1/jpeg/jdmarker.c ****  *
 192:fltk-1.3.4-1/jpeg/jdmarker.c ****  * Note that we don't bother to avoid duplicate trace messages if a
 193:fltk-1.3.4-1/jpeg/jdmarker.c ****  * suspension occurs within marker parameters.  Other side effects
 194:fltk-1.3.4-1/jpeg/jdmarker.c ****  * require more care.
 195:fltk-1.3.4-1/jpeg/jdmarker.c ****  */
 196:fltk-1.3.4-1/jpeg/jdmarker.c **** 
 197:fltk-1.3.4-1/jpeg/jdmarker.c **** 
 198:fltk-1.3.4-1/jpeg/jdmarker.c **** LOCAL(boolean)
 199:fltk-1.3.4-1/jpeg/jdmarker.c **** get_soi (j_decompress_ptr cinfo)
 200:fltk-1.3.4-1/jpeg/jdmarker.c **** /* Process an SOI marker */
 201:fltk-1.3.4-1/jpeg/jdmarker.c **** {
 202:fltk-1.3.4-1/jpeg/jdmarker.c ****   int i;
 203:fltk-1.3.4-1/jpeg/jdmarker.c ****   
 204:fltk-1.3.4-1/jpeg/jdmarker.c ****   TRACEMS(cinfo, 1, JTRC_SOI);
 205:fltk-1.3.4-1/jpeg/jdmarker.c **** 
 206:fltk-1.3.4-1/jpeg/jdmarker.c ****   if (cinfo->marker->saw_SOI)
 207:fltk-1.3.4-1/jpeg/jdmarker.c ****     ERREXIT(cinfo, JERR_SOI_DUPLICATE);
 208:fltk-1.3.4-1/jpeg/jdmarker.c **** 
 209:fltk-1.3.4-1/jpeg/jdmarker.c ****   /* Reset all parameters that are defined to be reset by SOI */
 210:fltk-1.3.4-1/jpeg/jdmarker.c **** 
 211:fltk-1.3.4-1/jpeg/jdmarker.c ****   for (i = 0; i < NUM_ARITH_TBLS; i++) {
 212:fltk-1.3.4-1/jpeg/jdmarker.c ****     cinfo->arith_dc_L[i] = 0;
 213:fltk-1.3.4-1/jpeg/jdmarker.c ****     cinfo->arith_dc_U[i] = 1;
 214:fltk-1.3.4-1/jpeg/jdmarker.c ****     cinfo->arith_ac_K[i] = 5;
 215:fltk-1.3.4-1/jpeg/jdmarker.c ****   }
 216:fltk-1.3.4-1/jpeg/jdmarker.c ****   cinfo->restart_interval = 0;
 217:fltk-1.3.4-1/jpeg/jdmarker.c **** 
 218:fltk-1.3.4-1/jpeg/jdmarker.c ****   /* Set initial assumptions for colorspace etc */
 219:fltk-1.3.4-1/jpeg/jdmarker.c **** 
 220:fltk-1.3.4-1/jpeg/jdmarker.c ****   cinfo->jpeg_color_space = JCS_UNKNOWN;
 221:fltk-1.3.4-1/jpeg/jdmarker.c ****   cinfo->color_transform = JCT_NONE;
 222:fltk-1.3.4-1/jpeg/jdmarker.c ****   cinfo->CCIR601_sampling = FALSE; /* Assume non-CCIR sampling??? */
 223:fltk-1.3.4-1/jpeg/jdmarker.c **** 
 224:fltk-1.3.4-1/jpeg/jdmarker.c ****   cinfo->saw_JFIF_marker = FALSE;
 225:fltk-1.3.4-1/jpeg/jdmarker.c ****   cinfo->JFIF_major_version = 1; /* set default JFIF APP0 values */
 226:fltk-1.3.4-1/jpeg/jdmarker.c ****   cinfo->JFIF_minor_version = 1;
 227:fltk-1.3.4-1/jpeg/jdmarker.c ****   cinfo->density_unit = 0;
 228:fltk-1.3.4-1/jpeg/jdmarker.c ****   cinfo->X_density = 1;
 229:fltk-1.3.4-1/jpeg/jdmarker.c ****   cinfo->Y_density = 1;
 230:fltk-1.3.4-1/jpeg/jdmarker.c ****   cinfo->saw_Adobe_marker = FALSE;
 231:fltk-1.3.4-1/jpeg/jdmarker.c ****   cinfo->Adobe_transform = 0;
 232:fltk-1.3.4-1/jpeg/jdmarker.c **** 
 233:fltk-1.3.4-1/jpeg/jdmarker.c ****   cinfo->marker->saw_SOI = TRUE;
 234:fltk-1.3.4-1/jpeg/jdmarker.c **** 
 235:fltk-1.3.4-1/jpeg/jdmarker.c ****   return TRUE;
 236:fltk-1.3.4-1/jpeg/jdmarker.c **** }
 237:fltk-1.3.4-1/jpeg/jdmarker.c **** 
 238:fltk-1.3.4-1/jpeg/jdmarker.c **** 
 239:fltk-1.3.4-1/jpeg/jdmarker.c **** LOCAL(boolean)
 240:fltk-1.3.4-1/jpeg/jdmarker.c **** get_sof (j_decompress_ptr cinfo, boolean is_baseline, boolean is_prog,
 241:fltk-1.3.4-1/jpeg/jdmarker.c **** 	 boolean is_arith)
 242:fltk-1.3.4-1/jpeg/jdmarker.c **** /* Process a SOFn marker */
 243:fltk-1.3.4-1/jpeg/jdmarker.c **** {
  11              		.loc 1 243 1 view -0
  12              		.cfi_startproc
 244:fltk-1.3.4-1/jpeg/jdmarker.c ****   INT32 length;
  13              		.loc 1 244 3 view .LVU1
 245:fltk-1.3.4-1/jpeg/jdmarker.c ****   int c, ci, i;
  14              		.loc 1 245 3 view .LVU2
 246:fltk-1.3.4-1/jpeg/jdmarker.c ****   jpeg_component_info * compptr;
  15              		.loc 1 246 3 view .LVU3
 247:fltk-1.3.4-1/jpeg/jdmarker.c ****   INPUT_VARS(cinfo);
  16              		.loc 1 247 3 view .LVU4
 243:fltk-1.3.4-1/jpeg/jdmarker.c ****   INT32 length;
  17              		.loc 1 243 1 is_stmt 0 view .LVU5
  18 0000 4157     		pushq	%r15
  19              		.cfi_def_cfa_offset 16
  20              		.cfi_offset 15, -16
  21 0002 4189D0   		movl	%edx, %r8d
  22 0005 4156     		pushq	%r14
  23              		.cfi_def_cfa_offset 24
  24              		.cfi_offset 14, -24
  25 0007 4155     		pushq	%r13
  26              		.cfi_def_cfa_offset 32
  27              		.cfi_offset 13, -32
  28 0009 4154     		pushq	%r12
  29              		.cfi_def_cfa_offset 40
  30              		.cfi_offset 12, -40
  31 000b 4989FC   		movq	%rdi, %r12
  32 000e 55       		pushq	%rbp
  33              		.cfi_def_cfa_offset 48
  34              		.cfi_offset 6, -48
  35 000f 53       		pushq	%rbx
  36              		.cfi_def_cfa_offset 56
  37              		.cfi_offset 3, -56
  38 0010 4883EC08 		subq	$8, %rsp
  39              		.cfi_def_cfa_offset 64
  40              		.loc 1 247 3 view .LVU6
  41 0014 4C8B6F28 		movq	40(%rdi), %r13
  42              	.LVL1:
  43              		.loc 1 247 3 is_stmt 1 view .LVU7
  44 0018 498B4508 		movq	8(%r13), %rax
  45 001c 498B5500 		movq	0(%r13), %rdx
  46              	.LVL2:
  47              		.loc 1 247 3 view .LVU8
 248:fltk-1.3.4-1/jpeg/jdmarker.c **** 
 249:fltk-1.3.4-1/jpeg/jdmarker.c ****   cinfo->is_baseline = is_baseline;
  48              		.loc 1 249 3 view .LVU9
  49              		.loc 1 249 22 is_stmt 0 view .LVU10
  50 0020 89B73801 		movl	%esi, 312(%rdi)
  50      0000
 250:fltk-1.3.4-1/jpeg/jdmarker.c ****   cinfo->progressive_mode = is_prog;
  51              		.loc 1 250 3 is_stmt 1 view .LVU11
  52              		.loc 1 250 27 is_stmt 0 view .LVU12
  53 0026 4489873C 		movl	%r8d, 316(%rdi)
  53      010000
 251:fltk-1.3.4-1/jpeg/jdmarker.c ****   cinfo->arith_code = is_arith;
  54              		.loc 1 251 3 is_stmt 1 view .LVU13
  55              		.loc 1 251 21 is_stmt 0 view .LVU14
  56 002d 898F4001 		movl	%ecx, 320(%rdi)
  56      0000
 252:fltk-1.3.4-1/jpeg/jdmarker.c **** 
 253:fltk-1.3.4-1/jpeg/jdmarker.c ****   INPUT_2BYTES(cinfo, length, return FALSE);
  57              		.loc 1 253 3 is_stmt 1 view .LVU15
  58              		.loc 1 253 3 view .LVU16
  59 0033 4885C0   		testq	%rax, %rax
  60 0036 7514     		jne	.L2
  61              		.loc 1 253 3 discriminator 1 view .LVU17
  62 0038 41FF5518 		call	*24(%r13)
  63              	.LVL3:
  64              		.loc 1 253 3 is_stmt 0 discriminator 1 view .LVU18
  65 003c 85C0     		testl	%eax, %eax
  66 003e 0F841C03 		je	.L7
  66      0000
  67              		.loc 1 253 3 is_stmt 1 discriminator 4 view .LVU19
  68 0044 498B5500 		movq	0(%r13), %rdx
  69              	.LVL4:
  70              		.loc 1 253 3 is_stmt 0 discriminator 4 view .LVU20
  71 0048 498B4508 		movq	8(%r13), %rax
  72              	.LVL5:
  73              	.L2:
  74              		.loc 1 253 3 is_stmt 1 discriminator 5 view .LVU21
  75              		.loc 1 253 3 discriminator 5 view .LVU22
  76              		.loc 1 253 3 discriminator 5 view .LVU23
  77              		.loc 1 253 3 is_stmt 0 discriminator 5 view .LVU24
  78 004c 0FB61A   		movzbl	(%rdx), %ebx
  79              	.LVL6:
  80              		.loc 1 253 3 is_stmt 1 discriminator 5 view .LVU25
  81 004f 4883E801 		subq	$1, %rax
  82              	.LVL7:
  83              		.loc 1 253 3 is_stmt 0 discriminator 5 view .LVU26
  84 0053 0F841F03 		je	.L5
  84      0000
  85              		.loc 1 253 3 view .LVU27
  86 0059 4883C201 		addq	$1, %rdx
  87              	.LVL8:
  88              		.loc 1 253 3 is_stmt 1 view .LVU28
  89              		.loc 1 253 3 view .LVU29
  90              		.loc 1 253 3 view .LVU30
  91              		.loc 1 253 3 is_stmt 0 view .LVU31
  92 005d 440FB63A 		movzbl	(%rdx), %r15d
  93              	.LVL9:
  94              		.loc 1 253 3 is_stmt 1 view .LVU32
 254:fltk-1.3.4-1/jpeg/jdmarker.c **** 
 255:fltk-1.3.4-1/jpeg/jdmarker.c ****   INPUT_BYTE(cinfo, cinfo->data_precision, return FALSE);
  95              		.loc 1 255 3 view .LVU33
  96              		.loc 1 255 3 view .LVU34
  97 0061 4883E801 		subq	$1, %rax
  98              	.LVL10:
  99              		.loc 1 255 3 is_stmt 0 view .LVU35
 100 0065 0F842E03 		je	.L8
 100      0000
 101              	.LVL11:
 102              	.L78:
 253:fltk-1.3.4-1/jpeg/jdmarker.c **** 
 103              		.loc 1 253 3 view .LVU36
 104 006b 4883C201 		addq	$1, %rdx
 105              	.L9:
 106              	.LVL12:
 107              		.loc 1 255 3 is_stmt 1 discriminator 5 view .LVU37
 108              		.loc 1 255 3 discriminator 5 view .LVU38
 109              		.loc 1 255 3 discriminator 5 view .LVU39
 110              		.loc 1 255 3 is_stmt 0 discriminator 5 view .LVU40
 111 006f 0FB60A   		movzbl	(%rdx), %ecx
 112 0072 41898C24 		movl	%ecx, 296(%r12)
 112      28010000 
 113              		.loc 1 255 3 is_stmt 1 discriminator 5 view .LVU41
 256:fltk-1.3.4-1/jpeg/jdmarker.c ****   INPUT_2BYTES(cinfo, cinfo->image_height, return FALSE);
 114              		.loc 1 256 3 discriminator 5 view .LVU42
 115              		.loc 1 256 3 discriminator 5 view .LVU43
 116 007a 4883E801 		subq	$1, %rax
 117              	.LVL13:
 118              		.loc 1 256 3 is_stmt 0 discriminator 5 view .LVU44
 119 007e 0F84C402 		je	.L10
 119      0000
 255:fltk-1.3.4-1/jpeg/jdmarker.c ****   INPUT_2BYTES(cinfo, cinfo->image_height, return FALSE);
 120              		.loc 1 255 3 view .LVU45
 121 0084 4883C201 		addq	$1, %rdx
 122              	.LVL14:
 123              	.L11:
 124              		.loc 1 256 3 is_stmt 1 discriminator 5 view .LVU46
 125              		.loc 1 256 3 discriminator 5 view .LVU47
 126              		.loc 1 256 3 discriminator 5 view .LVU48
 127              		.loc 1 256 3 is_stmt 0 discriminator 5 view .LVU49
 128 0088 0FB60A   		movzbl	(%rdx), %ecx
 129 008b C1E108   		sall	$8, %ecx
 130 008e 41894C24 		movl	%ecx, 52(%r12)
 130      34
 131              		.loc 1 256 3 is_stmt 1 discriminator 5 view .LVU50
 132 0093 4883E801 		subq	$1, %rax
 133              	.LVL15:
 134              		.loc 1 256 3 is_stmt 0 discriminator 5 view .LVU51
 135 0097 0F841403 		je	.L12
 135      0000
 136              		.loc 1 256 3 view .LVU52
 137 009d 0FB67201 		movzbl	1(%rdx), %esi
 138 00a1 4883C201 		addq	$1, %rdx
 139              	.LVL16:
 140              		.loc 1 256 3 is_stmt 1 view .LVU53
 141              		.loc 1 256 3 view .LVU54
 142              		.loc 1 256 3 view .LVU55
 143              		.loc 1 256 3 is_stmt 0 view .LVU56
 144 00a5 01F1     		addl	%esi, %ecx
 145 00a7 41894C24 		movl	%ecx, 52(%r12)
 145      34
 146              		.loc 1 256 3 is_stmt 1 view .LVU57
 257:fltk-1.3.4-1/jpeg/jdmarker.c ****   INPUT_2BYTES(cinfo, cinfo->image_width, return FALSE);
 147              		.loc 1 257 3 view .LVU58
 148              		.loc 1 257 3 view .LVU59
 149 00ac 4883E801 		subq	$1, %rax
 150              	.LVL17:
 151              		.loc 1 257 3 is_stmt 0 view .LVU60
 152 00b0 0F842703 		je	.L14
 152      0000
 153              	.LVL18:
 154              	.L79:
 256:fltk-1.3.4-1/jpeg/jdmarker.c ****   INPUT_2BYTES(cinfo, cinfo->image_height, return FALSE);
 155              		.loc 1 256 3 view .LVU61
 156 00b6 4883C201 		addq	$1, %rdx
 157              	.L15:
 158              	.LVL19:
 159              		.loc 1 257 3 is_stmt 1 discriminator 5 view .LVU62
 160              		.loc 1 257 3 discriminator 5 view .LVU63
 161              		.loc 1 257 3 discriminator 5 view .LVU64
 162              		.loc 1 257 3 is_stmt 0 discriminator 5 view .LVU65
 163 00ba 0FB60A   		movzbl	(%rdx), %ecx
 164 00bd C1E108   		sall	$8, %ecx
 165 00c0 41894C24 		movl	%ecx, 48(%r12)
 165      30
 166              		.loc 1 257 3 is_stmt 1 discriminator 5 view .LVU66
 167 00c5 4883E801 		subq	$1, %rax
 168              	.LVL20:
 169              		.loc 1 257 3 is_stmt 0 discriminator 5 view .LVU67
 170 00c9 0F845D03 		je	.L16
 170      0000
 171              		.loc 1 257 3 view .LVU68
 172 00cf 0FB67201 		movzbl	1(%rdx), %esi
 173 00d3 4883C201 		addq	$1, %rdx
 174              	.LVL21:
 175              		.loc 1 257 3 is_stmt 1 view .LVU69
 176              		.loc 1 257 3 view .LVU70
 177              		.loc 1 257 3 view .LVU71
 178              		.loc 1 257 3 is_stmt 0 view .LVU72
 179 00d7 01F1     		addl	%esi, %ecx
 180 00d9 41894C24 		movl	%ecx, 48(%r12)
 180      30
 181              		.loc 1 257 3 is_stmt 1 view .LVU73
 258:fltk-1.3.4-1/jpeg/jdmarker.c ****   INPUT_BYTE(cinfo, cinfo->num_components, return FALSE);
 182              		.loc 1 258 3 view .LVU74
 183              		.loc 1 258 3 view .LVU75
 184 00de 4883E801 		subq	$1, %rax
 185              	.LVL22:
 186              		.loc 1 258 3 is_stmt 0 view .LVU76
 187 00e2 0F847403 		je	.L18
 187      0000
 188              	.LVL23:
 189              	.L80:
 257:fltk-1.3.4-1/jpeg/jdmarker.c ****   INPUT_2BYTES(cinfo, cinfo->image_width, return FALSE);
 190              		.loc 1 257 3 view .LVU77
 191 00e8 4883C201 		addq	$1, %rdx
 192              	.L19:
 193              	.LVL24:
 194              		.loc 1 258 3 is_stmt 1 discriminator 5 view .LVU78
 195              		.loc 1 258 3 discriminator 5 view .LVU79
 196 00ec 488D68FF 		leaq	-1(%rax), %rbp
 197              	.LVL25:
 198              		.loc 1 258 3 discriminator 5 view .LVU80
 199 00f0 0FB602   		movzbl	(%rdx), %eax
 200 00f3 4C8D7201 		leaq	1(%rdx), %r14
 201              	.LVL26:
 202              	.LBB19:
 259:fltk-1.3.4-1/jpeg/jdmarker.c **** 
 260:fltk-1.3.4-1/jpeg/jdmarker.c ****   length -= 8;
 261:fltk-1.3.4-1/jpeg/jdmarker.c **** 
 262:fltk-1.3.4-1/jpeg/jdmarker.c ****   TRACEMS4(cinfo, 1, JTRC_SOF, cinfo->unread_marker,
 203              		.loc 1 262 3 is_stmt 0 discriminator 5 view .LVU81
 204 00f7 BE010000 		movl	$1, %esi
 204      00
 205 00fc 418B9424 		movl	572(%r12), %edx
 205      3C020000 
 206 0104 4C89E7   		movq	%r12, %rdi
 207              	.LBE19:
 253:fltk-1.3.4-1/jpeg/jdmarker.c **** 
 208              		.loc 1 253 3 discriminator 5 view .LVU82
 209 0107 48C1E308 		salq	$8, %rbx
 258:fltk-1.3.4-1/jpeg/jdmarker.c ****   INPUT_BYTE(cinfo, cinfo->num_components, return FALSE);
 210              		.loc 1 258 3 discriminator 5 view .LVU83
 211 010b 41894424 		movl	%eax, 56(%r12)
 211      38
 258:fltk-1.3.4-1/jpeg/jdmarker.c ****   INPUT_BYTE(cinfo, cinfo->num_components, return FALSE);
 212              		.loc 1 258 3 is_stmt 1 discriminator 5 view .LVU84
 260:fltk-1.3.4-1/jpeg/jdmarker.c **** 
 213              		.loc 1 260 3 discriminator 5 view .LVU85
 214              	.LBB20:
 215              		.loc 1 262 3 is_stmt 0 discriminator 5 view .LVU86
 216 0110 498B0424 		movq	(%r12), %rax
 217              	.LBE20:
 253:fltk-1.3.4-1/jpeg/jdmarker.c **** 
 218              		.loc 1 253 3 discriminator 5 view .LVU87
 219 0114 81E300FF 		andl	$65280, %ebx
 219      0000
 260:fltk-1.3.4-1/jpeg/jdmarker.c **** 
 220              		.loc 1 260 10 discriminator 5 view .LVU88
 221 011a 4A8D5C3B 		leaq	-8(%rbx,%r15), %rbx
 221      F8
 222              	.LVL27:
 223              		.loc 1 262 3 is_stmt 1 discriminator 5 view .LVU89
 224              	.LBB21:
 225              		.loc 1 262 3 discriminator 5 view .LVU90
 226              		.loc 1 262 3 discriminator 5 view .LVU91
 227 011f 89502C   		movl	%edx, 44(%rax)
 228              		.loc 1 262 3 discriminator 5 view .LVU92
 229 0122 418B5424 		movl	48(%r12), %edx
 229      30
 230 0127 895030   		movl	%edx, 48(%rax)
 231              		.loc 1 262 3 discriminator 5 view .LVU93
 232 012a 418B5424 		movl	52(%r12), %edx
 232      34
 233 012f 895034   		movl	%edx, 52(%rax)
 234              		.loc 1 262 3 discriminator 5 view .LVU94
 235 0132 418B5424 		movl	56(%r12), %edx
 235      38
 236 0137 895038   		movl	%edx, 56(%rax)
 237              		.loc 1 262 3 discriminator 5 view .LVU95
 238 013a 498B0424 		movq	(%r12), %rax
 239              	.LVL28:
 240              		.loc 1 262 3 is_stmt 0 discriminator 5 view .LVU96
 241 013e C7402866 		movl	$102, 40(%rax)
 241      000000
 242              		.loc 1 262 3 is_stmt 1 discriminator 5 view .LVU97
 243 0145 498B0424 		movq	(%r12), %rax
 244 0149 FF5008   		call	*8(%rax)
 245              	.LVL29:
 246              	.LBE21:
 247              		.loc 1 262 3 discriminator 5 view .LVU98
 263:fltk-1.3.4-1/jpeg/jdmarker.c **** 	   (int) cinfo->image_width, (int) cinfo->image_height,
 264:fltk-1.3.4-1/jpeg/jdmarker.c **** 	   cinfo->num_components);
 265:fltk-1.3.4-1/jpeg/jdmarker.c **** 
 266:fltk-1.3.4-1/jpeg/jdmarker.c ****   if (cinfo->marker->saw_SOF)
 248              		.loc 1 266 3 discriminator 5 view .LVU99
 249              		.loc 1 266 20 is_stmt 0 discriminator 5 view .LVU100
 250 014c 498B8424 		movq	616(%r12), %rax
 250      68020000 
 251              		.loc 1 266 6 discriminator 5 view .LVU101
 252 0154 8B481C   		movl	28(%rax), %ecx
 253 0157 85C9     		testl	%ecx, %ecx
 254 0159 7414     		je	.L20
 267:fltk-1.3.4-1/jpeg/jdmarker.c ****     ERREXIT(cinfo, JERR_SOF_DUPLICATE);
 255              		.loc 1 267 5 is_stmt 1 view .LVU102
 256 015b 498B0424 		movq	(%r12), %rax
 257 015f 4C89E7   		movq	%r12, %rdi
 258 0162 C740283D 		movl	$61, 40(%rax)
 258      000000
 259 0169 498B0424 		movq	(%r12), %rax
 260 016d FF10     		call	*(%rax)
 261              	.LVL30:
 262              	.L20:
 268:fltk-1.3.4-1/jpeg/jdmarker.c **** 
 269:fltk-1.3.4-1/jpeg/jdmarker.c ****   /* We don't support files in which the image height is initially specified */
 270:fltk-1.3.4-1/jpeg/jdmarker.c ****   /* as 0 and is later redefined by DNL.  As long as we have to check that,  */
 271:fltk-1.3.4-1/jpeg/jdmarker.c ****   /* might as well have a general sanity check. */
 272:fltk-1.3.4-1/jpeg/jdmarker.c ****   if (cinfo->image_height <= 0 || cinfo->image_width <= 0 ||
 263              		.loc 1 272 3 view .LVU103
 264              		.loc 1 272 6 is_stmt 0 view .LVU104
 265 016f 418B5424 		movl	52(%r12), %edx
 265      34
 266 0174 85D2     		testl	%edx, %edx
 267 0176 0F848A02 		je	.L21
 267      0000
 268              		.loc 1 272 32 discriminator 1 view .LVU105
 269 017c 418B4424 		movl	48(%r12), %eax
 269      30
 270 0181 85C0     		testl	%eax, %eax
 271 0183 0F847D02 		je	.L21
 271      0000
 273:fltk-1.3.4-1/jpeg/jdmarker.c ****       cinfo->num_components <= 0)
 272              		.loc 1 273 12 discriminator 2 view .LVU106
 273 0189 49634424 		movslq	56(%r12), %rax
 273      38
 272:fltk-1.3.4-1/jpeg/jdmarker.c ****       cinfo->num_components <= 0)
 274              		.loc 1 272 59 discriminator 2 view .LVU107
 275 018e 85C0     		testl	%eax, %eax
 276 0190 0F8E7002 		jle	.L21
 276      0000
 277              	.L22:
 274:fltk-1.3.4-1/jpeg/jdmarker.c ****     ERREXIT(cinfo, JERR_EMPTY_IMAGE);
 275:fltk-1.3.4-1/jpeg/jdmarker.c **** 
 276:fltk-1.3.4-1/jpeg/jdmarker.c ****   if (length != (cinfo->num_components * 3))
 278              		.loc 1 276 3 is_stmt 1 view .LVU108
 279              		.loc 1 276 40 is_stmt 0 view .LVU109
 280 0196 8D1440   		leal	(%rax,%rax,2), %edx
 281 0199 4863D2   		movslq	%edx, %rdx
 282              		.loc 1 276 6 view .LVU110
 283 019c 4839DA   		cmpq	%rbx, %rdx
 284 019f 7419     		je	.L23
 277:fltk-1.3.4-1/jpeg/jdmarker.c ****     ERREXIT(cinfo, JERR_BAD_LENGTH);
 285              		.loc 1 277 5 is_stmt 1 view .LVU111
 286 01a1 498B0424 		movq	(%r12), %rax
 287 01a5 4C89E7   		movq	%r12, %rdi
 288 01a8 C740280C 		movl	$12, 40(%rax)
 288      000000
 289 01af 498B0424 		movq	(%r12), %rax
 290 01b3 FF10     		call	*(%rax)
 291              	.LVL31:
 292 01b5 49634424 		movslq	56(%r12), %rax
 292      38
 293              	.L23:
 278:fltk-1.3.4-1/jpeg/jdmarker.c **** 
 279:fltk-1.3.4-1/jpeg/jdmarker.c ****   if (cinfo->comp_info == NULL)	/* do only once, even if suspend */
 294              		.loc 1 279 3 view .LVU112
 295              		.loc 1 279 6 is_stmt 0 view .LVU113
 296 01ba 4983BC24 		cmpq	$0, 304(%r12)
 296      30010000 
 296      00
 297 01c3 0F84AF02 		je	.L76
 297      0000
 298              	.L24:
 299              	.LVL32:
 280:fltk-1.3.4-1/jpeg/jdmarker.c ****     cinfo->comp_info = (jpeg_component_info *) (*cinfo->mem->alloc_small)
 281:fltk-1.3.4-1/jpeg/jdmarker.c **** 			((j_common_ptr) cinfo, JPOOL_IMAGE,
 282:fltk-1.3.4-1/jpeg/jdmarker.c **** 			 cinfo->num_components * SIZEOF(jpeg_component_info));
 283:fltk-1.3.4-1/jpeg/jdmarker.c **** 
 284:fltk-1.3.4-1/jpeg/jdmarker.c ****   for (ci = 0; ci < cinfo->num_components; ci++) {
 300              		.loc 1 284 16 is_stmt 1 discriminator 2 view .LVU114
 301              		.loc 1 284 3 is_stmt 0 discriminator 2 view .LVU115
 302 01c9 85C0     		testl	%eax, %eax
 303 01cb 0F8E5901 		jle	.L25
 303      0000
 304              		.loc 1 284 3 view .LVU116
 305 01d1 4531FF   		xorl	%r15d, %r15d
 306              	.LVL33:
 307              		.p2align 4,,10
 308 01d4 0F1F4000 		.p2align 3
 309              	.L36:
 285:fltk-1.3.4-1/jpeg/jdmarker.c ****     INPUT_BYTE(cinfo, c, return FALSE);
 310              		.loc 1 285 5 is_stmt 1 view .LVU117
 311              		.loc 1 285 5 view .LVU118
 312 01d8 4885ED   		testq	%rbp, %rbp
 313 01db 7517     		jne	.L26
 314              		.loc 1 285 5 discriminator 1 view .LVU119
 315 01dd 4C89E7   		movq	%r12, %rdi
 316 01e0 41FF5518 		call	*24(%r13)
 317              	.LVL34:
 318 01e4 85C0     		testl	%eax, %eax
 319 01e6 0F847401 		je	.L7
 319      0000
 320              		.loc 1 285 5 discriminator 4 view .LVU120
 321 01ec 4D8B7500 		movq	0(%r13), %r14
 322              	.LVL35:
 323              		.loc 1 285 5 is_stmt 0 discriminator 4 view .LVU121
 324 01f0 498B6D08 		movq	8(%r13), %rbp
 325              	.LVL36:
 326              	.L26:
 327              		.loc 1 285 5 is_stmt 1 discriminator 5 view .LVU122
 328              		.loc 1 285 5 discriminator 5 view .LVU123
 329 01f4 410FB616 		movzbl	(%r14), %edx
 286:fltk-1.3.4-1/jpeg/jdmarker.c ****     /* Check to see whether component id has already been seen   */
 287:fltk-1.3.4-1/jpeg/jdmarker.c ****     /* (in violation of the spec, but unfortunately seen in some */
 288:fltk-1.3.4-1/jpeg/jdmarker.c ****     /* files).  If so, create "fake" component id equal to the   */
 289:fltk-1.3.4-1/jpeg/jdmarker.c ****     /* max id seen so far + 1. */
 290:fltk-1.3.4-1/jpeg/jdmarker.c ****     for (i = 0, compptr = cinfo->comp_info; i < ci; i++, compptr++) {
 330              		.loc 1 290 25 is_stmt 0 discriminator 5 view .LVU124
 331 01f8 498BB424 		movq	304(%r12), %rsi
 331      30010000 
 285:fltk-1.3.4-1/jpeg/jdmarker.c ****     INPUT_BYTE(cinfo, c, return FALSE);
 332              		.loc 1 285 5 discriminator 5 view .LVU125
 333 0200 488D4DFF 		leaq	-1(%rbp), %rcx
 334              	.LVL37:
 285:fltk-1.3.4-1/jpeg/jdmarker.c ****     INPUT_BYTE(cinfo, c, return FALSE);
 335              		.loc 1 285 5 is_stmt 1 discriminator 5 view .LVU126
 285:fltk-1.3.4-1/jpeg/jdmarker.c ****     INPUT_BYTE(cinfo, c, return FALSE);
 336              		.loc 1 285 5 discriminator 5 view .LVU127
 337              		.loc 1 290 5 discriminator 5 view .LVU128
 338              		.loc 1 290 45 discriminator 5 view .LVU129
 339              		.loc 1 290 5 is_stmt 0 discriminator 5 view .LVU130
 340 0204 4585FF   		testl	%r15d, %r15d
 341 0207 0F841702 		je	.L37
 341      0000
 342              		.loc 1 290 5 discriminator 5 view .LVU131
 343 020d 418D47FF 		leal	-1(%r15), %eax
 344 0211 488D5C40 		leaq	3(%rax,%rax,2), %rbx
 344      03
 345              		.loc 1 290 25 view .LVU132
 346 0216 4889F0   		movq	%rsi, %rax
 347 0219 48C1E305 		salq	$5, %rbx
 348 021d 4801F3   		addq	%rsi, %rbx
 349 0220 EB0F     		jmp	.L31
 350              	.LVL38:
 351              		.p2align 4,,10
 352 0222 660F1F44 		.p2align 3
 352      0000
 353              	.L28:
 354              		.loc 1 290 53 is_stmt 1 discriminator 2 view .LVU133
 355              		.loc 1 290 65 is_stmt 0 discriminator 2 view .LVU134
 356 0228 4883C060 		addq	$96, %rax
 357              	.LVL39:
 358              		.loc 1 290 45 is_stmt 1 discriminator 2 view .LVU135
 359              		.loc 1 290 5 is_stmt 0 discriminator 2 view .LVU136
 360 022c 4839D8   		cmpq	%rbx, %rax
 361 022f 744E     		je	.L27
 362              	.L31:
 291:fltk-1.3.4-1/jpeg/jdmarker.c ****       if (c == compptr->component_id) {
 363              		.loc 1 291 7 is_stmt 1 view .LVU137
 364              		.loc 1 291 10 is_stmt 0 view .LVU138
 365 0231 3910     		cmpl	%edx, (%rax)
 366 0233 75F3     		jne	.L28
 292:fltk-1.3.4-1/jpeg/jdmarker.c **** 	compptr = cinfo->comp_info;
 367              		.loc 1 292 2 is_stmt 1 view .LVU139
 368              	.LVL40:
 293:fltk-1.3.4-1/jpeg/jdmarker.c **** 	c = compptr->component_id;
 369              		.loc 1 293 2 view .LVU140
 370              		.loc 1 293 4 is_stmt 0 view .LVU141
 371 0235 8B06     		movl	(%rsi), %eax
 372              	.LVL41:
 294:fltk-1.3.4-1/jpeg/jdmarker.c **** 	compptr++;
 373              		.loc 1 294 2 is_stmt 1 view .LVU142
 374              		.loc 1 294 9 is_stmt 0 view .LVU143
 375 0237 488D5E60 		leaq	96(%rsi), %rbx
 376              	.LVL42:
 295:fltk-1.3.4-1/jpeg/jdmarker.c **** 	for (i = 1; i < ci; i++, compptr++) {
 377              		.loc 1 295 2 is_stmt 1 view .LVU144
 378              		.loc 1 295 14 view .LVU145
 379              		.loc 1 295 2 is_stmt 0 view .LVU146
 380 023b 4183FF01 		cmpl	$1, %r15d
 381 023f 743B     		je	.L29
 382 0241 458D47FE 		leal	-2(%r15), %r8d
 383 0245 4B8D1440 		leaq	(%r8,%r8,2), %rdx
 384 0249 48C1E205 		salq	$5, %rdx
 385 024d 488DBC16 		leaq	192(%rsi,%rdx), %rdi
 385      C0000000 
 294:fltk-1.3.4-1/jpeg/jdmarker.c **** 	compptr++;
 386              		.loc 1 294 9 view .LVU147
 387 0255 4889DA   		movq	%rbx, %rdx
 388              	.LVL43:
 389 0258 0F1F8400 		.p2align 4,,10
 389      00000000 
 390              		.p2align 3
 391              	.L30:
 296:fltk-1.3.4-1/jpeg/jdmarker.c **** 	  if (compptr->component_id > c) c = compptr->component_id;
 392              		.loc 1 296 4 is_stmt 1 view .LVU148
 393 0260 8B32     		movl	(%rdx), %esi
 394 0262 39F0     		cmpl	%esi, %eax
 395 0264 0F4CC6   		cmovl	%esi, %eax
 396              	.LVL44:
 295:fltk-1.3.4-1/jpeg/jdmarker.c **** 	for (i = 1; i < ci; i++, compptr++) {
 397              		.loc 1 295 22 view .LVU149
 295:fltk-1.3.4-1/jpeg/jdmarker.c **** 	for (i = 1; i < ci; i++, compptr++) {
 398              		.loc 1 295 34 is_stmt 0 view .LVU150
 399 0267 4883C260 		addq	$96, %rdx
 400              	.LVL45:
 295:fltk-1.3.4-1/jpeg/jdmarker.c **** 	for (i = 1; i < ci; i++, compptr++) {
 401              		.loc 1 295 14 is_stmt 1 view .LVU151
 295:fltk-1.3.4-1/jpeg/jdmarker.c **** 	for (i = 1; i < ci; i++, compptr++) {
 402              		.loc 1 295 2 is_stmt 0 view .LVU152
 403 026b 4839FA   		cmpq	%rdi, %rdx
 404 026e 75F0     		jne	.L30
 405 0270 4B8D5440 		leaq	3(%r8,%r8,2), %rdx
 405      03
 406              	.LVL46:
 295:fltk-1.3.4-1/jpeg/jdmarker.c **** 	for (i = 1; i < ci; i++, compptr++) {
 407              		.loc 1 295 2 view .LVU153
 408 0275 48C1E205 		salq	$5, %rdx
 409 0279 4801D3   		addq	%rdx, %rbx
 410              	.L29:
 297:fltk-1.3.4-1/jpeg/jdmarker.c **** 	}
 298:fltk-1.3.4-1/jpeg/jdmarker.c **** 	c++;
 411              		.loc 1 298 2 is_stmt 1 view .LVU154
 412              		.loc 1 298 3 is_stmt 0 view .LVU155
 413 027c 8D5001   		leal	1(%rax), %edx
 414              	.LVL47:
 299:fltk-1.3.4-1/jpeg/jdmarker.c **** 	break;
 415              		.loc 1 299 2 is_stmt 1 view .LVU156
 416              	.L27:
 300:fltk-1.3.4-1/jpeg/jdmarker.c ****       }
 301:fltk-1.3.4-1/jpeg/jdmarker.c ****     }
 302:fltk-1.3.4-1/jpeg/jdmarker.c ****     compptr->component_id = c;
 417              		.loc 1 302 5 view .LVU157
 418              		.loc 1 302 27 is_stmt 0 view .LVU158
 419 027f 8913     		movl	%edx, (%rbx)
 303:fltk-1.3.4-1/jpeg/jdmarker.c ****     compptr->component_index = ci;
 420              		.loc 1 303 5 is_stmt 1 view .LVU159
 285:fltk-1.3.4-1/jpeg/jdmarker.c ****     /* Check to see whether component id has already been seen   */
 421              		.loc 1 285 5 is_stmt 0 view .LVU160
 422 0281 4983C601 		addq	$1, %r14
 423              	.LVL48:
 424              		.loc 1 303 30 view .LVU161
 425 0285 44897B04 		movl	%r15d, 4(%rbx)
 304:fltk-1.3.4-1/jpeg/jdmarker.c ****     INPUT_BYTE(cinfo, c, return FALSE);
 426              		.loc 1 304 5 is_stmt 1 view .LVU162
 427              		.loc 1 304 5 view .LVU163
 428 0289 4885C9   		testq	%rcx, %rcx
 429 028c 7517     		jne	.L33
 430              		.loc 1 304 5 discriminator 1 view .LVU164
 431 028e 4C89E7   		movq	%r12, %rdi
 432 0291 41FF5518 		call	*24(%r13)
 433              	.LVL49:
 434              		.loc 1 304 5 is_stmt 0 discriminator 1 view .LVU165
 435 0295 85C0     		testl	%eax, %eax
 436 0297 0F84C300 		je	.L7
 436      0000
 437              		.loc 1 304 5 is_stmt 1 discriminator 4 view .LVU166
 438 029d 4D8B7500 		movq	0(%r13), %r14
 439              	.LVL50:
 440              		.loc 1 304 5 is_stmt 0 discriminator 4 view .LVU167
 441 02a1 498B4D08 		movq	8(%r13), %rcx
 442              	.LVL51:
 443              	.L33:
 444              		.loc 1 304 5 is_stmt 1 discriminator 5 view .LVU168
 445              		.loc 1 304 5 discriminator 5 view .LVU169
 446              		.loc 1 304 5 discriminator 5 view .LVU170
 447              		.loc 1 304 5 is_stmt 0 discriminator 5 view .LVU171
 448 02a5 410FB616 		movzbl	(%r14), %edx
 449 02a9 89D0     		movl	%edx, %eax
 450              	.LVL52:
 451              		.loc 1 304 5 is_stmt 1 discriminator 5 view .LVU172
 305:fltk-1.3.4-1/jpeg/jdmarker.c ****     compptr->h_samp_factor = (c >> 4) & 15;
 452              		.loc 1 305 5 discriminator 5 view .LVU173
 453              		.loc 1 305 33 is_stmt 0 discriminator 5 view .LVU174
 454 02ab C1FA04   		sarl	$4, %edx
 455              	.LVL53:
 306:fltk-1.3.4-1/jpeg/jdmarker.c ****     compptr->v_samp_factor = (c     ) & 15;
 456              		.loc 1 306 39 discriminator 5 view .LVU175
 457 02ae 83E00F   		andl	$15, %eax
 458              	.LVL54:
 307:fltk-1.3.4-1/jpeg/jdmarker.c ****     INPUT_BYTE(cinfo, compptr->quant_tbl_no, return FALSE);
 459              		.loc 1 307 5 discriminator 5 view .LVU176
 460 02b1 4883E901 		subq	$1, %rcx
 461              	.LVL55:
 305:fltk-1.3.4-1/jpeg/jdmarker.c ****     compptr->h_samp_factor = (c >> 4) & 15;
 462              		.loc 1 305 33 discriminator 5 view .LVU177
 463 02b5 895308   		movl	%edx, 8(%rbx)
 464              	.LVL56:
 306:fltk-1.3.4-1/jpeg/jdmarker.c ****     compptr->v_samp_factor = (c     ) & 15;
 465              		.loc 1 306 5 is_stmt 1 discriminator 5 view .LVU178
 306:fltk-1.3.4-1/jpeg/jdmarker.c ****     compptr->v_samp_factor = (c     ) & 15;
 466              		.loc 1 306 39 is_stmt 0 discriminator 5 view .LVU179
 467 02b8 89430C   		movl	%eax, 12(%rbx)
 468              		.loc 1 307 5 is_stmt 1 discriminator 5 view .LVU180
 469              		.loc 1 307 5 discriminator 5 view .LVU181
 304:fltk-1.3.4-1/jpeg/jdmarker.c ****     compptr->h_samp_factor = (c >> 4) & 15;
 470              		.loc 1 304 5 is_stmt 0 discriminator 5 view .LVU182
 471 02bb 498D4601 		leaq	1(%r14), %rax
 472              	.LVL57:
 473              		.loc 1 307 5 discriminator 5 view .LVU183
 474 02bf 7517     		jne	.L35
 475              		.loc 1 307 5 is_stmt 1 discriminator 1 view .LVU184
 476 02c1 4C89E7   		movq	%r12, %rdi
 477 02c4 41FF5518 		call	*24(%r13)
 478              	.LVL58:
 479              		.loc 1 307 5 is_stmt 0 discriminator 1 view .LVU185
 480 02c8 85C0     		testl	%eax, %eax
 481 02ca 0F849000 		je	.L7
 481      0000
 482              		.loc 1 307 5 is_stmt 1 discriminator 4 view .LVU186
 483 02d0 498B4500 		movq	0(%r13), %rax
 484              	.LVL59:
 485              		.loc 1 307 5 is_stmt 0 discriminator 4 view .LVU187
 486 02d4 498B4D08 		movq	8(%r13), %rcx
 487              	.LVL60:
 488              	.L35:
 489              		.loc 1 307 5 is_stmt 1 discriminator 5 view .LVU188
 490              		.loc 1 307 5 discriminator 5 view .LVU189
 491 02d8 4C8D7001 		leaq	1(%rax), %r14
 492 02dc 0FB600   		movzbl	(%rax), %eax
 493              	.LVL61:
 494              	.LBB22:
 308:fltk-1.3.4-1/jpeg/jdmarker.c **** 
 309:fltk-1.3.4-1/jpeg/jdmarker.c ****     TRACEMS4(cinfo, 1, JTRC_SOF_COMPONENT,
 495              		.loc 1 309 5 is_stmt 0 discriminator 5 view .LVU190
 496 02df 8B13     		movl	(%rbx), %edx
 497              	.LBE22:
 307:fltk-1.3.4-1/jpeg/jdmarker.c **** 
 498              		.loc 1 307 5 discriminator 5 view .LVU191
 499 02e1 488D69FF 		leaq	-1(%rcx), %rbp
 500              	.LVL62:
 307:fltk-1.3.4-1/jpeg/jdmarker.c **** 
 501              		.loc 1 307 5 is_stmt 1 discriminator 5 view .LVU192
 502              	.LBB23:
 503              		.loc 1 309 5 is_stmt 0 discriminator 5 view .LVU193
 504 02e5 BE010000 		movl	$1, %esi
 504      00
 505 02ea 4C89E7   		movq	%r12, %rdi
 506              	.LBE23:
 284:fltk-1.3.4-1/jpeg/jdmarker.c ****     INPUT_BYTE(cinfo, c, return FALSE);
 507              		.loc 1 284 46 discriminator 5 view .LVU194
 508 02ed 4183C701 		addl	$1, %r15d
 509              	.LVL63:
 307:fltk-1.3.4-1/jpeg/jdmarker.c **** 
 510              		.loc 1 307 5 discriminator 5 view .LVU195
 511 02f1 894310   		movl	%eax, 16(%rbx)
 307:fltk-1.3.4-1/jpeg/jdmarker.c **** 
 512              		.loc 1 307 5 is_stmt 1 discriminator 5 view .LVU196
 513              		.loc 1 309 5 discriminator 5 view .LVU197
 514              	.LBB24:
 515              		.loc 1 309 5 discriminator 5 view .LVU198
 516 02f4 498B0424 		movq	(%r12), %rax
 517              	.LVL64:
 518              		.loc 1 309 5 discriminator 5 view .LVU199
 519 02f8 89502C   		movl	%edx, 44(%rax)
 520              		.loc 1 309 5 discriminator 5 view .LVU200
 521 02fb 8B5308   		movl	8(%rbx), %edx
 522 02fe 895030   		movl	%edx, 48(%rax)
 523              		.loc 1 309 5 discriminator 5 view .LVU201
 524 0301 8B530C   		movl	12(%rbx), %edx
 525 0304 895034   		movl	%edx, 52(%rax)
 526              		.loc 1 309 5 discriminator 5 view .LVU202
 527 0307 8B5310   		movl	16(%rbx), %edx
 528 030a 895038   		movl	%edx, 56(%rax)
 529              		.loc 1 309 5 discriminator 5 view .LVU203
 530 030d 498B0424 		movq	(%r12), %rax
 531              	.LVL65:
 532              		.loc 1 309 5 is_stmt 0 discriminator 5 view .LVU204
 533 0311 C7402867 		movl	$103, 40(%rax)
 533      000000
 534              		.loc 1 309 5 is_stmt 1 discriminator 5 view .LVU205
 535 0318 498B0424 		movq	(%r12), %rax
 536 031c FF5008   		call	*8(%rax)
 537              	.LVL66:
 538              	.LBE24:
 539              		.loc 1 309 5 discriminator 5 view .LVU206
 284:fltk-1.3.4-1/jpeg/jdmarker.c ****     INPUT_BYTE(cinfo, c, return FALSE);
 540              		.loc 1 284 44 discriminator 5 view .LVU207
 284:fltk-1.3.4-1/jpeg/jdmarker.c ****     INPUT_BYTE(cinfo, c, return FALSE);
 541              		.loc 1 284 16 discriminator 5 view .LVU208
 284:fltk-1.3.4-1/jpeg/jdmarker.c ****     INPUT_BYTE(cinfo, c, return FALSE);
 542              		.loc 1 284 3 is_stmt 0 discriminator 5 view .LVU209
 543 031f 45397C24 		cmpl	%r15d, 56(%r12)
 543      38
 544 0324 0F8FAEFE 		jg	.L36
 544      FFFF
 545              	.LVL67:
 546              	.L25:
 310:fltk-1.3.4-1/jpeg/jdmarker.c **** 	     compptr->component_id, compptr->h_samp_factor,
 311:fltk-1.3.4-1/jpeg/jdmarker.c **** 	     compptr->v_samp_factor, compptr->quant_tbl_no);
 312:fltk-1.3.4-1/jpeg/jdmarker.c ****   }
 313:fltk-1.3.4-1/jpeg/jdmarker.c **** 
 314:fltk-1.3.4-1/jpeg/jdmarker.c ****   cinfo->marker->saw_SOF = TRUE;
 547              		.loc 1 314 3 is_stmt 1 view .LVU210
 548              		.loc 1 314 8 is_stmt 0 view .LVU211
 549 032a 498B8424 		movq	616(%r12), %rax
 549      68020000 
 550              		.loc 1 314 26 view .LVU212
 551 0332 C7401C01 		movl	$1, 28(%rax)
 551      000000
 315:fltk-1.3.4-1/jpeg/jdmarker.c **** 
 316:fltk-1.3.4-1/jpeg/jdmarker.c ****   INPUT_SYNC(cinfo);
 552              		.loc 1 316 3 is_stmt 1 view .LVU213
 317:fltk-1.3.4-1/jpeg/jdmarker.c ****   return TRUE;
 553              		.loc 1 317 10 is_stmt 0 view .LVU214
 554 0339 B8010000 		movl	$1, %eax
 554      00
 316:fltk-1.3.4-1/jpeg/jdmarker.c ****   return TRUE;
 555              		.loc 1 316 3 view .LVU215
 556 033e 4D897500 		movq	%r14, 0(%r13)
 557 0342 49896D08 		movq	%rbp, 8(%r13)
 558              		.loc 1 317 3 is_stmt 1 view .LVU216
 559              		.loc 1 317 10 is_stmt 0 view .LVU217
 560 0346 EB1A     		jmp	.L1
 561              	.LVL68:
 562              	.L10:
 256:fltk-1.3.4-1/jpeg/jdmarker.c ****   INPUT_2BYTES(cinfo, cinfo->image_width, return FALSE);
 563              		.loc 1 256 3 is_stmt 1 discriminator 1 view .LVU218
 564 0348 4C89E7   		movq	%r12, %rdi
 565 034b 41FF5518 		call	*24(%r13)
 566              	.LVL69:
 256:fltk-1.3.4-1/jpeg/jdmarker.c ****   INPUT_2BYTES(cinfo, cinfo->image_width, return FALSE);
 567              		.loc 1 256 3 is_stmt 0 discriminator 1 view .LVU219
 568 034f 85C0     		testl	%eax, %eax
 569 0351 0F85A200 		jne	.L77
 569      0000
 570 0357 660F1F84 		.p2align 4,,10
 570      00000000 
 570      00
 571              		.p2align 3
 572              	.L7:
 253:fltk-1.3.4-1/jpeg/jdmarker.c **** 
 573              		.loc 1 253 3 view .LVU220
 574 0360 31C0     		xorl	%eax, %eax
 575              	.L1:
 318:fltk-1.3.4-1/jpeg/jdmarker.c **** }
 576              		.loc 1 318 1 view .LVU221
 577 0362 4883C408 		addq	$8, %rsp
 578              		.cfi_remember_state
 579              		.cfi_def_cfa_offset 56
 580 0366 5B       		popq	%rbx
 581              		.cfi_def_cfa_offset 48
 582 0367 5D       		popq	%rbp
 583              		.cfi_def_cfa_offset 40
 584 0368 415C     		popq	%r12
 585              		.cfi_def_cfa_offset 32
 586              	.LVL70:
 587              		.loc 1 318 1 view .LVU222
 588 036a 415D     		popq	%r13
 589              		.cfi_def_cfa_offset 24
 590              	.LVL71:
 591              		.loc 1 318 1 view .LVU223
 592 036c 415E     		popq	%r14
 593              		.cfi_def_cfa_offset 16
 594 036e 415F     		popq	%r15
 595              		.cfi_def_cfa_offset 8
 596 0370 C3       		ret
 597              	.LVL72:
 598              		.p2align 4,,10
 599 0371 0F1F8000 		.p2align 3
 599      000000
 600              	.L5:
 601              		.cfi_restore_state
 253:fltk-1.3.4-1/jpeg/jdmarker.c **** 
 602              		.loc 1 253 3 is_stmt 1 discriminator 6 view .LVU224
 603 0378 4C89E7   		movq	%r12, %rdi
 604 037b 41FF5518 		call	*24(%r13)
 605              	.LVL73:
 253:fltk-1.3.4-1/jpeg/jdmarker.c **** 
 606              		.loc 1 253 3 is_stmt 0 discriminator 6 view .LVU225
 607 037f 85C0     		testl	%eax, %eax
 608 0381 74DD     		je	.L7
 253:fltk-1.3.4-1/jpeg/jdmarker.c **** 
 609              		.loc 1 253 3 is_stmt 1 discriminator 9 view .LVU226
 610 0383 498B5500 		movq	0(%r13), %rdx
 611              	.LVL74:
 253:fltk-1.3.4-1/jpeg/jdmarker.c **** 
 612              		.loc 1 253 3 is_stmt 0 discriminator 9 view .LVU227
 613 0387 498B4508 		movq	8(%r13), %rax
 614              	.LVL75:
 253:fltk-1.3.4-1/jpeg/jdmarker.c **** 
 615              		.loc 1 253 3 is_stmt 1 discriminator 9 view .LVU228
 253:fltk-1.3.4-1/jpeg/jdmarker.c **** 
 616              		.loc 1 253 3 discriminator 9 view .LVU229
 253:fltk-1.3.4-1/jpeg/jdmarker.c **** 
 617              		.loc 1 253 3 discriminator 9 view .LVU230
 253:fltk-1.3.4-1/jpeg/jdmarker.c **** 
 618              		.loc 1 253 3 is_stmt 0 discriminator 9 view .LVU231
 619 038b 440FB63A 		movzbl	(%rdx), %r15d
 620              	.LVL76:
 253:fltk-1.3.4-1/jpeg/jdmarker.c **** 
 621              		.loc 1 253 3 is_stmt 1 discriminator 9 view .LVU232
 255:fltk-1.3.4-1/jpeg/jdmarker.c ****   INPUT_2BYTES(cinfo, cinfo->image_height, return FALSE);
 622              		.loc 1 255 3 discriminator 9 view .LVU233
 255:fltk-1.3.4-1/jpeg/jdmarker.c ****   INPUT_2BYTES(cinfo, cinfo->image_height, return FALSE);
 623              		.loc 1 255 3 discriminator 9 view .LVU234
 624 038f 4883E801 		subq	$1, %rax
 625              	.LVL77:
 255:fltk-1.3.4-1/jpeg/jdmarker.c ****   INPUT_2BYTES(cinfo, cinfo->image_height, return FALSE);
 626              		.loc 1 255 3 is_stmt 0 discriminator 9 view .LVU235
 627 0393 0F85D2FC 		jne	.L78
 627      FFFF
 628              	.LVL78:
 629              	.L8:
 255:fltk-1.3.4-1/jpeg/jdmarker.c ****   INPUT_2BYTES(cinfo, cinfo->image_height, return FALSE);
 630              		.loc 1 255 3 is_stmt 1 discriminator 1 view .LVU236
 631 0399 4C89E7   		movq	%r12, %rdi
 632 039c 41FF5518 		call	*24(%r13)
 633              	.LVL79:
 255:fltk-1.3.4-1/jpeg/jdmarker.c ****   INPUT_2BYTES(cinfo, cinfo->image_height, return FALSE);
 634              		.loc 1 255 3 is_stmt 0 discriminator 1 view .LVU237
 635 03a0 85C0     		testl	%eax, %eax
 636 03a2 74BC     		je	.L7
 255:fltk-1.3.4-1/jpeg/jdmarker.c ****   INPUT_2BYTES(cinfo, cinfo->image_height, return FALSE);
 637              		.loc 1 255 3 is_stmt 1 discriminator 4 view .LVU238
 638 03a4 498B5500 		movq	0(%r13), %rdx
 639              	.LVL80:
 255:fltk-1.3.4-1/jpeg/jdmarker.c ****   INPUT_2BYTES(cinfo, cinfo->image_height, return FALSE);
 640              		.loc 1 255 3 is_stmt 0 discriminator 4 view .LVU239
 641 03a8 498B4508 		movq	8(%r13), %rax
 642              	.LVL81:
 255:fltk-1.3.4-1/jpeg/jdmarker.c ****   INPUT_2BYTES(cinfo, cinfo->image_height, return FALSE);
 643              		.loc 1 255 3 discriminator 4 view .LVU240
 644 03ac E9BEFCFF 		jmp	.L9
 644      FF
 645              	.LVL82:
 646              	.L12:
 256:fltk-1.3.4-1/jpeg/jdmarker.c ****   INPUT_2BYTES(cinfo, cinfo->image_width, return FALSE);
 647              		.loc 1 256 3 is_stmt 1 discriminator 6 view .LVU241
 648 03b1 4C89E7   		movq	%r12, %rdi
 649 03b4 41FF5518 		call	*24(%r13)
 650              	.LVL83:
 256:fltk-1.3.4-1/jpeg/jdmarker.c ****   INPUT_2BYTES(cinfo, cinfo->image_width, return FALSE);
 651              		.loc 1 256 3 is_stmt 0 discriminator 6 view .LVU242
 652 03b8 85C0     		testl	%eax, %eax
 653 03ba 74A4     		je	.L7
 256:fltk-1.3.4-1/jpeg/jdmarker.c ****   INPUT_2BYTES(cinfo, cinfo->image_width, return FALSE);
 654              		.loc 1 256 3 is_stmt 1 discriminator 9 view .LVU243
 655 03bc 498B5500 		movq	0(%r13), %rdx
 656              	.LVL84:
 256:fltk-1.3.4-1/jpeg/jdmarker.c ****   INPUT_2BYTES(cinfo, cinfo->image_width, return FALSE);
 657              		.loc 1 256 3 is_stmt 0 discriminator 9 view .LVU244
 658 03c0 418B4C24 		movl	52(%r12), %ecx
 658      34
 659 03c5 498B4508 		movq	8(%r13), %rax
 660              	.LVL85:
 256:fltk-1.3.4-1/jpeg/jdmarker.c ****   INPUT_2BYTES(cinfo, cinfo->image_width, return FALSE);
 661              		.loc 1 256 3 is_stmt 1 discriminator 9 view .LVU245
 256:fltk-1.3.4-1/jpeg/jdmarker.c ****   INPUT_2BYTES(cinfo, cinfo->image_width, return FALSE);
 662              		.loc 1 256 3 discriminator 9 view .LVU246
 256:fltk-1.3.4-1/jpeg/jdmarker.c ****   INPUT_2BYTES(cinfo, cinfo->image_width, return FALSE);
 663              		.loc 1 256 3 discriminator 9 view .LVU247
 256:fltk-1.3.4-1/jpeg/jdmarker.c ****   INPUT_2BYTES(cinfo, cinfo->image_width, return FALSE);
 664              		.loc 1 256 3 is_stmt 0 discriminator 9 view .LVU248
 665 03c9 0FB632   		movzbl	(%rdx), %esi
 666 03cc 01F1     		addl	%esi, %ecx
 667 03ce 41894C24 		movl	%ecx, 52(%r12)
 667      34
 256:fltk-1.3.4-1/jpeg/jdmarker.c ****   INPUT_2BYTES(cinfo, cinfo->image_width, return FALSE);
 668              		.loc 1 256 3 is_stmt 1 discriminator 9 view .LVU249
 257:fltk-1.3.4-1/jpeg/jdmarker.c ****   INPUT_BYTE(cinfo, cinfo->num_components, return FALSE);
 669              		.loc 1 257 3 discriminator 9 view .LVU250
 257:fltk-1.3.4-1/jpeg/jdmarker.c ****   INPUT_BYTE(cinfo, cinfo->num_components, return FALSE);
 670              		.loc 1 257 3 discriminator 9 view .LVU251
 671 03d3 4883E801 		subq	$1, %rax
 672              	.LVL86:
 257:fltk-1.3.4-1/jpeg/jdmarker.c ****   INPUT_BYTE(cinfo, cinfo->num_components, return FALSE);
 673              		.loc 1 257 3 is_stmt 0 discriminator 9 view .LVU252
 674 03d7 0F85D9FC 		jne	.L79
 674      FFFF
 675              	.LVL87:
 676              	.L14:
 257:fltk-1.3.4-1/jpeg/jdmarker.c ****   INPUT_BYTE(cinfo, cinfo->num_components, return FALSE);
 677              		.loc 1 257 3 is_stmt 1 discriminator 1 view .LVU253
 678 03dd 4C89E7   		movq	%r12, %rdi
 679 03e0 41FF5518 		call	*24(%r13)
 680              	.LVL88:
 257:fltk-1.3.4-1/jpeg/jdmarker.c ****   INPUT_BYTE(cinfo, cinfo->num_components, return FALSE);
 681              		.loc 1 257 3 is_stmt 0 discriminator 1 view .LVU254
 682 03e4 85C0     		testl	%eax, %eax
 683 03e6 0F8474FF 		je	.L7
 683      FFFF
 257:fltk-1.3.4-1/jpeg/jdmarker.c ****   INPUT_BYTE(cinfo, cinfo->num_components, return FALSE);
 684              		.loc 1 257 3 is_stmt 1 discriminator 4 view .LVU255
 685 03ec 498B5500 		movq	0(%r13), %rdx
 686              	.LVL89:
 257:fltk-1.3.4-1/jpeg/jdmarker.c ****   INPUT_BYTE(cinfo, cinfo->num_components, return FALSE);
 687              		.loc 1 257 3 is_stmt 0 discriminator 4 view .LVU256
 688 03f0 498B4508 		movq	8(%r13), %rax
 689              	.LVL90:
 257:fltk-1.3.4-1/jpeg/jdmarker.c ****   INPUT_BYTE(cinfo, cinfo->num_components, return FALSE);
 690              		.loc 1 257 3 discriminator 4 view .LVU257
 691 03f4 E9C1FCFF 		jmp	.L15
 691      FF
 692              	.LVL91:
 693              	.L77:
 256:fltk-1.3.4-1/jpeg/jdmarker.c ****   INPUT_2BYTES(cinfo, cinfo->image_width, return FALSE);
 694              		.loc 1 256 3 is_stmt 1 discriminator 4 view .LVU258
 695 03f9 498B5500 		movq	0(%r13), %rdx
 696              	.LVL92:
 256:fltk-1.3.4-1/jpeg/jdmarker.c ****   INPUT_2BYTES(cinfo, cinfo->image_width, return FALSE);
 697              		.loc 1 256 3 is_stmt 0 discriminator 4 view .LVU259
 698 03fd 498B4508 		movq	8(%r13), %rax
 699              	.LVL93:
 256:fltk-1.3.4-1/jpeg/jdmarker.c ****   INPUT_2BYTES(cinfo, cinfo->image_width, return FALSE);
 700              		.loc 1 256 3 discriminator 4 view .LVU260
 701 0401 E982FCFF 		jmp	.L11
 701      FF
 702              	.LVL94:
 703              	.L21:
 274:fltk-1.3.4-1/jpeg/jdmarker.c **** 
 704              		.loc 1 274 5 is_stmt 1 view .LVU261
 705 0406 498B0424 		movq	(%r12), %rax
 706 040a 4C89E7   		movq	%r12, %rdi
 707 040d C7402821 		movl	$33, 40(%rax)
 707      000000
 708 0414 498B0424 		movq	(%r12), %rax
 709 0418 FF10     		call	*(%rax)
 710              	.LVL95:
 711 041a 49634424 		movslq	56(%r12), %rax
 711      38
 712 041f E972FDFF 		jmp	.L22
 712      FF
 713              	.LVL96:
 714              	.L37:
 290:fltk-1.3.4-1/jpeg/jdmarker.c ****       if (c == compptr->component_id) {
 715              		.loc 1 290 25 is_stmt 0 view .LVU262
 716 0424 4889F3   		movq	%rsi, %rbx
 717 0427 E953FEFF 		jmp	.L27
 717      FF
 718              	.LVL97:
 719              	.L16:
 257:fltk-1.3.4-1/jpeg/jdmarker.c ****   INPUT_BYTE(cinfo, cinfo->num_components, return FALSE);
 720              		.loc 1 257 3 is_stmt 1 discriminator 6 view .LVU263
 721 042c 4C89E7   		movq	%r12, %rdi
 722 042f 41FF5518 		call	*24(%r13)
 723              	.LVL98:
 257:fltk-1.3.4-1/jpeg/jdmarker.c ****   INPUT_BYTE(cinfo, cinfo->num_components, return FALSE);
 724              		.loc 1 257 3 is_stmt 0 discriminator 6 view .LVU264
 725 0433 85C0     		testl	%eax, %eax
 726 0435 0F8425FF 		je	.L7
 726      FFFF
 257:fltk-1.3.4-1/jpeg/jdmarker.c ****   INPUT_BYTE(cinfo, cinfo->num_components, return FALSE);
 727              		.loc 1 257 3 is_stmt 1 discriminator 9 view .LVU265
 728 043b 498B5500 		movq	0(%r13), %rdx
 729              	.LVL99:
 257:fltk-1.3.4-1/jpeg/jdmarker.c ****   INPUT_BYTE(cinfo, cinfo->num_components, return FALSE);
 730              		.loc 1 257 3 is_stmt 0 discriminator 9 view .LVU266
 731 043f 418B4C24 		movl	48(%r12), %ecx
 731      30
 732 0444 498B4508 		movq	8(%r13), %rax
 733              	.LVL100:
 257:fltk-1.3.4-1/jpeg/jdmarker.c ****   INPUT_BYTE(cinfo, cinfo->num_components, return FALSE);
 734              		.loc 1 257 3 is_stmt 1 discriminator 9 view .LVU267
 257:fltk-1.3.4-1/jpeg/jdmarker.c ****   INPUT_BYTE(cinfo, cinfo->num_components, return FALSE);
 735              		.loc 1 257 3 discriminator 9 view .LVU268
 257:fltk-1.3.4-1/jpeg/jdmarker.c ****   INPUT_BYTE(cinfo, cinfo->num_components, return FALSE);
 736              		.loc 1 257 3 discriminator 9 view .LVU269
 257:fltk-1.3.4-1/jpeg/jdmarker.c ****   INPUT_BYTE(cinfo, cinfo->num_components, return FALSE);
 737              		.loc 1 257 3 is_stmt 0 discriminator 9 view .LVU270
 738 0448 0FB632   		movzbl	(%rdx), %esi
 739 044b 01F1     		addl	%esi, %ecx
 740 044d 41894C24 		movl	%ecx, 48(%r12)
 740      30
 257:fltk-1.3.4-1/jpeg/jdmarker.c ****   INPUT_BYTE(cinfo, cinfo->num_components, return FALSE);
 741              		.loc 1 257 3 is_stmt 1 discriminator 9 view .LVU271
 258:fltk-1.3.4-1/jpeg/jdmarker.c **** 
 742              		.loc 1 258 3 discriminator 9 view .LVU272
 258:fltk-1.3.4-1/jpeg/jdmarker.c **** 
 743              		.loc 1 258 3 discriminator 9 view .LVU273
 744 0452 4883E801 		subq	$1, %rax
 745              	.LVL101:
 258:fltk-1.3.4-1/jpeg/jdmarker.c **** 
 746              		.loc 1 258 3 is_stmt 0 discriminator 9 view .LVU274
 747 0456 0F858CFC 		jne	.L80
 747      FFFF
 748              	.LVL102:
 749              	.L18:
 258:fltk-1.3.4-1/jpeg/jdmarker.c **** 
 750              		.loc 1 258 3 is_stmt 1 discriminator 1 view .LVU275
 751 045c 4C89E7   		movq	%r12, %rdi
 752 045f 41FF5518 		call	*24(%r13)
 753              	.LVL103:
 258:fltk-1.3.4-1/jpeg/jdmarker.c **** 
 754              		.loc 1 258 3 is_stmt 0 discriminator 1 view .LVU276
 755 0463 85C0     		testl	%eax, %eax
 756 0465 0F84F5FE 		je	.L7
 756      FFFF
 258:fltk-1.3.4-1/jpeg/jdmarker.c **** 
 757              		.loc 1 258 3 is_stmt 1 discriminator 4 view .LVU277
 758 046b 498B5500 		movq	0(%r13), %rdx
 759              	.LVL104:
 258:fltk-1.3.4-1/jpeg/jdmarker.c **** 
 760              		.loc 1 258 3 is_stmt 0 discriminator 4 view .LVU278
 761 046f 498B4508 		movq	8(%r13), %rax
 762              	.LVL105:
 258:fltk-1.3.4-1/jpeg/jdmarker.c **** 
 763              		.loc 1 258 3 discriminator 4 view .LVU279
 764 0473 E974FCFF 		jmp	.L19
 764      FF
 765              	.LVL106:
 766              	.L76:
 280:fltk-1.3.4-1/jpeg/jdmarker.c **** 			((j_common_ptr) cinfo, JPOOL_IMAGE,
 767              		.loc 1 280 5 is_stmt 1 view .LVU280
 280:fltk-1.3.4-1/jpeg/jdmarker.c **** 			((j_common_ptr) cinfo, JPOOL_IMAGE,
 768              		.loc 1 280 49 is_stmt 0 view .LVU281
 769 0478 488D1440 		leaq	(%rax,%rax,2), %rdx
 770 047c 498B4424 		movq	8(%r12), %rax
 770      08
 771 0481 BE010000 		movl	$1, %esi
 771      00
 772 0486 4C89E7   		movq	%r12, %rdi
 773 0489 48C1E205 		salq	$5, %rdx
 774 048d FF10     		call	*(%rax)
 775              	.LVL107:
 280:fltk-1.3.4-1/jpeg/jdmarker.c **** 			((j_common_ptr) cinfo, JPOOL_IMAGE,
 776              		.loc 1 280 22 view .LVU282
 777 048f 49898424 		movq	%rax, 304(%r12)
 777      30010000 
 778 0497 418B4424 		movl	56(%r12), %eax
 778      38
 779 049c E928FDFF 		jmp	.L24
 779      FF
 780              		.cfi_endproc
 781              	.LFE52:
 783              		.section	.text.examine_app0,"ax",@progbits
 784              		.p2align 4
 786              	examine_app0:
 787              	.LVL108:
 788              	.LFB59:
 319:fltk-1.3.4-1/jpeg/jdmarker.c **** 
 320:fltk-1.3.4-1/jpeg/jdmarker.c **** 
 321:fltk-1.3.4-1/jpeg/jdmarker.c **** LOCAL(boolean)
 322:fltk-1.3.4-1/jpeg/jdmarker.c **** get_sos (j_decompress_ptr cinfo)
 323:fltk-1.3.4-1/jpeg/jdmarker.c **** /* Process a SOS marker */
 324:fltk-1.3.4-1/jpeg/jdmarker.c **** {
 325:fltk-1.3.4-1/jpeg/jdmarker.c ****   INT32 length;
 326:fltk-1.3.4-1/jpeg/jdmarker.c ****   int c, ci, i, n;
 327:fltk-1.3.4-1/jpeg/jdmarker.c ****   jpeg_component_info * compptr;
 328:fltk-1.3.4-1/jpeg/jdmarker.c ****   INPUT_VARS(cinfo);
 329:fltk-1.3.4-1/jpeg/jdmarker.c **** 
 330:fltk-1.3.4-1/jpeg/jdmarker.c ****   if (! cinfo->marker->saw_SOF)
 331:fltk-1.3.4-1/jpeg/jdmarker.c ****     ERREXITS(cinfo, JERR_SOF_BEFORE, "SOS");
 332:fltk-1.3.4-1/jpeg/jdmarker.c **** 
 333:fltk-1.3.4-1/jpeg/jdmarker.c ****   INPUT_2BYTES(cinfo, length, return FALSE);
 334:fltk-1.3.4-1/jpeg/jdmarker.c **** 
 335:fltk-1.3.4-1/jpeg/jdmarker.c ****   INPUT_BYTE(cinfo, n, return FALSE); /* Number of components */
 336:fltk-1.3.4-1/jpeg/jdmarker.c **** 
 337:fltk-1.3.4-1/jpeg/jdmarker.c ****   TRACEMS1(cinfo, 1, JTRC_SOS, n);
 338:fltk-1.3.4-1/jpeg/jdmarker.c **** 
 339:fltk-1.3.4-1/jpeg/jdmarker.c ****   if (length != (n * 2 + 6) || n > MAX_COMPS_IN_SCAN ||
 340:fltk-1.3.4-1/jpeg/jdmarker.c ****       (n == 0 && !cinfo->progressive_mode))
 341:fltk-1.3.4-1/jpeg/jdmarker.c ****       /* pseudo SOS marker only allowed in progressive mode */
 342:fltk-1.3.4-1/jpeg/jdmarker.c ****     ERREXIT(cinfo, JERR_BAD_LENGTH);
 343:fltk-1.3.4-1/jpeg/jdmarker.c **** 
 344:fltk-1.3.4-1/jpeg/jdmarker.c ****   cinfo->comps_in_scan = n;
 345:fltk-1.3.4-1/jpeg/jdmarker.c **** 
 346:fltk-1.3.4-1/jpeg/jdmarker.c ****   /* Collect the component-spec parameters */
 347:fltk-1.3.4-1/jpeg/jdmarker.c **** 
 348:fltk-1.3.4-1/jpeg/jdmarker.c ****   for (i = 0; i < n; i++) {
 349:fltk-1.3.4-1/jpeg/jdmarker.c ****     INPUT_BYTE(cinfo, c, return FALSE);
 350:fltk-1.3.4-1/jpeg/jdmarker.c **** 
 351:fltk-1.3.4-1/jpeg/jdmarker.c ****     /* Detect the case where component id's are not unique, and, if so, */
 352:fltk-1.3.4-1/jpeg/jdmarker.c ****     /* create a fake component id using the same logic as in get_sof.   */
 353:fltk-1.3.4-1/jpeg/jdmarker.c ****     /* Note:  This also ensures that all of the SOF components are      */
 354:fltk-1.3.4-1/jpeg/jdmarker.c ****     /* referenced in the single scan case, which prevents access to     */
 355:fltk-1.3.4-1/jpeg/jdmarker.c ****     /* uninitialized memory in later decoding stages. */
 356:fltk-1.3.4-1/jpeg/jdmarker.c ****     for (ci = 0; ci < i; ci++) {
 357:fltk-1.3.4-1/jpeg/jdmarker.c ****       if (c == cinfo->cur_comp_info[ci]->component_id) {
 358:fltk-1.3.4-1/jpeg/jdmarker.c **** 	c = cinfo->cur_comp_info[0]->component_id;
 359:fltk-1.3.4-1/jpeg/jdmarker.c **** 	for (ci = 1; ci < i; ci++) {
 360:fltk-1.3.4-1/jpeg/jdmarker.c **** 	  compptr = cinfo->cur_comp_info[ci];
 361:fltk-1.3.4-1/jpeg/jdmarker.c **** 	  if (compptr->component_id > c) c = compptr->component_id;
 362:fltk-1.3.4-1/jpeg/jdmarker.c **** 	}
 363:fltk-1.3.4-1/jpeg/jdmarker.c **** 	c++;
 364:fltk-1.3.4-1/jpeg/jdmarker.c **** 	break;
 365:fltk-1.3.4-1/jpeg/jdmarker.c ****       }
 366:fltk-1.3.4-1/jpeg/jdmarker.c ****     }
 367:fltk-1.3.4-1/jpeg/jdmarker.c **** 
 368:fltk-1.3.4-1/jpeg/jdmarker.c ****     for (ci = 0, compptr = cinfo->comp_info; ci < cinfo->num_components;
 369:fltk-1.3.4-1/jpeg/jdmarker.c **** 	 ci++, compptr++) {
 370:fltk-1.3.4-1/jpeg/jdmarker.c ****       if (c == compptr->component_id)
 371:fltk-1.3.4-1/jpeg/jdmarker.c **** 	goto id_found;
 372:fltk-1.3.4-1/jpeg/jdmarker.c ****     }
 373:fltk-1.3.4-1/jpeg/jdmarker.c **** 
 374:fltk-1.3.4-1/jpeg/jdmarker.c ****     ERREXIT1(cinfo, JERR_BAD_COMPONENT_ID, c);
 375:fltk-1.3.4-1/jpeg/jdmarker.c **** 
 376:fltk-1.3.4-1/jpeg/jdmarker.c ****   id_found:
 377:fltk-1.3.4-1/jpeg/jdmarker.c **** 
 378:fltk-1.3.4-1/jpeg/jdmarker.c ****     cinfo->cur_comp_info[i] = compptr;
 379:fltk-1.3.4-1/jpeg/jdmarker.c ****     INPUT_BYTE(cinfo, c, return FALSE);
 380:fltk-1.3.4-1/jpeg/jdmarker.c ****     compptr->dc_tbl_no = (c >> 4) & 15;
 381:fltk-1.3.4-1/jpeg/jdmarker.c ****     compptr->ac_tbl_no = (c     ) & 15;
 382:fltk-1.3.4-1/jpeg/jdmarker.c **** 
 383:fltk-1.3.4-1/jpeg/jdmarker.c ****     TRACEMS3(cinfo, 1, JTRC_SOS_COMPONENT, compptr->component_id,
 384:fltk-1.3.4-1/jpeg/jdmarker.c **** 	     compptr->dc_tbl_no, compptr->ac_tbl_no);
 385:fltk-1.3.4-1/jpeg/jdmarker.c ****   }
 386:fltk-1.3.4-1/jpeg/jdmarker.c **** 
 387:fltk-1.3.4-1/jpeg/jdmarker.c ****   /* Collect the additional scan parameters Ss, Se, Ah/Al. */
 388:fltk-1.3.4-1/jpeg/jdmarker.c ****   INPUT_BYTE(cinfo, c, return FALSE);
 389:fltk-1.3.4-1/jpeg/jdmarker.c ****   cinfo->Ss = c;
 390:fltk-1.3.4-1/jpeg/jdmarker.c ****   INPUT_BYTE(cinfo, c, return FALSE);
 391:fltk-1.3.4-1/jpeg/jdmarker.c ****   cinfo->Se = c;
 392:fltk-1.3.4-1/jpeg/jdmarker.c ****   INPUT_BYTE(cinfo, c, return FALSE);
 393:fltk-1.3.4-1/jpeg/jdmarker.c ****   cinfo->Ah = (c >> 4) & 15;
 394:fltk-1.3.4-1/jpeg/jdmarker.c ****   cinfo->Al = (c     ) & 15;
 395:fltk-1.3.4-1/jpeg/jdmarker.c **** 
 396:fltk-1.3.4-1/jpeg/jdmarker.c ****   TRACEMS4(cinfo, 1, JTRC_SOS_PARAMS, cinfo->Ss, cinfo->Se,
 397:fltk-1.3.4-1/jpeg/jdmarker.c **** 	   cinfo->Ah, cinfo->Al);
 398:fltk-1.3.4-1/jpeg/jdmarker.c **** 
 399:fltk-1.3.4-1/jpeg/jdmarker.c ****   /* Prepare to scan data & restart markers */
 400:fltk-1.3.4-1/jpeg/jdmarker.c ****   cinfo->marker->next_restart_num = 0;
 401:fltk-1.3.4-1/jpeg/jdmarker.c **** 
 402:fltk-1.3.4-1/jpeg/jdmarker.c ****   /* Count another (non-pseudo) SOS marker */
 403:fltk-1.3.4-1/jpeg/jdmarker.c ****   if (n) cinfo->input_scan_number++;
 404:fltk-1.3.4-1/jpeg/jdmarker.c **** 
 405:fltk-1.3.4-1/jpeg/jdmarker.c ****   INPUT_SYNC(cinfo);
 406:fltk-1.3.4-1/jpeg/jdmarker.c ****   return TRUE;
 407:fltk-1.3.4-1/jpeg/jdmarker.c **** }
 408:fltk-1.3.4-1/jpeg/jdmarker.c **** 
 409:fltk-1.3.4-1/jpeg/jdmarker.c **** 
 410:fltk-1.3.4-1/jpeg/jdmarker.c **** #ifdef D_ARITH_CODING_SUPPORTED
 411:fltk-1.3.4-1/jpeg/jdmarker.c **** 
 412:fltk-1.3.4-1/jpeg/jdmarker.c **** LOCAL(boolean)
 413:fltk-1.3.4-1/jpeg/jdmarker.c **** get_dac (j_decompress_ptr cinfo)
 414:fltk-1.3.4-1/jpeg/jdmarker.c **** /* Process a DAC marker */
 415:fltk-1.3.4-1/jpeg/jdmarker.c **** {
 416:fltk-1.3.4-1/jpeg/jdmarker.c ****   INT32 length;
 417:fltk-1.3.4-1/jpeg/jdmarker.c ****   int index, val;
 418:fltk-1.3.4-1/jpeg/jdmarker.c ****   INPUT_VARS(cinfo);
 419:fltk-1.3.4-1/jpeg/jdmarker.c **** 
 420:fltk-1.3.4-1/jpeg/jdmarker.c ****   INPUT_2BYTES(cinfo, length, return FALSE);
 421:fltk-1.3.4-1/jpeg/jdmarker.c ****   length -= 2;
 422:fltk-1.3.4-1/jpeg/jdmarker.c ****   
 423:fltk-1.3.4-1/jpeg/jdmarker.c ****   while (length > 0) {
 424:fltk-1.3.4-1/jpeg/jdmarker.c ****     INPUT_BYTE(cinfo, index, return FALSE);
 425:fltk-1.3.4-1/jpeg/jdmarker.c ****     INPUT_BYTE(cinfo, val, return FALSE);
 426:fltk-1.3.4-1/jpeg/jdmarker.c **** 
 427:fltk-1.3.4-1/jpeg/jdmarker.c ****     length -= 2;
 428:fltk-1.3.4-1/jpeg/jdmarker.c **** 
 429:fltk-1.3.4-1/jpeg/jdmarker.c ****     TRACEMS2(cinfo, 1, JTRC_DAC, index, val);
 430:fltk-1.3.4-1/jpeg/jdmarker.c **** 
 431:fltk-1.3.4-1/jpeg/jdmarker.c ****     if (index < 0 || index >= (2*NUM_ARITH_TBLS))
 432:fltk-1.3.4-1/jpeg/jdmarker.c ****       ERREXIT1(cinfo, JERR_DAC_INDEX, index);
 433:fltk-1.3.4-1/jpeg/jdmarker.c **** 
 434:fltk-1.3.4-1/jpeg/jdmarker.c ****     if (index >= NUM_ARITH_TBLS) { /* define AC table */
 435:fltk-1.3.4-1/jpeg/jdmarker.c ****       cinfo->arith_ac_K[index-NUM_ARITH_TBLS] = (UINT8) val;
 436:fltk-1.3.4-1/jpeg/jdmarker.c ****     } else {			/* define DC table */
 437:fltk-1.3.4-1/jpeg/jdmarker.c ****       cinfo->arith_dc_L[index] = (UINT8) (val & 0x0F);
 438:fltk-1.3.4-1/jpeg/jdmarker.c ****       cinfo->arith_dc_U[index] = (UINT8) (val >> 4);
 439:fltk-1.3.4-1/jpeg/jdmarker.c ****       if (cinfo->arith_dc_L[index] > cinfo->arith_dc_U[index])
 440:fltk-1.3.4-1/jpeg/jdmarker.c **** 	ERREXIT1(cinfo, JERR_DAC_VALUE, val);
 441:fltk-1.3.4-1/jpeg/jdmarker.c ****     }
 442:fltk-1.3.4-1/jpeg/jdmarker.c ****   }
 443:fltk-1.3.4-1/jpeg/jdmarker.c **** 
 444:fltk-1.3.4-1/jpeg/jdmarker.c ****   if (length != 0)
 445:fltk-1.3.4-1/jpeg/jdmarker.c ****     ERREXIT(cinfo, JERR_BAD_LENGTH);
 446:fltk-1.3.4-1/jpeg/jdmarker.c **** 
 447:fltk-1.3.4-1/jpeg/jdmarker.c ****   INPUT_SYNC(cinfo);
 448:fltk-1.3.4-1/jpeg/jdmarker.c ****   return TRUE;
 449:fltk-1.3.4-1/jpeg/jdmarker.c **** }
 450:fltk-1.3.4-1/jpeg/jdmarker.c **** 
 451:fltk-1.3.4-1/jpeg/jdmarker.c **** #else /* ! D_ARITH_CODING_SUPPORTED */
 452:fltk-1.3.4-1/jpeg/jdmarker.c **** 
 453:fltk-1.3.4-1/jpeg/jdmarker.c **** #define get_dac(cinfo)  skip_variable(cinfo)
 454:fltk-1.3.4-1/jpeg/jdmarker.c **** 
 455:fltk-1.3.4-1/jpeg/jdmarker.c **** #endif /* D_ARITH_CODING_SUPPORTED */
 456:fltk-1.3.4-1/jpeg/jdmarker.c **** 
 457:fltk-1.3.4-1/jpeg/jdmarker.c **** 
 458:fltk-1.3.4-1/jpeg/jdmarker.c **** LOCAL(boolean)
 459:fltk-1.3.4-1/jpeg/jdmarker.c **** get_dht (j_decompress_ptr cinfo)
 460:fltk-1.3.4-1/jpeg/jdmarker.c **** /* Process a DHT marker */
 461:fltk-1.3.4-1/jpeg/jdmarker.c **** {
 462:fltk-1.3.4-1/jpeg/jdmarker.c ****   INT32 length;
 463:fltk-1.3.4-1/jpeg/jdmarker.c ****   UINT8 bits[17];
 464:fltk-1.3.4-1/jpeg/jdmarker.c ****   UINT8 huffval[256];
 465:fltk-1.3.4-1/jpeg/jdmarker.c ****   int i, index, count;
 466:fltk-1.3.4-1/jpeg/jdmarker.c ****   JHUFF_TBL **htblptr;
 467:fltk-1.3.4-1/jpeg/jdmarker.c ****   INPUT_VARS(cinfo);
 468:fltk-1.3.4-1/jpeg/jdmarker.c **** 
 469:fltk-1.3.4-1/jpeg/jdmarker.c ****   INPUT_2BYTES(cinfo, length, return FALSE);
 470:fltk-1.3.4-1/jpeg/jdmarker.c ****   length -= 2;
 471:fltk-1.3.4-1/jpeg/jdmarker.c ****   
 472:fltk-1.3.4-1/jpeg/jdmarker.c ****   while (length > 16) {
 473:fltk-1.3.4-1/jpeg/jdmarker.c ****     INPUT_BYTE(cinfo, index, return FALSE);
 474:fltk-1.3.4-1/jpeg/jdmarker.c **** 
 475:fltk-1.3.4-1/jpeg/jdmarker.c ****     TRACEMS1(cinfo, 1, JTRC_DHT, index);
 476:fltk-1.3.4-1/jpeg/jdmarker.c ****       
 477:fltk-1.3.4-1/jpeg/jdmarker.c ****     bits[0] = 0;
 478:fltk-1.3.4-1/jpeg/jdmarker.c ****     count = 0;
 479:fltk-1.3.4-1/jpeg/jdmarker.c ****     for (i = 1; i <= 16; i++) {
 480:fltk-1.3.4-1/jpeg/jdmarker.c ****       INPUT_BYTE(cinfo, bits[i], return FALSE);
 481:fltk-1.3.4-1/jpeg/jdmarker.c ****       count += bits[i];
 482:fltk-1.3.4-1/jpeg/jdmarker.c ****     }
 483:fltk-1.3.4-1/jpeg/jdmarker.c **** 
 484:fltk-1.3.4-1/jpeg/jdmarker.c ****     length -= 1 + 16;
 485:fltk-1.3.4-1/jpeg/jdmarker.c **** 
 486:fltk-1.3.4-1/jpeg/jdmarker.c ****     TRACEMS8(cinfo, 2, JTRC_HUFFBITS,
 487:fltk-1.3.4-1/jpeg/jdmarker.c **** 	     bits[1], bits[2], bits[3], bits[4],
 488:fltk-1.3.4-1/jpeg/jdmarker.c **** 	     bits[5], bits[6], bits[7], bits[8]);
 489:fltk-1.3.4-1/jpeg/jdmarker.c ****     TRACEMS8(cinfo, 2, JTRC_HUFFBITS,
 490:fltk-1.3.4-1/jpeg/jdmarker.c **** 	     bits[9], bits[10], bits[11], bits[12],
 491:fltk-1.3.4-1/jpeg/jdmarker.c **** 	     bits[13], bits[14], bits[15], bits[16]);
 492:fltk-1.3.4-1/jpeg/jdmarker.c **** 
 493:fltk-1.3.4-1/jpeg/jdmarker.c ****     /* Here we just do minimal validation of the counts to avoid walking
 494:fltk-1.3.4-1/jpeg/jdmarker.c ****      * off the end of our table space.  jdhuff.c will check more carefully.
 495:fltk-1.3.4-1/jpeg/jdmarker.c ****      */
 496:fltk-1.3.4-1/jpeg/jdmarker.c ****     if (count > 256 || ((INT32) count) > length)
 497:fltk-1.3.4-1/jpeg/jdmarker.c ****       ERREXIT(cinfo, JERR_BAD_HUFF_TABLE);
 498:fltk-1.3.4-1/jpeg/jdmarker.c **** 
 499:fltk-1.3.4-1/jpeg/jdmarker.c ****     MEMZERO(huffval, SIZEOF(huffval)); /* pre-zero array for later copy */
 500:fltk-1.3.4-1/jpeg/jdmarker.c **** 
 501:fltk-1.3.4-1/jpeg/jdmarker.c ****     for (i = 0; i < count; i++)
 502:fltk-1.3.4-1/jpeg/jdmarker.c ****       INPUT_BYTE(cinfo, huffval[i], return FALSE);
 503:fltk-1.3.4-1/jpeg/jdmarker.c **** 
 504:fltk-1.3.4-1/jpeg/jdmarker.c ****     length -= count;
 505:fltk-1.3.4-1/jpeg/jdmarker.c **** 
 506:fltk-1.3.4-1/jpeg/jdmarker.c ****     if (index & 0x10) {		/* AC table definition */
 507:fltk-1.3.4-1/jpeg/jdmarker.c ****       index -= 0x10;
 508:fltk-1.3.4-1/jpeg/jdmarker.c ****       htblptr = &cinfo->ac_huff_tbl_ptrs[index];
 509:fltk-1.3.4-1/jpeg/jdmarker.c ****     } else {			/* DC table definition */
 510:fltk-1.3.4-1/jpeg/jdmarker.c ****       htblptr = &cinfo->dc_huff_tbl_ptrs[index];
 511:fltk-1.3.4-1/jpeg/jdmarker.c ****     }
 512:fltk-1.3.4-1/jpeg/jdmarker.c **** 
 513:fltk-1.3.4-1/jpeg/jdmarker.c ****     if (index < 0 || index >= NUM_HUFF_TBLS)
 514:fltk-1.3.4-1/jpeg/jdmarker.c ****       ERREXIT1(cinfo, JERR_DHT_INDEX, index);
 515:fltk-1.3.4-1/jpeg/jdmarker.c **** 
 516:fltk-1.3.4-1/jpeg/jdmarker.c ****     if (*htblptr == NULL)
 517:fltk-1.3.4-1/jpeg/jdmarker.c ****       *htblptr = jpeg_alloc_huff_table((j_common_ptr) cinfo);
 518:fltk-1.3.4-1/jpeg/jdmarker.c ****   
 519:fltk-1.3.4-1/jpeg/jdmarker.c ****     MEMCOPY((*htblptr)->bits, bits, SIZEOF((*htblptr)->bits));
 520:fltk-1.3.4-1/jpeg/jdmarker.c ****     MEMCOPY((*htblptr)->huffval, huffval, SIZEOF((*htblptr)->huffval));
 521:fltk-1.3.4-1/jpeg/jdmarker.c ****   }
 522:fltk-1.3.4-1/jpeg/jdmarker.c **** 
 523:fltk-1.3.4-1/jpeg/jdmarker.c ****   if (length != 0)
 524:fltk-1.3.4-1/jpeg/jdmarker.c ****     ERREXIT(cinfo, JERR_BAD_LENGTH);
 525:fltk-1.3.4-1/jpeg/jdmarker.c **** 
 526:fltk-1.3.4-1/jpeg/jdmarker.c ****   INPUT_SYNC(cinfo);
 527:fltk-1.3.4-1/jpeg/jdmarker.c ****   return TRUE;
 528:fltk-1.3.4-1/jpeg/jdmarker.c **** }
 529:fltk-1.3.4-1/jpeg/jdmarker.c **** 
 530:fltk-1.3.4-1/jpeg/jdmarker.c **** 
 531:fltk-1.3.4-1/jpeg/jdmarker.c **** LOCAL(boolean)
 532:fltk-1.3.4-1/jpeg/jdmarker.c **** get_dqt (j_decompress_ptr cinfo)
 533:fltk-1.3.4-1/jpeg/jdmarker.c **** /* Process a DQT marker */
 534:fltk-1.3.4-1/jpeg/jdmarker.c **** {
 535:fltk-1.3.4-1/jpeg/jdmarker.c ****   INT32 length, count, i;
 536:fltk-1.3.4-1/jpeg/jdmarker.c ****   int n, prec;
 537:fltk-1.3.4-1/jpeg/jdmarker.c ****   unsigned int tmp;
 538:fltk-1.3.4-1/jpeg/jdmarker.c ****   JQUANT_TBL *quant_ptr;
 539:fltk-1.3.4-1/jpeg/jdmarker.c ****   const int *natural_order;
 540:fltk-1.3.4-1/jpeg/jdmarker.c ****   INPUT_VARS(cinfo);
 541:fltk-1.3.4-1/jpeg/jdmarker.c **** 
 542:fltk-1.3.4-1/jpeg/jdmarker.c ****   INPUT_2BYTES(cinfo, length, return FALSE);
 543:fltk-1.3.4-1/jpeg/jdmarker.c ****   length -= 2;
 544:fltk-1.3.4-1/jpeg/jdmarker.c **** 
 545:fltk-1.3.4-1/jpeg/jdmarker.c ****   while (length > 0) {
 546:fltk-1.3.4-1/jpeg/jdmarker.c ****     length--;
 547:fltk-1.3.4-1/jpeg/jdmarker.c ****     INPUT_BYTE(cinfo, n, return FALSE);
 548:fltk-1.3.4-1/jpeg/jdmarker.c ****     prec = n >> 4;
 549:fltk-1.3.4-1/jpeg/jdmarker.c ****     n &= 0x0F;
 550:fltk-1.3.4-1/jpeg/jdmarker.c **** 
 551:fltk-1.3.4-1/jpeg/jdmarker.c ****     TRACEMS2(cinfo, 1, JTRC_DQT, n, prec);
 552:fltk-1.3.4-1/jpeg/jdmarker.c **** 
 553:fltk-1.3.4-1/jpeg/jdmarker.c ****     if (n >= NUM_QUANT_TBLS)
 554:fltk-1.3.4-1/jpeg/jdmarker.c ****       ERREXIT1(cinfo, JERR_DQT_INDEX, n);
 555:fltk-1.3.4-1/jpeg/jdmarker.c ****       
 556:fltk-1.3.4-1/jpeg/jdmarker.c ****     if (cinfo->quant_tbl_ptrs[n] == NULL)
 557:fltk-1.3.4-1/jpeg/jdmarker.c ****       cinfo->quant_tbl_ptrs[n] = jpeg_alloc_quant_table((j_common_ptr) cinfo);
 558:fltk-1.3.4-1/jpeg/jdmarker.c ****     quant_ptr = cinfo->quant_tbl_ptrs[n];
 559:fltk-1.3.4-1/jpeg/jdmarker.c **** 
 560:fltk-1.3.4-1/jpeg/jdmarker.c ****     if (prec) {
 561:fltk-1.3.4-1/jpeg/jdmarker.c ****       if (length < DCTSIZE2 * 2) {
 562:fltk-1.3.4-1/jpeg/jdmarker.c **** 	/* Initialize full table for safety. */
 563:fltk-1.3.4-1/jpeg/jdmarker.c **** 	for (i = 0; i < DCTSIZE2; i++) {
 564:fltk-1.3.4-1/jpeg/jdmarker.c **** 	  quant_ptr->quantval[i] = 1;
 565:fltk-1.3.4-1/jpeg/jdmarker.c **** 	}
 566:fltk-1.3.4-1/jpeg/jdmarker.c **** 	count = length >> 1;
 567:fltk-1.3.4-1/jpeg/jdmarker.c ****       } else
 568:fltk-1.3.4-1/jpeg/jdmarker.c **** 	count = DCTSIZE2;
 569:fltk-1.3.4-1/jpeg/jdmarker.c ****     } else {
 570:fltk-1.3.4-1/jpeg/jdmarker.c ****       if (length < DCTSIZE2) {
 571:fltk-1.3.4-1/jpeg/jdmarker.c **** 	/* Initialize full table for safety. */
 572:fltk-1.3.4-1/jpeg/jdmarker.c **** 	for (i = 0; i < DCTSIZE2; i++) {
 573:fltk-1.3.4-1/jpeg/jdmarker.c **** 	  quant_ptr->quantval[i] = 1;
 574:fltk-1.3.4-1/jpeg/jdmarker.c **** 	}
 575:fltk-1.3.4-1/jpeg/jdmarker.c **** 	count = length;
 576:fltk-1.3.4-1/jpeg/jdmarker.c ****       } else
 577:fltk-1.3.4-1/jpeg/jdmarker.c **** 	count = DCTSIZE2;
 578:fltk-1.3.4-1/jpeg/jdmarker.c ****     }
 579:fltk-1.3.4-1/jpeg/jdmarker.c **** 
 580:fltk-1.3.4-1/jpeg/jdmarker.c ****     switch (count) {
 581:fltk-1.3.4-1/jpeg/jdmarker.c ****     case (2*2): natural_order = jpeg_natural_order2; break;
 582:fltk-1.3.4-1/jpeg/jdmarker.c ****     case (3*3): natural_order = jpeg_natural_order3; break;
 583:fltk-1.3.4-1/jpeg/jdmarker.c ****     case (4*4): natural_order = jpeg_natural_order4; break;
 584:fltk-1.3.4-1/jpeg/jdmarker.c ****     case (5*5): natural_order = jpeg_natural_order5; break;
 585:fltk-1.3.4-1/jpeg/jdmarker.c ****     case (6*6): natural_order = jpeg_natural_order6; break;
 586:fltk-1.3.4-1/jpeg/jdmarker.c ****     case (7*7): natural_order = jpeg_natural_order7; break;
 587:fltk-1.3.4-1/jpeg/jdmarker.c ****     default:    natural_order = jpeg_natural_order;  break;
 588:fltk-1.3.4-1/jpeg/jdmarker.c ****     }
 589:fltk-1.3.4-1/jpeg/jdmarker.c **** 
 590:fltk-1.3.4-1/jpeg/jdmarker.c ****     for (i = 0; i < count; i++) {
 591:fltk-1.3.4-1/jpeg/jdmarker.c ****       if (prec)
 592:fltk-1.3.4-1/jpeg/jdmarker.c **** 	INPUT_2BYTES(cinfo, tmp, return FALSE);
 593:fltk-1.3.4-1/jpeg/jdmarker.c ****       else
 594:fltk-1.3.4-1/jpeg/jdmarker.c **** 	INPUT_BYTE(cinfo, tmp, return FALSE);
 595:fltk-1.3.4-1/jpeg/jdmarker.c ****       /* We convert the zigzag-order table to natural array order. */
 596:fltk-1.3.4-1/jpeg/jdmarker.c ****       quant_ptr->quantval[natural_order[i]] = (UINT16) tmp;
 597:fltk-1.3.4-1/jpeg/jdmarker.c ****     }
 598:fltk-1.3.4-1/jpeg/jdmarker.c **** 
 599:fltk-1.3.4-1/jpeg/jdmarker.c ****     if (cinfo->err->trace_level >= 2) {
 600:fltk-1.3.4-1/jpeg/jdmarker.c ****       for (i = 0; i < DCTSIZE2; i += 8) {
 601:fltk-1.3.4-1/jpeg/jdmarker.c **** 	TRACEMS8(cinfo, 2, JTRC_QUANTVALS,
 602:fltk-1.3.4-1/jpeg/jdmarker.c **** 		 quant_ptr->quantval[i],   quant_ptr->quantval[i+1],
 603:fltk-1.3.4-1/jpeg/jdmarker.c **** 		 quant_ptr->quantval[i+2], quant_ptr->quantval[i+3],
 604:fltk-1.3.4-1/jpeg/jdmarker.c **** 		 quant_ptr->quantval[i+4], quant_ptr->quantval[i+5],
 605:fltk-1.3.4-1/jpeg/jdmarker.c **** 		 quant_ptr->quantval[i+6], quant_ptr->quantval[i+7]);
 606:fltk-1.3.4-1/jpeg/jdmarker.c ****       }
 607:fltk-1.3.4-1/jpeg/jdmarker.c ****     }
 608:fltk-1.3.4-1/jpeg/jdmarker.c **** 
 609:fltk-1.3.4-1/jpeg/jdmarker.c ****     length -= count;
 610:fltk-1.3.4-1/jpeg/jdmarker.c ****     if (prec) length -= count;
 611:fltk-1.3.4-1/jpeg/jdmarker.c ****   }
 612:fltk-1.3.4-1/jpeg/jdmarker.c **** 
 613:fltk-1.3.4-1/jpeg/jdmarker.c ****   if (length != 0)
 614:fltk-1.3.4-1/jpeg/jdmarker.c ****     ERREXIT(cinfo, JERR_BAD_LENGTH);
 615:fltk-1.3.4-1/jpeg/jdmarker.c **** 
 616:fltk-1.3.4-1/jpeg/jdmarker.c ****   INPUT_SYNC(cinfo);
 617:fltk-1.3.4-1/jpeg/jdmarker.c ****   return TRUE;
 618:fltk-1.3.4-1/jpeg/jdmarker.c **** }
 619:fltk-1.3.4-1/jpeg/jdmarker.c **** 
 620:fltk-1.3.4-1/jpeg/jdmarker.c **** 
 621:fltk-1.3.4-1/jpeg/jdmarker.c **** LOCAL(boolean)
 622:fltk-1.3.4-1/jpeg/jdmarker.c **** get_dri (j_decompress_ptr cinfo)
 623:fltk-1.3.4-1/jpeg/jdmarker.c **** /* Process a DRI marker */
 624:fltk-1.3.4-1/jpeg/jdmarker.c **** {
 625:fltk-1.3.4-1/jpeg/jdmarker.c ****   INT32 length;
 626:fltk-1.3.4-1/jpeg/jdmarker.c ****   unsigned int tmp;
 627:fltk-1.3.4-1/jpeg/jdmarker.c ****   INPUT_VARS(cinfo);
 628:fltk-1.3.4-1/jpeg/jdmarker.c **** 
 629:fltk-1.3.4-1/jpeg/jdmarker.c ****   INPUT_2BYTES(cinfo, length, return FALSE);
 630:fltk-1.3.4-1/jpeg/jdmarker.c ****   
 631:fltk-1.3.4-1/jpeg/jdmarker.c ****   if (length != 4)
 632:fltk-1.3.4-1/jpeg/jdmarker.c ****     ERREXIT(cinfo, JERR_BAD_LENGTH);
 633:fltk-1.3.4-1/jpeg/jdmarker.c **** 
 634:fltk-1.3.4-1/jpeg/jdmarker.c ****   INPUT_2BYTES(cinfo, tmp, return FALSE);
 635:fltk-1.3.4-1/jpeg/jdmarker.c **** 
 636:fltk-1.3.4-1/jpeg/jdmarker.c ****   TRACEMS1(cinfo, 1, JTRC_DRI, tmp);
 637:fltk-1.3.4-1/jpeg/jdmarker.c **** 
 638:fltk-1.3.4-1/jpeg/jdmarker.c ****   cinfo->restart_interval = tmp;
 639:fltk-1.3.4-1/jpeg/jdmarker.c **** 
 640:fltk-1.3.4-1/jpeg/jdmarker.c ****   INPUT_SYNC(cinfo);
 641:fltk-1.3.4-1/jpeg/jdmarker.c ****   return TRUE;
 642:fltk-1.3.4-1/jpeg/jdmarker.c **** }
 643:fltk-1.3.4-1/jpeg/jdmarker.c **** 
 644:fltk-1.3.4-1/jpeg/jdmarker.c **** 
 645:fltk-1.3.4-1/jpeg/jdmarker.c **** LOCAL(boolean)
 646:fltk-1.3.4-1/jpeg/jdmarker.c **** get_lse (j_decompress_ptr cinfo)
 647:fltk-1.3.4-1/jpeg/jdmarker.c **** /* Process an LSE marker */
 648:fltk-1.3.4-1/jpeg/jdmarker.c **** {
 649:fltk-1.3.4-1/jpeg/jdmarker.c ****   INT32 length;
 650:fltk-1.3.4-1/jpeg/jdmarker.c ****   unsigned int tmp;
 651:fltk-1.3.4-1/jpeg/jdmarker.c ****   int cid;
 652:fltk-1.3.4-1/jpeg/jdmarker.c ****   INPUT_VARS(cinfo);
 653:fltk-1.3.4-1/jpeg/jdmarker.c **** 
 654:fltk-1.3.4-1/jpeg/jdmarker.c ****   if (! cinfo->marker->saw_SOF)
 655:fltk-1.3.4-1/jpeg/jdmarker.c ****     ERREXITS(cinfo, JERR_SOF_BEFORE, "LSE");
 656:fltk-1.3.4-1/jpeg/jdmarker.c **** 
 657:fltk-1.3.4-1/jpeg/jdmarker.c ****   if (cinfo->num_components < 3) goto bad;
 658:fltk-1.3.4-1/jpeg/jdmarker.c **** 
 659:fltk-1.3.4-1/jpeg/jdmarker.c ****   INPUT_2BYTES(cinfo, length, return FALSE);
 660:fltk-1.3.4-1/jpeg/jdmarker.c **** 
 661:fltk-1.3.4-1/jpeg/jdmarker.c ****   if (length != 24)
 662:fltk-1.3.4-1/jpeg/jdmarker.c ****     ERREXIT(cinfo, JERR_BAD_LENGTH);
 663:fltk-1.3.4-1/jpeg/jdmarker.c **** 
 664:fltk-1.3.4-1/jpeg/jdmarker.c ****   INPUT_BYTE(cinfo, tmp, return FALSE);
 665:fltk-1.3.4-1/jpeg/jdmarker.c ****   if (tmp != 0x0D)	/* ID inverse transform specification */
 666:fltk-1.3.4-1/jpeg/jdmarker.c ****     ERREXIT1(cinfo, JERR_UNKNOWN_MARKER, cinfo->unread_marker);
 667:fltk-1.3.4-1/jpeg/jdmarker.c ****   INPUT_2BYTES(cinfo, tmp, return FALSE);
 668:fltk-1.3.4-1/jpeg/jdmarker.c ****   if (tmp != MAXJSAMPLE) goto bad;		/* MAXTRANS */
 669:fltk-1.3.4-1/jpeg/jdmarker.c ****   INPUT_BYTE(cinfo, tmp, return FALSE);
 670:fltk-1.3.4-1/jpeg/jdmarker.c ****   if (tmp != 3) goto bad;			/* Nt=3 */
 671:fltk-1.3.4-1/jpeg/jdmarker.c ****   INPUT_BYTE(cinfo, cid, return FALSE);
 672:fltk-1.3.4-1/jpeg/jdmarker.c ****   if (cid != cinfo->comp_info[1].component_id) goto bad;
 673:fltk-1.3.4-1/jpeg/jdmarker.c ****   INPUT_BYTE(cinfo, cid, return FALSE);
 674:fltk-1.3.4-1/jpeg/jdmarker.c ****   if (cid != cinfo->comp_info[0].component_id) goto bad;
 675:fltk-1.3.4-1/jpeg/jdmarker.c ****   INPUT_BYTE(cinfo, cid, return FALSE);
 676:fltk-1.3.4-1/jpeg/jdmarker.c ****   if (cid != cinfo->comp_info[2].component_id) goto bad;
 677:fltk-1.3.4-1/jpeg/jdmarker.c ****   INPUT_BYTE(cinfo, tmp, return FALSE);
 678:fltk-1.3.4-1/jpeg/jdmarker.c ****   if (tmp != 0x80) goto bad;		/* F1: CENTER1=1, NORM1=0 */
 679:fltk-1.3.4-1/jpeg/jdmarker.c ****   INPUT_2BYTES(cinfo, tmp, return FALSE);
 680:fltk-1.3.4-1/jpeg/jdmarker.c ****   if (tmp != 0) goto bad;			/* A(1,1)=0 */
 681:fltk-1.3.4-1/jpeg/jdmarker.c ****   INPUT_2BYTES(cinfo, tmp, return FALSE);
 682:fltk-1.3.4-1/jpeg/jdmarker.c ****   if (tmp != 0) goto bad;			/* A(1,2)=0 */
 683:fltk-1.3.4-1/jpeg/jdmarker.c ****   INPUT_BYTE(cinfo, tmp, return FALSE);
 684:fltk-1.3.4-1/jpeg/jdmarker.c ****   if (tmp != 0) goto bad;		/* F2: CENTER2=0, NORM2=0 */
 685:fltk-1.3.4-1/jpeg/jdmarker.c ****   INPUT_2BYTES(cinfo, tmp, return FALSE);
 686:fltk-1.3.4-1/jpeg/jdmarker.c ****   if (tmp != 1) goto bad;			/* A(2,1)=1 */
 687:fltk-1.3.4-1/jpeg/jdmarker.c ****   INPUT_2BYTES(cinfo, tmp, return FALSE);
 688:fltk-1.3.4-1/jpeg/jdmarker.c ****   if (tmp != 0) goto bad;			/* A(2,2)=0 */
 689:fltk-1.3.4-1/jpeg/jdmarker.c ****   INPUT_BYTE(cinfo, tmp, return FALSE);
 690:fltk-1.3.4-1/jpeg/jdmarker.c ****   if (tmp != 0) goto bad;		/* F3: CENTER3=0, NORM3=0 */
 691:fltk-1.3.4-1/jpeg/jdmarker.c ****   INPUT_2BYTES(cinfo, tmp, return FALSE);
 692:fltk-1.3.4-1/jpeg/jdmarker.c ****   if (tmp != 1) goto bad;			/* A(3,1)=1 */
 693:fltk-1.3.4-1/jpeg/jdmarker.c ****   INPUT_2BYTES(cinfo, tmp, return FALSE);
 694:fltk-1.3.4-1/jpeg/jdmarker.c ****   if (tmp != 0) {				/* A(3,2)=0 */
 695:fltk-1.3.4-1/jpeg/jdmarker.c ****     bad:
 696:fltk-1.3.4-1/jpeg/jdmarker.c ****     ERREXIT(cinfo, JERR_CONVERSION_NOTIMPL);
 697:fltk-1.3.4-1/jpeg/jdmarker.c ****   }
 698:fltk-1.3.4-1/jpeg/jdmarker.c **** 
 699:fltk-1.3.4-1/jpeg/jdmarker.c ****   /* OK, valid transform that we can handle. */
 700:fltk-1.3.4-1/jpeg/jdmarker.c ****   cinfo->color_transform = JCT_SUBTRACT_GREEN;
 701:fltk-1.3.4-1/jpeg/jdmarker.c **** 
 702:fltk-1.3.4-1/jpeg/jdmarker.c ****   INPUT_SYNC(cinfo);
 703:fltk-1.3.4-1/jpeg/jdmarker.c ****   return TRUE;
 704:fltk-1.3.4-1/jpeg/jdmarker.c **** }
 705:fltk-1.3.4-1/jpeg/jdmarker.c **** 
 706:fltk-1.3.4-1/jpeg/jdmarker.c **** 
 707:fltk-1.3.4-1/jpeg/jdmarker.c **** /*
 708:fltk-1.3.4-1/jpeg/jdmarker.c ****  * Routines for processing APPn and COM markers.
 709:fltk-1.3.4-1/jpeg/jdmarker.c ****  * These are either saved in memory or discarded, per application request.
 710:fltk-1.3.4-1/jpeg/jdmarker.c ****  * APP0 and APP14 are specially checked to see if they are
 711:fltk-1.3.4-1/jpeg/jdmarker.c ****  * JFIF and Adobe markers, respectively.
 712:fltk-1.3.4-1/jpeg/jdmarker.c ****  */
 713:fltk-1.3.4-1/jpeg/jdmarker.c **** 
 714:fltk-1.3.4-1/jpeg/jdmarker.c **** #define APP0_DATA_LEN	14	/* Length of interesting data in APP0 */
 715:fltk-1.3.4-1/jpeg/jdmarker.c **** #define APP14_DATA_LEN	12	/* Length of interesting data in APP14 */
 716:fltk-1.3.4-1/jpeg/jdmarker.c **** #define APPN_DATA_LEN	14	/* Must be the largest of the above!! */
 717:fltk-1.3.4-1/jpeg/jdmarker.c **** 
 718:fltk-1.3.4-1/jpeg/jdmarker.c **** 
 719:fltk-1.3.4-1/jpeg/jdmarker.c **** LOCAL(void)
 720:fltk-1.3.4-1/jpeg/jdmarker.c **** examine_app0 (j_decompress_ptr cinfo, JOCTET FAR * data,
 721:fltk-1.3.4-1/jpeg/jdmarker.c **** 	      unsigned int datalen, INT32 remaining)
 722:fltk-1.3.4-1/jpeg/jdmarker.c **** /* Examine first few bytes from an APP0.
 723:fltk-1.3.4-1/jpeg/jdmarker.c ****  * Take appropriate action if it is a JFIF marker.
 724:fltk-1.3.4-1/jpeg/jdmarker.c ****  * datalen is # of bytes at data[], remaining is length of rest of marker data.
 725:fltk-1.3.4-1/jpeg/jdmarker.c ****  */
 726:fltk-1.3.4-1/jpeg/jdmarker.c **** {
 789              		.loc 1 726 1 is_stmt 1 view -0
 790              		.cfi_startproc
 727:fltk-1.3.4-1/jpeg/jdmarker.c ****   INT32 totallen = (INT32) datalen + remaining;
 791              		.loc 1 727 3 view .LVU284
 726:fltk-1.3.4-1/jpeg/jdmarker.c ****   INT32 totallen = (INT32) datalen + remaining;
 792              		.loc 1 726 1 is_stmt 0 view .LVU285
 793 0000 53       		pushq	%rbx
 794              		.cfi_def_cfa_offset 16
 795              		.cfi_offset 3, -16
 796              		.loc 1 727 20 view .LVU286
 797 0001 89D0     		movl	%edx, %eax
 726:fltk-1.3.4-1/jpeg/jdmarker.c ****   INT32 totallen = (INT32) datalen + remaining;
 798              		.loc 1 726 1 view .LVU287
 799 0003 4889F3   		movq	%rsi, %rbx
 800              		.loc 1 727 9 view .LVU288
 801 0006 4801C1   		addq	%rax, %rcx
 802              	.LVL109:
 728:fltk-1.3.4-1/jpeg/jdmarker.c **** 
 729:fltk-1.3.4-1/jpeg/jdmarker.c ****   if (datalen >= APP0_DATA_LEN &&
 803              		.loc 1 729 3 is_stmt 1 view .LVU289
 804 0009 89CE     		movl	%ecx, %esi
 805              	.LVL110:
 726:fltk-1.3.4-1/jpeg/jdmarker.c ****   INT32 totallen = (INT32) datalen + remaining;
 806              		.loc 1 726 1 is_stmt 0 view .LVU290
 807 000b 4883EC10 		subq	$16, %rsp
 808              		.cfi_def_cfa_offset 32
 809 000f 488B07   		movq	(%rdi), %rax
 810              		.loc 1 729 6 view .LVU291
 811 0012 83FA0D   		cmpl	$13, %edx
 812 0015 7629     		jbe	.L82
 813              		.loc 1 729 32 discriminator 1 view .LVU292
 814 0017 803B4A   		cmpb	$74, (%rbx)
 815 001a 0F848000 		je	.L102
 815      0000
 816              	.L85:
 730:fltk-1.3.4-1/jpeg/jdmarker.c ****       GETJOCTET(data[0]) == 0x4A &&
 731:fltk-1.3.4-1/jpeg/jdmarker.c ****       GETJOCTET(data[1]) == 0x46 &&
 732:fltk-1.3.4-1/jpeg/jdmarker.c ****       GETJOCTET(data[2]) == 0x49 &&
 733:fltk-1.3.4-1/jpeg/jdmarker.c ****       GETJOCTET(data[3]) == 0x46 &&
 734:fltk-1.3.4-1/jpeg/jdmarker.c ****       GETJOCTET(data[4]) == 0) {
 735:fltk-1.3.4-1/jpeg/jdmarker.c ****     /* Found JFIF APP0 marker: save info */
 736:fltk-1.3.4-1/jpeg/jdmarker.c ****     cinfo->saw_JFIF_marker = TRUE;
 737:fltk-1.3.4-1/jpeg/jdmarker.c ****     cinfo->JFIF_major_version = GETJOCTET(data[5]);
 738:fltk-1.3.4-1/jpeg/jdmarker.c ****     cinfo->JFIF_minor_version = GETJOCTET(data[6]);
 739:fltk-1.3.4-1/jpeg/jdmarker.c ****     cinfo->density_unit = GETJOCTET(data[7]);
 740:fltk-1.3.4-1/jpeg/jdmarker.c ****     cinfo->X_density = (GETJOCTET(data[8]) << 8) + GETJOCTET(data[9]);
 741:fltk-1.3.4-1/jpeg/jdmarker.c ****     cinfo->Y_density = (GETJOCTET(data[10]) << 8) + GETJOCTET(data[11]);
 742:fltk-1.3.4-1/jpeg/jdmarker.c ****     /* Check version.
 743:fltk-1.3.4-1/jpeg/jdmarker.c ****      * Major version must be 1 or 2, anything else signals an incompatible
 744:fltk-1.3.4-1/jpeg/jdmarker.c ****      * change.
 745:fltk-1.3.4-1/jpeg/jdmarker.c ****      * (We used to treat this as an error, but now it's a nonfatal warning,
 746:fltk-1.3.4-1/jpeg/jdmarker.c ****      * because some bozo at Hijaak couldn't read the spec.)
 747:fltk-1.3.4-1/jpeg/jdmarker.c ****      * Minor version should be 0..2, but process anyway if newer.
 748:fltk-1.3.4-1/jpeg/jdmarker.c ****      */
 749:fltk-1.3.4-1/jpeg/jdmarker.c ****     if (cinfo->JFIF_major_version != 1 && cinfo->JFIF_major_version != 2)
 750:fltk-1.3.4-1/jpeg/jdmarker.c ****       WARNMS2(cinfo, JWRN_JFIF_MAJOR,
 751:fltk-1.3.4-1/jpeg/jdmarker.c **** 	      cinfo->JFIF_major_version, cinfo->JFIF_minor_version);
 752:fltk-1.3.4-1/jpeg/jdmarker.c ****     /* Generate trace messages */
 753:fltk-1.3.4-1/jpeg/jdmarker.c ****     TRACEMS5(cinfo, 1, JTRC_JFIF,
 754:fltk-1.3.4-1/jpeg/jdmarker.c **** 	     cinfo->JFIF_major_version, cinfo->JFIF_minor_version,
 755:fltk-1.3.4-1/jpeg/jdmarker.c **** 	     cinfo->X_density, cinfo->Y_density, cinfo->density_unit);
 756:fltk-1.3.4-1/jpeg/jdmarker.c ****     /* Validate thumbnail dimensions and issue appropriate messages */
 757:fltk-1.3.4-1/jpeg/jdmarker.c ****     if (GETJOCTET(data[12]) | GETJOCTET(data[13]))
 758:fltk-1.3.4-1/jpeg/jdmarker.c ****       TRACEMS2(cinfo, 1, JTRC_JFIF_THUMBNAIL,
 759:fltk-1.3.4-1/jpeg/jdmarker.c **** 	       GETJOCTET(data[12]), GETJOCTET(data[13]));
 760:fltk-1.3.4-1/jpeg/jdmarker.c ****     totallen -= APP0_DATA_LEN;
 761:fltk-1.3.4-1/jpeg/jdmarker.c ****     if (totallen !=
 762:fltk-1.3.4-1/jpeg/jdmarker.c **** 	((INT32)GETJOCTET(data[12]) * (INT32)GETJOCTET(data[13]) * (INT32) 3))
 763:fltk-1.3.4-1/jpeg/jdmarker.c ****       TRACEMS1(cinfo, 1, JTRC_JFIF_BADTHUMBNAILSIZE, (int) totallen);
 764:fltk-1.3.4-1/jpeg/jdmarker.c ****   } else if (datalen >= 6 &&
 765:fltk-1.3.4-1/jpeg/jdmarker.c ****       GETJOCTET(data[0]) == 0x4A &&
 766:fltk-1.3.4-1/jpeg/jdmarker.c ****       GETJOCTET(data[1]) == 0x46 &&
 767:fltk-1.3.4-1/jpeg/jdmarker.c ****       GETJOCTET(data[2]) == 0x58 &&
 768:fltk-1.3.4-1/jpeg/jdmarker.c ****       GETJOCTET(data[3]) == 0x58 &&
 769:fltk-1.3.4-1/jpeg/jdmarker.c ****       GETJOCTET(data[4]) == 0) {
 770:fltk-1.3.4-1/jpeg/jdmarker.c ****     /* Found JFIF "JFXX" extension APP0 marker */
 771:fltk-1.3.4-1/jpeg/jdmarker.c ****     /* The library doesn't actually do anything with these,
 772:fltk-1.3.4-1/jpeg/jdmarker.c ****      * but we try to produce a helpful trace message.
 773:fltk-1.3.4-1/jpeg/jdmarker.c ****      */
 774:fltk-1.3.4-1/jpeg/jdmarker.c ****     switch (GETJOCTET(data[5])) {
 775:fltk-1.3.4-1/jpeg/jdmarker.c ****     case 0x10:
 776:fltk-1.3.4-1/jpeg/jdmarker.c ****       TRACEMS1(cinfo, 1, JTRC_THUMB_JPEG, (int) totallen);
 777:fltk-1.3.4-1/jpeg/jdmarker.c ****       break;
 778:fltk-1.3.4-1/jpeg/jdmarker.c ****     case 0x11:
 779:fltk-1.3.4-1/jpeg/jdmarker.c ****       TRACEMS1(cinfo, 1, JTRC_THUMB_PALETTE, (int) totallen);
 780:fltk-1.3.4-1/jpeg/jdmarker.c ****       break;
 781:fltk-1.3.4-1/jpeg/jdmarker.c ****     case 0x13:
 782:fltk-1.3.4-1/jpeg/jdmarker.c ****       TRACEMS1(cinfo, 1, JTRC_THUMB_RGB, (int) totallen);
 783:fltk-1.3.4-1/jpeg/jdmarker.c ****       break;
 784:fltk-1.3.4-1/jpeg/jdmarker.c ****     default:
 785:fltk-1.3.4-1/jpeg/jdmarker.c ****       TRACEMS2(cinfo, 1, JTRC_JFIF_EXTENSION,
 786:fltk-1.3.4-1/jpeg/jdmarker.c **** 	       GETJOCTET(data[5]), (int) totallen);
 787:fltk-1.3.4-1/jpeg/jdmarker.c ****       break;
 788:fltk-1.3.4-1/jpeg/jdmarker.c ****     }
 789:fltk-1.3.4-1/jpeg/jdmarker.c ****   } else {
 790:fltk-1.3.4-1/jpeg/jdmarker.c ****     /* Start of APP0 does not match "JFIF" or "JFXX", or too short */
 791:fltk-1.3.4-1/jpeg/jdmarker.c ****     TRACEMS1(cinfo, 1, JTRC_APP0, (int) totallen);
 817              		.loc 1 791 5 is_stmt 1 view .LVU293
 818 0020 C740284F 		movl	$79, 40(%rax)
 818      000000
 819              	.LVL111:
 820              	.L101:
 821              		.loc 1 791 5 is_stmt 0 view .LVU294
 822 0027 488B07   		movq	(%rdi), %rax
 823 002a 89702C   		movl	%esi, 44(%rax)
 824              	.LVL112:
 825              	.L100:
 826              		.loc 1 791 5 view .LVU295
 827 002d 488B07   		movq	(%rdi), %rax
 828 0030 BE010000 		movl	$1, %esi
 828      00
 829 0035 488B4008 		movq	8(%rax), %rax
 792:fltk-1.3.4-1/jpeg/jdmarker.c ****   }
 793:fltk-1.3.4-1/jpeg/jdmarker.c **** }
 830              		.loc 1 793 1 view .LVU296
 831 0039 4883C410 		addq	$16, %rsp
 832              		.cfi_remember_state
 833              		.cfi_def_cfa_offset 16
 834 003d 5B       		popq	%rbx
 835              		.cfi_def_cfa_offset 8
 836              	.LVL113:
 791:fltk-1.3.4-1/jpeg/jdmarker.c ****   }
 837              		.loc 1 791 5 view .LVU297
 838 003e FFE0     		jmp	*%rax
 839              	.LVL114:
 840              		.p2align 4,,10
 841              		.p2align 3
 842              	.L82:
 843              		.cfi_restore_state
 764:fltk-1.3.4-1/jpeg/jdmarker.c ****       GETJOCTET(data[0]) == 0x4A &&
 844              		.loc 1 764 10 is_stmt 1 view .LVU298
 764:fltk-1.3.4-1/jpeg/jdmarker.c ****       GETJOCTET(data[0]) == 0x4A &&
 845              		.loc 1 764 13 is_stmt 0 view .LVU299
 846 0040 83FA05   		cmpl	$5, %edx
 847 0043 76DB     		jbe	.L85
 764:fltk-1.3.4-1/jpeg/jdmarker.c ****       GETJOCTET(data[0]) == 0x4A &&
 848              		.loc 1 764 27 discriminator 1 view .LVU300
 849 0045 803B4A   		cmpb	$74, (%rbx)
 850 0048 75D6     		jne	.L85
 765:fltk-1.3.4-1/jpeg/jdmarker.c ****       GETJOCTET(data[1]) == 0x46 &&
 851              		.loc 1 765 34 view .LVU301
 852 004a 807B0146 		cmpb	$70, 1(%rbx)
 853 004e 75D0     		jne	.L85
 854              		.p2align 4,,10
 855              		.p2align 3
 856              	.L96:
 766:fltk-1.3.4-1/jpeg/jdmarker.c ****       GETJOCTET(data[2]) == 0x58 &&
 857              		.loc 1 766 34 view .LVU302
 858 0050 807B0258 		cmpb	$88, 2(%rbx)
 859 0054 75CA     		jne	.L85
 767:fltk-1.3.4-1/jpeg/jdmarker.c ****       GETJOCTET(data[3]) == 0x58 &&
 860              		.loc 1 767 34 view .LVU303
 861 0056 807B0358 		cmpb	$88, 3(%rbx)
 862 005a 75C4     		jne	.L85
 768:fltk-1.3.4-1/jpeg/jdmarker.c ****       GETJOCTET(data[4]) == 0) {
 863              		.loc 1 768 34 view .LVU304
 864 005c 807B0400 		cmpb	$0, 4(%rbx)
 865 0060 75BE     		jne	.L85
 774:fltk-1.3.4-1/jpeg/jdmarker.c ****     case 0x10:
 866              		.loc 1 774 5 is_stmt 1 view .LVU305
 774:fltk-1.3.4-1/jpeg/jdmarker.c ****     case 0x10:
 867              		.loc 1 774 13 is_stmt 0 view .LVU306
 868 0062 0FB65305 		movzbl	5(%rbx), %edx
 869              	.LVL115:
 774:fltk-1.3.4-1/jpeg/jdmarker.c ****     case 0x10:
 870              		.loc 1 774 5 view .LVU307
 871 0066 80FA11   		cmpb	$17, %dl
 872 0069 0F84D201 		je	.L93
 872      0000
 873 006f 80FA13   		cmpb	$19, %dl
 874 0072 0F84BD01 		je	.L94
 874      0000
 875 0078 80FA10   		cmpb	$16, %dl
 876 007b 0F84A801 		je	.L103
 876      0000
 785:fltk-1.3.4-1/jpeg/jdmarker.c **** 	       GETJOCTET(data[5]), (int) totallen);
 877              		.loc 1 785 7 is_stmt 1 view .LVU308
 878 0081 C740285B 		movl	$91, 40(%rax)
 878      000000
 879 0088 488B07   		movq	(%rdi), %rax
 880 008b 0FB65305 		movzbl	5(%rbx), %edx
 881 008f 89502C   		movl	%edx, 44(%rax)
 882 0092 488B07   		movq	(%rdi), %rax
 883 0095 897030   		movl	%esi, 48(%rax)
 884 0098 EB93     		jmp	.L100
 885              	.LVL116:
 886 009a 660F1F44 		.p2align 4,,10
 886      0000
 887              		.p2align 3
 888              	.L102:
 730:fltk-1.3.4-1/jpeg/jdmarker.c ****       GETJOCTET(data[1]) == 0x46 &&
 889              		.loc 1 730 34 is_stmt 0 view .LVU309
 890 00a0 807B0146 		cmpb	$70, 1(%rbx)
 891 00a4 0F8576FF 		jne	.L85
 891      FFFF
 731:fltk-1.3.4-1/jpeg/jdmarker.c ****       GETJOCTET(data[2]) == 0x49 &&
 892              		.loc 1 731 34 view .LVU310
 893 00aa 807B0249 		cmpb	$73, 2(%rbx)
 894 00ae 75A0     		jne	.L96
 732:fltk-1.3.4-1/jpeg/jdmarker.c ****       GETJOCTET(data[3]) == 0x46 &&
 895              		.loc 1 732 34 view .LVU311
 896 00b0 807B0346 		cmpb	$70, 3(%rbx)
 897 00b4 759A     		jne	.L96
 733:fltk-1.3.4-1/jpeg/jdmarker.c ****       GETJOCTET(data[4]) == 0) {
 898              		.loc 1 733 34 view .LVU312
 899 00b6 807B0400 		cmpb	$0, 4(%rbx)
 900 00ba 7594     		jne	.L96
 736:fltk-1.3.4-1/jpeg/jdmarker.c ****     cinfo->JFIF_major_version = GETJOCTET(data[5]);
 901              		.loc 1 736 5 is_stmt 1 view .LVU313
 736:fltk-1.3.4-1/jpeg/jdmarker.c ****     cinfo->JFIF_major_version = GETJOCTET(data[5]);
 902              		.loc 1 736 28 is_stmt 0 view .LVU314
 903 00bc C7877801 		movl	$1, 376(%rdi)
 903      00000100 
 903      0000
 737:fltk-1.3.4-1/jpeg/jdmarker.c ****     cinfo->JFIF_minor_version = GETJOCTET(data[6]);
 904              		.loc 1 737 5 is_stmt 1 view .LVU315
 737:fltk-1.3.4-1/jpeg/jdmarker.c ****     cinfo->JFIF_minor_version = GETJOCTET(data[6]);
 905              		.loc 1 737 31 is_stmt 0 view .LVU316
 906 00c6 0FB65305 		movzbl	5(%rbx), %edx
 907              	.LVL117:
 737:fltk-1.3.4-1/jpeg/jdmarker.c ****     cinfo->JFIF_minor_version = GETJOCTET(data[6]);
 908              		.loc 1 737 31 view .LVU317
 909 00ca 88977C01 		movb	%dl, 380(%rdi)
 909      0000
 738:fltk-1.3.4-1/jpeg/jdmarker.c ****     cinfo->density_unit = GETJOCTET(data[7]);
 910              		.loc 1 738 5 is_stmt 1 view .LVU318
 738:fltk-1.3.4-1/jpeg/jdmarker.c ****     cinfo->density_unit = GETJOCTET(data[7]);
 911              		.loc 1 738 31 is_stmt 0 view .LVU319
 912 00d0 0FB67306 		movzbl	6(%rbx), %esi
 913 00d4 4088B77D 		movb	%sil, 381(%rdi)
 913      010000
 739:fltk-1.3.4-1/jpeg/jdmarker.c ****     cinfo->X_density = (GETJOCTET(data[8]) << 8) + GETJOCTET(data[9]);
 914              		.loc 1 739 5 is_stmt 1 view .LVU320
 739:fltk-1.3.4-1/jpeg/jdmarker.c ****     cinfo->X_density = (GETJOCTET(data[8]) << 8) + GETJOCTET(data[9]);
 915              		.loc 1 739 25 is_stmt 0 view .LVU321
 916 00db 0FB67307 		movzbl	7(%rbx), %esi
 917 00df 4088B77E 		movb	%sil, 382(%rdi)
 917      010000
 740:fltk-1.3.4-1/jpeg/jdmarker.c ****     cinfo->Y_density = (GETJOCTET(data[10]) << 8) + GETJOCTET(data[11]);
 918              		.loc 1 740 5 is_stmt 1 view .LVU322
 740:fltk-1.3.4-1/jpeg/jdmarker.c ****     cinfo->Y_density = (GETJOCTET(data[10]) << 8) + GETJOCTET(data[11]);
 919              		.loc 1 740 25 is_stmt 0 view .LVU323
 920 00e6 0FB67308 		movzbl	8(%rbx), %esi
 740:fltk-1.3.4-1/jpeg/jdmarker.c ****     cinfo->Y_density = (GETJOCTET(data[10]) << 8) + GETJOCTET(data[11]);
 921              		.loc 1 740 52 view .LVU324
 922 00ea 440FB643 		movzbl	9(%rbx), %r8d
 922      09
 740:fltk-1.3.4-1/jpeg/jdmarker.c ****     cinfo->Y_density = (GETJOCTET(data[10]) << 8) + GETJOCTET(data[11]);
 923              		.loc 1 740 44 view .LVU325
 924 00ef C1E608   		sall	$8, %esi
 740:fltk-1.3.4-1/jpeg/jdmarker.c ****     cinfo->Y_density = (GETJOCTET(data[10]) << 8) + GETJOCTET(data[11]);
 925              		.loc 1 740 50 view .LVU326
 926 00f2 4401C6   		addl	%r8d, %esi
 927 00f5 6689B780 		movw	%si, 384(%rdi)
 927      010000
 741:fltk-1.3.4-1/jpeg/jdmarker.c ****     /* Check version.
 928              		.loc 1 741 5 is_stmt 1 view .LVU327
 741:fltk-1.3.4-1/jpeg/jdmarker.c ****     /* Check version.
 929              		.loc 1 741 25 is_stmt 0 view .LVU328
 930 00fc 0FB6730A 		movzbl	10(%rbx), %esi
 741:fltk-1.3.4-1/jpeg/jdmarker.c ****     /* Check version.
 931              		.loc 1 741 53 view .LVU329
 932 0100 440FB643 		movzbl	11(%rbx), %r8d
 932      0B
 741:fltk-1.3.4-1/jpeg/jdmarker.c ****     /* Check version.
 933              		.loc 1 741 45 view .LVU330
 934 0105 C1E608   		sall	$8, %esi
 741:fltk-1.3.4-1/jpeg/jdmarker.c ****     /* Check version.
 935              		.loc 1 741 51 view .LVU331
 936 0108 4401C6   		addl	%r8d, %esi
 937 010b 6689B782 		movw	%si, 386(%rdi)
 937      010000
 749:fltk-1.3.4-1/jpeg/jdmarker.c ****       WARNMS2(cinfo, JWRN_JFIF_MAJOR,
 938              		.loc 1 749 5 is_stmt 1 view .LVU332
 749:fltk-1.3.4-1/jpeg/jdmarker.c ****       WARNMS2(cinfo, JWRN_JFIF_MAJOR,
 939              		.loc 1 749 40 is_stmt 0 view .LVU333
 940 0112 8D72FF   		leal	-1(%rdx), %esi
 749:fltk-1.3.4-1/jpeg/jdmarker.c ****       WARNMS2(cinfo, JWRN_JFIF_MAJOR,
 941              		.loc 1 749 8 view .LVU334
 942 0115 4080FE01 		cmpb	$1, %sil
 943 0119 7648     		jbe	.L90
 750:fltk-1.3.4-1/jpeg/jdmarker.c **** 	      cinfo->JFIF_major_version, cinfo->JFIF_minor_version);
 944              		.loc 1 750 7 view .LVU335
 945 011b C740287A 		movl	$122, 40(%rax)
 945      000000
 946 0122 488B07   		movq	(%rdi), %rax
 947 0125 BEFFFFFF 		movl	$-1, %esi
 947      FF
 948 012a 0FB6977C 		movzbl	380(%rdi), %edx
 948      010000
 949 0131 48894C24 		movq	%rcx, 8(%rsp)
 949      08
 750:fltk-1.3.4-1/jpeg/jdmarker.c **** 	      cinfo->JFIF_major_version, cinfo->JFIF_minor_version);
 950              		.loc 1 750 7 is_stmt 1 view .LVU336
 951 0136 48893C24 		movq	%rdi, (%rsp)
 952 013a 89502C   		movl	%edx, 44(%rax)
 953 013d 488B07   		movq	(%rdi), %rax
 954 0140 0FB6977D 		movzbl	381(%rdi), %edx
 954      010000
 955 0147 895030   		movl	%edx, 48(%rax)
 956 014a 488B07   		movq	(%rdi), %rax
 957 014d FF5008   		call	*8(%rax)
 958              	.LVL118:
 750:fltk-1.3.4-1/jpeg/jdmarker.c **** 	      cinfo->JFIF_major_version, cinfo->JFIF_minor_version);
 959              		.loc 1 750 7 is_stmt 0 view .LVU337
 960 0150 488B3C24 		movq	(%rsp), %rdi
 961 0154 488B4C24 		movq	8(%rsp), %rcx
 961      08
 962 0159 488B07   		movq	(%rdi), %rax
 963 015c 0FB6977C 		movzbl	380(%rdi), %edx
 963      010000
 964              	.LVL119:
 965              	.L90:
 966              	.LBB25:
 753:fltk-1.3.4-1/jpeg/jdmarker.c **** 	     cinfo->JFIF_major_version, cinfo->JFIF_minor_version,
 967              		.loc 1 753 5 view .LVU338
 968 0163 89502C   		movl	%edx, 44(%rax)
 969 0166 0FB6977D 		movzbl	381(%rdi), %edx
 969      010000
 970 016d BE010000 		movl	$1, %esi
 970      00
 971 0172 48894C24 		movq	%rcx, 8(%rsp)
 971      08
 972              	.LBE25:
 753:fltk-1.3.4-1/jpeg/jdmarker.c **** 	     cinfo->JFIF_major_version, cinfo->JFIF_minor_version,
 973              		.loc 1 753 5 is_stmt 1 view .LVU339
 974              	.LBB26:
 753:fltk-1.3.4-1/jpeg/jdmarker.c **** 	     cinfo->JFIF_major_version, cinfo->JFIF_minor_version,
 975              		.loc 1 753 5 view .LVU340
 976              	.LVL120:
 753:fltk-1.3.4-1/jpeg/jdmarker.c **** 	     cinfo->JFIF_major_version, cinfo->JFIF_minor_version,
 977              		.loc 1 753 5 view .LVU341
 753:fltk-1.3.4-1/jpeg/jdmarker.c **** 	     cinfo->JFIF_major_version, cinfo->JFIF_minor_version,
 978              		.loc 1 753 5 view .LVU342
 979 0177 895030   		movl	%edx, 48(%rax)
 753:fltk-1.3.4-1/jpeg/jdmarker.c **** 	     cinfo->JFIF_major_version, cinfo->JFIF_minor_version,
 980              		.loc 1 753 5 view .LVU343
 981 017a 0FB79780 		movzwl	384(%rdi), %edx
 981      010000
 982 0181 48893C24 		movq	%rdi, (%rsp)
 983 0185 895034   		movl	%edx, 52(%rax)
 753:fltk-1.3.4-1/jpeg/jdmarker.c **** 	     cinfo->JFIF_major_version, cinfo->JFIF_minor_version,
 984              		.loc 1 753 5 view .LVU344
 985 0188 0FB79782 		movzwl	386(%rdi), %edx
 985      010000
 986 018f 895038   		movl	%edx, 56(%rax)
 753:fltk-1.3.4-1/jpeg/jdmarker.c **** 	     cinfo->JFIF_major_version, cinfo->JFIF_minor_version,
 987              		.loc 1 753 5 view .LVU345
 988 0192 0FB6977E 		movzbl	382(%rdi), %edx
 988      010000
 989 0199 89503C   		movl	%edx, 60(%rax)
 753:fltk-1.3.4-1/jpeg/jdmarker.c **** 	     cinfo->JFIF_major_version, cinfo->JFIF_minor_version,
 990              		.loc 1 753 5 view .LVU346
 991 019c 488B07   		movq	(%rdi), %rax
 992 019f C7402859 		movl	$89, 40(%rax)
 992      000000
 753:fltk-1.3.4-1/jpeg/jdmarker.c **** 	     cinfo->JFIF_major_version, cinfo->JFIF_minor_version,
 993              		.loc 1 753 5 view .LVU347
 994 01a6 488B07   		movq	(%rdi), %rax
 995 01a9 FF5008   		call	*8(%rax)
 996              	.LVL121:
 997              	.LBE26:
 753:fltk-1.3.4-1/jpeg/jdmarker.c **** 	     cinfo->JFIF_major_version, cinfo->JFIF_minor_version,
 998              		.loc 1 753 5 view .LVU348
 757:fltk-1.3.4-1/jpeg/jdmarker.c ****       TRACEMS2(cinfo, 1, JTRC_JFIF_THUMBNAIL,
 999              		.loc 1 757 5 view .LVU349
 757:fltk-1.3.4-1/jpeg/jdmarker.c ****       TRACEMS2(cinfo, 1, JTRC_JFIF_THUMBNAIL,
 1000              		.loc 1 757 9 is_stmt 0 view .LVU350
 1001 01ac 0FB6430C 		movzbl	12(%rbx), %eax
 1002 01b0 31D2     		xorl	%edx, %edx
 757:fltk-1.3.4-1/jpeg/jdmarker.c ****       TRACEMS2(cinfo, 1, JTRC_JFIF_THUMBNAIL,
 1003              		.loc 1 757 8 view .LVU351
 1004 01b2 0A430D   		orb	13(%rbx), %al
 1005 01b5 488B3C24 		movq	(%rsp), %rdi
 1006 01b9 488B4C24 		movq	8(%rsp), %rcx
 1006      08
 1007 01be 743A     		je	.L91
 758:fltk-1.3.4-1/jpeg/jdmarker.c **** 	       GETJOCTET(data[12]), GETJOCTET(data[13]));
 1008              		.loc 1 758 7 is_stmt 1 view .LVU352
 1009 01c0 488B07   		movq	(%rdi), %rax
 1010 01c3 BE010000 		movl	$1, %esi
 1010      00
 1011 01c8 C740285C 		movl	$92, 40(%rax)
 1011      000000
 1012 01cf 488B07   		movq	(%rdi), %rax
 1013 01d2 0FB6530C 		movzbl	12(%rbx), %edx
 1014 01d6 89502C   		movl	%edx, 44(%rax)
 1015 01d9 488B07   		movq	(%rdi), %rax
 1016 01dc 0FB6530D 		movzbl	13(%rbx), %edx
 1017 01e0 895030   		movl	%edx, 48(%rax)
 1018 01e3 488B07   		movq	(%rdi), %rax
 1019 01e6 FF5008   		call	*8(%rax)
 1020              	.LVL122:
 1021 01e9 0FB6430C 		movzbl	12(%rbx), %eax
 1022 01ed 0FB6530D 		movzbl	13(%rbx), %edx
 1023 01f1 488B4C24 		movq	8(%rsp), %rcx
 1023      08
 1024 01f6 488B3C24 		movq	(%rsp), %rdi
 1025              	.L91:
 760:fltk-1.3.4-1/jpeg/jdmarker.c ****     if (totallen !=
 1026              		.loc 1 760 5 view .LVU353
 762:fltk-1.3.4-1/jpeg/jdmarker.c ****       TRACEMS1(cinfo, 1, JTRC_JFIF_BADTHUMBNAILSIZE, (int) totallen);
 1027              		.loc 1 762 3 is_stmt 0 view .LVU354
 1028 01fa 0FB6C0   		movzbl	%al, %eax
 760:fltk-1.3.4-1/jpeg/jdmarker.c ****     if (totallen !=
 1029              		.loc 1 760 14 view .LVU355
 1030 01fd 4883E90E 		subq	$14, %rcx
 1031              	.LVL123:
 761:fltk-1.3.4-1/jpeg/jdmarker.c **** 	((INT32)GETJOCTET(data[12]) * (INT32)GETJOCTET(data[13]) * (INT32) 3))
 1032              		.loc 1 761 5 is_stmt 1 view .LVU356
 762:fltk-1.3.4-1/jpeg/jdmarker.c ****       TRACEMS1(cinfo, 1, JTRC_JFIF_BADTHUMBNAILSIZE, (int) totallen);
 1033              		.loc 1 762 30 is_stmt 0 view .LVU357
 1034 0201 480FAFC2 		imulq	%rdx, %rax
 762:fltk-1.3.4-1/jpeg/jdmarker.c ****       TRACEMS1(cinfo, 1, JTRC_JFIF_BADTHUMBNAILSIZE, (int) totallen);
 1035              		.loc 1 762 59 view .LVU358
 1036 0205 488D0440 		leaq	(%rax,%rax,2), %rax
 761:fltk-1.3.4-1/jpeg/jdmarker.c **** 	((INT32)GETJOCTET(data[12]) * (INT32)GETJOCTET(data[13]) * (INT32) 3))
 1037              		.loc 1 761 8 view .LVU359
 1038 0209 4839C8   		cmpq	%rcx, %rax
 1039 020c 7415     		je	.L81
 763:fltk-1.3.4-1/jpeg/jdmarker.c ****   } else if (datalen >= 6 &&
 1040              		.loc 1 763 7 is_stmt 1 view .LVU360
 1041 020e 488B07   		movq	(%rdi), %rax
 1042 0211 C740285A 		movl	$90, 40(%rax)
 1042      000000
 1043 0218 488B07   		movq	(%rdi), %rax
 1044 021b 89482C   		movl	%ecx, 44(%rax)
 1045 021e E90AFEFF 		jmp	.L100
 1045      FF
 1046              	.L81:
 1047              		.loc 1 793 1 is_stmt 0 view .LVU361
 1048 0223 4883C410 		addq	$16, %rsp
 1049              		.cfi_remember_state
 1050              		.cfi_def_cfa_offset 16
 1051 0227 5B       		popq	%rbx
 1052              		.cfi_def_cfa_offset 8
 1053              	.LVL124:
 1054              		.loc 1 793 1 view .LVU362
 1055 0228 C3       		ret
 1056              	.LVL125:
 1057              	.L103:
 1058              		.cfi_restore_state
 776:fltk-1.3.4-1/jpeg/jdmarker.c ****       break;
 1059              		.loc 1 776 7 is_stmt 1 view .LVU363
 1060 0229 C740286E 		movl	$110, 40(%rax)
 1060      000000
 1061 0230 E9F2FDFF 		jmp	.L101
 1061      FF
 1062              	.L94:
 782:fltk-1.3.4-1/jpeg/jdmarker.c ****       break;
 1063              		.loc 1 782 7 view .LVU364
 1064 0235 C7402870 		movl	$112, 40(%rax)
 1064      000000
 1065 023c E9E6FDFF 		jmp	.L101
 1065      FF
 1066              	.L93:
 779:fltk-1.3.4-1/jpeg/jdmarker.c ****       break;
 1067              		.loc 1 779 7 view .LVU365
 1068 0241 C740286F 		movl	$111, 40(%rax)
 1068      000000
 1069 0248 E9DAFDFF 		jmp	.L101
 1069      FF
 1070              		.cfi_endproc
 1071              	.LFE59:
 1073              		.section	.text.skip_variable,"ax",@progbits
 1074              		.p2align 4
 1076              	skip_variable:
 1077              	.LVL126:
 1078              	.LFB63:
 794:fltk-1.3.4-1/jpeg/jdmarker.c **** 
 795:fltk-1.3.4-1/jpeg/jdmarker.c **** 
 796:fltk-1.3.4-1/jpeg/jdmarker.c **** LOCAL(void)
 797:fltk-1.3.4-1/jpeg/jdmarker.c **** examine_app14 (j_decompress_ptr cinfo, JOCTET FAR * data,
 798:fltk-1.3.4-1/jpeg/jdmarker.c **** 	       unsigned int datalen, INT32 remaining)
 799:fltk-1.3.4-1/jpeg/jdmarker.c **** /* Examine first few bytes from an APP14.
 800:fltk-1.3.4-1/jpeg/jdmarker.c ****  * Take appropriate action if it is an Adobe marker.
 801:fltk-1.3.4-1/jpeg/jdmarker.c ****  * datalen is # of bytes at data[], remaining is length of rest of marker data.
 802:fltk-1.3.4-1/jpeg/jdmarker.c ****  */
 803:fltk-1.3.4-1/jpeg/jdmarker.c **** {
 804:fltk-1.3.4-1/jpeg/jdmarker.c ****   unsigned int version, flags0, flags1, transform;
 805:fltk-1.3.4-1/jpeg/jdmarker.c **** 
 806:fltk-1.3.4-1/jpeg/jdmarker.c ****   if (datalen >= APP14_DATA_LEN &&
 807:fltk-1.3.4-1/jpeg/jdmarker.c ****       GETJOCTET(data[0]) == 0x41 &&
 808:fltk-1.3.4-1/jpeg/jdmarker.c ****       GETJOCTET(data[1]) == 0x64 &&
 809:fltk-1.3.4-1/jpeg/jdmarker.c ****       GETJOCTET(data[2]) == 0x6F &&
 810:fltk-1.3.4-1/jpeg/jdmarker.c ****       GETJOCTET(data[3]) == 0x62 &&
 811:fltk-1.3.4-1/jpeg/jdmarker.c ****       GETJOCTET(data[4]) == 0x65) {
 812:fltk-1.3.4-1/jpeg/jdmarker.c ****     /* Found Adobe APP14 marker */
 813:fltk-1.3.4-1/jpeg/jdmarker.c ****     version = (GETJOCTET(data[5]) << 8) + GETJOCTET(data[6]);
 814:fltk-1.3.4-1/jpeg/jdmarker.c ****     flags0 = (GETJOCTET(data[7]) << 8) + GETJOCTET(data[8]);
 815:fltk-1.3.4-1/jpeg/jdmarker.c ****     flags1 = (GETJOCTET(data[9]) << 8) + GETJOCTET(data[10]);
 816:fltk-1.3.4-1/jpeg/jdmarker.c ****     transform = GETJOCTET(data[11]);
 817:fltk-1.3.4-1/jpeg/jdmarker.c ****     TRACEMS4(cinfo, 1, JTRC_ADOBE, version, flags0, flags1, transform);
 818:fltk-1.3.4-1/jpeg/jdmarker.c ****     cinfo->saw_Adobe_marker = TRUE;
 819:fltk-1.3.4-1/jpeg/jdmarker.c ****     cinfo->Adobe_transform = (UINT8) transform;
 820:fltk-1.3.4-1/jpeg/jdmarker.c ****   } else {
 821:fltk-1.3.4-1/jpeg/jdmarker.c ****     /* Start of APP14 does not match "Adobe", or too short */
 822:fltk-1.3.4-1/jpeg/jdmarker.c ****     TRACEMS1(cinfo, 1, JTRC_APP14, (int) (datalen + remaining));
 823:fltk-1.3.4-1/jpeg/jdmarker.c ****   }
 824:fltk-1.3.4-1/jpeg/jdmarker.c **** }
 825:fltk-1.3.4-1/jpeg/jdmarker.c **** 
 826:fltk-1.3.4-1/jpeg/jdmarker.c **** 
 827:fltk-1.3.4-1/jpeg/jdmarker.c **** METHODDEF(boolean)
 828:fltk-1.3.4-1/jpeg/jdmarker.c **** get_interesting_appn (j_decompress_ptr cinfo)
 829:fltk-1.3.4-1/jpeg/jdmarker.c **** /* Process an APP0 or APP14 marker without saving it */
 830:fltk-1.3.4-1/jpeg/jdmarker.c **** {
 831:fltk-1.3.4-1/jpeg/jdmarker.c ****   INT32 length;
 832:fltk-1.3.4-1/jpeg/jdmarker.c ****   JOCTET b[APPN_DATA_LEN];
 833:fltk-1.3.4-1/jpeg/jdmarker.c ****   unsigned int i, numtoread;
 834:fltk-1.3.4-1/jpeg/jdmarker.c ****   INPUT_VARS(cinfo);
 835:fltk-1.3.4-1/jpeg/jdmarker.c **** 
 836:fltk-1.3.4-1/jpeg/jdmarker.c ****   INPUT_2BYTES(cinfo, length, return FALSE);
 837:fltk-1.3.4-1/jpeg/jdmarker.c ****   length -= 2;
 838:fltk-1.3.4-1/jpeg/jdmarker.c **** 
 839:fltk-1.3.4-1/jpeg/jdmarker.c ****   /* get the interesting part of the marker data */
 840:fltk-1.3.4-1/jpeg/jdmarker.c ****   if (length >= APPN_DATA_LEN)
 841:fltk-1.3.4-1/jpeg/jdmarker.c ****     numtoread = APPN_DATA_LEN;
 842:fltk-1.3.4-1/jpeg/jdmarker.c ****   else if (length > 0)
 843:fltk-1.3.4-1/jpeg/jdmarker.c ****     numtoread = (unsigned int) length;
 844:fltk-1.3.4-1/jpeg/jdmarker.c ****   else
 845:fltk-1.3.4-1/jpeg/jdmarker.c ****     numtoread = 0;
 846:fltk-1.3.4-1/jpeg/jdmarker.c ****   for (i = 0; i < numtoread; i++)
 847:fltk-1.3.4-1/jpeg/jdmarker.c ****     INPUT_BYTE(cinfo, b[i], return FALSE);
 848:fltk-1.3.4-1/jpeg/jdmarker.c ****   length -= numtoread;
 849:fltk-1.3.4-1/jpeg/jdmarker.c **** 
 850:fltk-1.3.4-1/jpeg/jdmarker.c ****   /* process it */
 851:fltk-1.3.4-1/jpeg/jdmarker.c ****   switch (cinfo->unread_marker) {
 852:fltk-1.3.4-1/jpeg/jdmarker.c ****   case M_APP0:
 853:fltk-1.3.4-1/jpeg/jdmarker.c ****     examine_app0(cinfo, (JOCTET FAR *) b, numtoread, length);
 854:fltk-1.3.4-1/jpeg/jdmarker.c ****     break;
 855:fltk-1.3.4-1/jpeg/jdmarker.c ****   case M_APP14:
 856:fltk-1.3.4-1/jpeg/jdmarker.c ****     examine_app14(cinfo, (JOCTET FAR *) b, numtoread, length);
 857:fltk-1.3.4-1/jpeg/jdmarker.c ****     break;
 858:fltk-1.3.4-1/jpeg/jdmarker.c ****   default:
 859:fltk-1.3.4-1/jpeg/jdmarker.c ****     /* can't get here unless jpeg_save_markers chooses wrong processor */
 860:fltk-1.3.4-1/jpeg/jdmarker.c ****     ERREXIT1(cinfo, JERR_UNKNOWN_MARKER, cinfo->unread_marker);
 861:fltk-1.3.4-1/jpeg/jdmarker.c ****     break;
 862:fltk-1.3.4-1/jpeg/jdmarker.c ****   }
 863:fltk-1.3.4-1/jpeg/jdmarker.c **** 
 864:fltk-1.3.4-1/jpeg/jdmarker.c ****   /* skip any remaining data -- could be lots */
 865:fltk-1.3.4-1/jpeg/jdmarker.c ****   INPUT_SYNC(cinfo);
 866:fltk-1.3.4-1/jpeg/jdmarker.c ****   if (length > 0)
 867:fltk-1.3.4-1/jpeg/jdmarker.c ****     (*cinfo->src->skip_input_data) (cinfo, (long) length);
 868:fltk-1.3.4-1/jpeg/jdmarker.c **** 
 869:fltk-1.3.4-1/jpeg/jdmarker.c ****   return TRUE;
 870:fltk-1.3.4-1/jpeg/jdmarker.c **** }
 871:fltk-1.3.4-1/jpeg/jdmarker.c **** 
 872:fltk-1.3.4-1/jpeg/jdmarker.c **** 
 873:fltk-1.3.4-1/jpeg/jdmarker.c **** #ifdef SAVE_MARKERS_SUPPORTED
 874:fltk-1.3.4-1/jpeg/jdmarker.c **** 
 875:fltk-1.3.4-1/jpeg/jdmarker.c **** METHODDEF(boolean)
 876:fltk-1.3.4-1/jpeg/jdmarker.c **** save_marker (j_decompress_ptr cinfo)
 877:fltk-1.3.4-1/jpeg/jdmarker.c **** /* Save an APPn or COM marker into the marker list */
 878:fltk-1.3.4-1/jpeg/jdmarker.c **** {
 879:fltk-1.3.4-1/jpeg/jdmarker.c ****   my_marker_ptr marker = (my_marker_ptr) cinfo->marker;
 880:fltk-1.3.4-1/jpeg/jdmarker.c ****   jpeg_saved_marker_ptr cur_marker = marker->cur_marker;
 881:fltk-1.3.4-1/jpeg/jdmarker.c ****   unsigned int bytes_read, data_length;
 882:fltk-1.3.4-1/jpeg/jdmarker.c ****   JOCTET FAR * data;
 883:fltk-1.3.4-1/jpeg/jdmarker.c ****   INT32 length = 0;
 884:fltk-1.3.4-1/jpeg/jdmarker.c ****   INPUT_VARS(cinfo);
 885:fltk-1.3.4-1/jpeg/jdmarker.c **** 
 886:fltk-1.3.4-1/jpeg/jdmarker.c ****   if (cur_marker == NULL) {
 887:fltk-1.3.4-1/jpeg/jdmarker.c ****     /* begin reading a marker */
 888:fltk-1.3.4-1/jpeg/jdmarker.c ****     INPUT_2BYTES(cinfo, length, return FALSE);
 889:fltk-1.3.4-1/jpeg/jdmarker.c ****     length -= 2;
 890:fltk-1.3.4-1/jpeg/jdmarker.c ****     if (length >= 0) {		/* watch out for bogus length word */
 891:fltk-1.3.4-1/jpeg/jdmarker.c ****       /* figure out how much we want to save */
 892:fltk-1.3.4-1/jpeg/jdmarker.c ****       unsigned int limit;
 893:fltk-1.3.4-1/jpeg/jdmarker.c ****       if (cinfo->unread_marker == (int) M_COM)
 894:fltk-1.3.4-1/jpeg/jdmarker.c **** 	limit = marker->length_limit_COM;
 895:fltk-1.3.4-1/jpeg/jdmarker.c ****       else
 896:fltk-1.3.4-1/jpeg/jdmarker.c **** 	limit = marker->length_limit_APPn[cinfo->unread_marker - (int) M_APP0];
 897:fltk-1.3.4-1/jpeg/jdmarker.c ****       if ((unsigned int) length < limit)
 898:fltk-1.3.4-1/jpeg/jdmarker.c **** 	limit = (unsigned int) length;
 899:fltk-1.3.4-1/jpeg/jdmarker.c ****       /* allocate and initialize the marker item */
 900:fltk-1.3.4-1/jpeg/jdmarker.c ****       cur_marker = (jpeg_saved_marker_ptr)
 901:fltk-1.3.4-1/jpeg/jdmarker.c **** 	(*cinfo->mem->alloc_large) ((j_common_ptr) cinfo, JPOOL_IMAGE,
 902:fltk-1.3.4-1/jpeg/jdmarker.c **** 				    SIZEOF(struct jpeg_marker_struct) + limit);
 903:fltk-1.3.4-1/jpeg/jdmarker.c ****       cur_marker->next = NULL;
 904:fltk-1.3.4-1/jpeg/jdmarker.c ****       cur_marker->marker = (UINT8) cinfo->unread_marker;
 905:fltk-1.3.4-1/jpeg/jdmarker.c ****       cur_marker->original_length = (unsigned int) length;
 906:fltk-1.3.4-1/jpeg/jdmarker.c ****       cur_marker->data_length = limit;
 907:fltk-1.3.4-1/jpeg/jdmarker.c ****       /* data area is just beyond the jpeg_marker_struct */
 908:fltk-1.3.4-1/jpeg/jdmarker.c ****       data = cur_marker->data = (JOCTET FAR *) (cur_marker + 1);
 909:fltk-1.3.4-1/jpeg/jdmarker.c ****       marker->cur_marker = cur_marker;
 910:fltk-1.3.4-1/jpeg/jdmarker.c ****       marker->bytes_read = 0;
 911:fltk-1.3.4-1/jpeg/jdmarker.c ****       bytes_read = 0;
 912:fltk-1.3.4-1/jpeg/jdmarker.c ****       data_length = limit;
 913:fltk-1.3.4-1/jpeg/jdmarker.c ****     } else {
 914:fltk-1.3.4-1/jpeg/jdmarker.c ****       /* deal with bogus length word */
 915:fltk-1.3.4-1/jpeg/jdmarker.c ****       bytes_read = data_length = 0;
 916:fltk-1.3.4-1/jpeg/jdmarker.c ****       data = NULL;
 917:fltk-1.3.4-1/jpeg/jdmarker.c ****     }
 918:fltk-1.3.4-1/jpeg/jdmarker.c ****   } else {
 919:fltk-1.3.4-1/jpeg/jdmarker.c ****     /* resume reading a marker */
 920:fltk-1.3.4-1/jpeg/jdmarker.c ****     bytes_read = marker->bytes_read;
 921:fltk-1.3.4-1/jpeg/jdmarker.c ****     data_length = cur_marker->data_length;
 922:fltk-1.3.4-1/jpeg/jdmarker.c ****     data = cur_marker->data + bytes_read;
 923:fltk-1.3.4-1/jpeg/jdmarker.c ****   }
 924:fltk-1.3.4-1/jpeg/jdmarker.c **** 
 925:fltk-1.3.4-1/jpeg/jdmarker.c ****   while (bytes_read < data_length) {
 926:fltk-1.3.4-1/jpeg/jdmarker.c ****     INPUT_SYNC(cinfo);		/* move the restart point to here */
 927:fltk-1.3.4-1/jpeg/jdmarker.c ****     marker->bytes_read = bytes_read;
 928:fltk-1.3.4-1/jpeg/jdmarker.c ****     /* If there's not at least one byte in buffer, suspend */
 929:fltk-1.3.4-1/jpeg/jdmarker.c ****     MAKE_BYTE_AVAIL(cinfo, return FALSE);
 930:fltk-1.3.4-1/jpeg/jdmarker.c ****     /* Copy bytes with reasonable rapidity */
 931:fltk-1.3.4-1/jpeg/jdmarker.c ****     while (bytes_read < data_length && bytes_in_buffer > 0) {
 932:fltk-1.3.4-1/jpeg/jdmarker.c ****       *data++ = *next_input_byte++;
 933:fltk-1.3.4-1/jpeg/jdmarker.c ****       bytes_in_buffer--;
 934:fltk-1.3.4-1/jpeg/jdmarker.c ****       bytes_read++;
 935:fltk-1.3.4-1/jpeg/jdmarker.c ****     }
 936:fltk-1.3.4-1/jpeg/jdmarker.c ****   }
 937:fltk-1.3.4-1/jpeg/jdmarker.c **** 
 938:fltk-1.3.4-1/jpeg/jdmarker.c ****   /* Done reading what we want to read */
 939:fltk-1.3.4-1/jpeg/jdmarker.c ****   if (cur_marker != NULL) {	/* will be NULL if bogus length word */
 940:fltk-1.3.4-1/jpeg/jdmarker.c ****     /* Add new marker to end of list */
 941:fltk-1.3.4-1/jpeg/jdmarker.c ****     if (cinfo->marker_list == NULL) {
 942:fltk-1.3.4-1/jpeg/jdmarker.c ****       cinfo->marker_list = cur_marker;
 943:fltk-1.3.4-1/jpeg/jdmarker.c ****     } else {
 944:fltk-1.3.4-1/jpeg/jdmarker.c ****       jpeg_saved_marker_ptr prev = cinfo->marker_list;
 945:fltk-1.3.4-1/jpeg/jdmarker.c ****       while (prev->next != NULL)
 946:fltk-1.3.4-1/jpeg/jdmarker.c **** 	prev = prev->next;
 947:fltk-1.3.4-1/jpeg/jdmarker.c ****       prev->next = cur_marker;
 948:fltk-1.3.4-1/jpeg/jdmarker.c ****     }
 949:fltk-1.3.4-1/jpeg/jdmarker.c ****     /* Reset pointer & calc remaining data length */
 950:fltk-1.3.4-1/jpeg/jdmarker.c ****     data = cur_marker->data;
 951:fltk-1.3.4-1/jpeg/jdmarker.c ****     length = cur_marker->original_length - data_length;
 952:fltk-1.3.4-1/jpeg/jdmarker.c ****   }
 953:fltk-1.3.4-1/jpeg/jdmarker.c ****   /* Reset to initial state for next marker */
 954:fltk-1.3.4-1/jpeg/jdmarker.c ****   marker->cur_marker = NULL;
 955:fltk-1.3.4-1/jpeg/jdmarker.c **** 
 956:fltk-1.3.4-1/jpeg/jdmarker.c ****   /* Process the marker if interesting; else just make a generic trace msg */
 957:fltk-1.3.4-1/jpeg/jdmarker.c ****   switch (cinfo->unread_marker) {
 958:fltk-1.3.4-1/jpeg/jdmarker.c ****   case M_APP0:
 959:fltk-1.3.4-1/jpeg/jdmarker.c ****     examine_app0(cinfo, data, data_length, length);
 960:fltk-1.3.4-1/jpeg/jdmarker.c ****     break;
 961:fltk-1.3.4-1/jpeg/jdmarker.c ****   case M_APP14:
 962:fltk-1.3.4-1/jpeg/jdmarker.c ****     examine_app14(cinfo, data, data_length, length);
 963:fltk-1.3.4-1/jpeg/jdmarker.c ****     break;
 964:fltk-1.3.4-1/jpeg/jdmarker.c ****   default:
 965:fltk-1.3.4-1/jpeg/jdmarker.c ****     TRACEMS2(cinfo, 1, JTRC_MISC_MARKER, cinfo->unread_marker,
 966:fltk-1.3.4-1/jpeg/jdmarker.c **** 	     (int) (data_length + length));
 967:fltk-1.3.4-1/jpeg/jdmarker.c ****     break;
 968:fltk-1.3.4-1/jpeg/jdmarker.c ****   }
 969:fltk-1.3.4-1/jpeg/jdmarker.c **** 
 970:fltk-1.3.4-1/jpeg/jdmarker.c ****   /* skip any remaining data -- could be lots */
 971:fltk-1.3.4-1/jpeg/jdmarker.c ****   INPUT_SYNC(cinfo);		/* do before skip_input_data */
 972:fltk-1.3.4-1/jpeg/jdmarker.c ****   if (length > 0)
 973:fltk-1.3.4-1/jpeg/jdmarker.c ****     (*cinfo->src->skip_input_data) (cinfo, (long) length);
 974:fltk-1.3.4-1/jpeg/jdmarker.c **** 
 975:fltk-1.3.4-1/jpeg/jdmarker.c ****   return TRUE;
 976:fltk-1.3.4-1/jpeg/jdmarker.c **** }
 977:fltk-1.3.4-1/jpeg/jdmarker.c **** 
 978:fltk-1.3.4-1/jpeg/jdmarker.c **** #endif /* SAVE_MARKERS_SUPPORTED */
 979:fltk-1.3.4-1/jpeg/jdmarker.c **** 
 980:fltk-1.3.4-1/jpeg/jdmarker.c **** 
 981:fltk-1.3.4-1/jpeg/jdmarker.c **** METHODDEF(boolean)
 982:fltk-1.3.4-1/jpeg/jdmarker.c **** skip_variable (j_decompress_ptr cinfo)
 983:fltk-1.3.4-1/jpeg/jdmarker.c **** /* Skip over an unknown or uninteresting variable-length marker */
 984:fltk-1.3.4-1/jpeg/jdmarker.c **** {
 1079              		.loc 1 984 1 view -0
 1080              		.cfi_startproc
 1081              		.loc 1 984 1 is_stmt 0 view .LVU367
 1082 0000 F30F1EFA 		endbr64
 985:fltk-1.3.4-1/jpeg/jdmarker.c ****   INT32 length;
 1083              		.loc 1 985 3 is_stmt 1 view .LVU368
 986:fltk-1.3.4-1/jpeg/jdmarker.c ****   INPUT_VARS(cinfo);
 1084              		.loc 1 986 3 view .LVU369
 984:fltk-1.3.4-1/jpeg/jdmarker.c ****   INT32 length;
 1085              		.loc 1 984 1 is_stmt 0 view .LVU370
 1086 0004 4156     		pushq	%r14
 1087              		.cfi_def_cfa_offset 16
 1088              		.cfi_offset 14, -16
 1089 0006 4155     		pushq	%r13
 1090              		.cfi_def_cfa_offset 24
 1091              		.cfi_offset 13, -24
 1092 0008 4154     		pushq	%r12
 1093              		.cfi_def_cfa_offset 32
 1094              		.cfi_offset 12, -32
 1095 000a 55       		pushq	%rbp
 1096              		.cfi_def_cfa_offset 40
 1097              		.cfi_offset 6, -40
 1098 000b 4889FD   		movq	%rdi, %rbp
 1099 000e 53       		pushq	%rbx
 1100              		.cfi_def_cfa_offset 48
 1101              		.cfi_offset 3, -48
 1102              		.loc 1 986 3 view .LVU371
 1103 000f 4C8B7728 		movq	40(%rdi), %r14
 1104              	.LVL127:
 1105              		.loc 1 986 3 is_stmt 1 view .LVU372
 1106              		.loc 1 986 3 view .LVU373
 1107 0013 498B4E08 		movq	8(%r14), %rcx
 1108              	.LVL128:
 987:fltk-1.3.4-1/jpeg/jdmarker.c **** 
 988:fltk-1.3.4-1/jpeg/jdmarker.c ****   INPUT_2BYTES(cinfo, length, return FALSE);
 1109              		.loc 1 988 3 view .LVU374
 1110              		.loc 1 988 3 view .LVU375
 1111 0017 4885C9   		testq	%rcx, %rcx
 1112 001a 0F84A000 		je	.L105
 1112      0000
 986:fltk-1.3.4-1/jpeg/jdmarker.c **** 
 1113              		.loc 1 986 3 is_stmt 0 view .LVU376
 1114 0020 498B06   		movq	(%r14), %rax
 1115              	.LVL129:
 1116              	.L106:
 1117              		.loc 1 988 3 is_stmt 1 discriminator 5 view .LVU377
 1118              		.loc 1 988 3 discriminator 5 view .LVU378
 1119              		.loc 1 988 3 discriminator 5 view .LVU379
 1120              		.loc 1 988 3 is_stmt 0 discriminator 5 view .LVU380
 1121 0023 0FB610   		movzbl	(%rax), %edx
 1122 0026 488D5801 		leaq	1(%rax), %rbx
 1123              	.LVL130:
 1124              		.loc 1 988 3 discriminator 5 view .LVU381
 1125 002a C1E208   		sall	$8, %edx
 1126 002d 4883E901 		subq	$1, %rcx
 1127              	.LVL131:
 1128              		.loc 1 988 3 discriminator 5 view .LVU382
 1129 0031 4189D4   		movl	%edx, %r12d
 1130              	.LVL132:
 1131              		.loc 1 988 3 is_stmt 1 discriminator 5 view .LVU383
 1132 0034 4989CD   		movq	%rcx, %r13
 1133 0037 7516     		jne	.L110
 1134              		.loc 1 988 3 discriminator 6 view .LVU384
 1135 0039 4889EF   		movq	%rbp, %rdi
 1136 003c 41FF5618 		call	*24(%r14)
 1137              	.LVL133:
 1138              		.loc 1 988 3 is_stmt 0 discriminator 6 view .LVU385
 1139 0040 85C0     		testl	%eax, %eax
 1140 0042 0F849000 		je	.L111
 1140      0000
 1141              		.loc 1 988 3 is_stmt 1 discriminator 9 view .LVU386
 1142 0048 498B1E   		movq	(%r14), %rbx
 1143              	.LVL134:
 1144              		.loc 1 988 3 is_stmt 0 discriminator 9 view .LVU387
 1145 004b 4D8B6E08 		movq	8(%r14), %r13
 1146              	.LVL135:
 1147              	.L110:
 1148              		.loc 1 988 3 is_stmt 1 discriminator 10 view .LVU388
 1149              		.loc 1 988 3 discriminator 10 view .LVU389
 1150              		.loc 1 988 3 discriminator 10 view .LVU390
 1151              		.loc 1 988 3 is_stmt 0 discriminator 10 view .LVU391
 1152 004f 0FB603   		movzbl	(%rbx), %eax
 1153              	.LVL136:
 1154              		.loc 1 988 3 is_stmt 1 discriminator 10 view .LVU392
 989:fltk-1.3.4-1/jpeg/jdmarker.c ****   length -= 2;
 1155              		.loc 1 989 3 discriminator 10 view .LVU393
 990:fltk-1.3.4-1/jpeg/jdmarker.c ****   
 991:fltk-1.3.4-1/jpeg/jdmarker.c ****   TRACEMS2(cinfo, 1, JTRC_MISC_MARKER, cinfo->unread_marker, (int) length);
 1156              		.loc 1 991 3 is_stmt 0 discriminator 10 view .LVU394
 1157 0052 BE010000 		movl	$1, %esi
 1157      00
 1158 0057 4889EF   		movq	%rbp, %rdi
 989:fltk-1.3.4-1/jpeg/jdmarker.c ****   length -= 2;
 1159              		.loc 1 989 10 discriminator 10 view .LVU395
 1160 005a 4D8D6404 		leaq	-2(%r12,%rax), %r12
 1160      FE
 1161              	.LVL137:
 1162              		.loc 1 991 3 is_stmt 1 discriminator 10 view .LVU396
 1163 005f 488B4500 		movq	0(%rbp), %rax
 1164 0063 C740285D 		movl	$93, 40(%rax)
 1164      000000
 1165 006a 488B4500 		movq	0(%rbp), %rax
 1166 006e 8B953C02 		movl	572(%rbp), %edx
 1166      0000
 1167 0074 89502C   		movl	%edx, 44(%rax)
 1168 0077 488B4500 		movq	0(%rbp), %rax
 1169 007b 44896030 		movl	%r12d, 48(%rax)
 1170 007f 488B4500 		movq	0(%rbp), %rax
 1171 0083 FF5008   		call	*8(%rax)
 1172              	.LVL138:
 992:fltk-1.3.4-1/jpeg/jdmarker.c **** 
 993:fltk-1.3.4-1/jpeg/jdmarker.c ****   INPUT_SYNC(cinfo);		/* do before skip_input_data */
 1173              		.loc 1 993 3 discriminator 10 view .LVU397
 988:fltk-1.3.4-1/jpeg/jdmarker.c ****   length -= 2;
 1174              		.loc 1 988 3 is_stmt 0 discriminator 10 view .LVU398
 1175 0086 498D4DFF 		leaq	-1(%r13), %rcx
 1176              	.LVL139:
 988:fltk-1.3.4-1/jpeg/jdmarker.c ****   length -= 2;
 1177              		.loc 1 988 3 discriminator 10 view .LVU399
 1178 008a 488D4301 		leaq	1(%rbx), %rax
 1179              	.LVL140:
 994:fltk-1.3.4-1/jpeg/jdmarker.c ****   if (length > 0)
 995:fltk-1.3.4-1/jpeg/jdmarker.c ****     (*cinfo->src->skip_input_data) (cinfo, (long) length);
 996:fltk-1.3.4-1/jpeg/jdmarker.c **** 
 997:fltk-1.3.4-1/jpeg/jdmarker.c ****   return TRUE;
 1180              		.loc 1 997 10 discriminator 10 view .LVU400
 1181 008e 41BD0100 		movl	$1, %r13d
 1181      0000
 988:fltk-1.3.4-1/jpeg/jdmarker.c ****   length -= 2;
 1182              		.loc 1 988 3 discriminator 10 view .LVU401
 1183 0094 498906   		movq	%rax, (%r14)
 1184 0097 49894E08 		movq	%rcx, 8(%r14)
 994:fltk-1.3.4-1/jpeg/jdmarker.c ****   if (length > 0)
 1185              		.loc 1 994 3 is_stmt 1 discriminator 10 view .LVU402
 994:fltk-1.3.4-1/jpeg/jdmarker.c ****   if (length > 0)
 1186              		.loc 1 994 6 is_stmt 0 discriminator 10 view .LVU403
 1187 009b 4D85E4   		testq	%r12, %r12
 1188 009e 7E0D     		jle	.L104
 995:fltk-1.3.4-1/jpeg/jdmarker.c **** 
 1189              		.loc 1 995 5 is_stmt 1 view .LVU404
 995:fltk-1.3.4-1/jpeg/jdmarker.c **** 
 1190              		.loc 1 995 6 is_stmt 0 view .LVU405
 1191 00a0 488B4528 		movq	40(%rbp), %rax
 1192              	.LVL141:
 995:fltk-1.3.4-1/jpeg/jdmarker.c **** 
 1193              		.loc 1 995 6 view .LVU406
 1194 00a4 4C89E6   		movq	%r12, %rsi
 1195 00a7 4889EF   		movq	%rbp, %rdi
 1196 00aa FF5020   		call	*32(%rax)
 1197              	.LVL142:
 1198              	.L104:
 998:fltk-1.3.4-1/jpeg/jdmarker.c **** }
 1199              		.loc 1 998 1 view .LVU407
 1200 00ad 5B       		popq	%rbx
 1201              		.cfi_remember_state
 1202              		.cfi_def_cfa_offset 40
 1203              	.LVL143:
 1204              		.loc 1 998 1 view .LVU408
 1205 00ae 4489E8   		movl	%r13d, %eax
 1206 00b1 5D       		popq	%rbp
 1207              		.cfi_def_cfa_offset 32
 1208              	.LVL144:
 1209              		.loc 1 998 1 view .LVU409
 1210 00b2 415C     		popq	%r12
 1211              		.cfi_def_cfa_offset 24
 1212              	.LVL145:
 1213              		.loc 1 998 1 view .LVU410
 1214 00b4 415D     		popq	%r13
 1215              		.cfi_def_cfa_offset 16
 1216 00b6 415E     		popq	%r14
 1217              		.cfi_def_cfa_offset 8
 1218              	.LVL146:
 1219              		.loc 1 998 1 view .LVU411
 1220 00b8 C3       		ret
 1221              	.LVL147:
 1222 00b9 0F1F8000 		.p2align 4,,10
 1222      000000
 1223              		.p2align 3
 1224              	.L105:
 1225              		.cfi_restore_state
 988:fltk-1.3.4-1/jpeg/jdmarker.c ****   length -= 2;
 1226              		.loc 1 988 3 is_stmt 1 discriminator 1 view .LVU412
 1227 00c0 41FF5618 		call	*24(%r14)
 1228              	.LVL148:
 988:fltk-1.3.4-1/jpeg/jdmarker.c ****   length -= 2;
 1229              		.loc 1 988 3 is_stmt 0 discriminator 1 view .LVU413
 1230 00c4 85C0     		testl	%eax, %eax
 1231 00c6 7410     		je	.L111
 988:fltk-1.3.4-1/jpeg/jdmarker.c ****   length -= 2;
 1232              		.loc 1 988 3 is_stmt 1 discriminator 4 view .LVU414
 1233 00c8 498B06   		movq	(%r14), %rax
 1234              	.LVL149:
 988:fltk-1.3.4-1/jpeg/jdmarker.c ****   length -= 2;
 1235              		.loc 1 988 3 is_stmt 0 discriminator 4 view .LVU415
 1236 00cb 498B4E08 		movq	8(%r14), %rcx
 1237              	.LVL150:
 988:fltk-1.3.4-1/jpeg/jdmarker.c ****   length -= 2;
 1238              		.loc 1 988 3 discriminator 4 view .LVU416
 1239 00cf E94FFFFF 		jmp	.L106
 1239      FF
 1240              	.LVL151:
 1241              		.p2align 4,,10
 1242 00d4 0F1F4000 		.p2align 3
 1243              	.L111:
 988:fltk-1.3.4-1/jpeg/jdmarker.c ****   length -= 2;
 1244              		.loc 1 988 3 view .LVU417
 1245 00d8 4531ED   		xorl	%r13d, %r13d
 1246              		.loc 1 998 1 view .LVU418
 1247 00db 5B       		popq	%rbx
 1248              		.cfi_def_cfa_offset 40
 1249 00dc 5D       		popq	%rbp
 1250              		.cfi_def_cfa_offset 32
 1251              	.LVL152:
 1252              		.loc 1 998 1 view .LVU419
 1253 00dd 4489E8   		movl	%r13d, %eax
 1254 00e0 415C     		popq	%r12
 1255              		.cfi_def_cfa_offset 24
 1256 00e2 415D     		popq	%r13
 1257              		.cfi_def_cfa_offset 16
 1258 00e4 415E     		popq	%r14
 1259              		.cfi_def_cfa_offset 8
 1260              	.LVL153:
 1261              		.loc 1 998 1 view .LVU420
 1262 00e6 C3       		ret
 1263              		.cfi_endproc
 1264              	.LFE63:
 1266              		.section	.text.next_marker,"ax",@progbits
 1267              		.p2align 4
 1269              	next_marker:
 1270              	.LVL154:
 1271              	.LFB64:
 999:fltk-1.3.4-1/jpeg/jdmarker.c **** 
1000:fltk-1.3.4-1/jpeg/jdmarker.c **** 
1001:fltk-1.3.4-1/jpeg/jdmarker.c **** /*
1002:fltk-1.3.4-1/jpeg/jdmarker.c ****  * Find the next JPEG marker, save it in cinfo->unread_marker.
1003:fltk-1.3.4-1/jpeg/jdmarker.c ****  * Returns FALSE if had to suspend before reaching a marker;
1004:fltk-1.3.4-1/jpeg/jdmarker.c ****  * in that case cinfo->unread_marker is unchanged.
1005:fltk-1.3.4-1/jpeg/jdmarker.c ****  *
1006:fltk-1.3.4-1/jpeg/jdmarker.c ****  * Note that the result might not be a valid marker code,
1007:fltk-1.3.4-1/jpeg/jdmarker.c ****  * but it will never be 0 or FF.
1008:fltk-1.3.4-1/jpeg/jdmarker.c ****  */
1009:fltk-1.3.4-1/jpeg/jdmarker.c **** 
1010:fltk-1.3.4-1/jpeg/jdmarker.c **** LOCAL(boolean)
1011:fltk-1.3.4-1/jpeg/jdmarker.c **** next_marker (j_decompress_ptr cinfo)
1012:fltk-1.3.4-1/jpeg/jdmarker.c **** {
 1272              		.loc 1 1012 1 is_stmt 1 view -0
 1273              		.cfi_startproc
1013:fltk-1.3.4-1/jpeg/jdmarker.c ****   int c;
 1274              		.loc 1 1013 3 view .LVU422
1014:fltk-1.3.4-1/jpeg/jdmarker.c ****   INPUT_VARS(cinfo);
 1275              		.loc 1 1014 3 view .LVU423
1012:fltk-1.3.4-1/jpeg/jdmarker.c ****   int c;
 1276              		.loc 1 1012 1 is_stmt 0 view .LVU424
 1277 0000 4156     		pushq	%r14
 1278              		.cfi_def_cfa_offset 16
 1279              		.cfi_offset 14, -16
 1280 0002 4155     		pushq	%r13
 1281              		.cfi_def_cfa_offset 24
 1282              		.cfi_offset 13, -24
 1283 0004 4989FD   		movq	%rdi, %r13
 1284 0007 4154     		pushq	%r12
 1285              		.cfi_def_cfa_offset 32
 1286              		.cfi_offset 12, -32
 1287 0009 55       		pushq	%rbp
 1288              		.cfi_def_cfa_offset 40
 1289              		.cfi_offset 6, -40
 1290 000a 53       		pushq	%rbx
 1291              		.cfi_def_cfa_offset 48
 1292              		.cfi_offset 3, -48
 1293              		.loc 1 1014 3 view .LVU425
 1294 000b 488B6F28 		movq	40(%rdi), %rbp
 1295              	.LVL155:
 1296              		.loc 1 1014 3 is_stmt 1 view .LVU426
 1297 000f 488B4500 		movq	0(%rbp), %rax
 1298              	.LVL156:
 1299              		.loc 1 1014 3 view .LVU427
 1300 0013 488B5D08 		movq	8(%rbp), %rbx
 1301              	.LVL157:
 1302              	.L128:
1015:fltk-1.3.4-1/jpeg/jdmarker.c **** 
1016:fltk-1.3.4-1/jpeg/jdmarker.c ****   for (;;) {
 1303              		.loc 1 1016 3 view .LVU428
1017:fltk-1.3.4-1/jpeg/jdmarker.c ****     INPUT_BYTE(cinfo, c, return FALSE);
 1304              		.loc 1 1017 5 view .LVU429
 1305              		.loc 1 1017 5 view .LVU430
 1306 0017 4885DB   		testq	%rbx, %rbx
 1307 001a 7516     		jne	.L118
 1308              	.LVL158:
 1309 001c 0F1F4000 		.p2align 4,,10
 1310              		.p2align 3
 1311              	.L145:
 1312              		.loc 1 1017 5 discriminator 1 view .LVU431
 1313 0020 4C89EF   		movq	%r13, %rdi
 1314 0023 FF5518   		call	*24(%rbp)
 1315              	.LVL159:
 1316 0026 85C0     		testl	%eax, %eax
 1317 0028 747E     		je	.L123
 1318              		.loc 1 1017 5 discriminator 4 view .LVU432
 1319 002a 488B4500 		movq	0(%rbp), %rax
 1320              	.LVL160:
 1321              		.loc 1 1017 5 is_stmt 0 discriminator 4 view .LVU433
 1322 002e 488B5D08 		movq	8(%rbp), %rbx
 1323              	.LVL161:
 1324              	.L118:
 1325              		.loc 1 1017 5 is_stmt 1 discriminator 5 view .LVU434
 1326              		.loc 1 1017 5 discriminator 5 view .LVU435
 1327 0032 4883EB01 		subq	$1, %rbx
 1328              	.LVL162:
 1329              		.loc 1 1017 5 discriminator 5 view .LVU436
1018:fltk-1.3.4-1/jpeg/jdmarker.c ****     /* Skip any non-FF bytes.
1019:fltk-1.3.4-1/jpeg/jdmarker.c ****      * This may look a bit inefficient, but it will not occur in a valid file.
1020:fltk-1.3.4-1/jpeg/jdmarker.c ****      * We sync after each discarded byte so that a suspending data source
1021:fltk-1.3.4-1/jpeg/jdmarker.c ****      * can discard the byte from its buffer.
1022:fltk-1.3.4-1/jpeg/jdmarker.c ****      */
1023:fltk-1.3.4-1/jpeg/jdmarker.c ****     while (c != 0xFF) {
 1330              		.loc 1 1023 11 is_stmt 0 discriminator 5 view .LVU437
 1331 0036 8038FF   		cmpb	$-1, (%rax)
1017:fltk-1.3.4-1/jpeg/jdmarker.c ****     INPUT_BYTE(cinfo, c, return FALSE);
 1332              		.loc 1 1017 5 discriminator 5 view .LVU438
 1333 0039 4C8D6001 		leaq	1(%rax), %r12
 1334              	.LVL163:
1017:fltk-1.3.4-1/jpeg/jdmarker.c ****     INPUT_BYTE(cinfo, c, return FALSE);
 1335              		.loc 1 1017 5 is_stmt 1 discriminator 5 view .LVU439
 1336              		.loc 1 1023 5 discriminator 5 view .LVU440
1024:fltk-1.3.4-1/jpeg/jdmarker.c ****       cinfo->marker->discarded_bytes++;
1025:fltk-1.3.4-1/jpeg/jdmarker.c ****       INPUT_SYNC(cinfo);
1026:fltk-1.3.4-1/jpeg/jdmarker.c ****       INPUT_BYTE(cinfo, c, return FALSE);
 1337              		.loc 1 1026 7 discriminator 5 view .LVU441
1023:fltk-1.3.4-1/jpeg/jdmarker.c ****       cinfo->marker->discarded_bytes++;
 1338              		.loc 1 1023 11 discriminator 5 view .LVU442
 1339 003d 7458     		je	.L126
 1340              	.LVL164:
 1341              	.L147:
1024:fltk-1.3.4-1/jpeg/jdmarker.c ****       cinfo->marker->discarded_bytes++;
 1342              		.loc 1 1024 7 view .LVU443
1024:fltk-1.3.4-1/jpeg/jdmarker.c ****       cinfo->marker->discarded_bytes++;
 1343              		.loc 1 1024 12 is_stmt 0 view .LVU444
 1344 003f 498B8568 		movq	616(%r13), %rax
 1344      020000
1024:fltk-1.3.4-1/jpeg/jdmarker.c ****       cinfo->marker->discarded_bytes++;
 1345              		.loc 1 1024 37 view .LVU445
 1346 0046 83402401 		addl	$1, 36(%rax)
1025:fltk-1.3.4-1/jpeg/jdmarker.c ****       INPUT_BYTE(cinfo, c, return FALSE);
 1347              		.loc 1 1025 7 is_stmt 1 view .LVU446
 1348 004a 4C896500 		movq	%r12, 0(%rbp)
 1349 004e 48895D08 		movq	%rbx, 8(%rbp)
 1350              		.loc 1 1026 7 view .LVU447
 1351              		.loc 1 1026 7 view .LVU448
 1352 0052 4885DB   		testq	%rbx, %rbx
 1353 0055 74C9     		je	.L145
 1354              		.loc 1 1026 7 is_stmt 0 view .LVU449
 1355 0057 4C89E0   		movq	%r12, %rax
 1356              		.loc 1 1026 7 is_stmt 1 view .LVU450
 1357              		.loc 1 1026 7 view .LVU451
1017:fltk-1.3.4-1/jpeg/jdmarker.c ****     /* Skip any non-FF bytes.
 1358              		.loc 1 1017 5 view .LVU452
1017:fltk-1.3.4-1/jpeg/jdmarker.c ****     /* Skip any non-FF bytes.
 1359              		.loc 1 1017 5 view .LVU453
 1360 005a 4883EB01 		subq	$1, %rbx
 1361              	.LVL165:
1017:fltk-1.3.4-1/jpeg/jdmarker.c ****     /* Skip any non-FF bytes.
 1362              		.loc 1 1017 5 view .LVU454
1023:fltk-1.3.4-1/jpeg/jdmarker.c ****       cinfo->marker->discarded_bytes++;
 1363              		.loc 1 1023 11 is_stmt 0 view .LVU455
 1364 005e 8038FF   		cmpb	$-1, (%rax)
1017:fltk-1.3.4-1/jpeg/jdmarker.c ****     /* Skip any non-FF bytes.
 1365              		.loc 1 1017 5 view .LVU456
 1366 0061 4C8D6001 		leaq	1(%rax), %r12
 1367              	.LVL166:
1017:fltk-1.3.4-1/jpeg/jdmarker.c ****     /* Skip any non-FF bytes.
 1368              		.loc 1 1017 5 is_stmt 1 view .LVU457
1023:fltk-1.3.4-1/jpeg/jdmarker.c ****       cinfo->marker->discarded_bytes++;
 1369              		.loc 1 1023 5 view .LVU458
 1370              		.loc 1 1026 7 view .LVU459
1023:fltk-1.3.4-1/jpeg/jdmarker.c ****       cinfo->marker->discarded_bytes++;
 1371              		.loc 1 1023 11 view .LVU460
 1372 0065 75D8     		jne	.L147
1027:fltk-1.3.4-1/jpeg/jdmarker.c ****     }
1028:fltk-1.3.4-1/jpeg/jdmarker.c ****     /* This loop swallows any duplicate FF bytes.  Extra FFs are legal as
1029:fltk-1.3.4-1/jpeg/jdmarker.c ****      * pad bytes, so don't count them in discarded_bytes.  We assume there
1030:fltk-1.3.4-1/jpeg/jdmarker.c ****      * will not be so many consecutive FF bytes as to overflow a suspending
1031:fltk-1.3.4-1/jpeg/jdmarker.c ****      * data source's input buffer.
1032:fltk-1.3.4-1/jpeg/jdmarker.c ****      */
1033:fltk-1.3.4-1/jpeg/jdmarker.c ****     do {
 1373              		.loc 1 1033 5 view .LVU461
1034:fltk-1.3.4-1/jpeg/jdmarker.c ****       INPUT_BYTE(cinfo, c, return FALSE);
 1374              		.loc 1 1034 7 view .LVU462
 1375              		.loc 1 1034 7 view .LVU463
 1376 0067 4885DB   		testq	%rbx, %rbx
 1377 006a 7530     		jne	.L131
 1378              	.LVL167:
 1379 006c 0F1F4000 		.p2align 4,,10
 1380              		.p2align 3
 1381              	.L149:
 1382              		.loc 1 1034 7 discriminator 1 view .LVU464
 1383 0070 4C89EF   		movq	%r13, %rdi
 1384 0073 FF5518   		call	*24(%rbp)
 1385              	.LVL168:
 1386 0076 85C0     		testl	%eax, %eax
 1387 0078 742E     		je	.L123
 1388              		.loc 1 1034 7 discriminator 4 view .LVU465
 1389 007a 488B4500 		movq	0(%rbp), %rax
 1390              	.LVL169:
 1391              		.loc 1 1034 7 is_stmt 0 discriminator 4 view .LVU466
 1392 007e 488B5D08 		movq	8(%rbp), %rbx
 1393              	.LVL170:
 1394              	.L125:
 1395              		.loc 1 1034 7 is_stmt 1 discriminator 5 view .LVU467
 1396              		.loc 1 1034 7 discriminator 5 view .LVU468
 1397 0082 440FB630 		movzbl	(%rax), %r14d
 1398 0086 4883EB01 		subq	$1, %rbx
 1399              	.LVL171:
 1400              		.loc 1 1034 7 discriminator 5 view .LVU469
 1401 008a 4C8D6001 		leaq	1(%rax), %r12
 1402              	.LVL172:
 1403              		.loc 1 1034 7 discriminator 5 view .LVU470
1035:fltk-1.3.4-1/jpeg/jdmarker.c ****     } while (c == 0xFF);
 1404              		.loc 1 1035 13 discriminator 5 view .LVU471
 1405              		.loc 1 1035 5 is_stmt 0 discriminator 5 view .LVU472
 1406 008e 4181FEFF 		cmpl	$255, %r14d
 1406      000000
 1407 0095 7521     		jne	.L148
 1408              	.LVL173:
 1409              	.L126:
1033:fltk-1.3.4-1/jpeg/jdmarker.c ****       INPUT_BYTE(cinfo, c, return FALSE);
 1410              		.loc 1 1033 5 is_stmt 1 view .LVU473
1034:fltk-1.3.4-1/jpeg/jdmarker.c ****       INPUT_BYTE(cinfo, c, return FALSE);
 1411              		.loc 1 1034 7 view .LVU474
1034:fltk-1.3.4-1/jpeg/jdmarker.c ****       INPUT_BYTE(cinfo, c, return FALSE);
 1412              		.loc 1 1034 7 view .LVU475
 1413 0097 4885DB   		testq	%rbx, %rbx
 1414 009a 74D4     		je	.L149
 1415              	.L131:
1034:fltk-1.3.4-1/jpeg/jdmarker.c ****       INPUT_BYTE(cinfo, c, return FALSE);
 1416              		.loc 1 1034 7 is_stmt 0 view .LVU476
 1417 009c 4C89E0   		movq	%r12, %rax
 1418 009f EBE1     		jmp	.L125
 1419              	.LVL174:
 1420              		.p2align 4,,10
 1421 00a1 0F1F8000 		.p2align 3
 1421      000000
 1422              	.L123:
1017:fltk-1.3.4-1/jpeg/jdmarker.c ****     /* Skip any non-FF bytes.
 1423              		.loc 1 1017 5 view .LVU477
 1424 00a8 31C0     		xorl	%eax, %eax
 1425              	.L117:
1036:fltk-1.3.4-1/jpeg/jdmarker.c ****     if (c != 0)
1037:fltk-1.3.4-1/jpeg/jdmarker.c ****       break;			/* found a valid marker, exit loop */
1038:fltk-1.3.4-1/jpeg/jdmarker.c ****     /* Reach here if we found a stuffed-zero data sequence (FF/00).
1039:fltk-1.3.4-1/jpeg/jdmarker.c ****      * Discard it and loop back to try again.
1040:fltk-1.3.4-1/jpeg/jdmarker.c ****      */
1041:fltk-1.3.4-1/jpeg/jdmarker.c ****     cinfo->marker->discarded_bytes += 2;
1042:fltk-1.3.4-1/jpeg/jdmarker.c ****     INPUT_SYNC(cinfo);
1043:fltk-1.3.4-1/jpeg/jdmarker.c ****   }
1044:fltk-1.3.4-1/jpeg/jdmarker.c **** 
1045:fltk-1.3.4-1/jpeg/jdmarker.c ****   if (cinfo->marker->discarded_bytes != 0) {
1046:fltk-1.3.4-1/jpeg/jdmarker.c ****     WARNMS2(cinfo, JWRN_EXTRANEOUS_DATA, cinfo->marker->discarded_bytes, c);
1047:fltk-1.3.4-1/jpeg/jdmarker.c ****     cinfo->marker->discarded_bytes = 0;
1048:fltk-1.3.4-1/jpeg/jdmarker.c ****   }
1049:fltk-1.3.4-1/jpeg/jdmarker.c **** 
1050:fltk-1.3.4-1/jpeg/jdmarker.c ****   cinfo->unread_marker = c;
1051:fltk-1.3.4-1/jpeg/jdmarker.c **** 
1052:fltk-1.3.4-1/jpeg/jdmarker.c ****   INPUT_SYNC(cinfo);
1053:fltk-1.3.4-1/jpeg/jdmarker.c ****   return TRUE;
1054:fltk-1.3.4-1/jpeg/jdmarker.c **** }
 1426              		.loc 1 1054 1 view .LVU478
 1427 00aa 5B       		popq	%rbx
 1428              		.cfi_remember_state
 1429              		.cfi_def_cfa_offset 40
 1430              	.LVL175:
 1431              		.loc 1 1054 1 view .LVU479
 1432 00ab 5D       		popq	%rbp
 1433              		.cfi_def_cfa_offset 32
 1434              	.LVL176:
 1435              		.loc 1 1054 1 view .LVU480
 1436 00ac 415C     		popq	%r12
 1437              		.cfi_def_cfa_offset 24
 1438 00ae 415D     		popq	%r13
 1439              		.cfi_def_cfa_offset 16
 1440              	.LVL177:
 1441              		.loc 1 1054 1 view .LVU481
 1442 00b0 415E     		popq	%r14
 1443              		.cfi_def_cfa_offset 8
 1444 00b2 C3       		ret
 1445              	.LVL178:
 1446              		.p2align 4,,10
 1447 00b3 0F1F4400 		.p2align 3
 1447      00
 1448              	.L148:
 1449              		.cfi_restore_state
1036:fltk-1.3.4-1/jpeg/jdmarker.c ****     if (c != 0)
 1450              		.loc 1 1036 5 is_stmt 1 view .LVU482
 1451 00b8 498B9568 		movq	616(%r13), %rdx
 1451      020000
 1452 00bf 8B4224   		movl	36(%rdx), %eax
1036:fltk-1.3.4-1/jpeg/jdmarker.c ****     if (c != 0)
 1453              		.loc 1 1036 8 is_stmt 0 view .LVU483
 1454 00c2 4585F6   		testl	%r14d, %r14d
 1455 00c5 7516     		jne	.L127
1041:fltk-1.3.4-1/jpeg/jdmarker.c ****     INPUT_SYNC(cinfo);
 1456              		.loc 1 1041 5 is_stmt 1 view .LVU484
1041:fltk-1.3.4-1/jpeg/jdmarker.c ****     INPUT_SYNC(cinfo);
 1457              		.loc 1 1041 36 is_stmt 0 view .LVU485
 1458 00c7 83C002   		addl	$2, %eax
 1459 00ca 894224   		movl	%eax, 36(%rdx)
1042:fltk-1.3.4-1/jpeg/jdmarker.c ****   }
 1460              		.loc 1 1042 5 is_stmt 1 view .LVU486
1034:fltk-1.3.4-1/jpeg/jdmarker.c ****     } while (c == 0xFF);
 1461              		.loc 1 1034 7 is_stmt 0 view .LVU487
 1462 00cd 4C89E0   		movq	%r12, %rax
1042:fltk-1.3.4-1/jpeg/jdmarker.c ****   }
 1463              		.loc 1 1042 5 view .LVU488
 1464 00d0 4C896500 		movq	%r12, 0(%rbp)
 1465 00d4 48895D08 		movq	%rbx, 8(%rbp)
1016:fltk-1.3.4-1/jpeg/jdmarker.c ****     INPUT_BYTE(cinfo, c, return FALSE);
 1466              		.loc 1 1016 9 is_stmt 1 view .LVU489
1017:fltk-1.3.4-1/jpeg/jdmarker.c ****     /* Skip any non-FF bytes.
 1467              		.loc 1 1017 5 is_stmt 0 view .LVU490
 1468 00d8 E93AFFFF 		jmp	.L128
 1468      FF
 1469              	.L127:
1045:fltk-1.3.4-1/jpeg/jdmarker.c ****     WARNMS2(cinfo, JWRN_EXTRANEOUS_DATA, cinfo->marker->discarded_bytes, c);
 1470              		.loc 1 1045 3 is_stmt 1 view .LVU491
1045:fltk-1.3.4-1/jpeg/jdmarker.c ****     WARNMS2(cinfo, JWRN_EXTRANEOUS_DATA, cinfo->marker->discarded_bytes, c);
 1471              		.loc 1 1045 6 is_stmt 0 view .LVU492
 1472 00dd 85C0     		testl	%eax, %eax
 1473 00df 7441     		je	.L129
1046:fltk-1.3.4-1/jpeg/jdmarker.c ****     cinfo->marker->discarded_bytes = 0;
 1474              		.loc 1 1046 5 is_stmt 1 view .LVU493
 1475 00e1 498B4500 		movq	0(%r13), %rax
 1476 00e5 BEFFFFFF 		movl	$-1, %esi
 1476      FF
 1477 00ea 4C89EF   		movq	%r13, %rdi
 1478 00ed C7402877 		movl	$119, 40(%rax)
 1478      000000
 1479 00f4 498B9568 		movq	616(%r13), %rdx
 1479      020000
 1480 00fb 498B4500 		movq	0(%r13), %rax
 1481 00ff 8B5224   		movl	36(%rdx), %edx
 1482 0102 89502C   		movl	%edx, 44(%rax)
 1483 0105 498B4500 		movq	0(%r13), %rax
 1484 0109 44897030 		movl	%r14d, 48(%rax)
 1485 010d 498B4500 		movq	0(%r13), %rax
 1486 0111 FF5008   		call	*8(%rax)
 1487              	.LVL179:
1047:fltk-1.3.4-1/jpeg/jdmarker.c ****   }
 1488              		.loc 1 1047 5 view .LVU494
1047:fltk-1.3.4-1/jpeg/jdmarker.c ****   }
 1489              		.loc 1 1047 10 is_stmt 0 view .LVU495
 1490 0114 498B8568 		movq	616(%r13), %rax
 1490      020000
1047:fltk-1.3.4-1/jpeg/jdmarker.c ****   }
 1491              		.loc 1 1047 36 view .LVU496
 1492 011b C7402400 		movl	$0, 36(%rax)
 1492      000000
 1493              	.L129:
1050:fltk-1.3.4-1/jpeg/jdmarker.c **** 
 1494              		.loc 1 1050 3 is_stmt 1 view .LVU497
1050:fltk-1.3.4-1/jpeg/jdmarker.c **** 
 1495              		.loc 1 1050 24 is_stmt 0 view .LVU498
 1496 0122 4589B53C 		movl	%r14d, 572(%r13)
 1496      020000
1052:fltk-1.3.4-1/jpeg/jdmarker.c ****   return TRUE;
 1497              		.loc 1 1052 3 is_stmt 1 view .LVU499
1053:fltk-1.3.4-1/jpeg/jdmarker.c **** }
 1498              		.loc 1 1053 10 is_stmt 0 view .LVU500
 1499 0129 B8010000 		movl	$1, %eax
 1499      00
1052:fltk-1.3.4-1/jpeg/jdmarker.c ****   return TRUE;
 1500              		.loc 1 1052 3 view .LVU501
 1501 012e 4C896500 		movq	%r12, 0(%rbp)
 1502 0132 48895D08 		movq	%rbx, 8(%rbp)
1053:fltk-1.3.4-1/jpeg/jdmarker.c **** }
 1503              		.loc 1 1053 3 is_stmt 1 view .LVU502
1053:fltk-1.3.4-1/jpeg/jdmarker.c **** }
 1504              		.loc 1 1053 10 is_stmt 0 view .LVU503
 1505 0136 E96FFFFF 		jmp	.L117
 1505      FF
 1506              		.cfi_endproc
 1507              	.LFE64:
 1509              		.section	.text.read_restart_marker,"ax",@progbits
 1510              		.p2align 4
 1512              	read_restart_marker:
 1513              	.LVL180:
 1514              	.LFB67:
1055:fltk-1.3.4-1/jpeg/jdmarker.c **** 
1056:fltk-1.3.4-1/jpeg/jdmarker.c **** 
1057:fltk-1.3.4-1/jpeg/jdmarker.c **** LOCAL(boolean)
1058:fltk-1.3.4-1/jpeg/jdmarker.c **** first_marker (j_decompress_ptr cinfo)
1059:fltk-1.3.4-1/jpeg/jdmarker.c **** /* Like next_marker, but used to obtain the initial SOI marker. */
1060:fltk-1.3.4-1/jpeg/jdmarker.c **** /* For this marker, we do not allow preceding garbage or fill; otherwise,
1061:fltk-1.3.4-1/jpeg/jdmarker.c ****  * we might well scan an entire input file before realizing it ain't JPEG.
1062:fltk-1.3.4-1/jpeg/jdmarker.c ****  * If an application wants to process non-JFIF files, it must seek to the
1063:fltk-1.3.4-1/jpeg/jdmarker.c ****  * SOI before calling the JPEG library.
1064:fltk-1.3.4-1/jpeg/jdmarker.c ****  */
1065:fltk-1.3.4-1/jpeg/jdmarker.c **** {
1066:fltk-1.3.4-1/jpeg/jdmarker.c ****   int c, c2;
1067:fltk-1.3.4-1/jpeg/jdmarker.c ****   INPUT_VARS(cinfo);
1068:fltk-1.3.4-1/jpeg/jdmarker.c **** 
1069:fltk-1.3.4-1/jpeg/jdmarker.c ****   INPUT_BYTE(cinfo, c, return FALSE);
1070:fltk-1.3.4-1/jpeg/jdmarker.c ****   INPUT_BYTE(cinfo, c2, return FALSE);
1071:fltk-1.3.4-1/jpeg/jdmarker.c ****   if (c != 0xFF || c2 != (int) M_SOI)
1072:fltk-1.3.4-1/jpeg/jdmarker.c ****     ERREXIT2(cinfo, JERR_NO_SOI, c, c2);
1073:fltk-1.3.4-1/jpeg/jdmarker.c **** 
1074:fltk-1.3.4-1/jpeg/jdmarker.c ****   cinfo->unread_marker = c2;
1075:fltk-1.3.4-1/jpeg/jdmarker.c **** 
1076:fltk-1.3.4-1/jpeg/jdmarker.c ****   INPUT_SYNC(cinfo);
1077:fltk-1.3.4-1/jpeg/jdmarker.c ****   return TRUE;
1078:fltk-1.3.4-1/jpeg/jdmarker.c **** }
1079:fltk-1.3.4-1/jpeg/jdmarker.c **** 
1080:fltk-1.3.4-1/jpeg/jdmarker.c **** 
1081:fltk-1.3.4-1/jpeg/jdmarker.c **** /*
1082:fltk-1.3.4-1/jpeg/jdmarker.c ****  * Read markers until SOS or EOI.
1083:fltk-1.3.4-1/jpeg/jdmarker.c ****  *
1084:fltk-1.3.4-1/jpeg/jdmarker.c ****  * Returns same codes as are defined for jpeg_consume_input:
1085:fltk-1.3.4-1/jpeg/jdmarker.c ****  * JPEG_SUSPENDED, JPEG_REACHED_SOS, or JPEG_REACHED_EOI.
1086:fltk-1.3.4-1/jpeg/jdmarker.c ****  *
1087:fltk-1.3.4-1/jpeg/jdmarker.c ****  * Note: This function may return a pseudo SOS marker (with zero
1088:fltk-1.3.4-1/jpeg/jdmarker.c ****  * component number) for treat by input controller's consume_input.
1089:fltk-1.3.4-1/jpeg/jdmarker.c ****  * consume_input itself should filter out (skip) the pseudo marker
1090:fltk-1.3.4-1/jpeg/jdmarker.c ****  * after processing for the caller.
1091:fltk-1.3.4-1/jpeg/jdmarker.c ****  */
1092:fltk-1.3.4-1/jpeg/jdmarker.c **** 
1093:fltk-1.3.4-1/jpeg/jdmarker.c **** METHODDEF(int)
1094:fltk-1.3.4-1/jpeg/jdmarker.c **** read_markers (j_decompress_ptr cinfo)
1095:fltk-1.3.4-1/jpeg/jdmarker.c **** {
1096:fltk-1.3.4-1/jpeg/jdmarker.c ****   /* Outer loop repeats once for each marker. */
1097:fltk-1.3.4-1/jpeg/jdmarker.c ****   for (;;) {
1098:fltk-1.3.4-1/jpeg/jdmarker.c ****     /* Collect the marker proper, unless we already did. */
1099:fltk-1.3.4-1/jpeg/jdmarker.c ****     /* NB: first_marker() enforces the requirement that SOI appear first. */
1100:fltk-1.3.4-1/jpeg/jdmarker.c ****     if (cinfo->unread_marker == 0) {
1101:fltk-1.3.4-1/jpeg/jdmarker.c ****       if (! cinfo->marker->saw_SOI) {
1102:fltk-1.3.4-1/jpeg/jdmarker.c **** 	if (! first_marker(cinfo))
1103:fltk-1.3.4-1/jpeg/jdmarker.c **** 	  return JPEG_SUSPENDED;
1104:fltk-1.3.4-1/jpeg/jdmarker.c ****       } else {
1105:fltk-1.3.4-1/jpeg/jdmarker.c **** 	if (! next_marker(cinfo))
1106:fltk-1.3.4-1/jpeg/jdmarker.c **** 	  return JPEG_SUSPENDED;
1107:fltk-1.3.4-1/jpeg/jdmarker.c ****       }
1108:fltk-1.3.4-1/jpeg/jdmarker.c ****     }
1109:fltk-1.3.4-1/jpeg/jdmarker.c ****     /* At this point cinfo->unread_marker contains the marker code and the
1110:fltk-1.3.4-1/jpeg/jdmarker.c ****      * input point is just past the marker proper, but before any parameters.
1111:fltk-1.3.4-1/jpeg/jdmarker.c ****      * A suspension will cause us to return with this state still true.
1112:fltk-1.3.4-1/jpeg/jdmarker.c ****      */
1113:fltk-1.3.4-1/jpeg/jdmarker.c ****     switch (cinfo->unread_marker) {
1114:fltk-1.3.4-1/jpeg/jdmarker.c ****     case M_SOI:
1115:fltk-1.3.4-1/jpeg/jdmarker.c ****       if (! get_soi(cinfo))
1116:fltk-1.3.4-1/jpeg/jdmarker.c **** 	return JPEG_SUSPENDED;
1117:fltk-1.3.4-1/jpeg/jdmarker.c ****       break;
1118:fltk-1.3.4-1/jpeg/jdmarker.c **** 
1119:fltk-1.3.4-1/jpeg/jdmarker.c ****     case M_SOF0:		/* Baseline */
1120:fltk-1.3.4-1/jpeg/jdmarker.c ****       if (! get_sof(cinfo, TRUE, FALSE, FALSE))
1121:fltk-1.3.4-1/jpeg/jdmarker.c **** 	return JPEG_SUSPENDED;
1122:fltk-1.3.4-1/jpeg/jdmarker.c ****       break;
1123:fltk-1.3.4-1/jpeg/jdmarker.c **** 
1124:fltk-1.3.4-1/jpeg/jdmarker.c ****     case M_SOF1:		/* Extended sequential, Huffman */
1125:fltk-1.3.4-1/jpeg/jdmarker.c ****       if (! get_sof(cinfo, FALSE, FALSE, FALSE))
1126:fltk-1.3.4-1/jpeg/jdmarker.c **** 	return JPEG_SUSPENDED;
1127:fltk-1.3.4-1/jpeg/jdmarker.c ****       break;
1128:fltk-1.3.4-1/jpeg/jdmarker.c **** 
1129:fltk-1.3.4-1/jpeg/jdmarker.c ****     case M_SOF2:		/* Progressive, Huffman */
1130:fltk-1.3.4-1/jpeg/jdmarker.c ****       if (! get_sof(cinfo, FALSE, TRUE, FALSE))
1131:fltk-1.3.4-1/jpeg/jdmarker.c **** 	return JPEG_SUSPENDED;
1132:fltk-1.3.4-1/jpeg/jdmarker.c ****       break;
1133:fltk-1.3.4-1/jpeg/jdmarker.c **** 
1134:fltk-1.3.4-1/jpeg/jdmarker.c ****     case M_SOF9:		/* Extended sequential, arithmetic */
1135:fltk-1.3.4-1/jpeg/jdmarker.c ****       if (! get_sof(cinfo, FALSE, FALSE, TRUE))
1136:fltk-1.3.4-1/jpeg/jdmarker.c **** 	return JPEG_SUSPENDED;
1137:fltk-1.3.4-1/jpeg/jdmarker.c ****       break;
1138:fltk-1.3.4-1/jpeg/jdmarker.c **** 
1139:fltk-1.3.4-1/jpeg/jdmarker.c ****     case M_SOF10:		/* Progressive, arithmetic */
1140:fltk-1.3.4-1/jpeg/jdmarker.c ****       if (! get_sof(cinfo, FALSE, TRUE, TRUE))
1141:fltk-1.3.4-1/jpeg/jdmarker.c **** 	return JPEG_SUSPENDED;
1142:fltk-1.3.4-1/jpeg/jdmarker.c ****       break;
1143:fltk-1.3.4-1/jpeg/jdmarker.c **** 
1144:fltk-1.3.4-1/jpeg/jdmarker.c ****     /* Currently unsupported SOFn types */
1145:fltk-1.3.4-1/jpeg/jdmarker.c ****     case M_SOF3:		/* Lossless, Huffman */
1146:fltk-1.3.4-1/jpeg/jdmarker.c ****     case M_SOF5:		/* Differential sequential, Huffman */
1147:fltk-1.3.4-1/jpeg/jdmarker.c ****     case M_SOF6:		/* Differential progressive, Huffman */
1148:fltk-1.3.4-1/jpeg/jdmarker.c ****     case M_SOF7:		/* Differential lossless, Huffman */
1149:fltk-1.3.4-1/jpeg/jdmarker.c ****     case M_JPG:			/* Reserved for JPEG extensions */
1150:fltk-1.3.4-1/jpeg/jdmarker.c ****     case M_SOF11:		/* Lossless, arithmetic */
1151:fltk-1.3.4-1/jpeg/jdmarker.c ****     case M_SOF13:		/* Differential sequential, arithmetic */
1152:fltk-1.3.4-1/jpeg/jdmarker.c ****     case M_SOF14:		/* Differential progressive, arithmetic */
1153:fltk-1.3.4-1/jpeg/jdmarker.c ****     case M_SOF15:		/* Differential lossless, arithmetic */
1154:fltk-1.3.4-1/jpeg/jdmarker.c ****       ERREXIT1(cinfo, JERR_SOF_UNSUPPORTED, cinfo->unread_marker);
1155:fltk-1.3.4-1/jpeg/jdmarker.c ****       break;
1156:fltk-1.3.4-1/jpeg/jdmarker.c **** 
1157:fltk-1.3.4-1/jpeg/jdmarker.c ****     case M_SOS:
1158:fltk-1.3.4-1/jpeg/jdmarker.c ****       if (! get_sos(cinfo))
1159:fltk-1.3.4-1/jpeg/jdmarker.c **** 	return JPEG_SUSPENDED;
1160:fltk-1.3.4-1/jpeg/jdmarker.c ****       cinfo->unread_marker = 0;	/* processed the marker */
1161:fltk-1.3.4-1/jpeg/jdmarker.c ****       return JPEG_REACHED_SOS;
1162:fltk-1.3.4-1/jpeg/jdmarker.c **** 
1163:fltk-1.3.4-1/jpeg/jdmarker.c ****     case M_EOI:
1164:fltk-1.3.4-1/jpeg/jdmarker.c ****       TRACEMS(cinfo, 1, JTRC_EOI);
1165:fltk-1.3.4-1/jpeg/jdmarker.c ****       cinfo->unread_marker = 0;	/* processed the marker */
1166:fltk-1.3.4-1/jpeg/jdmarker.c ****       return JPEG_REACHED_EOI;
1167:fltk-1.3.4-1/jpeg/jdmarker.c **** 
1168:fltk-1.3.4-1/jpeg/jdmarker.c ****     case M_DAC:
1169:fltk-1.3.4-1/jpeg/jdmarker.c ****       if (! get_dac(cinfo))
1170:fltk-1.3.4-1/jpeg/jdmarker.c **** 	return JPEG_SUSPENDED;
1171:fltk-1.3.4-1/jpeg/jdmarker.c ****       break;
1172:fltk-1.3.4-1/jpeg/jdmarker.c **** 
1173:fltk-1.3.4-1/jpeg/jdmarker.c ****     case M_DHT:
1174:fltk-1.3.4-1/jpeg/jdmarker.c ****       if (! get_dht(cinfo))
1175:fltk-1.3.4-1/jpeg/jdmarker.c **** 	return JPEG_SUSPENDED;
1176:fltk-1.3.4-1/jpeg/jdmarker.c ****       break;
1177:fltk-1.3.4-1/jpeg/jdmarker.c **** 
1178:fltk-1.3.4-1/jpeg/jdmarker.c ****     case M_DQT:
1179:fltk-1.3.4-1/jpeg/jdmarker.c ****       if (! get_dqt(cinfo))
1180:fltk-1.3.4-1/jpeg/jdmarker.c **** 	return JPEG_SUSPENDED;
1181:fltk-1.3.4-1/jpeg/jdmarker.c ****       break;
1182:fltk-1.3.4-1/jpeg/jdmarker.c **** 
1183:fltk-1.3.4-1/jpeg/jdmarker.c ****     case M_DRI:
1184:fltk-1.3.4-1/jpeg/jdmarker.c ****       if (! get_dri(cinfo))
1185:fltk-1.3.4-1/jpeg/jdmarker.c **** 	return JPEG_SUSPENDED;
1186:fltk-1.3.4-1/jpeg/jdmarker.c ****       break;
1187:fltk-1.3.4-1/jpeg/jdmarker.c **** 
1188:fltk-1.3.4-1/jpeg/jdmarker.c ****     case M_JPG8:
1189:fltk-1.3.4-1/jpeg/jdmarker.c ****       if (! get_lse(cinfo))
1190:fltk-1.3.4-1/jpeg/jdmarker.c **** 	return JPEG_SUSPENDED;
1191:fltk-1.3.4-1/jpeg/jdmarker.c ****       break;
1192:fltk-1.3.4-1/jpeg/jdmarker.c **** 
1193:fltk-1.3.4-1/jpeg/jdmarker.c ****     case M_APP0:
1194:fltk-1.3.4-1/jpeg/jdmarker.c ****     case M_APP1:
1195:fltk-1.3.4-1/jpeg/jdmarker.c ****     case M_APP2:
1196:fltk-1.3.4-1/jpeg/jdmarker.c ****     case M_APP3:
1197:fltk-1.3.4-1/jpeg/jdmarker.c ****     case M_APP4:
1198:fltk-1.3.4-1/jpeg/jdmarker.c ****     case M_APP5:
1199:fltk-1.3.4-1/jpeg/jdmarker.c ****     case M_APP6:
1200:fltk-1.3.4-1/jpeg/jdmarker.c ****     case M_APP7:
1201:fltk-1.3.4-1/jpeg/jdmarker.c ****     case M_APP8:
1202:fltk-1.3.4-1/jpeg/jdmarker.c ****     case M_APP9:
1203:fltk-1.3.4-1/jpeg/jdmarker.c ****     case M_APP10:
1204:fltk-1.3.4-1/jpeg/jdmarker.c ****     case M_APP11:
1205:fltk-1.3.4-1/jpeg/jdmarker.c ****     case M_APP12:
1206:fltk-1.3.4-1/jpeg/jdmarker.c ****     case M_APP13:
1207:fltk-1.3.4-1/jpeg/jdmarker.c ****     case M_APP14:
1208:fltk-1.3.4-1/jpeg/jdmarker.c ****     case M_APP15:
1209:fltk-1.3.4-1/jpeg/jdmarker.c ****       if (! (*((my_marker_ptr) cinfo->marker)->process_APPn[
1210:fltk-1.3.4-1/jpeg/jdmarker.c **** 		cinfo->unread_marker - (int) M_APP0]) (cinfo))
1211:fltk-1.3.4-1/jpeg/jdmarker.c **** 	return JPEG_SUSPENDED;
1212:fltk-1.3.4-1/jpeg/jdmarker.c ****       break;
1213:fltk-1.3.4-1/jpeg/jdmarker.c **** 
1214:fltk-1.3.4-1/jpeg/jdmarker.c ****     case M_COM:
1215:fltk-1.3.4-1/jpeg/jdmarker.c ****       if (! (*((my_marker_ptr) cinfo->marker)->process_COM) (cinfo))
1216:fltk-1.3.4-1/jpeg/jdmarker.c **** 	return JPEG_SUSPENDED;
1217:fltk-1.3.4-1/jpeg/jdmarker.c ****       break;
1218:fltk-1.3.4-1/jpeg/jdmarker.c **** 
1219:fltk-1.3.4-1/jpeg/jdmarker.c ****     case M_RST0:		/* these are all parameterless */
1220:fltk-1.3.4-1/jpeg/jdmarker.c ****     case M_RST1:
1221:fltk-1.3.4-1/jpeg/jdmarker.c ****     case M_RST2:
1222:fltk-1.3.4-1/jpeg/jdmarker.c ****     case M_RST3:
1223:fltk-1.3.4-1/jpeg/jdmarker.c ****     case M_RST4:
1224:fltk-1.3.4-1/jpeg/jdmarker.c ****     case M_RST5:
1225:fltk-1.3.4-1/jpeg/jdmarker.c ****     case M_RST6:
1226:fltk-1.3.4-1/jpeg/jdmarker.c ****     case M_RST7:
1227:fltk-1.3.4-1/jpeg/jdmarker.c ****     case M_TEM:
1228:fltk-1.3.4-1/jpeg/jdmarker.c ****       TRACEMS1(cinfo, 1, JTRC_PARMLESS_MARKER, cinfo->unread_marker);
1229:fltk-1.3.4-1/jpeg/jdmarker.c ****       break;
1230:fltk-1.3.4-1/jpeg/jdmarker.c **** 
1231:fltk-1.3.4-1/jpeg/jdmarker.c ****     case M_DNL:			/* Ignore DNL ... perhaps the wrong thing */
1232:fltk-1.3.4-1/jpeg/jdmarker.c ****       if (! skip_variable(cinfo))
1233:fltk-1.3.4-1/jpeg/jdmarker.c **** 	return JPEG_SUSPENDED;
1234:fltk-1.3.4-1/jpeg/jdmarker.c ****       break;
1235:fltk-1.3.4-1/jpeg/jdmarker.c **** 
1236:fltk-1.3.4-1/jpeg/jdmarker.c ****     default:			/* must be DHP, EXP, JPGn, or RESn */
1237:fltk-1.3.4-1/jpeg/jdmarker.c ****       /* For now, we treat the reserved markers as fatal errors since they are
1238:fltk-1.3.4-1/jpeg/jdmarker.c ****        * likely to be used to signal incompatible JPEG Part 3 extensions.
1239:fltk-1.3.4-1/jpeg/jdmarker.c ****        * Once the JPEG 3 version-number marker is well defined, this code
1240:fltk-1.3.4-1/jpeg/jdmarker.c ****        * ought to change!
1241:fltk-1.3.4-1/jpeg/jdmarker.c ****        */
1242:fltk-1.3.4-1/jpeg/jdmarker.c ****       ERREXIT1(cinfo, JERR_UNKNOWN_MARKER, cinfo->unread_marker);
1243:fltk-1.3.4-1/jpeg/jdmarker.c ****       break;
1244:fltk-1.3.4-1/jpeg/jdmarker.c ****     }
1245:fltk-1.3.4-1/jpeg/jdmarker.c ****     /* Successfully processed marker, so reset state variable */
1246:fltk-1.3.4-1/jpeg/jdmarker.c ****     cinfo->unread_marker = 0;
1247:fltk-1.3.4-1/jpeg/jdmarker.c ****   } /* end loop */
1248:fltk-1.3.4-1/jpeg/jdmarker.c **** }
1249:fltk-1.3.4-1/jpeg/jdmarker.c **** 
1250:fltk-1.3.4-1/jpeg/jdmarker.c **** 
1251:fltk-1.3.4-1/jpeg/jdmarker.c **** /*
1252:fltk-1.3.4-1/jpeg/jdmarker.c ****  * Read a restart marker, which is expected to appear next in the datastream;
1253:fltk-1.3.4-1/jpeg/jdmarker.c ****  * if the marker is not there, take appropriate recovery action.
1254:fltk-1.3.4-1/jpeg/jdmarker.c ****  * Returns FALSE if suspension is required.
1255:fltk-1.3.4-1/jpeg/jdmarker.c ****  *
1256:fltk-1.3.4-1/jpeg/jdmarker.c ****  * This is called by the entropy decoder after it has read an appropriate
1257:fltk-1.3.4-1/jpeg/jdmarker.c ****  * number of MCUs.  cinfo->unread_marker may be nonzero if the entropy decoder
1258:fltk-1.3.4-1/jpeg/jdmarker.c ****  * has already read a marker from the data source.  Under normal conditions
1259:fltk-1.3.4-1/jpeg/jdmarker.c ****  * cinfo->unread_marker will be reset to 0 before returning; if not reset,
1260:fltk-1.3.4-1/jpeg/jdmarker.c ****  * it holds a marker which the decoder will be unable to read past.
1261:fltk-1.3.4-1/jpeg/jdmarker.c ****  */
1262:fltk-1.3.4-1/jpeg/jdmarker.c **** 
1263:fltk-1.3.4-1/jpeg/jdmarker.c **** METHODDEF(boolean)
1264:fltk-1.3.4-1/jpeg/jdmarker.c **** read_restart_marker (j_decompress_ptr cinfo)
1265:fltk-1.3.4-1/jpeg/jdmarker.c **** {
 1515              		.loc 1 1265 1 is_stmt 1 view -0
 1516              		.cfi_startproc
 1517              		.loc 1 1265 1 is_stmt 0 view .LVU505
 1518 0000 F30F1EFA 		endbr64
1266:fltk-1.3.4-1/jpeg/jdmarker.c ****   /* Obtain a marker unless we already did. */
1267:fltk-1.3.4-1/jpeg/jdmarker.c ****   /* Note that next_marker will complain if it skips any data. */
1268:fltk-1.3.4-1/jpeg/jdmarker.c ****   if (cinfo->unread_marker == 0) {
 1519              		.loc 1 1268 3 is_stmt 1 view .LVU506
1265:fltk-1.3.4-1/jpeg/jdmarker.c ****   /* Obtain a marker unless we already did. */
 1520              		.loc 1 1265 1 is_stmt 0 view .LVU507
 1521 0004 53       		pushq	%rbx
 1522              		.cfi_def_cfa_offset 16
 1523              		.cfi_offset 3, -16
 1524              		.loc 1 1268 12 view .LVU508
 1525 0005 8B873C02 		movl	572(%rdi), %eax
 1525      0000
1265:fltk-1.3.4-1/jpeg/jdmarker.c ****   /* Obtain a marker unless we already did. */
 1526              		.loc 1 1265 1 view .LVU509
 1527 000b 4889FB   		movq	%rdi, %rbx
 1528              		.loc 1 1268 6 view .LVU510
 1529 000e 85C0     		testl	%eax, %eax
 1530 0010 7446     		je	.L161
 1531              	.LVL181:
 1532              	.L151:
1269:fltk-1.3.4-1/jpeg/jdmarker.c ****     if (! next_marker(cinfo))
1270:fltk-1.3.4-1/jpeg/jdmarker.c ****       return FALSE;
1271:fltk-1.3.4-1/jpeg/jdmarker.c ****   }
1272:fltk-1.3.4-1/jpeg/jdmarker.c **** 
1273:fltk-1.3.4-1/jpeg/jdmarker.c ****   if (cinfo->unread_marker ==
 1533              		.loc 1 1273 3 is_stmt 1 view .LVU511
1274:fltk-1.3.4-1/jpeg/jdmarker.c ****       ((int) M_RST0 + cinfo->marker->next_restart_num)) {
 1534              		.loc 1 1274 36 is_stmt 0 view .LVU512
 1535 0012 488B9368 		movq	616(%rbx), %rdx
 1535      020000
 1536 0019 8B7220   		movl	32(%rdx), %esi
 1537              		.loc 1 1274 21 view .LVU513
 1538 001c 8D96D000 		leal	208(%rsi), %edx
 1538      0000
1273:fltk-1.3.4-1/jpeg/jdmarker.c ****       ((int) M_RST0 + cinfo->marker->next_restart_num)) {
 1539              		.loc 1 1273 6 view .LVU514
 1540 0022 39C2     		cmpl	%eax, %edx
 1541 0024 744A     		je	.L162
1275:fltk-1.3.4-1/jpeg/jdmarker.c ****     /* Normal case --- swallow the marker and let entropy decoder continue */
1276:fltk-1.3.4-1/jpeg/jdmarker.c ****     TRACEMS1(cinfo, 3, JTRC_RST, cinfo->marker->next_restart_num);
1277:fltk-1.3.4-1/jpeg/jdmarker.c ****     cinfo->unread_marker = 0;
1278:fltk-1.3.4-1/jpeg/jdmarker.c ****   } else {
1279:fltk-1.3.4-1/jpeg/jdmarker.c ****     /* Uh-oh, the restart markers have been messed up. */
1280:fltk-1.3.4-1/jpeg/jdmarker.c ****     /* Let the data source manager determine how to resync. */
1281:fltk-1.3.4-1/jpeg/jdmarker.c ****     if (! (*cinfo->src->resync_to_restart) (cinfo,
 1542              		.loc 1 1281 5 is_stmt 1 view .LVU515
 1543              		.loc 1 1281 12 is_stmt 0 view .LVU516
 1544 0026 488B4328 		movq	40(%rbx), %rax
 1545 002a 4889DF   		movq	%rbx, %rdi
 1546 002d FF5028   		call	*40(%rax)
 1547              	.LVL182:
 1548              		.loc 1 1281 8 view .LVU517
 1549 0030 85C0     		testl	%eax, %eax
 1550 0032 741C     		je	.L156
 1551              	.L155:
1282:fltk-1.3.4-1/jpeg/jdmarker.c **** 					    cinfo->marker->next_restart_num))
1283:fltk-1.3.4-1/jpeg/jdmarker.c ****       return FALSE;
1284:fltk-1.3.4-1/jpeg/jdmarker.c ****   }
1285:fltk-1.3.4-1/jpeg/jdmarker.c **** 
1286:fltk-1.3.4-1/jpeg/jdmarker.c ****   /* Update next-restart state */
1287:fltk-1.3.4-1/jpeg/jdmarker.c ****   cinfo->marker->next_restart_num = (cinfo->marker->next_restart_num + 1) & 7;
 1552              		.loc 1 1287 3 is_stmt 1 view .LVU518
 1553              		.loc 1 1287 43 is_stmt 0 view .LVU519
 1554 0034 488B9368 		movq	616(%rbx), %rdx
 1554      020000
 1555              		.loc 1 1287 70 view .LVU520
 1556 003b 8B4220   		movl	32(%rdx), %eax
 1557 003e 83C001   		addl	$1, %eax
 1558              		.loc 1 1287 75 view .LVU521
 1559 0041 83E007   		andl	$7, %eax
 1560 0044 894220   		movl	%eax, 32(%rdx)
1288:fltk-1.3.4-1/jpeg/jdmarker.c **** 
1289:fltk-1.3.4-1/jpeg/jdmarker.c ****   return TRUE;
 1561              		.loc 1 1289 3 is_stmt 1 view .LVU522
 1562              		.loc 1 1289 10 is_stmt 0 view .LVU523
 1563 0047 B8010000 		movl	$1, %eax
 1563      00
1290:fltk-1.3.4-1/jpeg/jdmarker.c **** }
 1564              		.loc 1 1290 1 view .LVU524
 1565 004c 5B       		popq	%rbx
 1566              		.cfi_remember_state
 1567              		.cfi_def_cfa_offset 8
 1568              	.LVL183:
 1569              		.loc 1 1290 1 view .LVU525
 1570 004d C3       		ret
 1571              	.LVL184:
 1572 004e 6690     		.p2align 4,,10
 1573              		.p2align 3
 1574              	.L156:
 1575              		.cfi_restore_state
1270:fltk-1.3.4-1/jpeg/jdmarker.c ****   }
 1576              		.loc 1 1270 14 view .LVU526
 1577 0050 31C0     		xorl	%eax, %eax
 1578              		.loc 1 1290 1 view .LVU527
 1579 0052 5B       		popq	%rbx
 1580              		.cfi_remember_state
 1581              		.cfi_def_cfa_offset 8
 1582              	.LVL185:
 1583              		.loc 1 1290 1 view .LVU528
 1584 0053 C3       		ret
 1585              	.LVL186:
 1586              		.p2align 4,,10
 1587 0054 0F1F4000 		.p2align 3
 1588              	.L161:
 1589              		.cfi_restore_state
1269:fltk-1.3.4-1/jpeg/jdmarker.c ****       return FALSE;
 1590              		.loc 1 1269 5 is_stmt 1 view .LVU529
1269:fltk-1.3.4-1/jpeg/jdmarker.c ****       return FALSE;
 1591              		.loc 1 1269 11 is_stmt 0 view .LVU530
 1592 0058 E8000000 		call	next_marker
 1592      00
 1593              	.LVL187:
1269:fltk-1.3.4-1/jpeg/jdmarker.c ****       return FALSE;
 1594              		.loc 1 1269 8 view .LVU531
 1595 005d 85C0     		testl	%eax, %eax
 1596 005f 74EF     		je	.L156
 1597 0061 8B833C02 		movl	572(%rbx), %eax
 1597      0000
 1598 0067 EBA9     		jmp	.L151
 1599 0069 0F1F8000 		.p2align 4,,10
 1599      000000
 1600              		.p2align 3
 1601              	.L162:
1276:fltk-1.3.4-1/jpeg/jdmarker.c ****     cinfo->unread_marker = 0;
 1602              		.loc 1 1276 5 is_stmt 1 view .LVU532
 1603 0070 488B03   		movq	(%rbx), %rax
 1604 0073 BE030000 		movl	$3, %esi
 1604      00
 1605 0078 4889DF   		movq	%rbx, %rdi
 1606 007b C7402864 		movl	$100, 40(%rax)
 1606      000000
 1607 0082 488B9368 		movq	616(%rbx), %rdx
 1607      020000
 1608 0089 488B03   		movq	(%rbx), %rax
 1609 008c 8B5220   		movl	32(%rdx), %edx
 1610 008f 89502C   		movl	%edx, 44(%rax)
 1611 0092 488B03   		movq	(%rbx), %rax
 1612 0095 FF5008   		call	*8(%rax)
 1613              	.LVL188:
1277:fltk-1.3.4-1/jpeg/jdmarker.c ****   } else {
 1614              		.loc 1 1277 5 view .LVU533
1277:fltk-1.3.4-1/jpeg/jdmarker.c ****   } else {
 1615              		.loc 1 1277 26 is_stmt 0 view .LVU534
 1616 0098 C7833C02 		movl	$0, 572(%rbx)
 1616      00000000 
 1616      0000
 1617 00a2 EB90     		jmp	.L155
 1618              		.cfi_endproc
 1619              	.LFE67:
 1621              		.section	.text.reset_marker_reader,"ax",@progbits
 1622              		.p2align 4
 1624              	reset_marker_reader:
 1625              	.LVL189:
 1626              	.LFB69:
1291:fltk-1.3.4-1/jpeg/jdmarker.c **** 
1292:fltk-1.3.4-1/jpeg/jdmarker.c **** 
1293:fltk-1.3.4-1/jpeg/jdmarker.c **** /*
1294:fltk-1.3.4-1/jpeg/jdmarker.c ****  * This is the default resync_to_restart method for data source managers
1295:fltk-1.3.4-1/jpeg/jdmarker.c ****  * to use if they don't have any better approach.  Some data source managers
1296:fltk-1.3.4-1/jpeg/jdmarker.c ****  * may be able to back up, or may have additional knowledge about the data
1297:fltk-1.3.4-1/jpeg/jdmarker.c ****  * which permits a more intelligent recovery strategy; such managers would
1298:fltk-1.3.4-1/jpeg/jdmarker.c ****  * presumably supply their own resync method.
1299:fltk-1.3.4-1/jpeg/jdmarker.c ****  *
1300:fltk-1.3.4-1/jpeg/jdmarker.c ****  * read_restart_marker calls resync_to_restart if it finds a marker other than
1301:fltk-1.3.4-1/jpeg/jdmarker.c ****  * the restart marker it was expecting.  (This code is *not* used unless
1302:fltk-1.3.4-1/jpeg/jdmarker.c ****  * a nonzero restart interval has been declared.)  cinfo->unread_marker is
1303:fltk-1.3.4-1/jpeg/jdmarker.c ****  * the marker code actually found (might be anything, except 0 or FF).
1304:fltk-1.3.4-1/jpeg/jdmarker.c ****  * The desired restart marker number (0..7) is passed as a parameter.
1305:fltk-1.3.4-1/jpeg/jdmarker.c ****  * This routine is supposed to apply whatever error recovery strategy seems
1306:fltk-1.3.4-1/jpeg/jdmarker.c ****  * appropriate in order to position the input stream to the next data segment.
1307:fltk-1.3.4-1/jpeg/jdmarker.c ****  * Note that cinfo->unread_marker is treated as a marker appearing before
1308:fltk-1.3.4-1/jpeg/jdmarker.c ****  * the current data-source input point; usually it should be reset to zero
1309:fltk-1.3.4-1/jpeg/jdmarker.c ****  * before returning.
1310:fltk-1.3.4-1/jpeg/jdmarker.c ****  * Returns FALSE if suspension is required.
1311:fltk-1.3.4-1/jpeg/jdmarker.c ****  *
1312:fltk-1.3.4-1/jpeg/jdmarker.c ****  * This implementation is substantially constrained by wanting to treat the
1313:fltk-1.3.4-1/jpeg/jdmarker.c ****  * input as a data stream; this means we can't back up.  Therefore, we have
1314:fltk-1.3.4-1/jpeg/jdmarker.c ****  * only the following actions to work with:
1315:fltk-1.3.4-1/jpeg/jdmarker.c ****  *   1. Simply discard the marker and let the entropy decoder resume at next
1316:fltk-1.3.4-1/jpeg/jdmarker.c ****  *      byte of file.
1317:fltk-1.3.4-1/jpeg/jdmarker.c ****  *   2. Read forward until we find another marker, discarding intervening
1318:fltk-1.3.4-1/jpeg/jdmarker.c ****  *      data.  (In theory we could look ahead within the current bufferload,
1319:fltk-1.3.4-1/jpeg/jdmarker.c ****  *      without having to discard data if we don't find the desired marker.
1320:fltk-1.3.4-1/jpeg/jdmarker.c ****  *      This idea is not implemented here, in part because it makes behavior
1321:fltk-1.3.4-1/jpeg/jdmarker.c ****  *      dependent on buffer size and chance buffer-boundary positions.)
1322:fltk-1.3.4-1/jpeg/jdmarker.c ****  *   3. Leave the marker unread (by failing to zero cinfo->unread_marker).
1323:fltk-1.3.4-1/jpeg/jdmarker.c ****  *      This will cause the entropy decoder to process an empty data segment,
1324:fltk-1.3.4-1/jpeg/jdmarker.c ****  *      inserting dummy zeroes, and then we will reprocess the marker.
1325:fltk-1.3.4-1/jpeg/jdmarker.c ****  *
1326:fltk-1.3.4-1/jpeg/jdmarker.c ****  * #2 is appropriate if we think the desired marker lies ahead, while #3 is
1327:fltk-1.3.4-1/jpeg/jdmarker.c ****  * appropriate if the found marker is a future restart marker (indicating
1328:fltk-1.3.4-1/jpeg/jdmarker.c ****  * that we have missed the desired restart marker, probably because it got
1329:fltk-1.3.4-1/jpeg/jdmarker.c ****  * corrupted).
1330:fltk-1.3.4-1/jpeg/jdmarker.c ****  * We apply #2 or #3 if the found marker is a restart marker no more than
1331:fltk-1.3.4-1/jpeg/jdmarker.c ****  * two counts behind or ahead of the expected one.  We also apply #2 if the
1332:fltk-1.3.4-1/jpeg/jdmarker.c ****  * found marker is not a legal JPEG marker code (it's certainly bogus data).
1333:fltk-1.3.4-1/jpeg/jdmarker.c ****  * If the found marker is a restart marker more than 2 counts away, we do #1
1334:fltk-1.3.4-1/jpeg/jdmarker.c ****  * (too much risk that the marker is erroneous; with luck we will be able to
1335:fltk-1.3.4-1/jpeg/jdmarker.c ****  * resync at some future point).
1336:fltk-1.3.4-1/jpeg/jdmarker.c ****  * For any valid non-restart JPEG marker, we apply #3.  This keeps us from
1337:fltk-1.3.4-1/jpeg/jdmarker.c ****  * overrunning the end of a scan.  An implementation limited to single-scan
1338:fltk-1.3.4-1/jpeg/jdmarker.c ****  * files might find it better to apply #2 for markers other than EOI, since
1339:fltk-1.3.4-1/jpeg/jdmarker.c ****  * any other marker would have to be bogus data in that case.
1340:fltk-1.3.4-1/jpeg/jdmarker.c ****  */
1341:fltk-1.3.4-1/jpeg/jdmarker.c **** 
1342:fltk-1.3.4-1/jpeg/jdmarker.c **** GLOBAL(boolean)
1343:fltk-1.3.4-1/jpeg/jdmarker.c **** jpeg_resync_to_restart (j_decompress_ptr cinfo, int desired)
1344:fltk-1.3.4-1/jpeg/jdmarker.c **** {
1345:fltk-1.3.4-1/jpeg/jdmarker.c ****   int marker = cinfo->unread_marker;
1346:fltk-1.3.4-1/jpeg/jdmarker.c ****   int action = 1;
1347:fltk-1.3.4-1/jpeg/jdmarker.c ****   
1348:fltk-1.3.4-1/jpeg/jdmarker.c ****   /* Always put up a warning. */
1349:fltk-1.3.4-1/jpeg/jdmarker.c ****   WARNMS2(cinfo, JWRN_MUST_RESYNC, marker, desired);
1350:fltk-1.3.4-1/jpeg/jdmarker.c ****   
1351:fltk-1.3.4-1/jpeg/jdmarker.c ****   /* Outer loop handles repeated decision after scanning forward. */
1352:fltk-1.3.4-1/jpeg/jdmarker.c ****   for (;;) {
1353:fltk-1.3.4-1/jpeg/jdmarker.c ****     if (marker < (int) M_SOF0)
1354:fltk-1.3.4-1/jpeg/jdmarker.c ****       action = 2;		/* invalid marker */
1355:fltk-1.3.4-1/jpeg/jdmarker.c ****     else if (marker < (int) M_RST0 || marker > (int) M_RST7)
1356:fltk-1.3.4-1/jpeg/jdmarker.c ****       action = 3;		/* valid non-restart marker */
1357:fltk-1.3.4-1/jpeg/jdmarker.c ****     else {
1358:fltk-1.3.4-1/jpeg/jdmarker.c ****       if (marker == ((int) M_RST0 + ((desired+1) & 7)) ||
1359:fltk-1.3.4-1/jpeg/jdmarker.c **** 	  marker == ((int) M_RST0 + ((desired+2) & 7)))
1360:fltk-1.3.4-1/jpeg/jdmarker.c **** 	action = 3;		/* one of the next two expected restarts */
1361:fltk-1.3.4-1/jpeg/jdmarker.c ****       else if (marker == ((int) M_RST0 + ((desired-1) & 7)) ||
1362:fltk-1.3.4-1/jpeg/jdmarker.c **** 	       marker == ((int) M_RST0 + ((desired-2) & 7)))
1363:fltk-1.3.4-1/jpeg/jdmarker.c **** 	action = 2;		/* a prior restart, so advance */
1364:fltk-1.3.4-1/jpeg/jdmarker.c ****       else
1365:fltk-1.3.4-1/jpeg/jdmarker.c **** 	action = 1;		/* desired restart or too far away */
1366:fltk-1.3.4-1/jpeg/jdmarker.c ****     }
1367:fltk-1.3.4-1/jpeg/jdmarker.c ****     TRACEMS2(cinfo, 4, JTRC_RECOVERY_ACTION, marker, action);
1368:fltk-1.3.4-1/jpeg/jdmarker.c ****     switch (action) {
1369:fltk-1.3.4-1/jpeg/jdmarker.c ****     case 1:
1370:fltk-1.3.4-1/jpeg/jdmarker.c ****       /* Discard marker and let entropy decoder resume processing. */
1371:fltk-1.3.4-1/jpeg/jdmarker.c ****       cinfo->unread_marker = 0;
1372:fltk-1.3.4-1/jpeg/jdmarker.c ****       return TRUE;
1373:fltk-1.3.4-1/jpeg/jdmarker.c ****     case 2:
1374:fltk-1.3.4-1/jpeg/jdmarker.c ****       /* Scan to the next marker, and repeat the decision loop. */
1375:fltk-1.3.4-1/jpeg/jdmarker.c ****       if (! next_marker(cinfo))
1376:fltk-1.3.4-1/jpeg/jdmarker.c **** 	return FALSE;
1377:fltk-1.3.4-1/jpeg/jdmarker.c ****       marker = cinfo->unread_marker;
1378:fltk-1.3.4-1/jpeg/jdmarker.c ****       break;
1379:fltk-1.3.4-1/jpeg/jdmarker.c ****     case 3:
1380:fltk-1.3.4-1/jpeg/jdmarker.c ****       /* Return without advancing past this marker. */
1381:fltk-1.3.4-1/jpeg/jdmarker.c ****       /* Entropy decoder will be forced to process an empty segment. */
1382:fltk-1.3.4-1/jpeg/jdmarker.c ****       return TRUE;
1383:fltk-1.3.4-1/jpeg/jdmarker.c ****     }
1384:fltk-1.3.4-1/jpeg/jdmarker.c ****   } /* end loop */
1385:fltk-1.3.4-1/jpeg/jdmarker.c **** }
1386:fltk-1.3.4-1/jpeg/jdmarker.c **** 
1387:fltk-1.3.4-1/jpeg/jdmarker.c **** 
1388:fltk-1.3.4-1/jpeg/jdmarker.c **** /*
1389:fltk-1.3.4-1/jpeg/jdmarker.c ****  * Reset marker processing state to begin a fresh datastream.
1390:fltk-1.3.4-1/jpeg/jdmarker.c ****  */
1391:fltk-1.3.4-1/jpeg/jdmarker.c **** 
1392:fltk-1.3.4-1/jpeg/jdmarker.c **** METHODDEF(void)
1393:fltk-1.3.4-1/jpeg/jdmarker.c **** reset_marker_reader (j_decompress_ptr cinfo)
1394:fltk-1.3.4-1/jpeg/jdmarker.c **** {
 1627              		.loc 1 1394 1 is_stmt 1 view -0
 1628              		.cfi_startproc
 1629              		.loc 1 1394 1 is_stmt 0 view .LVU536
 1630 0000 F30F1EFA 		endbr64
1395:fltk-1.3.4-1/jpeg/jdmarker.c ****   my_marker_ptr marker = (my_marker_ptr) cinfo->marker;
 1631              		.loc 1 1395 3 is_stmt 1 view .LVU537
 1632              		.loc 1 1395 17 is_stmt 0 view .LVU538
 1633 0004 488B8768 		movq	616(%rdi), %rax
 1633      020000
 1634              	.LVL190:
1396:fltk-1.3.4-1/jpeg/jdmarker.c **** 
1397:fltk-1.3.4-1/jpeg/jdmarker.c ****   cinfo->comp_info = NULL;		/* until allocated by get_sof */
 1635              		.loc 1 1397 3 is_stmt 1 view .LVU539
 1636              		.loc 1 1397 20 is_stmt 0 view .LVU540
 1637 000b 48C78730 		movq	$0, 304(%rdi)
 1637      01000000 
 1637      000000
1398:fltk-1.3.4-1/jpeg/jdmarker.c ****   cinfo->input_scan_number = 0;		/* no SOS seen yet */
 1638              		.loc 1 1398 3 is_stmt 1 view .LVU541
 1639              		.loc 1 1398 28 is_stmt 0 view .LVU542
 1640 0016 C787AC00 		movl	$0, 172(%rdi)
 1640      00000000 
 1640      0000
1399:fltk-1.3.4-1/jpeg/jdmarker.c ****   cinfo->unread_marker = 0;		/* no pending marker */
 1641              		.loc 1 1399 3 is_stmt 1 view .LVU543
 1642              		.loc 1 1399 24 is_stmt 0 view .LVU544
 1643 0020 C7873C02 		movl	$0, 572(%rdi)
 1643      00000000 
 1643      0000
1400:fltk-1.3.4-1/jpeg/jdmarker.c ****   marker->pub.saw_SOI = FALSE;		/* set internal state too */
 1644              		.loc 1 1400 3 is_stmt 1 view .LVU545
1401:fltk-1.3.4-1/jpeg/jdmarker.c ****   marker->pub.saw_SOF = FALSE;
 1645              		.loc 1 1401 3 view .LVU546
1400:fltk-1.3.4-1/jpeg/jdmarker.c ****   marker->pub.saw_SOI = FALSE;		/* set internal state too */
 1646              		.loc 1 1400 23 is_stmt 0 view .LVU547
 1647 002a 48C74018 		movq	$0, 24(%rax)
 1647      00000000 
1402:fltk-1.3.4-1/jpeg/jdmarker.c ****   marker->pub.discarded_bytes = 0;
 1648              		.loc 1 1402 3 is_stmt 1 view .LVU548
 1649              		.loc 1 1402 31 is_stmt 0 view .LVU549
 1650 0032 C7402400 		movl	$0, 36(%rax)
 1650      000000
1403:fltk-1.3.4-1/jpeg/jdmarker.c ****   marker->cur_marker = NULL;
 1651              		.loc 1 1403 3 is_stmt 1 view .LVU550
 1652              		.loc 1 1403 22 is_stmt 0 view .LVU551
 1653 0039 48C780F8 		movq	$0, 248(%rax)
 1653      00000000 
 1653      000000
1404:fltk-1.3.4-1/jpeg/jdmarker.c **** }
 1654              		.loc 1 1404 1 view .LVU552
 1655 0044 C3       		ret
 1656              		.cfi_endproc
 1657              	.LFE69:
 1659              		.section	.text.examine_app14,"ax",@progbits
 1660              		.p2align 4
 1662              	examine_app14:
 1663              	.LVL191:
 1664              	.LFB60:
 803:fltk-1.3.4-1/jpeg/jdmarker.c ****   unsigned int version, flags0, flags1, transform;
 1665              		.loc 1 803 1 is_stmt 1 view -0
 1666              		.cfi_startproc
 804:fltk-1.3.4-1/jpeg/jdmarker.c **** 
 1667              		.loc 1 804 3 view .LVU554
 806:fltk-1.3.4-1/jpeg/jdmarker.c ****       GETJOCTET(data[0]) == 0x41 &&
 1668              		.loc 1 806 3 view .LVU555
 1669 0000 488B07   		movq	(%rdi), %rax
 806:fltk-1.3.4-1/jpeg/jdmarker.c ****       GETJOCTET(data[0]) == 0x41 &&
 1670              		.loc 1 806 6 is_stmt 0 view .LVU556
 1671 0003 83FA0B   		cmpl	$11, %edx
 1672 0006 7605     		jbe	.L165
 806:fltk-1.3.4-1/jpeg/jdmarker.c ****       GETJOCTET(data[0]) == 0x41 &&
 1673              		.loc 1 806 33 discriminator 1 view .LVU557
 1674 0008 803E41   		cmpb	$65, (%rsi)
 1675 000b 7423     		je	.L171
 1676              	.L165:
 822:fltk-1.3.4-1/jpeg/jdmarker.c ****   }
 1677              		.loc 1 822 5 is_stmt 1 view .LVU558
 1678 000d C7402850 		movl	$80, 40(%rax)
 1678      000000
 1679 0014 488B07   		movq	(%rdi), %rax
 1680 0017 01CA     		addl	%ecx, %edx
 1681              	.LVL192:
 822:fltk-1.3.4-1/jpeg/jdmarker.c ****   }
 1682              		.loc 1 822 5 is_stmt 0 view .LVU559
 1683 0019 BE010000 		movl	$1, %esi
 1683      00
 1684              	.LVL193:
 822:fltk-1.3.4-1/jpeg/jdmarker.c ****   }
 1685              		.loc 1 822 5 view .LVU560
 1686 001e 89502C   		movl	%edx, 44(%rax)
 1687 0021 488B07   		movq	(%rdi), %rax
 1688 0024 488B4008 		movq	8(%rax), %rax
 1689 0028 FFE0     		jmp	*%rax
 1690              	.LVL194:
 1691 002a 660F1F44 		.p2align 4,,10
 1691      0000
 1692              		.p2align 3
 1693              	.L171:
 807:fltk-1.3.4-1/jpeg/jdmarker.c ****       GETJOCTET(data[1]) == 0x64 &&
 1694              		.loc 1 807 34 view .LVU561
 1695 0030 807E0164 		cmpb	$100, 1(%rsi)
 1696 0034 75D7     		jne	.L165
 808:fltk-1.3.4-1/jpeg/jdmarker.c ****       GETJOCTET(data[2]) == 0x6F &&
 1697              		.loc 1 808 34 view .LVU562
 1698 0036 807E026F 		cmpb	$111, 2(%rsi)
 1699 003a 75D1     		jne	.L165
 809:fltk-1.3.4-1/jpeg/jdmarker.c ****       GETJOCTET(data[3]) == 0x62 &&
 1700              		.loc 1 809 34 view .LVU563
 1701 003c 807E0362 		cmpb	$98, 3(%rsi)
 1702 0040 75CB     		jne	.L165
 810:fltk-1.3.4-1/jpeg/jdmarker.c ****       GETJOCTET(data[4]) == 0x65) {
 1703              		.loc 1 810 34 view .LVU564
 1704 0042 807E0465 		cmpb	$101, 4(%rsi)
 1705 0046 75C5     		jne	.L165
 1706              	.LVL195:
 1707              	.LBB30:
 1708              	.LBI30:
 797:fltk-1.3.4-1/jpeg/jdmarker.c **** 	       unsigned int datalen, INT32 remaining)
 1709              		.loc 1 797 1 is_stmt 1 view .LVU565
 1710              	.LBB31:
 813:fltk-1.3.4-1/jpeg/jdmarker.c ****     flags0 = (GETJOCTET(data[7]) << 8) + GETJOCTET(data[8]);
 1711              		.loc 1 813 5 view .LVU566
 814:fltk-1.3.4-1/jpeg/jdmarker.c ****     flags1 = (GETJOCTET(data[9]) << 8) + GETJOCTET(data[10]);
 1712              		.loc 1 814 5 view .LVU567
 1713              	.LBE31:
 1714              	.LBE30:
 803:fltk-1.3.4-1/jpeg/jdmarker.c ****   unsigned int version, flags0, flags1, transform;
 1715              		.loc 1 803 1 is_stmt 0 view .LVU568
 1716 0048 53       		pushq	%rbx
 1717              		.cfi_def_cfa_offset 16
 1718              		.cfi_offset 3, -16
 1719              	.LVL196:
 803:fltk-1.3.4-1/jpeg/jdmarker.c ****   unsigned int version, flags0, flags1, transform;
 1720              		.loc 1 803 1 view .LVU569
 1721 0049 4883EC10 		subq	$16, %rsp
 1722              		.cfi_def_cfa_offset 32
 1723              	.LBB38:
 1724              	.LBB37:
 814:fltk-1.3.4-1/jpeg/jdmarker.c ****     flags1 = (GETJOCTET(data[9]) << 8) + GETJOCTET(data[10]);
 1725              		.loc 1 814 15 view .LVU570
 1726 004d 0FB64E07 		movzbl	7(%rsi), %ecx
 1727              	.LVL197:
 814:fltk-1.3.4-1/jpeg/jdmarker.c ****     flags1 = (GETJOCTET(data[9]) << 8) + GETJOCTET(data[10]);
 1728              		.loc 1 814 42 view .LVU571
 1729 0051 0FB65608 		movzbl	8(%rsi), %edx
 1730              	.LVL198:
 815:fltk-1.3.4-1/jpeg/jdmarker.c ****     transform = GETJOCTET(data[11]);
 1731              		.loc 1 815 42 view .LVU572
 1732 0055 440FB646 		movzbl	10(%rsi), %r8d
 1732      0A
 816:fltk-1.3.4-1/jpeg/jdmarker.c ****     TRACEMS4(cinfo, 1, JTRC_ADOBE, version, flags0, flags1, transform);
 1733              		.loc 1 816 17 view .LVU573
 1734 005a 0FB65E0B 		movzbl	11(%rsi), %ebx
 1735              	.LBB32:
 817:fltk-1.3.4-1/jpeg/jdmarker.c ****     cinfo->saw_Adobe_marker = TRUE;
 1736              		.loc 1 817 5 view .LVU574
 1737 005e 48897C24 		movq	%rdi, 8(%rsp)
 1737      08
 1738              	.LBE32:
 814:fltk-1.3.4-1/jpeg/jdmarker.c ****     flags1 = (GETJOCTET(data[9]) << 8) + GETJOCTET(data[10]);
 1739              		.loc 1 814 34 view .LVU575
 1740 0063 C1E108   		sall	$8, %ecx
 814:fltk-1.3.4-1/jpeg/jdmarker.c ****     flags1 = (GETJOCTET(data[9]) << 8) + GETJOCTET(data[10]);
 1741              		.loc 1 814 40 view .LVU576
 1742 0066 01D1     		addl	%edx, %ecx
 1743              	.LVL199:
 815:fltk-1.3.4-1/jpeg/jdmarker.c ****     transform = GETJOCTET(data[11]);
 1744              		.loc 1 815 5 is_stmt 1 view .LVU577
 815:fltk-1.3.4-1/jpeg/jdmarker.c ****     transform = GETJOCTET(data[11]);
 1745              		.loc 1 815 15 is_stmt 0 view .LVU578
 1746 0068 0FB65609 		movzbl	9(%rsi), %edx
 815:fltk-1.3.4-1/jpeg/jdmarker.c ****     transform = GETJOCTET(data[11]);
 1747              		.loc 1 815 34 view .LVU579
 1748 006c C1E208   		sall	$8, %edx
 815:fltk-1.3.4-1/jpeg/jdmarker.c ****     transform = GETJOCTET(data[11]);
 1749              		.loc 1 815 40 view .LVU580
 1750 006f 4401C2   		addl	%r8d, %edx
 1751              	.LVL200:
 816:fltk-1.3.4-1/jpeg/jdmarker.c ****     TRACEMS4(cinfo, 1, JTRC_ADOBE, version, flags0, flags1, transform);
 1752              		.loc 1 816 5 is_stmt 1 view .LVU581
 817:fltk-1.3.4-1/jpeg/jdmarker.c ****     cinfo->saw_Adobe_marker = TRUE;
 1753              		.loc 1 817 5 view .LVU582
 1754              	.LBB33:
 817:fltk-1.3.4-1/jpeg/jdmarker.c ****     cinfo->saw_Adobe_marker = TRUE;
 1755              		.loc 1 817 5 view .LVU583
 817:fltk-1.3.4-1/jpeg/jdmarker.c ****     cinfo->saw_Adobe_marker = TRUE;
 1756              		.loc 1 817 5 view .LVU584
 1757              	.LBE33:
 813:fltk-1.3.4-1/jpeg/jdmarker.c ****     flags0 = (GETJOCTET(data[7]) << 8) + GETJOCTET(data[8]);
 1758              		.loc 1 813 16 is_stmt 0 view .LVU585
 1759 0072 440FB646 		movzbl	5(%rsi), %r8d
 1759      05
 813:fltk-1.3.4-1/jpeg/jdmarker.c ****     flags0 = (GETJOCTET(data[7]) << 8) + GETJOCTET(data[8]);
 1760              		.loc 1 813 43 view .LVU586
 1761 0077 0FB67606 		movzbl	6(%rsi), %esi
 1762              	.LVL201:
 1763              	.LBB34:
 817:fltk-1.3.4-1/jpeg/jdmarker.c ****     cinfo->saw_Adobe_marker = TRUE;
 1764              		.loc 1 817 5 view .LVU587
 1765 007b 894830   		movl	%ecx, 48(%rax)
 1766              	.LVL202:
 817:fltk-1.3.4-1/jpeg/jdmarker.c ****     cinfo->saw_Adobe_marker = TRUE;
 1767              		.loc 1 817 5 view .LVU588
 1768 007e 895034   		movl	%edx, 52(%rax)
 1769 0081 0FB6D3   		movzbl	%bl, %edx
 1770              	.LVL203:
 817:fltk-1.3.4-1/jpeg/jdmarker.c ****     cinfo->saw_Adobe_marker = TRUE;
 1771              		.loc 1 817 5 view .LVU589
 1772              	.LBE34:
 813:fltk-1.3.4-1/jpeg/jdmarker.c ****     flags0 = (GETJOCTET(data[7]) << 8) + GETJOCTET(data[8]);
 1773              		.loc 1 813 35 view .LVU590
 1774 0084 41C1E008 		sall	$8, %r8d
 1775              	.LBB35:
 817:fltk-1.3.4-1/jpeg/jdmarker.c ****     cinfo->saw_Adobe_marker = TRUE;
 1776              		.loc 1 817 5 view .LVU591
 1777 0088 895038   		movl	%edx, 56(%rax)
 1778              	.LBE35:
 813:fltk-1.3.4-1/jpeg/jdmarker.c ****     flags0 = (GETJOCTET(data[7]) << 8) + GETJOCTET(data[8]);
 1779              		.loc 1 813 41 view .LVU592
 1780 008b 4401C6   		addl	%r8d, %esi
 1781 008e 89702C   		movl	%esi, 44(%rax)
 1782              	.LBB36:
 817:fltk-1.3.4-1/jpeg/jdmarker.c ****     cinfo->saw_Adobe_marker = TRUE;
 1783              		.loc 1 817 5 is_stmt 1 view .LVU593
 817:fltk-1.3.4-1/jpeg/jdmarker.c ****     cinfo->saw_Adobe_marker = TRUE;
 1784              		.loc 1 817 5 view .LVU594
 817:fltk-1.3.4-1/jpeg/jdmarker.c ****     cinfo->saw_Adobe_marker = TRUE;
 1785              		.loc 1 817 5 view .LVU595
 817:fltk-1.3.4-1/jpeg/jdmarker.c ****     cinfo->saw_Adobe_marker = TRUE;
 1786              		.loc 1 817 5 view .LVU596
 1787 0091 488B07   		movq	(%rdi), %rax
 1788              	.LVL204:
 817:fltk-1.3.4-1/jpeg/jdmarker.c ****     cinfo->saw_Adobe_marker = TRUE;
 1789              		.loc 1 817 5 is_stmt 0 view .LVU597
 1790 0094 BE010000 		movl	$1, %esi
 1790      00
 1791 0099 C740284E 		movl	$78, 40(%rax)
 1791      000000
 817:fltk-1.3.4-1/jpeg/jdmarker.c ****     cinfo->saw_Adobe_marker = TRUE;
 1792              		.loc 1 817 5 is_stmt 1 view .LVU598
 1793 00a0 488B07   		movq	(%rdi), %rax
 1794 00a3 FF5008   		call	*8(%rax)
 1795              	.LVL205:
 817:fltk-1.3.4-1/jpeg/jdmarker.c ****     cinfo->saw_Adobe_marker = TRUE;
 1796              		.loc 1 817 5 is_stmt 0 view .LVU599
 1797              	.LBE36:
 817:fltk-1.3.4-1/jpeg/jdmarker.c ****     cinfo->saw_Adobe_marker = TRUE;
 1798              		.loc 1 817 5 is_stmt 1 view .LVU600
 818:fltk-1.3.4-1/jpeg/jdmarker.c ****     cinfo->Adobe_transform = (UINT8) transform;
 1799              		.loc 1 818 5 view .LVU601
 818:fltk-1.3.4-1/jpeg/jdmarker.c ****     cinfo->Adobe_transform = (UINT8) transform;
 1800              		.loc 1 818 29 is_stmt 0 view .LVU602
 1801 00a6 488B7C24 		movq	8(%rsp), %rdi
 1801      08
 1802 00ab C7878401 		movl	$1, 388(%rdi)
 1802      00000100 
 1802      0000
 819:fltk-1.3.4-1/jpeg/jdmarker.c ****   } else {
 1803              		.loc 1 819 5 is_stmt 1 view .LVU603
 819:fltk-1.3.4-1/jpeg/jdmarker.c ****   } else {
 1804              		.loc 1 819 28 is_stmt 0 view .LVU604
 1805 00b5 889F8801 		movb	%bl, 392(%rdi)
 1805      0000
 1806              	.LBE37:
 1807              	.LBE38:
 824:fltk-1.3.4-1/jpeg/jdmarker.c **** 
 1808              		.loc 1 824 1 view .LVU605
 1809 00bb 4883C410 		addq	$16, %rsp
 1810              		.cfi_def_cfa_offset 16
 1811 00bf 5B       		popq	%rbx
 1812              		.cfi_def_cfa_offset 8
 1813              	.LVL206:
 824:fltk-1.3.4-1/jpeg/jdmarker.c **** 
 1814              		.loc 1 824 1 view .LVU606
 1815 00c0 C3       		ret
 1816              		.cfi_endproc
 1817              	.LFE60:
 1819              		.section	.text.get_interesting_appn,"ax",@progbits
 1820              		.p2align 4
 1822              	get_interesting_appn:
 1823              	.LVL207:
 1824              	.LFB61:
 830:fltk-1.3.4-1/jpeg/jdmarker.c ****   INT32 length;
 1825              		.loc 1 830 1 is_stmt 1 view -0
 1826              		.cfi_startproc
 830:fltk-1.3.4-1/jpeg/jdmarker.c ****   INT32 length;
 1827              		.loc 1 830 1 is_stmt 0 view .LVU608
 1828 0000 F30F1EFA 		endbr64
 1829 0004 4157     		pushq	%r15
 1830              		.cfi_def_cfa_offset 16
 1831              		.cfi_offset 15, -16
 1832 0006 4989FF   		movq	%rdi, %r15
 1833 0009 4156     		pushq	%r14
 1834              		.cfi_def_cfa_offset 24
 1835              		.cfi_offset 14, -24
 1836 000b 4155     		pushq	%r13
 1837              		.cfi_def_cfa_offset 32
 1838              		.cfi_offset 13, -32
 1839 000d 4154     		pushq	%r12
 1840              		.cfi_def_cfa_offset 40
 1841              		.cfi_offset 12, -40
 1842 000f 55       		pushq	%rbp
 1843              		.cfi_def_cfa_offset 48
 1844              		.cfi_offset 6, -48
 1845 0010 53       		pushq	%rbx
 1846              		.cfi_def_cfa_offset 56
 1847              		.cfi_offset 3, -56
 1848 0011 4883EC38 		subq	$56, %rsp
 1849              		.cfi_def_cfa_offset 112
 834:fltk-1.3.4-1/jpeg/jdmarker.c **** 
 1850              		.loc 1 834 3 view .LVU609
 1851 0015 4C8B7728 		movq	40(%rdi), %r14
 830:fltk-1.3.4-1/jpeg/jdmarker.c ****   INT32 length;
 1852              		.loc 1 830 1 view .LVU610
 1853 0019 64488B04 		movq	%fs:40, %rax
 1853      25280000 
 1853      00
 1854 0022 48894424 		movq	%rax, 40(%rsp)
 1854      28
 1855 0027 31C0     		xorl	%eax, %eax
 831:fltk-1.3.4-1/jpeg/jdmarker.c ****   JOCTET b[APPN_DATA_LEN];
 1856              		.loc 1 831 3 is_stmt 1 view .LVU611
 832:fltk-1.3.4-1/jpeg/jdmarker.c ****   unsigned int i, numtoread;
 1857              		.loc 1 832 3 view .LVU612
 833:fltk-1.3.4-1/jpeg/jdmarker.c ****   INPUT_VARS(cinfo);
 1858              		.loc 1 833 3 view .LVU613
 834:fltk-1.3.4-1/jpeg/jdmarker.c **** 
 1859              		.loc 1 834 3 view .LVU614
 1860              	.LVL208:
 834:fltk-1.3.4-1/jpeg/jdmarker.c **** 
 1861              		.loc 1 834 3 view .LVU615
 834:fltk-1.3.4-1/jpeg/jdmarker.c **** 
 1862              		.loc 1 834 3 view .LVU616
 1863 0029 498B5E08 		movq	8(%r14), %rbx
 1864              	.LVL209:
 836:fltk-1.3.4-1/jpeg/jdmarker.c ****   length -= 2;
 1865              		.loc 1 836 3 view .LVU617
 836:fltk-1.3.4-1/jpeg/jdmarker.c ****   length -= 2;
 1866              		.loc 1 836 3 view .LVU618
 1867 002d 4885DB   		testq	%rbx, %rbx
 1868 0030 0F84A200 		je	.L173
 1868      0000
 834:fltk-1.3.4-1/jpeg/jdmarker.c **** 
 1869              		.loc 1 834 3 is_stmt 0 view .LVU619
 1870 0036 498B16   		movq	(%r14), %rdx
 1871              	.LVL210:
 1872              	.L174:
 836:fltk-1.3.4-1/jpeg/jdmarker.c ****   length -= 2;
 1873              		.loc 1 836 3 is_stmt 1 discriminator 5 view .LVU620
 836:fltk-1.3.4-1/jpeg/jdmarker.c ****   length -= 2;
 1874              		.loc 1 836 3 discriminator 5 view .LVU621
 836:fltk-1.3.4-1/jpeg/jdmarker.c ****   length -= 2;
 1875              		.loc 1 836 3 discriminator 5 view .LVU622
 836:fltk-1.3.4-1/jpeg/jdmarker.c ****   length -= 2;
 1876              		.loc 1 836 3 is_stmt 0 discriminator 5 view .LVU623
 1877 0039 0FB602   		movzbl	(%rdx), %eax
 1878 003c C1E008   		sall	$8, %eax
 1879 003f 4883EB01 		subq	$1, %rbx
 1880              	.LVL211:
 836:fltk-1.3.4-1/jpeg/jdmarker.c ****   length -= 2;
 1881              		.loc 1 836 3 discriminator 5 view .LVU624
 1882 0043 89C5     		movl	%eax, %ebp
 1883              	.LVL212:
 836:fltk-1.3.4-1/jpeg/jdmarker.c ****   length -= 2;
 1884              		.loc 1 836 3 is_stmt 1 discriminator 5 view .LVU625
 1885 0045 488D4201 		leaq	1(%rdx), %rax
 1886              	.LVL213:
 836:fltk-1.3.4-1/jpeg/jdmarker.c ****   length -= 2;
 1887              		.loc 1 836 3 is_stmt 0 discriminator 5 view .LVU626
 1888 0049 7516     		jne	.L178
 836:fltk-1.3.4-1/jpeg/jdmarker.c ****   length -= 2;
 1889              		.loc 1 836 3 is_stmt 1 discriminator 6 view .LVU627
 1890 004b 4C89FF   		movq	%r15, %rdi
 1891 004e 41FF5618 		call	*24(%r14)
 1892              	.LVL214:
 836:fltk-1.3.4-1/jpeg/jdmarker.c ****   length -= 2;
 1893              		.loc 1 836 3 is_stmt 0 discriminator 6 view .LVU628
 1894 0052 85C0     		testl	%eax, %eax
 1895 0054 0F849600 		je	.L179
 1895      0000
 836:fltk-1.3.4-1/jpeg/jdmarker.c ****   length -= 2;
 1896              		.loc 1 836 3 is_stmt 1 discriminator 9 view .LVU629
 1897 005a 498B06   		movq	(%r14), %rax
 1898              	.LVL215:
 836:fltk-1.3.4-1/jpeg/jdmarker.c ****   length -= 2;
 1899              		.loc 1 836 3 is_stmt 0 discriminator 9 view .LVU630
 1900 005d 498B5E08 		movq	8(%r14), %rbx
 1901              	.LVL216:
 1902              	.L178:
 836:fltk-1.3.4-1/jpeg/jdmarker.c ****   length -= 2;
 1903              		.loc 1 836 3 is_stmt 1 discriminator 10 view .LVU631
 836:fltk-1.3.4-1/jpeg/jdmarker.c ****   length -= 2;
 1904              		.loc 1 836 3 discriminator 10 view .LVU632
 1905 0061 4C8D4801 		leaq	1(%rax), %r9
 1906 0065 0FB600   		movzbl	(%rax), %eax
 1907              	.LVL217:
 836:fltk-1.3.4-1/jpeg/jdmarker.c ****   length -= 2;
 1908              		.loc 1 836 3 is_stmt 0 discriminator 10 view .LVU633
 1909 0068 4883EB01 		subq	$1, %rbx
 1910              	.LVL218:
 836:fltk-1.3.4-1/jpeg/jdmarker.c ****   length -= 2;
 1911              		.loc 1 836 3 is_stmt 1 discriminator 10 view .LVU634
 836:fltk-1.3.4-1/jpeg/jdmarker.c ****   length -= 2;
 1912              		.loc 1 836 3 discriminator 10 view .LVU635
 837:fltk-1.3.4-1/jpeg/jdmarker.c **** 
 1913              		.loc 1 837 3 discriminator 10 view .LVU636
 837:fltk-1.3.4-1/jpeg/jdmarker.c **** 
 1914              		.loc 1 837 10 is_stmt 0 discriminator 10 view .LVU637
 1915 006c 4C8D6C05 		leaq	-2(%rbp,%rax), %r13
 1915      FE
 1916              	.LVL219:
 840:fltk-1.3.4-1/jpeg/jdmarker.c ****     numtoread = APPN_DATA_LEN;
 1917              		.loc 1 840 3 is_stmt 1 discriminator 10 view .LVU638
 840:fltk-1.3.4-1/jpeg/jdmarker.c ****     numtoread = APPN_DATA_LEN;
 1918              		.loc 1 840 6 is_stmt 0 discriminator 10 view .LVU639
 1919 0071 4983FD0D 		cmpq	$13, %r13
 1920 0075 0F8FA500 		jg	.L189
 1920      0000
 842:fltk-1.3.4-1/jpeg/jdmarker.c ****     numtoread = (unsigned int) length;
 1921              		.loc 1 842 8 is_stmt 1 view .LVU640
 842:fltk-1.3.4-1/jpeg/jdmarker.c ****     numtoread = (unsigned int) length;
 1922              		.loc 1 842 11 is_stmt 0 view .LVU641
 1923 007b 4D85ED   		testq	%r13, %r13
 1924 007e 0F8E5C01 		jle	.L190
 1924      0000
 843:fltk-1.3.4-1/jpeg/jdmarker.c ****   else
 1925              		.loc 1 843 5 is_stmt 1 view .LVU642
 843:fltk-1.3.4-1/jpeg/jdmarker.c ****   else
 1926              		.loc 1 843 15 is_stmt 0 view .LVU643
 1927 0084 44892C24 		movl	%r13d, (%rsp)
 1928              	.LVL220:
 846:fltk-1.3.4-1/jpeg/jdmarker.c ****     INPUT_BYTE(cinfo, b[i], return FALSE);
 1929              		.loc 1 846 3 is_stmt 1 view .LVU644
 846:fltk-1.3.4-1/jpeg/jdmarker.c ****     INPUT_BYTE(cinfo, b[i], return FALSE);
 1930              		.loc 1 846 15 view .LVU645
 1931              	.L180:
 846:fltk-1.3.4-1/jpeg/jdmarker.c ****     INPUT_BYTE(cinfo, b[i], return FALSE);
 1932              		.loc 1 846 15 is_stmt 0 view .LVU646
 1933 0088 8B0424   		movl	(%rsp), %eax
 1934 008b 488D6C24 		leaq	26(%rsp), %rbp
 1934      1A
 1935 0090 48894424 		movq	%rax, 8(%rsp)
 1935      08
 1936 0095 4C8D2428 		leaq	(%rax,%rbp), %r12
 1937 0099 EB2E     		jmp	.L183
 1938              	.LVL221:
 1939 009b 0F1F4400 		.p2align 4,,10
 1939      00
 1940              		.p2align 3
 1941              	.L203:
 847:fltk-1.3.4-1/jpeg/jdmarker.c ****   length -= numtoread;
 1942              		.loc 1 847 5 is_stmt 1 discriminator 1 view .LVU647
 1943 00a0 4C89FF   		movq	%r15, %rdi
 1944 00a3 41FF5618 		call	*24(%r14)
 1945              	.LVL222:
 847:fltk-1.3.4-1/jpeg/jdmarker.c ****   length -= numtoread;
 1946              		.loc 1 847 5 is_stmt 0 discriminator 1 view .LVU648
 1947 00a7 85C0     		testl	%eax, %eax
 1948 00a9 7445     		je	.L179
 847:fltk-1.3.4-1/jpeg/jdmarker.c ****   length -= numtoread;
 1949              		.loc 1 847 5 is_stmt 1 discriminator 4 view .LVU649
 1950 00ab 498B06   		movq	(%r14), %rax
 1951              	.LVL223:
 847:fltk-1.3.4-1/jpeg/jdmarker.c ****   length -= numtoread;
 1952              		.loc 1 847 5 is_stmt 0 discriminator 4 view .LVU650
 1953 00ae 498B5E08 		movq	8(%r14), %rbx
 1954              	.LVL224:
 1955              	.L182:
 847:fltk-1.3.4-1/jpeg/jdmarker.c ****   length -= numtoread;
 1956              		.loc 1 847 5 is_stmt 1 discriminator 5 view .LVU651
 847:fltk-1.3.4-1/jpeg/jdmarker.c ****   length -= numtoread;
 1957              		.loc 1 847 5 discriminator 5 view .LVU652
 1958 00b2 4C8D4801 		leaq	1(%rax), %r9
 1959 00b6 0FB600   		movzbl	(%rax), %eax
 1960              	.LVL225:
 847:fltk-1.3.4-1/jpeg/jdmarker.c ****   length -= numtoread;
 1961              		.loc 1 847 5 is_stmt 0 discriminator 5 view .LVU653
 1962 00b9 4883C501 		addq	$1, %rbp
 1963              	.LVL226:
 847:fltk-1.3.4-1/jpeg/jdmarker.c ****   length -= numtoread;
 1964              		.loc 1 847 5 discriminator 5 view .LVU654
 1965 00bd 4883EB01 		subq	$1, %rbx
 1966              	.LVL227:
 847:fltk-1.3.4-1/jpeg/jdmarker.c ****   length -= numtoread;
 1967              		.loc 1 847 5 is_stmt 1 discriminator 5 view .LVU655
 847:fltk-1.3.4-1/jpeg/jdmarker.c ****   length -= numtoread;
 1968              		.loc 1 847 5 is_stmt 0 discriminator 5 view .LVU656
 1969 00c1 8845FF   		movb	%al, -1(%rbp)
 847:fltk-1.3.4-1/jpeg/jdmarker.c ****   length -= numtoread;
 1970              		.loc 1 847 5 is_stmt 1 discriminator 5 view .LVU657
 846:fltk-1.3.4-1/jpeg/jdmarker.c ****     INPUT_BYTE(cinfo, b[i], return FALSE);
 1971              		.loc 1 846 30 discriminator 5 view .LVU658
 846:fltk-1.3.4-1/jpeg/jdmarker.c ****     INPUT_BYTE(cinfo, b[i], return FALSE);
 1972              		.loc 1 846 15 discriminator 5 view .LVU659
 846:fltk-1.3.4-1/jpeg/jdmarker.c ****     INPUT_BYTE(cinfo, b[i], return FALSE);
 1973              		.loc 1 846 3 is_stmt 0 discriminator 5 view .LVU660
 1974 00c4 4939EC   		cmpq	%rbp, %r12
 1975 00c7 7467     		je	.L202
 1976              	.LVL228:
 1977              	.L183:
 847:fltk-1.3.4-1/jpeg/jdmarker.c ****   length -= numtoread;
 1978              		.loc 1 847 5 is_stmt 1 view .LVU661
 847:fltk-1.3.4-1/jpeg/jdmarker.c ****   length -= numtoread;
 1979              		.loc 1 847 5 view .LVU662
 1980 00c9 4885DB   		testq	%rbx, %rbx
 1981 00cc 74D2     		je	.L203
 1982 00ce 4C89C8   		movq	%r9, %rax
 1983 00d1 EBDF     		jmp	.L182
 1984              	.LVL229:
 1985              		.p2align 4,,10
 1986 00d3 0F1F4400 		.p2align 3
 1986      00
 1987              	.L173:
 836:fltk-1.3.4-1/jpeg/jdmarker.c ****   length -= 2;
 1988              		.loc 1 836 3 discriminator 1 view .LVU663
 1989 00d8 41FF5618 		call	*24(%r14)
 1990              	.LVL230:
 836:fltk-1.3.4-1/jpeg/jdmarker.c ****   length -= 2;
 1991              		.loc 1 836 3 is_stmt 0 discriminator 1 view .LVU664
 1992 00dc 85C0     		testl	%eax, %eax
 1993 00de 7410     		je	.L179
 836:fltk-1.3.4-1/jpeg/jdmarker.c ****   length -= 2;
 1994              		.loc 1 836 3 is_stmt 1 discriminator 4 view .LVU665
 1995 00e0 498B16   		movq	(%r14), %rdx
 1996              	.LVL231:
 836:fltk-1.3.4-1/jpeg/jdmarker.c ****   length -= 2;
 1997              		.loc 1 836 3 is_stmt 0 discriminator 4 view .LVU666
 1998 00e3 498B5E08 		movq	8(%r14), %rbx
 1999              	.LVL232:
 836:fltk-1.3.4-1/jpeg/jdmarker.c ****   length -= 2;
 2000              		.loc 1 836 3 discriminator 4 view .LVU667
 2001 00e7 E94DFFFF 		jmp	.L174
 2001      FF
 2002              	.LVL233:
 2003 00ec 0F1F4000 		.p2align 4,,10
 2004              		.p2align 3
 2005              	.L179:
 836:fltk-1.3.4-1/jpeg/jdmarker.c ****   length -= 2;
 2006              		.loc 1 836 3 view .LVU668
 2007 00f0 4531E4   		xorl	%r12d, %r12d
 2008              	.L172:
 870:fltk-1.3.4-1/jpeg/jdmarker.c **** 
 2009              		.loc 1 870 1 view .LVU669
 2010 00f3 488B4424 		movq	40(%rsp), %rax
 2010      28
 2011 00f8 64483304 		xorq	%fs:40, %rax
 2011      25280000 
 2011      00
 2012 0101 0F85E500 		jne	.L204
 2012      0000
 2013 0107 4883C438 		addq	$56, %rsp
 2014              		.cfi_remember_state
 2015              		.cfi_def_cfa_offset 56
 2016 010b 4489E0   		movl	%r12d, %eax
 2017 010e 5B       		popq	%rbx
 2018              		.cfi_def_cfa_offset 48
 2019              	.LVL234:
 870:fltk-1.3.4-1/jpeg/jdmarker.c **** 
 2020              		.loc 1 870 1 view .LVU670
 2021 010f 5D       		popq	%rbp
 2022              		.cfi_def_cfa_offset 40
 2023 0110 415C     		popq	%r12
 2024              		.cfi_def_cfa_offset 32
 2025 0112 415D     		popq	%r13
 2026              		.cfi_def_cfa_offset 24
 2027 0114 415E     		popq	%r14
 2028              		.cfi_def_cfa_offset 16
 2029              	.LVL235:
 870:fltk-1.3.4-1/jpeg/jdmarker.c **** 
 2030              		.loc 1 870 1 view .LVU671
 2031 0116 415F     		popq	%r15
 2032              		.cfi_def_cfa_offset 8
 2033              	.LVL236:
 870:fltk-1.3.4-1/jpeg/jdmarker.c **** 
 2034              		.loc 1 870 1 view .LVU672
 2035 0118 C3       		ret
 2036              	.LVL237:
 2037 0119 0F1F8000 		.p2align 4,,10
 2037      000000
 2038              		.p2align 3
 2039              	.L189:
 2040              		.cfi_restore_state
 841:fltk-1.3.4-1/jpeg/jdmarker.c ****   else if (length > 0)
 2041              		.loc 1 841 15 view .LVU673
 2042 0120 C704240E 		movl	$14, (%rsp)
 2042      000000
 2043 0127 E95CFFFF 		jmp	.L180
 2043      FF
 2044 012c 0F1F4000 		.p2align 4,,10
 2045              		.p2align 3
 2046              	.L202:
 841:fltk-1.3.4-1/jpeg/jdmarker.c ****   else if (length > 0)
 2047              		.loc 1 841 15 view .LVU674
 2048 0130 4C2B6C24 		subq	8(%rsp), %r13
 2048      08
 2049              	.LVL238:
 2050              	.L181:
 848:fltk-1.3.4-1/jpeg/jdmarker.c **** 
 2051              		.loc 1 848 3 is_stmt 1 view .LVU675
 851:fltk-1.3.4-1/jpeg/jdmarker.c ****   case M_APP0:
 2052              		.loc 1 851 3 view .LVU676
 851:fltk-1.3.4-1/jpeg/jdmarker.c ****   case M_APP0:
 2053              		.loc 1 851 16 is_stmt 0 view .LVU677
 2054 0135 418B873C 		movl	572(%r15), %eax
 2054      020000
 851:fltk-1.3.4-1/jpeg/jdmarker.c ****   case M_APP0:
 2055              		.loc 1 851 3 view .LVU678
 2056 013c 3DE00000 		cmpl	$224, %eax
 2056      00
 2057 0141 745D     		je	.L184
 851:fltk-1.3.4-1/jpeg/jdmarker.c ****   case M_APP0:
 2058              		.loc 1 851 3 view .LVU679
 2059 0143 3DEE0000 		cmpl	$238, %eax
 2059      00
 2060 0148 7476     		je	.L185
 860:fltk-1.3.4-1/jpeg/jdmarker.c ****     break;
 2061              		.loc 1 860 5 view .LVU680
 2062 014a 498B07   		movq	(%r15), %rax
 2063 014d 4C890C24 		movq	%r9, (%rsp)
 2064              	.LVL239:
 860:fltk-1.3.4-1/jpeg/jdmarker.c ****     break;
 2065              		.loc 1 860 5 is_stmt 1 view .LVU681
 2066 0151 4C89FF   		movq	%r15, %rdi
 2067 0154 C7402846 		movl	$70, 40(%rax)
 2067      000000
 2068 015b 498B07   		movq	(%r15), %rax
 2069 015e 418B973C 		movl	572(%r15), %edx
 2069      020000
 2070 0165 89502C   		movl	%edx, 44(%rax)
 2071 0168 498B07   		movq	(%r15), %rax
 2072 016b FF10     		call	*(%rax)
 2073              	.LVL240:
 860:fltk-1.3.4-1/jpeg/jdmarker.c ****     break;
 2074              		.loc 1 860 5 is_stmt 0 view .LVU682
 2075 016d 4C8B0C24 		movq	(%rsp), %r9
 861:fltk-1.3.4-1/jpeg/jdmarker.c ****   }
 2076              		.loc 1 861 5 is_stmt 1 view .LVU683
 2077              	.LVL241:
 2078              	.L187:
 865:fltk-1.3.4-1/jpeg/jdmarker.c ****   if (length > 0)
 2079              		.loc 1 865 3 view .LVU684
 2080 0171 4D890E   		movq	%r9, (%r14)
 869:fltk-1.3.4-1/jpeg/jdmarker.c **** }
 2081              		.loc 1 869 10 is_stmt 0 view .LVU685
 2082 0174 41BC0100 		movl	$1, %r12d
 2082      0000
 865:fltk-1.3.4-1/jpeg/jdmarker.c ****   if (length > 0)
 2083              		.loc 1 865 3 view .LVU686
 2084 017a 49895E08 		movq	%rbx, 8(%r14)
 866:fltk-1.3.4-1/jpeg/jdmarker.c ****     (*cinfo->src->skip_input_data) (cinfo, (long) length);
 2085              		.loc 1 866 3 is_stmt 1 view .LVU687
 866:fltk-1.3.4-1/jpeg/jdmarker.c ****     (*cinfo->src->skip_input_data) (cinfo, (long) length);
 2086              		.loc 1 866 6 is_stmt 0 view .LVU688
 2087 017e 4D85ED   		testq	%r13, %r13
 2088 0181 0F8E6CFF 		jle	.L172
 2088      FFFF
 867:fltk-1.3.4-1/jpeg/jdmarker.c **** 
 2089              		.loc 1 867 5 is_stmt 1 view .LVU689
 867:fltk-1.3.4-1/jpeg/jdmarker.c **** 
 2090              		.loc 1 867 6 is_stmt 0 view .LVU690
 2091 0187 498B4728 		movq	40(%r15), %rax
 2092 018b 4C89EE   		movq	%r13, %rsi
 2093 018e 4C89FF   		movq	%r15, %rdi
 2094 0191 FF5020   		call	*32(%rax)
 2095              	.LVL242:
 2096 0194 E95AFFFF 		jmp	.L172
 2096      FF
 2097              	.LVL243:
 2098 0199 0F1F8000 		.p2align 4,,10
 2098      000000
 2099              		.p2align 3
 2100              	.L184:
 853:fltk-1.3.4-1/jpeg/jdmarker.c ****     break;
 2101              		.loc 1 853 5 view .LVU691
 2102 01a0 8B1424   		movl	(%rsp), %edx
 2103 01a3 488D7424 		leaq	26(%rsp), %rsi
 2103      1A
 2104 01a8 4C89E9   		movq	%r13, %rcx
 2105 01ab 4C89FF   		movq	%r15, %rdi
 2106 01ae 4C894C24 		movq	%r9, 8(%rsp)
 2106      08
 853:fltk-1.3.4-1/jpeg/jdmarker.c ****     break;
 2107              		.loc 1 853 5 is_stmt 1 view .LVU692
 2108 01b3 E8000000 		call	examine_app0
 2108      00
 2109              	.LVL244:
 854:fltk-1.3.4-1/jpeg/jdmarker.c ****   case M_APP14:
 2110              		.loc 1 854 5 view .LVU693
 2111 01b8 4C8B4C24 		movq	8(%rsp), %r9
 2111      08
 2112 01bd EBB2     		jmp	.L187
 2113              	.LVL245:
 2114 01bf 90       		.p2align 4,,10
 2115              		.p2align 3
 2116              	.L185:
 856:fltk-1.3.4-1/jpeg/jdmarker.c ****     break;
 2117              		.loc 1 856 5 is_stmt 0 view .LVU694
 2118 01c0 8B1424   		movl	(%rsp), %edx
 2119 01c3 488D7424 		leaq	26(%rsp), %rsi
 2119      1A
 2120 01c8 4C89E9   		movq	%r13, %rcx
 2121 01cb 4C89FF   		movq	%r15, %rdi
 2122 01ce 4C894C24 		movq	%r9, 8(%rsp)
 2122      08
 856:fltk-1.3.4-1/jpeg/jdmarker.c ****     break;
 2123              		.loc 1 856 5 is_stmt 1 view .LVU695
 2124 01d3 E8000000 		call	examine_app14
 2124      00
 2125              	.LVL246:
 857:fltk-1.3.4-1/jpeg/jdmarker.c ****   default:
 2126              		.loc 1 857 5 view .LVU696
 2127 01d8 4C8B4C24 		movq	8(%rsp), %r9
 2127      08
 2128 01dd EB92     		jmp	.L187
 2129              	.LVL247:
 2130 01df 90       		.p2align 4,,10
 2131              		.p2align 3
 2132              	.L190:
 845:fltk-1.3.4-1/jpeg/jdmarker.c ****   for (i = 0; i < numtoread; i++)
 2133              		.loc 1 845 15 is_stmt 0 view .LVU697
 2134 01e0 C7042400 		movl	$0, (%rsp)
 2134      000000
 2135 01e7 E949FFFF 		jmp	.L181
 2135      FF
 2136              	.LVL248:
 2137              	.L204:
 870:fltk-1.3.4-1/jpeg/jdmarker.c **** 
 2138              		.loc 1 870 1 view .LVU698
 2139 01ec E8000000 		call	__stack_chk_fail@PLT
 2139      00
 2140              	.LVL249:
 2141              		.cfi_endproc
 2142              	.LFE61:
 2144              		.section	.text.save_marker,"ax",@progbits
 2145              		.p2align 4
 2147              	save_marker:
 2148              	.LVL250:
 2149              	.LFB62:
 878:fltk-1.3.4-1/jpeg/jdmarker.c ****   my_marker_ptr marker = (my_marker_ptr) cinfo->marker;
 2150              		.loc 1 878 1 is_stmt 1 view -0
 2151              		.cfi_startproc
 878:fltk-1.3.4-1/jpeg/jdmarker.c ****   my_marker_ptr marker = (my_marker_ptr) cinfo->marker;
 2152              		.loc 1 878 1 is_stmt 0 view .LVU700
 2153 0000 F30F1EFA 		endbr64
 879:fltk-1.3.4-1/jpeg/jdmarker.c ****   jpeg_saved_marker_ptr cur_marker = marker->cur_marker;
 2154              		.loc 1 879 3 is_stmt 1 view .LVU701
 878:fltk-1.3.4-1/jpeg/jdmarker.c ****   my_marker_ptr marker = (my_marker_ptr) cinfo->marker;
 2155              		.loc 1 878 1 is_stmt 0 view .LVU702
 2156 0004 4157     		pushq	%r15
 2157              		.cfi_def_cfa_offset 16
 2158              		.cfi_offset 15, -16
 2159 0006 4989F9   		movq	%rdi, %r9
 2160 0009 4156     		pushq	%r14
 2161              		.cfi_def_cfa_offset 24
 2162              		.cfi_offset 14, -24
 2163 000b 4155     		pushq	%r13
 2164              		.cfi_def_cfa_offset 32
 2165              		.cfi_offset 13, -32
 2166 000d 4154     		pushq	%r12
 2167              		.cfi_def_cfa_offset 40
 2168              		.cfi_offset 12, -40
 2169 000f 55       		pushq	%rbp
 2170              		.cfi_def_cfa_offset 48
 2171              		.cfi_offset 6, -48
 2172 0010 53       		pushq	%rbx
 2173              		.cfi_def_cfa_offset 56
 2174              		.cfi_offset 3, -56
 2175 0011 4883EC28 		subq	$40, %rsp
 2176              		.cfi_def_cfa_offset 96
 879:fltk-1.3.4-1/jpeg/jdmarker.c ****   jpeg_saved_marker_ptr cur_marker = marker->cur_marker;
 2177              		.loc 1 879 17 view .LVU703
 2178 0015 4C8BB768 		movq	616(%rdi), %r14
 2178      020000
 2179              	.LVL251:
 880:fltk-1.3.4-1/jpeg/jdmarker.c ****   unsigned int bytes_read, data_length;
 2180              		.loc 1 880 3 is_stmt 1 view .LVU704
 884:fltk-1.3.4-1/jpeg/jdmarker.c **** 
 2181              		.loc 1 884 3 is_stmt 0 view .LVU705
 2182 001c 4C8B4728 		movq	40(%rdi), %r8
 880:fltk-1.3.4-1/jpeg/jdmarker.c ****   unsigned int bytes_read, data_length;
 2183              		.loc 1 880 25 view .LVU706
 2184 0020 498B86F8 		movq	248(%r14), %rax
 2184      000000
 884:fltk-1.3.4-1/jpeg/jdmarker.c **** 
 2185              		.loc 1 884 3 view .LVU707
 2186 0027 4D8B20   		movq	(%r8), %r12
 2187 002a 498B5808 		movq	8(%r8), %rbx
 880:fltk-1.3.4-1/jpeg/jdmarker.c ****   unsigned int bytes_read, data_length;
 2188              		.loc 1 880 25 view .LVU708
 2189 002e 48894424 		movq	%rax, 24(%rsp)
 2189      18
 2190              	.LVL252:
 881:fltk-1.3.4-1/jpeg/jdmarker.c ****   JOCTET FAR * data;
 2191              		.loc 1 881 3 is_stmt 1 view .LVU709
 882:fltk-1.3.4-1/jpeg/jdmarker.c ****   INT32 length = 0;
 2192              		.loc 1 882 3 view .LVU710
 883:fltk-1.3.4-1/jpeg/jdmarker.c ****   INPUT_VARS(cinfo);
 2193              		.loc 1 883 3 view .LVU711
 884:fltk-1.3.4-1/jpeg/jdmarker.c **** 
 2194              		.loc 1 884 3 view .LVU712
 884:fltk-1.3.4-1/jpeg/jdmarker.c **** 
 2195              		.loc 1 884 3 view .LVU713
 884:fltk-1.3.4-1/jpeg/jdmarker.c **** 
 2196              		.loc 1 884 3 view .LVU714
 886:fltk-1.3.4-1/jpeg/jdmarker.c ****     /* begin reading a marker */
 2197              		.loc 1 886 3 view .LVU715
 886:fltk-1.3.4-1/jpeg/jdmarker.c ****     /* begin reading a marker */
 2198              		.loc 1 886 6 is_stmt 0 view .LVU716
 2199 0033 4885C0   		testq	%rax, %rax
 2200 0036 0F846701 		je	.L254
 2200      0000
 920:fltk-1.3.4-1/jpeg/jdmarker.c ****     data_length = cur_marker->data_length;
 2201              		.loc 1 920 5 is_stmt 1 view .LVU717
 921:fltk-1.3.4-1/jpeg/jdmarker.c ****     data = cur_marker->data + bytes_read;
 2202              		.loc 1 921 17 is_stmt 0 view .LVU718
 2203 003c 488B4424 		movq	24(%rsp), %rax
 2203      18
 920:fltk-1.3.4-1/jpeg/jdmarker.c ****     data_length = cur_marker->data_length;
 2204              		.loc 1 920 16 view .LVU719
 2205 0041 458BAE00 		movl	256(%r14), %r13d
 2205      010000
 921:fltk-1.3.4-1/jpeg/jdmarker.c ****     data = cur_marker->data + bytes_read;
 2206              		.loc 1 921 17 view .LVU720
 2207 0048 448B7810 		movl	16(%rax), %r15d
 920:fltk-1.3.4-1/jpeg/jdmarker.c ****     data_length = cur_marker->data_length;
 2208              		.loc 1 920 16 view .LVU721
 2209 004c 4C89ED   		movq	%r13, %rbp
 2210              	.LVL253:
 921:fltk-1.3.4-1/jpeg/jdmarker.c ****     data = cur_marker->data + bytes_read;
 2211              		.loc 1 921 5 is_stmt 1 view .LVU722
 922:fltk-1.3.4-1/jpeg/jdmarker.c ****   }
 2212              		.loc 1 922 5 view .LVU723
 922:fltk-1.3.4-1/jpeg/jdmarker.c ****   }
 2213              		.loc 1 922 10 is_stmt 0 view .LVU724
 2214 004f 4C036818 		addq	24(%rax), %r13
 2215              	.LVL254:
 2216              	.L216:
 925:fltk-1.3.4-1/jpeg/jdmarker.c ****     INPUT_SYNC(cinfo);		/* move the restart point to here */
 2217              		.loc 1 925 9 is_stmt 1 view .LVU725
 2218 0053 4439FD   		cmpl	%r15d, %ebp
 2219 0056 7373     		jnb	.L222
 2220 0058 0F1F8400 		.p2align 4,,10
 2220      00000000 
 2221              		.p2align 3
 2222              	.L221:
 926:fltk-1.3.4-1/jpeg/jdmarker.c ****     marker->bytes_read = bytes_read;
 2223              		.loc 1 926 5 view .LVU726
 2224 0060 4D8920   		movq	%r12, (%r8)
 2225 0063 49895808 		movq	%rbx, 8(%r8)
 927:fltk-1.3.4-1/jpeg/jdmarker.c ****     /* If there's not at least one byte in buffer, suspend */
 2226              		.loc 1 927 5 view .LVU727
 927:fltk-1.3.4-1/jpeg/jdmarker.c ****     /* If there's not at least one byte in buffer, suspend */
 2227              		.loc 1 927 24 is_stmt 0 view .LVU728
 2228 0067 4189AE00 		movl	%ebp, 256(%r14)
 2228      010000
 929:fltk-1.3.4-1/jpeg/jdmarker.c ****     /* Copy bytes with reasonable rapidity */
 2229              		.loc 1 929 5 is_stmt 1 view .LVU729
 2230 006e 4885DB   		testq	%rbx, %rbx
 2231 0071 752A     		jne	.L217
 929:fltk-1.3.4-1/jpeg/jdmarker.c ****     /* Copy bytes with reasonable rapidity */
 2232              		.loc 1 929 5 discriminator 1 view .LVU730
 2233 0073 4C894C24 		movq	%r9, 16(%rsp)
 2233      10
 2234 0078 4C89CF   		movq	%r9, %rdi
 2235 007b 4C894424 		movq	%r8, 8(%rsp)
 2235      08
 2236 0080 41FF5018 		call	*24(%r8)
 2237              	.LVL255:
 2238 0084 85C0     		testl	%eax, %eax
 2239 0086 0F841201 		je	.L212
 2239      0000
 929:fltk-1.3.4-1/jpeg/jdmarker.c ****     /* Copy bytes with reasonable rapidity */
 2240              		.loc 1 929 5 discriminator 4 view .LVU731
 2241 008c 4C8B4424 		movq	8(%rsp), %r8
 2241      08
 2242 0091 4C8B4C24 		movq	16(%rsp), %r9
 2242      10
 2243 0096 4D8B20   		movq	(%r8), %r12
 2244              	.LVL256:
 929:fltk-1.3.4-1/jpeg/jdmarker.c ****     /* Copy bytes with reasonable rapidity */
 2245              		.loc 1 929 5 is_stmt 0 discriminator 4 view .LVU732
 2246 0099 498B5808 		movq	8(%r8), %rbx
 2247              	.LVL257:
 2248              	.L217:
 931:fltk-1.3.4-1/jpeg/jdmarker.c ****       *data++ = *next_input_byte++;
 2249              		.loc 1 931 11 is_stmt 1 view .LVU733
 2250 009d 4139EF   		cmpl	%ebp, %r15d
 2251 00a0 771F     		ja	.L253
 931:fltk-1.3.4-1/jpeg/jdmarker.c ****       *data++ = *next_input_byte++;
 2252              		.loc 1 931 11 is_stmt 0 view .LVU734
 2253 00a2 EB27     		jmp	.L222
 2254              		.p2align 4,,10
 2255 00a4 0F1F4000 		.p2align 3
 2256              	.L255:
 932:fltk-1.3.4-1/jpeg/jdmarker.c ****       bytes_in_buffer--;
 2257              		.loc 1 932 7 is_stmt 1 view .LVU735
 2258              	.LVL258:
 932:fltk-1.3.4-1/jpeg/jdmarker.c ****       bytes_in_buffer--;
 2259              		.loc 1 932 15 is_stmt 0 view .LVU736
 2260 00a8 4C89EF   		movq	%r13, %rdi
 2261 00ab 4C89E6   		movq	%r12, %rsi
 934:fltk-1.3.4-1/jpeg/jdmarker.c ****     }
 2262              		.loc 1 934 17 view .LVU737
 2263 00ae 83C501   		addl	$1, %ebp
 2264              	.LVL259:
 933:fltk-1.3.4-1/jpeg/jdmarker.c ****       bytes_read++;
 2265              		.loc 1 933 22 view .LVU738
 2266 00b1 4883EB01 		subq	$1, %rbx
 2267              	.LVL260:
 932:fltk-1.3.4-1/jpeg/jdmarker.c ****       bytes_in_buffer--;
 2268              		.loc 1 932 15 view .LVU739
 2269 00b5 A4       		movsb
 2270              	.LVL261:
 932:fltk-1.3.4-1/jpeg/jdmarker.c ****       bytes_in_buffer--;
 2271              		.loc 1 932 15 view .LVU740
 2272 00b6 4989F4   		movq	%rsi, %r12
 2273 00b9 4989FD   		movq	%rdi, %r13
 933:fltk-1.3.4-1/jpeg/jdmarker.c ****       bytes_read++;
 2274              		.loc 1 933 7 is_stmt 1 view .LVU741
 2275              	.LVL262:
 934:fltk-1.3.4-1/jpeg/jdmarker.c ****     }
 2276              		.loc 1 934 7 view .LVU742
 931:fltk-1.3.4-1/jpeg/jdmarker.c ****       *data++ = *next_input_byte++;
 2277              		.loc 1 931 11 view .LVU743
 2278 00bc 4439FD   		cmpl	%r15d, %ebp
 2279 00bf 7305     		jnb	.L218
 2280              	.LVL263:
 2281              	.L253:
 931:fltk-1.3.4-1/jpeg/jdmarker.c ****       *data++ = *next_input_byte++;
 2282              		.loc 1 931 11 is_stmt 0 view .LVU744
 2283 00c1 4885DB   		testq	%rbx, %rbx
 2284 00c4 75E2     		jne	.L255
 2285              	.L218:
 925:fltk-1.3.4-1/jpeg/jdmarker.c ****     INPUT_SYNC(cinfo);		/* move the restart point to here */
 2286              		.loc 1 925 9 is_stmt 1 view .LVU745
 2287 00c6 4139EF   		cmpl	%ebp, %r15d
 2288 00c9 7795     		ja	.L221
 2289              	.L222:
 2290              	.LVL264:
 939:fltk-1.3.4-1/jpeg/jdmarker.c ****     /* Add new marker to end of list */
 2291              		.loc 1 939 3 view .LVU746
 941:fltk-1.3.4-1/jpeg/jdmarker.c ****       cinfo->marker_list = cur_marker;
 2292              		.loc 1 941 5 view .LVU747
 941:fltk-1.3.4-1/jpeg/jdmarker.c ****       cinfo->marker_list = cur_marker;
 2293              		.loc 1 941 14 is_stmt 0 view .LVU748
 2294 00cb 498B8198 		movq	408(%r9), %rax
 2294      010000
 941:fltk-1.3.4-1/jpeg/jdmarker.c ****       cinfo->marker_list = cur_marker;
 2295              		.loc 1 941 8 view .LVU749
 2296 00d2 4885C0   		testq	%rax, %rax
 2297 00d5 0F842D02 		je	.L256
 2297      0000
 2298 00db 0F1F4400 		.p2align 4,,10
 2298      00
 2299              		.p2align 3
 2300              	.L224:
 2301              	.LVL265:
 2302              	.LBB39:
 945:fltk-1.3.4-1/jpeg/jdmarker.c **** 	prev = prev->next;
 2303              		.loc 1 945 13 is_stmt 1 view .LVU750
 2304 00e0 4889C2   		movq	%rax, %rdx
 945:fltk-1.3.4-1/jpeg/jdmarker.c **** 	prev = prev->next;
 2305              		.loc 1 945 18 is_stmt 0 view .LVU751
 2306 00e3 488B00   		movq	(%rax), %rax
 2307              	.LVL266:
 945:fltk-1.3.4-1/jpeg/jdmarker.c **** 	prev = prev->next;
 2308              		.loc 1 945 13 view .LVU752
 2309 00e6 4885C0   		testq	%rax, %rax
 2310 00e9 75F5     		jne	.L224
 947:fltk-1.3.4-1/jpeg/jdmarker.c ****     }
 2311              		.loc 1 947 7 is_stmt 1 view .LVU753
 947:fltk-1.3.4-1/jpeg/jdmarker.c ****     }
 2312              		.loc 1 947 18 is_stmt 0 view .LVU754
 2313 00eb 488B4424 		movq	24(%rsp), %rax
 2313      18
 2314 00f0 488902   		movq	%rax, (%rdx)
 2315              	.LVL267:
 2316              	.L223:
 947:fltk-1.3.4-1/jpeg/jdmarker.c ****     }
 2317              		.loc 1 947 18 view .LVU755
 2318              	.LBE39:
 950:fltk-1.3.4-1/jpeg/jdmarker.c ****     length = cur_marker->original_length - data_length;
 2319              		.loc 1 950 5 is_stmt 1 view .LVU756
 950:fltk-1.3.4-1/jpeg/jdmarker.c ****     length = cur_marker->original_length - data_length;
 2320              		.loc 1 950 10 is_stmt 0 view .LVU757
 2321 00f3 488B4424 		movq	24(%rsp), %rax
 2321      18
 951:fltk-1.3.4-1/jpeg/jdmarker.c ****   }
 2322              		.loc 1 951 42 view .LVU758
 2323 00f8 8B680C   		movl	12(%rax), %ebp
 950:fltk-1.3.4-1/jpeg/jdmarker.c ****     length = cur_marker->original_length - data_length;
 2324              		.loc 1 950 10 view .LVU759
 2325 00fb 488B7018 		movq	24(%rax), %rsi
 2326              	.LVL268:
 951:fltk-1.3.4-1/jpeg/jdmarker.c ****   }
 2327              		.loc 1 951 5 is_stmt 1 view .LVU760
 951:fltk-1.3.4-1/jpeg/jdmarker.c ****   }
 2328              		.loc 1 951 12 is_stmt 0 view .LVU761
 2329 00ff 4429FD   		subl	%r15d, %ebp
 2330              	.LVL269:
 2331              	.L213:
 954:fltk-1.3.4-1/jpeg/jdmarker.c **** 
 2332              		.loc 1 954 3 is_stmt 1 view .LVU762
 954:fltk-1.3.4-1/jpeg/jdmarker.c **** 
 2333              		.loc 1 954 22 is_stmt 0 view .LVU763
 2334 0102 49C786F8 		movq	$0, 248(%r14)
 2334      00000000 
 2334      000000
 957:fltk-1.3.4-1/jpeg/jdmarker.c ****   case M_APP0:
 2335              		.loc 1 957 3 is_stmt 1 view .LVU764
 957:fltk-1.3.4-1/jpeg/jdmarker.c ****   case M_APP0:
 2336              		.loc 1 957 16 is_stmt 0 view .LVU765
 2337 010d 418B813C 		movl	572(%r9), %eax
 2337      020000
 957:fltk-1.3.4-1/jpeg/jdmarker.c ****   case M_APP0:
 2338              		.loc 1 957 3 view .LVU766
 2339 0114 3DE00000 		cmpl	$224, %eax
 2339      00
 2340 0119 0F84B801 		je	.L225
 2340      0000
 957:fltk-1.3.4-1/jpeg/jdmarker.c ****   case M_APP0:
 2341              		.loc 1 957 3 view .LVU767
 2342 011f 3DEE0000 		cmpl	$238, %eax
 2342      00
 2343 0124 0F848601 		je	.L226
 2343      0000
 965:fltk-1.3.4-1/jpeg/jdmarker.c **** 	     (int) (data_length + length));
 2344              		.loc 1 965 5 view .LVU768
 2345 012a 498B01   		movq	(%r9), %rax
 2346 012d 4101EF   		addl	%ebp, %r15d
 2347 0130 4C894424 		movq	%r8, 16(%rsp)
 2347      10
 965:fltk-1.3.4-1/jpeg/jdmarker.c **** 	     (int) (data_length + length));
 2348              		.loc 1 965 5 is_stmt 1 view .LVU769
 2349 0135 4C89CF   		movq	%r9, %rdi
 2350 0138 4C894C24 		movq	%r9, 8(%rsp)
 2350      08
 2351 013d BE010000 		movl	$1, %esi
 2351      00
 2352              	.LVL270:
 965:fltk-1.3.4-1/jpeg/jdmarker.c **** 	     (int) (data_length + length));
 2353              		.loc 1 965 5 is_stmt 0 view .LVU770
 2354 0142 C740285D 		movl	$93, 40(%rax)
 2354      000000
 2355 0149 498B01   		movq	(%r9), %rax
 2356 014c 418B913C 		movl	572(%r9), %edx
 2356      020000
 2357 0153 89502C   		movl	%edx, 44(%rax)
 2358 0156 498B01   		movq	(%r9), %rax
 2359 0159 44897830 		movl	%r15d, 48(%rax)
 2360 015d 498B01   		movq	(%r9), %rax
 2361 0160 FF5008   		call	*8(%rax)
 2362              	.LVL271:
 2363 0163 4C8B4424 		movq	16(%rsp), %r8
 2363      10
 2364 0168 4C8B4C24 		movq	8(%rsp), %r9
 2364      08
 967:fltk-1.3.4-1/jpeg/jdmarker.c ****   }
 2365              		.loc 1 967 5 is_stmt 1 view .LVU771
 2366              	.L228:
 971:fltk-1.3.4-1/jpeg/jdmarker.c ****   if (length > 0)
 2367              		.loc 1 971 3 view .LVU772
 2368 016d 4D8920   		movq	%r12, (%r8)
 975:fltk-1.3.4-1/jpeg/jdmarker.c **** }
 2369              		.loc 1 975 10 is_stmt 0 view .LVU773
 2370 0170 41BC0100 		movl	$1, %r12d
 2370      0000
 971:fltk-1.3.4-1/jpeg/jdmarker.c ****   if (length > 0)
 2371              		.loc 1 971 3 view .LVU774
 2372 0176 49895808 		movq	%rbx, 8(%r8)
 972:fltk-1.3.4-1/jpeg/jdmarker.c ****     (*cinfo->src->skip_input_data) (cinfo, (long) length);
 2373              		.loc 1 972 3 is_stmt 1 view .LVU775
 972:fltk-1.3.4-1/jpeg/jdmarker.c ****     (*cinfo->src->skip_input_data) (cinfo, (long) length);
 2374              		.loc 1 972 6 is_stmt 0 view .LVU776
 2375 017a 4885ED   		testq	%rbp, %rbp
 2376 017d 7E0D     		jle	.L205
 973:fltk-1.3.4-1/jpeg/jdmarker.c **** 
 2377              		.loc 1 973 5 is_stmt 1 view .LVU777
 973:fltk-1.3.4-1/jpeg/jdmarker.c **** 
 2378              		.loc 1 973 6 is_stmt 0 view .LVU778
 2379 017f 498B4128 		movq	40(%r9), %rax
 2380 0183 4889EE   		movq	%rbp, %rsi
 2381 0186 4C89CF   		movq	%r9, %rdi
 2382 0189 FF5020   		call	*32(%rax)
 2383              	.LVL272:
 2384              	.L205:
 976:fltk-1.3.4-1/jpeg/jdmarker.c **** 
 2385              		.loc 1 976 1 view .LVU779
 2386 018c 4883C428 		addq	$40, %rsp
 2387              		.cfi_remember_state
 2388              		.cfi_def_cfa_offset 56
 2389 0190 4489E0   		movl	%r12d, %eax
 2390 0193 5B       		popq	%rbx
 2391              		.cfi_def_cfa_offset 48
 2392 0194 5D       		popq	%rbp
 2393              		.cfi_def_cfa_offset 40
 2394 0195 415C     		popq	%r12
 2395              		.cfi_def_cfa_offset 32
 2396 0197 415D     		popq	%r13
 2397              		.cfi_def_cfa_offset 24
 2398 0199 415E     		popq	%r14
 2399              		.cfi_def_cfa_offset 16
 2400              	.LVL273:
 976:fltk-1.3.4-1/jpeg/jdmarker.c **** 
 2401              		.loc 1 976 1 view .LVU780
 2402 019b 415F     		popq	%r15
 2403              		.cfi_def_cfa_offset 8
 2404 019d C3       		ret
 2405              	.LVL274:
 2406              	.L212:
 2407              		.cfi_restore_state
 888:fltk-1.3.4-1/jpeg/jdmarker.c ****     length -= 2;
 2408              		.loc 1 888 5 view .LVU781
 2409 019e 4531E4   		xorl	%r12d, %r12d
 2410 01a1 EBE9     		jmp	.L205
 2411              	.LVL275:
 2412              	.L254:
 888:fltk-1.3.4-1/jpeg/jdmarker.c ****     length -= 2;
 2413              		.loc 1 888 5 is_stmt 1 view .LVU782
 888:fltk-1.3.4-1/jpeg/jdmarker.c ****     length -= 2;
 2414              		.loc 1 888 5 view .LVU783
 2415 01a3 4885DB   		testq	%rbx, %rbx
 2416 01a6 7523     		jne	.L207
 888:fltk-1.3.4-1/jpeg/jdmarker.c ****     length -= 2;
 2417              		.loc 1 888 5 discriminator 1 view .LVU784
 2418 01a8 4C894424 		movq	%r8, 8(%rsp)
 2418      08
 2419 01ad 48897C24 		movq	%rdi, 16(%rsp)
 2419      10
 2420 01b2 41FF5018 		call	*24(%r8)
 2421              	.LVL276:
 888:fltk-1.3.4-1/jpeg/jdmarker.c ****     length -= 2;
 2422              		.loc 1 888 5 is_stmt 0 discriminator 1 view .LVU785
 2423 01b6 4C8B4424 		movq	8(%rsp), %r8
 2423      08
 2424 01bb 4C8B4C24 		movq	16(%rsp), %r9
 2424      10
 2425 01c0 85C0     		testl	%eax, %eax
 2426 01c2 74DA     		je	.L212
 888:fltk-1.3.4-1/jpeg/jdmarker.c ****     length -= 2;
 2427              		.loc 1 888 5 is_stmt 1 discriminator 4 view .LVU786
 2428 01c4 4D8B20   		movq	(%r8), %r12
 2429              	.LVL277:
 888:fltk-1.3.4-1/jpeg/jdmarker.c ****     length -= 2;
 2430              		.loc 1 888 5 is_stmt 0 discriminator 4 view .LVU787
 2431 01c7 498B5808 		movq	8(%r8), %rbx
 2432              	.LVL278:
 2433              	.L207:
 888:fltk-1.3.4-1/jpeg/jdmarker.c ****     length -= 2;
 2434              		.loc 1 888 5 is_stmt 1 discriminator 5 view .LVU788
 888:fltk-1.3.4-1/jpeg/jdmarker.c ****     length -= 2;
 2435              		.loc 1 888 5 discriminator 5 view .LVU789
 888:fltk-1.3.4-1/jpeg/jdmarker.c ****     length -= 2;
 2436              		.loc 1 888 5 discriminator 5 view .LVU790
 888:fltk-1.3.4-1/jpeg/jdmarker.c ****     length -= 2;
 2437              		.loc 1 888 5 is_stmt 0 discriminator 5 view .LVU791
 2438 01cb 410FB62C 		movzbl	(%r12), %ebp
 2438      24
 2439 01d0 498D4424 		leaq	1(%r12), %rax
 2439      01
 2440              	.LVL279:
 888:fltk-1.3.4-1/jpeg/jdmarker.c ****     length -= 2;
 2441              		.loc 1 888 5 discriminator 5 view .LVU792
 2442 01d5 C1E508   		sall	$8, %ebp
 2443              	.LVL280:
 888:fltk-1.3.4-1/jpeg/jdmarker.c ****     length -= 2;
 2444              		.loc 1 888 5 is_stmt 1 discriminator 5 view .LVU793
 2445 01d8 4883EB01 		subq	$1, %rbx
 2446              	.LVL281:
 888:fltk-1.3.4-1/jpeg/jdmarker.c ****     length -= 2;
 2447              		.loc 1 888 5 is_stmt 0 discriminator 5 view .LVU794
 2448 01dc 7526     		jne	.L211
 888:fltk-1.3.4-1/jpeg/jdmarker.c ****     length -= 2;
 2449              		.loc 1 888 5 is_stmt 1 discriminator 6 view .LVU795
 2450 01de 4C894C24 		movq	%r9, 16(%rsp)
 2450      10
 2451 01e3 4C89CF   		movq	%r9, %rdi
 2452 01e6 4C894424 		movq	%r8, 8(%rsp)
 2452      08
 2453 01eb 41FF5018 		call	*24(%r8)
 2454              	.LVL282:
 888:fltk-1.3.4-1/jpeg/jdmarker.c ****     length -= 2;
 2455              		.loc 1 888 5 is_stmt 0 discriminator 6 view .LVU796
 2456 01ef 85C0     		testl	%eax, %eax
 2457 01f1 74AB     		je	.L212
 888:fltk-1.3.4-1/jpeg/jdmarker.c ****     length -= 2;
 2458              		.loc 1 888 5 is_stmt 1 discriminator 9 view .LVU797
 2459 01f3 4C8B4424 		movq	8(%rsp), %r8
 2459      08
 2460 01f8 4C8B4C24 		movq	16(%rsp), %r9
 2460      10
 2461 01fd 498B00   		movq	(%r8), %rax
 2462              	.LVL283:
 888:fltk-1.3.4-1/jpeg/jdmarker.c ****     length -= 2;
 2463              		.loc 1 888 5 is_stmt 0 discriminator 9 view .LVU798
 2464 0200 498B5808 		movq	8(%r8), %rbx
 2465              	.LVL284:
 2466              	.L211:
 888:fltk-1.3.4-1/jpeg/jdmarker.c ****     length -= 2;
 2467              		.loc 1 888 5 is_stmt 1 discriminator 10 view .LVU799
 888:fltk-1.3.4-1/jpeg/jdmarker.c ****     length -= 2;
 2468              		.loc 1 888 5 discriminator 10 view .LVU800
 2469 0204 4C8D6001 		leaq	1(%rax), %r12
 2470 0208 0FB600   		movzbl	(%rax), %eax
 2471              	.LVL285:
 888:fltk-1.3.4-1/jpeg/jdmarker.c ****     length -= 2;
 2472              		.loc 1 888 5 is_stmt 0 discriminator 10 view .LVU801
 2473 020b 4883EB01 		subq	$1, %rbx
 2474              	.LVL286:
 888:fltk-1.3.4-1/jpeg/jdmarker.c ****     length -= 2;
 2475              		.loc 1 888 5 is_stmt 1 discriminator 10 view .LVU802
 888:fltk-1.3.4-1/jpeg/jdmarker.c ****     length -= 2;
 2476              		.loc 1 888 5 discriminator 10 view .LVU803
 889:fltk-1.3.4-1/jpeg/jdmarker.c ****     if (length >= 0) {		/* watch out for bogus length word */
 2477              		.loc 1 889 5 discriminator 10 view .LVU804
 889:fltk-1.3.4-1/jpeg/jdmarker.c ****     if (length >= 0) {		/* watch out for bogus length word */
 2478              		.loc 1 889 12 is_stmt 0 discriminator 10 view .LVU805
 2479 020f 488D6C05 		leaq	-2(%rbp,%rax), %rbp
 2479      FE
 2480              	.LVL287:
 890:fltk-1.3.4-1/jpeg/jdmarker.c ****       /* figure out how much we want to save */
 2481              		.loc 1 890 5 is_stmt 1 discriminator 10 view .LVU806
 890:fltk-1.3.4-1/jpeg/jdmarker.c ****       /* figure out how much we want to save */
 2482              		.loc 1 890 8 is_stmt 0 discriminator 10 view .LVU807
 2483 0214 4885ED   		testq	%rbp, %rbp
 2484 0217 0F88E100 		js	.L230
 2484      0000
 2485              	.LBB40:
 892:fltk-1.3.4-1/jpeg/jdmarker.c ****       if (cinfo->unread_marker == (int) M_COM)
 2486              		.loc 1 892 7 is_stmt 1 view .LVU808
 893:fltk-1.3.4-1/jpeg/jdmarker.c **** 	limit = marker->length_limit_COM;
 2487              		.loc 1 893 7 view .LVU809
 893:fltk-1.3.4-1/jpeg/jdmarker.c **** 	limit = marker->length_limit_COM;
 2488              		.loc 1 893 16 is_stmt 0 view .LVU810
 2489 021d 418B813C 		movl	572(%r9), %eax
 2489      020000
 893:fltk-1.3.4-1/jpeg/jdmarker.c **** 	limit = marker->length_limit_COM;
 2490              		.loc 1 893 10 view .LVU811
 2491 0224 3DFE0000 		cmpl	$254, %eax
 2491      00
 2492 0229 0F84EA00 		je	.L257
 2492      0000
 896:fltk-1.3.4-1/jpeg/jdmarker.c ****       if ((unsigned int) length < limit)
 2493              		.loc 1 896 2 is_stmt 1 view .LVU812
 896:fltk-1.3.4-1/jpeg/jdmarker.c ****       if ((unsigned int) length < limit)
 2494              		.loc 1 896 57 is_stmt 0 view .LVU813
 2495 022f 2DE00000 		subl	$224, %eax
 2495      00
 896:fltk-1.3.4-1/jpeg/jdmarker.c ****       if ((unsigned int) length < limit)
 2496              		.loc 1 896 8 view .LVU814
 2497 0234 4898     		cltq
 2498 0236 458BBC86 		movl	180(%r14,%rax,4), %r15d
 2498      B4000000 
 2499              	.LVL288:
 2500              	.L215:
 896:fltk-1.3.4-1/jpeg/jdmarker.c ****       if ((unsigned int) length < limit)
 2501              		.loc 1 896 8 view .LVU815
 2502 023e 4439FD   		cmpl	%r15d, %ebp
 901:fltk-1.3.4-1/jpeg/jdmarker.c **** 				    SIZEOF(struct jpeg_marker_struct) + limit);
 2503              		.loc 1 901 3 view .LVU816
 2504 0241 498B4108 		movq	8(%r9), %rax
 2505 0245 4C894424 		movq	%r8, 16(%rsp)
 2505      10
 897:fltk-1.3.4-1/jpeg/jdmarker.c **** 	limit = (unsigned int) length;
 2506              		.loc 1 897 7 is_stmt 1 view .LVU817
 901:fltk-1.3.4-1/jpeg/jdmarker.c **** 				    SIZEOF(struct jpeg_marker_struct) + limit);
 2507              		.loc 1 901 3 is_stmt 0 view .LVU818
 2508 024a 4C89CF   		movq	%r9, %rdi
 2509 024d 440F46FD 		cmovbe	%ebp, %r15d
 2510              	.LVL289:
 900:fltk-1.3.4-1/jpeg/jdmarker.c **** 	(*cinfo->mem->alloc_large) ((j_common_ptr) cinfo, JPOOL_IMAGE,
 2511              		.loc 1 900 7 is_stmt 1 view .LVU819
 901:fltk-1.3.4-1/jpeg/jdmarker.c **** 				    SIZEOF(struct jpeg_marker_struct) + limit);
 2512              		.loc 1 901 3 is_stmt 0 view .LVU820
 2513 0251 4C894C24 		movq	%r9, 8(%rsp)
 2513      08
 2514 0256 BE010000 		movl	$1, %esi
 2514      00
 2515 025b 4489FA   		movl	%r15d, %edx
 2516 025e 4883C220 		addq	$32, %rdx
 2517 0262 FF5008   		call	*8(%rax)
 2518              	.LVL290:
 904:fltk-1.3.4-1/jpeg/jdmarker.c ****       cur_marker->original_length = (unsigned int) length;
 2519              		.loc 1 904 28 view .LVU821
 2520 0265 4C8B4C24 		movq	8(%rsp), %r9
 2520      08
 2521              	.LBE40:
 2522 026a 4C8B4424 		movq	16(%rsp), %r8
 2522      10
 2523              	.LBB41:
 903:fltk-1.3.4-1/jpeg/jdmarker.c ****       cur_marker->marker = (UINT8) cinfo->unread_marker;
 2524              		.loc 1 903 24 view .LVU822
 2525 026f 48C70000 		movq	$0, (%rax)
 2525      000000
 901:fltk-1.3.4-1/jpeg/jdmarker.c **** 				    SIZEOF(struct jpeg_marker_struct) + limit);
 2526              		.loc 1 901 3 view .LVU823
 2527 0276 4889C1   		movq	%rax, %rcx
 2528 0279 48894424 		movq	%rax, 24(%rsp)
 2528      18
 2529              	.LVL291:
 903:fltk-1.3.4-1/jpeg/jdmarker.c ****       cur_marker->marker = (UINT8) cinfo->unread_marker;
 2530              		.loc 1 903 7 is_stmt 1 view .LVU824
 904:fltk-1.3.4-1/jpeg/jdmarker.c ****       cur_marker->original_length = (unsigned int) length;
 2531              		.loc 1 904 7 view .LVU825
 904:fltk-1.3.4-1/jpeg/jdmarker.c ****       cur_marker->original_length = (unsigned int) length;
 2532              		.loc 1 904 28 is_stmt 0 view .LVU826
 2533 027e 418B813C 		movl	572(%r9), %eax
 2533      020000
 2534              	.LVL292:
 908:fltk-1.3.4-1/jpeg/jdmarker.c ****       marker->cur_marker = cur_marker;
 2535              		.loc 1 908 60 view .LVU827
 2536 0285 4C8D6920 		leaq	32(%rcx), %r13
 905:fltk-1.3.4-1/jpeg/jdmarker.c ****       cur_marker->data_length = limit;
 2537              		.loc 1 905 35 view .LVU828
 2538 0289 89690C   		movl	%ebp, 12(%rcx)
 911:fltk-1.3.4-1/jpeg/jdmarker.c ****       data_length = limit;
 2539              		.loc 1 911 18 view .LVU829
 2540 028c 31ED     		xorl	%ebp, %ebp
 2541              	.LVL293:
 904:fltk-1.3.4-1/jpeg/jdmarker.c ****       cur_marker->original_length = (unsigned int) length;
 2542              		.loc 1 904 28 view .LVU830
 2543 028e 884108   		movb	%al, 8(%rcx)
 905:fltk-1.3.4-1/jpeg/jdmarker.c ****       cur_marker->data_length = limit;
 2544              		.loc 1 905 7 is_stmt 1 view .LVU831
 906:fltk-1.3.4-1/jpeg/jdmarker.c ****       /* data area is just beyond the jpeg_marker_struct */
 2545              		.loc 1 906 7 view .LVU832
 906:fltk-1.3.4-1/jpeg/jdmarker.c ****       /* data area is just beyond the jpeg_marker_struct */
 2546              		.loc 1 906 31 is_stmt 0 view .LVU833
 2547 0291 44897910 		movl	%r15d, 16(%rcx)
 908:fltk-1.3.4-1/jpeg/jdmarker.c ****       marker->cur_marker = cur_marker;
 2548              		.loc 1 908 7 is_stmt 1 view .LVU834
 908:fltk-1.3.4-1/jpeg/jdmarker.c ****       marker->cur_marker = cur_marker;
 2549              		.loc 1 908 31 is_stmt 0 view .LVU835
 2550 0295 4C896918 		movq	%r13, 24(%rcx)
 2551              	.LVL294:
 909:fltk-1.3.4-1/jpeg/jdmarker.c ****       marker->bytes_read = 0;
 2552              		.loc 1 909 7 is_stmt 1 view .LVU836
 909:fltk-1.3.4-1/jpeg/jdmarker.c ****       marker->bytes_read = 0;
 2553              		.loc 1 909 26 is_stmt 0 view .LVU837
 2554 0299 49898EF8 		movq	%rcx, 248(%r14)
 2554      000000
 910:fltk-1.3.4-1/jpeg/jdmarker.c ****       bytes_read = 0;
 2555              		.loc 1 910 7 is_stmt 1 view .LVU838
 910:fltk-1.3.4-1/jpeg/jdmarker.c ****       bytes_read = 0;
 2556              		.loc 1 910 26 is_stmt 0 view .LVU839
 2557 02a0 41C78600 		movl	$0, 256(%r14)
 2557      01000000 
 2557      000000
 911:fltk-1.3.4-1/jpeg/jdmarker.c ****       data_length = limit;
 2558              		.loc 1 911 7 is_stmt 1 view .LVU840
 2559              	.LVL295:
 912:fltk-1.3.4-1/jpeg/jdmarker.c ****     } else {
 2560              		.loc 1 912 7 view .LVU841
 912:fltk-1.3.4-1/jpeg/jdmarker.c ****     } else {
 2561              		.loc 1 912 7 is_stmt 0 view .LVU842
 2562              	.LBE41:
 2563 02ab E9A3FDFF 		jmp	.L216
 2563      FF
 2564              	.LVL296:
 2565              	.L226:
 962:fltk-1.3.4-1/jpeg/jdmarker.c ****     break;
 2566              		.loc 1 962 5 view .LVU843
 2567 02b0 4C89CF   		movq	%r9, %rdi
 2568 02b3 4889E9   		movq	%rbp, %rcx
 2569 02b6 4489FA   		movl	%r15d, %edx
 2570 02b9 4C894424 		movq	%r8, 16(%rsp)
 2570      10
 962:fltk-1.3.4-1/jpeg/jdmarker.c ****     break;
 2571              		.loc 1 962 5 is_stmt 1 view .LVU844
 2572 02be 4C894C24 		movq	%r9, 8(%rsp)
 2572      08
 2573 02c3 E8000000 		call	examine_app14
 2573      00
 2574              	.LVL297:
 963:fltk-1.3.4-1/jpeg/jdmarker.c ****   default:
 2575              		.loc 1 963 5 view .LVU845
 2576 02c8 4C8B4C24 		movq	8(%rsp), %r9
 2576      08
 2577 02cd 4C8B4424 		movq	16(%rsp), %r8
 2577      10
 2578 02d2 E996FEFF 		jmp	.L228
 2578      FF
 2579              	.LVL298:
 2580              	.L225:
 959:fltk-1.3.4-1/jpeg/jdmarker.c ****     break;
 2581              		.loc 1 959 5 is_stmt 0 view .LVU846
 2582 02d7 4C89CF   		movq	%r9, %rdi
 2583 02da 4889E9   		movq	%rbp, %rcx
 2584 02dd 4489FA   		movl	%r15d, %edx
 2585 02e0 4C894424 		movq	%r8, 16(%rsp)
 2585      10
 959:fltk-1.3.4-1/jpeg/jdmarker.c ****     break;
 2586              		.loc 1 959 5 is_stmt 1 view .LVU847
 2587 02e5 4C894C24 		movq	%r9, 8(%rsp)
 2587      08
 2588 02ea E8000000 		call	examine_app0
 2588      00
 2589              	.LVL299:
 960:fltk-1.3.4-1/jpeg/jdmarker.c ****   case M_APP14:
 2590              		.loc 1 960 5 view .LVU848
 2591 02ef 4C8B4C24 		movq	8(%rsp), %r9
 2591      08
 2592 02f4 4C8B4424 		movq	16(%rsp), %r8
 2592      10
 2593 02f9 E96FFEFF 		jmp	.L228
 2593      FF
 2594              	.LVL300:
 2595              	.L230:
 916:fltk-1.3.4-1/jpeg/jdmarker.c ****     }
 2596              		.loc 1 916 12 is_stmt 0 view .LVU849
 2597 02fe 31F6     		xorl	%esi, %esi
 915:fltk-1.3.4-1/jpeg/jdmarker.c ****       data = NULL;
 2598              		.loc 1 915 32 view .LVU850
 2599 0300 4531FF   		xorl	%r15d, %r15d
 2600 0303 E9FAFDFF 		jmp	.L213
 2600      FF
 2601              	.LVL301:
 2602              	.L256:
 942:fltk-1.3.4-1/jpeg/jdmarker.c ****     } else {
 2603              		.loc 1 942 7 is_stmt 1 view .LVU851
 942:fltk-1.3.4-1/jpeg/jdmarker.c ****     } else {
 2604              		.loc 1 942 26 is_stmt 0 view .LVU852
 2605 0308 488B4424 		movq	24(%rsp), %rax
 2605      18
 2606 030d 49898198 		movq	%rax, 408(%r9)
 2606      010000
 2607 0314 E9DAFDFF 		jmp	.L223
 2607      FF
 2608              	.LVL302:
 2609              	.L257:
 2610              	.LBB42:
 894:fltk-1.3.4-1/jpeg/jdmarker.c ****       else
 2611              		.loc 1 894 2 is_stmt 1 view .LVU853
 894:fltk-1.3.4-1/jpeg/jdmarker.c ****       else
 2612              		.loc 1 894 8 is_stmt 0 view .LVU854
 2613 0319 458BBEB0 		movl	176(%r14), %r15d
 2613      000000
 2614              	.LVL303:
 894:fltk-1.3.4-1/jpeg/jdmarker.c ****       else
 2615              		.loc 1 894 8 view .LVU855
 2616 0320 E919FFFF 		jmp	.L215
 2616      FF
 2617              	.LBE42:
 2618              		.cfi_endproc
 2619              	.LFE62:
 2621              		.section	.text.get_dht,"ax",@progbits
 2622              		.p2align 4
 2624              	get_dht:
 2625              	.LVL304:
 2626              	.LFB55:
 461:fltk-1.3.4-1/jpeg/jdmarker.c ****   INT32 length;
 2627              		.loc 1 461 1 is_stmt 1 view -0
 2628              		.cfi_startproc
 461:fltk-1.3.4-1/jpeg/jdmarker.c ****   INT32 length;
 2629              		.loc 1 461 1 is_stmt 0 view .LVU857
 2630 0000 4157     		pushq	%r15
 2631              		.cfi_def_cfa_offset 16
 2632              		.cfi_offset 15, -16
 2633 0002 4156     		pushq	%r14
 2634              		.cfi_def_cfa_offset 24
 2635              		.cfi_offset 14, -24
 2636 0004 4155     		pushq	%r13
 2637              		.cfi_def_cfa_offset 32
 2638              		.cfi_offset 13, -32
 2639 0006 4989FD   		movq	%rdi, %r13
 2640 0009 4154     		pushq	%r12
 2641              		.cfi_def_cfa_offset 40
 2642              		.cfi_offset 12, -40
 2643 000b 55       		pushq	%rbp
 2644              		.cfi_def_cfa_offset 48
 2645              		.cfi_offset 6, -48
 2646 000c 53       		pushq	%rbx
 2647              		.cfi_def_cfa_offset 56
 2648              		.cfi_offset 3, -56
 2649 000d 4881EC68 		subq	$360, %rsp
 2649      010000
 2650              		.cfi_def_cfa_offset 416
 467:fltk-1.3.4-1/jpeg/jdmarker.c **** 
 2651              		.loc 1 467 3 view .LVU858
 2652 0014 4C8B7F28 		movq	40(%rdi), %r15
 461:fltk-1.3.4-1/jpeg/jdmarker.c ****   INT32 length;
 2653              		.loc 1 461 1 view .LVU859
 2654 0018 64488B04 		movq	%fs:40, %rax
 2654      25280000 
 2654      00
 2655 0021 48898424 		movq	%rax, 344(%rsp)
 2655      58010000 
 2656 0029 31C0     		xorl	%eax, %eax
 462:fltk-1.3.4-1/jpeg/jdmarker.c ****   UINT8 bits[17];
 2657              		.loc 1 462 3 is_stmt 1 view .LVU860
 463:fltk-1.3.4-1/jpeg/jdmarker.c ****   UINT8 huffval[256];
 2658              		.loc 1 463 3 view .LVU861
 464:fltk-1.3.4-1/jpeg/jdmarker.c ****   int i, index, count;
 2659              		.loc 1 464 3 view .LVU862
 465:fltk-1.3.4-1/jpeg/jdmarker.c ****   JHUFF_TBL **htblptr;
 2660              		.loc 1 465 3 view .LVU863
 466:fltk-1.3.4-1/jpeg/jdmarker.c ****   INPUT_VARS(cinfo);
 2661              		.loc 1 466 3 view .LVU864
 467:fltk-1.3.4-1/jpeg/jdmarker.c **** 
 2662              		.loc 1 467 3 view .LVU865
 2663              	.LVL305:
 467:fltk-1.3.4-1/jpeg/jdmarker.c **** 
 2664              		.loc 1 467 3 view .LVU866
 467:fltk-1.3.4-1/jpeg/jdmarker.c **** 
 2665              		.loc 1 467 3 view .LVU867
 2666 002b 498B5708 		movq	8(%r15), %rdx
 2667              	.LVL306:
 469:fltk-1.3.4-1/jpeg/jdmarker.c ****   length -= 2;
 2668              		.loc 1 469 3 view .LVU868
 469:fltk-1.3.4-1/jpeg/jdmarker.c ****   length -= 2;
 2669              		.loc 1 469 3 view .LVU869
 2670 002f 4885D2   		testq	%rdx, %rdx
 2671 0032 0F84E800 		je	.L259
 2671      0000
 467:fltk-1.3.4-1/jpeg/jdmarker.c **** 
 2672              		.loc 1 467 3 is_stmt 0 view .LVU870
 2673 0038 498B0F   		movq	(%r15), %rcx
 469:fltk-1.3.4-1/jpeg/jdmarker.c ****   length -= 2;
 2674              		.loc 1 469 3 is_stmt 1 view .LVU871
 469:fltk-1.3.4-1/jpeg/jdmarker.c ****   length -= 2;
 2675              		.loc 1 469 3 view .LVU872
 2676              	.LVL307:
 469:fltk-1.3.4-1/jpeg/jdmarker.c ****   length -= 2;
 2677              		.loc 1 469 3 view .LVU873
 469:fltk-1.3.4-1/jpeg/jdmarker.c ****   length -= 2;
 2678              		.loc 1 469 3 is_stmt 0 view .LVU874
 2679 003b 0FB601   		movzbl	(%rcx), %eax
 2680 003e C1E008   		sall	$8, %eax
 2681 0041 89C3     		movl	%eax, %ebx
 2682              	.LVL308:
 469:fltk-1.3.4-1/jpeg/jdmarker.c ****   length -= 2;
 2683              		.loc 1 469 3 is_stmt 1 view .LVU875
 2684 0043 4883EA01 		subq	$1, %rdx
 2685              	.LVL309:
 469:fltk-1.3.4-1/jpeg/jdmarker.c ****   length -= 2;
 2686              		.loc 1 469 3 is_stmt 0 view .LVU876
 2687 0047 0F84F400 		je	.L263
 2687      0000
 2688              	.LVL310:
 2689              	.L306:
 469:fltk-1.3.4-1/jpeg/jdmarker.c ****   length -= 2;
 2690              		.loc 1 469 3 view .LVU877
 2691 004d 4883C101 		addq	$1, %rcx
 2692              	.L264:
 2693              	.LVL311:
 469:fltk-1.3.4-1/jpeg/jdmarker.c ****   length -= 2;
 2694              		.loc 1 469 3 is_stmt 1 discriminator 10 view .LVU878
 469:fltk-1.3.4-1/jpeg/jdmarker.c ****   length -= 2;
 2695              		.loc 1 469 3 discriminator 10 view .LVU879
 2696 0051 0FB601   		movzbl	(%rcx), %eax
 2697 0054 4C8D72FF 		leaq	-1(%rdx), %r14
 2698              	.LVL312:
 469:fltk-1.3.4-1/jpeg/jdmarker.c ****   length -= 2;
 2699              		.loc 1 469 3 discriminator 10 view .LVU880
 2700 0058 488D7101 		leaq	1(%rcx), %rsi
 2701              	.LVL313:
 469:fltk-1.3.4-1/jpeg/jdmarker.c ****   length -= 2;
 2702              		.loc 1 469 3 discriminator 10 view .LVU881
 470:fltk-1.3.4-1/jpeg/jdmarker.c ****   
 2703              		.loc 1 470 3 discriminator 10 view .LVU882
 470:fltk-1.3.4-1/jpeg/jdmarker.c ****   
 2704              		.loc 1 470 10 is_stmt 0 discriminator 10 view .LVU883
 2705 005c 488D4403 		leaq	-2(%rbx,%rax), %rax
 2705      FE
 2706              	.LVL314:
 470:fltk-1.3.4-1/jpeg/jdmarker.c ****   
 2707              		.loc 1 470 10 discriminator 10 view .LVU884
 2708 0061 48894424 		movq	%rax, 8(%rsp)
 2708      08
 2709              	.LVL315:
 472:fltk-1.3.4-1/jpeg/jdmarker.c ****     INPUT_BYTE(cinfo, index, return FALSE);
 2710              		.loc 1 472 3 is_stmt 1 discriminator 10 view .LVU885
 472:fltk-1.3.4-1/jpeg/jdmarker.c ****     INPUT_BYTE(cinfo, index, return FALSE);
 2711              		.loc 1 472 9 discriminator 10 view .LVU886
 2712 0066 4883F810 		cmpq	$16, %rax
 2713 006a 0F8EFE03 		jle	.L266
 2713      0000
 2714 0070 488D6C24 		leaq	65(%rsp), %rbp
 2714      41
 2715              	.LVL316:
 2716              	.L279:
 473:fltk-1.3.4-1/jpeg/jdmarker.c **** 
 2717              		.loc 1 473 5 view .LVU887
 473:fltk-1.3.4-1/jpeg/jdmarker.c **** 
 2718              		.loc 1 473 5 view .LVU888
 2719 0075 4D85F6   		testq	%r14, %r14
 2720 0078 7516     		jne	.L267
 473:fltk-1.3.4-1/jpeg/jdmarker.c **** 
 2721              		.loc 1 473 5 discriminator 1 view .LVU889
 2722 007a 4C89EF   		movq	%r13, %rdi
 2723 007d 41FF5718 		call	*24(%r15)
 2724              	.LVL317:
 473:fltk-1.3.4-1/jpeg/jdmarker.c **** 
 2725              		.loc 1 473 5 is_stmt 0 discriminator 1 view .LVU890
 2726 0081 85C0     		testl	%eax, %eax
 2727 0083 0F84D700 		je	.L265
 2727      0000
 473:fltk-1.3.4-1/jpeg/jdmarker.c **** 
 2728              		.loc 1 473 5 is_stmt 1 discriminator 4 view .LVU891
 2729 0089 498B37   		movq	(%r15), %rsi
 2730              	.LVL318:
 473:fltk-1.3.4-1/jpeg/jdmarker.c **** 
 2731              		.loc 1 473 5 is_stmt 0 discriminator 4 view .LVU892
 2732 008c 4D8B7708 		movq	8(%r15), %r14
 2733              	.LVL319:
 2734              	.L267:
 473:fltk-1.3.4-1/jpeg/jdmarker.c **** 
 2735              		.loc 1 473 5 is_stmt 1 discriminator 5 view .LVU893
 473:fltk-1.3.4-1/jpeg/jdmarker.c **** 
 2736              		.loc 1 473 5 discriminator 5 view .LVU894
 475:fltk-1.3.4-1/jpeg/jdmarker.c ****       
 2737              		.loc 1 475 5 is_stmt 0 discriminator 5 view .LVU895
 2738 0090 498B4500 		movq	0(%r13), %rax
 473:fltk-1.3.4-1/jpeg/jdmarker.c **** 
 2739              		.loc 1 473 5 discriminator 5 view .LVU896
 2740 0094 0FB616   		movzbl	(%rsi), %edx
 2741 0097 4C8D5601 		leaq	1(%rsi), %r10
 475:fltk-1.3.4-1/jpeg/jdmarker.c ****       
 2742              		.loc 1 475 5 discriminator 5 view .LVU897
 2743 009b 4C89EF   		movq	%r13, %rdi
 473:fltk-1.3.4-1/jpeg/jdmarker.c **** 
 2744              		.loc 1 473 5 discriminator 5 view .LVU898
 2745 009e 4C895424 		movq	%r10, 24(%rsp)
 2745      18
 475:fltk-1.3.4-1/jpeg/jdmarker.c ****       
 2746              		.loc 1 475 5 discriminator 5 view .LVU899
 2747 00a3 BE010000 		movl	$1, %esi
 2747      00
 2748              	.LVL320:
 473:fltk-1.3.4-1/jpeg/jdmarker.c **** 
 2749              		.loc 1 473 5 discriminator 5 view .LVU900
 2750 00a8 4983EE01 		subq	$1, %r14
 2751              	.LVL321:
 473:fltk-1.3.4-1/jpeg/jdmarker.c **** 
 2752              		.loc 1 473 5 is_stmt 1 discriminator 5 view .LVU901
 478:fltk-1.3.4-1/jpeg/jdmarker.c ****     for (i = 1; i <= 16; i++) {
 2753              		.loc 1 478 11 is_stmt 0 discriminator 5 view .LVU902
 2754 00ac 31DB     		xorl	%ebx, %ebx
 475:fltk-1.3.4-1/jpeg/jdmarker.c ****       
 2755              		.loc 1 475 5 discriminator 5 view .LVU903
 2756 00ae C7402852 		movl	$82, 40(%rax)
 2756      000000
 2757 00b5 498B4500 		movq	0(%r13), %rax
 2758 00b9 4C8D6424 		leaq	49(%rsp), %r12
 2758      31
 473:fltk-1.3.4-1/jpeg/jdmarker.c **** 
 2759              		.loc 1 473 5 discriminator 5 view .LVU904
 2760 00be 88542427 		movb	%dl, 39(%rsp)
 475:fltk-1.3.4-1/jpeg/jdmarker.c ****       
 2761              		.loc 1 475 5 discriminator 5 view .LVU905
 2762 00c2 89502C   		movl	%edx, 44(%rax)
 2763 00c5 498B4500 		movq	0(%r13), %rax
 473:fltk-1.3.4-1/jpeg/jdmarker.c **** 
 2764              		.loc 1 473 5 discriminator 5 view .LVU906
 2765 00c9 89542410 		movl	%edx, 16(%rsp)
 2766              	.LVL322:
 473:fltk-1.3.4-1/jpeg/jdmarker.c **** 
 2767              		.loc 1 473 5 is_stmt 1 discriminator 5 view .LVU907
 475:fltk-1.3.4-1/jpeg/jdmarker.c ****       
 2768              		.loc 1 475 5 discriminator 5 view .LVU908
 2769 00cd FF5008   		call	*8(%rax)
 2770              	.LVL323:
 477:fltk-1.3.4-1/jpeg/jdmarker.c ****     count = 0;
 2771              		.loc 1 477 5 discriminator 5 view .LVU909
 478:fltk-1.3.4-1/jpeg/jdmarker.c ****     for (i = 1; i <= 16; i++) {
 2772              		.loc 1 478 5 discriminator 5 view .LVU910
 479:fltk-1.3.4-1/jpeg/jdmarker.c ****       INPUT_BYTE(cinfo, bits[i], return FALSE);
 2773              		.loc 1 479 5 discriminator 5 view .LVU911
 479:fltk-1.3.4-1/jpeg/jdmarker.c ****       INPUT_BYTE(cinfo, bits[i], return FALSE);
 2774              		.loc 1 479 17 discriminator 5 view .LVU912
 478:fltk-1.3.4-1/jpeg/jdmarker.c ****     for (i = 1; i <= 16; i++) {
 2775              		.loc 1 478 11 is_stmt 0 discriminator 5 view .LVU913
 2776 00d0 4C8B5424 		movq	24(%rsp), %r10
 2776      18
 2777 00d5 EB3A     		jmp	.L269
 2778              	.LVL324:
 2779 00d7 660F1F84 		.p2align 4,,10
 2779      00000000 
 2779      00
 2780              		.p2align 3
 2781              	.L305:
 480:fltk-1.3.4-1/jpeg/jdmarker.c ****       count += bits[i];
 2782              		.loc 1 480 7 is_stmt 1 discriminator 1 view .LVU914
 2783 00e0 4C89EF   		movq	%r13, %rdi
 2784 00e3 41FF5718 		call	*24(%r15)
 2785              	.LVL325:
 480:fltk-1.3.4-1/jpeg/jdmarker.c ****       count += bits[i];
 2786              		.loc 1 480 7 is_stmt 0 discriminator 1 view .LVU915
 2787 00e7 85C0     		testl	%eax, %eax
 2788 00e9 7475     		je	.L265
 480:fltk-1.3.4-1/jpeg/jdmarker.c ****       count += bits[i];
 2789              		.loc 1 480 7 is_stmt 1 discriminator 4 view .LVU916
 2790 00eb 498B07   		movq	(%r15), %rax
 2791              	.LVL326:
 480:fltk-1.3.4-1/jpeg/jdmarker.c ****       count += bits[i];
 2792              		.loc 1 480 7 is_stmt 0 discriminator 4 view .LVU917
 2793 00ee 4D8B7708 		movq	8(%r15), %r14
 2794              	.LVL327:
 2795              	.L268:
 480:fltk-1.3.4-1/jpeg/jdmarker.c ****       count += bits[i];
 2796              		.loc 1 480 7 is_stmt 1 discriminator 5 view .LVU918
 480:fltk-1.3.4-1/jpeg/jdmarker.c ****       count += bits[i];
 2797              		.loc 1 480 7 discriminator 5 view .LVU919
 2798 00f2 4C8D5001 		leaq	1(%rax), %r10
 2799 00f6 0FB600   		movzbl	(%rax), %eax
 2800              	.LVL328:
 480:fltk-1.3.4-1/jpeg/jdmarker.c ****       count += bits[i];
 2801              		.loc 1 480 7 is_stmt 0 discriminator 5 view .LVU920
 2802 00f9 4983C401 		addq	$1, %r12
 2803              	.LVL329:
 480:fltk-1.3.4-1/jpeg/jdmarker.c ****       count += bits[i];
 2804              		.loc 1 480 7 discriminator 5 view .LVU921
 2805 00fd 4983EE01 		subq	$1, %r14
 2806              	.LVL330:
 480:fltk-1.3.4-1/jpeg/jdmarker.c ****       count += bits[i];
 2807              		.loc 1 480 7 is_stmt 1 discriminator 5 view .LVU922
 480:fltk-1.3.4-1/jpeg/jdmarker.c ****       count += bits[i];
 2808              		.loc 1 480 7 is_stmt 0 discriminator 5 view .LVU923
 2809 0101 41884424 		movb	%al, -1(%r12)
 2809      FF
 480:fltk-1.3.4-1/jpeg/jdmarker.c ****       count += bits[i];
 2810              		.loc 1 480 7 is_stmt 1 discriminator 5 view .LVU924
 481:fltk-1.3.4-1/jpeg/jdmarker.c ****     }
 2811              		.loc 1 481 7 discriminator 5 view .LVU925
 481:fltk-1.3.4-1/jpeg/jdmarker.c ****     }
 2812              		.loc 1 481 13 is_stmt 0 discriminator 5 view .LVU926
 2813 0106 01C3     		addl	%eax, %ebx
 2814              	.LVL331:
 479:fltk-1.3.4-1/jpeg/jdmarker.c ****       INPUT_BYTE(cinfo, bits[i], return FALSE);
 2815              		.loc 1 479 26 is_stmt 1 discriminator 5 view .LVU927
 479:fltk-1.3.4-1/jpeg/jdmarker.c ****       INPUT_BYTE(cinfo, bits[i], return FALSE);
 2816              		.loc 1 479 17 discriminator 5 view .LVU928
 479:fltk-1.3.4-1/jpeg/jdmarker.c ****       INPUT_BYTE(cinfo, bits[i], return FALSE);
 2817              		.loc 1 479 5 is_stmt 0 discriminator 5 view .LVU929
 2818 0108 4939EC   		cmpq	%rbp, %r12
 2819 010b 0F847F00 		je	.L304
 2819      0000
 2820              	.LVL332:
 2821              	.L269:
 480:fltk-1.3.4-1/jpeg/jdmarker.c ****       count += bits[i];
 2822              		.loc 1 480 7 is_stmt 1 view .LVU930
 480:fltk-1.3.4-1/jpeg/jdmarker.c ****       count += bits[i];
 2823              		.loc 1 480 7 view .LVU931
 2824 0111 4D85F6   		testq	%r14, %r14
 2825 0114 74CA     		je	.L305
 480:fltk-1.3.4-1/jpeg/jdmarker.c ****       count += bits[i];
 2826              		.loc 1 480 7 is_stmt 0 view .LVU932
 2827 0116 4C89D0   		movq	%r10, %rax
 2828 0119 EBD7     		jmp	.L268
 2829              	.LVL333:
 2830 011b 0F1F4400 		.p2align 4,,10
 2830      00
 2831              		.p2align 3
 2832              	.L259:
 469:fltk-1.3.4-1/jpeg/jdmarker.c ****   length -= 2;
 2833              		.loc 1 469 3 is_stmt 1 discriminator 1 view .LVU933
 2834 0120 41FF5718 		call	*24(%r15)
 2835              	.LVL334:
 469:fltk-1.3.4-1/jpeg/jdmarker.c ****   length -= 2;
 2836              		.loc 1 469 3 is_stmt 0 discriminator 1 view .LVU934
 2837 0124 85C0     		testl	%eax, %eax
 2838 0126 7438     		je	.L265
 469:fltk-1.3.4-1/jpeg/jdmarker.c ****   length -= 2;
 2839              		.loc 1 469 3 is_stmt 1 discriminator 4 view .LVU935
 2840 0128 498B0F   		movq	(%r15), %rcx
 2841              	.LVL335:
 469:fltk-1.3.4-1/jpeg/jdmarker.c ****   length -= 2;
 2842              		.loc 1 469 3 is_stmt 0 discriminator 4 view .LVU936
 2843 012b 498B5708 		movq	8(%r15), %rdx
 2844              	.LVL336:
 469:fltk-1.3.4-1/jpeg/jdmarker.c ****   length -= 2;
 2845              		.loc 1 469 3 is_stmt 1 discriminator 4 view .LVU937
 469:fltk-1.3.4-1/jpeg/jdmarker.c ****   length -= 2;
 2846              		.loc 1 469 3 discriminator 4 view .LVU938
 469:fltk-1.3.4-1/jpeg/jdmarker.c ****   length -= 2;
 2847              		.loc 1 469 3 discriminator 4 view .LVU939
 469:fltk-1.3.4-1/jpeg/jdmarker.c ****   length -= 2;
 2848              		.loc 1 469 3 is_stmt 0 discriminator 4 view .LVU940
 2849 012f 0FB601   		movzbl	(%rcx), %eax
 2850 0132 C1E008   		sall	$8, %eax
 2851 0135 89C3     		movl	%eax, %ebx
 2852              	.LVL337:
 469:fltk-1.3.4-1/jpeg/jdmarker.c ****   length -= 2;
 2853              		.loc 1 469 3 is_stmt 1 discriminator 4 view .LVU941
 2854 0137 4883EA01 		subq	$1, %rdx
 2855              	.LVL338:
 469:fltk-1.3.4-1/jpeg/jdmarker.c ****   length -= 2;
 2856              		.loc 1 469 3 is_stmt 0 discriminator 4 view .LVU942
 2857 013b 0F850CFF 		jne	.L306
 2857      FFFF
 2858              	.LVL339:
 2859              	.L263:
 469:fltk-1.3.4-1/jpeg/jdmarker.c ****   length -= 2;
 2860              		.loc 1 469 3 is_stmt 1 discriminator 6 view .LVU943
 2861 0141 4C89EF   		movq	%r13, %rdi
 2862 0144 41FF5718 		call	*24(%r15)
 2863              	.LVL340:
 469:fltk-1.3.4-1/jpeg/jdmarker.c ****   length -= 2;
 2864              		.loc 1 469 3 is_stmt 0 discriminator 6 view .LVU944
 2865 0148 85C0     		testl	%eax, %eax
 2866 014a 7414     		je	.L265
 469:fltk-1.3.4-1/jpeg/jdmarker.c ****   length -= 2;
 2867              		.loc 1 469 3 is_stmt 1 discriminator 9 view .LVU945
 2868 014c 498B0F   		movq	(%r15), %rcx
 2869              	.LVL341:
 469:fltk-1.3.4-1/jpeg/jdmarker.c ****   length -= 2;
 2870              		.loc 1 469 3 is_stmt 0 discriminator 9 view .LVU946
 2871 014f 498B5708 		movq	8(%r15), %rdx
 2872              	.LVL342:
 469:fltk-1.3.4-1/jpeg/jdmarker.c ****   length -= 2;
 2873              		.loc 1 469 3 discriminator 9 view .LVU947
 2874 0153 E9F9FEFF 		jmp	.L264
 2874      FF
 2875              	.LVL343:
 2876 0158 0F1F8400 		.p2align 4,,10
 2876      00000000 
 2877              		.p2align 3
 2878              	.L265:
 469:fltk-1.3.4-1/jpeg/jdmarker.c ****   length -= 2;
 2879              		.loc 1 469 3 view .LVU948
 2880 0160 31C0     		xorl	%eax, %eax
 2881              	.L258:
 528:fltk-1.3.4-1/jpeg/jdmarker.c **** 
 2882              		.loc 1 528 1 view .LVU949
 2883 0162 488B9424 		movq	344(%rsp), %rdx
 2883      58010000 
 2884 016a 64483314 		xorq	%fs:40, %rdx
 2884      25280000 
 2884      00
 2885 0173 0F855B03 		jne	.L307
 2885      0000
 2886 0179 4881C468 		addq	$360, %rsp
 2886      010000
 2887              		.cfi_remember_state
 2888              		.cfi_def_cfa_offset 56
 2889 0180 5B       		popq	%rbx
 2890              		.cfi_def_cfa_offset 48
 2891 0181 5D       		popq	%rbp
 2892              		.cfi_def_cfa_offset 40
 2893 0182 415C     		popq	%r12
 2894              		.cfi_def_cfa_offset 32
 2895 0184 415D     		popq	%r13
 2896              		.cfi_def_cfa_offset 24
 2897              	.LVL344:
 528:fltk-1.3.4-1/jpeg/jdmarker.c **** 
 2898              		.loc 1 528 1 view .LVU950
 2899 0186 415E     		popq	%r14
 2900              		.cfi_def_cfa_offset 16
 2901 0188 415F     		popq	%r15
 2902              		.cfi_def_cfa_offset 8
 2903              	.LVL345:
 528:fltk-1.3.4-1/jpeg/jdmarker.c **** 
 2904              		.loc 1 528 1 view .LVU951
 2905 018a C3       		ret
 2906              	.LVL346:
 2907 018b 0F1F4400 		.p2align 4,,10
 2907      00
 2908              		.p2align 3
 2909              	.L304:
 2910              		.cfi_restore_state
 2911              	.LBB43:
 486:fltk-1.3.4-1/jpeg/jdmarker.c **** 	     bits[1], bits[2], bits[3], bits[4],
 2912              		.loc 1 486 5 view .LVU952
 2913 0190 498B4500 		movq	0(%r13), %rax
 2914 0194 0FB64C24 		movzbl	49(%rsp), %ecx
 2914      31
 2915 0199 4C895424 		movq	%r10, 24(%rsp)
 2915      18
 2916              	.LBE43:
 484:fltk-1.3.4-1/jpeg/jdmarker.c **** 
 2917              		.loc 1 484 5 is_stmt 1 view .LVU953
 2918              	.LBB44:
 486:fltk-1.3.4-1/jpeg/jdmarker.c **** 	     bits[1], bits[2], bits[3], bits[4],
 2919              		.loc 1 486 5 is_stmt 0 view .LVU954
 2920 019e 4C89EF   		movq	%r13, %rdi
 2921              	.LBE44:
 484:fltk-1.3.4-1/jpeg/jdmarker.c **** 
 2922              		.loc 1 484 12 view .LVU955
 2923 01a1 4C8B6424 		movq	8(%rsp), %r12
 2923      08
 2924              	.LBB45:
 486:fltk-1.3.4-1/jpeg/jdmarker.c **** 	     bits[1], bits[2], bits[3], bits[4],
 2925              		.loc 1 486 5 view .LVU956
 2926 01a6 BE020000 		movl	$2, %esi
 2926      00
 2927 01ab 89482C   		movl	%ecx, 44(%rax)
 2928 01ae 0FB64C24 		movzbl	50(%rsp), %ecx
 2928      32
 2929              	.LBE45:
 484:fltk-1.3.4-1/jpeg/jdmarker.c **** 
 2930              		.loc 1 484 12 view .LVU957
 2931 01b3 4983EC11 		subq	$17, %r12
 2932              	.LBB46:
 486:fltk-1.3.4-1/jpeg/jdmarker.c **** 	     bits[1], bits[2], bits[3], bits[4],
 2933              		.loc 1 486 5 view .LVU958
 2934 01b7 894830   		movl	%ecx, 48(%rax)
 2935 01ba 0FB64C24 		movzbl	51(%rsp), %ecx
 2935      33
 2936              	.LBE46:
 484:fltk-1.3.4-1/jpeg/jdmarker.c **** 
 2937              		.loc 1 484 12 view .LVU959
 2938 01bf 4C896424 		movq	%r12, 40(%rsp)
 2938      28
 2939              	.LVL347:
 486:fltk-1.3.4-1/jpeg/jdmarker.c **** 	     bits[1], bits[2], bits[3], bits[4],
 2940              		.loc 1 486 5 is_stmt 1 view .LVU960
 2941              	.LBB47:
 486:fltk-1.3.4-1/jpeg/jdmarker.c **** 	     bits[1], bits[2], bits[3], bits[4],
 2942              		.loc 1 486 5 view .LVU961
 486:fltk-1.3.4-1/jpeg/jdmarker.c **** 	     bits[1], bits[2], bits[3], bits[4],
 2943              		.loc 1 486 5 view .LVU962
 486:fltk-1.3.4-1/jpeg/jdmarker.c **** 	     bits[1], bits[2], bits[3], bits[4],
 2944              		.loc 1 486 5 view .LVU963
 486:fltk-1.3.4-1/jpeg/jdmarker.c **** 	     bits[1], bits[2], bits[3], bits[4],
 2945              		.loc 1 486 5 view .LVU964
 2946 01c4 894834   		movl	%ecx, 52(%rax)
 486:fltk-1.3.4-1/jpeg/jdmarker.c **** 	     bits[1], bits[2], bits[3], bits[4],
 2947              		.loc 1 486 5 view .LVU965
 2948 01c7 0FB64C24 		movzbl	52(%rsp), %ecx
 2948      34
 2949 01cc 894838   		movl	%ecx, 56(%rax)
 486:fltk-1.3.4-1/jpeg/jdmarker.c **** 	     bits[1], bits[2], bits[3], bits[4],
 2950              		.loc 1 486 5 view .LVU966
 2951 01cf 0FB64C24 		movzbl	53(%rsp), %ecx
 2951      35
 2952 01d4 89483C   		movl	%ecx, 60(%rax)
 486:fltk-1.3.4-1/jpeg/jdmarker.c **** 	     bits[1], bits[2], bits[3], bits[4],
 2953              		.loc 1 486 5 view .LVU967
 2954 01d7 0FB64C24 		movzbl	54(%rsp), %ecx
 2954      36
 2955 01dc 894840   		movl	%ecx, 64(%rax)
 486:fltk-1.3.4-1/jpeg/jdmarker.c **** 	     bits[1], bits[2], bits[3], bits[4],
 2956              		.loc 1 486 5 view .LVU968
 2957 01df 0FB64C24 		movzbl	55(%rsp), %ecx
 2957      37
 2958 01e4 894844   		movl	%ecx, 68(%rax)
 486:fltk-1.3.4-1/jpeg/jdmarker.c **** 	     bits[1], bits[2], bits[3], bits[4],
 2959              		.loc 1 486 5 view .LVU969
 2960 01e7 0FB64C24 		movzbl	56(%rsp), %ecx
 2960      38
 2961 01ec 894848   		movl	%ecx, 72(%rax)
 486:fltk-1.3.4-1/jpeg/jdmarker.c **** 	     bits[1], bits[2], bits[3], bits[4],
 2962              		.loc 1 486 5 view .LVU970
 2963 01ef 498B4500 		movq	0(%r13), %rax
 2964              	.LVL348:
 486:fltk-1.3.4-1/jpeg/jdmarker.c **** 	     bits[1], bits[2], bits[3], bits[4],
 2965              		.loc 1 486 5 is_stmt 0 view .LVU971
 2966 01f3 C7402858 		movl	$88, 40(%rax)
 2966      000000
 486:fltk-1.3.4-1/jpeg/jdmarker.c **** 	     bits[1], bits[2], bits[3], bits[4],
 2967              		.loc 1 486 5 is_stmt 1 view .LVU972
 2968 01fa 498B4500 		movq	0(%r13), %rax
 2969 01fe FF5008   		call	*8(%rax)
 2970              	.LVL349:
 486:fltk-1.3.4-1/jpeg/jdmarker.c **** 	     bits[1], bits[2], bits[3], bits[4],
 2971              		.loc 1 486 5 is_stmt 0 view .LVU973
 2972              	.LBE47:
 486:fltk-1.3.4-1/jpeg/jdmarker.c **** 	     bits[1], bits[2], bits[3], bits[4],
 2973              		.loc 1 486 5 is_stmt 1 view .LVU974
 489:fltk-1.3.4-1/jpeg/jdmarker.c **** 	     bits[9], bits[10], bits[11], bits[12],
 2974              		.loc 1 489 5 view .LVU975
 2975              	.LBB48:
 489:fltk-1.3.4-1/jpeg/jdmarker.c **** 	     bits[9], bits[10], bits[11], bits[12],
 2976              		.loc 1 489 5 view .LVU976
 2977 0201 498B4500 		movq	0(%r13), %rax
 2978              	.LVL350:
 489:fltk-1.3.4-1/jpeg/jdmarker.c **** 	     bits[9], bits[10], bits[11], bits[12],
 2979              		.loc 1 489 5 view .LVU977
 2980 0205 0FB64C24 		movzbl	57(%rsp), %ecx
 2980      39
 2981 020a 4C89EF   		movq	%r13, %rdi
 2982 020d BE020000 		movl	$2, %esi
 2982      00
 2983 0212 89482C   		movl	%ecx, 44(%rax)
 489:fltk-1.3.4-1/jpeg/jdmarker.c **** 	     bits[9], bits[10], bits[11], bits[12],
 2984              		.loc 1 489 5 view .LVU978
 2985 0215 0FB64C24 		movzbl	58(%rsp), %ecx
 2985      3A
 2986 021a 894830   		movl	%ecx, 48(%rax)
 489:fltk-1.3.4-1/jpeg/jdmarker.c **** 	     bits[9], bits[10], bits[11], bits[12],
 2987              		.loc 1 489 5 view .LVU979
 2988 021d 0FB64C24 		movzbl	59(%rsp), %ecx
 2988      3B
 2989 0222 894834   		movl	%ecx, 52(%rax)
 489:fltk-1.3.4-1/jpeg/jdmarker.c **** 	     bits[9], bits[10], bits[11], bits[12],
 2990              		.loc 1 489 5 view .LVU980
 2991 0225 0FB64C24 		movzbl	60(%rsp), %ecx
 2991      3C
 2992 022a 894838   		movl	%ecx, 56(%rax)
 489:fltk-1.3.4-1/jpeg/jdmarker.c **** 	     bits[9], bits[10], bits[11], bits[12],
 2993              		.loc 1 489 5 view .LVU981
 2994 022d 0FB64C24 		movzbl	61(%rsp), %ecx
 2994      3D
 2995 0232 89483C   		movl	%ecx, 60(%rax)
 489:fltk-1.3.4-1/jpeg/jdmarker.c **** 	     bits[9], bits[10], bits[11], bits[12],
 2996              		.loc 1 489 5 view .LVU982
 2997 0235 0FB64C24 		movzbl	62(%rsp), %ecx
 2997      3E
 2998 023a 894840   		movl	%ecx, 64(%rax)
 489:fltk-1.3.4-1/jpeg/jdmarker.c **** 	     bits[9], bits[10], bits[11], bits[12],
 2999              		.loc 1 489 5 view .LVU983
 3000 023d 0FB64C24 		movzbl	63(%rsp), %ecx
 3000      3F
 3001 0242 894844   		movl	%ecx, 68(%rax)
 489:fltk-1.3.4-1/jpeg/jdmarker.c **** 	     bits[9], bits[10], bits[11], bits[12],
 3002              		.loc 1 489 5 view .LVU984
 3003 0245 0FB64C24 		movzbl	64(%rsp), %ecx
 3003      40
 3004 024a 894848   		movl	%ecx, 72(%rax)
 489:fltk-1.3.4-1/jpeg/jdmarker.c **** 	     bits[9], bits[10], bits[11], bits[12],
 3005              		.loc 1 489 5 view .LVU985
 3006 024d 498B4500 		movq	0(%r13), %rax
 3007              	.LVL351:
 489:fltk-1.3.4-1/jpeg/jdmarker.c **** 	     bits[9], bits[10], bits[11], bits[12],
 3008              		.loc 1 489 5 is_stmt 0 view .LVU986
 3009 0251 C7402858 		movl	$88, 40(%rax)
 3009      000000
 489:fltk-1.3.4-1/jpeg/jdmarker.c **** 	     bits[9], bits[10], bits[11], bits[12],
 3010              		.loc 1 489 5 is_stmt 1 view .LVU987
 3011 0258 498B4500 		movq	0(%r13), %rax
 3012 025c FF5008   		call	*8(%rax)
 3013              	.LVL352:
 3014              	.LBE48:
 489:fltk-1.3.4-1/jpeg/jdmarker.c **** 	     bits[9], bits[10], bits[11], bits[12],
 3015              		.loc 1 489 5 view .LVU988
 496:fltk-1.3.4-1/jpeg/jdmarker.c ****       ERREXIT(cinfo, JERR_BAD_HUFF_TABLE);
 3016              		.loc 1 496 5 view .LVU989
 496:fltk-1.3.4-1/jpeg/jdmarker.c ****       ERREXIT(cinfo, JERR_BAD_HUFF_TABLE);
 3017              		.loc 1 496 8 is_stmt 0 view .LVU990
 3018 025f 81FB0001 		cmpl	$256, %ebx
 3018      0000
 3019 0265 4C8B5424 		movq	24(%rsp), %r10
 3019      18
 3020 026a 7F08     		jg	.L270
 496:fltk-1.3.4-1/jpeg/jdmarker.c ****       ERREXIT(cinfo, JERR_BAD_HUFF_TABLE);
 3021              		.loc 1 496 25 discriminator 1 view .LVU991
 3022 026c 4863C3   		movslq	%ebx, %rax
 496:fltk-1.3.4-1/jpeg/jdmarker.c ****       ERREXIT(cinfo, JERR_BAD_HUFF_TABLE);
 3023              		.loc 1 496 21 discriminator 1 view .LVU992
 3024 026f 4C39E0   		cmpq	%r12, %rax
 3025 0272 7E1E     		jle	.L271
 3026              	.L270:
 497:fltk-1.3.4-1/jpeg/jdmarker.c **** 
 3027              		.loc 1 497 7 view .LVU993
 3028 0274 498B4500 		movq	0(%r13), %rax
 3029 0278 4C895424 		movq	%r10, 8(%rsp)
 3029      08
 497:fltk-1.3.4-1/jpeg/jdmarker.c **** 
 3030              		.loc 1 497 7 is_stmt 1 view .LVU994
 3031 027d 4C89EF   		movq	%r13, %rdi
 3032 0280 C7402809 		movl	$9, 40(%rax)
 3032      000000
 3033 0287 498B4500 		movq	0(%r13), %rax
 3034 028b FF10     		call	*(%rax)
 3035              	.LVL353:
 3036 028d 4C8B5424 		movq	8(%rsp), %r10
 3036      08
 3037              	.L271:
 499:fltk-1.3.4-1/jpeg/jdmarker.c **** 
 3038              		.loc 1 499 5 view .LVU995
 3039              	.LVL354:
 3040              	.LBB49:
 3041              	.LBI49:
 3042              		.file 2 "/usr/include/x86_64-linux-gnu/bits/string_fortified.h"
   1:/usr/include/x86_64-linux-gnu/bits/string_fortified.h **** /* Copyright (C) 2004-2020 Free Software Foundation, Inc.
   2:/usr/include/x86_64-linux-gnu/bits/string_fortified.h ****    This file is part of the GNU C Library.
   3:/usr/include/x86_64-linux-gnu/bits/string_fortified.h **** 
   4:/usr/include/x86_64-linux-gnu/bits/string_fortified.h ****    The GNU C Library is free software; you can redistribute it and/or
   5:/usr/include/x86_64-linux-gnu/bits/string_fortified.h ****    modify it under the terms of the GNU Lesser General Public
   6:/usr/include/x86_64-linux-gnu/bits/string_fortified.h ****    License as published by the Free Software Foundation; either
   7:/usr/include/x86_64-linux-gnu/bits/string_fortified.h ****    version 2.1 of the License, or (at your option) any later version.
   8:/usr/include/x86_64-linux-gnu/bits/string_fortified.h **** 
   9:/usr/include/x86_64-linux-gnu/bits/string_fortified.h ****    The GNU C Library is distributed in the hope that it will be useful,
  10:/usr/include/x86_64-linux-gnu/bits/string_fortified.h ****    but WITHOUT ANY WARRANTY; without even the implied warranty of
  11:/usr/include/x86_64-linux-gnu/bits/string_fortified.h ****    MERCHANTABILITY or FITNESS FOR A PARTICULAR PURPOSE.  See the GNU
  12:/usr/include/x86_64-linux-gnu/bits/string_fortified.h ****    Lesser General Public License for more details.
  13:/usr/include/x86_64-linux-gnu/bits/string_fortified.h **** 
  14:/usr/include/x86_64-linux-gnu/bits/string_fortified.h ****    You should have received a copy of the GNU Lesser General Public
  15:/usr/include/x86_64-linux-gnu/bits/string_fortified.h ****    License along with the GNU C Library; if not, see
  16:/usr/include/x86_64-linux-gnu/bits/string_fortified.h ****    <https://www.gnu.org/licenses/>.  */
  17:/usr/include/x86_64-linux-gnu/bits/string_fortified.h **** 
  18:/usr/include/x86_64-linux-gnu/bits/string_fortified.h **** #ifndef _BITS_STRING_FORTIFIED_H
  19:/usr/include/x86_64-linux-gnu/bits/string_fortified.h **** #define _BITS_STRING_FORTIFIED_H 1
  20:/usr/include/x86_64-linux-gnu/bits/string_fortified.h **** 
  21:/usr/include/x86_64-linux-gnu/bits/string_fortified.h **** #ifndef _STRING_H
  22:/usr/include/x86_64-linux-gnu/bits/string_fortified.h **** # error "Never use <bits/string_fortified.h> directly; include <string.h> instead."
  23:/usr/include/x86_64-linux-gnu/bits/string_fortified.h **** #endif
  24:/usr/include/x86_64-linux-gnu/bits/string_fortified.h **** 
  25:/usr/include/x86_64-linux-gnu/bits/string_fortified.h **** #if !__GNUC_PREREQ (5,0)
  26:/usr/include/x86_64-linux-gnu/bits/string_fortified.h **** __warndecl (__warn_memset_zero_len,
  27:/usr/include/x86_64-linux-gnu/bits/string_fortified.h **** 	    "memset used with constant zero length parameter; this could be due to transposed parameters")
  28:/usr/include/x86_64-linux-gnu/bits/string_fortified.h **** #endif
  29:/usr/include/x86_64-linux-gnu/bits/string_fortified.h **** 
  30:/usr/include/x86_64-linux-gnu/bits/string_fortified.h **** __fortify_function void *
  31:/usr/include/x86_64-linux-gnu/bits/string_fortified.h **** __NTH (memcpy (void *__restrict __dest, const void *__restrict __src,
  32:/usr/include/x86_64-linux-gnu/bits/string_fortified.h **** 	       size_t __len))
  33:/usr/include/x86_64-linux-gnu/bits/string_fortified.h **** {
  34:/usr/include/x86_64-linux-gnu/bits/string_fortified.h ****   return __builtin___memcpy_chk (__dest, __src, __len, __bos0 (__dest));
  35:/usr/include/x86_64-linux-gnu/bits/string_fortified.h **** }
  36:/usr/include/x86_64-linux-gnu/bits/string_fortified.h **** 
  37:/usr/include/x86_64-linux-gnu/bits/string_fortified.h **** __fortify_function void *
  38:/usr/include/x86_64-linux-gnu/bits/string_fortified.h **** __NTH (memmove (void *__dest, const void *__src, size_t __len))
  39:/usr/include/x86_64-linux-gnu/bits/string_fortified.h **** {
  40:/usr/include/x86_64-linux-gnu/bits/string_fortified.h ****   return __builtin___memmove_chk (__dest, __src, __len, __bos0 (__dest));
  41:/usr/include/x86_64-linux-gnu/bits/string_fortified.h **** }
  42:/usr/include/x86_64-linux-gnu/bits/string_fortified.h **** 
  43:/usr/include/x86_64-linux-gnu/bits/string_fortified.h **** #ifdef __USE_GNU
  44:/usr/include/x86_64-linux-gnu/bits/string_fortified.h **** __fortify_function void *
  45:/usr/include/x86_64-linux-gnu/bits/string_fortified.h **** __NTH (mempcpy (void *__restrict __dest, const void *__restrict __src,
  46:/usr/include/x86_64-linux-gnu/bits/string_fortified.h **** 		size_t __len))
  47:/usr/include/x86_64-linux-gnu/bits/string_fortified.h **** {
  48:/usr/include/x86_64-linux-gnu/bits/string_fortified.h ****   return __builtin___mempcpy_chk (__dest, __src, __len, __bos0 (__dest));
  49:/usr/include/x86_64-linux-gnu/bits/string_fortified.h **** }
  50:/usr/include/x86_64-linux-gnu/bits/string_fortified.h **** #endif
  51:/usr/include/x86_64-linux-gnu/bits/string_fortified.h **** 
  52:/usr/include/x86_64-linux-gnu/bits/string_fortified.h **** 
  53:/usr/include/x86_64-linux-gnu/bits/string_fortified.h **** /* The first two tests here help to catch a somewhat common problem
  54:/usr/include/x86_64-linux-gnu/bits/string_fortified.h ****    where the second and third parameter are transposed.  This is
  55:/usr/include/x86_64-linux-gnu/bits/string_fortified.h ****    especially problematic if the intended fill value is zero.  In this
  56:/usr/include/x86_64-linux-gnu/bits/string_fortified.h ****    case no work is done at all.  We detect these problems by referring
  57:/usr/include/x86_64-linux-gnu/bits/string_fortified.h ****    non-existing functions.  */
  58:/usr/include/x86_64-linux-gnu/bits/string_fortified.h **** __fortify_function void *
  59:/usr/include/x86_64-linux-gnu/bits/string_fortified.h **** __NTH (memset (void *__dest, int __ch, size_t __len))
 3043              		.loc 2 59 1 view .LVU996
 3044              	.LBB50:
  60:/usr/include/x86_64-linux-gnu/bits/string_fortified.h **** {
  61:/usr/include/x86_64-linux-gnu/bits/string_fortified.h ****   /* GCC-5.0 and newer implements these checks in the compiler, so we don't
  62:/usr/include/x86_64-linux-gnu/bits/string_fortified.h ****      need them here.  */
  63:/usr/include/x86_64-linux-gnu/bits/string_fortified.h **** #if !__GNUC_PREREQ (5,0)
  64:/usr/include/x86_64-linux-gnu/bits/string_fortified.h ****   if (__builtin_constant_p (__len) && __len == 0
  65:/usr/include/x86_64-linux-gnu/bits/string_fortified.h ****       && (!__builtin_constant_p (__ch) || __ch != 0))
  66:/usr/include/x86_64-linux-gnu/bits/string_fortified.h ****     {
  67:/usr/include/x86_64-linux-gnu/bits/string_fortified.h ****       __warn_memset_zero_len ();
  68:/usr/include/x86_64-linux-gnu/bits/string_fortified.h ****       return __dest;
  69:/usr/include/x86_64-linux-gnu/bits/string_fortified.h ****     }
  70:/usr/include/x86_64-linux-gnu/bits/string_fortified.h **** #endif
  71:/usr/include/x86_64-linux-gnu/bits/string_fortified.h ****   return __builtin___memset_chk (__dest, __ch, __len, __bos0 (__dest));
 3045              		.loc 2 71 3 view .LVU997
 3046              		.loc 2 71 10 is_stmt 0 view .LVU998
 3047 0292 4C8D6424 		leaq	80(%rsp), %r12
 3047      50
 3048              	.LVL355:
 3049              		.loc 2 71 10 view .LVU999
 3050 0297 B9200000 		movl	$32, %ecx
 3050      00
 3051 029c 31C0     		xorl	%eax, %eax
 3052 029e 4C89E7   		movq	%r12, %rdi
 3053 02a1 F348AB   		rep stosq
 3054              	.LVL356:
 3055              		.loc 2 71 10 view .LVU1000
 3056              	.LBE50:
 3057              	.LBE49:
 501:fltk-1.3.4-1/jpeg/jdmarker.c ****       INPUT_BYTE(cinfo, huffval[i], return FALSE);
 3058              		.loc 1 501 5 is_stmt 1 view .LVU1001
 501:fltk-1.3.4-1/jpeg/jdmarker.c ****       INPUT_BYTE(cinfo, huffval[i], return FALSE);
 3059              		.loc 1 501 17 view .LVU1002
 501:fltk-1.3.4-1/jpeg/jdmarker.c ****       INPUT_BYTE(cinfo, huffval[i], return FALSE);
 3060              		.loc 1 501 5 is_stmt 0 view .LVU1003
 3061 02a4 85DB     		testl	%ebx, %ebx
 3062 02a6 7453     		je	.L283
 3063 02a8 8D43FF   		leal	-1(%rbx), %eax
 480:fltk-1.3.4-1/jpeg/jdmarker.c ****       count += bits[i];
 3064              		.loc 1 480 7 view .LVU1004
 3065 02ab 4C89D6   		movq	%r10, %rsi
 3066 02ae 488D4404 		leaq	81(%rsp,%rax), %rax
 3066      51
 3067 02b3 48894424 		movq	%rax, 8(%rsp)
 3067      08
 3068 02b8 EB37     		jmp	.L274
 3069              	.LVL357:
 3070 02ba 660F1F44 		.p2align 4,,10
 3070      0000
 3071              		.p2align 3
 3072              	.L308:
 502:fltk-1.3.4-1/jpeg/jdmarker.c **** 
 3073              		.loc 1 502 7 is_stmt 1 discriminator 1 view .LVU1005
 3074 02c0 4C89EF   		movq	%r13, %rdi
 3075 02c3 41FF5718 		call	*24(%r15)
 3076              	.LVL358:
 502:fltk-1.3.4-1/jpeg/jdmarker.c **** 
 3077              		.loc 1 502 7 is_stmt 0 discriminator 1 view .LVU1006
 3078 02c7 85C0     		testl	%eax, %eax
 3079 02c9 0F8491FE 		je	.L265
 3079      FFFF
 502:fltk-1.3.4-1/jpeg/jdmarker.c **** 
 3080              		.loc 1 502 7 is_stmt 1 discriminator 4 view .LVU1007
 3081 02cf 498B07   		movq	(%r15), %rax
 3082              	.LVL359:
 502:fltk-1.3.4-1/jpeg/jdmarker.c **** 
 3083              		.loc 1 502 7 is_stmt 0 discriminator 4 view .LVU1008
 3084 02d2 4D8B7708 		movq	8(%r15), %r14
 3085              	.LVL360:
 3086              	.L273:
 502:fltk-1.3.4-1/jpeg/jdmarker.c **** 
 3087              		.loc 1 502 7 is_stmt 1 discriminator 5 view .LVU1009
 502:fltk-1.3.4-1/jpeg/jdmarker.c **** 
 3088              		.loc 1 502 7 discriminator 5 view .LVU1010
 3089 02d6 488D7001 		leaq	1(%rax), %rsi
 3090 02da 0FB600   		movzbl	(%rax), %eax
 3091              	.LVL361:
 502:fltk-1.3.4-1/jpeg/jdmarker.c **** 
 3092              		.loc 1 502 7 is_stmt 0 discriminator 5 view .LVU1011
 3093 02dd 4983EE01 		subq	$1, %r14
 3094              	.LVL362:
 502:fltk-1.3.4-1/jpeg/jdmarker.c **** 
 3095              		.loc 1 502 7 is_stmt 1 discriminator 5 view .LVU1012
 502:fltk-1.3.4-1/jpeg/jdmarker.c **** 
 3096              		.loc 1 502 7 is_stmt 0 discriminator 5 view .LVU1013
 3097 02e1 4983C401 		addq	$1, %r12
 3098              	.LVL363:
 502:fltk-1.3.4-1/jpeg/jdmarker.c **** 
 3099              		.loc 1 502 7 discriminator 5 view .LVU1014
 3100 02e5 41884424 		movb	%al, -1(%r12)
 3100      FF
 502:fltk-1.3.4-1/jpeg/jdmarker.c **** 
 3101              		.loc 1 502 7 is_stmt 1 discriminator 5 view .LVU1015
 501:fltk-1.3.4-1/jpeg/jdmarker.c ****       INPUT_BYTE(cinfo, huffval[i], return FALSE);
 3102              		.loc 1 501 28 discriminator 5 view .LVU1016
 501:fltk-1.3.4-1/jpeg/jdmarker.c ****       INPUT_BYTE(cinfo, huffval[i], return FALSE);
 3103              		.loc 1 501 17 discriminator 5 view .LVU1017
 501:fltk-1.3.4-1/jpeg/jdmarker.c ****       INPUT_BYTE(cinfo, huffval[i], return FALSE);
 3104              		.loc 1 501 5 is_stmt 0 discriminator 5 view .LVU1018
 3105 02ea 4C3B6424 		cmpq	8(%rsp), %r12
 3105      08
 3106 02ef 740F     		je	.L272
 3107              	.L274:
 3108              	.LVL364:
 502:fltk-1.3.4-1/jpeg/jdmarker.c **** 
 3109              		.loc 1 502 7 is_stmt 1 view .LVU1019
 502:fltk-1.3.4-1/jpeg/jdmarker.c **** 
 3110              		.loc 1 502 7 view .LVU1020
 3111 02f1 4D85F6   		testq	%r14, %r14
 3112 02f4 74CA     		je	.L308
 502:fltk-1.3.4-1/jpeg/jdmarker.c **** 
 3113              		.loc 1 502 7 is_stmt 0 view .LVU1021
 3114 02f6 4889F0   		movq	%rsi, %rax
 3115 02f9 EBDB     		jmp	.L273
 3116              	.LVL365:
 3117              	.L283:
 480:fltk-1.3.4-1/jpeg/jdmarker.c ****       count += bits[i];
 3118              		.loc 1 480 7 view .LVU1022
 3119 02fb 4C89D6   		movq	%r10, %rsi
 3120              	.LVL366:
 3121 02fe 6690     		.p2align 4,,10
 3122              		.p2align 3
 3123              	.L272:
 504:fltk-1.3.4-1/jpeg/jdmarker.c **** 
 3124              		.loc 1 504 5 is_stmt 1 view .LVU1023
 504:fltk-1.3.4-1/jpeg/jdmarker.c **** 
 3125              		.loc 1 504 12 is_stmt 0 view .LVU1024
 3126 0300 488B4424 		movq	40(%rsp), %rax
 3126      28
 3127 0305 4863DB   		movslq	%ebx, %rbx
 504:fltk-1.3.4-1/jpeg/jdmarker.c **** 
 3128              		.loc 1 504 12 view .LVU1025
 3129 0308 4829D8   		subq	%rbx, %rax
 3130 030b 48894424 		movq	%rax, 8(%rsp)
 3130      08
 3131              	.LVL367:
 506:fltk-1.3.4-1/jpeg/jdmarker.c ****       index -= 0x10;
 3132              		.loc 1 506 5 is_stmt 1 view .LVU1026
 506:fltk-1.3.4-1/jpeg/jdmarker.c ****       index -= 0x10;
 3133              		.loc 1 506 8 is_stmt 0 view .LVU1027
 3134 0310 F6442427 		testb	$16, 39(%rsp)
 3134      10
 3135 0315 0F848D01 		je	.L275
 3135      0000
 507:fltk-1.3.4-1/jpeg/jdmarker.c ****       htblptr = &cinfo->ac_huff_tbl_ptrs[index];
 3136              		.loc 1 507 7 is_stmt 1 view .LVU1028
 507:fltk-1.3.4-1/jpeg/jdmarker.c ****       htblptr = &cinfo->ac_huff_tbl_ptrs[index];
 3137              		.loc 1 507 13 is_stmt 0 view .LVU1029
 3138 031b 836C2410 		subl	$16, 16(%rsp)
 3138      10
 3139              	.LVL368:
 507:fltk-1.3.4-1/jpeg/jdmarker.c ****       htblptr = &cinfo->ac_huff_tbl_ptrs[index];
 3140              		.loc 1 507 13 view .LVU1030
 3141 0320 48634424 		movslq	16(%rsp), %rax
 3141      10
 3142              	.LVL369:
 508:fltk-1.3.4-1/jpeg/jdmarker.c ****     } else {			/* DC table definition */
 3143              		.loc 1 508 7 is_stmt 1 view .LVU1031
 508:fltk-1.3.4-1/jpeg/jdmarker.c ****     } else {			/* DC table definition */
 3144              		.loc 1 508 15 is_stmt 0 view .LVU1032
 3145 0325 498D9CC5 		leaq	264(%r13,%rax,8), %rbx
 3145      08010000 
 3146              	.LVL370:
 3147              	.L276:
 513:fltk-1.3.4-1/jpeg/jdmarker.c ****       ERREXIT1(cinfo, JERR_DHT_INDEX, index);
 3148              		.loc 1 513 5 is_stmt 1 view .LVU1033
 513:fltk-1.3.4-1/jpeg/jdmarker.c ****       ERREXIT1(cinfo, JERR_DHT_INDEX, index);
 3149              		.loc 1 513 8 is_stmt 0 view .LVU1034
 3150 032d 8B542410 		movl	16(%rsp), %edx
 3151 0331 83FA03   		cmpl	$3, %edx
 3152 0334 7625     		jbe	.L277
 514:fltk-1.3.4-1/jpeg/jdmarker.c **** 
 3153              		.loc 1 514 7 view .LVU1035
 3154 0336 498B4500 		movq	0(%r13), %rax
 3155 033a 48897424 		movq	%rsi, 16(%rsp)
 3155      10
 3156              	.LVL371:
 514:fltk-1.3.4-1/jpeg/jdmarker.c **** 
 3157              		.loc 1 514 7 is_stmt 1 view .LVU1036
 3158 033f 4C89EF   		movq	%r13, %rdi
 3159 0342 C740281F 		movl	$31, 40(%rax)
 3159      000000
 3160 0349 498B4500 		movq	0(%r13), %rax
 3161 034d 89502C   		movl	%edx, 44(%rax)
 3162 0350 498B4500 		movq	0(%r13), %rax
 3163 0354 FF10     		call	*(%rax)
 3164              	.LVL372:
 514:fltk-1.3.4-1/jpeg/jdmarker.c **** 
 3165              		.loc 1 514 7 is_stmt 0 view .LVU1037
 3166 0356 488B7424 		movq	16(%rsp), %rsi
 3166      10
 3167              	.LVL373:
 3168              	.L277:
 516:fltk-1.3.4-1/jpeg/jdmarker.c ****       *htblptr = jpeg_alloc_huff_table((j_common_ptr) cinfo);
 3169              		.loc 1 516 5 is_stmt 1 view .LVU1038
 516:fltk-1.3.4-1/jpeg/jdmarker.c ****       *htblptr = jpeg_alloc_huff_table((j_common_ptr) cinfo);
 3170              		.loc 1 516 9 is_stmt 0 view .LVU1039
 3171 035b 488B03   		movq	(%rbx), %rax
 516:fltk-1.3.4-1/jpeg/jdmarker.c ****       *htblptr = jpeg_alloc_huff_table((j_common_ptr) cinfo);
 3172              		.loc 1 516 8 view .LVU1040
 3173 035e 4885C0   		testq	%rax, %rax
 3174 0361 0F845301 		je	.L309
 3174      0000
 3175              	.L278:
 519:fltk-1.3.4-1/jpeg/jdmarker.c ****     MEMCOPY((*htblptr)->huffval, huffval, SIZEOF((*htblptr)->huffval));
 3176              		.loc 1 519 5 is_stmt 1 view .LVU1041
 3177              	.LVL374:
 3178              	.LBB51:
 3179              	.LBI51:
  31:/usr/include/x86_64-linux-gnu/bits/string_fortified.h **** 	       size_t __len))
 3180              		.loc 2 31 1 view .LVU1042
 3181              	.LBB52:
  34:/usr/include/x86_64-linux-gnu/bits/string_fortified.h **** }
 3182              		.loc 2 34 3 view .LVU1043
  34:/usr/include/x86_64-linux-gnu/bits/string_fortified.h **** }
 3183              		.loc 2 34 10 is_stmt 0 view .LVU1044
 3184 0367 0FB64C24 		movzbl	64(%rsp), %ecx
 3184      40
 3185 036c C6442430 		movb	$0, 48(%rsp)
 3185      00
 3186 0371 660F6F44 		movdqa	48(%rsp), %xmm0
 3186      2430
 3187              	.LBE52:
 3188              	.LBE51:
 3189              	.LBB55:
 3190              	.LBB56:
 3191 0377 660F6F4C 		movdqa	80(%rsp), %xmm1
 3191      2450
 3192 037d 660F6F54 		movdqa	96(%rsp), %xmm2
 3192      2460
 3193 0383 660F6F5C 		movdqa	112(%rsp), %xmm3
 3193      2470
 3194              	.LBE56:
 3195              	.LBE55:
 3196              	.LBB60:
 3197              	.LBB53:
 3198 0389 884810   		movb	%cl, 16(%rax)
 3199              	.LVL375:
  34:/usr/include/x86_64-linux-gnu/bits/string_fortified.h **** }
 3200              		.loc 2 34 10 view .LVU1045
 3201              	.LBE53:
 3202              	.LBE60:
 520:fltk-1.3.4-1/jpeg/jdmarker.c ****   }
 3203              		.loc 1 520 5 is_stmt 1 view .LVU1046
 3204              	.LBB61:
 3205              	.LBB57:
  34:/usr/include/x86_64-linux-gnu/bits/string_fortified.h **** }
 3206              		.loc 2 34 10 is_stmt 0 view .LVU1047
 3207 038c 660F6FA4 		movdqa	128(%rsp), %xmm4
 3207      24800000 
 3207      00
 3208              	.LBE57:
 3209              	.LBE61:
 3210              	.LBB62:
 3211              	.LBB54:
 3212 0395 0F1100   		movups	%xmm0, (%rax)
 3213              	.LBE54:
 3214              	.LBE62:
 520:fltk-1.3.4-1/jpeg/jdmarker.c ****   }
 3215              		.loc 1 520 5 view .LVU1048
 3216 0398 488B03   		movq	(%rbx), %rax
 3217              	.LVL376:
 3218              	.LBB63:
 3219              	.LBI55:
  31:/usr/include/x86_64-linux-gnu/bits/string_fortified.h **** 	       size_t __len))
 3220              		.loc 2 31 1 is_stmt 1 view .LVU1049
 3221              	.LBB58:
  34:/usr/include/x86_64-linux-gnu/bits/string_fortified.h **** }
 3222              		.loc 2 34 3 view .LVU1050
  34:/usr/include/x86_64-linux-gnu/bits/string_fortified.h **** }
 3223              		.loc 2 34 10 is_stmt 0 view .LVU1051
 3224 039b 660F6FAC 		movdqa	144(%rsp), %xmm5
 3224      24900000 
 3224      00
 3225 03a4 660F6FBC 		movdqa	176(%rsp), %xmm7
 3225      24B00000 
 3225      00
 3226 03ad 660F6F84 		movdqa	192(%rsp), %xmm0
 3226      24C00000 
 3226      00
 3227 03b6 0F114811 		movups	%xmm1, 17(%rax)
 3228 03ba 660F6FB4 		movdqa	160(%rsp), %xmm6
 3228      24A00000 
 3228      00
 3229 03c3 660F6F8C 		movdqa	208(%rsp), %xmm1
 3229      24D00000 
 3229      00
 3230 03cc 0F115021 		movups	%xmm2, 33(%rax)
 3231 03d0 660F6F94 		movdqa	224(%rsp), %xmm2
 3231      24E00000 
 3231      00
 3232 03d9 0F115831 		movups	%xmm3, 49(%rax)
 3233 03dd 660F6F9C 		movdqa	240(%rsp), %xmm3
 3233      24F00000 
 3233      00
 3234 03e6 0F116041 		movups	%xmm4, 65(%rax)
 3235 03ea 660F6FA4 		movdqa	256(%rsp), %xmm4
 3235      24000100 
 3235      00
 3236 03f3 0F116851 		movups	%xmm5, 81(%rax)
 3237 03f7 660F6FAC 		movdqa	272(%rsp), %xmm5
 3237      24100100 
 3237      00
 3238 0400 0F117871 		movups	%xmm7, 113(%rax)
 3239 0404 0F118081 		movups	%xmm0, 129(%rax)
 3239      000000
 3240 040b 0F117061 		movups	%xmm6, 97(%rax)
 3241 040f 0F118891 		movups	%xmm1, 145(%rax)
 3241      000000
 3242 0416 0F1190A1 		movups	%xmm2, 161(%rax)
 3242      000000
 3243 041d 0F1198B1 		movups	%xmm3, 177(%rax)
 3243      000000
 3244 0424 0F11A0C1 		movups	%xmm4, 193(%rax)
 3244      000000
 3245 042b 0F11A8D1 		movups	%xmm5, 209(%rax)
 3245      000000
 3246 0432 660F6FB4 		movdqa	288(%rsp), %xmm6
 3246      24200100 
 3246      00
 3247              	.LBE58:
 3248              	.LBE63:
 472:fltk-1.3.4-1/jpeg/jdmarker.c ****     INPUT_BYTE(cinfo, index, return FALSE);
 3249              		.loc 1 472 9 view .LVU1052
 3250 043b 48837C24 		cmpq	$16, 8(%rsp)
 3250      0810
 3251              	.LBB64:
 3252              	.LBB59:
  34:/usr/include/x86_64-linux-gnu/bits/string_fortified.h **** }
 3253              		.loc 2 34 10 view .LVU1053
 3254 0441 660F6FBC 		movdqa	304(%rsp), %xmm7
 3254      24300100 
 3254      00
 3255 044a 660F6F84 		movdqa	320(%rsp), %xmm0
 3255      24400100 
 3255      00
 3256 0453 0F11B0E1 		movups	%xmm6, 225(%rax)
 3256      000000
 3257 045a 0F11B8F1 		movups	%xmm7, 241(%rax)
 3257      000000
 3258 0461 0F118001 		movups	%xmm0, 257(%rax)
 3258      010000
 3259              	.LVL377:
  34:/usr/include/x86_64-linux-gnu/bits/string_fortified.h **** }
 3260              		.loc 2 34 10 view .LVU1054
 3261              	.LBE59:
 3262              	.LBE64:
 472:fltk-1.3.4-1/jpeg/jdmarker.c ****     INPUT_BYTE(cinfo, index, return FALSE);
 3263              		.loc 1 472 9 is_stmt 1 view .LVU1055
 3264 0468 0F8F07FC 		jg	.L279
 3264      FFFF
 3265              	.LVL378:
 3266              	.L266:
 523:fltk-1.3.4-1/jpeg/jdmarker.c ****     ERREXIT(cinfo, JERR_BAD_LENGTH);
 3267              		.loc 1 523 3 view .LVU1056
 523:fltk-1.3.4-1/jpeg/jdmarker.c ****     ERREXIT(cinfo, JERR_BAD_LENGTH);
 3268              		.loc 1 523 6 is_stmt 0 view .LVU1057
 3269 046e 48837C24 		cmpq	$0, 8(%rsp)
 3269      0800
 3270 0474 741E     		je	.L280
 524:fltk-1.3.4-1/jpeg/jdmarker.c **** 
 3271              		.loc 1 524 5 view .LVU1058
 3272 0476 498B4500 		movq	0(%r13), %rax
 3273 047a 48897424 		movq	%rsi, 8(%rsp)
 3273      08
 3274              	.LVL379:
 524:fltk-1.3.4-1/jpeg/jdmarker.c **** 
 3275              		.loc 1 524 5 is_stmt 1 view .LVU1059
 3276 047f 4C89EF   		movq	%r13, %rdi
 3277 0482 C740280C 		movl	$12, 40(%rax)
 3277      000000
 3278 0489 498B4500 		movq	0(%r13), %rax
 3279 048d FF10     		call	*(%rax)
 3280              	.LVL380:
 524:fltk-1.3.4-1/jpeg/jdmarker.c **** 
 3281              		.loc 1 524 5 is_stmt 0 view .LVU1060
 3282 048f 488B7424 		movq	8(%rsp), %rsi
 3282      08
 3283              	.LVL381:
 3284              	.L280:
 526:fltk-1.3.4-1/jpeg/jdmarker.c ****   return TRUE;
 3285              		.loc 1 526 3 is_stmt 1 view .LVU1061
 3286 0494 498937   		movq	%rsi, (%r15)
 527:fltk-1.3.4-1/jpeg/jdmarker.c **** }
 3287              		.loc 1 527 10 is_stmt 0 view .LVU1062
 3288 0497 B8010000 		movl	$1, %eax
 3288      00
 526:fltk-1.3.4-1/jpeg/jdmarker.c ****   return TRUE;
 3289              		.loc 1 526 3 view .LVU1063
 3290 049c 4D897708 		movq	%r14, 8(%r15)
 527:fltk-1.3.4-1/jpeg/jdmarker.c **** }
 3291              		.loc 1 527 3 is_stmt 1 view .LVU1064
 527:fltk-1.3.4-1/jpeg/jdmarker.c **** }
 3292              		.loc 1 527 10 is_stmt 0 view .LVU1065
 3293 04a0 E9BDFCFF 		jmp	.L258
 3293      FF
 3294              	.LVL382:
 3295              		.p2align 4,,10
 3296 04a5 0F1F00   		.p2align 3
 3297              	.L275:
 510:fltk-1.3.4-1/jpeg/jdmarker.c ****     }
 3298              		.loc 1 510 7 is_stmt 1 view .LVU1066
 510:fltk-1.3.4-1/jpeg/jdmarker.c ****     }
 3299              		.loc 1 510 15 is_stmt 0 view .LVU1067
 3300 04a8 0FB64424 		movzbl	39(%rsp), %eax
 3300      27
 3301              	.LVL383:
 510:fltk-1.3.4-1/jpeg/jdmarker.c ****     }
 3302              		.loc 1 510 15 view .LVU1068
 3303 04ad 498D9CC5 		leaq	232(%r13,%rax,8), %rbx
 3303      E8000000 
 3304              	.LVL384:
 510:fltk-1.3.4-1/jpeg/jdmarker.c ****     }
 3305              		.loc 1 510 15 view .LVU1069
 3306 04b5 E973FEFF 		jmp	.L276
 3306      FF
 3307              	.LVL385:
 3308              	.L309:
 517:fltk-1.3.4-1/jpeg/jdmarker.c ****   
 3309              		.loc 1 517 18 view .LVU1070
 3310 04ba 4C89EF   		movq	%r13, %rdi
 3311 04bd 48897424 		movq	%rsi, 16(%rsp)
 3311      10
 517:fltk-1.3.4-1/jpeg/jdmarker.c ****   
 3312              		.loc 1 517 7 is_stmt 1 view .LVU1071
 517:fltk-1.3.4-1/jpeg/jdmarker.c ****   
 3313              		.loc 1 517 18 is_stmt 0 view .LVU1072
 3314 04c2 E8000000 		call	jpeg_alloc_huff_table@PLT
 3314      00
 3315              	.LVL386:
 517:fltk-1.3.4-1/jpeg/jdmarker.c ****   
 3316              		.loc 1 517 16 view .LVU1073
 3317 04c7 488B7424 		movq	16(%rsp), %rsi
 3317      10
 3318 04cc 488903   		movq	%rax, (%rbx)
 3319 04cf E993FEFF 		jmp	.L278
 3319      FF
 3320              	.LVL387:
 3321              	.L307:
 528:fltk-1.3.4-1/jpeg/jdmarker.c **** 
 3322              		.loc 1 528 1 view .LVU1074
 3323 04d4 E8000000 		call	__stack_chk_fail@PLT
 3323      00
 3324              	.LVL388:
 3325              		.cfi_endproc
 3326              	.LFE55:
 3328              		.section	.text.read_markers,"ax",@progbits
 3329              		.p2align 4
 3331              	read_markers:
 3332              	.LVL389:
 3333              	.LFB66:
1095:fltk-1.3.4-1/jpeg/jdmarker.c ****   /* Outer loop repeats once for each marker. */
 3334              		.loc 1 1095 1 is_stmt 1 view -0
 3335              		.cfi_startproc
1095:fltk-1.3.4-1/jpeg/jdmarker.c ****   /* Outer loop repeats once for each marker. */
 3336              		.loc 1 1095 1 is_stmt 0 view .LVU1076
 3337 0000 F30F1EFA 		endbr64
 3338 0004 4157     		pushq	%r15
 3339              		.cfi_def_cfa_offset 16
 3340              		.cfi_offset 15, -16
 3341 0006 4156     		pushq	%r14
 3342              		.cfi_def_cfa_offset 24
 3343              		.cfi_offset 14, -24
 3344 0008 4155     		pushq	%r13
 3345              		.cfi_def_cfa_offset 32
 3346              		.cfi_offset 13, -32
 3347 000a 4989FD   		movq	%rdi, %r13
 3348 000d 4154     		pushq	%r12
 3349              		.cfi_def_cfa_offset 40
 3350              		.cfi_offset 12, -40
 3351 000f 55       		pushq	%rbp
 3352              		.cfi_def_cfa_offset 48
 3353              		.cfi_offset 6, -48
 3354 0010 53       		pushq	%rbx
 3355              		.cfi_def_cfa_offset 56
 3356              		.cfi_offset 3, -56
 3357 0011 4883EC28 		subq	$40, %rsp
 3358              		.cfi_def_cfa_offset 96
 3359 0015 8B8F3C02 		movl	572(%rdi), %ecx
 3359      0000
1097:fltk-1.3.4-1/jpeg/jdmarker.c ****     /* Collect the marker proper, unless we already did. */
 3360              		.loc 1 1097 3 is_stmt 1 view .LVU1077
1100:fltk-1.3.4-1/jpeg/jdmarker.c ****       if (! cinfo->marker->saw_SOI) {
 3361              		.loc 1 1100 5 view .LVU1078
1100:fltk-1.3.4-1/jpeg/jdmarker.c ****       if (! cinfo->marker->saw_SOI) {
 3362              		.loc 1 1100 8 is_stmt 0 view .LVU1079
 3363 001b 85C9     		testl	%ecx, %ecx
 3364 001d 744C     		je	.L467
 3365              	.LVL390:
 3366              	.L311:
1113:fltk-1.3.4-1/jpeg/jdmarker.c ****     case M_SOI:
 3367              		.loc 1 1113 5 is_stmt 1 view .LVU1080
 3368 001f 83F901   		cmpl	$1, %ecx
 3369 0022 0F84C300 		je	.L320
 3369      0000
 3370              	.L710:
 3371 0028 8D8140FF 		leal	-192(%rcx), %eax
 3371      FFFF
 3372 002e 83F83E   		cmpl	$62, %eax
 3373 0031 0F873E09 		ja	.L321
 3373      0000
 3374 0037 488D1500 		leaq	.L323(%rip), %rdx
 3374      000000
 3375 003e 48630482 		movslq	(%rdx,%rax,4), %rax
 3376 0042 4801D0   		addq	%rdx, %rax
 3377 0045 3EFFE0   		notrack jmp	*%rax
 3378              		.section	.rodata.read_markers,"a",@progbits
 3379              		.align 4
 3380              		.align 4
 3381              	.L323:
 3382 0000 00000000 		.long	.L339-.L323
 3383 0004 00000000 		.long	.L338-.L323
 3384 0008 00000000 		.long	.L337-.L323
 3385 000c 00000000 		.long	.L332-.L323
 3386 0010 00000000 		.long	.L336-.L323
 3387 0014 00000000 		.long	.L332-.L323
 3388 0018 00000000 		.long	.L332-.L323
 3389 001c 00000000 		.long	.L332-.L323
 3390 0020 00000000 		.long	.L332-.L323
 3391 0024 00000000 		.long	.L335-.L323
 3392 0028 00000000 		.long	.L334-.L323
 3393 002c 00000000 		.long	.L332-.L323
 3394 0030 00000000 		.long	.L333-.L323
 3395 0034 00000000 		.long	.L332-.L323
 3396 0038 00000000 		.long	.L332-.L323
 3397 003c 00000000 		.long	.L332-.L323
 3398 0040 00000000 		.long	.L320-.L323
 3399 0044 00000000 		.long	.L320-.L323
 3400 0048 00000000 		.long	.L320-.L323
 3401 004c 00000000 		.long	.L320-.L323
 3402 0050 00000000 		.long	.L320-.L323
 3403 0054 00000000 		.long	.L320-.L323
 3404 0058 00000000 		.long	.L320-.L323
 3405 005c 00000000 		.long	.L320-.L323
 3406 0060 00000000 		.long	.L331-.L323
 3407 0064 00000000 		.long	.L330-.L323
 3408 0068 00000000 		.long	.L329-.L323
 3409 006c 00000000 		.long	.L328-.L323
 3410 0070 00000000 		.long	.L327-.L323
 3411 0074 00000000 		.long	.L326-.L323
 3412 0078 00000000 		.long	.L321-.L323
 3413 007c 00000000 		.long	.L321-.L323
 3414 0080 00000000 		.long	.L325-.L323
 3415 0084 00000000 		.long	.L325-.L323
 3416 0088 00000000 		.long	.L325-.L323
 3417 008c 00000000 		.long	.L325-.L323
 3418 0090 00000000 		.long	.L325-.L323
 3419 0094 00000000 		.long	.L325-.L323
 3420 0098 00000000 		.long	.L325-.L323
 3421 009c 00000000 		.long	.L325-.L323
 3422 00a0 00000000 		.long	.L325-.L323
 3423 00a4 00000000 		.long	.L325-.L323
 3424 00a8 00000000 		.long	.L325-.L323
 3425 00ac 00000000 		.long	.L325-.L323
 3426 00b0 00000000 		.long	.L325-.L323
 3427 00b4 00000000 		.long	.L325-.L323
 3428 00b8 00000000 		.long	.L325-.L323
 3429 00bc 00000000 		.long	.L325-.L323
 3430 00c0 00000000 		.long	.L321-.L323
 3431 00c4 00000000 		.long	.L321-.L323
 3432 00c8 00000000 		.long	.L321-.L323
 3433 00cc 00000000 		.long	.L321-.L323
 3434 00d0 00000000 		.long	.L321-.L323
 3435 00d4 00000000 		.long	.L321-.L323
 3436 00d8 00000000 		.long	.L321-.L323
 3437 00dc 00000000 		.long	.L321-.L323
 3438 00e0 00000000 		.long	.L324-.L323
 3439 00e4 00000000 		.long	.L321-.L323
 3440 00e8 00000000 		.long	.L321-.L323
 3441 00ec 00000000 		.long	.L321-.L323
 3442 00f0 00000000 		.long	.L321-.L323
 3443 00f4 00000000 		.long	.L321-.L323
 3444 00f8 00000000 		.long	.L322-.L323
 3445              		.section	.text.read_markers
 3446              	.L322:
1215:fltk-1.3.4-1/jpeg/jdmarker.c **** 	return JPEG_SUSPENDED;
 3447              		.loc 1 1215 7 view .LVU1081
1215:fltk-1.3.4-1/jpeg/jdmarker.c **** 	return JPEG_SUSPENDED;
 3448              		.loc 1 1215 14 is_stmt 0 view .LVU1082
 3449 0048 498B8568 		movq	616(%r13), %rax
 3449      020000
 3450 004f 4C89EF   		movq	%r13, %rdi
 3451 0052 FF5028   		call	*40(%rax)
 3452              	.LVL391:
1215:fltk-1.3.4-1/jpeg/jdmarker.c **** 	return JPEG_SUSPENDED;
 3453              		.loc 1 1215 10 view .LVU1083
 3454 0055 85C0     		testl	%eax, %eax
 3455 0057 0F84ED01 		je	.L315
 3455      0000
 3456 005d 0F1F00   		.p2align 4,,10
 3457              		.p2align 3
 3458              	.L342:
1246:fltk-1.3.4-1/jpeg/jdmarker.c ****   } /* end loop */
 3459              		.loc 1 1246 5 is_stmt 1 view .LVU1084
1246:fltk-1.3.4-1/jpeg/jdmarker.c ****   } /* end loop */
 3460              		.loc 1 1246 26 is_stmt 0 view .LVU1085
 3461 0060 41C7853C 		movl	$0, 572(%r13)
 3461      02000000 
 3461      000000
1097:fltk-1.3.4-1/jpeg/jdmarker.c ****     /* Collect the marker proper, unless we already did. */
 3462              		.loc 1 1097 9 is_stmt 1 view .LVU1086
1097:fltk-1.3.4-1/jpeg/jdmarker.c ****     /* Collect the marker proper, unless we already did. */
 3463              		.loc 1 1097 3 view .LVU1087
1100:fltk-1.3.4-1/jpeg/jdmarker.c ****       if (! cinfo->marker->saw_SOI) {
 3464              		.loc 1 1100 5 view .LVU1088
 3465              	.L467:
1101:fltk-1.3.4-1/jpeg/jdmarker.c **** 	if (! first_marker(cinfo))
 3466              		.loc 1 1101 7 view .LVU1089
1101:fltk-1.3.4-1/jpeg/jdmarker.c **** 	if (! first_marker(cinfo))
 3467              		.loc 1 1101 26 is_stmt 0 view .LVU1090
 3468 006b 498B8568 		movq	616(%r13), %rax
 3468      020000
1101:fltk-1.3.4-1/jpeg/jdmarker.c **** 	if (! first_marker(cinfo))
 3469              		.loc 1 1101 10 view .LVU1091
 3470 0072 448B6018 		movl	24(%rax), %r12d
 3471 0076 4585E4   		testl	%r12d, %r12d
 3472 0079 0F85A100 		jne	.L312
 3472      0000
1102:fltk-1.3.4-1/jpeg/jdmarker.c **** 	  return JPEG_SUSPENDED;
 3473              		.loc 1 1102 2 is_stmt 1 view .LVU1092
 3474              	.LVL392:
 3475              	.LBB86:
 3476              	.LBI86:
1058:fltk-1.3.4-1/jpeg/jdmarker.c **** /* Like next_marker, but used to obtain the initial SOI marker. */
 3477              		.loc 1 1058 1 view .LVU1093
 3478              	.LBB87:
1066:fltk-1.3.4-1/jpeg/jdmarker.c ****   INPUT_VARS(cinfo);
 3479              		.loc 1 1066 3 view .LVU1094
1067:fltk-1.3.4-1/jpeg/jdmarker.c **** 
 3480              		.loc 1 1067 3 view .LVU1095
 3481 007f 498B6D28 		movq	40(%r13), %rbp
 3482              	.LVL393:
1067:fltk-1.3.4-1/jpeg/jdmarker.c **** 
 3483              		.loc 1 1067 3 view .LVU1096
1067:fltk-1.3.4-1/jpeg/jdmarker.c **** 
 3484              		.loc 1 1067 3 view .LVU1097
 3485 0083 488B4508 		movq	8(%rbp), %rax
 3486              	.LVL394:
1069:fltk-1.3.4-1/jpeg/jdmarker.c ****   INPUT_BYTE(cinfo, c2, return FALSE);
 3487              		.loc 1 1069 3 view .LVU1098
1069:fltk-1.3.4-1/jpeg/jdmarker.c ****   INPUT_BYTE(cinfo, c2, return FALSE);
 3488              		.loc 1 1069 3 view .LVU1099
 3489 0087 4885C0   		testq	%rax, %rax
 3490 008a 0F84D001 		je	.L313
 3490      0000
1067:fltk-1.3.4-1/jpeg/jdmarker.c **** 
 3491              		.loc 1 1067 3 is_stmt 0 view .LVU1100
 3492 0090 488B5500 		movq	0(%rbp), %rdx
1069:fltk-1.3.4-1/jpeg/jdmarker.c ****   INPUT_BYTE(cinfo, c2, return FALSE);
 3493              		.loc 1 1069 3 is_stmt 1 view .LVU1101
1069:fltk-1.3.4-1/jpeg/jdmarker.c ****   INPUT_BYTE(cinfo, c2, return FALSE);
 3494              		.loc 1 1069 3 view .LVU1102
 3495              	.LVL395:
1069:fltk-1.3.4-1/jpeg/jdmarker.c ****   INPUT_BYTE(cinfo, c2, return FALSE);
 3496              		.loc 1 1069 3 view .LVU1103
1069:fltk-1.3.4-1/jpeg/jdmarker.c ****   INPUT_BYTE(cinfo, c2, return FALSE);
 3497              		.loc 1 1069 3 is_stmt 0 view .LVU1104
 3498 0094 440FB63A 		movzbl	(%rdx), %r15d
 3499              	.LVL396:
1069:fltk-1.3.4-1/jpeg/jdmarker.c ****   INPUT_BYTE(cinfo, c2, return FALSE);
 3500              		.loc 1 1069 3 is_stmt 1 view .LVU1105
1070:fltk-1.3.4-1/jpeg/jdmarker.c ****   if (c != 0xFF || c2 != (int) M_SOI)
 3501              		.loc 1 1070 3 view .LVU1106
1070:fltk-1.3.4-1/jpeg/jdmarker.c ****   if (c != 0xFF || c2 != (int) M_SOI)
 3502              		.loc 1 1070 3 view .LVU1107
 3503 0098 4883E801 		subq	$1, %rax
 3504              	.LVL397:
1070:fltk-1.3.4-1/jpeg/jdmarker.c ****   if (c != 0xFF || c2 != (int) M_SOI)
 3505              		.loc 1 1070 3 is_stmt 0 view .LVU1108
 3506 009c 0F84DE01 		je	.L316
 3506      0000
 3507              	.LVL398:
 3508              	.L713:
1069:fltk-1.3.4-1/jpeg/jdmarker.c ****   INPUT_BYTE(cinfo, c2, return FALSE);
 3509              		.loc 1 1069 3 view .LVU1109
 3510 00a2 4883C201 		addq	$1, %rdx
 3511              	.L317:
 3512              	.LVL399:
1070:fltk-1.3.4-1/jpeg/jdmarker.c ****   if (c != 0xFF || c2 != (int) M_SOI)
 3513              		.loc 1 1070 3 is_stmt 1 view .LVU1110
1070:fltk-1.3.4-1/jpeg/jdmarker.c ****   if (c != 0xFF || c2 != (int) M_SOI)
 3514              		.loc 1 1070 3 view .LVU1111
 3515 00a6 440FB622 		movzbl	(%rdx), %r12d
 3516 00aa 488D58FF 		leaq	-1(%rax), %rbx
 3517              	.LVL400:
1070:fltk-1.3.4-1/jpeg/jdmarker.c ****   if (c != 0xFF || c2 != (int) M_SOI)
 3518              		.loc 1 1070 3 view .LVU1112
 3519 00ae 4C8D7201 		leaq	1(%rdx), %r14
 3520              	.LVL401:
1070:fltk-1.3.4-1/jpeg/jdmarker.c ****   if (c != 0xFF || c2 != (int) M_SOI)
 3521              		.loc 1 1070 3 view .LVU1113
1071:fltk-1.3.4-1/jpeg/jdmarker.c ****     ERREXIT2(cinfo, JERR_NO_SOI, c, c2);
 3522              		.loc 1 1071 3 view .LVU1114
1071:fltk-1.3.4-1/jpeg/jdmarker.c ****     ERREXIT2(cinfo, JERR_NO_SOI, c, c2);
 3523              		.loc 1 1071 6 is_stmt 0 view .LVU1115
 3524 00b2 4181FFFF 		cmpl	$255, %r15d
 3524      000000
 3525 00b9 0F85E101 		jne	.L478
 3525      0000
1071:fltk-1.3.4-1/jpeg/jdmarker.c ****     ERREXIT2(cinfo, JERR_NO_SOI, c, c2);
 3526              		.loc 1 1071 6 view .LVU1116
 3527 00bf 4181FCD8 		cmpl	$216, %r12d
 3527      000000
 3528 00c6 0F85D401 		jne	.L478
 3528      0000
 3529              	.L318:
1074:fltk-1.3.4-1/jpeg/jdmarker.c **** 
 3530              		.loc 1 1074 3 is_stmt 1 view .LVU1117
1074:fltk-1.3.4-1/jpeg/jdmarker.c **** 
 3531              		.loc 1 1074 24 is_stmt 0 view .LVU1118
 3532 00cc 4589A53C 		movl	%r12d, 572(%r13)
 3532      020000
1076:fltk-1.3.4-1/jpeg/jdmarker.c ****   return TRUE;
 3533              		.loc 1 1076 3 is_stmt 1 view .LVU1119
 3534 00d3 4C897500 		movq	%r14, 0(%rbp)
 3535 00d7 48895D08 		movq	%rbx, 8(%rbp)
1077:fltk-1.3.4-1/jpeg/jdmarker.c **** }
 3536              		.loc 1 1077 3 view .LVU1120
 3537              	.LVL402:
1077:fltk-1.3.4-1/jpeg/jdmarker.c **** }
 3538              		.loc 1 1077 3 is_stmt 0 view .LVU1121
 3539 00db 418B8D3C 		movl	572(%r13), %ecx
 3539      020000
 3540              	.LBE87:
 3541              	.LBE86:
1113:fltk-1.3.4-1/jpeg/jdmarker.c ****     case M_SOI:
 3542              		.loc 1 1113 5 is_stmt 1 view .LVU1122
 3543 00e2 83F901   		cmpl	$1, %ecx
 3544 00e5 0F853DFF 		jne	.L710
 3544      FFFF
 3545              	.L320:
1228:fltk-1.3.4-1/jpeg/jdmarker.c ****       break;
 3546              		.loc 1 1228 7 view .LVU1123
 3547 00eb 498B4500 		movq	0(%r13), %rax
 3548 00ef BE010000 		movl	$1, %esi
 3548      00
 3549 00f4 4C89EF   		movq	%r13, %rdi
 3550 00f7 C740285E 		movl	$94, 40(%rax)
 3550      000000
 3551 00fe 498B4500 		movq	0(%r13), %rax
 3552 0102 418B953C 		movl	572(%r13), %edx
 3552      020000
 3553 0109 89502C   		movl	%edx, 44(%rax)
 3554 010c 498B4500 		movq	0(%r13), %rax
 3555 0110 FF5008   		call	*8(%rax)
 3556              	.LVL403:
1229:fltk-1.3.4-1/jpeg/jdmarker.c **** 
 3557              		.loc 1 1229 7 view .LVU1124
 3558 0113 E948FFFF 		jmp	.L342
 3558      FF
 3559 0118 0F1F8400 		.p2align 4,,10
 3559      00000000 
 3560              		.p2align 3
 3561              	.L312:
1105:fltk-1.3.4-1/jpeg/jdmarker.c **** 	  return JPEG_SUSPENDED;
 3562              		.loc 1 1105 2 view .LVU1125
1105:fltk-1.3.4-1/jpeg/jdmarker.c **** 	  return JPEG_SUSPENDED;
 3563              		.loc 1 1105 8 is_stmt 0 view .LVU1126
 3564 0120 4C89EF   		movq	%r13, %rdi
 3565 0123 E8000000 		call	next_marker
 3565      00
 3566              	.LVL404:
1105:fltk-1.3.4-1/jpeg/jdmarker.c **** 	  return JPEG_SUSPENDED;
 3567              		.loc 1 1105 5 view .LVU1127
 3568 0128 85C0     		testl	%eax, %eax
 3569 012a 0F841A01 		je	.L315
 3569      0000
 3570 0130 418B8D3C 		movl	572(%r13), %ecx
 3570      020000
 3571 0137 E9E3FEFF 		jmp	.L311
 3571      FF
 3572              	.L324:
1189:fltk-1.3.4-1/jpeg/jdmarker.c **** 	return JPEG_SUSPENDED;
 3573              		.loc 1 1189 7 is_stmt 1 view .LVU1128
 3574              	.LVL405:
 3575              	.LBB89:
 3576              	.LBI89:
 646:fltk-1.3.4-1/jpeg/jdmarker.c **** /* Process an LSE marker */
 3577              		.loc 1 646 1 view .LVU1129
 3578              	.LBB90:
 649:fltk-1.3.4-1/jpeg/jdmarker.c ****   unsigned int tmp;
 3579              		.loc 1 649 3 view .LVU1130
 650:fltk-1.3.4-1/jpeg/jdmarker.c ****   int cid;
 3580              		.loc 1 650 3 view .LVU1131
 651:fltk-1.3.4-1/jpeg/jdmarker.c ****   INPUT_VARS(cinfo);
 3581              		.loc 1 651 3 view .LVU1132
 652:fltk-1.3.4-1/jpeg/jdmarker.c **** 
 3582              		.loc 1 652 3 view .LVU1133
 654:fltk-1.3.4-1/jpeg/jdmarker.c ****     ERREXITS(cinfo, JERR_SOF_BEFORE, "LSE");
 3583              		.loc 1 654 22 is_stmt 0 view .LVU1134
 3584 013c 498B8568 		movq	616(%r13), %rax
 3584      020000
 652:fltk-1.3.4-1/jpeg/jdmarker.c **** 
 3585              		.loc 1 652 3 view .LVU1135
 3586 0143 498B6D28 		movq	40(%r13), %rbp
 3587              	.LVL406:
 652:fltk-1.3.4-1/jpeg/jdmarker.c **** 
 3588              		.loc 1 652 3 is_stmt 1 view .LVU1136
 654:fltk-1.3.4-1/jpeg/jdmarker.c ****     ERREXITS(cinfo, JERR_SOF_BEFORE, "LSE");
 3589              		.loc 1 654 6 is_stmt 0 view .LVU1137
 3590 0147 8B401C   		movl	28(%rax), %eax
 652:fltk-1.3.4-1/jpeg/jdmarker.c **** 
 3591              		.loc 1 652 3 view .LVU1138
 3592 014a 4C8B6500 		movq	0(%rbp), %r12
 3593              	.LVL407:
 652:fltk-1.3.4-1/jpeg/jdmarker.c **** 
 3594              		.loc 1 652 3 is_stmt 1 view .LVU1139
 3595 014e 488B5D08 		movq	8(%rbp), %rbx
 3596              	.LVL408:
 654:fltk-1.3.4-1/jpeg/jdmarker.c ****     ERREXITS(cinfo, JERR_SOF_BEFORE, "LSE");
 3597              		.loc 1 654 3 view .LVU1140
 654:fltk-1.3.4-1/jpeg/jdmarker.c ****     ERREXITS(cinfo, JERR_SOF_BEFORE, "LSE");
 3598              		.loc 1 654 6 is_stmt 0 view .LVU1141
 3599 0152 85C0     		testl	%eax, %eax
 3600 0154 0F84360D 		je	.L711
 3600      0000
 3601              	.L428:
 657:fltk-1.3.4-1/jpeg/jdmarker.c **** 
 3602              		.loc 1 657 3 is_stmt 1 view .LVU1142
 657:fltk-1.3.4-1/jpeg/jdmarker.c **** 
 3603              		.loc 1 657 6 is_stmt 0 view .LVU1143
 3604 015a 41837D38 		cmpl	$2, 56(%r13)
 3604      02
 3605 015f 0F8EAB0A 		jle	.L429
 3605      0000
 659:fltk-1.3.4-1/jpeg/jdmarker.c **** 
 3606              		.loc 1 659 3 is_stmt 1 view .LVU1144
 659:fltk-1.3.4-1/jpeg/jdmarker.c **** 
 3607              		.loc 1 659 3 view .LVU1145
 3608 0165 4885DB   		testq	%rbx, %rbx
 3609 0168 7516     		jne	.L430
 659:fltk-1.3.4-1/jpeg/jdmarker.c **** 
 3610              		.loc 1 659 3 view .LVU1146
 3611 016a 4C89EF   		movq	%r13, %rdi
 3612 016d FF5518   		call	*24(%rbp)
 3613              	.LVL409:
 3614 0170 85C0     		testl	%eax, %eax
 3615 0172 0F84D200 		je	.L315
 3615      0000
 659:fltk-1.3.4-1/jpeg/jdmarker.c **** 
 3616              		.loc 1 659 3 view .LVU1147
 3617 0178 4C8B6500 		movq	0(%rbp), %r12
 3618              	.LVL410:
 659:fltk-1.3.4-1/jpeg/jdmarker.c **** 
 3619              		.loc 1 659 3 is_stmt 0 view .LVU1148
 3620 017c 488B5D08 		movq	8(%rbp), %rbx
 3621              	.LVL411:
 3622              	.L430:
 659:fltk-1.3.4-1/jpeg/jdmarker.c **** 
 3623              		.loc 1 659 3 is_stmt 1 view .LVU1149
 659:fltk-1.3.4-1/jpeg/jdmarker.c **** 
 3624              		.loc 1 659 3 view .LVU1150
 659:fltk-1.3.4-1/jpeg/jdmarker.c **** 
 3625              		.loc 1 659 3 view .LVU1151
 659:fltk-1.3.4-1/jpeg/jdmarker.c **** 
 3626              		.loc 1 659 3 is_stmt 0 view .LVU1152
 3627 0180 410FB604 		movzbl	(%r12), %eax
 3627      24
 3628 0185 C1E008   		sall	$8, %eax
 3629 0188 4189C6   		movl	%eax, %r14d
 3630              	.LVL412:
 659:fltk-1.3.4-1/jpeg/jdmarker.c **** 
 3631              		.loc 1 659 3 is_stmt 1 view .LVU1153
 3632 018b 4883EB01 		subq	$1, %rbx
 3633              	.LVL413:
 659:fltk-1.3.4-1/jpeg/jdmarker.c **** 
 3634              		.loc 1 659 3 is_stmt 0 view .LVU1154
 3635 018f 0F84D30B 		je	.L431
 3635      0000
 659:fltk-1.3.4-1/jpeg/jdmarker.c **** 
 3636              		.loc 1 659 3 view .LVU1155
 3637 0195 4983C401 		addq	$1, %r12
 3638              	.LVL414:
 3639              	.L432:
 659:fltk-1.3.4-1/jpeg/jdmarker.c **** 
 3640              		.loc 1 659 3 is_stmt 1 view .LVU1156
 659:fltk-1.3.4-1/jpeg/jdmarker.c **** 
 3641              		.loc 1 659 3 view .LVU1157
 3642 0199 410FB604 		movzbl	(%r12), %eax
 3642      24
 3643 019e 4883EB01 		subq	$1, %rbx
 3644              	.LVL415:
 659:fltk-1.3.4-1/jpeg/jdmarker.c **** 
 3645              		.loc 1 659 3 view .LVU1158
 659:fltk-1.3.4-1/jpeg/jdmarker.c **** 
 3646              		.loc 1 659 3 view .LVU1159
 661:fltk-1.3.4-1/jpeg/jdmarker.c ****     ERREXIT(cinfo, JERR_BAD_LENGTH);
 3647              		.loc 1 661 3 view .LVU1160
 659:fltk-1.3.4-1/jpeg/jdmarker.c **** 
 3648              		.loc 1 659 3 is_stmt 0 view .LVU1161
 3649 01a2 4C01F0   		addq	%r14, %rax
 3650              	.LVL416:
 661:fltk-1.3.4-1/jpeg/jdmarker.c ****     ERREXIT(cinfo, JERR_BAD_LENGTH);
 3651              		.loc 1 661 6 view .LVU1162
 3652 01a5 4883F818 		cmpq	$24, %rax
 3653 01a9 7414     		je	.L433
 662:fltk-1.3.4-1/jpeg/jdmarker.c **** 
 3654              		.loc 1 662 5 is_stmt 1 view .LVU1163
 3655 01ab 498B4500 		movq	0(%r13), %rax
 3656              	.LVL417:
 662:fltk-1.3.4-1/jpeg/jdmarker.c **** 
 3657              		.loc 1 662 5 is_stmt 0 view .LVU1164
 3658 01af 4C89EF   		movq	%r13, %rdi
 3659 01b2 C740280C 		movl	$12, 40(%rax)
 3659      000000
 3660              	.LVL418:
 662:fltk-1.3.4-1/jpeg/jdmarker.c **** 
 3661              		.loc 1 662 5 view .LVU1165
 3662 01b9 498B4500 		movq	0(%r13), %rax
 3663 01bd FF10     		call	*(%rax)
 3664              	.LVL419:
 3665              	.L433:
 664:fltk-1.3.4-1/jpeg/jdmarker.c ****   if (tmp != 0x0D)	/* ID inverse transform specification */
 3666              		.loc 1 664 3 is_stmt 1 view .LVU1166
 664:fltk-1.3.4-1/jpeg/jdmarker.c ****   if (tmp != 0x0D)	/* ID inverse transform specification */
 3667              		.loc 1 664 3 view .LVU1167
 659:fltk-1.3.4-1/jpeg/jdmarker.c **** 
 3668              		.loc 1 659 3 is_stmt 0 view .LVU1168
 3669 01bf 4983C401 		addq	$1, %r12
 3670              	.LVL420:
 664:fltk-1.3.4-1/jpeg/jdmarker.c ****   if (tmp != 0x0D)	/* ID inverse transform specification */
 3671              		.loc 1 664 3 view .LVU1169
 3672 01c3 4885DB   		testq	%rbx, %rbx
 3673 01c6 7512     		jne	.L435
 664:fltk-1.3.4-1/jpeg/jdmarker.c ****   if (tmp != 0x0D)	/* ID inverse transform specification */
 3674              		.loc 1 664 3 is_stmt 1 view .LVU1170
 3675 01c8 4C89EF   		movq	%r13, %rdi
 3676 01cb FF5518   		call	*24(%rbp)
 3677              	.LVL421:
 3678 01ce 85C0     		testl	%eax, %eax
 3679 01d0 7478     		je	.L315
 664:fltk-1.3.4-1/jpeg/jdmarker.c ****   if (tmp != 0x0D)	/* ID inverse transform specification */
 3680              		.loc 1 664 3 view .LVU1171
 3681 01d2 4C8B6500 		movq	0(%rbp), %r12
 3682              	.LVL422:
 664:fltk-1.3.4-1/jpeg/jdmarker.c ****   if (tmp != 0x0D)	/* ID inverse transform specification */
 3683              		.loc 1 664 3 is_stmt 0 view .LVU1172
 3684 01d6 488B5D08 		movq	8(%rbp), %rbx
 3685              	.LVL423:
 3686              	.L435:
 664:fltk-1.3.4-1/jpeg/jdmarker.c ****   if (tmp != 0x0D)	/* ID inverse transform specification */
 3687              		.loc 1 664 3 is_stmt 1 view .LVU1173
 664:fltk-1.3.4-1/jpeg/jdmarker.c ****   if (tmp != 0x0D)	/* ID inverse transform specification */
 3688              		.loc 1 664 3 view .LVU1174
 3689 01da 4883EB01 		subq	$1, %rbx
 3690              	.LVL424:
 664:fltk-1.3.4-1/jpeg/jdmarker.c ****   if (tmp != 0x0D)	/* ID inverse transform specification */
 3691              		.loc 1 664 3 view .LVU1175
 664:fltk-1.3.4-1/jpeg/jdmarker.c ****   if (tmp != 0x0D)	/* ID inverse transform specification */
 3692              		.loc 1 664 3 view .LVU1176
 665:fltk-1.3.4-1/jpeg/jdmarker.c ****     ERREXIT1(cinfo, JERR_UNKNOWN_MARKER, cinfo->unread_marker);
 3693              		.loc 1 665 3 view .LVU1177
 665:fltk-1.3.4-1/jpeg/jdmarker.c ****     ERREXIT1(cinfo, JERR_UNKNOWN_MARKER, cinfo->unread_marker);
 3694              		.loc 1 665 6 is_stmt 0 view .LVU1178
 3695 01de 41803C24 		cmpb	$13, (%r12)
 3695      0D
 3696 01e3 7422     		je	.L436
 666:fltk-1.3.4-1/jpeg/jdmarker.c ****   INPUT_2BYTES(cinfo, tmp, return FALSE);
 3697              		.loc 1 666 5 is_stmt 1 view .LVU1179
 3698 01e5 498B4500 		movq	0(%r13), %rax
 3699 01e9 4C89EF   		movq	%r13, %rdi
 3700 01ec C7402846 		movl	$70, 40(%rax)
 3700      000000
 3701              	.LVL425:
 666:fltk-1.3.4-1/jpeg/jdmarker.c ****   INPUT_2BYTES(cinfo, tmp, return FALSE);
 3702              		.loc 1 666 5 is_stmt 0 view .LVU1180
 3703 01f3 498B4500 		movq	0(%r13), %rax
 3704 01f7 418B953C 		movl	572(%r13), %edx
 3704      020000
 3705 01fe 89502C   		movl	%edx, 44(%rax)
 3706 0201 498B4500 		movq	0(%r13), %rax
 3707 0205 FF10     		call	*(%rax)
 3708              	.LVL426:
 3709              	.L436:
 667:fltk-1.3.4-1/jpeg/jdmarker.c ****   if (tmp != MAXJSAMPLE) goto bad;		/* MAXTRANS */
 3710              		.loc 1 667 3 is_stmt 1 view .LVU1181
 667:fltk-1.3.4-1/jpeg/jdmarker.c ****   if (tmp != MAXJSAMPLE) goto bad;		/* MAXTRANS */
 3711              		.loc 1 667 3 view .LVU1182
 664:fltk-1.3.4-1/jpeg/jdmarker.c ****   if (tmp != 0x0D)	/* ID inverse transform specification */
 3712              		.loc 1 664 3 is_stmt 0 view .LVU1183
 3713 0207 4983C401 		addq	$1, %r12
 3714              	.LVL427:
 667:fltk-1.3.4-1/jpeg/jdmarker.c ****   if (tmp != MAXJSAMPLE) goto bad;		/* MAXTRANS */
 3715              		.loc 1 667 3 view .LVU1184
 3716 020b 4885DB   		testq	%rbx, %rbx
 3717 020e 7512     		jne	.L438
 667:fltk-1.3.4-1/jpeg/jdmarker.c ****   if (tmp != MAXJSAMPLE) goto bad;		/* MAXTRANS */
 3718              		.loc 1 667 3 is_stmt 1 view .LVU1185
 3719 0210 4C89EF   		movq	%r13, %rdi
 3720 0213 FF5518   		call	*24(%rbp)
 3721              	.LVL428:
 3722 0216 85C0     		testl	%eax, %eax
 3723 0218 7430     		je	.L315
 667:fltk-1.3.4-1/jpeg/jdmarker.c ****   if (tmp != MAXJSAMPLE) goto bad;		/* MAXTRANS */
 3724              		.loc 1 667 3 view .LVU1186
 3725 021a 4C8B6500 		movq	0(%rbp), %r12
 3726              	.LVL429:
 667:fltk-1.3.4-1/jpeg/jdmarker.c ****   if (tmp != MAXJSAMPLE) goto bad;		/* MAXTRANS */
 3727              		.loc 1 667 3 is_stmt 0 view .LVU1187
 3728 021e 488B5D08 		movq	8(%rbp), %rbx
 3729              	.LVL430:
 3730              	.L438:
 667:fltk-1.3.4-1/jpeg/jdmarker.c ****   if (tmp != MAXJSAMPLE) goto bad;		/* MAXTRANS */
 3731              		.loc 1 667 3 is_stmt 1 view .LVU1188
 667:fltk-1.3.4-1/jpeg/jdmarker.c ****   if (tmp != MAXJSAMPLE) goto bad;		/* MAXTRANS */
 3732              		.loc 1 667 3 view .LVU1189
 667:fltk-1.3.4-1/jpeg/jdmarker.c ****   if (tmp != MAXJSAMPLE) goto bad;		/* MAXTRANS */
 3733              		.loc 1 667 3 view .LVU1190
 667:fltk-1.3.4-1/jpeg/jdmarker.c ****   if (tmp != MAXJSAMPLE) goto bad;		/* MAXTRANS */
 3734              		.loc 1 667 3 is_stmt 0 view .LVU1191
 3735 0222 410FB604 		movzbl	(%r12), %eax
 3735      24
 3736 0227 C1E008   		sall	$8, %eax
 3737 022a 4883EB01 		subq	$1, %rbx
 3738              	.LVL431:
 667:fltk-1.3.4-1/jpeg/jdmarker.c ****   if (tmp != MAXJSAMPLE) goto bad;		/* MAXTRANS */
 3739              		.loc 1 667 3 view .LVU1192
 3740 022e 4189C6   		movl	%eax, %r14d
 3741              	.LVL432:
 667:fltk-1.3.4-1/jpeg/jdmarker.c ****   if (tmp != MAXJSAMPLE) goto bad;		/* MAXTRANS */
 3742              		.loc 1 667 3 is_stmt 1 view .LVU1193
 3743 0231 498D4424 		leaq	1(%r12), %rax
 3743      01
 3744              	.LVL433:
 667:fltk-1.3.4-1/jpeg/jdmarker.c ****   if (tmp != MAXJSAMPLE) goto bad;		/* MAXTRANS */
 3745              		.loc 1 667 3 is_stmt 0 view .LVU1194
 3746 0236 0F85A40D 		jne	.L440
 3746      0000
 667:fltk-1.3.4-1/jpeg/jdmarker.c ****   if (tmp != MAXJSAMPLE) goto bad;		/* MAXTRANS */
 3747              		.loc 1 667 3 is_stmt 1 view .LVU1195
 3748 023c 4C89EF   		movq	%r13, %rdi
 3749 023f FF5518   		call	*24(%rbp)
 3750              	.LVL434:
 667:fltk-1.3.4-1/jpeg/jdmarker.c ****   if (tmp != MAXJSAMPLE) goto bad;		/* MAXTRANS */
 3751              		.loc 1 667 3 is_stmt 0 view .LVU1196
 3752 0242 85C0     		testl	%eax, %eax
 3753 0244 0F858E0D 		jne	.L712
 3753      0000
 3754              	.LVL435:
 3755              	.L315:
 667:fltk-1.3.4-1/jpeg/jdmarker.c ****   if (tmp != MAXJSAMPLE) goto bad;		/* MAXTRANS */
 3756              		.loc 1 667 3 view .LVU1197
 3757              	.LBE90:
 3758              	.LBE89:
1248:fltk-1.3.4-1/jpeg/jdmarker.c **** 
 3759              		.loc 1 1248 1 view .LVU1198
 3760 024a 4883C428 		addq	$40, %rsp
 3761              		.cfi_remember_state
 3762              		.cfi_def_cfa_offset 56
1103:fltk-1.3.4-1/jpeg/jdmarker.c ****       } else {
 3763              		.loc 1 1103 11 view .LVU1199
 3764 024e 31C0     		xorl	%eax, %eax
1248:fltk-1.3.4-1/jpeg/jdmarker.c **** 
 3765              		.loc 1 1248 1 view .LVU1200
 3766 0250 5B       		popq	%rbx
 3767              		.cfi_def_cfa_offset 48
 3768 0251 5D       		popq	%rbp
 3769              		.cfi_def_cfa_offset 40
 3770 0252 415C     		popq	%r12
 3771              		.cfi_def_cfa_offset 32
 3772 0254 415D     		popq	%r13
 3773              		.cfi_def_cfa_offset 24
 3774 0256 415E     		popq	%r14
 3775              		.cfi_def_cfa_offset 16
 3776 0258 415F     		popq	%r15
 3777              		.cfi_def_cfa_offset 8
 3778 025a C3       		ret
 3779              	.LVL436:
 3780 025b 0F1F4400 		.p2align 4,,10
 3780      00
 3781              		.p2align 3
 3782              	.L313:
 3783              		.cfi_restore_state
 3784              	.LBB101:
 3785              	.LBB88:
1069:fltk-1.3.4-1/jpeg/jdmarker.c ****   INPUT_BYTE(cinfo, c2, return FALSE);
 3786              		.loc 1 1069 3 is_stmt 1 view .LVU1201
 3787 0260 4C89EF   		movq	%r13, %rdi
 3788 0263 FF5518   		call	*24(%rbp)
 3789              	.LVL437:
1069:fltk-1.3.4-1/jpeg/jdmarker.c ****   INPUT_BYTE(cinfo, c2, return FALSE);
 3790              		.loc 1 1069 3 is_stmt 0 view .LVU1202
 3791 0266 85C0     		testl	%eax, %eax
 3792 0268 74E0     		je	.L315
1069:fltk-1.3.4-1/jpeg/jdmarker.c ****   INPUT_BYTE(cinfo, c2, return FALSE);
 3793              		.loc 1 1069 3 is_stmt 1 view .LVU1203
 3794 026a 488B5500 		movq	0(%rbp), %rdx
 3795              	.LVL438:
1069:fltk-1.3.4-1/jpeg/jdmarker.c ****   INPUT_BYTE(cinfo, c2, return FALSE);
 3796              		.loc 1 1069 3 is_stmt 0 view .LVU1204
 3797 026e 488B4508 		movq	8(%rbp), %rax
 3798              	.LVL439:
1069:fltk-1.3.4-1/jpeg/jdmarker.c ****   INPUT_BYTE(cinfo, c2, return FALSE);
 3799              		.loc 1 1069 3 is_stmt 1 view .LVU1205
1069:fltk-1.3.4-1/jpeg/jdmarker.c ****   INPUT_BYTE(cinfo, c2, return FALSE);
 3800              		.loc 1 1069 3 view .LVU1206
1069:fltk-1.3.4-1/jpeg/jdmarker.c ****   INPUT_BYTE(cinfo, c2, return FALSE);
 3801              		.loc 1 1069 3 view .LVU1207
1069:fltk-1.3.4-1/jpeg/jdmarker.c ****   INPUT_BYTE(cinfo, c2, return FALSE);
 3802              		.loc 1 1069 3 is_stmt 0 view .LVU1208
 3803 0272 440FB63A 		movzbl	(%rdx), %r15d
 3804              	.LVL440:
1069:fltk-1.3.4-1/jpeg/jdmarker.c ****   INPUT_BYTE(cinfo, c2, return FALSE);
 3805              		.loc 1 1069 3 is_stmt 1 view .LVU1209
1070:fltk-1.3.4-1/jpeg/jdmarker.c ****   if (c != 0xFF || c2 != (int) M_SOI)
 3806              		.loc 1 1070 3 view .LVU1210
1070:fltk-1.3.4-1/jpeg/jdmarker.c ****   if (c != 0xFF || c2 != (int) M_SOI)
 3807              		.loc 1 1070 3 view .LVU1211
 3808 0276 4883E801 		subq	$1, %rax
 3809              	.LVL441:
1070:fltk-1.3.4-1/jpeg/jdmarker.c ****   if (c != 0xFF || c2 != (int) M_SOI)
 3810              		.loc 1 1070 3 is_stmt 0 view .LVU1212
 3811 027a 0F8522FE 		jne	.L713
 3811      FFFF
 3812              	.LVL442:
 3813              	.L316:
1070:fltk-1.3.4-1/jpeg/jdmarker.c ****   if (c != 0xFF || c2 != (int) M_SOI)
 3814              		.loc 1 1070 3 is_stmt 1 view .LVU1213
 3815 0280 4C89EF   		movq	%r13, %rdi
 3816 0283 FF5518   		call	*24(%rbp)
 3817              	.LVL443:
1070:fltk-1.3.4-1/jpeg/jdmarker.c ****   if (c != 0xFF || c2 != (int) M_SOI)
 3818              		.loc 1 1070 3 is_stmt 0 view .LVU1214
 3819 0286 85C0     		testl	%eax, %eax
 3820 0288 74C0     		je	.L315
1070:fltk-1.3.4-1/jpeg/jdmarker.c ****   if (c != 0xFF || c2 != (int) M_SOI)
 3821              		.loc 1 1070 3 is_stmt 1 view .LVU1215
 3822 028a 488B5500 		movq	0(%rbp), %rdx
 3823              	.LVL444:
1070:fltk-1.3.4-1/jpeg/jdmarker.c ****   if (c != 0xFF || c2 != (int) M_SOI)
 3824              		.loc 1 1070 3 is_stmt 0 view .LVU1216
 3825 028e 488B4508 		movq	8(%rbp), %rax
 3826              	.LVL445:
1070:fltk-1.3.4-1/jpeg/jdmarker.c ****   if (c != 0xFF || c2 != (int) M_SOI)
 3827              		.loc 1 1070 3 view .LVU1217
 3828 0292 E90FFEFF 		jmp	.L317
 3828      FF
 3829              	.LVL446:
 3830 0297 660F1F84 		.p2align 4,,10
 3830      00000000 
 3830      00
 3831              		.p2align 3
 3832              	.L478:
1072:fltk-1.3.4-1/jpeg/jdmarker.c **** 
 3833              		.loc 1 1072 5 is_stmt 1 view .LVU1218
 3834 02a0 498B4500 		movq	0(%r13), %rax
 3835 02a4 4C89EF   		movq	%r13, %rdi
 3836 02a7 C7402837 		movl	$55, 40(%rax)
 3836      000000
 3837 02ae 498B4500 		movq	0(%r13), %rax
 3838 02b2 4489782C 		movl	%r15d, 44(%rax)
 3839 02b6 498B4500 		movq	0(%r13), %rax
 3840 02ba 44896030 		movl	%r12d, 48(%rax)
 3841 02be 498B4500 		movq	0(%r13), %rax
 3842 02c2 FF10     		call	*(%rax)
 3843              	.LVL447:
 3844 02c4 E903FEFF 		jmp	.L318
 3844      FF
 3845              	.LVL448:
 3846              	.L325:
1072:fltk-1.3.4-1/jpeg/jdmarker.c **** 
 3847              		.loc 1 1072 5 is_stmt 0 view .LVU1219
 3848              	.LBE88:
 3849              	.LBE101:
1209:fltk-1.3.4-1/jpeg/jdmarker.c **** 		cinfo->unread_marker - (int) M_APP0]) (cinfo))
 3850              		.loc 1 1209 7 is_stmt 1 view .LVU1220
1210:fltk-1.3.4-1/jpeg/jdmarker.c **** 	return JPEG_SUSPENDED;
 3851              		.loc 1 1210 24 is_stmt 0 view .LVU1221
 3852 02c9 81E9E000 		subl	$224, %ecx
 3852      0000
1209:fltk-1.3.4-1/jpeg/jdmarker.c **** 		cinfo->unread_marker - (int) M_APP0]) (cinfo))
 3853              		.loc 1 1209 14 view .LVU1222
 3854 02cf 498B8568 		movq	616(%r13), %rax
 3854      020000
 3855 02d6 4C89EF   		movq	%r13, %rdi
 3856 02d9 4863C9   		movslq	%ecx, %rcx
 3857 02dc FF54C830 		call	*48(%rax,%rcx,8)
 3858              	.LVL449:
1209:fltk-1.3.4-1/jpeg/jdmarker.c **** 		cinfo->unread_marker - (int) M_APP0]) (cinfo))
 3859              		.loc 1 1209 10 view .LVU1223
 3860 02e0 85C0     		testl	%eax, %eax
 3861 02e2 0F8578FD 		jne	.L342
 3861      FFFF
 3862 02e8 E95DFFFF 		jmp	.L315
 3862      FF
 3863              	.L326:
1184:fltk-1.3.4-1/jpeg/jdmarker.c **** 	return JPEG_SUSPENDED;
 3864              		.loc 1 1184 7 is_stmt 1 view .LVU1224
 3865              	.LVL450:
 3866              	.LBB102:
 3867              	.LBI102:
 622:fltk-1.3.4-1/jpeg/jdmarker.c **** /* Process a DRI marker */
 3868              		.loc 1 622 1 view .LVU1225
 3869              	.LBB103:
 625:fltk-1.3.4-1/jpeg/jdmarker.c ****   unsigned int tmp;
 3870              		.loc 1 625 3 view .LVU1226
 626:fltk-1.3.4-1/jpeg/jdmarker.c ****   INPUT_VARS(cinfo);
 3871              		.loc 1 626 3 view .LVU1227
 627:fltk-1.3.4-1/jpeg/jdmarker.c **** 
 3872              		.loc 1 627 3 view .LVU1228
 3873 02ed 4D8B6528 		movq	40(%r13), %r12
 3874              	.LVL451:
 627:fltk-1.3.4-1/jpeg/jdmarker.c **** 
 3875              		.loc 1 627 3 view .LVU1229
 627:fltk-1.3.4-1/jpeg/jdmarker.c **** 
 3876              		.loc 1 627 3 view .LVU1230
 3877 02f1 498B4424 		movq	8(%r12), %rax
 3877      08
 3878              	.LVL452:
 629:fltk-1.3.4-1/jpeg/jdmarker.c ****   
 3879              		.loc 1 629 3 view .LVU1231
 629:fltk-1.3.4-1/jpeg/jdmarker.c ****   
 3880              		.loc 1 629 3 view .LVU1232
 3881 02f6 4885C0   		testq	%rax, %rax
 3882 02f9 0F844109 		je	.L419
 3882      0000
 627:fltk-1.3.4-1/jpeg/jdmarker.c **** 
 3883              		.loc 1 627 3 is_stmt 0 view .LVU1233
 3884 02ff 498B1424 		movq	(%r12), %rdx
 3885              	.LVL453:
 3886              	.L420:
 629:fltk-1.3.4-1/jpeg/jdmarker.c ****   
 3887              		.loc 1 629 3 is_stmt 1 view .LVU1234
 629:fltk-1.3.4-1/jpeg/jdmarker.c ****   
 3888              		.loc 1 629 3 view .LVU1235
 629:fltk-1.3.4-1/jpeg/jdmarker.c ****   
 3889              		.loc 1 629 3 view .LVU1236
 629:fltk-1.3.4-1/jpeg/jdmarker.c ****   
 3890              		.loc 1 629 3 is_stmt 0 view .LVU1237
 3891 0303 0FB60A   		movzbl	(%rdx), %ecx
 3892 0306 488D6A01 		leaq	1(%rdx), %rbp
 3893              	.LVL454:
 629:fltk-1.3.4-1/jpeg/jdmarker.c ****   
 3894              		.loc 1 629 3 view .LVU1238
 3895 030a C1E108   		sall	$8, %ecx
 3896 030d 4883E801 		subq	$1, %rax
 3897              	.LVL455:
 629:fltk-1.3.4-1/jpeg/jdmarker.c ****   
 3898              		.loc 1 629 3 view .LVU1239
 3899 0311 4189CE   		movl	%ecx, %r14d
 3900              	.LVL456:
 629:fltk-1.3.4-1/jpeg/jdmarker.c ****   
 3901              		.loc 1 629 3 is_stmt 1 view .LVU1240
 3902 0314 7519     		jne	.L422
 629:fltk-1.3.4-1/jpeg/jdmarker.c ****   
 3903              		.loc 1 629 3 view .LVU1241
 3904 0316 4C89EF   		movq	%r13, %rdi
 3905 0319 41FF5424 		call	*24(%r12)
 3905      18
 3906              	.LVL457:
 629:fltk-1.3.4-1/jpeg/jdmarker.c ****   
 3907              		.loc 1 629 3 is_stmt 0 view .LVU1242
 3908 031e 85C0     		testl	%eax, %eax
 3909 0320 0F8424FF 		je	.L315
 3909      FFFF
 629:fltk-1.3.4-1/jpeg/jdmarker.c ****   
 3910              		.loc 1 629 3 is_stmt 1 view .LVU1243
 3911 0326 498B2C24 		movq	(%r12), %rbp
 3912              	.LVL458:
 629:fltk-1.3.4-1/jpeg/jdmarker.c ****   
 3913              		.loc 1 629 3 is_stmt 0 view .LVU1244
 3914 032a 498B4424 		movq	8(%r12), %rax
 3914      08
 3915              	.LVL459:
 3916              	.L422:
 629:fltk-1.3.4-1/jpeg/jdmarker.c ****   
 3917              		.loc 1 629 3 is_stmt 1 view .LVU1245
 629:fltk-1.3.4-1/jpeg/jdmarker.c ****   
 3918              		.loc 1 629 3 view .LVU1246
 3919 032f 0FB64D00 		movzbl	0(%rbp), %ecx
 3920 0333 488D58FF 		leaq	-1(%rax), %rbx
 3921              	.LVL460:
 629:fltk-1.3.4-1/jpeg/jdmarker.c ****   
 3922              		.loc 1 629 3 view .LVU1247
 629:fltk-1.3.4-1/jpeg/jdmarker.c ****   
 3923              		.loc 1 629 3 view .LVU1248
 631:fltk-1.3.4-1/jpeg/jdmarker.c ****     ERREXIT(cinfo, JERR_BAD_LENGTH);
 3924              		.loc 1 631 3 view .LVU1249
 629:fltk-1.3.4-1/jpeg/jdmarker.c ****   
 3925              		.loc 1 629 3 is_stmt 0 view .LVU1250
 3926 0337 4C01F1   		addq	%r14, %rcx
 3927              	.LVL461:
 631:fltk-1.3.4-1/jpeg/jdmarker.c ****     ERREXIT(cinfo, JERR_BAD_LENGTH);
 3928              		.loc 1 631 6 view .LVU1251
 3929 033a 4883F904 		cmpq	$4, %rcx
 3930 033e 7414     		je	.L423
 632:fltk-1.3.4-1/jpeg/jdmarker.c **** 
 3931              		.loc 1 632 5 is_stmt 1 view .LVU1252
 3932 0340 498B4500 		movq	0(%r13), %rax
 3933 0344 4C89EF   		movq	%r13, %rdi
 3934 0347 C740280C 		movl	$12, 40(%rax)
 3934      000000
 3935 034e 498B4500 		movq	0(%r13), %rax
 3936 0352 FF10     		call	*(%rax)
 3937              	.LVL462:
 3938              	.L423:
 634:fltk-1.3.4-1/jpeg/jdmarker.c **** 
 3939              		.loc 1 634 3 view .LVU1253
 634:fltk-1.3.4-1/jpeg/jdmarker.c **** 
 3940              		.loc 1 634 3 view .LVU1254
 629:fltk-1.3.4-1/jpeg/jdmarker.c ****   
 3941              		.loc 1 629 3 is_stmt 0 view .LVU1255
 3942 0354 4883C501 		addq	$1, %rbp
 3943              	.LVL463:
 634:fltk-1.3.4-1/jpeg/jdmarker.c **** 
 3944              		.loc 1 634 3 view .LVU1256
 3945 0358 4885DB   		testq	%rbx, %rbx
 3946 035b 7519     		jne	.L425
 634:fltk-1.3.4-1/jpeg/jdmarker.c **** 
 3947              		.loc 1 634 3 is_stmt 1 view .LVU1257
 3948 035d 4C89EF   		movq	%r13, %rdi
 3949 0360 41FF5424 		call	*24(%r12)
 3949      18
 3950              	.LVL464:
 3951 0365 85C0     		testl	%eax, %eax
 3952 0367 0F84DDFE 		je	.L315
 3952      FFFF
 634:fltk-1.3.4-1/jpeg/jdmarker.c **** 
 3953              		.loc 1 634 3 view .LVU1258
 3954 036d 498B2C24 		movq	(%r12), %rbp
 3955              	.LVL465:
 634:fltk-1.3.4-1/jpeg/jdmarker.c **** 
 3956              		.loc 1 634 3 is_stmt 0 view .LVU1259
 3957 0371 498B5C24 		movq	8(%r12), %rbx
 3957      08
 3958              	.LVL466:
 3959              	.L425:
 634:fltk-1.3.4-1/jpeg/jdmarker.c **** 
 3960              		.loc 1 634 3 is_stmt 1 view .LVU1260
 634:fltk-1.3.4-1/jpeg/jdmarker.c **** 
 3961              		.loc 1 634 3 view .LVU1261
 634:fltk-1.3.4-1/jpeg/jdmarker.c **** 
 3962              		.loc 1 634 3 view .LVU1262
 634:fltk-1.3.4-1/jpeg/jdmarker.c **** 
 3963              		.loc 1 634 3 is_stmt 0 view .LVU1263
 3964 0376 0FB64500 		movzbl	0(%rbp), %eax
 3965 037a C1E008   		sall	$8, %eax
 3966 037d 4189C6   		movl	%eax, %r14d
 3967              	.LVL467:
 634:fltk-1.3.4-1/jpeg/jdmarker.c **** 
 3968              		.loc 1 634 3 is_stmt 1 view .LVU1264
 3969 0380 4883EB01 		subq	$1, %rbx
 3970              	.LVL468:
 634:fltk-1.3.4-1/jpeg/jdmarker.c **** 
 3971              		.loc 1 634 3 is_stmt 0 view .LVU1265
 3972 0384 0F858E09 		jne	.L714
 3972      0000
 634:fltk-1.3.4-1/jpeg/jdmarker.c **** 
 3973              		.loc 1 634 3 is_stmt 1 view .LVU1266
 3974 038a 4C89EF   		movq	%r13, %rdi
 3975 038d 41FF5424 		call	*24(%r12)
 3975      18
 3976              	.LVL469:
 634:fltk-1.3.4-1/jpeg/jdmarker.c **** 
 3977              		.loc 1 634 3 is_stmt 0 view .LVU1267
 3978 0392 85C0     		testl	%eax, %eax
 3979 0394 0F84B0FE 		je	.L315
 3979      FFFF
 634:fltk-1.3.4-1/jpeg/jdmarker.c **** 
 3980              		.loc 1 634 3 is_stmt 1 view .LVU1268
 3981 039a 498B2C24 		movq	(%r12), %rbp
 3982              	.LVL470:
 634:fltk-1.3.4-1/jpeg/jdmarker.c **** 
 3983              		.loc 1 634 3 is_stmt 0 view .LVU1269
 3984 039e 498B5C24 		movq	8(%r12), %rbx
 3984      08
 3985              	.LVL471:
 634:fltk-1.3.4-1/jpeg/jdmarker.c **** 
 3986              		.loc 1 634 3 view .LVU1270
 3987 03a3 E9740900 		jmp	.L427
 3987      00
 3988              	.LVL472:
 3989              	.L327:
 634:fltk-1.3.4-1/jpeg/jdmarker.c **** 
 3990              		.loc 1 634 3 view .LVU1271
 3991              	.LBE103:
 3992              	.LBE102:
1232:fltk-1.3.4-1/jpeg/jdmarker.c **** 	return JPEG_SUSPENDED;
 3993              		.loc 1 1232 7 is_stmt 1 view .LVU1272
1232:fltk-1.3.4-1/jpeg/jdmarker.c **** 	return JPEG_SUSPENDED;
 3994              		.loc 1 1232 13 is_stmt 0 view .LVU1273
 3995 03a8 4C89EF   		movq	%r13, %rdi
 3996 03ab E8000000 		call	skip_variable
 3996      00
 3997              	.LVL473:
1232:fltk-1.3.4-1/jpeg/jdmarker.c **** 	return JPEG_SUSPENDED;
 3998              		.loc 1 1232 10 view .LVU1274
 3999 03b0 85C0     		testl	%eax, %eax
 4000 03b2 0F85A8FC 		jne	.L342
 4000      FFFF
 4001 03b8 E98DFEFF 		jmp	.L315
 4001      FF
 4002              	.L328:
1179:fltk-1.3.4-1/jpeg/jdmarker.c **** 	return JPEG_SUSPENDED;
 4003              		.loc 1 1179 7 is_stmt 1 view .LVU1275
 4004              	.LVL474:
 4005              	.LBB106:
 4006              	.LBI106:
 532:fltk-1.3.4-1/jpeg/jdmarker.c **** /* Process a DQT marker */
 4007              		.loc 1 532 1 view .LVU1276
 4008              	.LBB107:
 535:fltk-1.3.4-1/jpeg/jdmarker.c ****   int n, prec;
 4009              		.loc 1 535 3 view .LVU1277
 536:fltk-1.3.4-1/jpeg/jdmarker.c ****   unsigned int tmp;
 4010              		.loc 1 536 3 view .LVU1278
 537:fltk-1.3.4-1/jpeg/jdmarker.c ****   JQUANT_TBL *quant_ptr;
 4011              		.loc 1 537 3 view .LVU1279
 538:fltk-1.3.4-1/jpeg/jdmarker.c ****   const int *natural_order;
 4012              		.loc 1 538 3 view .LVU1280
 539:fltk-1.3.4-1/jpeg/jdmarker.c ****   INPUT_VARS(cinfo);
 4013              		.loc 1 539 3 view .LVU1281
 540:fltk-1.3.4-1/jpeg/jdmarker.c **** 
 4014              		.loc 1 540 3 view .LVU1282
 4015 03bd 4D8B7528 		movq	40(%r13), %r14
 4016              	.LVL475:
 540:fltk-1.3.4-1/jpeg/jdmarker.c **** 
 4017              		.loc 1 540 3 view .LVU1283
 540:fltk-1.3.4-1/jpeg/jdmarker.c **** 
 4018              		.loc 1 540 3 view .LVU1284
 4019 03c1 498B5608 		movq	8(%r14), %rdx
 4020              	.LVL476:
 542:fltk-1.3.4-1/jpeg/jdmarker.c ****   length -= 2;
 4021              		.loc 1 542 3 view .LVU1285
 542:fltk-1.3.4-1/jpeg/jdmarker.c ****   length -= 2;
 4022              		.loc 1 542 3 view .LVU1286
 4023 03c5 4885D2   		testq	%rdx, %rdx
 4024 03c8 0F849208 		je	.L386
 4024      0000
 540:fltk-1.3.4-1/jpeg/jdmarker.c **** 
 4025              		.loc 1 540 3 is_stmt 0 view .LVU1287
 4026 03ce 498B0E   		movq	(%r14), %rcx
 542:fltk-1.3.4-1/jpeg/jdmarker.c ****   length -= 2;
 4027              		.loc 1 542 3 is_stmt 1 view .LVU1288
 542:fltk-1.3.4-1/jpeg/jdmarker.c ****   length -= 2;
 4028              		.loc 1 542 3 view .LVU1289
 4029              	.LVL477:
 542:fltk-1.3.4-1/jpeg/jdmarker.c ****   length -= 2;
 4030              		.loc 1 542 3 view .LVU1290
 542:fltk-1.3.4-1/jpeg/jdmarker.c ****   length -= 2;
 4031              		.loc 1 542 3 is_stmt 0 view .LVU1291
 4032 03d1 0FB601   		movzbl	(%rcx), %eax
 4033 03d4 C1E008   		sall	$8, %eax
 4034 03d7 89C3     		movl	%eax, %ebx
 4035              	.LVL478:
 542:fltk-1.3.4-1/jpeg/jdmarker.c ****   length -= 2;
 4036              		.loc 1 542 3 is_stmt 1 view .LVU1292
 4037 03d9 4883EA01 		subq	$1, %rdx
 4038              	.LVL479:
 542:fltk-1.3.4-1/jpeg/jdmarker.c ****   length -= 2;
 4039              		.loc 1 542 3 is_stmt 0 view .LVU1293
 4040 03dd 0F84A508 		je	.L388
 4040      0000
 4041              	.LVL480:
 4042              	.L723:
 542:fltk-1.3.4-1/jpeg/jdmarker.c ****   length -= 2;
 4043              		.loc 1 542 3 view .LVU1294
 4044 03e3 4883C101 		addq	$1, %rcx
 4045              	.L389:
 4046              	.LVL481:
 542:fltk-1.3.4-1/jpeg/jdmarker.c ****   length -= 2;
 4047              		.loc 1 542 3 is_stmt 1 view .LVU1295
 542:fltk-1.3.4-1/jpeg/jdmarker.c ****   length -= 2;
 4048              		.loc 1 542 3 view .LVU1296
 4049 03e7 488D4101 		leaq	1(%rcx), %rax
 4050 03eb 0FB609   		movzbl	(%rcx), %ecx
 4051              	.LVL482:
 542:fltk-1.3.4-1/jpeg/jdmarker.c ****   length -= 2;
 4052              		.loc 1 542 3 is_stmt 0 view .LVU1297
 4053 03ee 4883EA01 		subq	$1, %rdx
 4054              	.LVL483:
 542:fltk-1.3.4-1/jpeg/jdmarker.c ****   length -= 2;
 4055              		.loc 1 542 3 is_stmt 1 view .LVU1298
 542:fltk-1.3.4-1/jpeg/jdmarker.c ****   length -= 2;
 4056              		.loc 1 542 3 view .LVU1299
 543:fltk-1.3.4-1/jpeg/jdmarker.c **** 
 4057              		.loc 1 543 3 view .LVU1300
 543:fltk-1.3.4-1/jpeg/jdmarker.c **** 
 4058              		.loc 1 543 10 is_stmt 0 view .LVU1301
 4059 03f2 488D740B 		leaq	-2(%rbx,%rcx), %rsi
 4059      FE
 4060              	.LVL484:
 545:fltk-1.3.4-1/jpeg/jdmarker.c ****     length--;
 4061              		.loc 1 545 3 is_stmt 1 view .LVU1302
 545:fltk-1.3.4-1/jpeg/jdmarker.c ****     length--;
 4062              		.loc 1 545 9 view .LVU1303
 4063 03f7 4885F6   		testq	%rsi, %rsi
 4064 03fa 0F8EF709 		jle	.L390
 4064      0000
 586:fltk-1.3.4-1/jpeg/jdmarker.c ****     default:    natural_order = jpeg_natural_order;  break;
 4065              		.loc 1 586 31 is_stmt 0 view .LVU1304
 4066 0400 4D89EF   		movq	%r13, %r15
 4067 0403 4D89F5   		movq	%r14, %r13
 4068              	.LVL485:
 4069              	.L417:
 546:fltk-1.3.4-1/jpeg/jdmarker.c ****     INPUT_BYTE(cinfo, n, return FALSE);
 4070              		.loc 1 546 5 is_stmt 1 view .LVU1305
 546:fltk-1.3.4-1/jpeg/jdmarker.c ****     INPUT_BYTE(cinfo, n, return FALSE);
 4071              		.loc 1 546 11 is_stmt 0 view .LVU1306
 4072 0406 4883EE01 		subq	$1, %rsi
 4073              	.LVL486:
 546:fltk-1.3.4-1/jpeg/jdmarker.c ****     INPUT_BYTE(cinfo, n, return FALSE);
 4074              		.loc 1 546 11 view .LVU1307
 4075 040a 48897424 		movq	%rsi, 16(%rsp)
 4075      10
 4076              	.LVL487:
 547:fltk-1.3.4-1/jpeg/jdmarker.c ****     prec = n >> 4;
 4077              		.loc 1 547 5 is_stmt 1 view .LVU1308
 547:fltk-1.3.4-1/jpeg/jdmarker.c ****     prec = n >> 4;
 4078              		.loc 1 547 5 view .LVU1309
 4079 040f 4885D2   		testq	%rdx, %rdx
 4080 0412 7517     		jne	.L391
 547:fltk-1.3.4-1/jpeg/jdmarker.c ****     prec = n >> 4;
 4081              		.loc 1 547 5 view .LVU1310
 4082 0414 4C89FF   		movq	%r15, %rdi
 4083 0417 41FF5518 		call	*24(%r13)
 4084              	.LVL488:
 547:fltk-1.3.4-1/jpeg/jdmarker.c ****     prec = n >> 4;
 4085              		.loc 1 547 5 is_stmt 0 view .LVU1311
 4086 041b 85C0     		testl	%eax, %eax
 4087 041d 0F8427FE 		je	.L315
 4087      FFFF
 547:fltk-1.3.4-1/jpeg/jdmarker.c ****     prec = n >> 4;
 4088              		.loc 1 547 5 is_stmt 1 view .LVU1312
 4089 0423 498B4500 		movq	0(%r13), %rax
 4090              	.LVL489:
 547:fltk-1.3.4-1/jpeg/jdmarker.c ****     prec = n >> 4;
 4091              		.loc 1 547 5 is_stmt 0 view .LVU1313
 4092 0427 498B5508 		movq	8(%r13), %rdx
 4093              	.LVL490:
 4094              	.L391:
 547:fltk-1.3.4-1/jpeg/jdmarker.c ****     prec = n >> 4;
 4095              		.loc 1 547 5 is_stmt 1 view .LVU1314
 547:fltk-1.3.4-1/jpeg/jdmarker.c ****     prec = n >> 4;
 4096              		.loc 1 547 5 view .LVU1315
 4097 042b 0FB628   		movzbl	(%rax), %ebp
 4098 042e 4C8D7001 		leaq	1(%rax), %r14
 4099 0432 4883EA01 		subq	$1, %rdx
 4100              	.LVL491:
 547:fltk-1.3.4-1/jpeg/jdmarker.c ****     prec = n >> 4;
 4101              		.loc 1 547 5 view .LVU1316
 551:fltk-1.3.4-1/jpeg/jdmarker.c **** 
 4102              		.loc 1 551 5 is_stmt 0 view .LVU1317
 4103 0436 BE010000 		movl	$1, %esi
 4103      00
 547:fltk-1.3.4-1/jpeg/jdmarker.c ****     prec = n >> 4;
 4104              		.loc 1 547 5 view .LVU1318
 4105 043b 48895424 		movq	%rdx, 8(%rsp)
 4105      08
 551:fltk-1.3.4-1/jpeg/jdmarker.c **** 
 4106              		.loc 1 551 5 view .LVU1319
 4107 0440 4C89FF   		movq	%r15, %rdi
 547:fltk-1.3.4-1/jpeg/jdmarker.c ****     prec = n >> 4;
 4108              		.loc 1 547 5 view .LVU1320
 4109 0443 4189EC   		movl	%ebp, %r12d
 4110              	.LVL492:
 547:fltk-1.3.4-1/jpeg/jdmarker.c ****     prec = n >> 4;
 4111              		.loc 1 547 5 is_stmt 1 view .LVU1321
 548:fltk-1.3.4-1/jpeg/jdmarker.c ****     n &= 0x0F;
 4112              		.loc 1 548 5 view .LVU1322
 548:fltk-1.3.4-1/jpeg/jdmarker.c ****     n &= 0x0F;
 4113              		.loc 1 548 10 is_stmt 0 view .LVU1323
 4114 0446 C1FD04   		sarl	$4, %ebp
 4115              	.LVL493:
 549:fltk-1.3.4-1/jpeg/jdmarker.c **** 
 4116              		.loc 1 549 5 is_stmt 1 view .LVU1324
 4117 0449 4489E0   		movl	%r12d, %eax
 549:fltk-1.3.4-1/jpeg/jdmarker.c **** 
 4118              		.loc 1 549 7 is_stmt 0 view .LVU1325
 4119 044c 4489E3   		movl	%r12d, %ebx
 4120 044f 83E00F   		andl	$15, %eax
 4121 0452 83E30F   		andl	$15, %ebx
 4122 0455 880424   		movb	%al, (%rsp)
 4123              	.LVL494:
 551:fltk-1.3.4-1/jpeg/jdmarker.c **** 
 4124              		.loc 1 551 5 is_stmt 1 view .LVU1326
 4125 0458 498B07   		movq	(%r15), %rax
 4126              	.LVL495:
 551:fltk-1.3.4-1/jpeg/jdmarker.c **** 
 4127              		.loc 1 551 5 is_stmt 0 view .LVU1327
 4128 045b C7402853 		movl	$83, 40(%rax)
 4128      000000
 4129 0462 498B07   		movq	(%r15), %rax
 4130 0465 89582C   		movl	%ebx, 44(%rax)
 4131 0468 498B07   		movq	(%r15), %rax
 4132 046b 896830   		movl	%ebp, 48(%rax)
 4133 046e 498B07   		movq	(%r15), %rax
 4134 0471 FF5008   		call	*8(%rax)
 4135              	.LVL496:
 553:fltk-1.3.4-1/jpeg/jdmarker.c ****       ERREXIT1(cinfo, JERR_DQT_INDEX, n);
 4136              		.loc 1 553 5 is_stmt 1 view .LVU1328
 553:fltk-1.3.4-1/jpeg/jdmarker.c ****       ERREXIT1(cinfo, JERR_DQT_INDEX, n);
 4137              		.loc 1 553 8 is_stmt 0 view .LVU1329
 4138 0474 4183E40C 		andl	$12, %r12d
 4139 0478 488B5424 		movq	8(%rsp), %rdx
 4139      08
 4140 047d 741D     		je	.L392
 554:fltk-1.3.4-1/jpeg/jdmarker.c ****       
 4141              		.loc 1 554 7 is_stmt 1 view .LVU1330
 4142 047f 498B07   		movq	(%r15), %rax
 4143 0482 4C89FF   		movq	%r15, %rdi
 4144 0485 C7402820 		movl	$32, 40(%rax)
 4144      000000
 4145 048c 498B07   		movq	(%r15), %rax
 4146 048f 89582C   		movl	%ebx, 44(%rax)
 4147 0492 498B07   		movq	(%r15), %rax
 4148 0495 FF10     		call	*(%rax)
 4149              	.LVL497:
 4150 0497 488B5424 		movq	8(%rsp), %rdx
 4150      08
 4151              	.L392:
 556:fltk-1.3.4-1/jpeg/jdmarker.c ****       cinfo->quant_tbl_ptrs[n] = jpeg_alloc_quant_table((j_common_ptr) cinfo);
 4152              		.loc 1 556 5 view .LVU1331
 4153 049c 0FB61C24 		movzbl	(%rsp), %ebx
 4154 04a0 4D8D24DF 		leaq	(%r15,%rbx,8), %r12
 556:fltk-1.3.4-1/jpeg/jdmarker.c ****       cinfo->quant_tbl_ptrs[n] = jpeg_alloc_quant_table((j_common_ptr) cinfo);
 4155              		.loc 1 556 30 is_stmt 0 view .LVU1332
 4156 04a4 498B9C24 		movq	200(%r12), %rbx
 4156      C8000000 
 556:fltk-1.3.4-1/jpeg/jdmarker.c ****       cinfo->quant_tbl_ptrs[n] = jpeg_alloc_quant_table((j_common_ptr) cinfo);
 4157              		.loc 1 556 8 view .LVU1333
 4158 04ac 4885DB   		testq	%rbx, %rbx
 4159 04af 0F84030B 		je	.L715
 4159      0000
 4160              	.LVL498:
 4161              	.L393:
 558:fltk-1.3.4-1/jpeg/jdmarker.c **** 
 4162              		.loc 1 558 5 is_stmt 1 view .LVU1334
 560:fltk-1.3.4-1/jpeg/jdmarker.c ****       if (length < DCTSIZE2 * 2) {
 4163              		.loc 1 560 5 view .LVU1335
 568:fltk-1.3.4-1/jpeg/jdmarker.c ****     } else {
 4164              		.loc 1 568 8 is_stmt 0 view .LVU1336
 4165 04b5 48C70424 		movq	$64, (%rsp)
 4165      40000000 
 587:fltk-1.3.4-1/jpeg/jdmarker.c ****     }
 4166              		.loc 1 587 31 view .LVU1337
 4167 04bd 4C8D2500 		leaq	jpeg_natural_order(%rip), %r12
 4167      000000
 560:fltk-1.3.4-1/jpeg/jdmarker.c ****       if (length < DCTSIZE2 * 2) {
 4168              		.loc 1 560 8 view .LVU1338
 4169 04c4 85ED     		testl	%ebp, %ebp
 4170 04c6 0F846409 		je	.L394
 4170      0000
 561:fltk-1.3.4-1/jpeg/jdmarker.c **** 	/* Initialize full table for safety. */
 4171              		.loc 1 561 7 is_stmt 1 view .LVU1339
 561:fltk-1.3.4-1/jpeg/jdmarker.c **** 	/* Initialize full table for safety. */
 4172              		.loc 1 561 10 is_stmt 0 view .LVU1340
 4173 04cc 48837C24 		cmpq	$127, 16(%rsp)
 4173      107F
 4174 04d2 0F8E780E 		jle	.L716
 4174      0000
 4175              	.LVL499:
 4176              	.L395:
 590:fltk-1.3.4-1/jpeg/jdmarker.c ****       if (prec)
 4177              		.loc 1 590 12 view .LVU1341
 4178 04d8 4C89EE   		movq	%r13, %rsi
 547:fltk-1.3.4-1/jpeg/jdmarker.c ****     prec = n >> 4;
 4179              		.loc 1 547 5 view .LVU1342
 4180 04db 4C89F0   		movq	%r14, %rax
 590:fltk-1.3.4-1/jpeg/jdmarker.c ****       if (prec)
 4181              		.loc 1 590 12 view .LVU1343
 4182 04de 4531F6   		xorl	%r14d, %r14d
 4183 04e1 4D89F5   		movq	%r14, %r13
 4184              	.LVL500:
 590:fltk-1.3.4-1/jpeg/jdmarker.c ****       if (prec)
 4185              		.loc 1 590 12 view .LVU1344
 4186 04e4 4989F6   		movq	%rsi, %r14
 4187 04e7 EB78     		jmp	.L413
 4188              	.LVL501:
 4189 04e9 0F1F8000 		.p2align 4,,10
 4189      000000
 4190              		.p2align 3
 4191              	.L718:
 592:fltk-1.3.4-1/jpeg/jdmarker.c ****       else
 4192              		.loc 1 592 2 is_stmt 1 view .LVU1345
 592:fltk-1.3.4-1/jpeg/jdmarker.c ****       else
 4193              		.loc 1 592 2 view .LVU1346
 4194 04f0 4885D2   		testq	%rdx, %rdx
 4195 04f3 7516     		jne	.L408
 592:fltk-1.3.4-1/jpeg/jdmarker.c ****       else
 4196              		.loc 1 592 2 view .LVU1347
 4197 04f5 4C89FF   		movq	%r15, %rdi
 4198 04f8 41FF5618 		call	*24(%r14)
 4199              	.LVL502:
 592:fltk-1.3.4-1/jpeg/jdmarker.c ****       else
 4200              		.loc 1 592 2 is_stmt 0 view .LVU1348
 4201 04fc 85C0     		testl	%eax, %eax
 4202 04fe 0F8446FD 		je	.L315
 4202      FFFF
 592:fltk-1.3.4-1/jpeg/jdmarker.c ****       else
 4203              		.loc 1 592 2 is_stmt 1 view .LVU1349
 4204 0504 498B06   		movq	(%r14), %rax
 4205              	.LVL503:
 592:fltk-1.3.4-1/jpeg/jdmarker.c ****       else
 4206              		.loc 1 592 2 is_stmt 0 view .LVU1350
 4207 0507 498B5608 		movq	8(%r14), %rdx
 4208              	.LVL504:
 4209              	.L408:
 592:fltk-1.3.4-1/jpeg/jdmarker.c ****       else
 4210              		.loc 1 592 2 is_stmt 1 view .LVU1351
 592:fltk-1.3.4-1/jpeg/jdmarker.c ****       else
 4211              		.loc 1 592 2 view .LVU1352
 592:fltk-1.3.4-1/jpeg/jdmarker.c ****       else
 4212              		.loc 1 592 2 view .LVU1353
 592:fltk-1.3.4-1/jpeg/jdmarker.c ****       else
 4213              		.loc 1 592 2 is_stmt 0 view .LVU1354
 4214 050b 0FB608   		movzbl	(%rax), %ecx
 4215 050e 488D7801 		leaq	1(%rax), %rdi
 4216              	.LVL505:
 592:fltk-1.3.4-1/jpeg/jdmarker.c ****       else
 4217              		.loc 1 592 2 view .LVU1355
 4218 0512 C1E108   		sall	$8, %ecx
 4219 0515 4883EA01 		subq	$1, %rdx
 4220              	.LVL506:
 592:fltk-1.3.4-1/jpeg/jdmarker.c ****       else
 4221              		.loc 1 592 2 view .LVU1356
 4222 0519 4189C8   		movl	%ecx, %r8d
 4223              	.LVL507:
 592:fltk-1.3.4-1/jpeg/jdmarker.c ****       else
 4224              		.loc 1 592 2 is_stmt 1 view .LVU1357
 4225 051c 751F     		jne	.L410
 4226 051e 894C2408 		movl	%ecx, 8(%rsp)
 592:fltk-1.3.4-1/jpeg/jdmarker.c ****       else
 4227              		.loc 1 592 2 view .LVU1358
 4228 0522 4C89FF   		movq	%r15, %rdi
 4229              	.LVL508:
 592:fltk-1.3.4-1/jpeg/jdmarker.c ****       else
 4230              		.loc 1 592 2 is_stmt 0 view .LVU1359
 4231 0525 41FF5618 		call	*24(%r14)
 4232              	.LVL509:
 592:fltk-1.3.4-1/jpeg/jdmarker.c ****       else
 4233              		.loc 1 592 2 view .LVU1360
 4234 0529 85C0     		testl	%eax, %eax
 4235 052b 0F8419FD 		je	.L315
 4235      FFFF
 592:fltk-1.3.4-1/jpeg/jdmarker.c ****       else
 4236              		.loc 1 592 2 is_stmt 1 view .LVU1361
 4237 0531 498B3E   		movq	(%r14), %rdi
 4238              	.LVL510:
 592:fltk-1.3.4-1/jpeg/jdmarker.c ****       else
 4239              		.loc 1 592 2 is_stmt 0 view .LVU1362
 4240 0534 498B5608 		movq	8(%r14), %rdx
 4241 0538 448B4424 		movl	8(%rsp), %r8d
 4241      08
 4242              	.LVL511:
 4243              	.L410:
 592:fltk-1.3.4-1/jpeg/jdmarker.c ****       else
 4244              		.loc 1 592 2 is_stmt 1 view .LVU1363
 592:fltk-1.3.4-1/jpeg/jdmarker.c ****       else
 4245              		.loc 1 592 2 view .LVU1364
 4246 053d 0FB60F   		movzbl	(%rdi), %ecx
 4247 0540 4883EA01 		subq	$1, %rdx
 4248              	.LVL512:
 592:fltk-1.3.4-1/jpeg/jdmarker.c ****       else
 4249              		.loc 1 592 2 view .LVU1365
 4250 0544 488D4701 		leaq	1(%rdi), %rax
 4251              	.LVL513:
 592:fltk-1.3.4-1/jpeg/jdmarker.c ****       else
 4252              		.loc 1 592 2 is_stmt 0 view .LVU1366
 4253 0548 4401C1   		addl	%r8d, %ecx
 4254              	.LVL514:
 592:fltk-1.3.4-1/jpeg/jdmarker.c ****       else
 4255              		.loc 1 592 2 is_stmt 1 view .LVU1367
 4256              	.L411:
 594:fltk-1.3.4-1/jpeg/jdmarker.c ****       /* We convert the zigzag-order table to natural array order. */
 4257              		.loc 1 594 2 view .LVU1368
 596:fltk-1.3.4-1/jpeg/jdmarker.c ****     }
 4258              		.loc 1 596 7 view .LVU1369
 596:fltk-1.3.4-1/jpeg/jdmarker.c ****     }
 4259              		.loc 1 596 45 is_stmt 0 view .LVU1370
 4260 054b 4B633CAC 		movslq	(%r12,%r13,4), %rdi
 590:fltk-1.3.4-1/jpeg/jdmarker.c ****       if (prec)
 4261              		.loc 1 590 29 view .LVU1371
 4262 054f 4983C501 		addq	$1, %r13
 4263              	.LVL515:
 596:fltk-1.3.4-1/jpeg/jdmarker.c ****     }
 4264              		.loc 1 596 47 view .LVU1372
 4265 0553 66890C7B 		movw	%cx, (%rbx,%rdi,2)
 590:fltk-1.3.4-1/jpeg/jdmarker.c ****       if (prec)
 4266              		.loc 1 590 28 is_stmt 1 view .LVU1373
 4267              	.LVL516:
 590:fltk-1.3.4-1/jpeg/jdmarker.c ****       if (prec)
 4268              		.loc 1 590 17 view .LVU1374
 590:fltk-1.3.4-1/jpeg/jdmarker.c ****       if (prec)
 4269              		.loc 1 590 5 is_stmt 0 view .LVU1375
 4270 0557 4C392C24 		cmpq	%r13, (%rsp)
 4271 055b 0F8E5F08 		jle	.L717
 4271      0000
 4272              	.LVL517:
 4273              	.L413:
 591:fltk-1.3.4-1/jpeg/jdmarker.c **** 	INPUT_2BYTES(cinfo, tmp, return FALSE);
 4274              		.loc 1 591 7 is_stmt 1 view .LVU1376
 591:fltk-1.3.4-1/jpeg/jdmarker.c **** 	INPUT_2BYTES(cinfo, tmp, return FALSE);
 4275              		.loc 1 591 10 is_stmt 0 view .LVU1377
 4276 0561 85ED     		testl	%ebp, %ebp
 4277 0563 758B     		jne	.L718
 594:fltk-1.3.4-1/jpeg/jdmarker.c ****       /* We convert the zigzag-order table to natural array order. */
 4278              		.loc 1 594 2 is_stmt 1 view .LVU1378
 594:fltk-1.3.4-1/jpeg/jdmarker.c ****       /* We convert the zigzag-order table to natural array order. */
 4279              		.loc 1 594 2 view .LVU1379
 4280 0565 4885D2   		testq	%rdx, %rdx
 4281 0568 7516     		jne	.L412
 594:fltk-1.3.4-1/jpeg/jdmarker.c ****       /* We convert the zigzag-order table to natural array order. */
 4282              		.loc 1 594 2 view .LVU1380
 4283 056a 4C89FF   		movq	%r15, %rdi
 4284 056d 41FF5618 		call	*24(%r14)
 4285              	.LVL518:
 594:fltk-1.3.4-1/jpeg/jdmarker.c ****       /* We convert the zigzag-order table to natural array order. */
 4286              		.loc 1 594 2 is_stmt 0 view .LVU1381
 4287 0571 85C0     		testl	%eax, %eax
 4288 0573 0F84D1FC 		je	.L315
 4288      FFFF
 594:fltk-1.3.4-1/jpeg/jdmarker.c ****       /* We convert the zigzag-order table to natural array order. */
 4289              		.loc 1 594 2 is_stmt 1 view .LVU1382
 4290 0579 498B06   		movq	(%r14), %rax
 4291              	.LVL519:
 594:fltk-1.3.4-1/jpeg/jdmarker.c ****       /* We convert the zigzag-order table to natural array order. */
 4292              		.loc 1 594 2 is_stmt 0 view .LVU1383
 4293 057c 498B5608 		movq	8(%r14), %rdx
 4294              	.LVL520:
 4295              	.L412:
 594:fltk-1.3.4-1/jpeg/jdmarker.c ****       /* We convert the zigzag-order table to natural array order. */
 4296              		.loc 1 594 2 is_stmt 1 view .LVU1384
 594:fltk-1.3.4-1/jpeg/jdmarker.c ****       /* We convert the zigzag-order table to natural array order. */
 4297              		.loc 1 594 2 view .LVU1385
 4298 0580 0FB608   		movzbl	(%rax), %ecx
 4299 0583 4883EA01 		subq	$1, %rdx
 4300              	.LVL521:
 594:fltk-1.3.4-1/jpeg/jdmarker.c ****       /* We convert the zigzag-order table to natural array order. */
 4301              		.loc 1 594 2 view .LVU1386
 594:fltk-1.3.4-1/jpeg/jdmarker.c ****       /* We convert the zigzag-order table to natural array order. */
 4302              		.loc 1 594 2 is_stmt 0 view .LVU1387
 4303 0587 4883C001 		addq	$1, %rax
 4304              	.LVL522:
 594:fltk-1.3.4-1/jpeg/jdmarker.c ****       /* We convert the zigzag-order table to natural array order. */
 4305              		.loc 1 594 2 view .LVU1388
 4306 058b EBBE     		jmp	.L411
 4307              	.LVL523:
 4308              	.L329:
 594:fltk-1.3.4-1/jpeg/jdmarker.c ****       /* We convert the zigzag-order table to natural array order. */
 4309              		.loc 1 594 2 view .LVU1389
 4310              	.LBE107:
 4311              	.LBE106:
1158:fltk-1.3.4-1/jpeg/jdmarker.c **** 	return JPEG_SUSPENDED;
 4312              		.loc 1 1158 7 is_stmt 1 view .LVU1390
 4313              	.LBB114:
 4314              	.LBI114:
 322:fltk-1.3.4-1/jpeg/jdmarker.c **** /* Process a SOS marker */
 4315              		.loc 1 322 1 view .LVU1391
 4316              	.LBB115:
 325:fltk-1.3.4-1/jpeg/jdmarker.c ****   int c, ci, i, n;
 4317              		.loc 1 325 3 view .LVU1392
 326:fltk-1.3.4-1/jpeg/jdmarker.c ****   jpeg_component_info * compptr;
 4318              		.loc 1 326 3 view .LVU1393
 327:fltk-1.3.4-1/jpeg/jdmarker.c ****   INPUT_VARS(cinfo);
 4319              		.loc 1 327 3 view .LVU1394
 328:fltk-1.3.4-1/jpeg/jdmarker.c **** 
 4320              		.loc 1 328 3 view .LVU1395
 330:fltk-1.3.4-1/jpeg/jdmarker.c ****     ERREXITS(cinfo, JERR_SOF_BEFORE, "SOS");
 4321              		.loc 1 330 22 is_stmt 0 view .LVU1396
 4322 058d 498B8568 		movq	616(%r13), %rax
 4322      020000
 328:fltk-1.3.4-1/jpeg/jdmarker.c **** 
 4323              		.loc 1 328 3 view .LVU1397
 4324 0594 498B6D28 		movq	40(%r13), %rbp
 4325              	.LVL524:
 328:fltk-1.3.4-1/jpeg/jdmarker.c **** 
 4326              		.loc 1 328 3 is_stmt 1 view .LVU1398
 330:fltk-1.3.4-1/jpeg/jdmarker.c ****     ERREXITS(cinfo, JERR_SOF_BEFORE, "SOS");
 4327              		.loc 1 330 6 is_stmt 0 view .LVU1399
 4328 0598 448B581C 		movl	28(%rax), %r11d
 328:fltk-1.3.4-1/jpeg/jdmarker.c **** 
 4329              		.loc 1 328 3 view .LVU1400
 4330 059c 4C8B6500 		movq	0(%rbp), %r12
 4331              	.LVL525:
 328:fltk-1.3.4-1/jpeg/jdmarker.c **** 
 4332              		.loc 1 328 3 is_stmt 1 view .LVU1401
 4333 05a0 488B5D08 		movq	8(%rbp), %rbx
 4334              	.LVL526:
 330:fltk-1.3.4-1/jpeg/jdmarker.c ****     ERREXITS(cinfo, JERR_SOF_BEFORE, "SOS");
 4335              		.loc 1 330 3 view .LVU1402
 330:fltk-1.3.4-1/jpeg/jdmarker.c ****     ERREXITS(cinfo, JERR_SOF_BEFORE, "SOS");
 4336              		.loc 1 330 6 is_stmt 0 view .LVU1403
 4337 05a4 4585DB   		testl	%r11d, %r11d
 4338 05a7 0F842B09 		je	.L719
 4338      0000
 4339              	.L344:
 333:fltk-1.3.4-1/jpeg/jdmarker.c **** 
 4340              		.loc 1 333 3 is_stmt 1 view .LVU1404
 333:fltk-1.3.4-1/jpeg/jdmarker.c **** 
 4341              		.loc 1 333 3 view .LVU1405
 4342 05ad 4885DB   		testq	%rbx, %rbx
 4343 05b0 7516     		jne	.L345
 333:fltk-1.3.4-1/jpeg/jdmarker.c **** 
 4344              		.loc 1 333 3 view .LVU1406
 4345 05b2 4C89EF   		movq	%r13, %rdi
 4346 05b5 FF5518   		call	*24(%rbp)
 4347              	.LVL527:
 4348 05b8 85C0     		testl	%eax, %eax
 4349 05ba 0F848AFC 		je	.L315
 4349      FFFF
 333:fltk-1.3.4-1/jpeg/jdmarker.c **** 
 4350              		.loc 1 333 3 view .LVU1407
 4351 05c0 4C8B6500 		movq	0(%rbp), %r12
 4352              	.LVL528:
 333:fltk-1.3.4-1/jpeg/jdmarker.c **** 
 4353              		.loc 1 333 3 is_stmt 0 view .LVU1408
 4354 05c4 488B5D08 		movq	8(%rbp), %rbx
 4355              	.LVL529:
 4356              	.L345:
 333:fltk-1.3.4-1/jpeg/jdmarker.c **** 
 4357              		.loc 1 333 3 is_stmt 1 view .LVU1409
 333:fltk-1.3.4-1/jpeg/jdmarker.c **** 
 4358              		.loc 1 333 3 view .LVU1410
 333:fltk-1.3.4-1/jpeg/jdmarker.c **** 
 4359              		.loc 1 333 3 view .LVU1411
 333:fltk-1.3.4-1/jpeg/jdmarker.c **** 
 4360              		.loc 1 333 3 is_stmt 0 view .LVU1412
 4361 05c8 450FB634 		movzbl	(%r12), %r14d
 4361      24
 4362 05cd 41C1E608 		sall	$8, %r14d
 4363              	.LVL530:
 333:fltk-1.3.4-1/jpeg/jdmarker.c **** 
 4364              		.loc 1 333 3 is_stmt 1 view .LVU1413
 4365 05d1 4883EB01 		subq	$1, %rbx
 4366              	.LVL531:
 333:fltk-1.3.4-1/jpeg/jdmarker.c **** 
 4367              		.loc 1 333 3 is_stmt 0 view .LVU1414
 4368 05d5 0F841D07 		je	.L346
 4368      0000
 333:fltk-1.3.4-1/jpeg/jdmarker.c **** 
 4369              		.loc 1 333 3 view .LVU1415
 4370 05db 4983C401 		addq	$1, %r12
 4371              	.LVL532:
 4372              	.L347:
 333:fltk-1.3.4-1/jpeg/jdmarker.c **** 
 4373              		.loc 1 333 3 is_stmt 1 view .LVU1416
 333:fltk-1.3.4-1/jpeg/jdmarker.c **** 
 4374              		.loc 1 333 3 view .LVU1417
 333:fltk-1.3.4-1/jpeg/jdmarker.c **** 
 4375              		.loc 1 333 3 view .LVU1418
 333:fltk-1.3.4-1/jpeg/jdmarker.c **** 
 4376              		.loc 1 333 3 is_stmt 0 view .LVU1419
 4377 05df 410FB604 		movzbl	(%r12), %eax
 4377      24
 4378 05e4 4901C6   		addq	%rax, %r14
 4379              	.LVL533:
 333:fltk-1.3.4-1/jpeg/jdmarker.c **** 
 4380              		.loc 1 333 3 is_stmt 1 view .LVU1420
 335:fltk-1.3.4-1/jpeg/jdmarker.c **** 
 4381              		.loc 1 335 3 view .LVU1421
 335:fltk-1.3.4-1/jpeg/jdmarker.c **** 
 4382              		.loc 1 335 3 view .LVU1422
 4383 05e7 4883EB01 		subq	$1, %rbx
 4384              	.LVL534:
 333:fltk-1.3.4-1/jpeg/jdmarker.c **** 
 4385              		.loc 1 333 3 is_stmt 0 view .LVU1423
 4386 05eb 498D4424 		leaq	1(%r12), %rax
 4386      01
 4387              	.LVL535:
 335:fltk-1.3.4-1/jpeg/jdmarker.c **** 
 4388              		.loc 1 335 3 view .LVU1424
 4389 05f0 7516     		jne	.L349
 335:fltk-1.3.4-1/jpeg/jdmarker.c **** 
 4390              		.loc 1 335 3 is_stmt 1 view .LVU1425
 4391 05f2 4C89EF   		movq	%r13, %rdi
 4392 05f5 FF5518   		call	*24(%rbp)
 4393              	.LVL536:
 335:fltk-1.3.4-1/jpeg/jdmarker.c **** 
 4394              		.loc 1 335 3 is_stmt 0 view .LVU1426
 4395 05f8 85C0     		testl	%eax, %eax
 4396 05fa 0F844AFC 		je	.L315
 4396      FFFF
 335:fltk-1.3.4-1/jpeg/jdmarker.c **** 
 4397              		.loc 1 335 3 is_stmt 1 view .LVU1427
 4398 0600 488B4500 		movq	0(%rbp), %rax
 4399              	.LVL537:
 335:fltk-1.3.4-1/jpeg/jdmarker.c **** 
 4400              		.loc 1 335 3 is_stmt 0 view .LVU1428
 4401 0604 488B5D08 		movq	8(%rbp), %rbx
 4402              	.LVL538:
 4403              	.L349:
 335:fltk-1.3.4-1/jpeg/jdmarker.c **** 
 4404              		.loc 1 335 3 is_stmt 1 view .LVU1429
 335:fltk-1.3.4-1/jpeg/jdmarker.c **** 
 4405              		.loc 1 335 3 view .LVU1430
 4406 0608 488D7001 		leaq	1(%rax), %rsi
 4407 060c 4C8D7BFF 		leaq	-1(%rbx), %r15
 4408              	.LVL539:
 335:fltk-1.3.4-1/jpeg/jdmarker.c **** 
 4409              		.loc 1 335 3 view .LVU1431
 4410 0610 0FB618   		movzbl	(%rax), %ebx
 337:fltk-1.3.4-1/jpeg/jdmarker.c **** 
 4411              		.loc 1 337 3 is_stmt 0 view .LVU1432
 4412 0613 498B4500 		movq	0(%r13), %rax
 4413              	.LVL540:
 335:fltk-1.3.4-1/jpeg/jdmarker.c **** 
 4414              		.loc 1 335 3 view .LVU1433
 4415 0617 48897424 		movq	%rsi, 8(%rsp)
 4415      08
 4416              	.LVL541:
 337:fltk-1.3.4-1/jpeg/jdmarker.c **** 
 4417              		.loc 1 337 3 view .LVU1434
 4418 061c 4C89EF   		movq	%r13, %rdi
 4419 061f BE010000 		movl	$1, %esi
 4419      00
 4420              	.LVL542:
 337:fltk-1.3.4-1/jpeg/jdmarker.c **** 
 4421              		.loc 1 337 3 view .LVU1435
 4422 0624 C7402869 		movl	$105, 40(%rax)
 4422      000000
 4423 062b 498B4500 		movq	0(%r13), %rax
 335:fltk-1.3.4-1/jpeg/jdmarker.c **** 
 4424              		.loc 1 335 3 view .LVU1436
 4425 062f 891C24   		movl	%ebx, (%rsp)
 4426              	.LVL543:
 335:fltk-1.3.4-1/jpeg/jdmarker.c **** 
 4427              		.loc 1 335 3 is_stmt 1 view .LVU1437
 337:fltk-1.3.4-1/jpeg/jdmarker.c **** 
 4428              		.loc 1 337 3 view .LVU1438
 4429 0632 89582C   		movl	%ebx, 44(%rax)
 4430 0635 498B4500 		movq	0(%r13), %rax
 4431 0639 FF5008   		call	*8(%rax)
 4432              	.LVL544:
 339:fltk-1.3.4-1/jpeg/jdmarker.c ****       (n == 0 && !cinfo->progressive_mode))
 4433              		.loc 1 339 3 view .LVU1439
 339:fltk-1.3.4-1/jpeg/jdmarker.c ****       (n == 0 && !cinfo->progressive_mode))
 4434              		.loc 1 339 24 is_stmt 0 view .LVU1440
 4435 063c 8D441B06 		leal	6(%rbx,%rbx), %eax
 4436 0640 4898     		cltq
 339:fltk-1.3.4-1/jpeg/jdmarker.c ****       (n == 0 && !cinfo->progressive_mode))
 4437              		.loc 1 339 29 view .LVU1441
 4438 0642 4C39F0   		cmpq	%r14, %rax
 4439 0645 7509     		jne	.L350
 4440 0647 83FB04   		cmpl	$4, %ebx
 4441 064a 0F8EEB0D 		jle	.L720
 4441      0000
 4442              	.L350:
 342:fltk-1.3.4-1/jpeg/jdmarker.c **** 
 4443              		.loc 1 342 5 is_stmt 1 view .LVU1442
 4444 0650 498B4500 		movq	0(%r13), %rax
 4445 0654 4C89EF   		movq	%r13, %rdi
 4446 0657 C740280C 		movl	$12, 40(%rax)
 4446      000000
 4447 065e 498B4500 		movq	0(%r13), %rax
 4448 0662 FF10     		call	*(%rax)
 4449              	.LVL545:
 4450              	.L351:
 344:fltk-1.3.4-1/jpeg/jdmarker.c **** 
 4451              		.loc 1 344 3 view .LVU1443
 344:fltk-1.3.4-1/jpeg/jdmarker.c **** 
 4452              		.loc 1 344 24 is_stmt 0 view .LVU1444
 4453 0664 8B0424   		movl	(%rsp), %eax
 4454 0667 418985C0 		movl	%eax, 448(%r13)
 4454      010000
 348:fltk-1.3.4-1/jpeg/jdmarker.c ****     INPUT_BYTE(cinfo, c, return FALSE);
 4455              		.loc 1 348 3 is_stmt 1 view .LVU1445
 4456              	.LVL546:
 348:fltk-1.3.4-1/jpeg/jdmarker.c ****     INPUT_BYTE(cinfo, c, return FALSE);
 4457              		.loc 1 348 15 view .LVU1446
 348:fltk-1.3.4-1/jpeg/jdmarker.c ****     INPUT_BYTE(cinfo, c, return FALSE);
 4458              		.loc 1 348 3 is_stmt 0 view .LVU1447
 4459 066e 85C0     		testl	%eax, %eax
 4460 0670 0F843501 		je	.L353
 4460      0000
 4461 0676 4C8B7424 		movq	8(%rsp), %r14
 4461      08
 4462              	.LVL547:
 348:fltk-1.3.4-1/jpeg/jdmarker.c ****     INPUT_BYTE(cinfo, c, return FALSE);
 4463              		.loc 1 348 3 view .LVU1448
 4464 067b 4531E4   		xorl	%r12d, %r12d
 4465              	.LVL548:
 4466 067e 6690     		.p2align 4,,10
 4467              		.p2align 3
 4468              	.L365:
 349:fltk-1.3.4-1/jpeg/jdmarker.c **** 
 4469              		.loc 1 349 5 is_stmt 1 view .LVU1449
 349:fltk-1.3.4-1/jpeg/jdmarker.c **** 
 4470              		.loc 1 349 5 view .LVU1450
 4471 0680 4D85FF   		testq	%r15, %r15
 4472 0683 7516     		jne	.L354
 349:fltk-1.3.4-1/jpeg/jdmarker.c **** 
 4473              		.loc 1 349 5 view .LVU1451
 4474 0685 4C89EF   		movq	%r13, %rdi
 4475 0688 FF5518   		call	*24(%rbp)
 4476              	.LVL549:
 4477 068b 85C0     		testl	%eax, %eax
 4478 068d 0F84B7FB 		je	.L315
 4478      FFFF
 349:fltk-1.3.4-1/jpeg/jdmarker.c **** 
 4479              		.loc 1 349 5 view .LVU1452
 4480 0693 4C8B7500 		movq	0(%rbp), %r14
 4481              	.LVL550:
 349:fltk-1.3.4-1/jpeg/jdmarker.c **** 
 4482              		.loc 1 349 5 is_stmt 0 view .LVU1453
 4483 0697 4C8B7D08 		movq	8(%rbp), %r15
 4484              	.LVL551:
 4485              	.L354:
 349:fltk-1.3.4-1/jpeg/jdmarker.c **** 
 4486              		.loc 1 349 5 is_stmt 1 view .LVU1454
 349:fltk-1.3.4-1/jpeg/jdmarker.c **** 
 4487              		.loc 1 349 5 view .LVU1455
 4488 069b 410FB606 		movzbl	(%r14), %eax
 4489 069f 498D4FFF 		leaq	-1(%r15), %rcx
 4490              	.LVL552:
 349:fltk-1.3.4-1/jpeg/jdmarker.c **** 
 4491              		.loc 1 349 5 view .LVU1456
 349:fltk-1.3.4-1/jpeg/jdmarker.c **** 
 4492              		.loc 1 349 5 view .LVU1457
 356:fltk-1.3.4-1/jpeg/jdmarker.c ****       if (c == cinfo->cur_comp_info[ci]->component_id) {
 4493              		.loc 1 356 5 view .LVU1458
 356:fltk-1.3.4-1/jpeg/jdmarker.c ****       if (c == cinfo->cur_comp_info[ci]->component_id) {
 4494              		.loc 1 356 18 view .LVU1459
 4495 06a3 4489E6   		movl	%r12d, %esi
 356:fltk-1.3.4-1/jpeg/jdmarker.c ****       if (c == cinfo->cur_comp_info[ci]->component_id) {
 4496              		.loc 1 356 5 is_stmt 0 view .LVU1460
 4497 06a6 4D85E4   		testq	%r12, %r12
 4498 06a9 7446     		je	.L355
 4499              	.LVL553:
 356:fltk-1.3.4-1/jpeg/jdmarker.c ****       if (c == cinfo->cur_comp_info[ci]->component_id) {
 4500              		.loc 1 356 5 view .LVU1461
 4501 06ab 31D2     		xorl	%edx, %edx
 4502 06ad EB09     		jmp	.L359
 4503              	.LVL554:
 4504 06af 90       		.p2align 4,,10
 4505              		.p2align 3
 4506              	.L356:
 356:fltk-1.3.4-1/jpeg/jdmarker.c ****       if (c == cinfo->cur_comp_info[ci]->component_id) {
 4507              		.loc 1 356 26 is_stmt 1 view .LVU1462
 356:fltk-1.3.4-1/jpeg/jdmarker.c ****       if (c == cinfo->cur_comp_info[ci]->component_id) {
 4508              		.loc 1 356 18 view .LVU1463
 4509 06b0 4883C201 		addq	$1, %rdx
 4510              	.LVL555:
 356:fltk-1.3.4-1/jpeg/jdmarker.c ****       if (c == cinfo->cur_comp_info[ci]->component_id) {
 4511              		.loc 1 356 5 is_stmt 0 view .LVU1464
 4512 06b4 39D6     		cmpl	%edx, %esi
 4513 06b6 7E39     		jle	.L355
 4514              	.L359:
 4515              	.LVL556:
 357:fltk-1.3.4-1/jpeg/jdmarker.c **** 	c = cinfo->cur_comp_info[0]->component_id;
 4516              		.loc 1 357 7 is_stmt 1 view .LVU1465
 357:fltk-1.3.4-1/jpeg/jdmarker.c **** 	c = cinfo->cur_comp_info[0]->component_id;
 4517              		.loc 1 357 40 is_stmt 0 view .LVU1466
 4518 06b8 498BBCD5 		movq	456(%r13,%rdx,8), %rdi
 4518      C8010000 
 357:fltk-1.3.4-1/jpeg/jdmarker.c **** 	c = cinfo->cur_comp_info[0]->component_id;
 4519              		.loc 1 357 10 view .LVU1467
 4520 06c0 3B07     		cmpl	(%rdi), %eax
 4521 06c2 75EC     		jne	.L356
 358:fltk-1.3.4-1/jpeg/jdmarker.c **** 	for (ci = 1; ci < i; ci++) {
 4522              		.loc 1 358 2 is_stmt 1 view .LVU1468
 358:fltk-1.3.4-1/jpeg/jdmarker.c **** 	for (ci = 1; ci < i; ci++) {
 4523              		.loc 1 358 4 is_stmt 0 view .LVU1469
 4524 06c4 498B85C8 		movq	456(%r13), %rax
 4524      010000
 4525              	.LVL557:
 358:fltk-1.3.4-1/jpeg/jdmarker.c **** 	for (ci = 1; ci < i; ci++) {
 4526              		.loc 1 358 4 view .LVU1470
 4527 06cb 8B00     		movl	(%rax), %eax
 4528              	.LVL558:
 359:fltk-1.3.4-1/jpeg/jdmarker.c **** 	  compptr = cinfo->cur_comp_info[ci];
 4529              		.loc 1 359 2 is_stmt 1 view .LVU1471
 359:fltk-1.3.4-1/jpeg/jdmarker.c **** 	  compptr = cinfo->cur_comp_info[ci];
 4530              		.loc 1 359 15 view .LVU1472
 359:fltk-1.3.4-1/jpeg/jdmarker.c **** 	  compptr = cinfo->cur_comp_info[ci];
 4531              		.loc 1 359 2 is_stmt 0 view .LVU1473
 4532 06cd 83FE01   		cmpl	$1, %esi
 4533 06d0 741C     		je	.L357
 4534 06d2 BA010000 		movl	$1, %edx
 4534      00
 4535              	.LVL559:
 4536              	.L358:
 360:fltk-1.3.4-1/jpeg/jdmarker.c **** 	  if (compptr->component_id > c) c = compptr->component_id;
 4537              		.loc 1 360 4 is_stmt 1 view .LVU1474
 361:fltk-1.3.4-1/jpeg/jdmarker.c **** 	}
 4538              		.loc 1 361 4 view .LVU1475
 361:fltk-1.3.4-1/jpeg/jdmarker.c **** 	}
 4539              		.loc 1 361 15 is_stmt 0 view .LVU1476
 4540 06d7 498BBCD5 		movq	456(%r13,%rdx,8), %rdi
 4540      C8010000 
 4541 06df 8B3F     		movl	(%rdi), %edi
 4542 06e1 39F8     		cmpl	%edi, %eax
 4543 06e3 0F4CC7   		cmovl	%edi, %eax
 4544              	.LVL560:
 359:fltk-1.3.4-1/jpeg/jdmarker.c **** 	  compptr = cinfo->cur_comp_info[ci];
 4545              		.loc 1 359 23 is_stmt 1 view .LVU1477
 359:fltk-1.3.4-1/jpeg/jdmarker.c **** 	  compptr = cinfo->cur_comp_info[ci];
 4546              		.loc 1 359 15 view .LVU1478
 4547 06e6 4883C201 		addq	$1, %rdx
 4548              	.LVL561:
 359:fltk-1.3.4-1/jpeg/jdmarker.c **** 	  compptr = cinfo->cur_comp_info[ci];
 4549              		.loc 1 359 2 is_stmt 0 view .LVU1479
 4550 06ea 39D6     		cmpl	%edx, %esi
 4551 06ec 7FE9     		jg	.L358
 4552              	.LVL562:
 4553              	.L357:
 363:fltk-1.3.4-1/jpeg/jdmarker.c **** 	break;
 4554              		.loc 1 363 2 is_stmt 1 view .LVU1480
 363:fltk-1.3.4-1/jpeg/jdmarker.c **** 	break;
 4555              		.loc 1 363 3 is_stmt 0 view .LVU1481
 4556 06ee 83C001   		addl	$1, %eax
 4557              	.LVL563:
 364:fltk-1.3.4-1/jpeg/jdmarker.c ****       }
 4558              		.loc 1 364 2 is_stmt 1 view .LVU1482
 4559              	.L355:
 368:fltk-1.3.4-1/jpeg/jdmarker.c **** 	 ci++, compptr++) {
 4560              		.loc 1 368 5 view .LVU1483
 368:fltk-1.3.4-1/jpeg/jdmarker.c **** 	 ci++, compptr++) {
 4561              		.loc 1 368 56 is_stmt 0 view .LVU1484
 4562 06f1 418B5538 		movl	56(%r13), %edx
 368:fltk-1.3.4-1/jpeg/jdmarker.c **** 	 ci++, compptr++) {
 4563              		.loc 1 368 26 view .LVU1485
 4564 06f5 498B9D30 		movq	304(%r13), %rbx
 4564      010000
 4565              	.LVL564:
 368:fltk-1.3.4-1/jpeg/jdmarker.c **** 	 ci++, compptr++) {
 4566              		.loc 1 368 46 is_stmt 1 view .LVU1486
 368:fltk-1.3.4-1/jpeg/jdmarker.c **** 	 ci++, compptr++) {
 4567              		.loc 1 368 5 is_stmt 0 view .LVU1487
 4568 06fc 85D2     		testl	%edx, %edx
 4569 06fe 0F8E8406 		jle	.L468
 4569      0000
 368:fltk-1.3.4-1/jpeg/jdmarker.c **** 	 ci++, compptr++) {
 4570              		.loc 1 368 5 view .LVU1488
 4571 0704 83EA01   		subl	$1, %edx
 4572 0707 4C8D7C52 		leaq	3(%rdx,%rdx,2), %r15
 4572      03
 4573 070c 49C1E705 		salq	$5, %r15
 4574 0710 4901DF   		addq	%rbx, %r15
 4575 0713 EB10     		jmp	.L362
 4576              	.LVL565:
 4577              		.p2align 4,,10
 4578 0715 0F1F00   		.p2align 3
 4579              	.L721:
 369:fltk-1.3.4-1/jpeg/jdmarker.c ****       if (c == compptr->component_id)
 4580              		.loc 1 369 3 is_stmt 1 view .LVU1489
 369:fltk-1.3.4-1/jpeg/jdmarker.c ****       if (c == compptr->component_id)
 4581              		.loc 1 369 16 is_stmt 0 view .LVU1490
 4582 0718 4883C360 		addq	$96, %rbx
 4583              	.LVL566:
 368:fltk-1.3.4-1/jpeg/jdmarker.c **** 	 ci++, compptr++) {
 4584              		.loc 1 368 46 is_stmt 1 view .LVU1491
 368:fltk-1.3.4-1/jpeg/jdmarker.c **** 	 ci++, compptr++) {
 4585              		.loc 1 368 5 is_stmt 0 view .LVU1492
 4586 071c 4C39FB   		cmpq	%r15, %rbx
 4587 071f 0F846B06 		je	.L360
 4587      0000
 4588              	.L362:
 370:fltk-1.3.4-1/jpeg/jdmarker.c **** 	goto id_found;
 4589              		.loc 1 370 7 is_stmt 1 view .LVU1493
 370:fltk-1.3.4-1/jpeg/jdmarker.c **** 	goto id_found;
 4590              		.loc 1 370 10 is_stmt 0 view .LVU1494
 4591 0725 3903     		cmpl	%eax, (%rbx)
 4592 0727 75EF     		jne	.L721
 4593              	.LVL567:
 4594              	.L361:
 378:fltk-1.3.4-1/jpeg/jdmarker.c ****     INPUT_BYTE(cinfo, c, return FALSE);
 4595              		.loc 1 378 5 is_stmt 1 view .LVU1495
 378:fltk-1.3.4-1/jpeg/jdmarker.c ****     INPUT_BYTE(cinfo, c, return FALSE);
 4596              		.loc 1 378 29 is_stmt 0 view .LVU1496
 4597 0729 4B899CE5 		movq	%rbx, 456(%r13,%r12,8)
 4597      C8010000 
 379:fltk-1.3.4-1/jpeg/jdmarker.c ****     compptr->dc_tbl_no = (c >> 4) & 15;
 4598              		.loc 1 379 5 is_stmt 1 view .LVU1497
 379:fltk-1.3.4-1/jpeg/jdmarker.c ****     compptr->dc_tbl_no = (c >> 4) & 15;
 4599              		.loc 1 379 5 view .LVU1498
 349:fltk-1.3.4-1/jpeg/jdmarker.c **** 
 4600              		.loc 1 349 5 is_stmt 0 view .LVU1499
 4601 0731 498D4601 		leaq	1(%r14), %rax
 379:fltk-1.3.4-1/jpeg/jdmarker.c ****     compptr->dc_tbl_no = (c >> 4) & 15;
 4602              		.loc 1 379 5 view .LVU1500
 4603 0735 4885C9   		testq	%rcx, %rcx
 4604 0738 7516     		jne	.L364
 379:fltk-1.3.4-1/jpeg/jdmarker.c ****     compptr->dc_tbl_no = (c >> 4) & 15;
 4605              		.loc 1 379 5 is_stmt 1 view .LVU1501
 4606 073a 4C89EF   		movq	%r13, %rdi
 4607 073d FF5518   		call	*24(%rbp)
 4608              	.LVL568:
 4609 0740 85C0     		testl	%eax, %eax
 4610 0742 0F8402FB 		je	.L315
 4610      FFFF
 379:fltk-1.3.4-1/jpeg/jdmarker.c ****     compptr->dc_tbl_no = (c >> 4) & 15;
 4611              		.loc 1 379 5 view .LVU1502
 4612 0748 488B4500 		movq	0(%rbp), %rax
 4613              	.LVL569:
 379:fltk-1.3.4-1/jpeg/jdmarker.c ****     compptr->dc_tbl_no = (c >> 4) & 15;
 4614              		.loc 1 379 5 is_stmt 0 view .LVU1503
 4615 074c 488B4D08 		movq	8(%rbp), %rcx
 4616              	.LVL570:
 4617              	.L364:
 379:fltk-1.3.4-1/jpeg/jdmarker.c ****     compptr->dc_tbl_no = (c >> 4) & 15;
 4618              		.loc 1 379 5 is_stmt 1 view .LVU1504
 379:fltk-1.3.4-1/jpeg/jdmarker.c ****     compptr->dc_tbl_no = (c >> 4) & 15;
 4619              		.loc 1 379 5 view .LVU1505
 4620 0750 0FB610   		movzbl	(%rax), %edx
 4621 0753 4C8D7001 		leaq	1(%rax), %r14
 4622 0757 4C8D79FF 		leaq	-1(%rcx), %r15
 4623              	.LVL571:
 379:fltk-1.3.4-1/jpeg/jdmarker.c ****     compptr->dc_tbl_no = (c >> 4) & 15;
 4624              		.loc 1 379 5 view .LVU1506
 4625              	.LBB116:
 383:fltk-1.3.4-1/jpeg/jdmarker.c **** 	     compptr->dc_tbl_no, compptr->ac_tbl_no);
 4626              		.loc 1 383 5 is_stmt 0 view .LVU1507
 4627 075b BE010000 		movl	$1, %esi
 4627      00
 4628 0760 4C89EF   		movq	%r13, %rdi
 4629 0763 4983C401 		addq	$1, %r12
 4630              	.LVL572:
 383:fltk-1.3.4-1/jpeg/jdmarker.c **** 	     compptr->dc_tbl_no, compptr->ac_tbl_no);
 4631              		.loc 1 383 5 view .LVU1508
 4632              	.LBE116:
 379:fltk-1.3.4-1/jpeg/jdmarker.c ****     compptr->dc_tbl_no = (c >> 4) & 15;
 4633              		.loc 1 379 5 view .LVU1509
 4634 0767 89D0     		movl	%edx, %eax
 4635              	.LVL573:
 379:fltk-1.3.4-1/jpeg/jdmarker.c ****     compptr->dc_tbl_no = (c >> 4) & 15;
 4636              		.loc 1 379 5 is_stmt 1 view .LVU1510
 380:fltk-1.3.4-1/jpeg/jdmarker.c ****     compptr->ac_tbl_no = (c     ) & 15;
 4637              		.loc 1 380 5 view .LVU1511
 380:fltk-1.3.4-1/jpeg/jdmarker.c ****     compptr->ac_tbl_no = (c     ) & 15;
 4638              		.loc 1 380 29 is_stmt 0 view .LVU1512
 4639 0769 C1FA04   		sarl	$4, %edx
 4640              	.LVL574:
 381:fltk-1.3.4-1/jpeg/jdmarker.c **** 
 4641              		.loc 1 381 35 view .LVU1513
 4642 076c 83E00F   		andl	$15, %eax
 4643              	.LVL575:
 380:fltk-1.3.4-1/jpeg/jdmarker.c ****     compptr->ac_tbl_no = (c     ) & 15;
 4644              		.loc 1 380 29 view .LVU1514
 4645 076f 895314   		movl	%edx, 20(%rbx)
 4646              	.LVL576:
 381:fltk-1.3.4-1/jpeg/jdmarker.c **** 
 4647              		.loc 1 381 5 is_stmt 1 view .LVU1515
 4648              	.LBB117:
 383:fltk-1.3.4-1/jpeg/jdmarker.c **** 	     compptr->dc_tbl_no, compptr->ac_tbl_no);
 4649              		.loc 1 383 5 is_stmt 0 view .LVU1516
 4650 0772 8B13     		movl	(%rbx), %edx
 4651              	.LBE117:
 381:fltk-1.3.4-1/jpeg/jdmarker.c **** 
 4652              		.loc 1 381 35 view .LVU1517
 4653 0774 894318   		movl	%eax, 24(%rbx)
 383:fltk-1.3.4-1/jpeg/jdmarker.c **** 	     compptr->dc_tbl_no, compptr->ac_tbl_no);
 4654              		.loc 1 383 5 is_stmt 1 view .LVU1518
 4655              	.LBB118:
 383:fltk-1.3.4-1/jpeg/jdmarker.c **** 	     compptr->dc_tbl_no, compptr->ac_tbl_no);
 4656              		.loc 1 383 5 view .LVU1519
 4657 0777 498B4500 		movq	0(%r13), %rax
 4658              	.LVL577:
 383:fltk-1.3.4-1/jpeg/jdmarker.c **** 	     compptr->dc_tbl_no, compptr->ac_tbl_no);
 4659              		.loc 1 383 5 view .LVU1520
 4660 077b 89502C   		movl	%edx, 44(%rax)
 383:fltk-1.3.4-1/jpeg/jdmarker.c **** 	     compptr->dc_tbl_no, compptr->ac_tbl_no);
 4661              		.loc 1 383 5 view .LVU1521
 4662 077e 8B5314   		movl	20(%rbx), %edx
 4663 0781 895030   		movl	%edx, 48(%rax)
 383:fltk-1.3.4-1/jpeg/jdmarker.c **** 	     compptr->dc_tbl_no, compptr->ac_tbl_no);
 4664              		.loc 1 383 5 view .LVU1522
 4665 0784 8B5318   		movl	24(%rbx), %edx
 4666 0787 895034   		movl	%edx, 52(%rax)
 383:fltk-1.3.4-1/jpeg/jdmarker.c **** 	     compptr->dc_tbl_no, compptr->ac_tbl_no);
 4667              		.loc 1 383 5 view .LVU1523
 4668 078a 498B4500 		movq	0(%r13), %rax
 4669              	.LVL578:
 383:fltk-1.3.4-1/jpeg/jdmarker.c **** 	     compptr->dc_tbl_no, compptr->ac_tbl_no);
 4670              		.loc 1 383 5 is_stmt 0 view .LVU1524
 4671 078e C740286A 		movl	$106, 40(%rax)
 4671      000000
 383:fltk-1.3.4-1/jpeg/jdmarker.c **** 	     compptr->dc_tbl_no, compptr->ac_tbl_no);
 4672              		.loc 1 383 5 is_stmt 1 view .LVU1525
 4673 0795 498B4500 		movq	0(%r13), %rax
 4674 0799 FF5008   		call	*8(%rax)
 4675              	.LVL579:
 4676              	.LBE118:
 383:fltk-1.3.4-1/jpeg/jdmarker.c **** 	     compptr->dc_tbl_no, compptr->ac_tbl_no);
 4677              		.loc 1 383 5 view .LVU1526
 348:fltk-1.3.4-1/jpeg/jdmarker.c ****     INPUT_BYTE(cinfo, c, return FALSE);
 4678              		.loc 1 348 22 view .LVU1527
 348:fltk-1.3.4-1/jpeg/jdmarker.c ****     INPUT_BYTE(cinfo, c, return FALSE);
 4679              		.loc 1 348 15 view .LVU1528
 348:fltk-1.3.4-1/jpeg/jdmarker.c ****     INPUT_BYTE(cinfo, c, return FALSE);
 4680              		.loc 1 348 3 is_stmt 0 view .LVU1529
 4681 079c 44392424 		cmpl	%r12d, (%rsp)
 4682 07a0 0F8FDAFE 		jg	.L365
 4682      FFFF
 4683 07a6 4C897424 		movq	%r14, 8(%rsp)
 4683      08
 4684              	.LVL580:
 4685              	.L353:
 388:fltk-1.3.4-1/jpeg/jdmarker.c ****   cinfo->Ss = c;
 4686              		.loc 1 388 3 is_stmt 1 view .LVU1530
 388:fltk-1.3.4-1/jpeg/jdmarker.c ****   cinfo->Ss = c;
 4687              		.loc 1 388 3 view .LVU1531
 4688 07ab 4D85FF   		testq	%r15, %r15
 4689 07ae 751B     		jne	.L366
 388:fltk-1.3.4-1/jpeg/jdmarker.c ****   cinfo->Ss = c;
 4690              		.loc 1 388 3 view .LVU1532
 4691 07b0 4C89EF   		movq	%r13, %rdi
 4692 07b3 FF5518   		call	*24(%rbp)
 4693              	.LVL581:
 4694 07b6 85C0     		testl	%eax, %eax
 4695 07b8 0F848CFA 		je	.L315
 4695      FFFF
 388:fltk-1.3.4-1/jpeg/jdmarker.c ****   cinfo->Ss = c;
 4696              		.loc 1 388 3 view .LVU1533
 4697 07be 488B4500 		movq	0(%rbp), %rax
 4698 07c2 4C8B7D08 		movq	8(%rbp), %r15
 4699              	.LVL582:
 388:fltk-1.3.4-1/jpeg/jdmarker.c ****   cinfo->Ss = c;
 4700              		.loc 1 388 3 is_stmt 0 view .LVU1534
 4701 07c6 48894424 		movq	%rax, 8(%rsp)
 4701      08
 4702              	.LVL583:
 4703              	.L366:
 388:fltk-1.3.4-1/jpeg/jdmarker.c ****   cinfo->Ss = c;
 4704              		.loc 1 388 3 is_stmt 1 view .LVU1535
 388:fltk-1.3.4-1/jpeg/jdmarker.c ****   cinfo->Ss = c;
 4705              		.loc 1 388 3 view .LVU1536
 388:fltk-1.3.4-1/jpeg/jdmarker.c ****   cinfo->Ss = c;
 4706              		.loc 1 388 3 view .LVU1537
 388:fltk-1.3.4-1/jpeg/jdmarker.c ****   cinfo->Ss = c;
 4707              		.loc 1 388 3 view .LVU1538
 389:fltk-1.3.4-1/jpeg/jdmarker.c ****   INPUT_BYTE(cinfo, c, return FALSE);
 4708              		.loc 1 389 3 view .LVU1539
 388:fltk-1.3.4-1/jpeg/jdmarker.c ****   cinfo->Ss = c;
 4709              		.loc 1 388 3 is_stmt 0 view .LVU1540
 4710 07cb 488B7424 		movq	8(%rsp), %rsi
 4710      08
 4711 07d0 0FB606   		movzbl	(%rsi), %eax
 4712              	.LVL584:
 388:fltk-1.3.4-1/jpeg/jdmarker.c ****   cinfo->Ss = c;
 4713              		.loc 1 388 3 view .LVU1541
 4714 07d3 4189851C 		movl	%eax, 540(%r13)
 4714      020000
 390:fltk-1.3.4-1/jpeg/jdmarker.c ****   cinfo->Se = c;
 4715              		.loc 1 390 3 is_stmt 1 view .LVU1542
 390:fltk-1.3.4-1/jpeg/jdmarker.c ****   cinfo->Se = c;
 4716              		.loc 1 390 3 view .LVU1543
 4717 07da 4983EF01 		subq	$1, %r15
 4718              	.LVL585:
 390:fltk-1.3.4-1/jpeg/jdmarker.c ****   cinfo->Se = c;
 4719              		.loc 1 390 3 is_stmt 0 view .LVU1544
 4720 07de 0F84BE0B 		je	.L367
 4720      0000
 388:fltk-1.3.4-1/jpeg/jdmarker.c ****   cinfo->Ss = c;
 4721              		.loc 1 388 3 view .LVU1545
 4722 07e4 4883C601 		addq	$1, %rsi
 4723              	.LVL586:
 388:fltk-1.3.4-1/jpeg/jdmarker.c ****   cinfo->Ss = c;
 4724              		.loc 1 388 3 view .LVU1546
 4725 07e8 4989F4   		movq	%rsi, %r12
 4726              	.LVL587:
 4727              	.L368:
 390:fltk-1.3.4-1/jpeg/jdmarker.c ****   cinfo->Se = c;
 4728              		.loc 1 390 3 is_stmt 1 view .LVU1547
 390:fltk-1.3.4-1/jpeg/jdmarker.c ****   cinfo->Se = c;
 4729              		.loc 1 390 3 view .LVU1548
 390:fltk-1.3.4-1/jpeg/jdmarker.c ****   cinfo->Se = c;
 4730              		.loc 1 390 3 view .LVU1549
 390:fltk-1.3.4-1/jpeg/jdmarker.c ****   cinfo->Se = c;
 4731              		.loc 1 390 3 view .LVU1550
 391:fltk-1.3.4-1/jpeg/jdmarker.c ****   INPUT_BYTE(cinfo, c, return FALSE);
 4732              		.loc 1 391 3 view .LVU1551
 390:fltk-1.3.4-1/jpeg/jdmarker.c ****   cinfo->Se = c;
 4733              		.loc 1 390 3 is_stmt 0 view .LVU1552
 4734 07eb 410FB604 		movzbl	(%r12), %eax
 4734      24
 4735              	.LVL588:
 390:fltk-1.3.4-1/jpeg/jdmarker.c ****   cinfo->Se = c;
 4736              		.loc 1 390 3 view .LVU1553
 4737 07f0 41898520 		movl	%eax, 544(%r13)
 4737      020000
 392:fltk-1.3.4-1/jpeg/jdmarker.c ****   cinfo->Ah = (c >> 4) & 15;
 4738              		.loc 1 392 3 is_stmt 1 view .LVU1554
 392:fltk-1.3.4-1/jpeg/jdmarker.c ****   cinfo->Ah = (c >> 4) & 15;
 4739              		.loc 1 392 3 view .LVU1555
 4740 07f7 4983EF01 		subq	$1, %r15
 4741              	.LVL589:
 392:fltk-1.3.4-1/jpeg/jdmarker.c ****   cinfo->Ah = (c >> 4) & 15;
 4742              		.loc 1 392 3 is_stmt 0 view .LVU1556
 4743 07fb 0F841F0C 		je	.L369
 4743      0000
 390:fltk-1.3.4-1/jpeg/jdmarker.c ****   cinfo->Se = c;
 4744              		.loc 1 390 3 view .LVU1557
 4745 0801 4983C401 		addq	$1, %r12
 4746              	.LVL590:
 4747              	.L370:
 392:fltk-1.3.4-1/jpeg/jdmarker.c ****   cinfo->Ah = (c >> 4) & 15;
 4748              		.loc 1 392 3 is_stmt 1 view .LVU1558
 392:fltk-1.3.4-1/jpeg/jdmarker.c ****   cinfo->Ah = (c >> 4) & 15;
 4749              		.loc 1 392 3 view .LVU1559
 4750 0805 410FB614 		movzbl	(%r12), %edx
 4750      24
 4751              	.LBB119:
 396:fltk-1.3.4-1/jpeg/jdmarker.c **** 	   cinfo->Ah, cinfo->Al);
 4752              		.loc 1 396 3 is_stmt 0 view .LVU1560
 4753 080a BE010000 		movl	$1, %esi
 4753      00
 4754 080f 4C89EF   		movq	%r13, %rdi
 4755              	.LBE119:
 392:fltk-1.3.4-1/jpeg/jdmarker.c ****   cinfo->Ah = (c >> 4) & 15;
 4756              		.loc 1 392 3 view .LVU1561
 4757 0812 4983EF01 		subq	$1, %r15
 4758              	.LVL591:
 392:fltk-1.3.4-1/jpeg/jdmarker.c ****   cinfo->Ah = (c >> 4) & 15;
 4759              		.loc 1 392 3 is_stmt 1 view .LVU1562
 4760 0816 4D8D7424 		leaq	1(%r12), %r14
 4760      01
 4761              	.LVL592:
 392:fltk-1.3.4-1/jpeg/jdmarker.c ****   cinfo->Ah = (c >> 4) & 15;
 4762              		.loc 1 392 3 is_stmt 0 view .LVU1563
 4763 081b 89D0     		movl	%edx, %eax
 4764              	.LVL593:
 392:fltk-1.3.4-1/jpeg/jdmarker.c ****   cinfo->Ah = (c >> 4) & 15;
 4765              		.loc 1 392 3 is_stmt 1 view .LVU1564
 393:fltk-1.3.4-1/jpeg/jdmarker.c ****   cinfo->Al = (c     ) & 15;
 4766              		.loc 1 393 3 view .LVU1565
 393:fltk-1.3.4-1/jpeg/jdmarker.c ****   cinfo->Al = (c     ) & 15;
 4767              		.loc 1 393 18 is_stmt 0 view .LVU1566
 4768 081d C1FA04   		sarl	$4, %edx
 4769              	.LVL594:
 394:fltk-1.3.4-1/jpeg/jdmarker.c **** 
 4770              		.loc 1 394 24 view .LVU1567
 4771 0820 83E00F   		andl	$15, %eax
 4772              	.LVL595:
 393:fltk-1.3.4-1/jpeg/jdmarker.c ****   cinfo->Al = (c     ) & 15;
 4773              		.loc 1 393 18 view .LVU1568
 4774 0823 41899524 		movl	%edx, 548(%r13)
 4774      020000
 4775              	.LVL596:
 394:fltk-1.3.4-1/jpeg/jdmarker.c **** 
 4776              		.loc 1 394 3 is_stmt 1 view .LVU1569
 4777              	.LBB120:
 396:fltk-1.3.4-1/jpeg/jdmarker.c **** 	   cinfo->Ah, cinfo->Al);
 4778              		.loc 1 396 3 is_stmt 0 view .LVU1570
 4779 082a 418B951C 		movl	540(%r13), %edx
 4779      020000
 4780              	.LBE120:
 394:fltk-1.3.4-1/jpeg/jdmarker.c **** 
 4781              		.loc 1 394 24 view .LVU1571
 4782 0831 41898528 		movl	%eax, 552(%r13)
 4782      020000
 396:fltk-1.3.4-1/jpeg/jdmarker.c **** 	   cinfo->Ah, cinfo->Al);
 4783              		.loc 1 396 3 is_stmt 1 view .LVU1572
 4784              	.LBB121:
 396:fltk-1.3.4-1/jpeg/jdmarker.c **** 	   cinfo->Ah, cinfo->Al);
 4785              		.loc 1 396 3 view .LVU1573
 4786 0838 498B4500 		movq	0(%r13), %rax
 4787              	.LVL597:
 396:fltk-1.3.4-1/jpeg/jdmarker.c **** 	   cinfo->Ah, cinfo->Al);
 4788              		.loc 1 396 3 view .LVU1574
 4789 083c 89502C   		movl	%edx, 44(%rax)
 396:fltk-1.3.4-1/jpeg/jdmarker.c **** 	   cinfo->Ah, cinfo->Al);
 4790              		.loc 1 396 3 view .LVU1575
 4791 083f 418B9520 		movl	544(%r13), %edx
 4791      020000
 4792 0846 895030   		movl	%edx, 48(%rax)
 396:fltk-1.3.4-1/jpeg/jdmarker.c **** 	   cinfo->Ah, cinfo->Al);
 4793              		.loc 1 396 3 view .LVU1576
 4794 0849 418B9524 		movl	548(%r13), %edx
 4794      020000
 4795 0850 895034   		movl	%edx, 52(%rax)
 396:fltk-1.3.4-1/jpeg/jdmarker.c **** 	   cinfo->Ah, cinfo->Al);
 4796              		.loc 1 396 3 view .LVU1577
 4797 0853 418B9528 		movl	552(%r13), %edx
 4797      020000
 4798 085a 895038   		movl	%edx, 56(%rax)
 396:fltk-1.3.4-1/jpeg/jdmarker.c **** 	   cinfo->Ah, cinfo->Al);
 4799              		.loc 1 396 3 view .LVU1578
 4800 085d 498B4500 		movq	0(%r13), %rax
 4801              	.LVL598:
 396:fltk-1.3.4-1/jpeg/jdmarker.c **** 	   cinfo->Ah, cinfo->Al);
 4802              		.loc 1 396 3 is_stmt 0 view .LVU1579
 4803 0861 C740286B 		movl	$107, 40(%rax)
 4803      000000
 396:fltk-1.3.4-1/jpeg/jdmarker.c **** 	   cinfo->Ah, cinfo->Al);
 4804              		.loc 1 396 3 is_stmt 1 view .LVU1580
 4805 0868 498B4500 		movq	0(%r13), %rax
 4806 086c FF5008   		call	*8(%rax)
 4807              	.LVL599:
 4808              	.LBE121:
 396:fltk-1.3.4-1/jpeg/jdmarker.c **** 	   cinfo->Ah, cinfo->Al);
 4809              		.loc 1 396 3 view .LVU1581
 400:fltk-1.3.4-1/jpeg/jdmarker.c **** 
 4810              		.loc 1 400 3 view .LVU1582
 400:fltk-1.3.4-1/jpeg/jdmarker.c **** 
 4811              		.loc 1 400 8 is_stmt 0 view .LVU1583
 4812 086f 498B8568 		movq	616(%r13), %rax
 4812      020000
 403:fltk-1.3.4-1/jpeg/jdmarker.c **** 
 4813              		.loc 1 403 6 view .LVU1584
 4814 0876 448B0424 		movl	(%rsp), %r8d
 400:fltk-1.3.4-1/jpeg/jdmarker.c **** 
 4815              		.loc 1 400 35 view .LVU1585
 4816 087a C7402000 		movl	$0, 32(%rax)
 4816      000000
 403:fltk-1.3.4-1/jpeg/jdmarker.c **** 
 4817              		.loc 1 403 3 is_stmt 1 view .LVU1586
 403:fltk-1.3.4-1/jpeg/jdmarker.c **** 
 4818              		.loc 1 403 6 is_stmt 0 view .LVU1587
 4819 0881 4585C0   		testl	%r8d, %r8d
 4820 0884 7408     		je	.L371
 403:fltk-1.3.4-1/jpeg/jdmarker.c **** 
 4821              		.loc 1 403 10 is_stmt 1 view .LVU1588
 403:fltk-1.3.4-1/jpeg/jdmarker.c **** 
 4822              		.loc 1 403 34 is_stmt 0 view .LVU1589
 4823 0886 418385AC 		addl	$1, 172(%r13)
 4823      00000001 
 4824              	.L371:
 405:fltk-1.3.4-1/jpeg/jdmarker.c ****   return TRUE;
 4825              		.loc 1 405 3 is_stmt 1 view .LVU1590
 4826 088e 4C897500 		movq	%r14, 0(%rbp)
 4827              	.LBE115:
 4828              	.LBE114:
1161:fltk-1.3.4-1/jpeg/jdmarker.c **** 
 4829              		.loc 1 1161 14 is_stmt 0 view .LVU1591
 4830 0892 B8010000 		movl	$1, %eax
 4830      00
 4831              	.LBB132:
 4832              	.LBB126:
 405:fltk-1.3.4-1/jpeg/jdmarker.c ****   return TRUE;
 4833              		.loc 1 405 3 view .LVU1592
 4834 0897 4C897D08 		movq	%r15, 8(%rbp)
 406:fltk-1.3.4-1/jpeg/jdmarker.c **** }
 4835              		.loc 1 406 3 is_stmt 1 view .LVU1593
 4836              	.LVL600:
 406:fltk-1.3.4-1/jpeg/jdmarker.c **** }
 4837              		.loc 1 406 3 is_stmt 0 view .LVU1594
 4838              	.LBE126:
 4839              	.LBE132:
1160:fltk-1.3.4-1/jpeg/jdmarker.c ****       return JPEG_REACHED_SOS;
 4840              		.loc 1 1160 7 is_stmt 1 view .LVU1595
1160:fltk-1.3.4-1/jpeg/jdmarker.c ****       return JPEG_REACHED_SOS;
 4841              		.loc 1 1160 28 is_stmt 0 view .LVU1596
 4842 089b 41C7853C 		movl	$0, 572(%r13)
 4842      02000000 
 4842      000000
1161:fltk-1.3.4-1/jpeg/jdmarker.c **** 
 4843              		.loc 1 1161 7 is_stmt 1 view .LVU1597
1248:fltk-1.3.4-1/jpeg/jdmarker.c **** 
 4844              		.loc 1 1248 1 is_stmt 0 view .LVU1598
 4845 08a6 4883C428 		addq	$40, %rsp
 4846              		.cfi_remember_state
 4847              		.cfi_def_cfa_offset 56
 4848 08aa 5B       		popq	%rbx
 4849              		.cfi_def_cfa_offset 48
 4850 08ab 5D       		popq	%rbp
 4851              		.cfi_def_cfa_offset 40
 4852 08ac 415C     		popq	%r12
 4853              		.cfi_def_cfa_offset 32
 4854 08ae 415D     		popq	%r13
 4855              		.cfi_def_cfa_offset 24
 4856              	.LVL601:
1248:fltk-1.3.4-1/jpeg/jdmarker.c **** 
 4857              		.loc 1 1248 1 view .LVU1599
 4858 08b0 415E     		popq	%r14
 4859              		.cfi_def_cfa_offset 16
 4860 08b2 415F     		popq	%r15
 4861              		.cfi_def_cfa_offset 8
 4862 08b4 C3       		ret
 4863              	.LVL602:
 4864              	.L330:
 4865              		.cfi_restore_state
1164:fltk-1.3.4-1/jpeg/jdmarker.c ****       cinfo->unread_marker = 0;	/* processed the marker */
 4866              		.loc 1 1164 7 is_stmt 1 view .LVU1600
 4867 08b5 498B4500 		movq	0(%r13), %rax
 4868 08b9 4C89EF   		movq	%r13, %rdi
 4869 08bc BE010000 		movl	$1, %esi
 4869      00
 4870 08c1 C7402857 		movl	$87, 40(%rax)
 4870      000000
 4871 08c8 498B4500 		movq	0(%r13), %rax
 4872 08cc FF5008   		call	*8(%rax)
 4873              	.LVL603:
1165:fltk-1.3.4-1/jpeg/jdmarker.c ****       return JPEG_REACHED_EOI;
 4874              		.loc 1 1165 7 view .LVU1601
1166:fltk-1.3.4-1/jpeg/jdmarker.c **** 
 4875              		.loc 1 1166 14 is_stmt 0 view .LVU1602
 4876 08cf B8020000 		movl	$2, %eax
 4876      00
1165:fltk-1.3.4-1/jpeg/jdmarker.c ****       return JPEG_REACHED_EOI;
 4877              		.loc 1 1165 28 view .LVU1603
 4878 08d4 41C7853C 		movl	$0, 572(%r13)
 4878      02000000 
 4878      000000
1166:fltk-1.3.4-1/jpeg/jdmarker.c **** 
 4879              		.loc 1 1166 7 is_stmt 1 view .LVU1604
1248:fltk-1.3.4-1/jpeg/jdmarker.c **** 
 4880              		.loc 1 1248 1 is_stmt 0 view .LVU1605
 4881 08df 4883C428 		addq	$40, %rsp
 4882              		.cfi_remember_state
 4883              		.cfi_def_cfa_offset 56
 4884 08e3 5B       		popq	%rbx
 4885              		.cfi_def_cfa_offset 48
 4886 08e4 5D       		popq	%rbp
 4887              		.cfi_def_cfa_offset 40
 4888 08e5 415C     		popq	%r12
 4889              		.cfi_def_cfa_offset 32
 4890 08e7 415D     		popq	%r13
 4891              		.cfi_def_cfa_offset 24
 4892              	.LVL604:
1248:fltk-1.3.4-1/jpeg/jdmarker.c **** 
 4893              		.loc 1 1248 1 view .LVU1606
 4894 08e9 415E     		popq	%r14
 4895              		.cfi_def_cfa_offset 16
 4896 08eb 415F     		popq	%r15
 4897              		.cfi_def_cfa_offset 8
 4898 08ed C3       		ret
 4899              	.LVL605:
 4900              	.L335:
 4901              		.cfi_restore_state
1135:fltk-1.3.4-1/jpeg/jdmarker.c **** 	return JPEG_SUSPENDED;
 4902              		.loc 1 1135 7 is_stmt 1 view .LVU1607
1135:fltk-1.3.4-1/jpeg/jdmarker.c **** 	return JPEG_SUSPENDED;
 4903              		.loc 1 1135 13 is_stmt 0 view .LVU1608
 4904 08ee B9010000 		movl	$1, %ecx
 4904      00
 4905 08f3 31D2     		xorl	%edx, %edx
 4906              	.L709:
1140:fltk-1.3.4-1/jpeg/jdmarker.c **** 	return JPEG_SUSPENDED;
 4907              		.loc 1 1140 13 view .LVU1609
 4908 08f5 31F6     		xorl	%esi, %esi
 4909 08f7 4C89EF   		movq	%r13, %rdi
 4910 08fa E8000000 		call	get_sof
 4910      00
 4911              	.LVL606:
1140:fltk-1.3.4-1/jpeg/jdmarker.c **** 	return JPEG_SUSPENDED;
 4912              		.loc 1 1140 10 view .LVU1610
 4913 08ff 85C0     		testl	%eax, %eax
 4914 0901 0F8559F7 		jne	.L342
 4914      FFFF
 4915 0907 E93EF9FF 		jmp	.L315
 4915      FF
 4916              	.L336:
1174:fltk-1.3.4-1/jpeg/jdmarker.c **** 	return JPEG_SUSPENDED;
 4917              		.loc 1 1174 7 is_stmt 1 view .LVU1611
1174:fltk-1.3.4-1/jpeg/jdmarker.c **** 	return JPEG_SUSPENDED;
 4918              		.loc 1 1174 13 is_stmt 0 view .LVU1612
 4919 090c 4C89EF   		movq	%r13, %rdi
 4920 090f E8000000 		call	get_dht
 4920      00
 4921              	.LVL607:
1174:fltk-1.3.4-1/jpeg/jdmarker.c **** 	return JPEG_SUSPENDED;
 4922              		.loc 1 1174 10 view .LVU1613
 4923 0914 85C0     		testl	%eax, %eax
 4924 0916 0F8544F7 		jne	.L342
 4924      FFFF
 4925 091c E929F9FF 		jmp	.L315
 4925      FF
 4926              	.L332:
1154:fltk-1.3.4-1/jpeg/jdmarker.c ****       break;
 4927              		.loc 1 1154 7 is_stmt 1 view .LVU1614
 4928 0921 498B4500 		movq	0(%r13), %rax
 4929 0925 C740283F 		movl	$63, 40(%rax)
 4929      000000
 4930              	.L703:
1242:fltk-1.3.4-1/jpeg/jdmarker.c ****       break;
 4931              		.loc 1 1242 7 is_stmt 0 view .LVU1615
 4932 092c 498B4500 		movq	0(%r13), %rax
 4933 0930 418B953C 		movl	572(%r13), %edx
 4933      020000
 4934 0937 4C89EF   		movq	%r13, %rdi
 4935 093a 89502C   		movl	%edx, 44(%rax)
 4936 093d 498B4500 		movq	0(%r13), %rax
 4937 0941 FF10     		call	*(%rax)
 4938              	.LVL608:
1243:fltk-1.3.4-1/jpeg/jdmarker.c ****     }
 4939              		.loc 1 1243 7 is_stmt 1 view .LVU1616
 4940 0943 E918F7FF 		jmp	.L342
 4940      FF
 4941              	.L337:
1130:fltk-1.3.4-1/jpeg/jdmarker.c **** 	return JPEG_SUSPENDED;
 4942              		.loc 1 1130 7 view .LVU1617
1130:fltk-1.3.4-1/jpeg/jdmarker.c **** 	return JPEG_SUSPENDED;
 4943              		.loc 1 1130 13 is_stmt 0 view .LVU1618
 4944 0948 31C9     		xorl	%ecx, %ecx
 4945 094a BA010000 		movl	$1, %edx
 4945      00
 4946 094f EBA4     		jmp	.L709
 4947              	.L338:
1125:fltk-1.3.4-1/jpeg/jdmarker.c **** 	return JPEG_SUSPENDED;
 4948              		.loc 1 1125 7 is_stmt 1 view .LVU1619
1125:fltk-1.3.4-1/jpeg/jdmarker.c **** 	return JPEG_SUSPENDED;
 4949              		.loc 1 1125 13 is_stmt 0 view .LVU1620
 4950 0951 31C9     		xorl	%ecx, %ecx
 4951 0953 31D2     		xorl	%edx, %edx
 4952 0955 EB9E     		jmp	.L709
 4953              	.L339:
1120:fltk-1.3.4-1/jpeg/jdmarker.c **** 	return JPEG_SUSPENDED;
 4954              		.loc 1 1120 7 is_stmt 1 view .LVU1621
1120:fltk-1.3.4-1/jpeg/jdmarker.c **** 	return JPEG_SUSPENDED;
 4955              		.loc 1 1120 13 is_stmt 0 view .LVU1622
 4956 0957 31C9     		xorl	%ecx, %ecx
 4957 0959 31D2     		xorl	%edx, %edx
 4958 095b BE010000 		movl	$1, %esi
 4958      00
 4959 0960 4C89EF   		movq	%r13, %rdi
 4960 0963 E8000000 		call	get_sof
 4960      00
 4961              	.LVL609:
1120:fltk-1.3.4-1/jpeg/jdmarker.c **** 	return JPEG_SUSPENDED;
 4962              		.loc 1 1120 10 view .LVU1623
 4963 0968 85C0     		testl	%eax, %eax
 4964 096a 0F85F0F6 		jne	.L342
 4964      FFFF
 4965 0970 E9D5F8FF 		jmp	.L315
 4965      FF
 4966              	.L321:
1242:fltk-1.3.4-1/jpeg/jdmarker.c ****       break;
 4967              		.loc 1 1242 7 is_stmt 1 view .LVU1624
 4968 0975 498B4500 		movq	0(%r13), %rax
 4969 0979 C7402846 		movl	$70, 40(%rax)
 4969      000000
 4970 0980 EBAA     		jmp	.L703
 4971              	.L333:
1169:fltk-1.3.4-1/jpeg/jdmarker.c **** 	return JPEG_SUSPENDED;
 4972              		.loc 1 1169 7 view .LVU1625
 4973              	.LVL610:
 4974              	.LBB133:
 4975              	.LBI133:
 413:fltk-1.3.4-1/jpeg/jdmarker.c **** /* Process a DAC marker */
 4976              		.loc 1 413 1 view .LVU1626
 4977              	.LBB134:
 416:fltk-1.3.4-1/jpeg/jdmarker.c ****   int index, val;
 4978              		.loc 1 416 3 view .LVU1627
 417:fltk-1.3.4-1/jpeg/jdmarker.c ****   INPUT_VARS(cinfo);
 4979              		.loc 1 417 3 view .LVU1628
 418:fltk-1.3.4-1/jpeg/jdmarker.c **** 
 4980              		.loc 1 418 3 view .LVU1629
 4981 0982 4D8B6528 		movq	40(%r13), %r12
 4982              	.LVL611:
 418:fltk-1.3.4-1/jpeg/jdmarker.c **** 
 4983              		.loc 1 418 3 view .LVU1630
 418:fltk-1.3.4-1/jpeg/jdmarker.c **** 
 4984              		.loc 1 418 3 view .LVU1631
 4985 0986 498B5C24 		movq	8(%r12), %rbx
 4985      08
 4986              	.LVL612:
 420:fltk-1.3.4-1/jpeg/jdmarker.c ****   length -= 2;
 4987              		.loc 1 420 3 view .LVU1632
 420:fltk-1.3.4-1/jpeg/jdmarker.c ****   length -= 2;
 4988              		.loc 1 420 3 view .LVU1633
 4989 098b 4885DB   		testq	%rbx, %rbx
 4990 098e 0F841403 		je	.L373
 4990      0000
 418:fltk-1.3.4-1/jpeg/jdmarker.c **** 
 4991              		.loc 1 418 3 is_stmt 0 view .LVU1634
 4992 0994 498B1424 		movq	(%r12), %rdx
 420:fltk-1.3.4-1/jpeg/jdmarker.c ****   length -= 2;
 4993              		.loc 1 420 3 is_stmt 1 view .LVU1635
 420:fltk-1.3.4-1/jpeg/jdmarker.c ****   length -= 2;
 4994              		.loc 1 420 3 view .LVU1636
 4995              	.LVL613:
 420:fltk-1.3.4-1/jpeg/jdmarker.c ****   length -= 2;
 4996              		.loc 1 420 3 view .LVU1637
 420:fltk-1.3.4-1/jpeg/jdmarker.c ****   length -= 2;
 4997              		.loc 1 420 3 is_stmt 0 view .LVU1638
 4998 0998 0FB602   		movzbl	(%rdx), %eax
 4999 099b C1E008   		sall	$8, %eax
 5000 099e 89C5     		movl	%eax, %ebp
 5001              	.LVL614:
 420:fltk-1.3.4-1/jpeg/jdmarker.c ****   length -= 2;
 5002              		.loc 1 420 3 is_stmt 1 view .LVU1639
 5003 09a0 4883EB01 		subq	$1, %rbx
 5004              	.LVL615:
 420:fltk-1.3.4-1/jpeg/jdmarker.c ****   length -= 2;
 5005              		.loc 1 420 3 is_stmt 0 view .LVU1640
 5006 09a4 0F842903 		je	.L375
 5006      0000
 5007              	.LVL616:
 5008              	.L724:
 420:fltk-1.3.4-1/jpeg/jdmarker.c ****   length -= 2;
 5009              		.loc 1 420 3 view .LVU1641
 5010 09aa 4883C201 		addq	$1, %rdx
 5011              	.L376:
 5012              	.LVL617:
 420:fltk-1.3.4-1/jpeg/jdmarker.c ****   length -= 2;
 5013              		.loc 1 420 3 is_stmt 1 view .LVU1642
 420:fltk-1.3.4-1/jpeg/jdmarker.c ****   length -= 2;
 5014              		.loc 1 420 3 view .LVU1643
 5015 09ae 0FB602   		movzbl	(%rdx), %eax
 5016 09b1 4883EB01 		subq	$1, %rbx
 5017              	.LVL618:
 420:fltk-1.3.4-1/jpeg/jdmarker.c ****   length -= 2;
 5018              		.loc 1 420 3 view .LVU1644
 5019 09b5 4C8D7A01 		leaq	1(%rdx), %r15
 5020              	.LVL619:
 420:fltk-1.3.4-1/jpeg/jdmarker.c ****   length -= 2;
 5021              		.loc 1 420 3 view .LVU1645
 421:fltk-1.3.4-1/jpeg/jdmarker.c ****   
 5022              		.loc 1 421 3 view .LVU1646
 421:fltk-1.3.4-1/jpeg/jdmarker.c ****   
 5023              		.loc 1 421 10 is_stmt 0 view .LVU1647
 5024 09b9 488D4405 		leaq	-2(%rbp,%rax), %rax
 5024      FE
 5025              	.LVL620:
 421:fltk-1.3.4-1/jpeg/jdmarker.c ****   
 5026              		.loc 1 421 10 view .LVU1648
 5027 09be 48894424 		movq	%rax, 24(%rsp)
 5027      18
 5028              	.LVL621:
 423:fltk-1.3.4-1/jpeg/jdmarker.c ****     INPUT_BYTE(cinfo, index, return FALSE);
 5029              		.loc 1 423 3 is_stmt 1 view .LVU1649
 423:fltk-1.3.4-1/jpeg/jdmarker.c ****     INPUT_BYTE(cinfo, index, return FALSE);
 5030              		.loc 1 423 9 view .LVU1650
 5031 09c3 4885C0   		testq	%rax, %rax
 5032 09c6 0F8E4901 		jle	.L377
 5032      0000
 5033 09cc 4889C1   		movq	%rax, %rcx
 5034 09cf EB24     		jmp	.L384
 5035              	.LVL622:
 5036              		.p2align 4,,10
 5037 09d1 0F1F8000 		.p2align 3
 5037      000000
 5038              	.L722:
 435:fltk-1.3.4-1/jpeg/jdmarker.c ****     } else {			/* define DC table */
 5039              		.loc 1 435 7 view .LVU1651
 435:fltk-1.3.4-1/jpeg/jdmarker.c ****     } else {			/* define DC table */
 5040              		.loc 1 435 30 is_stmt 0 view .LVU1652
 5041 09d8 458D46F0 		leal	-16(%r14), %r8d
 435:fltk-1.3.4-1/jpeg/jdmarker.c ****     } else {			/* define DC table */
 5042              		.loc 1 435 47 view .LVU1653
 5043 09dc 4D63C0   		movslq	%r8d, %r8
 5044 09df 4388AC05 		movb	%bpl, 356(%r13,%r8)
 5044      64010000 
 5045              	.LVL623:
 5046              	.L383:
 423:fltk-1.3.4-1/jpeg/jdmarker.c ****     INPUT_BYTE(cinfo, index, return FALSE);
 5047              		.loc 1 423 9 is_stmt 1 view .LVU1654
 5048 09e7 488B4C24 		movq	8(%rsp), %rcx
 5048      08
 5049 09ec 4885C9   		testq	%rcx, %rcx
 5050 09ef 0F8E2001 		jle	.L377
 5050      0000
 5051              	.LVL624:
 5052              	.L384:
 424:fltk-1.3.4-1/jpeg/jdmarker.c ****     INPUT_BYTE(cinfo, val, return FALSE);
 5053              		.loc 1 424 5 view .LVU1655
 424:fltk-1.3.4-1/jpeg/jdmarker.c ****     INPUT_BYTE(cinfo, val, return FALSE);
 5054              		.loc 1 424 5 view .LVU1656
 5055 09f5 4885DB   		testq	%rbx, %rbx
 5056 09f8 7521     		jne	.L378
 424:fltk-1.3.4-1/jpeg/jdmarker.c ****     INPUT_BYTE(cinfo, val, return FALSE);
 5057              		.loc 1 424 5 is_stmt 0 view .LVU1657
 5058 09fa 48890C24 		movq	%rcx, (%rsp)
 424:fltk-1.3.4-1/jpeg/jdmarker.c ****     INPUT_BYTE(cinfo, val, return FALSE);
 5059              		.loc 1 424 5 is_stmt 1 view .LVU1658
 5060 09fe 4C89EF   		movq	%r13, %rdi
 5061 0a01 41FF5424 		call	*24(%r12)
 5061      18
 5062              	.LVL625:
 424:fltk-1.3.4-1/jpeg/jdmarker.c ****     INPUT_BYTE(cinfo, val, return FALSE);
 5063              		.loc 1 424 5 is_stmt 0 view .LVU1659
 5064 0a06 85C0     		testl	%eax, %eax
 5065 0a08 0F843CF8 		je	.L315
 5065      FFFF
 424:fltk-1.3.4-1/jpeg/jdmarker.c ****     INPUT_BYTE(cinfo, val, return FALSE);
 5066              		.loc 1 424 5 is_stmt 1 view .LVU1660
 5067 0a0e 4D8B3C24 		movq	(%r12), %r15
 5068              	.LVL626:
 424:fltk-1.3.4-1/jpeg/jdmarker.c ****     INPUT_BYTE(cinfo, val, return FALSE);
 5069              		.loc 1 424 5 is_stmt 0 view .LVU1661
 5070 0a12 498B5C24 		movq	8(%r12), %rbx
 5070      08
 5071              	.LVL627:
 424:fltk-1.3.4-1/jpeg/jdmarker.c ****     INPUT_BYTE(cinfo, val, return FALSE);
 5072              		.loc 1 424 5 view .LVU1662
 5073 0a17 488B0C24 		movq	(%rsp), %rcx
 5074              	.LVL628:
 5075              	.L378:
 424:fltk-1.3.4-1/jpeg/jdmarker.c ****     INPUT_BYTE(cinfo, val, return FALSE);
 5076              		.loc 1 424 5 is_stmt 1 view .LVU1663
 424:fltk-1.3.4-1/jpeg/jdmarker.c ****     INPUT_BYTE(cinfo, val, return FALSE);
 5077              		.loc 1 424 5 view .LVU1664
 424:fltk-1.3.4-1/jpeg/jdmarker.c ****     INPUT_BYTE(cinfo, val, return FALSE);
 5078              		.loc 1 424 5 view .LVU1665
 424:fltk-1.3.4-1/jpeg/jdmarker.c ****     INPUT_BYTE(cinfo, val, return FALSE);
 5079              		.loc 1 424 5 is_stmt 0 view .LVU1666
 5080 0a1b 450FB637 		movzbl	(%r15), %r14d
 425:fltk-1.3.4-1/jpeg/jdmarker.c **** 
 5081              		.loc 1 425 5 view .LVU1667
 5082 0a1f 4883EB01 		subq	$1, %rbx
 5083              	.LVL629:
 424:fltk-1.3.4-1/jpeg/jdmarker.c ****     INPUT_BYTE(cinfo, val, return FALSE);
 5084              		.loc 1 424 5 view .LVU1668
 5085 0a23 498D4701 		leaq	1(%r15), %rax
 5086              	.LVL630:
 424:fltk-1.3.4-1/jpeg/jdmarker.c ****     INPUT_BYTE(cinfo, val, return FALSE);
 5087              		.loc 1 424 5 view .LVU1669
 5088 0a27 44883424 		movb	%r14b, (%rsp)
 5089              	.LVL631:
 424:fltk-1.3.4-1/jpeg/jdmarker.c ****     INPUT_BYTE(cinfo, val, return FALSE);
 5090              		.loc 1 424 5 is_stmt 1 view .LVU1670
 425:fltk-1.3.4-1/jpeg/jdmarker.c **** 
 5091              		.loc 1 425 5 view .LVU1671
 425:fltk-1.3.4-1/jpeg/jdmarker.c **** 
 5092              		.loc 1 425 5 view .LVU1672
 5093 0a2b 7523     		jne	.L380
 5094 0a2d 48894C24 		movq	%rcx, 8(%rsp)
 5094      08
 425:fltk-1.3.4-1/jpeg/jdmarker.c **** 
 5095              		.loc 1 425 5 view .LVU1673
 5096 0a32 4C89EF   		movq	%r13, %rdi
 5097 0a35 41FF5424 		call	*24(%r12)
 5097      18
 5098              	.LVL632:
 425:fltk-1.3.4-1/jpeg/jdmarker.c **** 
 5099              		.loc 1 425 5 is_stmt 0 view .LVU1674
 5100 0a3a 85C0     		testl	%eax, %eax
 5101 0a3c 0F8408F8 		je	.L315
 5101      FFFF
 425:fltk-1.3.4-1/jpeg/jdmarker.c **** 
 5102              		.loc 1 425 5 is_stmt 1 view .LVU1675
 5103 0a42 498B0424 		movq	(%r12), %rax
 5104              	.LVL633:
 425:fltk-1.3.4-1/jpeg/jdmarker.c **** 
 5105              		.loc 1 425 5 is_stmt 0 view .LVU1676
 5106 0a46 498B5C24 		movq	8(%r12), %rbx
 5106      08
 5107              	.LVL634:
 425:fltk-1.3.4-1/jpeg/jdmarker.c **** 
 5108              		.loc 1 425 5 view .LVU1677
 5109 0a4b 488B4C24 		movq	8(%rsp), %rcx
 5109      08
 5110              	.LVL635:
 5111              	.L380:
 425:fltk-1.3.4-1/jpeg/jdmarker.c **** 
 5112              		.loc 1 425 5 is_stmt 1 view .LVU1678
 425:fltk-1.3.4-1/jpeg/jdmarker.c **** 
 5113              		.loc 1 425 5 view .LVU1679
 5114 0a50 0FB630   		movzbl	(%rax), %esi
 5115 0a53 4C8D7801 		leaq	1(%rax), %r15
 5116 0a57 488D41FE 		leaq	-2(%rcx), %rax
 5117              	.LVL636:
 425:fltk-1.3.4-1/jpeg/jdmarker.c **** 
 5118              		.loc 1 425 5 is_stmt 0 view .LVU1680
 5119 0a5b 4883EB01 		subq	$1, %rbx
 5120              	.LVL637:
 425:fltk-1.3.4-1/jpeg/jdmarker.c **** 
 5121              		.loc 1 425 5 is_stmt 1 view .LVU1681
 425:fltk-1.3.4-1/jpeg/jdmarker.c **** 
 5122              		.loc 1 425 5 is_stmt 0 view .LVU1682
 5123 0a5f 48894424 		movq	%rax, 8(%rsp)
 5123      08
 429:fltk-1.3.4-1/jpeg/jdmarker.c **** 
 5124              		.loc 1 429 5 view .LVU1683
 5125 0a64 4C89EF   		movq	%r13, %rdi
 5126 0a67 48894424 		movq	%rax, 24(%rsp)
 5126      18
 5127 0a6c 498B4500 		movq	0(%r13), %rax
 425:fltk-1.3.4-1/jpeg/jdmarker.c **** 
 5128              		.loc 1 425 5 view .LVU1684
 5129 0a70 89F5     		movl	%esi, %ebp
 5130 0a72 89742410 		movl	%esi, 16(%rsp)
 5131              	.LVL638:
 425:fltk-1.3.4-1/jpeg/jdmarker.c **** 
 5132              		.loc 1 425 5 is_stmt 1 view .LVU1685
 427:fltk-1.3.4-1/jpeg/jdmarker.c **** 
 5133              		.loc 1 427 5 view .LVU1686
 429:fltk-1.3.4-1/jpeg/jdmarker.c **** 
 5134              		.loc 1 429 5 view .LVU1687
 5135 0a76 C7402851 		movl	$81, 40(%rax)
 5135      000000
 5136 0a7d 498B4500 		movq	0(%r13), %rax
 5137 0a81 4489702C 		movl	%r14d, 44(%rax)
 5138 0a85 498B4500 		movq	0(%r13), %rax
 5139 0a89 897030   		movl	%esi, 48(%rax)
 5140 0a8c 498B4500 		movq	0(%r13), %rax
 5141 0a90 BE010000 		movl	$1, %esi
 5141      00
 5142              	.LVL639:
 429:fltk-1.3.4-1/jpeg/jdmarker.c **** 
 5143              		.loc 1 429 5 is_stmt 0 view .LVU1688
 5144 0a95 FF5008   		call	*8(%rax)
 5145              	.LVL640:
 431:fltk-1.3.4-1/jpeg/jdmarker.c ****       ERREXIT1(cinfo, JERR_DAC_INDEX, index);
 5146              		.loc 1 431 5 is_stmt 1 view .LVU1689
 431:fltk-1.3.4-1/jpeg/jdmarker.c ****       ERREXIT1(cinfo, JERR_DAC_INDEX, index);
 5147              		.loc 1 431 8 is_stmt 0 view .LVU1690
 5148 0a98 803C241F 		cmpb	$31, (%rsp)
 5149 0a9c 761C     		jbe	.L381
 432:fltk-1.3.4-1/jpeg/jdmarker.c **** 
 5150              		.loc 1 432 7 is_stmt 1 view .LVU1691
 5151 0a9e 498B4500 		movq	0(%r13), %rax
 5152 0aa2 4C89EF   		movq	%r13, %rdi
 5153 0aa5 C740281D 		movl	$29, 40(%rax)
 5153      000000
 5154 0aac 498B4500 		movq	0(%r13), %rax
 5155 0ab0 4489702C 		movl	%r14d, 44(%rax)
 5156 0ab4 498B4500 		movq	0(%r13), %rax
 5157 0ab8 FF10     		call	*(%rax)
 5158              	.LVL641:
 5159              	.L381:
 434:fltk-1.3.4-1/jpeg/jdmarker.c ****       cinfo->arith_ac_K[index-NUM_ARITH_TBLS] = (UINT8) val;
 5160              		.loc 1 434 5 view .LVU1692
 434:fltk-1.3.4-1/jpeg/jdmarker.c ****       cinfo->arith_ac_K[index-NUM_ARITH_TBLS] = (UINT8) val;
 5161              		.loc 1 434 8 is_stmt 0 view .LVU1693
 5162 0aba 4183FE0F 		cmpl	$15, %r14d
 5163 0abe 0F8F14FF 		jg	.L722
 5163      FFFF
 437:fltk-1.3.4-1/jpeg/jdmarker.c ****       cinfo->arith_dc_U[index] = (UINT8) (val >> 4);
 5164              		.loc 1 437 7 is_stmt 1 view .LVU1694
 438:fltk-1.3.4-1/jpeg/jdmarker.c ****       if (cinfo->arith_dc_L[index] > cinfo->arith_dc_U[index])
 5165              		.loc 1 438 47 is_stmt 0 view .LVU1695
 5166 0ac4 8B742410 		movl	16(%rsp), %esi
 437:fltk-1.3.4-1/jpeg/jdmarker.c ****       cinfo->arith_dc_U[index] = (UINT8) (val >> 4);
 5167              		.loc 1 437 32 view .LVU1696
 5168 0ac8 4D63C6   		movslq	%r14d, %r8
 437:fltk-1.3.4-1/jpeg/jdmarker.c ****       cinfo->arith_dc_U[index] = (UINT8) (val >> 4);
 5169              		.loc 1 437 34 view .LVU1697
 5170 0acb 83E50F   		andl	$15, %ebp
 5171              	.LVL642:
 437:fltk-1.3.4-1/jpeg/jdmarker.c ****       cinfo->arith_dc_U[index] = (UINT8) (val >> 4);
 5172              		.loc 1 437 32 view .LVU1698
 5173 0ace 4388AC05 		movb	%bpl, 324(%r13,%r8)
 5173      44010000 
 438:fltk-1.3.4-1/jpeg/jdmarker.c ****       if (cinfo->arith_dc_L[index] > cinfo->arith_dc_U[index])
 5174              		.loc 1 438 7 is_stmt 1 view .LVU1699
 438:fltk-1.3.4-1/jpeg/jdmarker.c ****       if (cinfo->arith_dc_L[index] > cinfo->arith_dc_U[index])
 5175              		.loc 1 438 47 is_stmt 0 view .LVU1700
 5176 0ad6 89F0     		movl	%esi, %eax
 5177 0ad8 C1F804   		sarl	$4, %eax
 438:fltk-1.3.4-1/jpeg/jdmarker.c ****       if (cinfo->arith_dc_L[index] > cinfo->arith_dc_U[index])
 5178              		.loc 1 438 32 view .LVU1701
 5179 0adb 43888405 		movb	%al, 340(%r13,%r8)
 5179      54010000 
 439:fltk-1.3.4-1/jpeg/jdmarker.c **** 	ERREXIT1(cinfo, JERR_DAC_VALUE, val);
 5180              		.loc 1 439 7 is_stmt 1 view .LVU1702
 439:fltk-1.3.4-1/jpeg/jdmarker.c **** 	ERREXIT1(cinfo, JERR_DAC_VALUE, val);
 5181              		.loc 1 439 10 is_stmt 0 view .LVU1703
 5182 0ae3 4038C5   		cmpb	%al, %bpl
 5183 0ae6 0F86FBFE 		jbe	.L383
 5183      FFFF
 440:fltk-1.3.4-1/jpeg/jdmarker.c ****     }
 5184              		.loc 1 440 2 is_stmt 1 view .LVU1704
 5185 0aec 498B4500 		movq	0(%r13), %rax
 5186 0af0 4C89EF   		movq	%r13, %rdi
 5187 0af3 C740281E 		movl	$30, 40(%rax)
 5187      000000
 5188 0afa 498B4500 		movq	0(%r13), %rax
 5189 0afe 89702C   		movl	%esi, 44(%rax)
 5190 0b01 498B4500 		movq	0(%r13), %rax
 5191 0b05 FF10     		call	*(%rax)
 5192              	.LVL643:
 423:fltk-1.3.4-1/jpeg/jdmarker.c ****     INPUT_BYTE(cinfo, index, return FALSE);
 5193              		.loc 1 423 9 view .LVU1705
 5194 0b07 488B4C24 		movq	8(%rsp), %rcx
 5194      08
 5195 0b0c 4885C9   		testq	%rcx, %rcx
 5196 0b0f 0F8FE0FE 		jg	.L384
 5196      FFFF
 5197              	.LVL644:
 5198              	.L377:
 444:fltk-1.3.4-1/jpeg/jdmarker.c ****     ERREXIT(cinfo, JERR_BAD_LENGTH);
 5199              		.loc 1 444 3 view .LVU1706
 444:fltk-1.3.4-1/jpeg/jdmarker.c ****     ERREXIT(cinfo, JERR_BAD_LENGTH);
 5200              		.loc 1 444 6 is_stmt 0 view .LVU1707
 5201 0b15 48837C24 		cmpq	$0, 24(%rsp)
 5201      1800
 5202 0b1b 7414     		je	.L385
 445:fltk-1.3.4-1/jpeg/jdmarker.c **** 
 5203              		.loc 1 445 5 is_stmt 1 view .LVU1708
 5204 0b1d 498B4500 		movq	0(%r13), %rax
 5205 0b21 4C89EF   		movq	%r13, %rdi
 5206 0b24 C740280C 		movl	$12, 40(%rax)
 5206      000000
 5207 0b2b 498B4500 		movq	0(%r13), %rax
 5208 0b2f FF10     		call	*(%rax)
 5209              	.LVL645:
 5210              	.L385:
 447:fltk-1.3.4-1/jpeg/jdmarker.c ****   return TRUE;
 5211              		.loc 1 447 3 view .LVU1709
 5212 0b31 4D893C24 		movq	%r15, (%r12)
 5213 0b35 49895C24 		movq	%rbx, 8(%r12)
 5213      08
 448:fltk-1.3.4-1/jpeg/jdmarker.c **** }
 5214              		.loc 1 448 3 view .LVU1710
 5215              	.LVL646:
 448:fltk-1.3.4-1/jpeg/jdmarker.c **** }
 5216              		.loc 1 448 3 is_stmt 0 view .LVU1711
 5217 0b3a E921F5FF 		jmp	.L342
 5217      FF
 5218              	.L334:
 448:fltk-1.3.4-1/jpeg/jdmarker.c **** }
 5219              		.loc 1 448 3 view .LVU1712
 5220              	.LBE134:
 5221              	.LBE133:
1140:fltk-1.3.4-1/jpeg/jdmarker.c **** 	return JPEG_SUSPENDED;
 5222              		.loc 1 1140 7 is_stmt 1 view .LVU1713
1140:fltk-1.3.4-1/jpeg/jdmarker.c **** 	return JPEG_SUSPENDED;
 5223              		.loc 1 1140 13 is_stmt 0 view .LVU1714
 5224 0b3f B9010000 		movl	$1, %ecx
 5224      00
 5225 0b44 BA010000 		movl	$1, %edx
 5225      00
 5226 0b49 E9A7FDFF 		jmp	.L709
 5226      FF
 5227              	.L331:
1115:fltk-1.3.4-1/jpeg/jdmarker.c **** 	return JPEG_SUSPENDED;
 5228              		.loc 1 1115 7 is_stmt 1 view .LVU1715
 5229              	.LVL647:
 5230              	.LBB136:
 5231              	.LBI136:
 199:fltk-1.3.4-1/jpeg/jdmarker.c **** /* Process an SOI marker */
 5232              		.loc 1 199 1 view .LVU1716
 5233              	.LBB137:
 202:fltk-1.3.4-1/jpeg/jdmarker.c ****   
 5234              		.loc 1 202 3 view .LVU1717
 204:fltk-1.3.4-1/jpeg/jdmarker.c **** 
 5235              		.loc 1 204 3 view .LVU1718
 5236 0b4e 498B4500 		movq	0(%r13), %rax
 5237 0b52 BE010000 		movl	$1, %esi
 5237      00
 5238 0b57 4C89EF   		movq	%r13, %rdi
 5239 0b5a C7402868 		movl	$104, 40(%rax)
 5239      000000
 5240 0b61 498B4500 		movq	0(%r13), %rax
 5241 0b65 FF5008   		call	*8(%rax)
 5242              	.LVL648:
 206:fltk-1.3.4-1/jpeg/jdmarker.c ****     ERREXIT(cinfo, JERR_SOI_DUPLICATE);
 5243              		.loc 1 206 3 view .LVU1719
 206:fltk-1.3.4-1/jpeg/jdmarker.c ****     ERREXIT(cinfo, JERR_SOI_DUPLICATE);
 5244              		.loc 1 206 12 is_stmt 0 view .LVU1720
 5245 0b68 498B8D68 		movq	616(%r13), %rcx
 5245      020000
 206:fltk-1.3.4-1/jpeg/jdmarker.c ****     ERREXIT(cinfo, JERR_SOI_DUPLICATE);
 5246              		.loc 1 206 6 view .LVU1721
 5247 0b6f 8B6918   		movl	24(%rcx), %ebp
 5248 0b72 85ED     		testl	%ebp, %ebp
 5249 0b74 741B     		je	.L340
 207:fltk-1.3.4-1/jpeg/jdmarker.c **** 
 5250              		.loc 1 207 5 is_stmt 1 view .LVU1722
 5251 0b76 498B4500 		movq	0(%r13), %rax
 5252 0b7a 4C89EF   		movq	%r13, %rdi
 5253 0b7d C7402840 		movl	$64, 40(%rax)
 5253      000000
 5254 0b84 498B4500 		movq	0(%r13), %rax
 5255 0b88 FF10     		call	*(%rax)
 5256              	.LVL649:
 5257 0b8a 498B8D68 		movq	616(%r13), %rcx
 5257      020000
 5258              	.L340:
 207:fltk-1.3.4-1/jpeg/jdmarker.c **** 
 5259              		.loc 1 207 5 is_stmt 0 view .LVU1723
 5260 0b91 498D8544 		leaq	324(%r13), %rax
 5260      010000
 5261 0b98 498D9554 		leaq	340(%r13), %rdx
 5261      010000
 5262 0b9f 90       		.p2align 4,,10
 5263              		.p2align 3
 5264              	.L341:
 5265              	.LVL650:
 212:fltk-1.3.4-1/jpeg/jdmarker.c ****     cinfo->arith_dc_U[i] = 1;
 5266              		.loc 1 212 5 is_stmt 1 view .LVU1724
 212:fltk-1.3.4-1/jpeg/jdmarker.c ****     cinfo->arith_dc_U[i] = 1;
 5267              		.loc 1 212 26 is_stmt 0 view .LVU1725
 5268 0ba0 C60000   		movb	$0, (%rax)
 213:fltk-1.3.4-1/jpeg/jdmarker.c ****     cinfo->arith_ac_K[i] = 5;
 5269              		.loc 1 213 5 is_stmt 1 view .LVU1726
 5270 0ba3 4883C001 		addq	$1, %rax
 5271              	.LVL651:
 213:fltk-1.3.4-1/jpeg/jdmarker.c ****     cinfo->arith_ac_K[i] = 5;
 5272              		.loc 1 213 26 is_stmt 0 view .LVU1727
 5273 0ba7 C6400F01 		movb	$1, 15(%rax)
 214:fltk-1.3.4-1/jpeg/jdmarker.c ****   }
 5274              		.loc 1 214 5 is_stmt 1 view .LVU1728
 214:fltk-1.3.4-1/jpeg/jdmarker.c ****   }
 5275              		.loc 1 214 26 is_stmt 0 view .LVU1729
 5276 0bab C6401F05 		movb	$5, 31(%rax)
 211:fltk-1.3.4-1/jpeg/jdmarker.c ****     cinfo->arith_dc_L[i] = 0;
 5277              		.loc 1 211 35 is_stmt 1 view .LVU1730
 211:fltk-1.3.4-1/jpeg/jdmarker.c ****     cinfo->arith_dc_L[i] = 0;
 5278              		.loc 1 211 15 view .LVU1731
 211:fltk-1.3.4-1/jpeg/jdmarker.c ****     cinfo->arith_dc_L[i] = 0;
 5279              		.loc 1 211 3 is_stmt 0 view .LVU1732
 5280 0baf 4839C2   		cmpq	%rax, %rdx
 5281 0bb2 75EC     		jne	.L341
 216:fltk-1.3.4-1/jpeg/jdmarker.c **** 
 5282              		.loc 1 216 3 is_stmt 1 view .LVU1733
 220:fltk-1.3.4-1/jpeg/jdmarker.c ****   cinfo->color_transform = JCT_NONE;
 5283              		.loc 1 220 3 view .LVU1734
 225:fltk-1.3.4-1/jpeg/jdmarker.c ****   cinfo->JFIF_minor_version = 1;
 5284              		.loc 1 225 29 is_stmt 0 view .LVU1735
 5285 0bb4 BB010100 		movl	$257, %ebx
 5285      00
 220:fltk-1.3.4-1/jpeg/jdmarker.c ****   cinfo->color_transform = JCT_NONE;
 5286              		.loc 1 220 27 view .LVU1736
 5287 0bb9 41C7453C 		movl	$0, 60(%r13)
 5287      00000000 
 221:fltk-1.3.4-1/jpeg/jdmarker.c ****   cinfo->CCIR601_sampling = FALSE; /* Assume non-CCIR sampling??? */
 5288              		.loc 1 221 3 is_stmt 1 view .LVU1737
 222:fltk-1.3.4-1/jpeg/jdmarker.c **** 
 5289              		.loc 1 222 3 view .LVU1738
 221:fltk-1.3.4-1/jpeg/jdmarker.c ****   cinfo->CCIR601_sampling = FALSE; /* Assume non-CCIR sampling??? */
 5290              		.loc 1 221 26 is_stmt 0 view .LVU1739
 5291 0bc1 49C7858C 		movq	$0, 396(%r13)
 5291      01000000 
 5291      000000
 224:fltk-1.3.4-1/jpeg/jdmarker.c ****   cinfo->JFIF_major_version = 1; /* set default JFIF APP0 values */
 5292              		.loc 1 224 3 is_stmt 1 view .LVU1740
 225:fltk-1.3.4-1/jpeg/jdmarker.c ****   cinfo->JFIF_minor_version = 1;
 5293              		.loc 1 225 3 view .LVU1741
 226:fltk-1.3.4-1/jpeg/jdmarker.c ****   cinfo->density_unit = 0;
 5294              		.loc 1 226 3 view .LVU1742
 227:fltk-1.3.4-1/jpeg/jdmarker.c ****   cinfo->X_density = 1;
 5295              		.loc 1 227 3 view .LVU1743
 216:fltk-1.3.4-1/jpeg/jdmarker.c **** 
 5296              		.loc 1 216 27 is_stmt 0 view .LVU1744
 5297 0bcc 49C78574 		movq	$0, 372(%r13)
 5297      01000000 
 5297      000000
 225:fltk-1.3.4-1/jpeg/jdmarker.c ****   cinfo->JFIF_minor_version = 1;
 5298              		.loc 1 225 29 view .LVU1745
 5299 0bd7 6641899D 		movw	%bx, 380(%r13)
 5299      7C010000 
 227:fltk-1.3.4-1/jpeg/jdmarker.c ****   cinfo->X_density = 1;
 5300              		.loc 1 227 23 view .LVU1746
 5301 0bdf 41C6857E 		movb	$0, 382(%r13)
 5301      01000000 
 228:fltk-1.3.4-1/jpeg/jdmarker.c ****   cinfo->Y_density = 1;
 5302              		.loc 1 228 3 is_stmt 1 view .LVU1747
 229:fltk-1.3.4-1/jpeg/jdmarker.c ****   cinfo->saw_Adobe_marker = FALSE;
 5303              		.loc 1 229 3 view .LVU1748
 230:fltk-1.3.4-1/jpeg/jdmarker.c ****   cinfo->Adobe_transform = 0;
 5304              		.loc 1 230 3 view .LVU1749
 231:fltk-1.3.4-1/jpeg/jdmarker.c **** 
 5305              		.loc 1 231 3 view .LVU1750
 228:fltk-1.3.4-1/jpeg/jdmarker.c ****   cinfo->Y_density = 1;
 5306              		.loc 1 228 20 is_stmt 0 view .LVU1751
 5307 0be7 49C78580 		movq	$65537, 384(%r13)
 5307      01000001 
 5307      000100
 231:fltk-1.3.4-1/jpeg/jdmarker.c **** 
 5308              		.loc 1 231 26 view .LVU1752
 5309 0bf2 41C68588 		movb	$0, 392(%r13)
 5309      01000000 
 233:fltk-1.3.4-1/jpeg/jdmarker.c **** 
 5310              		.loc 1 233 3 is_stmt 1 view .LVU1753
 233:fltk-1.3.4-1/jpeg/jdmarker.c **** 
 5311              		.loc 1 233 26 is_stmt 0 view .LVU1754
 5312 0bfa C7411801 		movl	$1, 24(%rcx)
 5312      000000
 235:fltk-1.3.4-1/jpeg/jdmarker.c **** }
 5313              		.loc 1 235 3 is_stmt 1 view .LVU1755
 5314              	.LVL652:
 235:fltk-1.3.4-1/jpeg/jdmarker.c **** }
 5315              		.loc 1 235 3 is_stmt 0 view .LVU1756
 5316              	.LBE137:
 5317              	.LBE136:
 5318 0c01 E95AF4FF 		jmp	.L342
 5318      FF
 5319              	.LVL653:
 5320              	.L477:
 5321              	.LBB138:
 5322              	.LBB95:
 689:fltk-1.3.4-1/jpeg/jdmarker.c ****   if (tmp != 0) goto bad;		/* F3: CENTER3=0, NORM3=0 */
 5323              		.loc 1 689 3 view .LVU1757
 5324 0c06 4989C4   		movq	%rax, %r12
 5325              	.LVL654:
 5326 0c09 0F1F8000 		.p2align 4,,10
 5326      000000
 5327              		.p2align 3
 5328              	.L429:
 696:fltk-1.3.4-1/jpeg/jdmarker.c ****   }
 5329              		.loc 1 696 5 is_stmt 1 view .LVU1758
 5330 0c10 498B4500 		movq	0(%r13), %rax
 5331 0c14 4C89EF   		movq	%r13, %rdi
 5332 0c17 C740281C 		movl	$28, 40(%rax)
 5332      000000
 5333 0c1e 498B4500 		movq	0(%r13), %rax
 5334 0c22 FF10     		call	*(%rax)
 5335              	.LVL655:
 5336              	.L466:
 700:fltk-1.3.4-1/jpeg/jdmarker.c **** 
 5337              		.loc 1 700 3 view .LVU1759
 700:fltk-1.3.4-1/jpeg/jdmarker.c **** 
 5338              		.loc 1 700 26 is_stmt 0 view .LVU1760
 5339 0c24 41C7858C 		movl	$1, 396(%r13)
 5339      01000001 
 5339      000000
 702:fltk-1.3.4-1/jpeg/jdmarker.c ****   return TRUE;
 5340              		.loc 1 702 3 is_stmt 1 view .LVU1761
 5341 0c2f 4C896500 		movq	%r12, 0(%rbp)
 5342 0c33 48895D08 		movq	%rbx, 8(%rbp)
 703:fltk-1.3.4-1/jpeg/jdmarker.c **** }
 5343              		.loc 1 703 3 view .LVU1762
 5344              	.LVL656:
 703:fltk-1.3.4-1/jpeg/jdmarker.c **** }
 5345              		.loc 1 703 3 is_stmt 0 view .LVU1763
 5346 0c37 E924F4FF 		jmp	.L342
 5346      FF
 5347              	.LVL657:
 5348 0c3c 0F1F4000 		.p2align 4,,10
 5349              		.p2align 3
 5350              	.L419:
 703:fltk-1.3.4-1/jpeg/jdmarker.c **** }
 5351              		.loc 1 703 3 view .LVU1764
 5352              	.LBE95:
 5353              	.LBE138:
 5354              	.LBB139:
 5355              	.LBB104:
 629:fltk-1.3.4-1/jpeg/jdmarker.c ****   
 5356              		.loc 1 629 3 is_stmt 1 view .LVU1765
 5357 0c40 4C89EF   		movq	%r13, %rdi
 5358 0c43 41FF5424 		call	*24(%r12)
 5358      18
 5359              	.LVL658:
 629:fltk-1.3.4-1/jpeg/jdmarker.c ****   
 5360              		.loc 1 629 3 is_stmt 0 view .LVU1766
 5361 0c48 85C0     		testl	%eax, %eax
 5362 0c4a 0F84FAF5 		je	.L315
 5362      FFFF
 629:fltk-1.3.4-1/jpeg/jdmarker.c ****   
 5363              		.loc 1 629 3 is_stmt 1 view .LVU1767
 5364 0c50 498B1424 		movq	(%r12), %rdx
 5365              	.LVL659:
 629:fltk-1.3.4-1/jpeg/jdmarker.c ****   
 5366              		.loc 1 629 3 is_stmt 0 view .LVU1768
 5367 0c54 498B4424 		movq	8(%r12), %rax
 5367      08
 5368              	.LVL660:
 629:fltk-1.3.4-1/jpeg/jdmarker.c ****   
 5369              		.loc 1 629 3 view .LVU1769
 5370 0c59 E9A5F6FF 		jmp	.L420
 5370      FF
 5371              	.LVL661:
 5372 0c5e 6690     		.p2align 4,,10
 5373              		.p2align 3
 5374              	.L386:
 629:fltk-1.3.4-1/jpeg/jdmarker.c ****   
 5375              		.loc 1 629 3 view .LVU1770
 5376              	.LBE104:
 5377              	.LBE139:
 5378              	.LBB140:
 5379              	.LBB109:
 542:fltk-1.3.4-1/jpeg/jdmarker.c ****   length -= 2;
 5380              		.loc 1 542 3 is_stmt 1 view .LVU1771
 5381 0c60 4C89EF   		movq	%r13, %rdi
 5382 0c63 41FF5618 		call	*24(%r14)
 5383              	.LVL662:
 542:fltk-1.3.4-1/jpeg/jdmarker.c ****   length -= 2;
 5384              		.loc 1 542 3 is_stmt 0 view .LVU1772
 5385 0c67 85C0     		testl	%eax, %eax
 5386 0c69 0F84DBF5 		je	.L315
 5386      FFFF
 542:fltk-1.3.4-1/jpeg/jdmarker.c ****   length -= 2;
 5387              		.loc 1 542 3 is_stmt 1 view .LVU1773
 5388 0c6f 498B0E   		movq	(%r14), %rcx
 5389              	.LVL663:
 542:fltk-1.3.4-1/jpeg/jdmarker.c ****   length -= 2;
 5390              		.loc 1 542 3 is_stmt 0 view .LVU1774
 5391 0c72 498B5608 		movq	8(%r14), %rdx
 5392              	.LVL664:
 542:fltk-1.3.4-1/jpeg/jdmarker.c ****   length -= 2;
 5393              		.loc 1 542 3 is_stmt 1 view .LVU1775
 542:fltk-1.3.4-1/jpeg/jdmarker.c ****   length -= 2;
 5394              		.loc 1 542 3 view .LVU1776
 542:fltk-1.3.4-1/jpeg/jdmarker.c ****   length -= 2;
 5395              		.loc 1 542 3 view .LVU1777
 542:fltk-1.3.4-1/jpeg/jdmarker.c ****   length -= 2;
 5396              		.loc 1 542 3 is_stmt 0 view .LVU1778
 5397 0c76 0FB601   		movzbl	(%rcx), %eax
 5398 0c79 C1E008   		sall	$8, %eax
 5399 0c7c 89C3     		movl	%eax, %ebx
 5400              	.LVL665:
 542:fltk-1.3.4-1/jpeg/jdmarker.c ****   length -= 2;
 5401              		.loc 1 542 3 is_stmt 1 view .LVU1779
 5402 0c7e 4883EA01 		subq	$1, %rdx
 5403              	.LVL666:
 542:fltk-1.3.4-1/jpeg/jdmarker.c ****   length -= 2;
 5404              		.loc 1 542 3 is_stmt 0 view .LVU1780
 5405 0c82 0F855BF7 		jne	.L723
 5405      FFFF
 5406              	.LVL667:
 5407              	.L388:
 542:fltk-1.3.4-1/jpeg/jdmarker.c ****   length -= 2;
 5408              		.loc 1 542 3 is_stmt 1 view .LVU1781
 5409 0c88 4C89EF   		movq	%r13, %rdi
 5410 0c8b 41FF5618 		call	*24(%r14)
 5411              	.LVL668:
 542:fltk-1.3.4-1/jpeg/jdmarker.c ****   length -= 2;
 5412              		.loc 1 542 3 is_stmt 0 view .LVU1782
 5413 0c8f 85C0     		testl	%eax, %eax
 5414 0c91 0F84B3F5 		je	.L315
 5414      FFFF
 542:fltk-1.3.4-1/jpeg/jdmarker.c ****   length -= 2;
 5415              		.loc 1 542 3 is_stmt 1 view .LVU1783
 5416 0c97 498B0E   		movq	(%r14), %rcx
 5417              	.LVL669:
 542:fltk-1.3.4-1/jpeg/jdmarker.c ****   length -= 2;
 5418              		.loc 1 542 3 is_stmt 0 view .LVU1784
 5419 0c9a 498B5608 		movq	8(%r14), %rdx
 5420              	.LVL670:
 542:fltk-1.3.4-1/jpeg/jdmarker.c ****   length -= 2;
 5421              		.loc 1 542 3 view .LVU1785
 5422 0c9e E944F7FF 		jmp	.L389
 5422      FF
 5423              	.LVL671:
 5424              		.p2align 4,,10
 5425 0ca3 0F1F4400 		.p2align 3
 5425      00
 5426              	.L373:
 542:fltk-1.3.4-1/jpeg/jdmarker.c ****   length -= 2;
 5427              		.loc 1 542 3 view .LVU1786
 5428              	.LBE109:
 5429              	.LBE140:
 5430              	.LBB141:
 5431              	.LBB135:
 420:fltk-1.3.4-1/jpeg/jdmarker.c ****   length -= 2;
 5432              		.loc 1 420 3 is_stmt 1 view .LVU1787
 5433 0ca8 4C89EF   		movq	%r13, %rdi
 5434 0cab 41FF5424 		call	*24(%r12)
 5434      18
 5435              	.LVL672:
 420:fltk-1.3.4-1/jpeg/jdmarker.c ****   length -= 2;
 5436              		.loc 1 420 3 is_stmt 0 view .LVU1788
 5437 0cb0 85C0     		testl	%eax, %eax
 5438 0cb2 0F8492F5 		je	.L315
 5438      FFFF
 420:fltk-1.3.4-1/jpeg/jdmarker.c ****   length -= 2;
 5439              		.loc 1 420 3 is_stmt 1 view .LVU1789
 5440 0cb8 498B1424 		movq	(%r12), %rdx
 5441              	.LVL673:
 420:fltk-1.3.4-1/jpeg/jdmarker.c ****   length -= 2;
 5442              		.loc 1 420 3 is_stmt 0 view .LVU1790
 5443 0cbc 498B5C24 		movq	8(%r12), %rbx
 5443      08
 5444              	.LVL674:
 420:fltk-1.3.4-1/jpeg/jdmarker.c ****   length -= 2;
 5445              		.loc 1 420 3 is_stmt 1 view .LVU1791
 420:fltk-1.3.4-1/jpeg/jdmarker.c ****   length -= 2;
 5446              		.loc 1 420 3 view .LVU1792
 420:fltk-1.3.4-1/jpeg/jdmarker.c ****   length -= 2;
 5447              		.loc 1 420 3 view .LVU1793
 420:fltk-1.3.4-1/jpeg/jdmarker.c ****   length -= 2;
 5448              		.loc 1 420 3 is_stmt 0 view .LVU1794
 5449 0cc1 0FB602   		movzbl	(%rdx), %eax
 5450 0cc4 C1E008   		sall	$8, %eax
 5451 0cc7 89C5     		movl	%eax, %ebp
 5452              	.LVL675:
 420:fltk-1.3.4-1/jpeg/jdmarker.c ****   length -= 2;
 5453              		.loc 1 420 3 is_stmt 1 view .LVU1795
 5454 0cc9 4883EB01 		subq	$1, %rbx
 5455              	.LVL676:
 420:fltk-1.3.4-1/jpeg/jdmarker.c ****   length -= 2;
 5456              		.loc 1 420 3 is_stmt 0 view .LVU1796
 5457 0ccd 0F85D7FC 		jne	.L724
 5457      FFFF
 5458              	.LVL677:
 5459              	.L375:
 420:fltk-1.3.4-1/jpeg/jdmarker.c ****   length -= 2;
 5460              		.loc 1 420 3 is_stmt 1 view .LVU1797
 5461 0cd3 4C89EF   		movq	%r13, %rdi
 5462 0cd6 41FF5424 		call	*24(%r12)
 5462      18
 5463              	.LVL678:
 5464 0cdb 85C0     		testl	%eax, %eax
 5465 0cdd 0F8467F5 		je	.L315
 5465      FFFF
 420:fltk-1.3.4-1/jpeg/jdmarker.c ****   length -= 2;
 5466              		.loc 1 420 3 view .LVU1798
 5467 0ce3 498B1424 		movq	(%r12), %rdx
 5468              	.LVL679:
 420:fltk-1.3.4-1/jpeg/jdmarker.c ****   length -= 2;
 5469              		.loc 1 420 3 is_stmt 0 view .LVU1799
 5470 0ce7 498B5C24 		movq	8(%r12), %rbx
 5470      08
 5471              	.LVL680:
 420:fltk-1.3.4-1/jpeg/jdmarker.c ****   length -= 2;
 5472              		.loc 1 420 3 view .LVU1800
 5473 0cec E9BDFCFF 		jmp	.L376
 5473      FF
 5474              	.LVL681:
 5475              		.p2align 4,,10
 5476 0cf1 0F1F8000 		.p2align 3
 5476      000000
 5477              	.L346:
 420:fltk-1.3.4-1/jpeg/jdmarker.c ****   length -= 2;
 5478              		.loc 1 420 3 view .LVU1801
 5479              	.LBE135:
 5480              	.LBE141:
 5481              	.LBB142:
 5482              	.LBB127:
 333:fltk-1.3.4-1/jpeg/jdmarker.c **** 
 5483              		.loc 1 333 3 is_stmt 1 view .LVU1802
 5484 0cf8 4C89EF   		movq	%r13, %rdi
 5485 0cfb FF5518   		call	*24(%rbp)
 5486              	.LVL682:
 5487 0cfe 85C0     		testl	%eax, %eax
 5488 0d00 0F8444F5 		je	.L315
 5488      FFFF
 333:fltk-1.3.4-1/jpeg/jdmarker.c **** 
 5489              		.loc 1 333 3 view .LVU1803
 5490 0d06 4C8B6500 		movq	0(%rbp), %r12
 5491              	.LVL683:
 333:fltk-1.3.4-1/jpeg/jdmarker.c **** 
 5492              		.loc 1 333 3 is_stmt 0 view .LVU1804
 5493 0d0a 488B5D08 		movq	8(%rbp), %rbx
 5494              	.LVL684:
 333:fltk-1.3.4-1/jpeg/jdmarker.c **** 
 5495              		.loc 1 333 3 view .LVU1805
 5496 0d0e E9CCF8FF 		jmp	.L347
 5496      FF
 5497              	.LVL685:
 5498              		.p2align 4,,10
 5499 0d13 0F1F4400 		.p2align 3
 5499      00
 5500              	.L714:
 333:fltk-1.3.4-1/jpeg/jdmarker.c **** 
 5501              		.loc 1 333 3 view .LVU1806
 5502              	.LBE127:
 5503              	.LBE142:
 5504              	.LBB143:
 5505              	.LBB105:
 634:fltk-1.3.4-1/jpeg/jdmarker.c **** 
 5506              		.loc 1 634 3 view .LVU1807
 5507 0d18 4883C501 		addq	$1, %rbp
 5508              	.LVL686:
 5509              	.L427:
 634:fltk-1.3.4-1/jpeg/jdmarker.c **** 
 5510              		.loc 1 634 3 is_stmt 1 view .LVU1808
 634:fltk-1.3.4-1/jpeg/jdmarker.c **** 
 5511              		.loc 1 634 3 view .LVU1809
 634:fltk-1.3.4-1/jpeg/jdmarker.c **** 
 5512              		.loc 1 634 3 view .LVU1810
 634:fltk-1.3.4-1/jpeg/jdmarker.c **** 
 5513              		.loc 1 634 3 is_stmt 0 view .LVU1811
 5514 0d1c 0FB64500 		movzbl	0(%rbp), %eax
 5515 0d20 4883EB01 		subq	$1, %rbx
 5516              	.LVL687:
 634:fltk-1.3.4-1/jpeg/jdmarker.c **** 
 5517              		.loc 1 634 3 view .LVU1812
 5518 0d24 4883C501 		addq	$1, %rbp
 5519              	.LVL688:
 636:fltk-1.3.4-1/jpeg/jdmarker.c **** 
 5520              		.loc 1 636 3 view .LVU1813
 5521 0d28 4C89EF   		movq	%r13, %rdi
 5522 0d2b BE010000 		movl	$1, %esi
 5522      00
 634:fltk-1.3.4-1/jpeg/jdmarker.c **** 
 5523              		.loc 1 634 3 view .LVU1814
 5524 0d30 4101C6   		addl	%eax, %r14d
 5525              	.LVL689:
 634:fltk-1.3.4-1/jpeg/jdmarker.c **** 
 5526              		.loc 1 634 3 is_stmt 1 view .LVU1815
 636:fltk-1.3.4-1/jpeg/jdmarker.c **** 
 5527              		.loc 1 636 3 view .LVU1816
 5528 0d33 498B4500 		movq	0(%r13), %rax
 5529 0d37 C7402854 		movl	$84, 40(%rax)
 5529      000000
 5530 0d3e 498B4500 		movq	0(%r13), %rax
 5531 0d42 4489702C 		movl	%r14d, 44(%rax)
 5532 0d46 498B4500 		movq	0(%r13), %rax
 5533 0d4a FF5008   		call	*8(%rax)
 5534              	.LVL690:
 638:fltk-1.3.4-1/jpeg/jdmarker.c **** 
 5535              		.loc 1 638 3 view .LVU1817
 638:fltk-1.3.4-1/jpeg/jdmarker.c **** 
 5536              		.loc 1 638 27 is_stmt 0 view .LVU1818
 5537 0d4d 4589B574 		movl	%r14d, 372(%r13)
 5537      010000
 640:fltk-1.3.4-1/jpeg/jdmarker.c ****   return TRUE;
 5538              		.loc 1 640 3 is_stmt 1 view .LVU1819
 634:fltk-1.3.4-1/jpeg/jdmarker.c **** 
 5539              		.loc 1 634 3 is_stmt 0 view .LVU1820
 5540 0d54 49892C24 		movq	%rbp, (%r12)
 5541 0d58 49895C24 		movq	%rbx, 8(%r12)
 5541      08
 641:fltk-1.3.4-1/jpeg/jdmarker.c **** }
 5542              		.loc 1 641 3 is_stmt 1 view .LVU1821
 5543              	.LVL691:
 641:fltk-1.3.4-1/jpeg/jdmarker.c **** }
 5544              		.loc 1 641 3 is_stmt 0 view .LVU1822
 5545 0d5d E9FEF2FF 		jmp	.L342
 5545      FF
 5546              	.LVL692:
 5547              		.p2align 4,,10
 5548 0d62 660F1F44 		.p2align 3
 5548      0000
 5549              	.L431:
 641:fltk-1.3.4-1/jpeg/jdmarker.c **** }
 5550              		.loc 1 641 3 view .LVU1823
 5551              	.LBE105:
 5552              	.LBE143:
 5553              	.LBB144:
 5554              	.LBB96:
 659:fltk-1.3.4-1/jpeg/jdmarker.c **** 
 5555              		.loc 1 659 3 is_stmt 1 view .LVU1824
 5556 0d68 4C89EF   		movq	%r13, %rdi
 5557 0d6b FF5518   		call	*24(%rbp)
 5558              	.LVL693:
 5559 0d6e 85C0     		testl	%eax, %eax
 5560 0d70 0F84D4F4 		je	.L315
 5560      FFFF
 659:fltk-1.3.4-1/jpeg/jdmarker.c **** 
 5561              		.loc 1 659 3 view .LVU1825
 5562 0d76 4C8B6500 		movq	0(%rbp), %r12
 5563              	.LVL694:
 659:fltk-1.3.4-1/jpeg/jdmarker.c **** 
 5564              		.loc 1 659 3 is_stmt 0 view .LVU1826
 5565 0d7a 488B5D08 		movq	8(%rbp), %rbx
 5566              	.LVL695:
 659:fltk-1.3.4-1/jpeg/jdmarker.c **** 
 5567              		.loc 1 659 3 view .LVU1827
 5568 0d7e E916F4FF 		jmp	.L432
 5568      FF
 5569              	.LVL696:
 5570              		.p2align 4,,10
 5571 0d83 0F1F4400 		.p2align 3
 5571      00
 5572              	.L468:
 659:fltk-1.3.4-1/jpeg/jdmarker.c **** 
 5573              		.loc 1 659 3 view .LVU1828
 5574              	.LBE96:
 5575              	.LBE144:
 5576              	.LBB145:
 5577              	.LBB128:
 368:fltk-1.3.4-1/jpeg/jdmarker.c **** 	 ci++, compptr++) {
 5578              		.loc 1 368 26 view .LVU1829
 5579 0d88 4989DF   		movq	%rbx, %r15
 5580              	.LVL697:
 5581 0d8b 0F1F4400 		.p2align 4,,10
 5581      00
 5582              		.p2align 3
 5583              	.L360:
 374:fltk-1.3.4-1/jpeg/jdmarker.c **** 
 5584              		.loc 1 374 5 view .LVU1830
 5585 0d90 498B5500 		movq	0(%r13), %rdx
 5586 0d94 48894C24 		movq	%rcx, 8(%rsp)
 5586      08
 374:fltk-1.3.4-1/jpeg/jdmarker.c **** 
 5587              		.loc 1 374 5 is_stmt 1 view .LVU1831
 5588 0d99 4C89EF   		movq	%r13, %rdi
 5589 0d9c 4C89FB   		movq	%r15, %rbx
 5590              	.LVL698:
 374:fltk-1.3.4-1/jpeg/jdmarker.c **** 
 5591              		.loc 1 374 5 is_stmt 0 view .LVU1832
 5592 0d9f C7422804 		movl	$4, 40(%rdx)
 5592      000000
 5593 0da6 498B5500 		movq	0(%r13), %rdx
 5594 0daa 89422C   		movl	%eax, 44(%rdx)
 5595 0dad 498B4500 		movq	0(%r13), %rax
 5596              	.LVL699:
 374:fltk-1.3.4-1/jpeg/jdmarker.c **** 
 5597              		.loc 1 374 5 view .LVU1833
 5598 0db1 FF10     		call	*(%rax)
 5599              	.LVL700:
 374:fltk-1.3.4-1/jpeg/jdmarker.c **** 
 5600              		.loc 1 374 5 view .LVU1834
 5601 0db3 488B4C24 		movq	8(%rsp), %rcx
 5601      08
 5602 0db8 E96CF9FF 		jmp	.L361
 5602      FF
 5603              	.LVL701:
 5604 0dbd 0F1F00   		.p2align 4,,10
 5605              		.p2align 3
 5606              	.L717:
 374:fltk-1.3.4-1/jpeg/jdmarker.c **** 
 5607              		.loc 1 374 5 view .LVU1835
 5608 0dc0 4D89F5   		movq	%r14, %r13
 5609              	.LVL702:
 5610              	.L406:
 374:fltk-1.3.4-1/jpeg/jdmarker.c **** 
 5611              		.loc 1 374 5 view .LVU1836
 5612              	.LBE128:
 5613              	.LBE145:
 5614              	.LBB146:
 5615              	.LBB110:
 599:fltk-1.3.4-1/jpeg/jdmarker.c ****       for (i = 0; i < DCTSIZE2; i += 8) {
 5616              		.loc 1 599 5 is_stmt 1 view .LVU1837
 599:fltk-1.3.4-1/jpeg/jdmarker.c ****       for (i = 0; i < DCTSIZE2; i += 8) {
 5617              		.loc 1 599 14 is_stmt 0 view .LVU1838
 5618 0dc3 498B0F   		movq	(%r15), %rcx
 599:fltk-1.3.4-1/jpeg/jdmarker.c ****       for (i = 0; i < DCTSIZE2; i += 8) {
 5619              		.loc 1 599 8 view .LVU1839
 5620 0dc6 83797C01 		cmpl	$1, 124(%rcx)
 5621 0dca 0F8F5001 		jg	.L725
 5621      0000
 5622              	.LVL703:
 5623              	.L414:
 609:fltk-1.3.4-1/jpeg/jdmarker.c ****     if (prec) length -= count;
 5624              		.loc 1 609 5 is_stmt 1 view .LVU1840
 609:fltk-1.3.4-1/jpeg/jdmarker.c ****     if (prec) length -= count;
 5625              		.loc 1 609 12 is_stmt 0 view .LVU1841
 5626 0dd0 488B1C24 		movq	(%rsp), %rbx
 5627 0dd4 488B7424 		movq	16(%rsp), %rsi
 5627      10
 5628 0dd9 4829DE   		subq	%rbx, %rsi
 5629              	.LVL704:
 610:fltk-1.3.4-1/jpeg/jdmarker.c ****   }
 5630              		.loc 1 610 5 is_stmt 1 view .LVU1842
 610:fltk-1.3.4-1/jpeg/jdmarker.c ****   }
 5631              		.loc 1 610 22 is_stmt 0 view .LVU1843
 5632 0ddc 4889F1   		movq	%rsi, %rcx
 5633 0ddf 4829D9   		subq	%rbx, %rcx
 5634 0de2 85ED     		testl	%ebp, %ebp
 5635 0de4 480F45F1 		cmovne	%rcx, %rsi
 5636              	.LVL705:
 545:fltk-1.3.4-1/jpeg/jdmarker.c ****     length--;
 5637              		.loc 1 545 9 is_stmt 1 view .LVU1844
 5638 0de8 4885F6   		testq	%rsi, %rsi
 5639 0deb 0F8F15F6 		jg	.L417
 5639      FFFF
 545:fltk-1.3.4-1/jpeg/jdmarker.c ****     length--;
 5640              		.loc 1 545 9 is_stmt 0 view .LVU1845
 5641 0df1 4D89EE   		movq	%r13, %r14
 5642 0df4 4D89FD   		movq	%r15, %r13
 5643              	.LVL706:
 5644              	.L390:
 613:fltk-1.3.4-1/jpeg/jdmarker.c ****     ERREXIT(cinfo, JERR_BAD_LENGTH);
 5645              		.loc 1 613 3 is_stmt 1 view .LVU1846
 613:fltk-1.3.4-1/jpeg/jdmarker.c ****     ERREXIT(cinfo, JERR_BAD_LENGTH);
 5646              		.loc 1 613 6 is_stmt 0 view .LVU1847
 5647 0df7 4885F6   		testq	%rsi, %rsi
 5648 0dfa 7426     		je	.L418
 614:fltk-1.3.4-1/jpeg/jdmarker.c **** 
 5649              		.loc 1 614 5 view .LVU1848
 5650 0dfc 498B4D00 		movq	0(%r13), %rcx
 5651 0e00 48894424 		movq	%rax, 8(%rsp)
 5651      08
 5652 0e05 4C89EF   		movq	%r13, %rdi
 5653 0e08 48891424 		movq	%rdx, (%rsp)
 614:fltk-1.3.4-1/jpeg/jdmarker.c **** 
 5654              		.loc 1 614 5 is_stmt 1 view .LVU1849
 5655 0e0c C741280C 		movl	$12, 40(%rcx)
 5655      000000
 5656 0e13 498B4D00 		movq	0(%r13), %rcx
 5657 0e17 FF11     		call	*(%rcx)
 5658              	.LVL707:
 614:fltk-1.3.4-1/jpeg/jdmarker.c **** 
 5659              		.loc 1 614 5 is_stmt 0 view .LVU1850
 5660 0e19 488B4424 		movq	8(%rsp), %rax
 5660      08
 5661 0e1e 488B1424 		movq	(%rsp), %rdx
 5662              	.LVL708:
 5663              	.L418:
 616:fltk-1.3.4-1/jpeg/jdmarker.c ****   return TRUE;
 5664              		.loc 1 616 3 is_stmt 1 view .LVU1851
 5665 0e22 498906   		movq	%rax, (%r14)
 5666 0e25 49895608 		movq	%rdx, 8(%r14)
 617:fltk-1.3.4-1/jpeg/jdmarker.c **** }
 5667              		.loc 1 617 3 view .LVU1852
 5668              	.LVL709:
 617:fltk-1.3.4-1/jpeg/jdmarker.c **** }
 5669              		.loc 1 617 3 is_stmt 0 view .LVU1853
 5670 0e29 E932F2FF 		jmp	.L342
 5670      FF
 5671              	.LVL710:
 5672 0e2e 6690     		.p2align 4,,10
 5673              		.p2align 3
 5674              	.L394:
 570:fltk-1.3.4-1/jpeg/jdmarker.c **** 	/* Initialize full table for safety. */
 5675              		.loc 1 570 7 is_stmt 1 view .LVU1854
 570:fltk-1.3.4-1/jpeg/jdmarker.c **** 	/* Initialize full table for safety. */
 5676              		.loc 1 570 10 is_stmt 0 view .LVU1855
 5677 0e30 48837C24 		cmpq	$63, 16(%rsp)
 5677      103F
 5678 0e36 0F8F9CF6 		jg	.L395
 5678      FFFF
 5679 0e3c 4889D8   		movq	%rbx, %rax
 5680 0e3f 488D8B80 		leaq	128(%rbx), %rcx
 5680      000000
 5681 0e46 662E0F1F 		.p2align 4,,10
 5681      84000000 
 5681      0000
 5682              		.p2align 3
 5683              	.L398:
 573:fltk-1.3.4-1/jpeg/jdmarker.c **** 	}
 5684              		.loc 1 573 4 is_stmt 1 view .LVU1856
 573:fltk-1.3.4-1/jpeg/jdmarker.c **** 	}
 5685              		.loc 1 573 27 is_stmt 0 view .LVU1857
 5686 0e50 BE010000 		movl	$1, %esi
 5686      00
 5687 0e55 4883C002 		addq	$2, %rax
 5688 0e59 668970FE 		movw	%si, -2(%rax)
 572:fltk-1.3.4-1/jpeg/jdmarker.c **** 	  quant_ptr->quantval[i] = 1;
 5689              		.loc 1 572 28 is_stmt 1 view .LVU1858
 572:fltk-1.3.4-1/jpeg/jdmarker.c **** 	  quant_ptr->quantval[i] = 1;
 5690              		.loc 1 572 14 view .LVU1859
 572:fltk-1.3.4-1/jpeg/jdmarker.c **** 	  quant_ptr->quantval[i] = 1;
 5691              		.loc 1 572 2 is_stmt 0 view .LVU1860
 5692 0e5d 4839C1   		cmpq	%rax, %rcx
 5693 0e60 75EE     		jne	.L398
 5694 0e62 488B4424 		movq	16(%rsp), %rax
 5694      10
 5695 0e67 48890424 		movq	%rax, (%rsp)
 5696              	.L397:
 5697              	.LVL711:
 580:fltk-1.3.4-1/jpeg/jdmarker.c ****     case (2*2): natural_order = jpeg_natural_order2; break;
 5698              		.loc 1 580 5 is_stmt 1 view .LVU1861
 5699 0e6b 488B0424 		movq	(%rsp), %rax
 5700 0e6f 4883E804 		subq	$4, %rax
 5701 0e73 4883F82D 		cmpq	$45, %rax
 5702 0e77 0F870B05 		ja	.L399
 5702      0000
 5703 0e7d 488D3500 		leaq	.L401(%rip), %rsi
 5703      000000
 5704 0e84 48630486 		movslq	(%rsi,%rax,4), %rax
 5705 0e88 4801F0   		addq	%rsi, %rax
 5706 0e8b 3EFFE0   		notrack jmp	*%rax
 5707              		.section	.rodata.read_markers
 5708              		.align 4
 5709              		.align 4
 5710              	.L401:
 5711 00fc 00000000 		.long	.L471-.L401
 5712 0100 00000000 		.long	.L399-.L401
 5713 0104 00000000 		.long	.L399-.L401
 5714 0108 00000000 		.long	.L399-.L401
 5715 010c 00000000 		.long	.L399-.L401
 5716 0110 00000000 		.long	.L405-.L401
 5717 0114 00000000 		.long	.L399-.L401
 5718 0118 00000000 		.long	.L399-.L401
 5719 011c 00000000 		.long	.L399-.L401
 5720 0120 00000000 		.long	.L399-.L401
 5721 0124 00000000 		.long	.L399-.L401
 5722 0128 00000000 		.long	.L399-.L401
 5723 012c 00000000 		.long	.L404-.L401
 5724 0130 00000000 		.long	.L399-.L401
 5725 0134 00000000 		.long	.L399-.L401
 5726 0138 00000000 		.long	.L399-.L401
 5727 013c 00000000 		.long	.L399-.L401
 5728 0140 00000000 		.long	.L399-.L401
 5729 0144 00000000 		.long	.L399-.L401
 5730 0148 00000000 		.long	.L399-.L401
 5731 014c 00000000 		.long	.L399-.L401
 5732 0150 00000000 		.long	.L403-.L401
 5733 0154 00000000 		.long	.L399-.L401
 5734 0158 00000000 		.long	.L399-.L401
 5735 015c 00000000 		.long	.L399-.L401
 5736 0160 00000000 		.long	.L399-.L401
 5737 0164 00000000 		.long	.L399-.L401
 5738 0168 00000000 		.long	.L399-.L401
 5739 016c 00000000 		.long	.L399-.L401
 5740 0170 00000000 		.long	.L399-.L401
 5741 0174 00000000 		.long	.L399-.L401
 5742 0178 00000000 		.long	.L399-.L401
 5743 017c 00000000 		.long	.L402-.L401
 5744 0180 00000000 		.long	.L399-.L401
 5745 0184 00000000 		.long	.L399-.L401
 5746 0188 00000000 		.long	.L399-.L401
 5747 018c 00000000 		.long	.L399-.L401
 5748 0190 00000000 		.long	.L399-.L401
 5749 0194 00000000 		.long	.L399-.L401
 5750 0198 00000000 		.long	.L399-.L401
 5751 019c 00000000 		.long	.L399-.L401
 5752 01a0 00000000 		.long	.L399-.L401
 5753 01a4 00000000 		.long	.L399-.L401
 5754 01a8 00000000 		.long	.L399-.L401
 5755 01ac 00000000 		.long	.L399-.L401
 5756 01b0 00000000 		.long	.L400-.L401
 5757              		.section	.text.read_markers
 5758              	.LVL712:
 5759 0e8e 6690     		.p2align 4,,10
 5760              		.p2align 3
 5761              	.L711:
 580:fltk-1.3.4-1/jpeg/jdmarker.c ****     case (2*2): natural_order = jpeg_natural_order2; break;
 5762              		.loc 1 580 5 is_stmt 0 view .LVU1862
 5763              	.LBE110:
 5764              	.LBE146:
 5765              	.LBB147:
 5766              	.LBB97:
 655:fltk-1.3.4-1/jpeg/jdmarker.c **** 
 5767              		.loc 1 655 5 is_stmt 1 view .LVU1863
 5768 0e90 498B4500 		movq	0(%r13), %rax
 5769              	.LBB91:
 5770              	.LBB92:
  72:/usr/include/x86_64-linux-gnu/bits/string_fortified.h **** }
  73:/usr/include/x86_64-linux-gnu/bits/string_fortified.h **** 
  74:/usr/include/x86_64-linux-gnu/bits/string_fortified.h **** #ifdef __USE_MISC
  75:/usr/include/x86_64-linux-gnu/bits/string_fortified.h **** # include <bits/strings_fortified.h>
  76:/usr/include/x86_64-linux-gnu/bits/string_fortified.h **** 
  77:/usr/include/x86_64-linux-gnu/bits/string_fortified.h **** void __explicit_bzero_chk (void *__dest, size_t __len, size_t __destlen)
  78:/usr/include/x86_64-linux-gnu/bits/string_fortified.h ****   __THROW __nonnull ((1));
  79:/usr/include/x86_64-linux-gnu/bits/string_fortified.h **** 
  80:/usr/include/x86_64-linux-gnu/bits/string_fortified.h **** __fortify_function void
  81:/usr/include/x86_64-linux-gnu/bits/string_fortified.h **** __NTH (explicit_bzero (void *__dest, size_t __len))
  82:/usr/include/x86_64-linux-gnu/bits/string_fortified.h **** {
  83:/usr/include/x86_64-linux-gnu/bits/string_fortified.h ****   __explicit_bzero_chk (__dest, __len, __bos0 (__dest));
  84:/usr/include/x86_64-linux-gnu/bits/string_fortified.h **** }
  85:/usr/include/x86_64-linux-gnu/bits/string_fortified.h **** #endif
  86:/usr/include/x86_64-linux-gnu/bits/string_fortified.h **** 
  87:/usr/include/x86_64-linux-gnu/bits/string_fortified.h **** __fortify_function char *
  88:/usr/include/x86_64-linux-gnu/bits/string_fortified.h **** __NTH (strcpy (char *__restrict __dest, const char *__restrict __src))
  89:/usr/include/x86_64-linux-gnu/bits/string_fortified.h **** {
  90:/usr/include/x86_64-linux-gnu/bits/string_fortified.h ****   return __builtin___strcpy_chk (__dest, __src, __bos (__dest));
  91:/usr/include/x86_64-linux-gnu/bits/string_fortified.h **** }
  92:/usr/include/x86_64-linux-gnu/bits/string_fortified.h **** 
  93:/usr/include/x86_64-linux-gnu/bits/string_fortified.h **** #ifdef __USE_GNU
  94:/usr/include/x86_64-linux-gnu/bits/string_fortified.h **** __fortify_function char *
  95:/usr/include/x86_64-linux-gnu/bits/string_fortified.h **** __NTH (stpcpy (char *__restrict __dest, const char *__restrict __src))
  96:/usr/include/x86_64-linux-gnu/bits/string_fortified.h **** {
  97:/usr/include/x86_64-linux-gnu/bits/string_fortified.h ****   return __builtin___stpcpy_chk (__dest, __src, __bos (__dest));
  98:/usr/include/x86_64-linux-gnu/bits/string_fortified.h **** }
  99:/usr/include/x86_64-linux-gnu/bits/string_fortified.h **** #endif
 100:/usr/include/x86_64-linux-gnu/bits/string_fortified.h **** 
 101:/usr/include/x86_64-linux-gnu/bits/string_fortified.h **** 
 102:/usr/include/x86_64-linux-gnu/bits/string_fortified.h **** __fortify_function char *
 103:/usr/include/x86_64-linux-gnu/bits/string_fortified.h **** __NTH (strncpy (char *__restrict __dest, const char *__restrict __src,
 104:/usr/include/x86_64-linux-gnu/bits/string_fortified.h **** 		size_t __len))
 105:/usr/include/x86_64-linux-gnu/bits/string_fortified.h **** {
 106:/usr/include/x86_64-linux-gnu/bits/string_fortified.h ****   return __builtin___strncpy_chk (__dest, __src, __len, __bos (__dest));
 5771              		.loc 2 106 10 is_stmt 0 view .LVU1864
 5772 0e94 660FEFC0 		pxor	%xmm0, %xmm0
 5773              	.LBE92:
 5774              	.LBE91:
 655:fltk-1.3.4-1/jpeg/jdmarker.c **** 
 5775              		.loc 1 655 5 view .LVU1865
 5776 0e98 4C89EF   		movq	%r13, %rdi
 5777 0e9b C740283C 		movl	$60, 40(%rax)
 5777      000000
 5778              	.LVL713:
 5779              	.LBB94:
 5780              	.LBI91:
 103:/usr/include/x86_64-linux-gnu/bits/string_fortified.h **** 		size_t __len))
 5781              		.loc 2 103 1 is_stmt 1 view .LVU1866
 5782              	.LBB93:
 5783              		.loc 2 106 3 view .LVU1867
 5784              		.loc 2 106 10 is_stmt 0 view .LVU1868
 5785 0ea2 498B5500 		movq	0(%r13), %rdx
 5786 0ea6 48C7422C 		movq	$4543308, 44(%rdx)
 5786      4C534500 
 5787              	.LVL714:
 5788              		.loc 2 106 10 view .LVU1869
 5789 0eae 48C74234 		movq	$0, 52(%rdx)
 5789      00000000 
 5790 0eb6 0F11423C 		movups	%xmm0, 60(%rdx)
 5791 0eba 0F11424C 		movups	%xmm0, 76(%rdx)
 5792 0ebe 0F11425C 		movups	%xmm0, 92(%rdx)
 5793 0ec2 0F11426C 		movups	%xmm0, 108(%rdx)
 5794              	.LVL715:
 5795              		.loc 2 106 10 view .LVU1870
 5796              	.LBE93:
 5797              	.LBE94:
 655:fltk-1.3.4-1/jpeg/jdmarker.c **** 
 5798              		.loc 1 655 5 view .LVU1871
 5799 0ec6 498B4500 		movq	0(%r13), %rax
 5800 0eca FF10     		call	*(%rax)
 5801              	.LVL716:
 5802 0ecc E989F2FF 		jmp	.L428
 5802      FF
 5803              	.LVL717:
 5804              		.p2align 4,,10
 5805 0ed1 0F1F8000 		.p2align 3
 5805      000000
 5806              	.L719:
 655:fltk-1.3.4-1/jpeg/jdmarker.c **** 
 5807              		.loc 1 655 5 view .LVU1872
 5808              	.LBE97:
 5809              	.LBE147:
 5810              	.LBB148:
 5811              	.LBB129:
 331:fltk-1.3.4-1/jpeg/jdmarker.c **** 
 5812              		.loc 1 331 5 is_stmt 1 view .LVU1873
 5813 0ed8 498B4500 		movq	0(%r13), %rax
 5814              	.LBB122:
 5815              	.LBB123:
 5816              		.loc 2 106 10 is_stmt 0 view .LVU1874
 5817 0edc 660FEFC0 		pxor	%xmm0, %xmm0
 5818              	.LBE123:
 5819              	.LBE122:
 331:fltk-1.3.4-1/jpeg/jdmarker.c **** 
 5820              		.loc 1 331 5 view .LVU1875
 5821 0ee0 4C89EF   		movq	%r13, %rdi
 5822 0ee3 C740283C 		movl	$60, 40(%rax)
 5822      000000
 5823              	.LVL718:
 5824              	.LBB125:
 5825              	.LBI122:
 103:/usr/include/x86_64-linux-gnu/bits/string_fortified.h **** 		size_t __len))
 5826              		.loc 2 103 1 is_stmt 1 view .LVU1876
 5827              	.LBB124:
 5828              		.loc 2 106 3 view .LVU1877
 5829              		.loc 2 106 10 is_stmt 0 view .LVU1878
 5830 0eea 498B5500 		movq	0(%r13), %rdx
 5831 0eee 48C7422C 		movq	$5459795, 44(%rdx)
 5831      534F5300 
 5832              	.LVL719:
 5833              		.loc 2 106 10 view .LVU1879
 5834 0ef6 48C74234 		movq	$0, 52(%rdx)
 5834      00000000 
 5835 0efe 0F11423C 		movups	%xmm0, 60(%rdx)
 5836 0f02 0F11424C 		movups	%xmm0, 76(%rdx)
 5837 0f06 0F11425C 		movups	%xmm0, 92(%rdx)
 5838 0f0a 0F11426C 		movups	%xmm0, 108(%rdx)
 5839              	.LVL720:
 5840              		.loc 2 106 10 view .LVU1880
 5841              	.LBE124:
 5842              	.LBE125:
 331:fltk-1.3.4-1/jpeg/jdmarker.c **** 
 5843              		.loc 1 331 5 view .LVU1881
 5844 0f0e 498B4500 		movq	0(%r13), %rax
 5845 0f12 FF10     		call	*(%rax)
 5846              	.LVL721:
 5847 0f14 E994F6FF 		jmp	.L344
 5847      FF
 5848              	.LVL722:
 5849 0f19 0F1F8000 		.p2align 4,,10
 5849      000000
 5850              		.p2align 3
 5851              	.L725:
 331:fltk-1.3.4-1/jpeg/jdmarker.c **** 
 5852              		.loc 1 331 5 view .LVU1882
 5853 0f20 48894424 		movq	%rax, 8(%rsp)
 5853      08
 5854 0f25 4C89F8   		movq	%r15, %rax
 5855              	.LVL723:
 331:fltk-1.3.4-1/jpeg/jdmarker.c **** 
 5856              		.loc 1 331 5 view .LVU1883
 5857 0f28 4989D6   		movq	%rdx, %r14
 5858 0f2b 4189EF   		movl	%ebp, %r15d
 5859              	.LVL724:
 331:fltk-1.3.4-1/jpeg/jdmarker.c **** 
 5860              		.loc 1 331 5 view .LVU1884
 5861 0f2e 4C8DA380 		leaq	128(%rbx), %r12
 5861      000000
 5862 0f35 4889C5   		movq	%rax, %rbp
 5863              	.LVL725:
 331:fltk-1.3.4-1/jpeg/jdmarker.c **** 
 5864              		.loc 1 331 5 view .LVU1885
 5865 0f38 EB0A     		jmp	.L415
 5866              	.LVL726:
 5867 0f3a 660F1F44 		.p2align 4,,10
 5867      0000
 5868              		.p2align 3
 5869              	.L726:
 331:fltk-1.3.4-1/jpeg/jdmarker.c **** 
 5870              		.loc 1 331 5 view .LVU1886
 5871 0f40 488B4D00 		movq	0(%rbp), %rcx
 5872              	.L415:
 331:fltk-1.3.4-1/jpeg/jdmarker.c **** 
 5873              		.loc 1 331 5 view .LVU1887
 5874              	.LBE129:
 5875              	.LBE148:
 5876              	.LBB149:
 5877              	.LBB111:
 601:fltk-1.3.4-1/jpeg/jdmarker.c **** 		 quant_ptr->quantval[i],   quant_ptr->quantval[i+1],
 5878              		.loc 1 601 2 is_stmt 1 view .LVU1888
 5879              	.LBB108:
 601:fltk-1.3.4-1/jpeg/jdmarker.c **** 		 quant_ptr->quantval[i],   quant_ptr->quantval[i+1],
 5880              		.loc 1 601 2 view .LVU1889
 5881              	.LVL727:
 601:fltk-1.3.4-1/jpeg/jdmarker.c **** 		 quant_ptr->quantval[i],   quant_ptr->quantval[i+1],
 5882              		.loc 1 601 2 view .LVU1890
 5883 0f44 0FB713   		movzwl	(%rbx), %edx
 5884 0f47 4883C310 		addq	$16, %rbx
 5885 0f4b BE020000 		movl	$2, %esi
 5885      00
 5886 0f50 4889EF   		movq	%rbp, %rdi
 5887 0f53 89512C   		movl	%edx, 44(%rcx)
 5888              	.LVL728:
 601:fltk-1.3.4-1/jpeg/jdmarker.c **** 		 quant_ptr->quantval[i],   quant_ptr->quantval[i+1],
 5889              		.loc 1 601 2 view .LVU1891
 5890 0f56 0FB753F2 		movzwl	-14(%rbx), %edx
 5891 0f5a 895130   		movl	%edx, 48(%rcx)
 601:fltk-1.3.4-1/jpeg/jdmarker.c **** 		 quant_ptr->quantval[i],   quant_ptr->quantval[i+1],
 5892              		.loc 1 601 2 view .LVU1892
 5893 0f5d 0FB753F4 		movzwl	-12(%rbx), %edx
 5894 0f61 895134   		movl	%edx, 52(%rcx)
 601:fltk-1.3.4-1/jpeg/jdmarker.c **** 		 quant_ptr->quantval[i],   quant_ptr->quantval[i+1],
 5895              		.loc 1 601 2 view .LVU1893
 5896 0f64 0FB753F6 		movzwl	-10(%rbx), %edx
 5897 0f68 895138   		movl	%edx, 56(%rcx)
 601:fltk-1.3.4-1/jpeg/jdmarker.c **** 		 quant_ptr->quantval[i],   quant_ptr->quantval[i+1],
 5898              		.loc 1 601 2 view .LVU1894
 5899 0f6b 0FB753F8 		movzwl	-8(%rbx), %edx
 5900 0f6f 89513C   		movl	%edx, 60(%rcx)
 601:fltk-1.3.4-1/jpeg/jdmarker.c **** 		 quant_ptr->quantval[i],   quant_ptr->quantval[i+1],
 5901              		.loc 1 601 2 view .LVU1895
 5902 0f72 0FB753FA 		movzwl	-6(%rbx), %edx
 5903 0f76 895140   		movl	%edx, 64(%rcx)
 601:fltk-1.3.4-1/jpeg/jdmarker.c **** 		 quant_ptr->quantval[i],   quant_ptr->quantval[i+1],
 5904              		.loc 1 601 2 view .LVU1896
 5905 0f79 0FB753FC 		movzwl	-4(%rbx), %edx
 5906 0f7d 895144   		movl	%edx, 68(%rcx)
 601:fltk-1.3.4-1/jpeg/jdmarker.c **** 		 quant_ptr->quantval[i],   quant_ptr->quantval[i+1],
 5907              		.loc 1 601 2 view .LVU1897
 5908 0f80 0FB753FE 		movzwl	-2(%rbx), %edx
 5909 0f84 895148   		movl	%edx, 72(%rcx)
 601:fltk-1.3.4-1/jpeg/jdmarker.c **** 		 quant_ptr->quantval[i],   quant_ptr->quantval[i+1],
 5910              		.loc 1 601 2 view .LVU1898
 5911 0f87 488B5500 		movq	0(%rbp), %rdx
 5912 0f8b C742285F 		movl	$95, 40(%rdx)
 5912      000000
 601:fltk-1.3.4-1/jpeg/jdmarker.c **** 		 quant_ptr->quantval[i],   quant_ptr->quantval[i+1],
 5913              		.loc 1 601 2 view .LVU1899
 5914 0f92 488B5500 		movq	0(%rbp), %rdx
 5915 0f96 FF5208   		call	*8(%rdx)
 5916              	.LVL729:
 5917              	.LBE108:
 601:fltk-1.3.4-1/jpeg/jdmarker.c **** 		 quant_ptr->quantval[i],   quant_ptr->quantval[i+1],
 5918              		.loc 1 601 2 view .LVU1900
 600:fltk-1.3.4-1/jpeg/jdmarker.c **** 	TRACEMS8(cinfo, 2, JTRC_QUANTVALS,
 5919              		.loc 1 600 33 view .LVU1901
 600:fltk-1.3.4-1/jpeg/jdmarker.c **** 	TRACEMS8(cinfo, 2, JTRC_QUANTVALS,
 5920              		.loc 1 600 19 view .LVU1902
 600:fltk-1.3.4-1/jpeg/jdmarker.c **** 	TRACEMS8(cinfo, 2, JTRC_QUANTVALS,
 5921              		.loc 1 600 7 is_stmt 0 view .LVU1903
 5922 0f99 4939DC   		cmpq	%rbx, %r12
 5923 0f9c 75A2     		jne	.L726
 5924 0f9e 4889EE   		movq	%rbp, %rsi
 5925 0fa1 488B4424 		movq	8(%rsp), %rax
 5925      08
 5926 0fa6 4489FD   		movl	%r15d, %ebp
 5927              	.LVL730:
 600:fltk-1.3.4-1/jpeg/jdmarker.c **** 	TRACEMS8(cinfo, 2, JTRC_QUANTVALS,
 5928              		.loc 1 600 7 view .LVU1904
 5929 0fa9 4C89F2   		movq	%r14, %rdx
 5930 0fac 4989F7   		movq	%rsi, %r15
 5931              	.LVL731:
 600:fltk-1.3.4-1/jpeg/jdmarker.c **** 	TRACEMS8(cinfo, 2, JTRC_QUANTVALS,
 5932              		.loc 1 600 7 view .LVU1905
 5933 0faf E91CFEFF 		jmp	.L414
 5933      FF
 5934              	.LVL732:
 5935              		.p2align 4,,10
 5936 0fb4 0F1F4000 		.p2align 3
 5937              	.L715:
 557:fltk-1.3.4-1/jpeg/jdmarker.c ****     quant_ptr = cinfo->quant_tbl_ptrs[n];
 5938              		.loc 1 557 34 view .LVU1906
 5939 0fb8 4C89FF   		movq	%r15, %rdi
 5940 0fbb 48891424 		movq	%rdx, (%rsp)
 5941              	.LVL733:
 557:fltk-1.3.4-1/jpeg/jdmarker.c ****     quant_ptr = cinfo->quant_tbl_ptrs[n];
 5942              		.loc 1 557 7 is_stmt 1 view .LVU1907
 557:fltk-1.3.4-1/jpeg/jdmarker.c ****     quant_ptr = cinfo->quant_tbl_ptrs[n];
 5943              		.loc 1 557 34 is_stmt 0 view .LVU1908
 5944 0fbf E8000000 		call	jpeg_alloc_quant_table@PLT
 5944      00
 5945              	.LVL734:
 557:fltk-1.3.4-1/jpeg/jdmarker.c ****     quant_ptr = cinfo->quant_tbl_ptrs[n];
 5946              		.loc 1 557 32 view .LVU1909
 5947 0fc4 488B1424 		movq	(%rsp), %rdx
 5948 0fc8 49898424 		movq	%rax, 200(%r12)
 5948      C8000000 
 557:fltk-1.3.4-1/jpeg/jdmarker.c ****     quant_ptr = cinfo->quant_tbl_ptrs[n];
 5949              		.loc 1 557 34 view .LVU1910
 5950 0fd0 4889C3   		movq	%rax, %rbx
 5951 0fd3 E9DDF4FF 		jmp	.L393
 5951      FF
 5952              	.LVL735:
 5953              	.L712:
 557:fltk-1.3.4-1/jpeg/jdmarker.c ****     quant_ptr = cinfo->quant_tbl_ptrs[n];
 5954              		.loc 1 557 34 view .LVU1911
 5955              	.LBE111:
 5956              	.LBE149:
 5957              	.LBB150:
 5958              	.LBB98:
 667:fltk-1.3.4-1/jpeg/jdmarker.c ****   if (tmp != MAXJSAMPLE) goto bad;		/* MAXTRANS */
 5959              		.loc 1 667 3 is_stmt 1 view .LVU1912
 5960 0fd8 488B4500 		movq	0(%rbp), %rax
 5961              	.LVL736:
 667:fltk-1.3.4-1/jpeg/jdmarker.c ****   if (tmp != MAXJSAMPLE) goto bad;		/* MAXTRANS */
 5962              		.loc 1 667 3 is_stmt 0 view .LVU1913
 5963 0fdc 488B5D08 		movq	8(%rbp), %rbx
 5964              	.LVL737:
 5965              	.L440:
 667:fltk-1.3.4-1/jpeg/jdmarker.c ****   if (tmp != MAXJSAMPLE) goto bad;		/* MAXTRANS */
 5966              		.loc 1 667 3 is_stmt 1 view .LVU1914
 667:fltk-1.3.4-1/jpeg/jdmarker.c ****   if (tmp != MAXJSAMPLE) goto bad;		/* MAXTRANS */
 5967              		.loc 1 667 3 view .LVU1915
 5968 0fe0 4C8D6001 		leaq	1(%rax), %r12
 5969 0fe4 0FB600   		movzbl	(%rax), %eax
 5970              	.LVL738:
 667:fltk-1.3.4-1/jpeg/jdmarker.c ****   if (tmp != MAXJSAMPLE) goto bad;		/* MAXTRANS */
 5971              		.loc 1 667 3 is_stmt 0 view .LVU1916
 5972 0fe7 4883EB01 		subq	$1, %rbx
 5973              	.LVL739:
 667:fltk-1.3.4-1/jpeg/jdmarker.c ****   if (tmp != MAXJSAMPLE) goto bad;		/* MAXTRANS */
 5974              		.loc 1 667 3 is_stmt 1 view .LVU1917
 667:fltk-1.3.4-1/jpeg/jdmarker.c ****   if (tmp != MAXJSAMPLE) goto bad;		/* MAXTRANS */
 5975              		.loc 1 667 3 view .LVU1918
 668:fltk-1.3.4-1/jpeg/jdmarker.c ****   INPUT_BYTE(cinfo, tmp, return FALSE);
 5976              		.loc 1 668 3 view .LVU1919
 667:fltk-1.3.4-1/jpeg/jdmarker.c ****   if (tmp != MAXJSAMPLE) goto bad;		/* MAXTRANS */
 5977              		.loc 1 667 3 is_stmt 0 view .LVU1920
 5978 0feb 4401F0   		addl	%r14d, %eax
 668:fltk-1.3.4-1/jpeg/jdmarker.c ****   INPUT_BYTE(cinfo, tmp, return FALSE);
 5979              		.loc 1 668 6 view .LVU1921
 5980 0fee 3DFF0000 		cmpl	$255, %eax
 5980      00
 5981 0ff3 0F8517FC 		jne	.L429
 5981      FFFF
 669:fltk-1.3.4-1/jpeg/jdmarker.c ****   if (tmp != 3) goto bad;			/* Nt=3 */
 5982              		.loc 1 669 3 is_stmt 1 view .LVU1922
 669:fltk-1.3.4-1/jpeg/jdmarker.c ****   if (tmp != 3) goto bad;			/* Nt=3 */
 5983              		.loc 1 669 3 view .LVU1923
 5984 0ff9 4885DB   		testq	%rbx, %rbx
 5985 0ffc 0F84BB03 		je	.L727
 5985      0000
 5986              	.L441:
 669:fltk-1.3.4-1/jpeg/jdmarker.c ****   if (tmp != 3) goto bad;			/* Nt=3 */
 5987              		.loc 1 669 3 view .LVU1924
 669:fltk-1.3.4-1/jpeg/jdmarker.c ****   if (tmp != 3) goto bad;			/* Nt=3 */
 5988              		.loc 1 669 3 view .LVU1925
 5989 1002 4883EB01 		subq	$1, %rbx
 5990              	.LVL740:
 669:fltk-1.3.4-1/jpeg/jdmarker.c ****   if (tmp != 3) goto bad;			/* Nt=3 */
 5991              		.loc 1 669 3 view .LVU1926
 670:fltk-1.3.4-1/jpeg/jdmarker.c ****   INPUT_BYTE(cinfo, cid, return FALSE);
 5992              		.loc 1 670 6 is_stmt 0 view .LVU1927
 5993 1006 41803C24 		cmpb	$3, (%r12)
 5993      03
 669:fltk-1.3.4-1/jpeg/jdmarker.c ****   if (tmp != 3) goto bad;			/* Nt=3 */
 5994              		.loc 1 669 3 view .LVU1928
 5995 100b 498D4424 		leaq	1(%r12), %rax
 5995      01
 5996              	.LVL741:
 669:fltk-1.3.4-1/jpeg/jdmarker.c ****   if (tmp != 3) goto bad;			/* Nt=3 */
 5997              		.loc 1 669 3 is_stmt 1 view .LVU1929
 670:fltk-1.3.4-1/jpeg/jdmarker.c ****   INPUT_BYTE(cinfo, cid, return FALSE);
 5998              		.loc 1 670 3 view .LVU1930
 670:fltk-1.3.4-1/jpeg/jdmarker.c ****   INPUT_BYTE(cinfo, cid, return FALSE);
 5999              		.loc 1 670 6 is_stmt 0 view .LVU1931
 6000 1010 0F85F0FB 		jne	.L477
 6000      FFFF
 671:fltk-1.3.4-1/jpeg/jdmarker.c ****   if (cid != cinfo->comp_info[1].component_id) goto bad;
 6001              		.loc 1 671 3 is_stmt 1 view .LVU1932
 671:fltk-1.3.4-1/jpeg/jdmarker.c ****   if (cid != cinfo->comp_info[1].component_id) goto bad;
 6002              		.loc 1 671 3 view .LVU1933
 6003 1016 4885DB   		testq	%rbx, %rbx
 6004 1019 7516     		jne	.L442
 671:fltk-1.3.4-1/jpeg/jdmarker.c ****   if (cid != cinfo->comp_info[1].component_id) goto bad;
 6005              		.loc 1 671 3 view .LVU1934
 6006 101b 4C89EF   		movq	%r13, %rdi
 6007 101e FF5518   		call	*24(%rbp)
 6008              	.LVL742:
 671:fltk-1.3.4-1/jpeg/jdmarker.c ****   if (cid != cinfo->comp_info[1].component_id) goto bad;
 6009              		.loc 1 671 3 is_stmt 0 view .LVU1935
 6010 1021 85C0     		testl	%eax, %eax
 6011 1023 0F8421F2 		je	.L315
 6011      FFFF
 671:fltk-1.3.4-1/jpeg/jdmarker.c ****   if (cid != cinfo->comp_info[1].component_id) goto bad;
 6012              		.loc 1 671 3 is_stmt 1 view .LVU1936
 6013 1029 488B4500 		movq	0(%rbp), %rax
 6014              	.LVL743:
 671:fltk-1.3.4-1/jpeg/jdmarker.c ****   if (cid != cinfo->comp_info[1].component_id) goto bad;
 6015              		.loc 1 671 3 is_stmt 0 view .LVU1937
 6016 102d 488B5D08 		movq	8(%rbp), %rbx
 6017              	.LVL744:
 6018              	.L442:
 671:fltk-1.3.4-1/jpeg/jdmarker.c ****   if (cid != cinfo->comp_info[1].component_id) goto bad;
 6019              		.loc 1 671 3 is_stmt 1 view .LVU1938
 671:fltk-1.3.4-1/jpeg/jdmarker.c ****   if (cid != cinfo->comp_info[1].component_id) goto bad;
 6020              		.loc 1 671 3 view .LVU1939
 672:fltk-1.3.4-1/jpeg/jdmarker.c ****   INPUT_BYTE(cinfo, cid, return FALSE);
 6021              		.loc 1 672 19 is_stmt 0 view .LVU1940
 6022 1031 498B9530 		movq	304(%r13), %rdx
 6022      010000
 671:fltk-1.3.4-1/jpeg/jdmarker.c ****   if (cid != cinfo->comp_info[1].component_id) goto bad;
 6023              		.loc 1 671 3 view .LVU1941
 6024 1038 4C8D6001 		leaq	1(%rax), %r12
 6025 103c 4883EB01 		subq	$1, %rbx
 6026              	.LVL745:
 671:fltk-1.3.4-1/jpeg/jdmarker.c ****   if (cid != cinfo->comp_info[1].component_id) goto bad;
 6027              		.loc 1 671 3 is_stmt 1 view .LVU1942
 671:fltk-1.3.4-1/jpeg/jdmarker.c ****   if (cid != cinfo->comp_info[1].component_id) goto bad;
 6028              		.loc 1 671 3 view .LVU1943
 672:fltk-1.3.4-1/jpeg/jdmarker.c ****   INPUT_BYTE(cinfo, cid, return FALSE);
 6029              		.loc 1 672 3 view .LVU1944
 671:fltk-1.3.4-1/jpeg/jdmarker.c ****   if (cid != cinfo->comp_info[1].component_id) goto bad;
 6030              		.loc 1 671 3 is_stmt 0 view .LVU1945
 6031 1040 0FB600   		movzbl	(%rax), %eax
 6032              	.LVL746:
 672:fltk-1.3.4-1/jpeg/jdmarker.c ****   INPUT_BYTE(cinfo, cid, return FALSE);
 6033              		.loc 1 672 6 view .LVU1946
 6034 1043 3B4260   		cmpl	96(%rdx), %eax
 6035 1046 0F85C4FB 		jne	.L429
 6035      FFFF
 673:fltk-1.3.4-1/jpeg/jdmarker.c ****   if (cid != cinfo->comp_info[0].component_id) goto bad;
 6036              		.loc 1 673 3 is_stmt 1 view .LVU1947
 673:fltk-1.3.4-1/jpeg/jdmarker.c ****   if (cid != cinfo->comp_info[0].component_id) goto bad;
 6037              		.loc 1 673 3 view .LVU1948
 6038 104c 4885DB   		testq	%rbx, %rbx
 6039 104f 751D     		jne	.L443
 673:fltk-1.3.4-1/jpeg/jdmarker.c ****   if (cid != cinfo->comp_info[0].component_id) goto bad;
 6040              		.loc 1 673 3 view .LVU1949
 6041 1051 4C89EF   		movq	%r13, %rdi
 6042 1054 FF5518   		call	*24(%rbp)
 6043              	.LVL747:
 673:fltk-1.3.4-1/jpeg/jdmarker.c ****   if (cid != cinfo->comp_info[0].component_id) goto bad;
 6044              		.loc 1 673 3 is_stmt 0 view .LVU1950
 6045 1057 85C0     		testl	%eax, %eax
 6046 1059 0F84EBF1 		je	.L315
 6046      FFFF
 673:fltk-1.3.4-1/jpeg/jdmarker.c ****   if (cid != cinfo->comp_info[0].component_id) goto bad;
 6047              		.loc 1 673 3 is_stmt 1 view .LVU1951
 6048 105f 4C8B6500 		movq	0(%rbp), %r12
 6049              	.LVL748:
 673:fltk-1.3.4-1/jpeg/jdmarker.c ****   if (cid != cinfo->comp_info[0].component_id) goto bad;
 6050              		.loc 1 673 3 is_stmt 0 view .LVU1952
 6051 1063 488B5D08 		movq	8(%rbp), %rbx
 6052              	.LVL749:
 673:fltk-1.3.4-1/jpeg/jdmarker.c ****   if (cid != cinfo->comp_info[0].component_id) goto bad;
 6053              		.loc 1 673 3 view .LVU1953
 6054 1067 498B9530 		movq	304(%r13), %rdx
 6054      010000
 6055              	.L443:
 673:fltk-1.3.4-1/jpeg/jdmarker.c ****   if (cid != cinfo->comp_info[0].component_id) goto bad;
 6056              		.loc 1 673 3 is_stmt 1 view .LVU1954
 673:fltk-1.3.4-1/jpeg/jdmarker.c ****   if (cid != cinfo->comp_info[0].component_id) goto bad;
 6057              		.loc 1 673 3 view .LVU1955
 6058 106e 410FB60C 		movzbl	(%r12), %ecx
 6058      24
 6059 1073 4883EB01 		subq	$1, %rbx
 6060              	.LVL750:
 673:fltk-1.3.4-1/jpeg/jdmarker.c ****   if (cid != cinfo->comp_info[0].component_id) goto bad;
 6061              		.loc 1 673 3 view .LVU1956
 6062 1077 498D4424 		leaq	1(%r12), %rax
 6062      01
 6063              	.LVL751:
 673:fltk-1.3.4-1/jpeg/jdmarker.c ****   if (cid != cinfo->comp_info[0].component_id) goto bad;
 6064              		.loc 1 673 3 view .LVU1957
 674:fltk-1.3.4-1/jpeg/jdmarker.c ****   INPUT_BYTE(cinfo, cid, return FALSE);
 6065              		.loc 1 674 3 view .LVU1958
 674:fltk-1.3.4-1/jpeg/jdmarker.c ****   INPUT_BYTE(cinfo, cid, return FALSE);
 6066              		.loc 1 674 6 is_stmt 0 view .LVU1959
 6067 107c 3B0A     		cmpl	(%rdx), %ecx
 6068 107e 0F8582FB 		jne	.L477
 6068      FFFF
 675:fltk-1.3.4-1/jpeg/jdmarker.c ****   if (cid != cinfo->comp_info[2].component_id) goto bad;
 6069              		.loc 1 675 3 is_stmt 1 view .LVU1960
 675:fltk-1.3.4-1/jpeg/jdmarker.c ****   if (cid != cinfo->comp_info[2].component_id) goto bad;
 6070              		.loc 1 675 3 view .LVU1961
 6071 1084 4885DB   		testq	%rbx, %rbx
 6072 1087 751D     		jne	.L444
 675:fltk-1.3.4-1/jpeg/jdmarker.c ****   if (cid != cinfo->comp_info[2].component_id) goto bad;
 6073              		.loc 1 675 3 view .LVU1962
 6074 1089 4C89EF   		movq	%r13, %rdi
 6075 108c FF5518   		call	*24(%rbp)
 6076              	.LVL752:
 675:fltk-1.3.4-1/jpeg/jdmarker.c ****   if (cid != cinfo->comp_info[2].component_id) goto bad;
 6077              		.loc 1 675 3 is_stmt 0 view .LVU1963
 6078 108f 85C0     		testl	%eax, %eax
 6079 1091 0F84B3F1 		je	.L315
 6079      FFFF
 675:fltk-1.3.4-1/jpeg/jdmarker.c ****   if (cid != cinfo->comp_info[2].component_id) goto bad;
 6080              		.loc 1 675 3 is_stmt 1 view .LVU1964
 6081 1097 488B4500 		movq	0(%rbp), %rax
 6082              	.LVL753:
 675:fltk-1.3.4-1/jpeg/jdmarker.c ****   if (cid != cinfo->comp_info[2].component_id) goto bad;
 6083              		.loc 1 675 3 is_stmt 0 view .LVU1965
 6084 109b 488B5D08 		movq	8(%rbp), %rbx
 6085              	.LVL754:
 675:fltk-1.3.4-1/jpeg/jdmarker.c ****   if (cid != cinfo->comp_info[2].component_id) goto bad;
 6086              		.loc 1 675 3 view .LVU1966
 6087 109f 498B9530 		movq	304(%r13), %rdx
 6087      010000
 6088              	.L444:
 675:fltk-1.3.4-1/jpeg/jdmarker.c ****   if (cid != cinfo->comp_info[2].component_id) goto bad;
 6089              		.loc 1 675 3 is_stmt 1 view .LVU1967
 675:fltk-1.3.4-1/jpeg/jdmarker.c ****   if (cid != cinfo->comp_info[2].component_id) goto bad;
 6090              		.loc 1 675 3 view .LVU1968
 6091 10a6 4C8D6001 		leaq	1(%rax), %r12
 6092 10aa 4883EB01 		subq	$1, %rbx
 6093              	.LVL755:
 675:fltk-1.3.4-1/jpeg/jdmarker.c ****   if (cid != cinfo->comp_info[2].component_id) goto bad;
 6094              		.loc 1 675 3 view .LVU1969
 675:fltk-1.3.4-1/jpeg/jdmarker.c ****   if (cid != cinfo->comp_info[2].component_id) goto bad;
 6095              		.loc 1 675 3 view .LVU1970
 676:fltk-1.3.4-1/jpeg/jdmarker.c ****   INPUT_BYTE(cinfo, tmp, return FALSE);
 6096              		.loc 1 676 3 view .LVU1971
 675:fltk-1.3.4-1/jpeg/jdmarker.c ****   if (cid != cinfo->comp_info[2].component_id) goto bad;
 6097              		.loc 1 675 3 is_stmt 0 view .LVU1972
 6098 10ae 0FB600   		movzbl	(%rax), %eax
 6099              	.LVL756:
 676:fltk-1.3.4-1/jpeg/jdmarker.c ****   INPUT_BYTE(cinfo, tmp, return FALSE);
 6100              		.loc 1 676 6 view .LVU1973
 6101 10b1 3B82C000 		cmpl	192(%rdx), %eax
 6101      0000
 6102 10b7 0F8553FB 		jne	.L429
 6102      FFFF
 677:fltk-1.3.4-1/jpeg/jdmarker.c ****   if (tmp != 0x80) goto bad;		/* F1: CENTER1=1, NORM1=0 */
 6103              		.loc 1 677 3 is_stmt 1 view .LVU1974
 677:fltk-1.3.4-1/jpeg/jdmarker.c ****   if (tmp != 0x80) goto bad;		/* F1: CENTER1=1, NORM1=0 */
 6104              		.loc 1 677 3 view .LVU1975
 6105 10bd 4885DB   		testq	%rbx, %rbx
 6106 10c0 0F85A203 		jne	.L475
 6106      0000
 677:fltk-1.3.4-1/jpeg/jdmarker.c ****   if (tmp != 0x80) goto bad;		/* F1: CENTER1=1, NORM1=0 */
 6107              		.loc 1 677 3 view .LVU1976
 6108 10c6 4C89EF   		movq	%r13, %rdi
 6109 10c9 FF5518   		call	*24(%rbp)
 6110              	.LVL757:
 677:fltk-1.3.4-1/jpeg/jdmarker.c ****   if (tmp != 0x80) goto bad;		/* F1: CENTER1=1, NORM1=0 */
 6111              		.loc 1 677 3 is_stmt 0 view .LVU1977
 6112 10cc 85C0     		testl	%eax, %eax
 6113 10ce 0F8476F1 		je	.L315
 6113      FFFF
 677:fltk-1.3.4-1/jpeg/jdmarker.c ****   if (tmp != 0x80) goto bad;		/* F1: CENTER1=1, NORM1=0 */
 6114              		.loc 1 677 3 is_stmt 1 view .LVU1978
 6115 10d4 488B4500 		movq	0(%rbp), %rax
 6116              	.LVL758:
 677:fltk-1.3.4-1/jpeg/jdmarker.c ****   if (tmp != 0x80) goto bad;		/* F1: CENTER1=1, NORM1=0 */
 6117              		.loc 1 677 3 is_stmt 0 view .LVU1979
 6118 10d8 488B5D08 		movq	8(%rbp), %rbx
 6119              	.LVL759:
 6120              	.L445:
 677:fltk-1.3.4-1/jpeg/jdmarker.c ****   if (tmp != 0x80) goto bad;		/* F1: CENTER1=1, NORM1=0 */
 6121              		.loc 1 677 3 is_stmt 1 view .LVU1980
 677:fltk-1.3.4-1/jpeg/jdmarker.c ****   if (tmp != 0x80) goto bad;		/* F1: CENTER1=1, NORM1=0 */
 6122              		.loc 1 677 3 view .LVU1981
 6123 10dc 4883EB01 		subq	$1, %rbx
 6124              	.LVL760:
 677:fltk-1.3.4-1/jpeg/jdmarker.c ****   if (tmp != 0x80) goto bad;		/* F1: CENTER1=1, NORM1=0 */
 6125              		.loc 1 677 3 view .LVU1982
 678:fltk-1.3.4-1/jpeg/jdmarker.c ****   INPUT_2BYTES(cinfo, tmp, return FALSE);
 6126              		.loc 1 678 6 is_stmt 0 view .LVU1983
 6127 10e0 803880   		cmpb	$-128, (%rax)
 677:fltk-1.3.4-1/jpeg/jdmarker.c ****   if (tmp != 0x80) goto bad;		/* F1: CENTER1=1, NORM1=0 */
 6128              		.loc 1 677 3 view .LVU1984
 6129 10e3 4C8D6001 		leaq	1(%rax), %r12
 6130              	.LVL761:
 677:fltk-1.3.4-1/jpeg/jdmarker.c ****   if (tmp != 0x80) goto bad;		/* F1: CENTER1=1, NORM1=0 */
 6131              		.loc 1 677 3 is_stmt 1 view .LVU1985
 678:fltk-1.3.4-1/jpeg/jdmarker.c ****   INPUT_2BYTES(cinfo, tmp, return FALSE);
 6132              		.loc 1 678 3 view .LVU1986
 678:fltk-1.3.4-1/jpeg/jdmarker.c ****   INPUT_2BYTES(cinfo, tmp, return FALSE);
 6133              		.loc 1 678 6 is_stmt 0 view .LVU1987
 6134 10e7 0F8523FB 		jne	.L429
 6134      FFFF
 679:fltk-1.3.4-1/jpeg/jdmarker.c ****   if (tmp != 0) goto bad;			/* A(1,1)=0 */
 6135              		.loc 1 679 3 is_stmt 1 view .LVU1988
 679:fltk-1.3.4-1/jpeg/jdmarker.c ****   if (tmp != 0) goto bad;			/* A(1,1)=0 */
 6136              		.loc 1 679 3 view .LVU1989
 6137 10ed 4885DB   		testq	%rbx, %rbx
 6138 10f0 7516     		jne	.L446
 679:fltk-1.3.4-1/jpeg/jdmarker.c ****   if (tmp != 0) goto bad;			/* A(1,1)=0 */
 6139              		.loc 1 679 3 view .LVU1990
 6140 10f2 4C89EF   		movq	%r13, %rdi
 6141 10f5 FF5518   		call	*24(%rbp)
 6142              	.LVL762:
 679:fltk-1.3.4-1/jpeg/jdmarker.c ****   if (tmp != 0) goto bad;			/* A(1,1)=0 */
 6143              		.loc 1 679 3 is_stmt 0 view .LVU1991
 6144 10f8 85C0     		testl	%eax, %eax
 6145 10fa 0F844AF1 		je	.L315
 6145      FFFF
 679:fltk-1.3.4-1/jpeg/jdmarker.c ****   if (tmp != 0) goto bad;			/* A(1,1)=0 */
 6146              		.loc 1 679 3 is_stmt 1 view .LVU1992
 6147 1100 4C8B6500 		movq	0(%rbp), %r12
 6148              	.LVL763:
 679:fltk-1.3.4-1/jpeg/jdmarker.c ****   if (tmp != 0) goto bad;			/* A(1,1)=0 */
 6149              		.loc 1 679 3 is_stmt 0 view .LVU1993
 6150 1104 488B5D08 		movq	8(%rbp), %rbx
 6151              	.LVL764:
 6152              	.L446:
 679:fltk-1.3.4-1/jpeg/jdmarker.c ****   if (tmp != 0) goto bad;			/* A(1,1)=0 */
 6153              		.loc 1 679 3 is_stmt 1 view .LVU1994
 679:fltk-1.3.4-1/jpeg/jdmarker.c ****   if (tmp != 0) goto bad;			/* A(1,1)=0 */
 6154              		.loc 1 679 3 view .LVU1995
 679:fltk-1.3.4-1/jpeg/jdmarker.c ****   if (tmp != 0) goto bad;			/* A(1,1)=0 */
 6155              		.loc 1 679 3 view .LVU1996
 679:fltk-1.3.4-1/jpeg/jdmarker.c ****   if (tmp != 0) goto bad;			/* A(1,1)=0 */
 6156              		.loc 1 679 3 is_stmt 0 view .LVU1997
 6157 1108 410FB604 		movzbl	(%r12), %eax
 6157      24
 6158 110d C1E008   		sall	$8, %eax
 6159 1110 4883EB01 		subq	$1, %rbx
 6160              	.LVL765:
 679:fltk-1.3.4-1/jpeg/jdmarker.c ****   if (tmp != 0) goto bad;			/* A(1,1)=0 */
 6161              		.loc 1 679 3 view .LVU1998
 6162 1114 4189C6   		movl	%eax, %r14d
 6163              	.LVL766:
 679:fltk-1.3.4-1/jpeg/jdmarker.c ****   if (tmp != 0) goto bad;			/* A(1,1)=0 */
 6164              		.loc 1 679 3 is_stmt 1 view .LVU1999
 6165 1117 498D4424 		leaq	1(%r12), %rax
 6165      01
 6166              	.LVL767:
 679:fltk-1.3.4-1/jpeg/jdmarker.c ****   if (tmp != 0) goto bad;			/* A(1,1)=0 */
 6167              		.loc 1 679 3 is_stmt 0 view .LVU2000
 6168 111c 7516     		jne	.L448
 679:fltk-1.3.4-1/jpeg/jdmarker.c ****   if (tmp != 0) goto bad;			/* A(1,1)=0 */
 6169              		.loc 1 679 3 is_stmt 1 view .LVU2001
 6170 111e 4C89EF   		movq	%r13, %rdi
 6171 1121 FF5518   		call	*24(%rbp)
 6172              	.LVL768:
 679:fltk-1.3.4-1/jpeg/jdmarker.c ****   if (tmp != 0) goto bad;			/* A(1,1)=0 */
 6173              		.loc 1 679 3 is_stmt 0 view .LVU2002
 6174 1124 85C0     		testl	%eax, %eax
 6175 1126 0F841EF1 		je	.L315
 6175      FFFF
 679:fltk-1.3.4-1/jpeg/jdmarker.c ****   if (tmp != 0) goto bad;			/* A(1,1)=0 */
 6176              		.loc 1 679 3 is_stmt 1 view .LVU2003
 6177 112c 488B4500 		movq	0(%rbp), %rax
 6178              	.LVL769:
 679:fltk-1.3.4-1/jpeg/jdmarker.c ****   if (tmp != 0) goto bad;			/* A(1,1)=0 */
 6179              		.loc 1 679 3 is_stmt 0 view .LVU2004
 6180 1130 488B5D08 		movq	8(%rbp), %rbx
 6181              	.LVL770:
 6182              	.L448:
 679:fltk-1.3.4-1/jpeg/jdmarker.c ****   if (tmp != 0) goto bad;			/* A(1,1)=0 */
 6183              		.loc 1 679 3 is_stmt 1 view .LVU2005
 679:fltk-1.3.4-1/jpeg/jdmarker.c ****   if (tmp != 0) goto bad;			/* A(1,1)=0 */
 6184              		.loc 1 679 3 view .LVU2006
 6185 1134 4C8D6001 		leaq	1(%rax), %r12
 6186 1138 0FB600   		movzbl	(%rax), %eax
 6187              	.LVL771:
 679:fltk-1.3.4-1/jpeg/jdmarker.c ****   if (tmp != 0) goto bad;			/* A(1,1)=0 */
 6188              		.loc 1 679 3 is_stmt 0 view .LVU2007
 6189 113b 4883EB01 		subq	$1, %rbx
 6190              	.LVL772:
 679:fltk-1.3.4-1/jpeg/jdmarker.c ****   if (tmp != 0) goto bad;			/* A(1,1)=0 */
 6191              		.loc 1 679 3 is_stmt 1 view .LVU2008
 679:fltk-1.3.4-1/jpeg/jdmarker.c ****   if (tmp != 0) goto bad;			/* A(1,1)=0 */
 6192              		.loc 1 679 3 view .LVU2009
 680:fltk-1.3.4-1/jpeg/jdmarker.c ****   INPUT_2BYTES(cinfo, tmp, return FALSE);
 6193              		.loc 1 680 3 view .LVU2010
 680:fltk-1.3.4-1/jpeg/jdmarker.c ****   INPUT_2BYTES(cinfo, tmp, return FALSE);
 6194              		.loc 1 680 6 is_stmt 0 view .LVU2011
 6195 113f 4401F0   		addl	%r14d, %eax
 6196 1142 0F85C8FA 		jne	.L429
 6196      FFFF
 681:fltk-1.3.4-1/jpeg/jdmarker.c ****   if (tmp != 0) goto bad;			/* A(1,2)=0 */
 6197              		.loc 1 681 3 is_stmt 1 view .LVU2012
 681:fltk-1.3.4-1/jpeg/jdmarker.c ****   if (tmp != 0) goto bad;			/* A(1,2)=0 */
 6198              		.loc 1 681 3 view .LVU2013
 6199 1148 4885DB   		testq	%rbx, %rbx
 6200 114b 7516     		jne	.L449
 681:fltk-1.3.4-1/jpeg/jdmarker.c ****   if (tmp != 0) goto bad;			/* A(1,2)=0 */
 6201              		.loc 1 681 3 view .LVU2014
 6202 114d 4C89EF   		movq	%r13, %rdi
 6203 1150 FF5518   		call	*24(%rbp)
 6204              	.LVL773:
 6205 1153 85C0     		testl	%eax, %eax
 6206 1155 0F84EFF0 		je	.L315
 6206      FFFF
 681:fltk-1.3.4-1/jpeg/jdmarker.c ****   if (tmp != 0) goto bad;			/* A(1,2)=0 */
 6207              		.loc 1 681 3 view .LVU2015
 6208 115b 4C8B6500 		movq	0(%rbp), %r12
 6209              	.LVL774:
 681:fltk-1.3.4-1/jpeg/jdmarker.c ****   if (tmp != 0) goto bad;			/* A(1,2)=0 */
 6210              		.loc 1 681 3 is_stmt 0 view .LVU2016
 6211 115f 488B5D08 		movq	8(%rbp), %rbx
 6212              	.LVL775:
 6213              	.L449:
 681:fltk-1.3.4-1/jpeg/jdmarker.c ****   if (tmp != 0) goto bad;			/* A(1,2)=0 */
 6214              		.loc 1 681 3 is_stmt 1 view .LVU2017
 681:fltk-1.3.4-1/jpeg/jdmarker.c ****   if (tmp != 0) goto bad;			/* A(1,2)=0 */
 6215              		.loc 1 681 3 view .LVU2018
 681:fltk-1.3.4-1/jpeg/jdmarker.c ****   if (tmp != 0) goto bad;			/* A(1,2)=0 */
 6216              		.loc 1 681 3 view .LVU2019
 681:fltk-1.3.4-1/jpeg/jdmarker.c ****   if (tmp != 0) goto bad;			/* A(1,2)=0 */
 6217              		.loc 1 681 3 is_stmt 0 view .LVU2020
 6218 1163 410FB604 		movzbl	(%r12), %eax
 6218      24
 6219 1168 C1E008   		sall	$8, %eax
 6220 116b 4883EB01 		subq	$1, %rbx
 6221              	.LVL776:
 681:fltk-1.3.4-1/jpeg/jdmarker.c ****   if (tmp != 0) goto bad;			/* A(1,2)=0 */
 6222              		.loc 1 681 3 view .LVU2021
 6223 116f 4189C6   		movl	%eax, %r14d
 6224              	.LVL777:
 681:fltk-1.3.4-1/jpeg/jdmarker.c ****   if (tmp != 0) goto bad;			/* A(1,2)=0 */
 6225              		.loc 1 681 3 is_stmt 1 view .LVU2022
 6226 1172 498D4424 		leaq	1(%r12), %rax
 6226      01
 6227              	.LVL778:
 681:fltk-1.3.4-1/jpeg/jdmarker.c ****   if (tmp != 0) goto bad;			/* A(1,2)=0 */
 6228              		.loc 1 681 3 is_stmt 0 view .LVU2023
 6229 1177 7516     		jne	.L451
 681:fltk-1.3.4-1/jpeg/jdmarker.c ****   if (tmp != 0) goto bad;			/* A(1,2)=0 */
 6230              		.loc 1 681 3 is_stmt 1 view .LVU2024
 6231 1179 4C89EF   		movq	%r13, %rdi
 6232 117c FF5518   		call	*24(%rbp)
 6233              	.LVL779:
 681:fltk-1.3.4-1/jpeg/jdmarker.c ****   if (tmp != 0) goto bad;			/* A(1,2)=0 */
 6234              		.loc 1 681 3 is_stmt 0 view .LVU2025
 6235 117f 85C0     		testl	%eax, %eax
 6236 1181 0F84C3F0 		je	.L315
 6236      FFFF
 681:fltk-1.3.4-1/jpeg/jdmarker.c ****   if (tmp != 0) goto bad;			/* A(1,2)=0 */
 6237              		.loc 1 681 3 is_stmt 1 view .LVU2026
 6238 1187 488B4500 		movq	0(%rbp), %rax
 6239              	.LVL780:
 681:fltk-1.3.4-1/jpeg/jdmarker.c ****   if (tmp != 0) goto bad;			/* A(1,2)=0 */
 6240              		.loc 1 681 3 is_stmt 0 view .LVU2027
 6241 118b 488B5D08 		movq	8(%rbp), %rbx
 6242              	.LVL781:
 6243              	.L451:
 681:fltk-1.3.4-1/jpeg/jdmarker.c ****   if (tmp != 0) goto bad;			/* A(1,2)=0 */
 6244              		.loc 1 681 3 is_stmt 1 view .LVU2028
 681:fltk-1.3.4-1/jpeg/jdmarker.c ****   if (tmp != 0) goto bad;			/* A(1,2)=0 */
 6245              		.loc 1 681 3 view .LVU2029
 6246 118f 4C8D6001 		leaq	1(%rax), %r12
 6247 1193 0FB600   		movzbl	(%rax), %eax
 6248              	.LVL782:
 681:fltk-1.3.4-1/jpeg/jdmarker.c ****   if (tmp != 0) goto bad;			/* A(1,2)=0 */
 6249              		.loc 1 681 3 is_stmt 0 view .LVU2030
 6250 1196 4883EB01 		subq	$1, %rbx
 6251              	.LVL783:
 681:fltk-1.3.4-1/jpeg/jdmarker.c ****   if (tmp != 0) goto bad;			/* A(1,2)=0 */
 6252              		.loc 1 681 3 is_stmt 1 view .LVU2031
 681:fltk-1.3.4-1/jpeg/jdmarker.c ****   if (tmp != 0) goto bad;			/* A(1,2)=0 */
 6253              		.loc 1 681 3 view .LVU2032
 682:fltk-1.3.4-1/jpeg/jdmarker.c ****   INPUT_BYTE(cinfo, tmp, return FALSE);
 6254              		.loc 1 682 3 view .LVU2033
 682:fltk-1.3.4-1/jpeg/jdmarker.c ****   INPUT_BYTE(cinfo, tmp, return FALSE);
 6255              		.loc 1 682 6 is_stmt 0 view .LVU2034
 6256 119a 4401F0   		addl	%r14d, %eax
 6257 119d 0F856DFA 		jne	.L429
 6257      FFFF
 683:fltk-1.3.4-1/jpeg/jdmarker.c ****   if (tmp != 0) goto bad;		/* F2: CENTER2=0, NORM2=0 */
 6258              		.loc 1 683 3 is_stmt 1 view .LVU2035
 683:fltk-1.3.4-1/jpeg/jdmarker.c ****   if (tmp != 0) goto bad;		/* F2: CENTER2=0, NORM2=0 */
 6259              		.loc 1 683 3 view .LVU2036
 6260 11a3 4885DB   		testq	%rbx, %rbx
 6261 11a6 7516     		jne	.L452
 683:fltk-1.3.4-1/jpeg/jdmarker.c ****   if (tmp != 0) goto bad;		/* F2: CENTER2=0, NORM2=0 */
 6262              		.loc 1 683 3 view .LVU2037
 6263 11a8 4C89EF   		movq	%r13, %rdi
 6264 11ab FF5518   		call	*24(%rbp)
 6265              	.LVL784:
 6266 11ae 85C0     		testl	%eax, %eax
 6267 11b0 0F8494F0 		je	.L315
 6267      FFFF
 683:fltk-1.3.4-1/jpeg/jdmarker.c ****   if (tmp != 0) goto bad;		/* F2: CENTER2=0, NORM2=0 */
 6268              		.loc 1 683 3 view .LVU2038
 6269 11b6 4C8B6500 		movq	0(%rbp), %r12
 6270              	.LVL785:
 683:fltk-1.3.4-1/jpeg/jdmarker.c ****   if (tmp != 0) goto bad;		/* F2: CENTER2=0, NORM2=0 */
 6271              		.loc 1 683 3 is_stmt 0 view .LVU2039
 6272 11ba 488B5D08 		movq	8(%rbp), %rbx
 6273              	.LVL786:
 6274              	.L452:
 683:fltk-1.3.4-1/jpeg/jdmarker.c ****   if (tmp != 0) goto bad;		/* F2: CENTER2=0, NORM2=0 */
 6275              		.loc 1 683 3 is_stmt 1 view .LVU2040
 683:fltk-1.3.4-1/jpeg/jdmarker.c ****   if (tmp != 0) goto bad;		/* F2: CENTER2=0, NORM2=0 */
 6276              		.loc 1 683 3 view .LVU2041
 6277 11be 4883EB01 		subq	$1, %rbx
 6278              	.LVL787:
 683:fltk-1.3.4-1/jpeg/jdmarker.c ****   if (tmp != 0) goto bad;		/* F2: CENTER2=0, NORM2=0 */
 6279              		.loc 1 683 3 view .LVU2042
 684:fltk-1.3.4-1/jpeg/jdmarker.c ****   INPUT_2BYTES(cinfo, tmp, return FALSE);
 6280              		.loc 1 684 6 is_stmt 0 view .LVU2043
 6281 11c2 41803C24 		cmpb	$0, (%r12)
 6281      00
 683:fltk-1.3.4-1/jpeg/jdmarker.c ****   if (tmp != 0) goto bad;		/* F2: CENTER2=0, NORM2=0 */
 6282              		.loc 1 683 3 view .LVU2044
 6283 11c7 498D4424 		leaq	1(%r12), %rax
 6283      01
 6284              	.LVL788:
 683:fltk-1.3.4-1/jpeg/jdmarker.c ****   if (tmp != 0) goto bad;		/* F2: CENTER2=0, NORM2=0 */
 6285              		.loc 1 683 3 is_stmt 1 view .LVU2045
 684:fltk-1.3.4-1/jpeg/jdmarker.c ****   INPUT_2BYTES(cinfo, tmp, return FALSE);
 6286              		.loc 1 684 3 view .LVU2046
 684:fltk-1.3.4-1/jpeg/jdmarker.c ****   INPUT_2BYTES(cinfo, tmp, return FALSE);
 6287              		.loc 1 684 6 is_stmt 0 view .LVU2047
 6288 11cc 0F8534FA 		jne	.L477
 6288      FFFF
 685:fltk-1.3.4-1/jpeg/jdmarker.c ****   if (tmp != 1) goto bad;			/* A(2,1)=1 */
 6289              		.loc 1 685 3 is_stmt 1 view .LVU2048
 685:fltk-1.3.4-1/jpeg/jdmarker.c ****   if (tmp != 1) goto bad;			/* A(2,1)=1 */
 6290              		.loc 1 685 3 view .LVU2049
 6291 11d2 4885DB   		testq	%rbx, %rbx
 6292 11d5 7516     		jne	.L453
 685:fltk-1.3.4-1/jpeg/jdmarker.c ****   if (tmp != 1) goto bad;			/* A(2,1)=1 */
 6293              		.loc 1 685 3 view .LVU2050
 6294 11d7 4C89EF   		movq	%r13, %rdi
 6295 11da FF5518   		call	*24(%rbp)
 6296              	.LVL789:
 685:fltk-1.3.4-1/jpeg/jdmarker.c ****   if (tmp != 1) goto bad;			/* A(2,1)=1 */
 6297              		.loc 1 685 3 is_stmt 0 view .LVU2051
 6298 11dd 85C0     		testl	%eax, %eax
 6299 11df 0F8465F0 		je	.L315
 6299      FFFF
 685:fltk-1.3.4-1/jpeg/jdmarker.c ****   if (tmp != 1) goto bad;			/* A(2,1)=1 */
 6300              		.loc 1 685 3 is_stmt 1 view .LVU2052
 6301 11e5 488B4500 		movq	0(%rbp), %rax
 6302              	.LVL790:
 685:fltk-1.3.4-1/jpeg/jdmarker.c ****   if (tmp != 1) goto bad;			/* A(2,1)=1 */
 6303              		.loc 1 685 3 is_stmt 0 view .LVU2053
 6304 11e9 488B5D08 		movq	8(%rbp), %rbx
 6305              	.LVL791:
 6306              	.L453:
 685:fltk-1.3.4-1/jpeg/jdmarker.c ****   if (tmp != 1) goto bad;			/* A(2,1)=1 */
 6307              		.loc 1 685 3 is_stmt 1 view .LVU2054
 685:fltk-1.3.4-1/jpeg/jdmarker.c ****   if (tmp != 1) goto bad;			/* A(2,1)=1 */
 6308              		.loc 1 685 3 view .LVU2055
 685:fltk-1.3.4-1/jpeg/jdmarker.c ****   if (tmp != 1) goto bad;			/* A(2,1)=1 */
 6309              		.loc 1 685 3 view .LVU2056
 685:fltk-1.3.4-1/jpeg/jdmarker.c ****   if (tmp != 1) goto bad;			/* A(2,1)=1 */
 6310              		.loc 1 685 3 is_stmt 0 view .LVU2057
 6311 11ed 0FB610   		movzbl	(%rax), %edx
 6312 11f0 C1E208   		sall	$8, %edx
 6313 11f3 4189D6   		movl	%edx, %r14d
 6314              	.LVL792:
 685:fltk-1.3.4-1/jpeg/jdmarker.c ****   if (tmp != 1) goto bad;			/* A(2,1)=1 */
 6315              		.loc 1 685 3 is_stmt 1 view .LVU2058
 6316 11f6 4883EB01 		subq	$1, %rbx
 6317              	.LVL793:
 685:fltk-1.3.4-1/jpeg/jdmarker.c ****   if (tmp != 1) goto bad;			/* A(2,1)=1 */
 6318              		.loc 1 685 3 is_stmt 0 view .LVU2059
 6319 11fa 0F848B02 		je	.L454
 6319      0000
 685:fltk-1.3.4-1/jpeg/jdmarker.c ****   if (tmp != 1) goto bad;			/* A(2,1)=1 */
 6320              		.loc 1 685 3 view .LVU2060
 6321 1200 4883C001 		addq	$1, %rax
 6322              	.LVL794:
 6323              	.L455:
 685:fltk-1.3.4-1/jpeg/jdmarker.c ****   if (tmp != 1) goto bad;			/* A(2,1)=1 */
 6324              		.loc 1 685 3 is_stmt 1 view .LVU2061
 685:fltk-1.3.4-1/jpeg/jdmarker.c ****   if (tmp != 1) goto bad;			/* A(2,1)=1 */
 6325              		.loc 1 685 3 view .LVU2062
 6326 1204 4C8D6001 		leaq	1(%rax), %r12
 6327 1208 0FB600   		movzbl	(%rax), %eax
 6328              	.LVL795:
 685:fltk-1.3.4-1/jpeg/jdmarker.c ****   if (tmp != 1) goto bad;			/* A(2,1)=1 */
 6329              		.loc 1 685 3 is_stmt 0 view .LVU2063
 6330 120b 4883EB01 		subq	$1, %rbx
 6331              	.LVL796:
 685:fltk-1.3.4-1/jpeg/jdmarker.c ****   if (tmp != 1) goto bad;			/* A(2,1)=1 */
 6332              		.loc 1 685 3 is_stmt 1 view .LVU2064
 685:fltk-1.3.4-1/jpeg/jdmarker.c ****   if (tmp != 1) goto bad;			/* A(2,1)=1 */
 6333              		.loc 1 685 3 view .LVU2065
 686:fltk-1.3.4-1/jpeg/jdmarker.c ****   INPUT_2BYTES(cinfo, tmp, return FALSE);
 6334              		.loc 1 686 3 view .LVU2066
 685:fltk-1.3.4-1/jpeg/jdmarker.c ****   if (tmp != 1) goto bad;			/* A(2,1)=1 */
 6335              		.loc 1 685 3 is_stmt 0 view .LVU2067
 6336 120f 4401F0   		addl	%r14d, %eax
 686:fltk-1.3.4-1/jpeg/jdmarker.c ****   INPUT_2BYTES(cinfo, tmp, return FALSE);
 6337              		.loc 1 686 6 view .LVU2068
 6338 1212 83E801   		subl	$1, %eax
 6339 1215 0F85F5F9 		jne	.L429
 6339      FFFF
 687:fltk-1.3.4-1/jpeg/jdmarker.c ****   if (tmp != 0) goto bad;			/* A(2,2)=0 */
 6340              		.loc 1 687 3 is_stmt 1 view .LVU2069
 687:fltk-1.3.4-1/jpeg/jdmarker.c ****   if (tmp != 0) goto bad;			/* A(2,2)=0 */
 6341              		.loc 1 687 3 view .LVU2070
 6342 121b 4885DB   		testq	%rbx, %rbx
 6343 121e 7516     		jne	.L456
 687:fltk-1.3.4-1/jpeg/jdmarker.c ****   if (tmp != 0) goto bad;			/* A(2,2)=0 */
 6344              		.loc 1 687 3 view .LVU2071
 6345 1220 4C89EF   		movq	%r13, %rdi
 6346 1223 FF5518   		call	*24(%rbp)
 6347              	.LVL797:
 6348 1226 85C0     		testl	%eax, %eax
 6349 1228 0F841CF0 		je	.L315
 6349      FFFF
 687:fltk-1.3.4-1/jpeg/jdmarker.c ****   if (tmp != 0) goto bad;			/* A(2,2)=0 */
 6350              		.loc 1 687 3 view .LVU2072
 6351 122e 4C8B6500 		movq	0(%rbp), %r12
 6352              	.LVL798:
 687:fltk-1.3.4-1/jpeg/jdmarker.c ****   if (tmp != 0) goto bad;			/* A(2,2)=0 */
 6353              		.loc 1 687 3 is_stmt 0 view .LVU2073
 6354 1232 488B5D08 		movq	8(%rbp), %rbx
 6355              	.LVL799:
 6356              	.L456:
 687:fltk-1.3.4-1/jpeg/jdmarker.c ****   if (tmp != 0) goto bad;			/* A(2,2)=0 */
 6357              		.loc 1 687 3 is_stmt 1 view .LVU2074
 687:fltk-1.3.4-1/jpeg/jdmarker.c ****   if (tmp != 0) goto bad;			/* A(2,2)=0 */
 6358              		.loc 1 687 3 view .LVU2075
 687:fltk-1.3.4-1/jpeg/jdmarker.c ****   if (tmp != 0) goto bad;			/* A(2,2)=0 */
 6359              		.loc 1 687 3 view .LVU2076
 687:fltk-1.3.4-1/jpeg/jdmarker.c ****   if (tmp != 0) goto bad;			/* A(2,2)=0 */
 6360              		.loc 1 687 3 is_stmt 0 view .LVU2077
 6361 1236 410FB604 		movzbl	(%r12), %eax
 6361      24
 6362 123b C1E008   		sall	$8, %eax
 6363 123e 4883EB01 		subq	$1, %rbx
 6364              	.LVL800:
 687:fltk-1.3.4-1/jpeg/jdmarker.c ****   if (tmp != 0) goto bad;			/* A(2,2)=0 */
 6365              		.loc 1 687 3 view .LVU2078
 6366 1242 4189C6   		movl	%eax, %r14d
 6367              	.LVL801:
 687:fltk-1.3.4-1/jpeg/jdmarker.c ****   if (tmp != 0) goto bad;			/* A(2,2)=0 */
 6368              		.loc 1 687 3 is_stmt 1 view .LVU2079
 6369 1245 498D4424 		leaq	1(%r12), %rax
 6369      01
 6370              	.LVL802:
 687:fltk-1.3.4-1/jpeg/jdmarker.c ****   if (tmp != 0) goto bad;			/* A(2,2)=0 */
 6371              		.loc 1 687 3 is_stmt 0 view .LVU2080
 6372 124a 7516     		jne	.L458
 687:fltk-1.3.4-1/jpeg/jdmarker.c ****   if (tmp != 0) goto bad;			/* A(2,2)=0 */
 6373              		.loc 1 687 3 is_stmt 1 view .LVU2081
 6374 124c 4C89EF   		movq	%r13, %rdi
 6375 124f FF5518   		call	*24(%rbp)
 6376              	.LVL803:
 687:fltk-1.3.4-1/jpeg/jdmarker.c ****   if (tmp != 0) goto bad;			/* A(2,2)=0 */
 6377              		.loc 1 687 3 is_stmt 0 view .LVU2082
 6378 1252 85C0     		testl	%eax, %eax
 6379 1254 0F84F0EF 		je	.L315
 6379      FFFF
 687:fltk-1.3.4-1/jpeg/jdmarker.c ****   if (tmp != 0) goto bad;			/* A(2,2)=0 */
 6380              		.loc 1 687 3 is_stmt 1 view .LVU2083
 6381 125a 488B4500 		movq	0(%rbp), %rax
 6382              	.LVL804:
 687:fltk-1.3.4-1/jpeg/jdmarker.c ****   if (tmp != 0) goto bad;			/* A(2,2)=0 */
 6383              		.loc 1 687 3 is_stmt 0 view .LVU2084
 6384 125e 488B5D08 		movq	8(%rbp), %rbx
 6385              	.LVL805:
 6386              	.L458:
 687:fltk-1.3.4-1/jpeg/jdmarker.c ****   if (tmp != 0) goto bad;			/* A(2,2)=0 */
 6387              		.loc 1 687 3 is_stmt 1 view .LVU2085
 687:fltk-1.3.4-1/jpeg/jdmarker.c ****   if (tmp != 0) goto bad;			/* A(2,2)=0 */
 6388              		.loc 1 687 3 view .LVU2086
 6389 1262 4C8D6001 		leaq	1(%rax), %r12
 6390 1266 0FB600   		movzbl	(%rax), %eax
 6391              	.LVL806:
 687:fltk-1.3.4-1/jpeg/jdmarker.c ****   if (tmp != 0) goto bad;			/* A(2,2)=0 */
 6392              		.loc 1 687 3 is_stmt 0 view .LVU2087
 6393 1269 4883EB01 		subq	$1, %rbx
 6394              	.LVL807:
 687:fltk-1.3.4-1/jpeg/jdmarker.c ****   if (tmp != 0) goto bad;			/* A(2,2)=0 */
 6395              		.loc 1 687 3 is_stmt 1 view .LVU2088
 687:fltk-1.3.4-1/jpeg/jdmarker.c ****   if (tmp != 0) goto bad;			/* A(2,2)=0 */
 6396              		.loc 1 687 3 view .LVU2089
 688:fltk-1.3.4-1/jpeg/jdmarker.c ****   INPUT_BYTE(cinfo, tmp, return FALSE);
 6397              		.loc 1 688 3 view .LVU2090
 688:fltk-1.3.4-1/jpeg/jdmarker.c ****   INPUT_BYTE(cinfo, tmp, return FALSE);
 6398              		.loc 1 688 6 is_stmt 0 view .LVU2091
 6399 126d 4401F0   		addl	%r14d, %eax
 6400 1270 0F859AF9 		jne	.L429
 6400      FFFF
 689:fltk-1.3.4-1/jpeg/jdmarker.c ****   if (tmp != 0) goto bad;		/* F3: CENTER3=0, NORM3=0 */
 6401              		.loc 1 689 3 is_stmt 1 view .LVU2092
 689:fltk-1.3.4-1/jpeg/jdmarker.c ****   if (tmp != 0) goto bad;		/* F3: CENTER3=0, NORM3=0 */
 6402              		.loc 1 689 3 view .LVU2093
 6403 1276 4885DB   		testq	%rbx, %rbx
 6404 1279 7516     		jne	.L459
 689:fltk-1.3.4-1/jpeg/jdmarker.c ****   if (tmp != 0) goto bad;		/* F3: CENTER3=0, NORM3=0 */
 6405              		.loc 1 689 3 view .LVU2094
 6406 127b 4C89EF   		movq	%r13, %rdi
 6407 127e FF5518   		call	*24(%rbp)
 6408              	.LVL808:
 6409 1281 85C0     		testl	%eax, %eax
 6410 1283 0F84C1EF 		je	.L315
 6410      FFFF
 689:fltk-1.3.4-1/jpeg/jdmarker.c ****   if (tmp != 0) goto bad;		/* F3: CENTER3=0, NORM3=0 */
 6411              		.loc 1 689 3 view .LVU2095
 6412 1289 4C8B6500 		movq	0(%rbp), %r12
 6413              	.LVL809:
 689:fltk-1.3.4-1/jpeg/jdmarker.c ****   if (tmp != 0) goto bad;		/* F3: CENTER3=0, NORM3=0 */
 6414              		.loc 1 689 3 is_stmt 0 view .LVU2096
 6415 128d 488B5D08 		movq	8(%rbp), %rbx
 6416              	.LVL810:
 6417              	.L459:
 689:fltk-1.3.4-1/jpeg/jdmarker.c ****   if (tmp != 0) goto bad;		/* F3: CENTER3=0, NORM3=0 */
 6418              		.loc 1 689 3 is_stmt 1 view .LVU2097
 689:fltk-1.3.4-1/jpeg/jdmarker.c ****   if (tmp != 0) goto bad;		/* F3: CENTER3=0, NORM3=0 */
 6419              		.loc 1 689 3 view .LVU2098
 6420 1291 4883EB01 		subq	$1, %rbx
 6421              	.LVL811:
 689:fltk-1.3.4-1/jpeg/jdmarker.c ****   if (tmp != 0) goto bad;		/* F3: CENTER3=0, NORM3=0 */
 6422              		.loc 1 689 3 view .LVU2099
 690:fltk-1.3.4-1/jpeg/jdmarker.c ****   INPUT_2BYTES(cinfo, tmp, return FALSE);
 6423              		.loc 1 690 6 is_stmt 0 view .LVU2100
 6424 1295 41803C24 		cmpb	$0, (%r12)
 6424      00
 689:fltk-1.3.4-1/jpeg/jdmarker.c ****   if (tmp != 0) goto bad;		/* F3: CENTER3=0, NORM3=0 */
 6425              		.loc 1 689 3 view .LVU2101
 6426 129a 498D4424 		leaq	1(%r12), %rax
 6426      01
 6427              	.LVL812:
 689:fltk-1.3.4-1/jpeg/jdmarker.c ****   if (tmp != 0) goto bad;		/* F3: CENTER3=0, NORM3=0 */
 6428              		.loc 1 689 3 is_stmt 1 view .LVU2102
 690:fltk-1.3.4-1/jpeg/jdmarker.c ****   INPUT_2BYTES(cinfo, tmp, return FALSE);
 6429              		.loc 1 690 3 view .LVU2103
 690:fltk-1.3.4-1/jpeg/jdmarker.c ****   INPUT_2BYTES(cinfo, tmp, return FALSE);
 6430              		.loc 1 690 6 is_stmt 0 view .LVU2104
 6431 129f 0F8561F9 		jne	.L477
 6431      FFFF
 691:fltk-1.3.4-1/jpeg/jdmarker.c ****   if (tmp != 1) goto bad;			/* A(3,1)=1 */
 6432              		.loc 1 691 3 is_stmt 1 view .LVU2105
 691:fltk-1.3.4-1/jpeg/jdmarker.c ****   if (tmp != 1) goto bad;			/* A(3,1)=1 */
 6433              		.loc 1 691 3 view .LVU2106
 6434 12a5 4885DB   		testq	%rbx, %rbx
 6435 12a8 7516     		jne	.L460
 691:fltk-1.3.4-1/jpeg/jdmarker.c ****   if (tmp != 1) goto bad;			/* A(3,1)=1 */
 6436              		.loc 1 691 3 view .LVU2107
 6437 12aa 4C89EF   		movq	%r13, %rdi
 6438 12ad FF5518   		call	*24(%rbp)
 6439              	.LVL813:
 691:fltk-1.3.4-1/jpeg/jdmarker.c ****   if (tmp != 1) goto bad;			/* A(3,1)=1 */
 6440              		.loc 1 691 3 is_stmt 0 view .LVU2108
 6441 12b0 85C0     		testl	%eax, %eax
 6442 12b2 0F8492EF 		je	.L315
 6442      FFFF
 691:fltk-1.3.4-1/jpeg/jdmarker.c ****   if (tmp != 1) goto bad;			/* A(3,1)=1 */
 6443              		.loc 1 691 3 is_stmt 1 view .LVU2109
 6444 12b8 488B4500 		movq	0(%rbp), %rax
 6445              	.LVL814:
 691:fltk-1.3.4-1/jpeg/jdmarker.c ****   if (tmp != 1) goto bad;			/* A(3,1)=1 */
 6446              		.loc 1 691 3 is_stmt 0 view .LVU2110
 6447 12bc 488B5D08 		movq	8(%rbp), %rbx
 6448              	.LVL815:
 6449              	.L460:
 691:fltk-1.3.4-1/jpeg/jdmarker.c ****   if (tmp != 1) goto bad;			/* A(3,1)=1 */
 6450              		.loc 1 691 3 is_stmt 1 view .LVU2111
 691:fltk-1.3.4-1/jpeg/jdmarker.c ****   if (tmp != 1) goto bad;			/* A(3,1)=1 */
 6451              		.loc 1 691 3 view .LVU2112
 691:fltk-1.3.4-1/jpeg/jdmarker.c ****   if (tmp != 1) goto bad;			/* A(3,1)=1 */
 6452              		.loc 1 691 3 view .LVU2113
 691:fltk-1.3.4-1/jpeg/jdmarker.c ****   if (tmp != 1) goto bad;			/* A(3,1)=1 */
 6453              		.loc 1 691 3 is_stmt 0 view .LVU2114
 6454 12c0 0FB610   		movzbl	(%rax), %edx
 6455 12c3 C1E208   		sall	$8, %edx
 6456 12c6 4189D6   		movl	%edx, %r14d
 6457              	.LVL816:
 691:fltk-1.3.4-1/jpeg/jdmarker.c ****   if (tmp != 1) goto bad;			/* A(3,1)=1 */
 6458              		.loc 1 691 3 is_stmt 1 view .LVU2115
 6459 12c9 4883EB01 		subq	$1, %rbx
 6460              	.LVL817:
 691:fltk-1.3.4-1/jpeg/jdmarker.c ****   if (tmp != 1) goto bad;			/* A(3,1)=1 */
 6461              		.loc 1 691 3 is_stmt 0 view .LVU2116
 6462 12cd 0F849D01 		je	.L461
 6462      0000
 691:fltk-1.3.4-1/jpeg/jdmarker.c ****   if (tmp != 1) goto bad;			/* A(3,1)=1 */
 6463              		.loc 1 691 3 view .LVU2117
 6464 12d3 4883C001 		addq	$1, %rax
 6465              	.LVL818:
 6466              	.L462:
 691:fltk-1.3.4-1/jpeg/jdmarker.c ****   if (tmp != 1) goto bad;			/* A(3,1)=1 */
 6467              		.loc 1 691 3 is_stmt 1 view .LVU2118
 691:fltk-1.3.4-1/jpeg/jdmarker.c ****   if (tmp != 1) goto bad;			/* A(3,1)=1 */
 6468              		.loc 1 691 3 view .LVU2119
 6469 12d7 4C8D6001 		leaq	1(%rax), %r12
 6470 12db 0FB600   		movzbl	(%rax), %eax
 6471              	.LVL819:
 691:fltk-1.3.4-1/jpeg/jdmarker.c ****   if (tmp != 1) goto bad;			/* A(3,1)=1 */
 6472              		.loc 1 691 3 is_stmt 0 view .LVU2120
 6473 12de 4883EB01 		subq	$1, %rbx
 6474              	.LVL820:
 691:fltk-1.3.4-1/jpeg/jdmarker.c ****   if (tmp != 1) goto bad;			/* A(3,1)=1 */
 6475              		.loc 1 691 3 is_stmt 1 view .LVU2121
 691:fltk-1.3.4-1/jpeg/jdmarker.c ****   if (tmp != 1) goto bad;			/* A(3,1)=1 */
 6476              		.loc 1 691 3 view .LVU2122
 692:fltk-1.3.4-1/jpeg/jdmarker.c ****   INPUT_2BYTES(cinfo, tmp, return FALSE);
 6477              		.loc 1 692 3 view .LVU2123
 691:fltk-1.3.4-1/jpeg/jdmarker.c ****   if (tmp != 1) goto bad;			/* A(3,1)=1 */
 6478              		.loc 1 691 3 is_stmt 0 view .LVU2124
 6479 12e2 4401F0   		addl	%r14d, %eax
 692:fltk-1.3.4-1/jpeg/jdmarker.c ****   INPUT_2BYTES(cinfo, tmp, return FALSE);
 6480              		.loc 1 692 6 view .LVU2125
 6481 12e5 83E801   		subl	$1, %eax
 6482 12e8 0F8522F9 		jne	.L429
 6482      FFFF
 693:fltk-1.3.4-1/jpeg/jdmarker.c ****   if (tmp != 0) {				/* A(3,2)=0 */
 6483              		.loc 1 693 3 is_stmt 1 view .LVU2126
 693:fltk-1.3.4-1/jpeg/jdmarker.c ****   if (tmp != 0) {				/* A(3,2)=0 */
 6484              		.loc 1 693 3 view .LVU2127
 6485 12ee 4885DB   		testq	%rbx, %rbx
 6486 12f1 7516     		jne	.L463
 693:fltk-1.3.4-1/jpeg/jdmarker.c ****   if (tmp != 0) {				/* A(3,2)=0 */
 6487              		.loc 1 693 3 view .LVU2128
 6488 12f3 4C89EF   		movq	%r13, %rdi
 6489 12f6 FF5518   		call	*24(%rbp)
 6490              	.LVL821:
 6491 12f9 85C0     		testl	%eax, %eax
 6492 12fb 0F8449EF 		je	.L315
 6492      FFFF
 693:fltk-1.3.4-1/jpeg/jdmarker.c ****   if (tmp != 0) {				/* A(3,2)=0 */
 6493              		.loc 1 693 3 view .LVU2129
 6494 1301 4C8B6500 		movq	0(%rbp), %r12
 6495              	.LVL822:
 693:fltk-1.3.4-1/jpeg/jdmarker.c ****   if (tmp != 0) {				/* A(3,2)=0 */
 6496              		.loc 1 693 3 is_stmt 0 view .LVU2130
 6497 1305 488B5D08 		movq	8(%rbp), %rbx
 6498              	.LVL823:
 6499              	.L463:
 693:fltk-1.3.4-1/jpeg/jdmarker.c ****   if (tmp != 0) {				/* A(3,2)=0 */
 6500              		.loc 1 693 3 is_stmt 1 view .LVU2131
 693:fltk-1.3.4-1/jpeg/jdmarker.c ****   if (tmp != 0) {				/* A(3,2)=0 */
 6501              		.loc 1 693 3 view .LVU2132
 693:fltk-1.3.4-1/jpeg/jdmarker.c ****   if (tmp != 0) {				/* A(3,2)=0 */
 6502              		.loc 1 693 3 view .LVU2133
 693:fltk-1.3.4-1/jpeg/jdmarker.c ****   if (tmp != 0) {				/* A(3,2)=0 */
 6503              		.loc 1 693 3 is_stmt 0 view .LVU2134
 6504 1309 410FB604 		movzbl	(%r12), %eax
 6504      24
 6505 130e C1E008   		sall	$8, %eax
 6506 1311 4883EB01 		subq	$1, %rbx
 6507              	.LVL824:
 693:fltk-1.3.4-1/jpeg/jdmarker.c ****   if (tmp != 0) {				/* A(3,2)=0 */
 6508              		.loc 1 693 3 view .LVU2135
 6509 1315 4189C6   		movl	%eax, %r14d
 6510              	.LVL825:
 693:fltk-1.3.4-1/jpeg/jdmarker.c ****   if (tmp != 0) {				/* A(3,2)=0 */
 6511              		.loc 1 693 3 is_stmt 1 view .LVU2136
 6512 1318 498D4424 		leaq	1(%r12), %rax
 6512      01
 6513              	.LVL826:
 693:fltk-1.3.4-1/jpeg/jdmarker.c ****   if (tmp != 0) {				/* A(3,2)=0 */
 6514              		.loc 1 693 3 is_stmt 0 view .LVU2137
 6515 131d 7516     		jne	.L465
 693:fltk-1.3.4-1/jpeg/jdmarker.c ****   if (tmp != 0) {				/* A(3,2)=0 */
 6516              		.loc 1 693 3 is_stmt 1 view .LVU2138
 6517 131f 4C89EF   		movq	%r13, %rdi
 6518 1322 FF5518   		call	*24(%rbp)
 6519              	.LVL827:
 693:fltk-1.3.4-1/jpeg/jdmarker.c ****   if (tmp != 0) {				/* A(3,2)=0 */
 6520              		.loc 1 693 3 is_stmt 0 view .LVU2139
 6521 1325 85C0     		testl	%eax, %eax
 6522 1327 0F841DEF 		je	.L315
 6522      FFFF
 693:fltk-1.3.4-1/jpeg/jdmarker.c ****   if (tmp != 0) {				/* A(3,2)=0 */
 6523              		.loc 1 693 3 is_stmt 1 view .LVU2140
 6524 132d 488B4500 		movq	0(%rbp), %rax
 6525              	.LVL828:
 693:fltk-1.3.4-1/jpeg/jdmarker.c ****   if (tmp != 0) {				/* A(3,2)=0 */
 6526              		.loc 1 693 3 is_stmt 0 view .LVU2141
 6527 1331 488B5D08 		movq	8(%rbp), %rbx
 6528              	.LVL829:
 6529              	.L465:
 693:fltk-1.3.4-1/jpeg/jdmarker.c ****   if (tmp != 0) {				/* A(3,2)=0 */
 6530              		.loc 1 693 3 is_stmt 1 view .LVU2142
 693:fltk-1.3.4-1/jpeg/jdmarker.c ****   if (tmp != 0) {				/* A(3,2)=0 */
 6531              		.loc 1 693 3 view .LVU2143
 6532 1335 4C8D6001 		leaq	1(%rax), %r12
 6533 1339 0FB600   		movzbl	(%rax), %eax
 6534              	.LVL830:
 693:fltk-1.3.4-1/jpeg/jdmarker.c ****   if (tmp != 0) {				/* A(3,2)=0 */
 6535              		.loc 1 693 3 is_stmt 0 view .LVU2144
 6536 133c 4883EB01 		subq	$1, %rbx
 6537              	.LVL831:
 693:fltk-1.3.4-1/jpeg/jdmarker.c ****   if (tmp != 0) {				/* A(3,2)=0 */
 6538              		.loc 1 693 3 is_stmt 1 view .LVU2145
 693:fltk-1.3.4-1/jpeg/jdmarker.c ****   if (tmp != 0) {				/* A(3,2)=0 */
 6539              		.loc 1 693 3 view .LVU2146
 694:fltk-1.3.4-1/jpeg/jdmarker.c ****     bad:
 6540              		.loc 1 694 3 view .LVU2147
 694:fltk-1.3.4-1/jpeg/jdmarker.c ****     bad:
 6541              		.loc 1 694 6 is_stmt 0 view .LVU2148
 6542 1340 4401F0   		addl	%r14d, %eax
 6543 1343 0F84DBF8 		je	.L466
 6543      FFFF
 6544 1349 E9C2F8FF 		jmp	.L429
 6544      FF
 6545              	.LVL832:
 6546 134e 6690     		.p2align 4,,10
 6547              		.p2align 3
 6548              	.L716:
 694:fltk-1.3.4-1/jpeg/jdmarker.c ****     bad:
 6549              		.loc 1 694 6 view .LVU2149
 6550 1350 4889D8   		movq	%rbx, %rax
 6551 1353 488D8B80 		leaq	128(%rbx), %rcx
 6551      000000
 6552 135a 660F1F44 		.p2align 4,,10
 6552      0000
 6553              		.p2align 3
 6554              	.L396:
 694:fltk-1.3.4-1/jpeg/jdmarker.c ****     bad:
 6555              		.loc 1 694 6 view .LVU2150
 6556              	.LBE98:
 6557              	.LBE150:
 6558              	.LBB151:
 6559              	.LBB112:
 564:fltk-1.3.4-1/jpeg/jdmarker.c **** 	}
 6560              		.loc 1 564 4 is_stmt 1 view .LVU2151
 564:fltk-1.3.4-1/jpeg/jdmarker.c **** 	}
 6561              		.loc 1 564 27 is_stmt 0 view .LVU2152
 6562 1360 BF010000 		movl	$1, %edi
 6562      00
 6563 1365 4883C002 		addq	$2, %rax
 6564 1369 668978FE 		movw	%di, -2(%rax)
 563:fltk-1.3.4-1/jpeg/jdmarker.c **** 	  quant_ptr->quantval[i] = 1;
 6565              		.loc 1 563 28 is_stmt 1 view .LVU2153
 563:fltk-1.3.4-1/jpeg/jdmarker.c **** 	  quant_ptr->quantval[i] = 1;
 6566              		.loc 1 563 14 view .LVU2154
 563:fltk-1.3.4-1/jpeg/jdmarker.c **** 	  quant_ptr->quantval[i] = 1;
 6567              		.loc 1 563 2 is_stmt 0 view .LVU2155
 6568 136d 4839C1   		cmpq	%rax, %rcx
 6569 1370 75EE     		jne	.L396
 566:fltk-1.3.4-1/jpeg/jdmarker.c ****       } else
 6570              		.loc 1 566 2 is_stmt 1 view .LVU2156
 566:fltk-1.3.4-1/jpeg/jdmarker.c ****       } else
 6571              		.loc 1 566 8 is_stmt 0 view .LVU2157
 6572 1372 488B4424 		movq	16(%rsp), %rax
 6572      10
 6573 1377 48D1F8   		sarq	%rax
 6574 137a 48890424 		movq	%rax, (%rsp)
 6575              	.LVL833:
 566:fltk-1.3.4-1/jpeg/jdmarker.c ****       } else
 6576              		.loc 1 566 8 view .LVU2158
 6577 137e E9E8FAFF 		jmp	.L397
 6577      FF
 6578              	.LVL834:
 6579              		.p2align 4,,10
 6580 1383 0F1F4400 		.p2align 3
 6580      00
 6581              	.L399:
 590:fltk-1.3.4-1/jpeg/jdmarker.c ****       if (prec)
 6582              		.loc 1 590 5 is_stmt 1 view .LVU2159
 590:fltk-1.3.4-1/jpeg/jdmarker.c ****       if (prec)
 6583              		.loc 1 590 17 view .LVU2160
 590:fltk-1.3.4-1/jpeg/jdmarker.c ****       if (prec)
 6584              		.loc 1 590 5 is_stmt 0 view .LVU2161
 6585 1388 48833C24 		cmpq	$0, (%rsp)
 6585      00
 587:fltk-1.3.4-1/jpeg/jdmarker.c ****     }
 6586              		.loc 1 587 31 view .LVU2162
 6587 138d 4C8D2500 		leaq	jpeg_natural_order(%rip), %r12
 6587      000000
 590:fltk-1.3.4-1/jpeg/jdmarker.c ****       if (prec)
 6588              		.loc 1 590 5 view .LVU2163
 6589 1394 0F853EF1 		jne	.L395
 6589      FFFF
 547:fltk-1.3.4-1/jpeg/jdmarker.c ****     prec = n >> 4;
 6590              		.loc 1 547 5 view .LVU2164
 6591 139a 4C89F0   		movq	%r14, %rax
 6592 139d E921FAFF 		jmp	.L406
 6592      FF
 6593              	.LVL835:
 6594              	.L367:
 547:fltk-1.3.4-1/jpeg/jdmarker.c ****     prec = n >> 4;
 6595              		.loc 1 547 5 view .LVU2165
 6596              	.LBE112:
 6597              	.LBE151:
 6598              	.LBB152:
 6599              	.LBB130:
 390:fltk-1.3.4-1/jpeg/jdmarker.c ****   cinfo->Se = c;
 6600              		.loc 1 390 3 is_stmt 1 view .LVU2166
 6601 13a2 4C89EF   		movq	%r13, %rdi
 6602 13a5 FF5518   		call	*24(%rbp)
 6603              	.LVL836:
 390:fltk-1.3.4-1/jpeg/jdmarker.c ****   cinfo->Se = c;
 6604              		.loc 1 390 3 is_stmt 0 view .LVU2167
 6605 13a8 85C0     		testl	%eax, %eax
 6606 13aa 0F849AEE 		je	.L315
 6606      FFFF
 390:fltk-1.3.4-1/jpeg/jdmarker.c ****   cinfo->Se = c;
 6607              		.loc 1 390 3 is_stmt 1 view .LVU2168
 6608 13b0 4C8B6500 		movq	0(%rbp), %r12
 6609              	.LVL837:
 390:fltk-1.3.4-1/jpeg/jdmarker.c ****   cinfo->Se = c;
 6610              		.loc 1 390 3 is_stmt 0 view .LVU2169
 6611 13b4 4C8B7D08 		movq	8(%rbp), %r15
 6612              	.LVL838:
 390:fltk-1.3.4-1/jpeg/jdmarker.c ****   cinfo->Se = c;
 6613              		.loc 1 390 3 view .LVU2170
 6614 13b8 E92EF4FF 		jmp	.L368
 6614      FF
 6615              	.LVL839:
 6616              	.L727:
 390:fltk-1.3.4-1/jpeg/jdmarker.c ****   cinfo->Se = c;
 6617              		.loc 1 390 3 view .LVU2171
 6618              	.LBE130:
 6619              	.LBE152:
 6620              	.LBB153:
 6621              	.LBB99:
 669:fltk-1.3.4-1/jpeg/jdmarker.c ****   if (tmp != 3) goto bad;			/* Nt=3 */
 6622              		.loc 1 669 3 is_stmt 1 view .LVU2172
 6623 13bd 4C89EF   		movq	%r13, %rdi
 6624 13c0 FF5518   		call	*24(%rbp)
 6625              	.LVL840:
 6626 13c3 85C0     		testl	%eax, %eax
 6627 13c5 0F847FEE 		je	.L315
 6627      FFFF
 669:fltk-1.3.4-1/jpeg/jdmarker.c ****   if (tmp != 3) goto bad;			/* Nt=3 */
 6628              		.loc 1 669 3 view .LVU2173
 6629 13cb 4C8B6500 		movq	0(%rbp), %r12
 6630              	.LVL841:
 669:fltk-1.3.4-1/jpeg/jdmarker.c ****   if (tmp != 3) goto bad;			/* Nt=3 */
 6631              		.loc 1 669 3 is_stmt 0 view .LVU2174
 6632 13cf 488B5D08 		movq	8(%rbp), %rbx
 6633              	.LVL842:
 669:fltk-1.3.4-1/jpeg/jdmarker.c ****   if (tmp != 3) goto bad;			/* Nt=3 */
 6634              		.loc 1 669 3 view .LVU2175
 6635 13d3 E92AFCFF 		jmp	.L441
 6635      FF
 6636              	.LVL843:
 6637              	.L400:
 669:fltk-1.3.4-1/jpeg/jdmarker.c ****   if (tmp != 3) goto bad;			/* Nt=3 */
 6638              		.loc 1 669 3 view .LVU2176
 6639              	.LBE99:
 6640              	.LBE153:
 6641              	.LBB154:
 6642              	.LBB113:
 586:fltk-1.3.4-1/jpeg/jdmarker.c ****     default:    natural_order = jpeg_natural_order;  break;
 6643              		.loc 1 586 17 is_stmt 1 view .LVU2177
 586:fltk-1.3.4-1/jpeg/jdmarker.c ****     default:    natural_order = jpeg_natural_order;  break;
 6644              		.loc 1 586 54 view .LVU2178
 590:fltk-1.3.4-1/jpeg/jdmarker.c ****       if (prec)
 6645              		.loc 1 590 5 view .LVU2179
 590:fltk-1.3.4-1/jpeg/jdmarker.c ****       if (prec)
 6646              		.loc 1 590 17 view .LVU2180
 586:fltk-1.3.4-1/jpeg/jdmarker.c ****     default:    natural_order = jpeg_natural_order;  break;
 6647              		.loc 1 586 31 is_stmt 0 view .LVU2181
 6648 13d8 4C8D2500 		leaq	jpeg_natural_order7(%rip), %r12
 6648      000000
 6649 13df E9F4F0FF 		jmp	.L395
 6649      FF
 6650              	.LVL844:
 6651              	.L404:
 583:fltk-1.3.4-1/jpeg/jdmarker.c ****     case (5*5): natural_order = jpeg_natural_order5; break;
 6652              		.loc 1 583 17 is_stmt 1 view .LVU2182
 583:fltk-1.3.4-1/jpeg/jdmarker.c ****     case (5*5): natural_order = jpeg_natural_order5; break;
 6653              		.loc 1 583 54 view .LVU2183
 590:fltk-1.3.4-1/jpeg/jdmarker.c ****       if (prec)
 6654              		.loc 1 590 5 view .LVU2184
 590:fltk-1.3.4-1/jpeg/jdmarker.c ****       if (prec)
 6655              		.loc 1 590 17 view .LVU2185
 583:fltk-1.3.4-1/jpeg/jdmarker.c ****     case (5*5): natural_order = jpeg_natural_order5; break;
 6656              		.loc 1 583 31 is_stmt 0 view .LVU2186
 6657 13e4 4C8D2500 		leaq	jpeg_natural_order4(%rip), %r12
 6657      000000
 6658 13eb E9E8F0FF 		jmp	.L395
 6658      FF
 6659              	.LVL845:
 6660              	.L402:
 585:fltk-1.3.4-1/jpeg/jdmarker.c ****     case (7*7): natural_order = jpeg_natural_order7; break;
 6661              		.loc 1 585 17 is_stmt 1 view .LVU2187
 585:fltk-1.3.4-1/jpeg/jdmarker.c ****     case (7*7): natural_order = jpeg_natural_order7; break;
 6662              		.loc 1 585 54 view .LVU2188
 590:fltk-1.3.4-1/jpeg/jdmarker.c ****       if (prec)
 6663              		.loc 1 590 5 view .LVU2189
 590:fltk-1.3.4-1/jpeg/jdmarker.c ****       if (prec)
 6664              		.loc 1 590 17 view .LVU2190
 585:fltk-1.3.4-1/jpeg/jdmarker.c ****     case (7*7): natural_order = jpeg_natural_order7; break;
 6665              		.loc 1 585 31 is_stmt 0 view .LVU2191
 6666 13f0 4C8D2500 		leaq	jpeg_natural_order6(%rip), %r12
 6666      000000
 6667 13f7 E9DCF0FF 		jmp	.L395
 6667      FF
 6668              	.LVL846:
 6669              	.L403:
 584:fltk-1.3.4-1/jpeg/jdmarker.c ****     case (6*6): natural_order = jpeg_natural_order6; break;
 6670              		.loc 1 584 17 is_stmt 1 view .LVU2192
 584:fltk-1.3.4-1/jpeg/jdmarker.c ****     case (6*6): natural_order = jpeg_natural_order6; break;
 6671              		.loc 1 584 54 view .LVU2193
 590:fltk-1.3.4-1/jpeg/jdmarker.c ****       if (prec)
 6672              		.loc 1 590 5 view .LVU2194
 590:fltk-1.3.4-1/jpeg/jdmarker.c ****       if (prec)
 6673              		.loc 1 590 17 view .LVU2195
 584:fltk-1.3.4-1/jpeg/jdmarker.c ****     case (6*6): natural_order = jpeg_natural_order6; break;
 6674              		.loc 1 584 31 is_stmt 0 view .LVU2196
 6675 13fc 4C8D2500 		leaq	jpeg_natural_order5(%rip), %r12
 6675      000000
 6676 1403 E9D0F0FF 		jmp	.L395
 6676      FF
 6677              	.LVL847:
 6678              	.L471:
 583:fltk-1.3.4-1/jpeg/jdmarker.c ****     case (5*5): natural_order = jpeg_natural_order5; break;
 6679              		.loc 1 583 31 view .LVU2197
 6680 1408 4C8D2500 		leaq	jpeg_natural_order2(%rip), %r12
 6680      000000
 6681 140f E9C4F0FF 		jmp	.L395
 6681      FF
 6682              	.L405:
 582:fltk-1.3.4-1/jpeg/jdmarker.c ****     case (4*4): natural_order = jpeg_natural_order4; break;
 6683              		.loc 1 582 31 view .LVU2198
 6684 1414 4C8D2500 		leaq	jpeg_natural_order3(%rip), %r12
 6684      000000
 6685 141b E9B8F0FF 		jmp	.L395
 6685      FF
 6686              	.LVL848:
 6687              		.p2align 4,,10
 6688              		.p2align 3
 6689              	.L369:
 582:fltk-1.3.4-1/jpeg/jdmarker.c ****     case (4*4): natural_order = jpeg_natural_order4; break;
 6690              		.loc 1 582 31 view .LVU2199
 6691              	.LBE113:
 6692              	.LBE154:
 6693              	.LBB155:
 6694              	.LBB131:
 392:fltk-1.3.4-1/jpeg/jdmarker.c ****   cinfo->Ah = (c >> 4) & 15;
 6695              		.loc 1 392 3 is_stmt 1 view .LVU2200
 6696 1420 4C89EF   		movq	%r13, %rdi
 6697 1423 FF5518   		call	*24(%rbp)
 6698              	.LVL849:
 392:fltk-1.3.4-1/jpeg/jdmarker.c ****   cinfo->Ah = (c >> 4) & 15;
 6699              		.loc 1 392 3 is_stmt 0 view .LVU2201
 6700 1426 85C0     		testl	%eax, %eax
 6701 1428 0F841CEE 		je	.L315
 6701      FFFF
 392:fltk-1.3.4-1/jpeg/jdmarker.c ****   cinfo->Ah = (c >> 4) & 15;
 6702              		.loc 1 392 3 is_stmt 1 view .LVU2202
 6703 142e 4C8B6500 		movq	0(%rbp), %r12
 6704              	.LVL850:
 392:fltk-1.3.4-1/jpeg/jdmarker.c ****   cinfo->Ah = (c >> 4) & 15;
 6705              		.loc 1 392 3 is_stmt 0 view .LVU2203
 6706 1432 4C8B7D08 		movq	8(%rbp), %r15
 6707              	.LVL851:
 392:fltk-1.3.4-1/jpeg/jdmarker.c ****   cinfo->Ah = (c >> 4) & 15;
 6708              		.loc 1 392 3 view .LVU2204
 6709 1436 E9CAF3FF 		jmp	.L370
 6709      FF
 6710              	.LVL852:
 6711              	.L720:
 339:fltk-1.3.4-1/jpeg/jdmarker.c ****       (n == 0 && !cinfo->progressive_mode))
 6712              		.loc 1 339 54 view .LVU2205
 6713 143b 448B1424 		movl	(%rsp), %r10d
 6714 143f 4585D2   		testl	%r10d, %r10d
 6715 1442 0F851CF2 		jne	.L351
 6715      FFFF
 340:fltk-1.3.4-1/jpeg/jdmarker.c ****       /* pseudo SOS marker only allowed in progressive mode */
 6716              		.loc 1 340 15 view .LVU2206
 6717 1448 458B8D3C 		movl	316(%r13), %r9d
 6717      010000
 6718 144f 4585C9   		testl	%r9d, %r9d
 6719 1452 0F84F8F1 		je	.L350
 6719      FFFF
 344:fltk-1.3.4-1/jpeg/jdmarker.c **** 
 6720              		.loc 1 344 3 is_stmt 1 view .LVU2207
 344:fltk-1.3.4-1/jpeg/jdmarker.c **** 
 6721              		.loc 1 344 24 is_stmt 0 view .LVU2208
 6722 1458 41C785C0 		movl	$0, 448(%r13)
 6722      01000000 
 6722      000000
 348:fltk-1.3.4-1/jpeg/jdmarker.c ****     INPUT_BYTE(cinfo, c, return FALSE);
 6723              		.loc 1 348 3 is_stmt 1 view .LVU2209
 6724              	.LVL853:
 348:fltk-1.3.4-1/jpeg/jdmarker.c ****     INPUT_BYTE(cinfo, c, return FALSE);
 6725              		.loc 1 348 15 view .LVU2210
 6726 1463 E943F3FF 		jmp	.L353
 6726      FF
 6727              	.LVL854:
 6728              	.L475:
 348:fltk-1.3.4-1/jpeg/jdmarker.c ****     INPUT_BYTE(cinfo, c, return FALSE);
 6729              		.loc 1 348 15 is_stmt 0 view .LVU2211
 6730              	.LBE131:
 6731              	.LBE155:
 6732              	.LBB156:
 6733              	.LBB100:
 675:fltk-1.3.4-1/jpeg/jdmarker.c ****   if (cid != cinfo->comp_info[2].component_id) goto bad;
 6734              		.loc 1 675 3 view .LVU2212
 6735 1468 4C89E0   		movq	%r12, %rax
 6736              	.LVL855:
 675:fltk-1.3.4-1/jpeg/jdmarker.c ****   if (cid != cinfo->comp_info[2].component_id) goto bad;
 6737              		.loc 1 675 3 view .LVU2213
 6738 146b E96CFCFF 		jmp	.L445
 6738      FF
 6739              	.LVL856:
 6740              	.L461:
 691:fltk-1.3.4-1/jpeg/jdmarker.c ****   if (tmp != 1) goto bad;			/* A(3,1)=1 */
 6741              		.loc 1 691 3 is_stmt 1 view .LVU2214
 6742 1470 4C89EF   		movq	%r13, %rdi
 6743 1473 FF5518   		call	*24(%rbp)
 6744              	.LVL857:
 691:fltk-1.3.4-1/jpeg/jdmarker.c ****   if (tmp != 1) goto bad;			/* A(3,1)=1 */
 6745              		.loc 1 691 3 is_stmt 0 view .LVU2215
 6746 1476 85C0     		testl	%eax, %eax
 6747 1478 0F84CCED 		je	.L315
 6747      FFFF
 691:fltk-1.3.4-1/jpeg/jdmarker.c ****   if (tmp != 1) goto bad;			/* A(3,1)=1 */
 6748              		.loc 1 691 3 is_stmt 1 view .LVU2216
 6749 147e 488B4500 		movq	0(%rbp), %rax
 6750              	.LVL858:
 691:fltk-1.3.4-1/jpeg/jdmarker.c ****   if (tmp != 1) goto bad;			/* A(3,1)=1 */
 6751              		.loc 1 691 3 is_stmt 0 view .LVU2217
 6752 1482 488B5D08 		movq	8(%rbp), %rbx
 6753              	.LVL859:
 691:fltk-1.3.4-1/jpeg/jdmarker.c ****   if (tmp != 1) goto bad;			/* A(3,1)=1 */
 6754              		.loc 1 691 3 view .LVU2218
 6755 1486 E94CFEFF 		jmp	.L462
 6755      FF
 6756              	.LVL860:
 6757              	.L454:
 685:fltk-1.3.4-1/jpeg/jdmarker.c ****   if (tmp != 1) goto bad;			/* A(2,1)=1 */
 6758              		.loc 1 685 3 is_stmt 1 view .LVU2219
 6759 148b 4C89EF   		movq	%r13, %rdi
 6760 148e FF5518   		call	*24(%rbp)
 6761              	.LVL861:
 685:fltk-1.3.4-1/jpeg/jdmarker.c ****   if (tmp != 1) goto bad;			/* A(2,1)=1 */
 6762              		.loc 1 685 3 is_stmt 0 view .LVU2220
 6763 1491 85C0     		testl	%eax, %eax
 6764 1493 0F84B1ED 		je	.L315
 6764      FFFF
 685:fltk-1.3.4-1/jpeg/jdmarker.c ****   if (tmp != 1) goto bad;			/* A(2,1)=1 */
 6765              		.loc 1 685 3 is_stmt 1 view .LVU2221
 6766 1499 488B4500 		movq	0(%rbp), %rax
 6767              	.LVL862:
 685:fltk-1.3.4-1/jpeg/jdmarker.c ****   if (tmp != 1) goto bad;			/* A(2,1)=1 */
 6768              		.loc 1 685 3 is_stmt 0 view .LVU2222
 6769 149d 488B5D08 		movq	8(%rbp), %rbx
 6770              	.LVL863:
 685:fltk-1.3.4-1/jpeg/jdmarker.c ****   if (tmp != 1) goto bad;			/* A(2,1)=1 */
 6771              		.loc 1 685 3 view .LVU2223
 6772 14a1 E95EFDFF 		jmp	.L455
 6772      FF
 6773              	.LBE100:
 6774              	.LBE156:
 6775              		.cfi_endproc
 6776              	.LFE66:
 6778              		.section	.text.jpeg_resync_to_restart,"ax",@progbits
 6779              		.p2align 4
 6780              		.globl	jpeg_resync_to_restart
 6782              	jpeg_resync_to_restart:
 6783              	.LVL864:
 6784              	.LFB68:
1344:fltk-1.3.4-1/jpeg/jdmarker.c ****   int marker = cinfo->unread_marker;
 6785              		.loc 1 1344 1 is_stmt 1 view -0
 6786              		.cfi_startproc
1344:fltk-1.3.4-1/jpeg/jdmarker.c ****   int marker = cinfo->unread_marker;
 6787              		.loc 1 1344 1 is_stmt 0 view .LVU2225
 6788 0000 F30F1EFA 		endbr64
1345:fltk-1.3.4-1/jpeg/jdmarker.c ****   int action = 1;
 6789              		.loc 1 1345 3 is_stmt 1 view .LVU2226
1344:fltk-1.3.4-1/jpeg/jdmarker.c ****   int marker = cinfo->unread_marker;
 6790              		.loc 1 1344 1 is_stmt 0 view .LVU2227
 6791 0004 4156     		pushq	%r14
 6792              		.cfi_def_cfa_offset 16
 6793              		.cfi_offset 14, -16
 6794 0006 4155     		pushq	%r13
 6795              		.cfi_def_cfa_offset 24
 6796              		.cfi_offset 13, -24
 6797 0008 4189F5   		movl	%esi, %r13d
 6798 000b 4154     		pushq	%r12
 6799              		.cfi_def_cfa_offset 32
 6800              		.cfi_offset 12, -32
1359:fltk-1.3.4-1/jpeg/jdmarker.c **** 	action = 3;		/* one of the next two expected restarts */
 6801              		.loc 1 1359 39 view .LVU2228
 6802 000d 458D7502 		leal	2(%r13), %r14d
1344:fltk-1.3.4-1/jpeg/jdmarker.c ****   int marker = cinfo->unread_marker;
 6803              		.loc 1 1344 1 view .LVU2229
 6804 0011 55       		pushq	%rbp
 6805              		.cfi_def_cfa_offset 40
 6806              		.cfi_offset 6, -40
 6807 0012 4889FD   		movq	%rdi, %rbp
 6808 0015 53       		pushq	%rbx
 6809              		.cfi_def_cfa_offset 48
 6810              		.cfi_offset 3, -48
1349:fltk-1.3.4-1/jpeg/jdmarker.c ****   
 6811              		.loc 1 1349 3 view .LVU2230
 6812 0016 488B07   		movq	(%rdi), %rax
1345:fltk-1.3.4-1/jpeg/jdmarker.c ****   int action = 1;
 6813              		.loc 1 1345 7 view .LVU2231
 6814 0019 8B9F3C02 		movl	572(%rdi), %ebx
 6814      0000
 6815              	.LVL865:
1346:fltk-1.3.4-1/jpeg/jdmarker.c ****   
 6816              		.loc 1 1346 3 is_stmt 1 view .LVU2232
1349:fltk-1.3.4-1/jpeg/jdmarker.c ****   
 6817              		.loc 1 1349 3 view .LVU2233
 6818 001f C740287C 		movl	$124, 40(%rax)
 6818      000000
 6819 0026 488B07   		movq	(%rdi), %rax
 6820 0029 89582C   		movl	%ebx, 44(%rax)
 6821 002c 488B07   		movq	(%rdi), %rax
 6822 002f 897030   		movl	%esi, 48(%rax)
 6823 0032 488B07   		movq	(%rdi), %rax
 6824 0035 BEFFFFFF 		movl	$-1, %esi
 6824      FF
 6825              	.LVL866:
1349:fltk-1.3.4-1/jpeg/jdmarker.c ****   
 6826              		.loc 1 1349 3 is_stmt 0 view .LVU2234
 6827 003a FF5008   		call	*8(%rax)
 6828              	.LVL867:
1352:fltk-1.3.4-1/jpeg/jdmarker.c ****     if (marker < (int) M_SOF0)
 6829              		.loc 1 1352 3 is_stmt 1 view .LVU2235
1353:fltk-1.3.4-1/jpeg/jdmarker.c ****       action = 2;		/* invalid marker */
 6830              		.loc 1 1353 5 view .LVU2236
1358:fltk-1.3.4-1/jpeg/jdmarker.c **** 	  marker == ((int) M_RST0 + ((desired+2) & 7)))
 6831              		.loc 1 1358 46 is_stmt 0 view .LVU2237
 6832 003d 418D4501 		leal	1(%r13), %eax
1358:fltk-1.3.4-1/jpeg/jdmarker.c **** 	  marker == ((int) M_RST0 + ((desired+2) & 7)))
 6833              		.loc 1 1358 50 view .LVU2238
 6834 0041 83E007   		andl	$7, %eax
1358:fltk-1.3.4-1/jpeg/jdmarker.c **** 	  marker == ((int) M_RST0 + ((desired+2) & 7)))
 6835              		.loc 1 1358 35 view .LVU2239
 6836 0044 448DA0D0 		leal	208(%rax), %r12d
 6836      000000
1353:fltk-1.3.4-1/jpeg/jdmarker.c ****       action = 2;		/* invalid marker */
 6837              		.loc 1 1353 8 view .LVU2240
 6838 004b 81FBBF00 		cmpl	$191, %ebx
 6838      0000
 6839 0051 7F4A     		jg	.L741
 6840              	.LVL868:
 6841              	.L729:
1367:fltk-1.3.4-1/jpeg/jdmarker.c ****     switch (action) {
 6842              		.loc 1 1367 5 is_stmt 1 view .LVU2241
 6843 0053 488B4500 		movq	0(%rbp), %rax
 6844 0057 4889EF   		movq	%rbp, %rdi
 6845 005a BE040000 		movl	$4, %esi
 6845      00
 6846 005f C7402863 		movl	$99, 40(%rax)
 6846      000000
 6847 0066 488B4500 		movq	0(%rbp), %rax
 6848 006a 89582C   		movl	%ebx, 44(%rax)
 6849 006d 488B4500 		movq	0(%rbp), %rax
 6850 0071 C7403002 		movl	$2, 48(%rax)
 6850      000000
 6851 0078 488B4500 		movq	0(%rbp), %rax
 6852 007c FF5008   		call	*8(%rax)
 6853              	.LVL869:
1368:fltk-1.3.4-1/jpeg/jdmarker.c ****     case 1:
 6854              		.loc 1 1368 5 view .LVU2242
1375:fltk-1.3.4-1/jpeg/jdmarker.c **** 	return FALSE;
 6855              		.loc 1 1375 7 view .LVU2243
1375:fltk-1.3.4-1/jpeg/jdmarker.c **** 	return FALSE;
 6856              		.loc 1 1375 13 is_stmt 0 view .LVU2244
 6857 007f 4889EF   		movq	%rbp, %rdi
 6858 0082 E8000000 		call	next_marker
 6858      00
 6859              	.LVL870:
1375:fltk-1.3.4-1/jpeg/jdmarker.c **** 	return FALSE;
 6860              		.loc 1 1375 10 view .LVU2245
 6861 0087 85C0     		testl	%eax, %eax
 6862 0089 0F849000 		je	.L728
 6862      0000
1377:fltk-1.3.4-1/jpeg/jdmarker.c ****       break;
 6863              		.loc 1 1377 7 is_stmt 1 view .LVU2246
1377:fltk-1.3.4-1/jpeg/jdmarker.c ****       break;
 6864              		.loc 1 1377 14 is_stmt 0 view .LVU2247
 6865 008f 8B9D3C02 		movl	572(%rbp), %ebx
 6865      0000
 6866              	.LVL871:
1378:fltk-1.3.4-1/jpeg/jdmarker.c ****     case 3:
 6867              		.loc 1 1378 7 is_stmt 1 view .LVU2248
1352:fltk-1.3.4-1/jpeg/jdmarker.c ****     if (marker < (int) M_SOF0)
 6868              		.loc 1 1352 3 view .LVU2249
1353:fltk-1.3.4-1/jpeg/jdmarker.c ****       action = 2;		/* invalid marker */
 6869              		.loc 1 1353 5 view .LVU2250
1353:fltk-1.3.4-1/jpeg/jdmarker.c ****       action = 2;		/* invalid marker */
 6870              		.loc 1 1353 8 is_stmt 0 view .LVU2251
 6871 0095 81FBBF00 		cmpl	$191, %ebx
 6871      0000
 6872 009b 7EB6     		jle	.L729
 6873              	.LVL872:
 6874              	.L741:
1355:fltk-1.3.4-1/jpeg/jdmarker.c ****       action = 3;		/* valid non-restart marker */
 6875              		.loc 1 1355 10 is_stmt 1 view .LVU2252
1355:fltk-1.3.4-1/jpeg/jdmarker.c ****       action = 3;		/* valid non-restart marker */
 6876              		.loc 1 1355 36 is_stmt 0 view .LVU2253
 6877 009d 8D8330FF 		leal	-208(%rbx), %eax
 6877      FFFF
1355:fltk-1.3.4-1/jpeg/jdmarker.c ****       action = 3;		/* valid non-restart marker */
 6878              		.loc 1 1355 13 view .LVU2254
 6879 00a3 83F807   		cmpl	$7, %eax
 6880 00a6 0F878400 		ja	.L730
 6880      0000
1358:fltk-1.3.4-1/jpeg/jdmarker.c **** 	  marker == ((int) M_RST0 + ((desired+2) & 7)))
 6881              		.loc 1 1358 7 is_stmt 1 view .LVU2255
1358:fltk-1.3.4-1/jpeg/jdmarker.c **** 	  marker == ((int) M_RST0 + ((desired+2) & 7)))
 6882              		.loc 1 1358 10 is_stmt 0 view .LVU2256
 6883 00ac 4139DC   		cmpl	%ebx, %r12d
 6884 00af 747F     		je	.L730
1359:fltk-1.3.4-1/jpeg/jdmarker.c **** 	action = 3;		/* one of the next two expected restarts */
 6885              		.loc 1 1359 43 discriminator 1 view .LVU2257
 6886 00b1 4489F0   		movl	%r14d, %eax
 6887 00b4 83E007   		andl	$7, %eax
1359:fltk-1.3.4-1/jpeg/jdmarker.c **** 	action = 3;		/* one of the next two expected restarts */
 6888              		.loc 1 1359 28 discriminator 1 view .LVU2258
 6889 00b7 05D00000 		addl	$208, %eax
 6889      00
1358:fltk-1.3.4-1/jpeg/jdmarker.c **** 	  marker == ((int) M_RST0 + ((desired+2) & 7)))
 6890              		.loc 1 1358 56 discriminator 1 view .LVU2259
 6891 00bc 39D8     		cmpl	%ebx, %eax
 6892 00be 7470     		je	.L730
1361:fltk-1.3.4-1/jpeg/jdmarker.c **** 	       marker == ((int) M_RST0 + ((desired-2) & 7)))
 6893              		.loc 1 1361 12 is_stmt 1 view .LVU2260
1361:fltk-1.3.4-1/jpeg/jdmarker.c **** 	       marker == ((int) M_RST0 + ((desired-2) & 7)))
 6894              		.loc 1 1361 51 is_stmt 0 view .LVU2261
 6895 00c0 418D45FF 		leal	-1(%r13), %eax
1361:fltk-1.3.4-1/jpeg/jdmarker.c **** 	       marker == ((int) M_RST0 + ((desired-2) & 7)))
 6896              		.loc 1 1361 55 view .LVU2262
 6897 00c4 83E007   		andl	$7, %eax
1361:fltk-1.3.4-1/jpeg/jdmarker.c **** 	       marker == ((int) M_RST0 + ((desired-2) & 7)))
 6898              		.loc 1 1361 40 view .LVU2263
 6899 00c7 05D00000 		addl	$208, %eax
 6899      00
1361:fltk-1.3.4-1/jpeg/jdmarker.c **** 	       marker == ((int) M_RST0 + ((desired-2) & 7)))
 6900              		.loc 1 1361 15 view .LVU2264
 6901 00cc 39D8     		cmpl	%ebx, %eax
 6902 00ce 7483     		je	.L729
1362:fltk-1.3.4-1/jpeg/jdmarker.c **** 	action = 2;		/* a prior restart, so advance */
 6903              		.loc 1 1362 44 discriminator 1 view .LVU2265
 6904 00d0 418D45FE 		leal	-2(%r13), %eax
1362:fltk-1.3.4-1/jpeg/jdmarker.c **** 	action = 2;		/* a prior restart, so advance */
 6905              		.loc 1 1362 48 discriminator 1 view .LVU2266
 6906 00d4 83E007   		andl	$7, %eax
1362:fltk-1.3.4-1/jpeg/jdmarker.c **** 	action = 2;		/* a prior restart, so advance */
 6907              		.loc 1 1362 33 discriminator 1 view .LVU2267
 6908 00d7 05D00000 		addl	$208, %eax
 6908      00
1361:fltk-1.3.4-1/jpeg/jdmarker.c **** 	       marker == ((int) M_RST0 + ((desired-2) & 7)))
 6909              		.loc 1 1361 61 discriminator 1 view .LVU2268
 6910 00dc 39D8     		cmpl	%ebx, %eax
 6911 00de 0F846FFF 		je	.L729
 6911      FFFF
1365:fltk-1.3.4-1/jpeg/jdmarker.c ****     }
 6912              		.loc 1 1365 2 is_stmt 1 view .LVU2269
 6913              	.LVL873:
1367:fltk-1.3.4-1/jpeg/jdmarker.c ****     switch (action) {
 6914              		.loc 1 1367 5 view .LVU2270
 6915 00e4 488B4500 		movq	0(%rbp), %rax
 6916 00e8 BE040000 		movl	$4, %esi
 6916      00
 6917 00ed 4889EF   		movq	%rbp, %rdi
 6918 00f0 C7402863 		movl	$99, 40(%rax)
 6918      000000
 6919 00f7 488B4500 		movq	0(%rbp), %rax
 6920 00fb 89582C   		movl	%ebx, 44(%rax)
 6921 00fe 488B4500 		movq	0(%rbp), %rax
 6922 0102 C7403001 		movl	$1, 48(%rax)
 6922      000000
 6923 0109 488B4500 		movq	0(%rbp), %rax
 6924 010d FF5008   		call	*8(%rax)
 6925              	.LVL874:
1368:fltk-1.3.4-1/jpeg/jdmarker.c ****     case 1:
 6926              		.loc 1 1368 5 view .LVU2271
1371:fltk-1.3.4-1/jpeg/jdmarker.c ****       return TRUE;
 6927              		.loc 1 1371 7 view .LVU2272
1372:fltk-1.3.4-1/jpeg/jdmarker.c ****     case 2:
 6928              		.loc 1 1372 14 is_stmt 0 view .LVU2273
 6929 0110 B8010000 		movl	$1, %eax
 6929      00
1371:fltk-1.3.4-1/jpeg/jdmarker.c ****       return TRUE;
 6930              		.loc 1 1371 28 view .LVU2274
 6931 0115 C7853C02 		movl	$0, 572(%rbp)
 6931      00000000 
 6931      0000
1372:fltk-1.3.4-1/jpeg/jdmarker.c ****     case 2:
 6932              		.loc 1 1372 7 is_stmt 1 view .LVU2275
 6933              	.LVL875:
 6934              	.L728:
1385:fltk-1.3.4-1/jpeg/jdmarker.c **** 
 6935              		.loc 1 1385 1 is_stmt 0 view .LVU2276
 6936 011f 5B       		popq	%rbx
 6937              		.cfi_remember_state
 6938              		.cfi_def_cfa_offset 40
 6939              	.LVL876:
1385:fltk-1.3.4-1/jpeg/jdmarker.c **** 
 6940              		.loc 1 1385 1 view .LVU2277
 6941 0120 5D       		popq	%rbp
 6942              		.cfi_def_cfa_offset 32
 6943              	.LVL877:
1385:fltk-1.3.4-1/jpeg/jdmarker.c **** 
 6944              		.loc 1 1385 1 view .LVU2278
 6945 0121 415C     		popq	%r12
 6946              		.cfi_def_cfa_offset 24
 6947 0123 415D     		popq	%r13
 6948              		.cfi_def_cfa_offset 16
 6949              	.LVL878:
1385:fltk-1.3.4-1/jpeg/jdmarker.c **** 
 6950              		.loc 1 1385 1 view .LVU2279
 6951 0125 415E     		popq	%r14
 6952              		.cfi_def_cfa_offset 8
 6953              	.LVL879:
1385:fltk-1.3.4-1/jpeg/jdmarker.c **** 
 6954              		.loc 1 1385 1 view .LVU2280
 6955 0127 C3       		ret
 6956              	.LVL880:
 6957 0128 0F1F8400 		.p2align 4,,10
 6957      00000000 
 6958              		.p2align 3
 6959              	.L730:
 6960              		.cfi_restore_state
1367:fltk-1.3.4-1/jpeg/jdmarker.c ****     switch (action) {
 6961              		.loc 1 1367 5 is_stmt 1 view .LVU2281
 6962 0130 488B4500 		movq	0(%rbp), %rax
 6963 0134 4889EF   		movq	%rbp, %rdi
 6964 0137 BE040000 		movl	$4, %esi
 6964      00
 6965 013c C7402863 		movl	$99, 40(%rax)
 6965      000000
 6966 0143 488B4500 		movq	0(%rbp), %rax
 6967 0147 89582C   		movl	%ebx, 44(%rax)
 6968 014a 488B4500 		movq	0(%rbp), %rax
 6969 014e C7403003 		movl	$3, 48(%rax)
 6969      000000
 6970 0155 488B4500 		movq	0(%rbp), %rax
 6971 0159 FF5008   		call	*8(%rax)
 6972              	.LVL881:
1368:fltk-1.3.4-1/jpeg/jdmarker.c ****     case 1:
 6973              		.loc 1 1368 5 view .LVU2282
1385:fltk-1.3.4-1/jpeg/jdmarker.c **** 
 6974              		.loc 1 1385 1 is_stmt 0 view .LVU2283
 6975 015c 5B       		popq	%rbx
 6976              		.cfi_def_cfa_offset 40
 6977              	.LVL882:
1382:fltk-1.3.4-1/jpeg/jdmarker.c ****     }
 6978              		.loc 1 1382 14 view .LVU2284
 6979 015d B8010000 		movl	$1, %eax
 6979      00
1385:fltk-1.3.4-1/jpeg/jdmarker.c **** 
 6980              		.loc 1 1385 1 view .LVU2285
 6981 0162 5D       		popq	%rbp
 6982              		.cfi_def_cfa_offset 32
 6983              	.LVL883:
1385:fltk-1.3.4-1/jpeg/jdmarker.c **** 
 6984              		.loc 1 1385 1 view .LVU2286
 6985 0163 415C     		popq	%r12
 6986              		.cfi_def_cfa_offset 24
 6987 0165 415D     		popq	%r13
 6988              		.cfi_def_cfa_offset 16
 6989              	.LVL884:
1385:fltk-1.3.4-1/jpeg/jdmarker.c **** 
 6990              		.loc 1 1385 1 view .LVU2287
 6991 0167 415E     		popq	%r14
 6992              		.cfi_def_cfa_offset 8
 6993              	.LVL885:
1385:fltk-1.3.4-1/jpeg/jdmarker.c **** 
 6994              		.loc 1 1385 1 view .LVU2288
 6995 0169 C3       		ret
 6996              		.cfi_endproc
 6997              	.LFE68:
 6999              		.section	.text.jinit_marker_reader,"ax",@progbits
 7000              		.p2align 4
 7001              		.globl	jinit_marker_reader
 7003              	jinit_marker_reader:
 7004              	.LVL886:
 7005              	.LFB70:
1405:fltk-1.3.4-1/jpeg/jdmarker.c **** 
1406:fltk-1.3.4-1/jpeg/jdmarker.c **** 
1407:fltk-1.3.4-1/jpeg/jdmarker.c **** /*
1408:fltk-1.3.4-1/jpeg/jdmarker.c ****  * Initialize the marker reader module.
1409:fltk-1.3.4-1/jpeg/jdmarker.c ****  * This is called only once, when the decompression object is created.
1410:fltk-1.3.4-1/jpeg/jdmarker.c ****  */
1411:fltk-1.3.4-1/jpeg/jdmarker.c **** 
1412:fltk-1.3.4-1/jpeg/jdmarker.c **** GLOBAL(void)
1413:fltk-1.3.4-1/jpeg/jdmarker.c **** jinit_marker_reader (j_decompress_ptr cinfo)
1414:fltk-1.3.4-1/jpeg/jdmarker.c **** {
 7006              		.loc 1 1414 1 is_stmt 1 view -0
 7007              		.cfi_startproc
 7008              		.loc 1 1414 1 is_stmt 0 view .LVU2290
 7009 0000 F30F1EFA 		endbr64
1415:fltk-1.3.4-1/jpeg/jdmarker.c ****   my_marker_ptr marker;
 7010              		.loc 1 1415 3 is_stmt 1 view .LVU2291
1416:fltk-1.3.4-1/jpeg/jdmarker.c ****   int i;
 7011              		.loc 1 1416 3 view .LVU2292
1417:fltk-1.3.4-1/jpeg/jdmarker.c **** 
1418:fltk-1.3.4-1/jpeg/jdmarker.c ****   /* Create subobject in permanent pool */
1419:fltk-1.3.4-1/jpeg/jdmarker.c ****   marker = (my_marker_ptr)
 7012              		.loc 1 1419 3 view .LVU2293
1414:fltk-1.3.4-1/jpeg/jdmarker.c ****   my_marker_ptr marker;
 7013              		.loc 1 1414 1 is_stmt 0 view .LVU2294
 7014 0004 53       		pushq	%rbx
 7015              		.cfi_def_cfa_offset 16
 7016              		.cfi_offset 3, -16
1420:fltk-1.3.4-1/jpeg/jdmarker.c ****     (*cinfo->mem->alloc_small) ((j_common_ptr) cinfo, JPOOL_PERMANENT,
 7017              		.loc 1 1420 6 view .LVU2295
 7018 0005 488B4708 		movq	8(%rdi), %rax
1414:fltk-1.3.4-1/jpeg/jdmarker.c ****   my_marker_ptr marker;
 7019              		.loc 1 1414 1 view .LVU2296
 7020 0009 4889FB   		movq	%rdi, %rbx
 7021              		.loc 1 1420 6 view .LVU2297
 7022 000c BA080100 		movl	$264, %edx
 7022      00
 7023 0011 31F6     		xorl	%esi, %esi
 7024 0013 FF10     		call	*(%rax)
 7025              	.LVL887:
1421:fltk-1.3.4-1/jpeg/jdmarker.c **** 				SIZEOF(my_marker_reader));
1422:fltk-1.3.4-1/jpeg/jdmarker.c ****   cinfo->marker = &marker->pub;
 7026              		.loc 1 1422 3 is_stmt 1 view .LVU2298
1423:fltk-1.3.4-1/jpeg/jdmarker.c ****   /* Initialize public method pointers */
1424:fltk-1.3.4-1/jpeg/jdmarker.c ****   marker->pub.reset_marker_reader = reset_marker_reader;
 7027              		.loc 1 1424 35 is_stmt 0 view .LVU2299
 7028 0015 488D3500 		leaq	reset_marker_reader(%rip), %rsi
 7028      000000
1425:fltk-1.3.4-1/jpeg/jdmarker.c ****   marker->pub.read_markers = read_markers;
1426:fltk-1.3.4-1/jpeg/jdmarker.c ****   marker->pub.read_restart_marker = read_restart_marker;
 7029              		.loc 1 1426 35 view .LVU2300
 7030 001c 488D3D00 		leaq	read_restart_marker(%rip), %rdi
 7030      000000
1427:fltk-1.3.4-1/jpeg/jdmarker.c ****   /* Initialize COM/APPn processing.
1428:fltk-1.3.4-1/jpeg/jdmarker.c ****    * By default, we examine and then discard APP0 and APP14,
1429:fltk-1.3.4-1/jpeg/jdmarker.c ****    * but simply discard COM and all other APPn.
1430:fltk-1.3.4-1/jpeg/jdmarker.c ****    */
1431:fltk-1.3.4-1/jpeg/jdmarker.c ****   marker->process_COM = skip_variable;
1432:fltk-1.3.4-1/jpeg/jdmarker.c ****   marker->length_limit_COM = 0;
 7031              		.loc 1 1432 28 view .LVU2301
 7032 0023 31D2     		xorl	%edx, %edx
1422:fltk-1.3.4-1/jpeg/jdmarker.c ****   /* Initialize public method pointers */
 7033              		.loc 1 1422 17 view .LVU2302
 7034 0025 48898368 		movq	%rax, 616(%rbx)
 7034      020000
1424:fltk-1.3.4-1/jpeg/jdmarker.c ****   marker->pub.read_markers = read_markers;
 7035              		.loc 1 1424 3 is_stmt 1 view .LVU2303
1431:fltk-1.3.4-1/jpeg/jdmarker.c ****   marker->length_limit_COM = 0;
 7036              		.loc 1 1431 23 is_stmt 0 view .LVU2304
 7037 002c 488D0D00 		leaq	skip_variable(%rip), %rcx
 7037      000000
1424:fltk-1.3.4-1/jpeg/jdmarker.c ****   marker->pub.read_markers = read_markers;
 7038              		.loc 1 1424 35 view .LVU2305
 7039 0033 488930   		movq	%rsi, (%rax)
1425:fltk-1.3.4-1/jpeg/jdmarker.c ****   marker->pub.read_restart_marker = read_restart_marker;
 7040              		.loc 1 1425 3 is_stmt 1 view .LVU2306
1425:fltk-1.3.4-1/jpeg/jdmarker.c ****   marker->pub.read_restart_marker = read_restart_marker;
 7041              		.loc 1 1425 28 is_stmt 0 view .LVU2307
 7042 0036 488D3500 		leaq	read_markers(%rip), %rsi
 7042      000000
 7043 003d 48897008 		movq	%rsi, 8(%rax)
1426:fltk-1.3.4-1/jpeg/jdmarker.c ****   /* Initialize COM/APPn processing.
 7044              		.loc 1 1426 3 is_stmt 1 view .LVU2308
1426:fltk-1.3.4-1/jpeg/jdmarker.c ****   /* Initialize COM/APPn processing.
 7045              		.loc 1 1426 35 is_stmt 0 view .LVU2309
 7046 0041 48897810 		movq	%rdi, 16(%rax)
1431:fltk-1.3.4-1/jpeg/jdmarker.c ****   marker->length_limit_COM = 0;
 7047              		.loc 1 1431 3 is_stmt 1 view .LVU2310
1431:fltk-1.3.4-1/jpeg/jdmarker.c ****   marker->length_limit_COM = 0;
 7048              		.loc 1 1431 23 is_stmt 0 view .LVU2311
 7049 0045 48894828 		movq	%rcx, 40(%rax)
 7050              		.loc 1 1432 3 is_stmt 1 view .LVU2312
 7051              		.loc 1 1432 28 is_stmt 0 view .LVU2313
 7052 0049 C780B000 		movl	$0, 176(%rax)
 7052      00000000 
 7052      0000
1433:fltk-1.3.4-1/jpeg/jdmarker.c ****   for (i = 0; i < 16; i++) {
 7053              		.loc 1 1433 3 is_stmt 1 view .LVU2314
 7054              	.LVL888:
 7055              		.loc 1 1433 15 view .LVU2315
 7056              		.p2align 4,,10
 7057 0053 0F1F4400 		.p2align 3
 7057      00
 7058              	.L743:
1434:fltk-1.3.4-1/jpeg/jdmarker.c ****     marker->process_APPn[i] = skip_variable;
 7059              		.loc 1 1434 5 discriminator 3 view .LVU2316
 7060              		.loc 1 1434 29 is_stmt 0 discriminator 3 view .LVU2317
 7061 0058 48894C50 		movq	%rcx, 48(%rax,%rdx,2)
 7061      30
1435:fltk-1.3.4-1/jpeg/jdmarker.c ****     marker->length_limit_APPn[i] = 0;
 7062              		.loc 1 1435 5 is_stmt 1 discriminator 3 view .LVU2318
 7063              		.loc 1 1435 34 is_stmt 0 discriminator 3 view .LVU2319
 7064 005d C78410B4 		movl	$0, 180(%rax,%rdx)
 7064      00000000 
 7064      000000
1433:fltk-1.3.4-1/jpeg/jdmarker.c ****   for (i = 0; i < 16; i++) {
 7065              		.loc 1 1433 23 is_stmt 1 discriminator 3 view .LVU2320
1433:fltk-1.3.4-1/jpeg/jdmarker.c ****   for (i = 0; i < 16; i++) {
 7066              		.loc 1 1433 15 discriminator 3 view .LVU2321
 7067 0068 4883C204 		addq	$4, %rdx
1433:fltk-1.3.4-1/jpeg/jdmarker.c ****   for (i = 0; i < 16; i++) {
 7068              		.loc 1 1433 3 is_stmt 0 discriminator 3 view .LVU2322
 7069 006c 4883FA40 		cmpq	$64, %rdx
 7070 0070 75E6     		jne	.L743
1436:fltk-1.3.4-1/jpeg/jdmarker.c ****   }
1437:fltk-1.3.4-1/jpeg/jdmarker.c ****   marker->process_APPn[0] = get_interesting_appn;
 7071              		.loc 1 1437 3 is_stmt 1 view .LVU2323
 7072              		.loc 1 1437 27 is_stmt 0 view .LVU2324
 7073 0072 488D1500 		leaq	get_interesting_appn(%rip), %rdx
 7073      000000
 7074 0079 48895030 		movq	%rdx, 48(%rax)
1438:fltk-1.3.4-1/jpeg/jdmarker.c ****   marker->process_APPn[14] = get_interesting_appn;
 7075              		.loc 1 1438 3 is_stmt 1 view .LVU2325
 7076              		.loc 1 1438 28 is_stmt 0 view .LVU2326
 7077 007d 488990A0 		movq	%rdx, 160(%rax)
 7077      000000
1439:fltk-1.3.4-1/jpeg/jdmarker.c ****   /* Reset marker processing state */
1440:fltk-1.3.4-1/jpeg/jdmarker.c ****   reset_marker_reader(cinfo);
 7078              		.loc 1 1440 3 is_stmt 1 view .LVU2327
 7079              	.LVL889:
 7080              	.LBB157:
 7081              	.LBI157:
1393:fltk-1.3.4-1/jpeg/jdmarker.c **** {
 7082              		.loc 1 1393 1 view .LVU2328
 7083              	.LBB158:
1395:fltk-1.3.4-1/jpeg/jdmarker.c **** 
 7084              		.loc 1 1395 3 view .LVU2329
1395:fltk-1.3.4-1/jpeg/jdmarker.c **** 
 7085              		.loc 1 1395 17 is_stmt 0 view .LVU2330
 7086 0084 488B8368 		movq	616(%rbx), %rax
 7086      020000
 7087              	.LVL890:
1397:fltk-1.3.4-1/jpeg/jdmarker.c ****   cinfo->input_scan_number = 0;		/* no SOS seen yet */
 7088              		.loc 1 1397 3 is_stmt 1 view .LVU2331
1397:fltk-1.3.4-1/jpeg/jdmarker.c ****   cinfo->input_scan_number = 0;		/* no SOS seen yet */
 7089              		.loc 1 1397 20 is_stmt 0 view .LVU2332
 7090 008b 48C78330 		movq	$0, 304(%rbx)
 7090      01000000 
 7090      000000
1398:fltk-1.3.4-1/jpeg/jdmarker.c ****   cinfo->unread_marker = 0;		/* no pending marker */
 7091              		.loc 1 1398 3 is_stmt 1 view .LVU2333
1398:fltk-1.3.4-1/jpeg/jdmarker.c ****   cinfo->unread_marker = 0;		/* no pending marker */
 7092              		.loc 1 1398 28 is_stmt 0 view .LVU2334
 7093 0096 C783AC00 		movl	$0, 172(%rbx)
 7093      00000000 
 7093      0000
1399:fltk-1.3.4-1/jpeg/jdmarker.c ****   marker->pub.saw_SOI = FALSE;		/* set internal state too */
 7094              		.loc 1 1399 3 is_stmt 1 view .LVU2335
1399:fltk-1.3.4-1/jpeg/jdmarker.c ****   marker->pub.saw_SOI = FALSE;		/* set internal state too */
 7095              		.loc 1 1399 24 is_stmt 0 view .LVU2336
 7096 00a0 C7833C02 		movl	$0, 572(%rbx)
 7096      00000000 
 7096      0000
1400:fltk-1.3.4-1/jpeg/jdmarker.c ****   marker->pub.saw_SOF = FALSE;
 7097              		.loc 1 1400 3 is_stmt 1 view .LVU2337
1401:fltk-1.3.4-1/jpeg/jdmarker.c ****   marker->pub.discarded_bytes = 0;
 7098              		.loc 1 1401 3 view .LVU2338
1400:fltk-1.3.4-1/jpeg/jdmarker.c ****   marker->pub.saw_SOF = FALSE;
 7099              		.loc 1 1400 23 is_stmt 0 view .LVU2339
 7100 00aa 48C74018 		movq	$0, 24(%rax)
 7100      00000000 
1402:fltk-1.3.4-1/jpeg/jdmarker.c ****   marker->cur_marker = NULL;
 7101              		.loc 1 1402 3 is_stmt 1 view .LVU2340
1402:fltk-1.3.4-1/jpeg/jdmarker.c ****   marker->cur_marker = NULL;
 7102              		.loc 1 1402 31 is_stmt 0 view .LVU2341
 7103 00b2 C7402400 		movl	$0, 36(%rax)
 7103      000000
1403:fltk-1.3.4-1/jpeg/jdmarker.c **** }
 7104              		.loc 1 1403 3 is_stmt 1 view .LVU2342
1403:fltk-1.3.4-1/jpeg/jdmarker.c **** }
 7105              		.loc 1 1403 22 is_stmt 0 view .LVU2343
 7106 00b9 48C780F8 		movq	$0, 248(%rax)
 7106      00000000 
 7106      000000
 7107              	.LVL891:
1403:fltk-1.3.4-1/jpeg/jdmarker.c **** }
 7108              		.loc 1 1403 22 view .LVU2344
 7109              	.LBE158:
 7110              	.LBE157:
1441:fltk-1.3.4-1/jpeg/jdmarker.c **** }
 7111              		.loc 1 1441 1 view .LVU2345
 7112 00c4 5B       		popq	%rbx
 7113              		.cfi_def_cfa_offset 8
 7114              	.LVL892:
 7115              		.loc 1 1441 1 view .LVU2346
 7116 00c5 C3       		ret
 7117              		.cfi_endproc
 7118              	.LFE70:
 7120              		.section	.text.jpeg_save_markers,"ax",@progbits
 7121              		.p2align 4
 7122              		.globl	jpeg_save_markers
 7124              	jpeg_save_markers:
 7125              	.LVL893:
 7126              	.LFB71:
1442:fltk-1.3.4-1/jpeg/jdmarker.c **** 
1443:fltk-1.3.4-1/jpeg/jdmarker.c **** 
1444:fltk-1.3.4-1/jpeg/jdmarker.c **** /*
1445:fltk-1.3.4-1/jpeg/jdmarker.c ****  * Control saving of COM and APPn markers into marker_list.
1446:fltk-1.3.4-1/jpeg/jdmarker.c ****  */
1447:fltk-1.3.4-1/jpeg/jdmarker.c **** 
1448:fltk-1.3.4-1/jpeg/jdmarker.c **** #ifdef SAVE_MARKERS_SUPPORTED
1449:fltk-1.3.4-1/jpeg/jdmarker.c **** 
1450:fltk-1.3.4-1/jpeg/jdmarker.c **** GLOBAL(void)
1451:fltk-1.3.4-1/jpeg/jdmarker.c **** jpeg_save_markers (j_decompress_ptr cinfo, int marker_code,
1452:fltk-1.3.4-1/jpeg/jdmarker.c **** 		   unsigned int length_limit)
1453:fltk-1.3.4-1/jpeg/jdmarker.c **** {
 7127              		.loc 1 1453 1 is_stmt 1 view -0
 7128              		.cfi_startproc
 7129              		.loc 1 1453 1 is_stmt 0 view .LVU2348
 7130 0000 F30F1EFA 		endbr64
1454:fltk-1.3.4-1/jpeg/jdmarker.c ****   my_marker_ptr marker = (my_marker_ptr) cinfo->marker;
 7131              		.loc 1 1454 3 is_stmt 1 view .LVU2349
1455:fltk-1.3.4-1/jpeg/jdmarker.c ****   long maxlength;
1456:fltk-1.3.4-1/jpeg/jdmarker.c ****   jpeg_marker_parser_method processor;
1457:fltk-1.3.4-1/jpeg/jdmarker.c **** 
1458:fltk-1.3.4-1/jpeg/jdmarker.c ****   /* Length limit mustn't be larger than what we can allocate
1459:fltk-1.3.4-1/jpeg/jdmarker.c ****    * (should only be a concern in a 16-bit environment).
1460:fltk-1.3.4-1/jpeg/jdmarker.c ****    */
1461:fltk-1.3.4-1/jpeg/jdmarker.c ****   maxlength = cinfo->mem->max_alloc_chunk - SIZEOF(struct jpeg_marker_struct);
 7132              		.loc 1 1461 25 is_stmt 0 view .LVU2350
 7133 0004 488B4708 		movq	8(%rdi), %rax
1462:fltk-1.3.4-1/jpeg/jdmarker.c ****   if (((long) length_limit) > maxlength)
 7134              		.loc 1 1462 8 view .LVU2351
 7135 0008 4189D0   		movl	%edx, %r8d
1454:fltk-1.3.4-1/jpeg/jdmarker.c ****   my_marker_ptr marker = (my_marker_ptr) cinfo->marker;
 7136              		.loc 1 1454 17 view .LVU2352
 7137 000b 488B8F68 		movq	616(%rdi), %rcx
 7137      020000
 7138              	.LVL894:
1455:fltk-1.3.4-1/jpeg/jdmarker.c ****   long maxlength;
 7139              		.loc 1 1455 3 is_stmt 1 view .LVU2353
1456:fltk-1.3.4-1/jpeg/jdmarker.c **** 
 7140              		.loc 1 1456 3 view .LVU2354
1461:fltk-1.3.4-1/jpeg/jdmarker.c ****   if (((long) length_limit) > maxlength)
 7141              		.loc 1 1461 3 view .LVU2355
1461:fltk-1.3.4-1/jpeg/jdmarker.c ****   if (((long) length_limit) > maxlength)
 7142              		.loc 1 1461 43 is_stmt 0 view .LVU2356
 7143 0012 488B4060 		movq	96(%rax), %rax
 7144 0016 4883E820 		subq	$32, %rax
 7145              	.LVL895:
 7146              		.loc 1 1462 3 is_stmt 1 view .LVU2357
1463:fltk-1.3.4-1/jpeg/jdmarker.c ****     length_limit = (unsigned int) maxlength;
 7147              		.loc 1 1463 18 is_stmt 0 view .LVU2358
 7148 001a 4939C0   		cmpq	%rax, %r8
 7149 001d 0F4FD0   		cmovg	%eax, %edx
 7150              	.LVL896:
1464:fltk-1.3.4-1/jpeg/jdmarker.c **** 
1465:fltk-1.3.4-1/jpeg/jdmarker.c ****   /* Choose processor routine to use.
1466:fltk-1.3.4-1/jpeg/jdmarker.c ****    * APP0/APP14 have special requirements.
1467:fltk-1.3.4-1/jpeg/jdmarker.c ****    */
1468:fltk-1.3.4-1/jpeg/jdmarker.c ****   if (length_limit) {
 7151              		.loc 1 1468 3 is_stmt 1 view .LVU2359
 7152 0020 81FEE000 		cmpl	$224, %esi
 7152      0000
 7153 0026 0F94C0   		sete	%al
 7154              	.LVL897:
 7155              		.loc 1 1468 6 is_stmt 0 view .LVU2360
 7156 0029 85D2     		testl	%edx, %edx
 7157 002b 7433     		je	.L748
1469:fltk-1.3.4-1/jpeg/jdmarker.c ****     processor = save_marker;
 7158              		.loc 1 1469 5 is_stmt 1 view .LVU2361
 7159              	.LVL898:
1470:fltk-1.3.4-1/jpeg/jdmarker.c ****     /* If saving APP0/APP14, save at least enough for our internal use. */
1471:fltk-1.3.4-1/jpeg/jdmarker.c ****     if (marker_code == (int) M_APP0 && length_limit < APP0_DATA_LEN)
 7160              		.loc 1 1471 5 view .LVU2362
 7161              		.loc 1 1471 8 is_stmt 0 view .LVU2363
 7162 002d 83FA0D   		cmpl	$13, %edx
 7163 0030 0F878A00 		ja	.L761
 7163      0000
 7164 0036 84C0     		testb	%al, %al
 7165 0038 0F848200 		je	.L761
 7165      0000
1472:fltk-1.3.4-1/jpeg/jdmarker.c ****       length_limit = APP0_DATA_LEN;
 7166              		.loc 1 1472 20 view .LVU2364
 7167 003e BA0E0000 		movl	$14, %edx
 7167      00
 7168              	.LVL899:
 7169              	.L749:
1473:fltk-1.3.4-1/jpeg/jdmarker.c ****     else if (marker_code == (int) M_APP14 && length_limit < APP14_DATA_LEN)
1474:fltk-1.3.4-1/jpeg/jdmarker.c ****       length_limit = APP14_DATA_LEN;
1475:fltk-1.3.4-1/jpeg/jdmarker.c ****   } else {
1476:fltk-1.3.4-1/jpeg/jdmarker.c ****     processor = skip_variable;
1477:fltk-1.3.4-1/jpeg/jdmarker.c ****     /* If discarding APP0/APP14, use our regular on-the-fly processor. */
1478:fltk-1.3.4-1/jpeg/jdmarker.c ****     if (marker_code == (int) M_APP0 || marker_code == (int) M_APP14)
1479:fltk-1.3.4-1/jpeg/jdmarker.c ****       processor = get_interesting_appn;
1480:fltk-1.3.4-1/jpeg/jdmarker.c ****   }
1481:fltk-1.3.4-1/jpeg/jdmarker.c **** 
1482:fltk-1.3.4-1/jpeg/jdmarker.c ****   if (marker_code == (int) M_COM) {
1483:fltk-1.3.4-1/jpeg/jdmarker.c ****     marker->process_COM = processor;
1484:fltk-1.3.4-1/jpeg/jdmarker.c ****     marker->length_limit_COM = length_limit;
1485:fltk-1.3.4-1/jpeg/jdmarker.c ****   } else if (marker_code >= (int) M_APP0 && marker_code <= (int) M_APP15) {
 7170              		.loc 1 1485 10 is_stmt 1 view .LVU2365
1479:fltk-1.3.4-1/jpeg/jdmarker.c ****   }
 7171              		.loc 1 1479 17 is_stmt 0 view .LVU2366
 7172 0043 4C8D0500 		leaq	save_marker(%rip), %r8
 7172      000000
 7173 004a 8D8620FF 		leal	-224(%rsi), %eax
 7173      FFFF
 7174              	.LVL900:
 7175              	.L757:
1486:fltk-1.3.4-1/jpeg/jdmarker.c ****     marker->process_APPn[marker_code - (int) M_APP0] = processor;
 7176              		.loc 1 1486 5 is_stmt 1 view .LVU2367
 7177              		.loc 1 1486 54 is_stmt 0 view .LVU2368
 7178 0050 4898     		cltq
 7179 0052 4C8944C1 		movq	%r8, 48(%rcx,%rax,8)
 7179      30
 7180              	.LVL901:
1487:fltk-1.3.4-1/jpeg/jdmarker.c ****     marker->length_limit_APPn[marker_code - (int) M_APP0] = length_limit;
 7181              		.loc 1 1487 5 is_stmt 1 view .LVU2369
 7182              		.loc 1 1487 59 is_stmt 0 view .LVU2370
 7183 0057 899481B4 		movl	%edx, 180(%rcx,%rax,4)
 7183      000000
1488:fltk-1.3.4-1/jpeg/jdmarker.c ****   } else
1489:fltk-1.3.4-1/jpeg/jdmarker.c ****     ERREXIT1(cinfo, JERR_UNKNOWN_MARKER, marker_code);
1490:fltk-1.3.4-1/jpeg/jdmarker.c **** }
 7184              		.loc 1 1490 1 view .LVU2371
 7185 005e C3       		ret
 7186              	.LVL902:
 7187 005f 90       		.p2align 4,,10
 7188              		.p2align 3
 7189              	.L748:
1476:fltk-1.3.4-1/jpeg/jdmarker.c ****     /* If discarding APP0/APP14, use our regular on-the-fly processor. */
 7190              		.loc 1 1476 5 is_stmt 1 view .LVU2372
1478:fltk-1.3.4-1/jpeg/jdmarker.c ****       processor = get_interesting_appn;
 7191              		.loc 1 1478 5 view .LVU2373
1478:fltk-1.3.4-1/jpeg/jdmarker.c ****       processor = get_interesting_appn;
 7192              		.loc 1 1478 8 is_stmt 0 view .LVU2374
 7193 0060 81FEEE00 		cmpl	$238, %esi
 7193      0000
 7194 0066 7428     		je	.L763
1476:fltk-1.3.4-1/jpeg/jdmarker.c ****     /* If discarding APP0/APP14, use our regular on-the-fly processor. */
 7195              		.loc 1 1476 15 view .LVU2375
 7196 0068 4C8D0500 		leaq	skip_variable(%rip), %r8
 7196      000000
1478:fltk-1.3.4-1/jpeg/jdmarker.c ****       processor = get_interesting_appn;
 7197              		.loc 1 1478 8 view .LVU2376
 7198 006f 84C0     		testb	%al, %al
 7199 0071 751D     		jne	.L763
 7200              	.LVL903:
 7201              	.L752:
1482:fltk-1.3.4-1/jpeg/jdmarker.c ****     marker->process_COM = processor;
 7202              		.loc 1 1482 3 is_stmt 1 view .LVU2377
1482:fltk-1.3.4-1/jpeg/jdmarker.c ****     marker->process_COM = processor;
 7203              		.loc 1 1482 6 is_stmt 0 view .LVU2378
 7204 0073 81FEFE00 		cmpl	$254, %esi
 7204      0000
 7205 0079 7524     		jne	.L754
 7206              	.L771:
1483:fltk-1.3.4-1/jpeg/jdmarker.c ****     marker->length_limit_COM = length_limit;
 7207              		.loc 1 1483 5 is_stmt 1 view .LVU2379
1483:fltk-1.3.4-1/jpeg/jdmarker.c ****     marker->length_limit_COM = length_limit;
 7208              		.loc 1 1483 25 is_stmt 0 view .LVU2380
 7209 007b 4C894128 		movq	%r8, 40(%rcx)
 7210              	.LVL904:
1484:fltk-1.3.4-1/jpeg/jdmarker.c ****   } else if (marker_code >= (int) M_APP0 && marker_code <= (int) M_APP15) {
 7211              		.loc 1 1484 5 is_stmt 1 view .LVU2381
1484:fltk-1.3.4-1/jpeg/jdmarker.c ****   } else if (marker_code >= (int) M_APP0 && marker_code <= (int) M_APP15) {
 7212              		.loc 1 1484 30 is_stmt 0 view .LVU2382
 7213 007f 8991B000 		movl	%edx, 176(%rcx)
 7213      0000
 7214 0085 C3       		ret
 7215              	.LVL905:
 7216 0086 662E0F1F 		.p2align 4,,10
 7216      84000000 
 7216      0000
 7217              		.p2align 3
 7218              	.L763:
1479:fltk-1.3.4-1/jpeg/jdmarker.c ****   }
 7219              		.loc 1 1479 17 view .LVU2383
 7220 0090 4C8D0500 		leaq	get_interesting_appn(%rip), %r8
 7220      000000
 7221              	.LVL906:
1482:fltk-1.3.4-1/jpeg/jdmarker.c ****     marker->process_COM = processor;
 7222              		.loc 1 1482 3 is_stmt 1 view .LVU2384
1482:fltk-1.3.4-1/jpeg/jdmarker.c ****     marker->process_COM = processor;
 7223              		.loc 1 1482 6 is_stmt 0 view .LVU2385
 7224 0097 81FEFE00 		cmpl	$254, %esi
 7224      0000
 7225 009d 74DC     		je	.L771
 7226              	.L754:
1485:fltk-1.3.4-1/jpeg/jdmarker.c ****     marker->process_APPn[marker_code - (int) M_APP0] = processor;
 7227              		.loc 1 1485 10 is_stmt 1 view .LVU2386
1485:fltk-1.3.4-1/jpeg/jdmarker.c ****     marker->process_APPn[marker_code - (int) M_APP0] = processor;
 7228              		.loc 1 1485 42 is_stmt 0 view .LVU2387
 7229 009f 8D8620FF 		leal	-224(%rsi), %eax
 7229      FFFF
1485:fltk-1.3.4-1/jpeg/jdmarker.c ****     marker->process_APPn[marker_code - (int) M_APP0] = processor;
 7230              		.loc 1 1485 13 view .LVU2388
 7231 00a5 83F80F   		cmpl	$15, %eax
 7232 00a8 76A6     		jbe	.L757
1489:fltk-1.3.4-1/jpeg/jdmarker.c **** }
 7233              		.loc 1 1489 5 is_stmt 1 view .LVU2389
 7234 00aa 488B07   		movq	(%rdi), %rax
 7235 00ad C7402846 		movl	$70, 40(%rax)
 7235      000000
 7236              	.LVL907:
1489:fltk-1.3.4-1/jpeg/jdmarker.c **** }
 7237              		.loc 1 1489 5 is_stmt 0 view .LVU2390
 7238 00b4 488B07   		movq	(%rdi), %rax
 7239 00b7 89702C   		movl	%esi, 44(%rax)
 7240 00ba 488B07   		movq	(%rdi), %rax
 7241 00bd FF20     		jmp	*(%rax)
 7242              	.LVL908:
 7243 00bf 90       		.p2align 4,,10
 7244              		.p2align 3
 7245              	.L761:
1473:fltk-1.3.4-1/jpeg/jdmarker.c ****       length_limit = APP14_DATA_LEN;
 7246              		.loc 1 1473 10 is_stmt 1 view .LVU2391
1473:fltk-1.3.4-1/jpeg/jdmarker.c ****       length_limit = APP14_DATA_LEN;
 7247              		.loc 1 1473 13 is_stmt 0 view .LVU2392
 7248 00c0 81FEEE00 		cmpl	$238, %esi
 7248      0000
 7249 00c6 7518     		jne	.L762
 7250 00c8 83FA0B   		cmpl	$11, %edx
 7251 00cb 7713     		ja	.L762
1474:fltk-1.3.4-1/jpeg/jdmarker.c ****   } else {
 7252              		.loc 1 1474 20 view .LVU2393
 7253 00cd BA0C0000 		movl	$12, %edx
 7253      00
 7254              	.LVL909:
1474:fltk-1.3.4-1/jpeg/jdmarker.c ****   } else {
 7255              		.loc 1 1474 20 view .LVU2394
 7256 00d2 E96CFFFF 		jmp	.L749
 7256      FF
 7257              	.LVL910:
 7258 00d7 660F1F84 		.p2align 4,,10
 7258      00000000 
 7258      00
 7259              		.p2align 3
 7260              	.L762:
1469:fltk-1.3.4-1/jpeg/jdmarker.c ****     /* If saving APP0/APP14, save at least enough for our internal use. */
 7261              		.loc 1 1469 15 view .LVU2395
 7262 00e0 4C8D0500 		leaq	save_marker(%rip), %r8
 7262      000000
 7263 00e7 EB8A     		jmp	.L752
 7264              		.cfi_endproc
 7265              	.LFE71:
 7267              		.section	.text.jpeg_set_marker_processor,"ax",@progbits
 7268              		.p2align 4
 7269              		.globl	jpeg_set_marker_processor
 7271              	jpeg_set_marker_processor:
 7272              	.LVL911:
 7273              	.LFB72:
1491:fltk-1.3.4-1/jpeg/jdmarker.c **** 
1492:fltk-1.3.4-1/jpeg/jdmarker.c **** #endif /* SAVE_MARKERS_SUPPORTED */
1493:fltk-1.3.4-1/jpeg/jdmarker.c **** 
1494:fltk-1.3.4-1/jpeg/jdmarker.c **** 
1495:fltk-1.3.4-1/jpeg/jdmarker.c **** /*
1496:fltk-1.3.4-1/jpeg/jdmarker.c ****  * Install a special processing method for COM or APPn markers.
1497:fltk-1.3.4-1/jpeg/jdmarker.c ****  */
1498:fltk-1.3.4-1/jpeg/jdmarker.c **** 
1499:fltk-1.3.4-1/jpeg/jdmarker.c **** GLOBAL(void)
1500:fltk-1.3.4-1/jpeg/jdmarker.c **** jpeg_set_marker_processor (j_decompress_ptr cinfo, int marker_code,
1501:fltk-1.3.4-1/jpeg/jdmarker.c **** 			   jpeg_marker_parser_method routine)
1502:fltk-1.3.4-1/jpeg/jdmarker.c **** {
 7274              		.loc 1 1502 1 is_stmt 1 view -0
 7275              		.cfi_startproc
 7276              		.loc 1 1502 1 is_stmt 0 view .LVU2397
 7277 0000 F30F1EFA 		endbr64
1503:fltk-1.3.4-1/jpeg/jdmarker.c ****   my_marker_ptr marker = (my_marker_ptr) cinfo->marker;
 7278              		.loc 1 1503 3 is_stmt 1 view .LVU2398
 7279              		.loc 1 1503 17 is_stmt 0 view .LVU2399
 7280 0004 488B8F68 		movq	616(%rdi), %rcx
 7280      020000
 7281              	.LVL912:
1504:fltk-1.3.4-1/jpeg/jdmarker.c **** 
1505:fltk-1.3.4-1/jpeg/jdmarker.c ****   if (marker_code == (int) M_COM)
 7282              		.loc 1 1505 3 is_stmt 1 view .LVU2400
 7283              		.loc 1 1505 6 is_stmt 0 view .LVU2401
 7284 000b 81FEFE00 		cmpl	$254, %esi
 7284      0000
 7285 0011 7435     		je	.L776
1506:fltk-1.3.4-1/jpeg/jdmarker.c ****     marker->process_COM = routine;
1507:fltk-1.3.4-1/jpeg/jdmarker.c ****   else if (marker_code >= (int) M_APP0 && marker_code <= (int) M_APP15)
 7286              		.loc 1 1507 8 is_stmt 1 view .LVU2402
 7287              		.loc 1 1507 40 is_stmt 0 view .LVU2403
 7288 0013 8D8620FF 		leal	-224(%rsi), %eax
 7288      FFFF
 7289              		.loc 1 1507 11 view .LVU2404
 7290 0019 83F80F   		cmpl	$15, %eax
 7291 001c 7712     		ja	.L775
1508:fltk-1.3.4-1/jpeg/jdmarker.c ****     marker->process_APPn[marker_code - (int) M_APP0] = routine;
 7292              		.loc 1 1508 5 is_stmt 1 view .LVU2405
 7293              		.loc 1 1508 54 is_stmt 0 view .LVU2406
 7294 001e 4898     		cltq
 7295 0020 488954C1 		movq	%rdx, 48(%rcx,%rax,8)
 7295      30
1509:fltk-1.3.4-1/jpeg/jdmarker.c ****   else
1510:fltk-1.3.4-1/jpeg/jdmarker.c ****     ERREXIT1(cinfo, JERR_UNKNOWN_MARKER, marker_code);
1511:fltk-1.3.4-1/jpeg/jdmarker.c **** }
 7296              		.loc 1 1511 1 view .LVU2407
 7297 0025 C3       		ret
 7298 0026 662E0F1F 		.p2align 4,,10
 7298      84000000 
 7298      0000
 7299              		.p2align 3
 7300              	.L775:
1510:fltk-1.3.4-1/jpeg/jdmarker.c **** }
 7301              		.loc 1 1510 5 is_stmt 1 view .LVU2408
 7302 0030 488B07   		movq	(%rdi), %rax
 7303 0033 C7402846 		movl	$70, 40(%rax)
 7303      000000
 7304 003a 488B07   		movq	(%rdi), %rax
 7305 003d 89702C   		movl	%esi, 44(%rax)
 7306 0040 488B07   		movq	(%rdi), %rax
 7307 0043 FF20     		jmp	*(%rax)
 7308              	.LVL913:
 7309              		.p2align 4,,10
 7310 0045 0F1F00   		.p2align 3
 7311              	.L776:
1506:fltk-1.3.4-1/jpeg/jdmarker.c ****   else if (marker_code >= (int) M_APP0 && marker_code <= (int) M_APP15)
 7312              		.loc 1 1506 5 view .LVU2409
1506:fltk-1.3.4-1/jpeg/jdmarker.c ****   else if (marker_code >= (int) M_APP0 && marker_code <= (int) M_APP15)
 7313              		.loc 1 1506 25 is_stmt 0 view .LVU2410
 7314 0048 48895128 		movq	%rdx, 40(%rcx)
 7315 004c C3       		ret
 7316              		.cfi_endproc
 7317              	.LFE72:
 7319              		.text
 7320              	.Letext0:
 7321              		.file 3 "/usr/lib/gcc/x86_64-linux-gnu/9/include/stddef.h"
 7322              		.file 4 "/usr/include/x86_64-linux-gnu/bits/types.h"
 7323              		.file 5 "/usr/include/x86_64-linux-gnu/bits/types/struct_FILE.h"
 7324              		.file 6 "/usr/include/x86_64-linux-gnu/bits/types/FILE.h"
 7325              		.file 7 "/usr/include/stdio.h"
 7326              		.file 8 "/usr/include/x86_64-linux-gnu/bits/sys_errlist.h"
 7327              		.file 9 "fltk-1.3.4-1/jpeg/jmorecfg.h"
 7328              		.file 10 "fltk-1.3.4-1/jpeg/jpeglib.h"
 7329              		.file 11 "fltk-1.3.4-1/jpeg/jpegint.h"
 7330              		.file 12 "fltk-1.3.4-1/jpeg/jerror.h"
 31208              		.section	.note.gnu.property,"a"
 31209              		.align 8
 31210 0000 04000000 		.long	 1f - 0f
 31211 0004 10000000 		.long	 4f - 1f
 31212 0008 05000000 		.long	 5
 31213              	0:
 31214 000c 474E5500 		.string	 "GNU"
 31215              	1:
 31216              		.align 8
 31217 0010 020000C0 		.long	 0xc0000002
 31218 0014 04000000 		.long	 3f - 2f
 31219              	2:
 31220 0018 03000000 		.long	 0x3
 31221              	3:
 31222 001c 00000000 		.align 8
 31223              	4:
DEFINED SYMBOLS
                            *ABS*:0000000000000000 jdmarker.c
     /tmp/ccZh3HID.s:7      .text.get_sof:0000000000000000 get_sof
     /tmp/ccZh3HID.s:786    .text.examine_app0:0000000000000000 examine_app0
     /tmp/ccZh3HID.s:1076   .text.skip_variable:0000000000000000 skip_variable
     /tmp/ccZh3HID.s:1269   .text.next_marker:0000000000000000 next_marker
     /tmp/ccZh3HID.s:1512   .text.read_restart_marker:0000000000000000 read_restart_marker
     /tmp/ccZh3HID.s:1624   .text.reset_marker_reader:0000000000000000 reset_marker_reader
     /tmp/ccZh3HID.s:1662   .text.examine_app14:0000000000000000 examine_app14
     /tmp/ccZh3HID.s:1822   .text.get_interesting_appn:0000000000000000 get_interesting_appn
     /tmp/ccZh3HID.s:2147   .text.save_marker:0000000000000000 save_marker
     /tmp/ccZh3HID.s:2624   .text.get_dht:0000000000000000 get_dht
     /tmp/ccZh3HID.s:3331   .text.read_markers:0000000000000000 read_markers
     /tmp/ccZh3HID.s:6782   .text.jpeg_resync_to_restart:0000000000000000 jpeg_resync_to_restart
     /tmp/ccZh3HID.s:7003   .text.jinit_marker_reader:0000000000000000 jinit_marker_reader
     /tmp/ccZh3HID.s:7124   .text.jpeg_save_markers:0000000000000000 jpeg_save_markers
     /tmp/ccZh3HID.s:7271   .text.jpeg_set_marker_processor:0000000000000000 jpeg_set_marker_processor
                           .group:0000000000000000 wm4.0.a6b23a418548ac0bda5d8549c4a2ec91
                           .group:0000000000000000 wm4.stdcpredef.h.19.8dc41bed5d9037ff9622e015fb5f0ce3
                           .group:0000000000000000 wm4.jconfig.h.10.247fc3ff67998f3074970b1373c70333
                           .group:0000000000000000 wm4.features.h.19.5b5f5a19624a0527f479fdc52d54808f
                           .group:0000000000000000 wm4.cdefs.h.19.98d80eddbb3f64f4f30cd9aee9c5593c
                           .group:0000000000000000 wm4.wordsize.h.4.baf119258a1e53d8dba67ceac44ab6bc
                           .group:0000000000000000 wm4.cdefs.h.475.fb75d2e4416aa349344e6f45f683bf28
                           .group:0000000000000000 wm4.stubs64.h.10.6ce4c34010988db072c080326a6b6319
                           .group:0000000000000000 wm4.libcheaderstart.h.37.d9274df4cc0172452960ad9644fa5579
                           .group:0000000000000000 wm4.stdlib.h.28.2cffa49d94c5d85f4538f55f7b59771d
                           .group:0000000000000000 wm4.stddef.h.181.13772e73e5434e8cc4fafaaddad2b5da
                           .group:0000000000000000 wm4.waitflags.h.25.41934de4af99038521c2782f418699b1
                           .group:0000000000000000 wm4.waitstatus.h.28.93f167f49d64e2b9b99f98d1162a93bf
                           .group:0000000000000000 wm4.stdlib.h.43.9fa4f727a2f1cb8d2450a574c9195553
                           .group:0000000000000000 wm4.floatn.h.20.80c7cf8a8dfad237004b28d051d5afda
                           .group:0000000000000000 wm4.floatncommon.h.34.7e1840d7dfb19e9bdb51aeb077d76637
                           .group:0000000000000000 wm4.stdlib.h.71.2927e068ec678159b4f68ec2f089f7e6
                           .group:0000000000000000 wm4.types.h.109.56eb9ae966b255288cc544f18746a7ff
                           .group:0000000000000000 wm4.typesizes.h.24.2c64f817c0dc4b6fb2a2c619d717be26
                           .group:0000000000000000 wm4.time64.h.24.a8166ae916ec910dab0d8987098d42ee
                           .group:0000000000000000 wm4.types.h.40.18f72bab8242c2bb4c532a2aa95b5f00
                           .group:0000000000000000 wm4.stddef.h.231.0adce5c8c1fd8096aaff50981b3d1f0f
                           .group:0000000000000000 wm4.endian.h.20.efabd1018df5d7b4052c27dc6bdd5ce5
                           .group:0000000000000000 wm4.endianness.h.2.2c6a211f7909f3af5e9e9cfa3b6b63c8
                           .group:0000000000000000 wm4.endian.h.40.9e5d395adda2f4eb53ae69b69b664084
                           .group:0000000000000000 wm4.endian.h.27.4c4f94262c4eaee2982fe00ed1b4f173
                           .group:0000000000000000 wm4.byteswap.h.24.5363c019348146aada5aeadf51456576
                           .group:0000000000000000 wm4.endian.h.39.30a606dbd99b6c3df61c1f06dbdabd4e
                           .group:0000000000000000 wm4.select.h.28.eb2f3debdbcffd1442ebddaebc4fb6ff
                           .group:0000000000000000 wm4.__sigset_t.h.2.6b1ab6ff3d7b8fd9c0c42b0d80afbd80
                           .group:0000000000000000 wm4.select.h.44.887a4ff60aa97fcd9c1be017735e1675
                           .group:0000000000000000 wm4.select2.h.27.f95f2ab0ffee66dc1b6575014894b21a
                           .group:0000000000000000 wm4.types.h.186.489a4ed8f2d29cd358843490f54ddea5
                           .group:0000000000000000 wm4.pthreadtypesarch.h.25.6063cba99664c916e22d3a912bcc348a
                           .group:0000000000000000 wm4.struct_mutex.h.20.ed51f515172b9be99e450ba83eb5dd99
                           .group:0000000000000000 wm4.struct_rwlock.h.21.0254880f2904e3833fb8ae683e0f0330
                           .group:0000000000000000 wm4.alloca.h.19.edefa922a76c1cbaaf1e416903ba2d1c
                           .group:0000000000000000 wm4.alloca.h.29.156e12058824cc23d961c4d3b13031f6
                           .group:0000000000000000 wm4.stdio.h.24.5c1b97eef3c86b7a2549420f69f4f128
                           .group:0000000000000000 wm4.libcheaderstart.h.31.87b3c285aeba93fe355ad19123070832
                           .group:0000000000000000 wm4.stdio.h.31.e39a94e203ad4e1d978c0fc68ce016ee
                           .group:0000000000000000 wm4.stddef.h.231.8136eebbab3406dbf57a7ec475dd5d83
                           .group:0000000000000000 wm4.stdarg.h.34.3a23a216c0c293b3d2ea2e89281481e6
                           .group:0000000000000000 wm4.struct_FILE.h.19.0888ac70396abe1031c03d393554032f
                           .group:0000000000000000 wm4.stdio.h.53.139e45cf040c0964b2932c0c1bdaf6b2
                           .group:0000000000000000 wm4.stdio_lim.h.19.e4b00b560d878dcfbc6635b3406640c5
                           .group:0000000000000000 wm4.stdio.h.141.d7a290e19ca077c9e4aa7c43ede17a73
                           .group:0000000000000000 wm4.stdio.h.20.b0caa08e5723aa5941367be0e5d2ec59
                           .group:0000000000000000 wm4.stdio2.h.20.f45a0373b68e1296c4aa8cc09d66a9df
                           .group:0000000000000000 wm4.string.h.23.93403f89af7dba8212345449bb14b09d
                           .group:0000000000000000 wm4.string.h.31.e39a94e203ad4e1d978c0fc68ce016ee
                           .group:0000000000000000 wm4.strings.h.19.a259f126920b1bb5ef76bc62b3984a3c
                           .group:0000000000000000 wm4.jinclude.h.67.b19f941ec97c4845fa4609292c7e2db4
                           .group:0000000000000000 wm4.jmorecfg.h.33.3b4c5f9cc07b3737823b06caf24d5b05
                           .group:0000000000000000 wm4.jpeglib.h.40.4f111c27252a38df39328d65454e82f4
                           .group:0000000000000000 wm4.jpegint.h.26.5219ef5d4e4921371d38e77b6091fd20
                           .group:0000000000000000 wm4.jerror.h.25.1dbd8674e70ab5215bc0037320e5c2a2

UNDEFINED SYMBOLS
_GLOBAL_OFFSET_TABLE_
__stack_chk_fail
jpeg_alloc_huff_table
jpeg_natural_order
jpeg_alloc_quant_table
jpeg_natural_order7
jpeg_natural_order4
jpeg_natural_order6
jpeg_natural_order5
jpeg_natural_order2
jpeg_natural_order3
