   1              		.file	"jdmarker.c"
   2              		.text
   3              	.Ltext0:
   4              		.section	.text.unlikely.get_sof,"ax",@progbits
   5              	.LCOLDB0:
   6              		.section	.text.get_sof,"ax",@progbits
   7              	.LHOTB0:
   8              		.p2align 4,,15
   9              		.section	.text.unlikely.get_sof
  10              	.Ltext_cold0:
  11              		.section	.text.get_sof
  13              	get_sof:
  14              	.LFB62:
  15              		.file 1 "fltk-1.3.4-1/jpeg/jdmarker.c"
   1:fltk-1.3.4-1/jpeg/jdmarker.c **** /*
   2:fltk-1.3.4-1/jpeg/jdmarker.c ****  * jdmarker.c
   3:fltk-1.3.4-1/jpeg/jdmarker.c ****  *
   4:fltk-1.3.4-1/jpeg/jdmarker.c ****  * Copyright (C) 1991-1998, Thomas G. Lane.
   5:fltk-1.3.4-1/jpeg/jdmarker.c ****  * Modified 2009-2013 by Guido Vollbeding.
   6:fltk-1.3.4-1/jpeg/jdmarker.c ****  * This file is part of the Independent JPEG Group's software.
   7:fltk-1.3.4-1/jpeg/jdmarker.c ****  * For conditions of distribution and use, see the accompanying README file.
   8:fltk-1.3.4-1/jpeg/jdmarker.c ****  *
   9:fltk-1.3.4-1/jpeg/jdmarker.c ****  * This file contains routines to decode JPEG datastream markers.
  10:fltk-1.3.4-1/jpeg/jdmarker.c ****  * Most of the complexity arises from our desire to support input
  11:fltk-1.3.4-1/jpeg/jdmarker.c ****  * suspension: if not all of the data for a marker is available,
  12:fltk-1.3.4-1/jpeg/jdmarker.c ****  * we must exit back to the application.  On resumption, we reprocess
  13:fltk-1.3.4-1/jpeg/jdmarker.c ****  * the marker.
  14:fltk-1.3.4-1/jpeg/jdmarker.c ****  */
  15:fltk-1.3.4-1/jpeg/jdmarker.c **** 
  16:fltk-1.3.4-1/jpeg/jdmarker.c **** #define JPEG_INTERNALS
  17:fltk-1.3.4-1/jpeg/jdmarker.c **** #include "jinclude.h"
  18:fltk-1.3.4-1/jpeg/jdmarker.c **** #include "jpeglib.h"
  19:fltk-1.3.4-1/jpeg/jdmarker.c **** 
  20:fltk-1.3.4-1/jpeg/jdmarker.c **** 
  21:fltk-1.3.4-1/jpeg/jdmarker.c **** typedef enum {			/* JPEG marker codes */
  22:fltk-1.3.4-1/jpeg/jdmarker.c ****   M_SOF0  = 0xc0,
  23:fltk-1.3.4-1/jpeg/jdmarker.c ****   M_SOF1  = 0xc1,
  24:fltk-1.3.4-1/jpeg/jdmarker.c ****   M_SOF2  = 0xc2,
  25:fltk-1.3.4-1/jpeg/jdmarker.c ****   M_SOF3  = 0xc3,
  26:fltk-1.3.4-1/jpeg/jdmarker.c **** 
  27:fltk-1.3.4-1/jpeg/jdmarker.c ****   M_SOF5  = 0xc5,
  28:fltk-1.3.4-1/jpeg/jdmarker.c ****   M_SOF6  = 0xc6,
  29:fltk-1.3.4-1/jpeg/jdmarker.c ****   M_SOF7  = 0xc7,
  30:fltk-1.3.4-1/jpeg/jdmarker.c **** 
  31:fltk-1.3.4-1/jpeg/jdmarker.c ****   M_JPG   = 0xc8,
  32:fltk-1.3.4-1/jpeg/jdmarker.c ****   M_SOF9  = 0xc9,
  33:fltk-1.3.4-1/jpeg/jdmarker.c ****   M_SOF10 = 0xca,
  34:fltk-1.3.4-1/jpeg/jdmarker.c ****   M_SOF11 = 0xcb,
  35:fltk-1.3.4-1/jpeg/jdmarker.c **** 
  36:fltk-1.3.4-1/jpeg/jdmarker.c ****   M_SOF13 = 0xcd,
  37:fltk-1.3.4-1/jpeg/jdmarker.c ****   M_SOF14 = 0xce,
  38:fltk-1.3.4-1/jpeg/jdmarker.c ****   M_SOF15 = 0xcf,
  39:fltk-1.3.4-1/jpeg/jdmarker.c **** 
  40:fltk-1.3.4-1/jpeg/jdmarker.c ****   M_DHT   = 0xc4,
  41:fltk-1.3.4-1/jpeg/jdmarker.c **** 
  42:fltk-1.3.4-1/jpeg/jdmarker.c ****   M_DAC   = 0xcc,
  43:fltk-1.3.4-1/jpeg/jdmarker.c **** 
  44:fltk-1.3.4-1/jpeg/jdmarker.c ****   M_RST0  = 0xd0,
  45:fltk-1.3.4-1/jpeg/jdmarker.c ****   M_RST1  = 0xd1,
  46:fltk-1.3.4-1/jpeg/jdmarker.c ****   M_RST2  = 0xd2,
  47:fltk-1.3.4-1/jpeg/jdmarker.c ****   M_RST3  = 0xd3,
  48:fltk-1.3.4-1/jpeg/jdmarker.c ****   M_RST4  = 0xd4,
  49:fltk-1.3.4-1/jpeg/jdmarker.c ****   M_RST5  = 0xd5,
  50:fltk-1.3.4-1/jpeg/jdmarker.c ****   M_RST6  = 0xd6,
  51:fltk-1.3.4-1/jpeg/jdmarker.c ****   M_RST7  = 0xd7,
  52:fltk-1.3.4-1/jpeg/jdmarker.c **** 
  53:fltk-1.3.4-1/jpeg/jdmarker.c ****   M_SOI   = 0xd8,
  54:fltk-1.3.4-1/jpeg/jdmarker.c ****   M_EOI   = 0xd9,
  55:fltk-1.3.4-1/jpeg/jdmarker.c ****   M_SOS   = 0xda,
  56:fltk-1.3.4-1/jpeg/jdmarker.c ****   M_DQT   = 0xdb,
  57:fltk-1.3.4-1/jpeg/jdmarker.c ****   M_DNL   = 0xdc,
  58:fltk-1.3.4-1/jpeg/jdmarker.c ****   M_DRI   = 0xdd,
  59:fltk-1.3.4-1/jpeg/jdmarker.c ****   M_DHP   = 0xde,
  60:fltk-1.3.4-1/jpeg/jdmarker.c ****   M_EXP   = 0xdf,
  61:fltk-1.3.4-1/jpeg/jdmarker.c **** 
  62:fltk-1.3.4-1/jpeg/jdmarker.c ****   M_APP0  = 0xe0,
  63:fltk-1.3.4-1/jpeg/jdmarker.c ****   M_APP1  = 0xe1,
  64:fltk-1.3.4-1/jpeg/jdmarker.c ****   M_APP2  = 0xe2,
  65:fltk-1.3.4-1/jpeg/jdmarker.c ****   M_APP3  = 0xe3,
  66:fltk-1.3.4-1/jpeg/jdmarker.c ****   M_APP4  = 0xe4,
  67:fltk-1.3.4-1/jpeg/jdmarker.c ****   M_APP5  = 0xe5,
  68:fltk-1.3.4-1/jpeg/jdmarker.c ****   M_APP6  = 0xe6,
  69:fltk-1.3.4-1/jpeg/jdmarker.c ****   M_APP7  = 0xe7,
  70:fltk-1.3.4-1/jpeg/jdmarker.c ****   M_APP8  = 0xe8,
  71:fltk-1.3.4-1/jpeg/jdmarker.c ****   M_APP9  = 0xe9,
  72:fltk-1.3.4-1/jpeg/jdmarker.c ****   M_APP10 = 0xea,
  73:fltk-1.3.4-1/jpeg/jdmarker.c ****   M_APP11 = 0xeb,
  74:fltk-1.3.4-1/jpeg/jdmarker.c ****   M_APP12 = 0xec,
  75:fltk-1.3.4-1/jpeg/jdmarker.c ****   M_APP13 = 0xed,
  76:fltk-1.3.4-1/jpeg/jdmarker.c ****   M_APP14 = 0xee,
  77:fltk-1.3.4-1/jpeg/jdmarker.c ****   M_APP15 = 0xef,
  78:fltk-1.3.4-1/jpeg/jdmarker.c **** 
  79:fltk-1.3.4-1/jpeg/jdmarker.c ****   M_JPG0  = 0xf0,
  80:fltk-1.3.4-1/jpeg/jdmarker.c ****   M_JPG8  = 0xf8,
  81:fltk-1.3.4-1/jpeg/jdmarker.c ****   M_JPG13 = 0xfd,
  82:fltk-1.3.4-1/jpeg/jdmarker.c ****   M_COM   = 0xfe,
  83:fltk-1.3.4-1/jpeg/jdmarker.c **** 
  84:fltk-1.3.4-1/jpeg/jdmarker.c ****   M_TEM   = 0x01,
  85:fltk-1.3.4-1/jpeg/jdmarker.c **** 
  86:fltk-1.3.4-1/jpeg/jdmarker.c ****   M_ERROR = 0x100
  87:fltk-1.3.4-1/jpeg/jdmarker.c **** } JPEG_MARKER;
  88:fltk-1.3.4-1/jpeg/jdmarker.c **** 
  89:fltk-1.3.4-1/jpeg/jdmarker.c **** 
  90:fltk-1.3.4-1/jpeg/jdmarker.c **** /* Private state */
  91:fltk-1.3.4-1/jpeg/jdmarker.c **** 
  92:fltk-1.3.4-1/jpeg/jdmarker.c **** typedef struct {
  93:fltk-1.3.4-1/jpeg/jdmarker.c ****   struct jpeg_marker_reader pub; /* public fields */
  94:fltk-1.3.4-1/jpeg/jdmarker.c **** 
  95:fltk-1.3.4-1/jpeg/jdmarker.c ****   /* Application-overridable marker processing methods */
  96:fltk-1.3.4-1/jpeg/jdmarker.c ****   jpeg_marker_parser_method process_COM;
  97:fltk-1.3.4-1/jpeg/jdmarker.c ****   jpeg_marker_parser_method process_APPn[16];
  98:fltk-1.3.4-1/jpeg/jdmarker.c **** 
  99:fltk-1.3.4-1/jpeg/jdmarker.c ****   /* Limit on marker data length to save for each marker type */
 100:fltk-1.3.4-1/jpeg/jdmarker.c ****   unsigned int length_limit_COM;
 101:fltk-1.3.4-1/jpeg/jdmarker.c ****   unsigned int length_limit_APPn[16];
 102:fltk-1.3.4-1/jpeg/jdmarker.c **** 
 103:fltk-1.3.4-1/jpeg/jdmarker.c ****   /* Status of COM/APPn marker saving */
 104:fltk-1.3.4-1/jpeg/jdmarker.c ****   jpeg_saved_marker_ptr cur_marker;	/* NULL if not processing a marker */
 105:fltk-1.3.4-1/jpeg/jdmarker.c ****   unsigned int bytes_read;		/* data bytes read so far in marker */
 106:fltk-1.3.4-1/jpeg/jdmarker.c ****   /* Note: cur_marker is not linked into marker_list until it's all read. */
 107:fltk-1.3.4-1/jpeg/jdmarker.c **** } my_marker_reader;
 108:fltk-1.3.4-1/jpeg/jdmarker.c **** 
 109:fltk-1.3.4-1/jpeg/jdmarker.c **** typedef my_marker_reader * my_marker_ptr;
 110:fltk-1.3.4-1/jpeg/jdmarker.c **** 
 111:fltk-1.3.4-1/jpeg/jdmarker.c **** 
 112:fltk-1.3.4-1/jpeg/jdmarker.c **** /*
 113:fltk-1.3.4-1/jpeg/jdmarker.c ****  * Macros for fetching data from the data source module.
 114:fltk-1.3.4-1/jpeg/jdmarker.c ****  *
 115:fltk-1.3.4-1/jpeg/jdmarker.c ****  * At all times, cinfo->src->next_input_byte and ->bytes_in_buffer reflect
 116:fltk-1.3.4-1/jpeg/jdmarker.c ****  * the current restart point; we update them only when we have reached a
 117:fltk-1.3.4-1/jpeg/jdmarker.c ****  * suitable place to restart if a suspension occurs.
 118:fltk-1.3.4-1/jpeg/jdmarker.c ****  */
 119:fltk-1.3.4-1/jpeg/jdmarker.c **** 
 120:fltk-1.3.4-1/jpeg/jdmarker.c **** /* Declare and initialize local copies of input pointer/count */
 121:fltk-1.3.4-1/jpeg/jdmarker.c **** #define INPUT_VARS(cinfo)  \
 122:fltk-1.3.4-1/jpeg/jdmarker.c **** 	struct jpeg_source_mgr * datasrc = (cinfo)->src;  \
 123:fltk-1.3.4-1/jpeg/jdmarker.c **** 	const JOCTET * next_input_byte = datasrc->next_input_byte;  \
 124:fltk-1.3.4-1/jpeg/jdmarker.c **** 	size_t bytes_in_buffer = datasrc->bytes_in_buffer
 125:fltk-1.3.4-1/jpeg/jdmarker.c **** 
 126:fltk-1.3.4-1/jpeg/jdmarker.c **** /* Unload the local copies --- do this only at a restart boundary */
 127:fltk-1.3.4-1/jpeg/jdmarker.c **** #define INPUT_SYNC(cinfo)  \
 128:fltk-1.3.4-1/jpeg/jdmarker.c **** 	( datasrc->next_input_byte = next_input_byte,  \
 129:fltk-1.3.4-1/jpeg/jdmarker.c **** 	  datasrc->bytes_in_buffer = bytes_in_buffer )
 130:fltk-1.3.4-1/jpeg/jdmarker.c **** 
 131:fltk-1.3.4-1/jpeg/jdmarker.c **** /* Reload the local copies --- used only in MAKE_BYTE_AVAIL */
 132:fltk-1.3.4-1/jpeg/jdmarker.c **** #define INPUT_RELOAD(cinfo)  \
 133:fltk-1.3.4-1/jpeg/jdmarker.c **** 	( next_input_byte = datasrc->next_input_byte,  \
 134:fltk-1.3.4-1/jpeg/jdmarker.c **** 	  bytes_in_buffer = datasrc->bytes_in_buffer )
 135:fltk-1.3.4-1/jpeg/jdmarker.c **** 
 136:fltk-1.3.4-1/jpeg/jdmarker.c **** /* Internal macro for INPUT_BYTE and INPUT_2BYTES: make a byte available.
 137:fltk-1.3.4-1/jpeg/jdmarker.c ****  * Note we do *not* do INPUT_SYNC before calling fill_input_buffer,
 138:fltk-1.3.4-1/jpeg/jdmarker.c ****  * but we must reload the local copies after a successful fill.
 139:fltk-1.3.4-1/jpeg/jdmarker.c ****  */
 140:fltk-1.3.4-1/jpeg/jdmarker.c **** #define MAKE_BYTE_AVAIL(cinfo,action)  \
 141:fltk-1.3.4-1/jpeg/jdmarker.c **** 	if (bytes_in_buffer == 0) {  \
 142:fltk-1.3.4-1/jpeg/jdmarker.c **** 	  if (! (*datasrc->fill_input_buffer) (cinfo))  \
 143:fltk-1.3.4-1/jpeg/jdmarker.c **** 	    { action; }  \
 144:fltk-1.3.4-1/jpeg/jdmarker.c **** 	  INPUT_RELOAD(cinfo);  \
 145:fltk-1.3.4-1/jpeg/jdmarker.c **** 	}
 146:fltk-1.3.4-1/jpeg/jdmarker.c **** 
 147:fltk-1.3.4-1/jpeg/jdmarker.c **** /* Read a byte into variable V.
 148:fltk-1.3.4-1/jpeg/jdmarker.c ****  * If must suspend, take the specified action (typically "return FALSE").
 149:fltk-1.3.4-1/jpeg/jdmarker.c ****  */
 150:fltk-1.3.4-1/jpeg/jdmarker.c **** #define INPUT_BYTE(cinfo,V,action)  \
 151:fltk-1.3.4-1/jpeg/jdmarker.c **** 	MAKESTMT( MAKE_BYTE_AVAIL(cinfo,action); \
 152:fltk-1.3.4-1/jpeg/jdmarker.c **** 		  bytes_in_buffer--; \
 153:fltk-1.3.4-1/jpeg/jdmarker.c **** 		  V = GETJOCTET(*next_input_byte++); )
 154:fltk-1.3.4-1/jpeg/jdmarker.c **** 
 155:fltk-1.3.4-1/jpeg/jdmarker.c **** /* As above, but read two bytes interpreted as an unsigned 16-bit integer.
 156:fltk-1.3.4-1/jpeg/jdmarker.c ****  * V should be declared unsigned int or perhaps INT32.
 157:fltk-1.3.4-1/jpeg/jdmarker.c ****  */
 158:fltk-1.3.4-1/jpeg/jdmarker.c **** #define INPUT_2BYTES(cinfo,V,action)  \
 159:fltk-1.3.4-1/jpeg/jdmarker.c **** 	MAKESTMT( MAKE_BYTE_AVAIL(cinfo,action); \
 160:fltk-1.3.4-1/jpeg/jdmarker.c **** 		  bytes_in_buffer--; \
 161:fltk-1.3.4-1/jpeg/jdmarker.c **** 		  V = ((unsigned int) GETJOCTET(*next_input_byte++)) << 8; \
 162:fltk-1.3.4-1/jpeg/jdmarker.c **** 		  MAKE_BYTE_AVAIL(cinfo,action); \
 163:fltk-1.3.4-1/jpeg/jdmarker.c **** 		  bytes_in_buffer--; \
 164:fltk-1.3.4-1/jpeg/jdmarker.c **** 		  V += GETJOCTET(*next_input_byte++); )
 165:fltk-1.3.4-1/jpeg/jdmarker.c **** 
 166:fltk-1.3.4-1/jpeg/jdmarker.c **** 
 167:fltk-1.3.4-1/jpeg/jdmarker.c **** /*
 168:fltk-1.3.4-1/jpeg/jdmarker.c ****  * Routines to process JPEG markers.
 169:fltk-1.3.4-1/jpeg/jdmarker.c ****  *
 170:fltk-1.3.4-1/jpeg/jdmarker.c ****  * Entry condition: JPEG marker itself has been read and its code saved
 171:fltk-1.3.4-1/jpeg/jdmarker.c ****  *   in cinfo->unread_marker; input restart point is just after the marker.
 172:fltk-1.3.4-1/jpeg/jdmarker.c ****  *
 173:fltk-1.3.4-1/jpeg/jdmarker.c ****  * Exit: if return TRUE, have read and processed any parameters, and have
 174:fltk-1.3.4-1/jpeg/jdmarker.c ****  *   updated the restart point to point after the parameters.
 175:fltk-1.3.4-1/jpeg/jdmarker.c ****  *   If return FALSE, was forced to suspend before reaching end of
 176:fltk-1.3.4-1/jpeg/jdmarker.c ****  *   marker parameters; restart point has not been moved.  Same routine
 177:fltk-1.3.4-1/jpeg/jdmarker.c ****  *   will be called again after application supplies more input data.
 178:fltk-1.3.4-1/jpeg/jdmarker.c ****  *
 179:fltk-1.3.4-1/jpeg/jdmarker.c ****  * This approach to suspension assumes that all of a marker's parameters
 180:fltk-1.3.4-1/jpeg/jdmarker.c ****  * can fit into a single input bufferload.  This should hold for "normal"
 181:fltk-1.3.4-1/jpeg/jdmarker.c ****  * markers.  Some COM/APPn markers might have large parameter segments
 182:fltk-1.3.4-1/jpeg/jdmarker.c ****  * that might not fit.  If we are simply dropping such a marker, we use
 183:fltk-1.3.4-1/jpeg/jdmarker.c ****  * skip_input_data to get past it, and thereby put the problem on the
 184:fltk-1.3.4-1/jpeg/jdmarker.c ****  * source manager's shoulders.  If we are saving the marker's contents
 185:fltk-1.3.4-1/jpeg/jdmarker.c ****  * into memory, we use a slightly different convention: when forced to
 186:fltk-1.3.4-1/jpeg/jdmarker.c ****  * suspend, the marker processor updates the restart point to the end of
 187:fltk-1.3.4-1/jpeg/jdmarker.c ****  * what it's consumed (ie, the end of the buffer) before returning FALSE.
 188:fltk-1.3.4-1/jpeg/jdmarker.c ****  * On resumption, cinfo->unread_marker still contains the marker code,
 189:fltk-1.3.4-1/jpeg/jdmarker.c ****  * but the data source will point to the next chunk of marker data.
 190:fltk-1.3.4-1/jpeg/jdmarker.c ****  * The marker processor must retain internal state to deal with this.
 191:fltk-1.3.4-1/jpeg/jdmarker.c ****  *
 192:fltk-1.3.4-1/jpeg/jdmarker.c ****  * Note that we don't bother to avoid duplicate trace messages if a
 193:fltk-1.3.4-1/jpeg/jdmarker.c ****  * suspension occurs within marker parameters.  Other side effects
 194:fltk-1.3.4-1/jpeg/jdmarker.c ****  * require more care.
 195:fltk-1.3.4-1/jpeg/jdmarker.c ****  */
 196:fltk-1.3.4-1/jpeg/jdmarker.c **** 
 197:fltk-1.3.4-1/jpeg/jdmarker.c **** 
 198:fltk-1.3.4-1/jpeg/jdmarker.c **** LOCAL(boolean)
 199:fltk-1.3.4-1/jpeg/jdmarker.c **** get_soi (j_decompress_ptr cinfo)
 200:fltk-1.3.4-1/jpeg/jdmarker.c **** /* Process an SOI marker */
 201:fltk-1.3.4-1/jpeg/jdmarker.c **** {
 202:fltk-1.3.4-1/jpeg/jdmarker.c ****   int i;
 203:fltk-1.3.4-1/jpeg/jdmarker.c ****   
 204:fltk-1.3.4-1/jpeg/jdmarker.c ****   TRACEMS(cinfo, 1, JTRC_SOI);
 205:fltk-1.3.4-1/jpeg/jdmarker.c **** 
 206:fltk-1.3.4-1/jpeg/jdmarker.c ****   if (cinfo->marker->saw_SOI)
 207:fltk-1.3.4-1/jpeg/jdmarker.c ****     ERREXIT(cinfo, JERR_SOI_DUPLICATE);
 208:fltk-1.3.4-1/jpeg/jdmarker.c **** 
 209:fltk-1.3.4-1/jpeg/jdmarker.c ****   /* Reset all parameters that are defined to be reset by SOI */
 210:fltk-1.3.4-1/jpeg/jdmarker.c **** 
 211:fltk-1.3.4-1/jpeg/jdmarker.c ****   for (i = 0; i < NUM_ARITH_TBLS; i++) {
 212:fltk-1.3.4-1/jpeg/jdmarker.c ****     cinfo->arith_dc_L[i] = 0;
 213:fltk-1.3.4-1/jpeg/jdmarker.c ****     cinfo->arith_dc_U[i] = 1;
 214:fltk-1.3.4-1/jpeg/jdmarker.c ****     cinfo->arith_ac_K[i] = 5;
 215:fltk-1.3.4-1/jpeg/jdmarker.c ****   }
 216:fltk-1.3.4-1/jpeg/jdmarker.c ****   cinfo->restart_interval = 0;
 217:fltk-1.3.4-1/jpeg/jdmarker.c **** 
 218:fltk-1.3.4-1/jpeg/jdmarker.c ****   /* Set initial assumptions for colorspace etc */
 219:fltk-1.3.4-1/jpeg/jdmarker.c **** 
 220:fltk-1.3.4-1/jpeg/jdmarker.c ****   cinfo->jpeg_color_space = JCS_UNKNOWN;
 221:fltk-1.3.4-1/jpeg/jdmarker.c ****   cinfo->color_transform = JCT_NONE;
 222:fltk-1.3.4-1/jpeg/jdmarker.c ****   cinfo->CCIR601_sampling = FALSE; /* Assume non-CCIR sampling??? */
 223:fltk-1.3.4-1/jpeg/jdmarker.c **** 
 224:fltk-1.3.4-1/jpeg/jdmarker.c ****   cinfo->saw_JFIF_marker = FALSE;
 225:fltk-1.3.4-1/jpeg/jdmarker.c ****   cinfo->JFIF_major_version = 1; /* set default JFIF APP0 values */
 226:fltk-1.3.4-1/jpeg/jdmarker.c ****   cinfo->JFIF_minor_version = 1;
 227:fltk-1.3.4-1/jpeg/jdmarker.c ****   cinfo->density_unit = 0;
 228:fltk-1.3.4-1/jpeg/jdmarker.c ****   cinfo->X_density = 1;
 229:fltk-1.3.4-1/jpeg/jdmarker.c ****   cinfo->Y_density = 1;
 230:fltk-1.3.4-1/jpeg/jdmarker.c ****   cinfo->saw_Adobe_marker = FALSE;
 231:fltk-1.3.4-1/jpeg/jdmarker.c ****   cinfo->Adobe_transform = 0;
 232:fltk-1.3.4-1/jpeg/jdmarker.c **** 
 233:fltk-1.3.4-1/jpeg/jdmarker.c ****   cinfo->marker->saw_SOI = TRUE;
 234:fltk-1.3.4-1/jpeg/jdmarker.c **** 
 235:fltk-1.3.4-1/jpeg/jdmarker.c ****   return TRUE;
 236:fltk-1.3.4-1/jpeg/jdmarker.c **** }
 237:fltk-1.3.4-1/jpeg/jdmarker.c **** 
 238:fltk-1.3.4-1/jpeg/jdmarker.c **** 
 239:fltk-1.3.4-1/jpeg/jdmarker.c **** LOCAL(boolean)
 240:fltk-1.3.4-1/jpeg/jdmarker.c **** get_sof (j_decompress_ptr cinfo, boolean is_baseline, boolean is_prog,
 241:fltk-1.3.4-1/jpeg/jdmarker.c **** 	 boolean is_arith)
 242:fltk-1.3.4-1/jpeg/jdmarker.c **** /* Process a SOFn marker */
 243:fltk-1.3.4-1/jpeg/jdmarker.c **** {
  16              		.loc 1 243 0
  17              		.cfi_startproc
  18              	.LVL0:
  19 0000 4157     		pushq	%r15
  20              		.cfi_def_cfa_offset 16
  21              		.cfi_offset 15, -16
  22 0002 4156     		pushq	%r14
  23              		.cfi_def_cfa_offset 24
  24              		.cfi_offset 14, -24
  25 0004 4155     		pushq	%r13
  26              		.cfi_def_cfa_offset 32
  27              		.cfi_offset 13, -32
  28 0006 4154     		pushq	%r12
  29              		.cfi_def_cfa_offset 40
  30              		.cfi_offset 12, -40
  31 0008 4989FD   		movq	%rdi, %r13
  32 000b 55       		pushq	%rbp
  33              		.cfi_def_cfa_offset 48
  34              		.cfi_offset 6, -48
  35 000c 53       		pushq	%rbx
  36              		.cfi_def_cfa_offset 56
  37              		.cfi_offset 3, -56
  38 000d 4883EC08 		subq	$8, %rsp
  39              		.cfi_def_cfa_offset 64
 244:fltk-1.3.4-1/jpeg/jdmarker.c ****   INT32 length;
 245:fltk-1.3.4-1/jpeg/jdmarker.c ****   int c, ci, i;
 246:fltk-1.3.4-1/jpeg/jdmarker.c ****   jpeg_component_info * compptr;
 247:fltk-1.3.4-1/jpeg/jdmarker.c ****   INPUT_VARS(cinfo);
  40              		.loc 1 247 0
  41 0011 488B6F28 		movq	40(%rdi), %rbp
  42              	.LVL1:
  43 0015 488B4508 		movq	8(%rbp), %rax
  44 0019 488B7D00 		movq	0(%rbp), %rdi
  45              	.LVL2:
 248:fltk-1.3.4-1/jpeg/jdmarker.c **** 
 249:fltk-1.3.4-1/jpeg/jdmarker.c ****   cinfo->is_baseline = is_baseline;
  46              		.loc 1 249 0
  47 001d 4189B538 		movl	%esi, 312(%r13)
  47      010000
 250:fltk-1.3.4-1/jpeg/jdmarker.c ****   cinfo->progressive_mode = is_prog;
  48              		.loc 1 250 0
  49 0024 4189953C 		movl	%edx, 316(%r13)
  49      010000
 251:fltk-1.3.4-1/jpeg/jdmarker.c ****   cinfo->arith_code = is_arith;
  50              		.loc 1 251 0
  51 002b 41898D40 		movl	%ecx, 320(%r13)
  51      010000
 252:fltk-1.3.4-1/jpeg/jdmarker.c **** 
 253:fltk-1.3.4-1/jpeg/jdmarker.c ****   INPUT_2BYTES(cinfo, length, return FALSE);
  52              		.loc 1 253 0
  53 0032 4885C0   		testq	%rax, %rax
  54 0035 0F842403 		je	.L79
  54      0000
  55              	.LVL3:
  56              	.L2:
  57              		.loc 1 253 0 is_stmt 0 discriminator 5
  58 003b 4883E801 		subq	$1, %rax
  59              	.LVL4:
  60 003f 0FB61F   		movzbl	(%rdi), %ebx
  61              	.LVL5:
  62 0042 0F843E03 		je	.L5
  62      0000
  63              	.LVL6:
  64              		.loc 1 253 0
  65 0048 4883C701 		addq	$1, %rdi
  66              	.LVL7:
 254:fltk-1.3.4-1/jpeg/jdmarker.c **** 
 255:fltk-1.3.4-1/jpeg/jdmarker.c ****   INPUT_BYTE(cinfo, cinfo->data_precision, return FALSE);
  67              		.loc 1 255 0 is_stmt 1
  68 004c 4883E801 		subq	$1, %rax
  69              	.LVL8:
 253:fltk-1.3.4-1/jpeg/jdmarker.c **** 
  70              		.loc 1 253 0
  71 0050 440FB63F 		movzbl	(%rdi), %r15d
  72              	.LVL9:
  73              		.loc 1 255 0
  74 0054 0F844C03 		je	.L8
  74      0000
  75              	.LVL10:
  76              	.L85:
 253:fltk-1.3.4-1/jpeg/jdmarker.c **** 
  77              		.loc 1 253 0
  78 005a 4883C701 		addq	$1, %rdi
  79              	.LVL11:
  80              		.loc 1 255 0
  81 005e 0FB617   		movzbl	(%rdi), %edx
 256:fltk-1.3.4-1/jpeg/jdmarker.c ****   INPUT_2BYTES(cinfo, cinfo->image_height, return FALSE);
  82              		.loc 1 256 0
  83 0061 4883E801 		subq	$1, %rax
  84              	.LVL12:
 255:fltk-1.3.4-1/jpeg/jdmarker.c ****   INPUT_2BYTES(cinfo, cinfo->image_height, return FALSE);
  85              		.loc 1 255 0
  86 0065 41899528 		movl	%edx, 296(%r13)
  86      010000
  87              		.loc 1 256 0
  88 006c 0F845A03 		je	.L10
  88      0000
  89              	.LVL13:
  90              	.L86:
 255:fltk-1.3.4-1/jpeg/jdmarker.c ****   INPUT_2BYTES(cinfo, cinfo->image_height, return FALSE);
  91              		.loc 1 255 0
  92 0072 4883C701 		addq	$1, %rdi
  93              	.LVL14:
  94              		.loc 1 256 0
  95 0076 0FB617   		movzbl	(%rdi), %edx
  96 0079 C1E208   		sall	$8, %edx
  97 007c 4883E801 		subq	$1, %rax
  98              	.LVL15:
  99 0080 41895534 		movl	%edx, 52(%r13)
 100 0084 0F846803 		je	.L12
 100      0000
 101              	.LVL16:
 102              	.L87:
 103 008a 4883C701 		addq	$1, %rdi
 104              	.LVL17:
 105 008e 0FB60F   		movzbl	(%rdi), %ecx
 106 0091 01CA     		addl	%ecx, %edx
 257:fltk-1.3.4-1/jpeg/jdmarker.c ****   INPUT_2BYTES(cinfo, cinfo->image_width, return FALSE);
 107              		.loc 1 257 0
 108 0093 4883E801 		subq	$1, %rax
 109              	.LVL18:
 256:fltk-1.3.4-1/jpeg/jdmarker.c ****   INPUT_2BYTES(cinfo, cinfo->image_height, return FALSE);
 110              		.loc 1 256 0
 111 0097 41895534 		movl	%edx, 52(%r13)
 112              		.loc 1 257 0
 113 009b 0F847E03 		je	.L14
 113      0000
 114              	.LVL19:
 115              	.L88:
 256:fltk-1.3.4-1/jpeg/jdmarker.c ****   INPUT_2BYTES(cinfo, cinfo->image_height, return FALSE);
 116              		.loc 1 256 0
 117 00a1 4883C701 		addq	$1, %rdi
 118              	.LVL20:
 119              		.loc 1 257 0
 120 00a5 0FB617   		movzbl	(%rdi), %edx
 121 00a8 C1E208   		sall	$8, %edx
 122 00ab 4883E801 		subq	$1, %rax
 123              	.LVL21:
 124 00af 41895530 		movl	%edx, 48(%r13)
 125 00b3 0F849003 		je	.L16
 125      0000
 126              	.LVL22:
 127              	.L89:
 128 00b9 4883C701 		addq	$1, %rdi
 129              	.L17:
 130              	.LVL23:
 131              		.loc 1 257 0 is_stmt 0 discriminator 10
 132 00bd 0FB60F   		movzbl	(%rdi), %ecx
 133 00c0 01CA     		addl	%ecx, %edx
 258:fltk-1.3.4-1/jpeg/jdmarker.c ****   INPUT_BYTE(cinfo, cinfo->num_components, return FALSE);
 134              		.loc 1 258 0 is_stmt 1 discriminator 10
 135 00c2 4883E801 		subq	$1, %rax
 136              	.LVL24:
 257:fltk-1.3.4-1/jpeg/jdmarker.c ****   INPUT_2BYTES(cinfo, cinfo->image_width, return FALSE);
 137              		.loc 1 257 0 discriminator 10
 138 00c6 41895530 		movl	%edx, 48(%r13)
 139              		.loc 1 258 0 discriminator 10
 140 00ca 0F849803 		je	.L18
 140      0000
 257:fltk-1.3.4-1/jpeg/jdmarker.c ****   INPUT_2BYTES(cinfo, cinfo->image_width, return FALSE);
 141              		.loc 1 257 0
 142 00d0 4883C701 		addq	$1, %rdi
 143              	.LVL25:
 144              	.L19:
 145              		.loc 1 258 0 discriminator 5
 146 00d4 4C8D60FF 		leaq	-1(%rax), %r12
 147              	.LVL26:
 148 00d8 0FB607   		movzbl	(%rdi), %eax
 149              	.LBB19:
 259:fltk-1.3.4-1/jpeg/jdmarker.c **** 
 260:fltk-1.3.4-1/jpeg/jdmarker.c ****   length -= 8;
 261:fltk-1.3.4-1/jpeg/jdmarker.c **** 
 262:fltk-1.3.4-1/jpeg/jdmarker.c ****   TRACEMS4(cinfo, 1, JTRC_SOF, cinfo->unread_marker,
 150              		.loc 1 262 0 discriminator 5
 151 00db 418B953C 		movl	572(%r13), %edx
 151      020000
 152              	.LBE19:
 258:fltk-1.3.4-1/jpeg/jdmarker.c ****   INPUT_BYTE(cinfo, cinfo->num_components, return FALSE);
 153              		.loc 1 258 0 discriminator 5
 154 00e2 4C8D7701 		leaq	1(%rdi), %r14
 155              	.LVL27:
 156              	.LBB20:
 157              		.loc 1 262 0 discriminator 5
 158 00e6 BE010000 		movl	$1, %esi
 158      00
 159 00eb 4C89EF   		movq	%r13, %rdi
 160              	.LBE20:
 253:fltk-1.3.4-1/jpeg/jdmarker.c **** 
 161              		.loc 1 253 0 discriminator 5
 162 00ee 48C1E308 		salq	$8, %rbx
 163 00f2 81E300FF 		andl	$65280, %ebx
 163      0000
 258:fltk-1.3.4-1/jpeg/jdmarker.c ****   INPUT_BYTE(cinfo, cinfo->num_components, return FALSE);
 164              		.loc 1 258 0 discriminator 5
 165 00f8 41894538 		movl	%eax, 56(%r13)
 166              	.LBB21:
 167              		.loc 1 262 0 discriminator 5
 168 00fc 498B4500 		movq	0(%r13), %rax
 169              	.LBE21:
 260:fltk-1.3.4-1/jpeg/jdmarker.c **** 
 170              		.loc 1 260 0 discriminator 5
 171 0100 4A8D5C3B 		leaq	-8(%rbx,%r15), %rbx
 171      F8
 172              	.LVL28:
 173              	.LBB22:
 174              		.loc 1 262 0 discriminator 5
 175 0105 89502C   		movl	%edx, 44(%rax)
 176 0108 418B5530 		movl	48(%r13), %edx
 177 010c 895030   		movl	%edx, 48(%rax)
 178 010f 418B5534 		movl	52(%r13), %edx
 179 0113 895034   		movl	%edx, 52(%rax)
 180 0116 418B5538 		movl	56(%r13), %edx
 181 011a 895038   		movl	%edx, 56(%rax)
 182 011d 498B4500 		movq	0(%r13), %rax
 183              	.LVL29:
 184 0121 C7402866 		movl	$102, 40(%rax)
 184      000000
 185 0128 498B4500 		movq	0(%r13), %rax
 186 012c FF5008   		call	*8(%rax)
 187              	.LVL30:
 188              	.LBE22:
 263:fltk-1.3.4-1/jpeg/jdmarker.c **** 	   (int) cinfo->image_width, (int) cinfo->image_height,
 264:fltk-1.3.4-1/jpeg/jdmarker.c **** 	   cinfo->num_components);
 265:fltk-1.3.4-1/jpeg/jdmarker.c **** 
 266:fltk-1.3.4-1/jpeg/jdmarker.c ****   if (cinfo->marker->saw_SOF)
 189              		.loc 1 266 0 discriminator 5
 190 012f 498B8568 		movq	616(%r13), %rax
 190      020000
 191 0136 8B481C   		movl	28(%rax), %ecx
 192 0139 85C9     		testl	%ecx, %ecx
 193 013b 0F856003 		jne	.L80
 193      0000
 194              	.L20:
 267:fltk-1.3.4-1/jpeg/jdmarker.c ****     ERREXIT(cinfo, JERR_SOF_DUPLICATE);
 268:fltk-1.3.4-1/jpeg/jdmarker.c **** 
 269:fltk-1.3.4-1/jpeg/jdmarker.c ****   /* We don't support files in which the image height is initially specified */
 270:fltk-1.3.4-1/jpeg/jdmarker.c ****   /* as 0 and is later redefined by DNL.  As long as we have to check that,  */
 271:fltk-1.3.4-1/jpeg/jdmarker.c ****   /* might as well have a general sanity check. */
 272:fltk-1.3.4-1/jpeg/jdmarker.c ****   if (cinfo->image_height <= 0 || cinfo->image_width <= 0 ||
 195              		.loc 1 272 0
 196 0141 418B5534 		movl	52(%r13), %edx
 197 0145 85D2     		testl	%edx, %edx
 198 0147 740C     		je	.L21
 199              		.loc 1 272 0 is_stmt 0 discriminator 1
 200 0149 418B4530 		movl	48(%r13), %eax
 201 014d 85C0     		testl	%eax, %eax
 202 014f 0F853B03 		jne	.L81
 202      0000
 203              	.L21:
 273:fltk-1.3.4-1/jpeg/jdmarker.c ****       cinfo->num_components <= 0)
 274:fltk-1.3.4-1/jpeg/jdmarker.c ****     ERREXIT(cinfo, JERR_EMPTY_IMAGE);
 204              		.loc 1 274 0 is_stmt 1
 205 0155 498B4500 		movq	0(%r13), %rax
 206 0159 4C89EF   		movq	%r13, %rdi
 207 015c C7402821 		movl	$33, 40(%rax)
 207      000000
 208 0163 498B4500 		movq	0(%r13), %rax
 209 0167 FF10     		call	*(%rax)
 210              	.LVL31:
 211 0169 49634538 		movslq	56(%r13), %rax
 212              	.L22:
 275:fltk-1.3.4-1/jpeg/jdmarker.c **** 
 276:fltk-1.3.4-1/jpeg/jdmarker.c ****   if (length != (cinfo->num_components * 3))
 213              		.loc 1 276 0
 214 016d 8D1440   		leal	(%rax,%rax,2), %edx
 215 0170 4863D2   		movslq	%edx, %rdx
 216 0173 4839D3   		cmpq	%rdx, %rbx
 217 0176 7418     		je	.L23
 277:fltk-1.3.4-1/jpeg/jdmarker.c ****     ERREXIT(cinfo, JERR_BAD_LENGTH);
 218              		.loc 1 277 0
 219 0178 498B4500 		movq	0(%r13), %rax
 220 017c 4C89EF   		movq	%r13, %rdi
 221 017f C740280C 		movl	$12, 40(%rax)
 221      000000
 222 0186 498B4500 		movq	0(%r13), %rax
 223 018a FF10     		call	*(%rax)
 224              	.LVL32:
 225 018c 49634538 		movslq	56(%r13), %rax
 226              	.L23:
 278:fltk-1.3.4-1/jpeg/jdmarker.c **** 
 279:fltk-1.3.4-1/jpeg/jdmarker.c ****   if (cinfo->comp_info == NULL)	/* do only once, even if suspend */
 227              		.loc 1 279 0
 228 0190 4983BD30 		cmpq	$0, 304(%r13)
 228      01000000 
 229 0198 0F841C03 		je	.L82
 229      0000
 230              	.L24:
 231              	.LVL33:
 280:fltk-1.3.4-1/jpeg/jdmarker.c ****     cinfo->comp_info = (jpeg_component_info *) (*cinfo->mem->alloc_small)
 281:fltk-1.3.4-1/jpeg/jdmarker.c **** 			((j_common_ptr) cinfo, JPOOL_IMAGE,
 282:fltk-1.3.4-1/jpeg/jdmarker.c **** 			 cinfo->num_components * SIZEOF(jpeg_component_info));
 283:fltk-1.3.4-1/jpeg/jdmarker.c **** 
 284:fltk-1.3.4-1/jpeg/jdmarker.c ****   for (ci = 0; ci < cinfo->num_components; ci++) {
 232              		.loc 1 284 0 discriminator 2
 233 019e 85C0     		testl	%eax, %eax
 234 01a0 0F8EF900 		jle	.L25
 234      0000
 235              		.loc 1 284 0 is_stmt 0
 236 01a6 4531FF   		xorl	%r15d, %r15d
 237              	.LVL34:
 238 01a9 0F1F8000 		.p2align 4,,10
 238      000000
 239              		.p2align 3
 240              	.L38:
 285:fltk-1.3.4-1/jpeg/jdmarker.c ****     INPUT_BYTE(cinfo, c, return FALSE);
 241              		.loc 1 285 0 is_stmt 1
 242 01b0 4D85E4   		testq	%r12, %r12
 243 01b3 0F848F01 		je	.L83
 243      0000
 244              	.L26:
 286:fltk-1.3.4-1/jpeg/jdmarker.c ****     /* Check to see whether component id has already been seen   */
 287:fltk-1.3.4-1/jpeg/jdmarker.c ****     /* (in violation of the spec, but unfortunately seen in some */
 288:fltk-1.3.4-1/jpeg/jdmarker.c ****     /* files).  If so, create "fake" component id equal to the   */
 289:fltk-1.3.4-1/jpeg/jdmarker.c ****     /* max id seen so far + 1. */
 290:fltk-1.3.4-1/jpeg/jdmarker.c ****     for (i = 0, compptr = cinfo->comp_info; i < ci; i++, compptr++) {
 245              		.loc 1 290 0 discriminator 5
 246 01b9 4585FF   		testl	%r15d, %r15d
 285:fltk-1.3.4-1/jpeg/jdmarker.c ****     INPUT_BYTE(cinfo, c, return FALSE);
 247              		.loc 1 285 0 discriminator 5
 248 01bc 498D7424 		leaq	-1(%r12), %rsi
 248      FF
 249              	.LVL35:
 250 01c1 410FB60E 		movzbl	(%r14), %ecx
 251              	.LVL36:
 252              		.loc 1 290 0 discriminator 5
 253 01c5 498BBD30 		movq	304(%r13), %rdi
 253      010000
 254              	.LVL37:
 255 01cc 0F8EAC01 		jle	.L39
 255      0000
 291:fltk-1.3.4-1/jpeg/jdmarker.c ****       if (c == compptr->component_id) {
 256              		.loc 1 291 0
 257 01d2 8B17     		movl	(%rdi), %edx
 258 01d4 39D1     		cmpl	%edx, %ecx
 259 01d6 0F84F400 		je	.L28
 259      0000
 260 01dc 418D47FF 		leal	-1(%r15), %eax
 261 01e0 488D5C40 		leaq	3(%rax,%rax,2), %rbx
 261      03
 262              		.loc 1 291 0 is_stmt 0 discriminator 2
 263 01e5 4889F8   		movq	%rdi, %rax
 264 01e8 48C1E305 		salq	$5, %rbx
 265 01ec 4801FB   		addq	%rdi, %rbx
 266 01ef EB0F     		jmp	.L30
 267              	.LVL38:
 268              		.p2align 4,,10
 269 01f1 0F1F8000 		.p2align 3
 269      000000
 270              	.L33:
 271              		.loc 1 291 0
 272 01f8 3B08     		cmpl	(%rax), %ecx
 273 01fa 0F84D000 		je	.L28
 273      0000
 274              	.L30:
 290:fltk-1.3.4-1/jpeg/jdmarker.c ****       if (c == compptr->component_id) {
 275              		.loc 1 290 0 is_stmt 1 discriminator 2
 276 0200 4883C060 		addq	$96, %rax
 277              	.LVL39:
 278 0204 4839D8   		cmpq	%rbx, %rax
 279 0207 75EF     		jne	.L33
 280              	.LVL40:
 281              	.L27:
 285:fltk-1.3.4-1/jpeg/jdmarker.c ****     /* Check to see whether component id has already been seen   */
 282              		.loc 1 285 0
 283 0209 4983C601 		addq	$1, %r14
 284              	.LVL41:
 292:fltk-1.3.4-1/jpeg/jdmarker.c **** 	compptr = cinfo->comp_info;
 293:fltk-1.3.4-1/jpeg/jdmarker.c **** 	c = compptr->component_id;
 294:fltk-1.3.4-1/jpeg/jdmarker.c **** 	compptr++;
 295:fltk-1.3.4-1/jpeg/jdmarker.c **** 	for (i = 1; i < ci; i++, compptr++) {
 296:fltk-1.3.4-1/jpeg/jdmarker.c **** 	  if (compptr->component_id > c) c = compptr->component_id;
 297:fltk-1.3.4-1/jpeg/jdmarker.c **** 	}
 298:fltk-1.3.4-1/jpeg/jdmarker.c **** 	c++;
 299:fltk-1.3.4-1/jpeg/jdmarker.c **** 	break;
 300:fltk-1.3.4-1/jpeg/jdmarker.c ****       }
 301:fltk-1.3.4-1/jpeg/jdmarker.c ****     }
 302:fltk-1.3.4-1/jpeg/jdmarker.c ****     compptr->component_id = c;
 303:fltk-1.3.4-1/jpeg/jdmarker.c ****     compptr->component_index = ci;
 304:fltk-1.3.4-1/jpeg/jdmarker.c ****     INPUT_BYTE(cinfo, c, return FALSE);
 285              		.loc 1 304 0
 286 020d 4885F6   		testq	%rsi, %rsi
 302:fltk-1.3.4-1/jpeg/jdmarker.c ****     compptr->component_index = ci;
 287              		.loc 1 302 0
 288 0210 890B     		movl	%ecx, (%rbx)
 303:fltk-1.3.4-1/jpeg/jdmarker.c ****     INPUT_BYTE(cinfo, c, return FALSE);
 289              		.loc 1 303 0
 290 0212 44897B04 		movl	%r15d, 4(%rbx)
 291              		.loc 1 304 0
 292 0216 0F840E01 		je	.L84
 292      0000
 293              	.LVL42:
 294              	.L35:
 295              		.loc 1 304 0 is_stmt 0 discriminator 5
 296 021c 410FB616 		movzbl	(%r14), %edx
 297 0220 89D0     		movl	%edx, %eax
 298              	.LVL43:
 305:fltk-1.3.4-1/jpeg/jdmarker.c ****     compptr->h_samp_factor = (c >> 4) & 15;
 299              		.loc 1 305 0 is_stmt 1 discriminator 5
 300 0222 C1FA04   		sarl	$4, %edx
 301              	.LVL44:
 306:fltk-1.3.4-1/jpeg/jdmarker.c ****     compptr->v_samp_factor = (c     ) & 15;
 302              		.loc 1 306 0 discriminator 5
 303 0225 83E00F   		andl	$15, %eax
 304              	.LVL45:
 307:fltk-1.3.4-1/jpeg/jdmarker.c ****     INPUT_BYTE(cinfo, compptr->quant_tbl_no, return FALSE);
 305              		.loc 1 307 0 discriminator 5
 306 0228 4883EE01 		subq	$1, %rsi
 307              	.LVL46:
 305:fltk-1.3.4-1/jpeg/jdmarker.c ****     compptr->h_samp_factor = (c >> 4) & 15;
 308              		.loc 1 305 0 discriminator 5
 309 022c 895308   		movl	%edx, 8(%rbx)
 310              	.LVL47:
 306:fltk-1.3.4-1/jpeg/jdmarker.c ****     compptr->v_samp_factor = (c     ) & 15;
 311              		.loc 1 306 0 discriminator 5
 312 022f 89430C   		movl	%eax, 12(%rbx)
 304:fltk-1.3.4-1/jpeg/jdmarker.c ****     compptr->h_samp_factor = (c >> 4) & 15;
 313              		.loc 1 304 0 discriminator 5
 314 0232 498D4601 		leaq	1(%r14), %rax
 315              	.LVL48:
 316              		.loc 1 307 0 discriminator 5
 317 0236 7516     		jne	.L37
 318              		.loc 1 307 0 is_stmt 0 discriminator 1
 319 0238 4C89EF   		movq	%r13, %rdi
 320 023b FF5518   		call	*24(%rbp)
 321              	.LVL49:
 322 023e 85C0     		testl	%eax, %eax
 323 0240 0F842701 		je	.L7
 323      0000
 324              		.loc 1 307 0 discriminator 4
 325 0246 488B4500 		movq	0(%rbp), %rax
 326              	.LVL50:
 327 024a 488B7508 		movq	8(%rbp), %rsi
 328              	.LVL51:
 329              	.L37:
 330              		.loc 1 307 0 discriminator 5
 331 024e 4C8D7001 		leaq	1(%rax), %r14
 332 0252 0FB600   		movzbl	(%rax), %eax
 333              	.LVL52:
 334              	.LBB23:
 308:fltk-1.3.4-1/jpeg/jdmarker.c **** 
 309:fltk-1.3.4-1/jpeg/jdmarker.c ****     TRACEMS4(cinfo, 1, JTRC_SOF_COMPONENT,
 335              		.loc 1 309 0 is_stmt 1 discriminator 5
 336 0255 8B13     		movl	(%rbx), %edx
 337              	.LBE23:
 307:fltk-1.3.4-1/jpeg/jdmarker.c **** 
 338              		.loc 1 307 0 discriminator 5
 339 0257 4C8D66FF 		leaq	-1(%rsi), %r12
 340              	.LVL53:
 341              	.LBB24:
 342              		.loc 1 309 0 discriminator 5
 343 025b 4C89EF   		movq	%r13, %rdi
 344 025e BE010000 		movl	$1, %esi
 344      00
 345              	.LBE24:
 284:fltk-1.3.4-1/jpeg/jdmarker.c ****     INPUT_BYTE(cinfo, c, return FALSE);
 346              		.loc 1 284 0 discriminator 5
 347 0263 4183C701 		addl	$1, %r15d
 348              	.LVL54:
 307:fltk-1.3.4-1/jpeg/jdmarker.c **** 
 349              		.loc 1 307 0 discriminator 5
 350 0267 894310   		movl	%eax, 16(%rbx)
 351              	.LBB25:
 352              		.loc 1 309 0 discriminator 5
 353 026a 498B4500 		movq	0(%r13), %rax
 354              	.LVL55:
 355 026e 89502C   		movl	%edx, 44(%rax)
 356 0271 8B5308   		movl	8(%rbx), %edx
 357 0274 895030   		movl	%edx, 48(%rax)
 358 0277 8B530C   		movl	12(%rbx), %edx
 359 027a 895034   		movl	%edx, 52(%rax)
 360 027d 8B5310   		movl	16(%rbx), %edx
 361 0280 895038   		movl	%edx, 56(%rax)
 362 0283 498B4500 		movq	0(%r13), %rax
 363              	.LVL56:
 364 0287 C7402867 		movl	$103, 40(%rax)
 364      000000
 365 028e 498B4500 		movq	0(%r13), %rax
 366 0292 FF5008   		call	*8(%rax)
 367              	.LVL57:
 368              	.LBE25:
 284:fltk-1.3.4-1/jpeg/jdmarker.c ****     INPUT_BYTE(cinfo, c, return FALSE);
 369              		.loc 1 284 0 discriminator 5
 370 0295 45397D38 		cmpl	%r15d, 56(%r13)
 371 0299 0F8F11FF 		jg	.L38
 371      FFFF
 372              	.LVL58:
 373              	.L25:
 310:fltk-1.3.4-1/jpeg/jdmarker.c **** 	     compptr->component_id, compptr->h_samp_factor,
 311:fltk-1.3.4-1/jpeg/jdmarker.c **** 	     compptr->v_samp_factor, compptr->quant_tbl_no);
 312:fltk-1.3.4-1/jpeg/jdmarker.c ****   }
 313:fltk-1.3.4-1/jpeg/jdmarker.c **** 
 314:fltk-1.3.4-1/jpeg/jdmarker.c ****   cinfo->marker->saw_SOF = TRUE;
 374              		.loc 1 314 0
 375 029f 498B8568 		movq	616(%r13), %rax
 375      020000
 376 02a6 C7401C01 		movl	$1, 28(%rax)
 376      000000
 315:fltk-1.3.4-1/jpeg/jdmarker.c **** 
 316:fltk-1.3.4-1/jpeg/jdmarker.c ****   INPUT_SYNC(cinfo);
 377              		.loc 1 316 0
 378 02ad 4C897500 		movq	%r14, 0(%rbp)
 317:fltk-1.3.4-1/jpeg/jdmarker.c ****   return TRUE;
 379              		.loc 1 317 0
 380 02b1 B8010000 		movl	$1, %eax
 380      00
 316:fltk-1.3.4-1/jpeg/jdmarker.c ****   return TRUE;
 381              		.loc 1 316 0
 382 02b6 4C896508 		movq	%r12, 8(%rbp)
 318:fltk-1.3.4-1/jpeg/jdmarker.c **** }
 383              		.loc 1 318 0
 384 02ba 4883C408 		addq	$8, %rsp
 385              		.cfi_remember_state
 386              		.cfi_def_cfa_offset 56
 387 02be 5B       		popq	%rbx
 388              		.cfi_def_cfa_offset 48
 389 02bf 5D       		popq	%rbp
 390              		.cfi_def_cfa_offset 40
 391              	.LVL59:
 392 02c0 415C     		popq	%r12
 393              		.cfi_def_cfa_offset 32
 394              	.LVL60:
 395 02c2 415D     		popq	%r13
 396              		.cfi_def_cfa_offset 24
 397              	.LVL61:
 398 02c4 415E     		popq	%r14
 399              		.cfi_def_cfa_offset 16
 400              	.LVL62:
 401 02c6 415F     		popq	%r15
 402              		.cfi_def_cfa_offset 8
 403 02c8 C3       		ret
 404              	.LVL63:
 405 02c9 0F1F8000 		.p2align 4,,10
 405      000000
 406              		.p2align 3
 407              	.L28:
 408              		.cfi_restore_state
 295:fltk-1.3.4-1/jpeg/jdmarker.c **** 	  if (compptr->component_id > c) c = compptr->component_id;
 409              		.loc 1 295 0
 410 02d0 4183FF01 		cmpl	$1, %r15d
 294:fltk-1.3.4-1/jpeg/jdmarker.c **** 	for (i = 1; i < ci; i++, compptr++) {
 411              		.loc 1 294 0
 412 02d4 488D5F60 		leaq	96(%rdi), %rbx
 413              	.LVL64:
 295:fltk-1.3.4-1/jpeg/jdmarker.c **** 	  if (compptr->component_id > c) c = compptr->component_id;
 414              		.loc 1 295 0
 415 02d8 743A     		je	.L31
 416 02da 458D47FE 		leal	-2(%r15), %r8d
 417 02de 4B8D0440 		leaq	(%r8,%r8,2), %rax
 418 02e2 48C1E005 		salq	$5, %rax
 419 02e6 488DBC07 		leaq	192(%rdi,%rax), %rdi
 419      C0000000 
 420 02ee 4889D8   		movq	%rbx, %rax
 421              	.LVL65:
 422              		.p2align 4,,10
 423 02f1 0F1F8000 		.p2align 3
 423      000000
 424              	.L32:
 296:fltk-1.3.4-1/jpeg/jdmarker.c **** 	}
 425              		.loc 1 296 0
 426 02f8 8B08     		movl	(%rax), %ecx
 427 02fa 39CA     		cmpl	%ecx, %edx
 428 02fc 0F4CD1   		cmovl	%ecx, %edx
 429              	.LVL66:
 295:fltk-1.3.4-1/jpeg/jdmarker.c **** 	  if (compptr->component_id > c) c = compptr->component_id;
 430              		.loc 1 295 0
 431 02ff 4883C060 		addq	$96, %rax
 432              	.LVL67:
 433 0303 4839F8   		cmpq	%rdi, %rax
 434 0306 75F0     		jne	.L32
 435 0308 4B8D4440 		leaq	3(%r8,%r8,2), %rax
 435      03
 436              	.LVL68:
 437 030d 48C1E005 		salq	$5, %rax
 438 0311 4801C3   		addq	%rax, %rbx
 439              	.L31:
 298:fltk-1.3.4-1/jpeg/jdmarker.c **** 	break;
 440              		.loc 1 298 0
 441 0314 8D4A01   		leal	1(%rdx), %ecx
 442              	.LVL69:
 285:fltk-1.3.4-1/jpeg/jdmarker.c ****     /* Check to see whether component id has already been seen   */
 443              		.loc 1 285 0
 444 0317 4983C601 		addq	$1, %r14
 445              	.LVL70:
 304:fltk-1.3.4-1/jpeg/jdmarker.c ****     compptr->h_samp_factor = (c >> 4) & 15;
 446              		.loc 1 304 0
 447 031b 4885F6   		testq	%rsi, %rsi
 303:fltk-1.3.4-1/jpeg/jdmarker.c ****     INPUT_BYTE(cinfo, c, return FALSE);
 448              		.loc 1 303 0
 449 031e 44897B04 		movl	%r15d, 4(%rbx)
 302:fltk-1.3.4-1/jpeg/jdmarker.c ****     compptr->component_index = ci;
 450              		.loc 1 302 0
 451 0322 890B     		movl	%ecx, (%rbx)
 304:fltk-1.3.4-1/jpeg/jdmarker.c ****     compptr->h_samp_factor = (c >> 4) & 15;
 452              		.loc 1 304 0
 453 0324 0F85F2FE 		jne	.L35
 453      FFFF
 454              	.LVL71:
 455              	.L84:
 304:fltk-1.3.4-1/jpeg/jdmarker.c ****     compptr->h_samp_factor = (c >> 4) & 15;
 456              		.loc 1 304 0 is_stmt 0 discriminator 1
 457 032a 4C89EF   		movq	%r13, %rdi
 458 032d FF5518   		call	*24(%rbp)
 459              	.LVL72:
 460 0330 85C0     		testl	%eax, %eax
 461 0332 7439     		je	.L7
 304:fltk-1.3.4-1/jpeg/jdmarker.c ****     compptr->h_samp_factor = (c >> 4) & 15;
 462              		.loc 1 304 0 discriminator 4
 463 0334 4C8B7500 		movq	0(%rbp), %r14
 464              	.LVL73:
 465 0338 488B7508 		movq	8(%rbp), %rsi
 466              	.LVL74:
 467 033c E9DBFEFF 		jmp	.L35
 467      FF
 468              	.LVL75:
 469              		.p2align 4,,10
 470 0341 0F1F8000 		.p2align 3
 470      000000
 471              	.L83:
 285:fltk-1.3.4-1/jpeg/jdmarker.c ****     /* Check to see whether component id has already been seen   */
 472              		.loc 1 285 0 is_stmt 1 discriminator 1
 473 0348 4C89EF   		movq	%r13, %rdi
 474 034b FF5518   		call	*24(%rbp)
 475              	.LVL76:
 476 034e 85C0     		testl	%eax, %eax
 477 0350 741B     		je	.L7
 285:fltk-1.3.4-1/jpeg/jdmarker.c ****     /* Check to see whether component id has already been seen   */
 478              		.loc 1 285 0 is_stmt 0 discriminator 4
 479 0352 4C8B7500 		movq	0(%rbp), %r14
 480              	.LVL77:
 481 0356 4C8B6508 		movq	8(%rbp), %r12
 482              	.LVL78:
 483 035a E95AFEFF 		jmp	.L26
 483      FF
 484              	.LVL79:
 485              	.L79:
 253:fltk-1.3.4-1/jpeg/jdmarker.c **** 
 486              		.loc 1 253 0 is_stmt 1 discriminator 1
 487 035f 4C89EF   		movq	%r13, %rdi
 488              	.LVL80:
 489 0362 FF5518   		call	*24(%rbp)
 490              	.LVL81:
 491 0365 85C0     		testl	%eax, %eax
 492 0367 0F851601 		jne	.L3
 492      0000
 493              	.L7:
 494              		.loc 1 318 0
 495 036d 4883C408 		addq	$8, %rsp
 496              		.cfi_remember_state
 497              		.cfi_def_cfa_offset 56
 253:fltk-1.3.4-1/jpeg/jdmarker.c **** 
 498              		.loc 1 253 0
 499 0371 31C0     		xorl	%eax, %eax
 500              		.loc 1 318 0
 501 0373 5B       		popq	%rbx
 502              		.cfi_def_cfa_offset 48
 503 0374 5D       		popq	%rbp
 504              		.cfi_def_cfa_offset 40
 505              	.LVL82:
 506 0375 415C     		popq	%r12
 507              		.cfi_def_cfa_offset 32
 508 0377 415D     		popq	%r13
 509              		.cfi_def_cfa_offset 24
 510              	.LVL83:
 511 0379 415E     		popq	%r14
 512              		.cfi_def_cfa_offset 16
 513 037b 415F     		popq	%r15
 514              		.cfi_def_cfa_offset 8
 515 037d C3       		ret
 516              	.LVL84:
 517              	.L39:
 518              		.cfi_restore_state
 290:fltk-1.3.4-1/jpeg/jdmarker.c ****       if (c == compptr->component_id) {
 519              		.loc 1 290 0
 520 037e 4889FB   		movq	%rdi, %rbx
 521 0381 E983FEFF 		jmp	.L27
 521      FF
 522              	.LVL85:
 523              	.L5:
 253:fltk-1.3.4-1/jpeg/jdmarker.c **** 
 524              		.loc 1 253 0 discriminator 6
 525 0386 4C89EF   		movq	%r13, %rdi
 526              	.LVL86:
 527 0389 FF5518   		call	*24(%rbp)
 528              	.LVL87:
 529 038c 85C0     		testl	%eax, %eax
 530 038e 74DD     		je	.L7
 253:fltk-1.3.4-1/jpeg/jdmarker.c **** 
 531              		.loc 1 253 0 is_stmt 0 discriminator 9
 532 0390 488B4508 		movq	8(%rbp), %rax
 533 0394 488B7D00 		movq	0(%rbp), %rdi
 534              	.LVL88:
 255:fltk-1.3.4-1/jpeg/jdmarker.c ****   INPUT_2BYTES(cinfo, cinfo->image_height, return FALSE);
 535              		.loc 1 255 0 is_stmt 1 discriminator 9
 536 0398 4883E801 		subq	$1, %rax
 537              	.LVL89:
 253:fltk-1.3.4-1/jpeg/jdmarker.c **** 
 538              		.loc 1 253 0 discriminator 9
 539 039c 440FB63F 		movzbl	(%rdi), %r15d
 540              	.LVL90:
 255:fltk-1.3.4-1/jpeg/jdmarker.c ****   INPUT_2BYTES(cinfo, cinfo->image_height, return FALSE);
 541              		.loc 1 255 0 discriminator 9
 542 03a0 0F85B4FC 		jne	.L85
 542      FFFF
 543              	.LVL91:
 544              	.L8:
 255:fltk-1.3.4-1/jpeg/jdmarker.c ****   INPUT_2BYTES(cinfo, cinfo->image_height, return FALSE);
 545              		.loc 1 255 0 is_stmt 0 discriminator 1
 546 03a6 4C89EF   		movq	%r13, %rdi
 547 03a9 FF5518   		call	*24(%rbp)
 548              	.LVL92:
 549 03ac 85C0     		testl	%eax, %eax
 550 03ae 74BD     		je	.L7
 255:fltk-1.3.4-1/jpeg/jdmarker.c ****   INPUT_2BYTES(cinfo, cinfo->image_height, return FALSE);
 551              		.loc 1 255 0 discriminator 4
 552 03b0 488B7D00 		movq	0(%rbp), %rdi
 553              	.LVL93:
 554 03b4 488B4508 		movq	8(%rbp), %rax
 555              	.LVL94:
 556 03b8 0FB617   		movzbl	(%rdi), %edx
 256:fltk-1.3.4-1/jpeg/jdmarker.c ****   INPUT_2BYTES(cinfo, cinfo->image_width, return FALSE);
 557              		.loc 1 256 0 is_stmt 1 discriminator 4
 558 03bb 4883E801 		subq	$1, %rax
 559              	.LVL95:
 255:fltk-1.3.4-1/jpeg/jdmarker.c ****   INPUT_2BYTES(cinfo, cinfo->image_height, return FALSE);
 560              		.loc 1 255 0 discriminator 4
 561 03bf 41899528 		movl	%edx, 296(%r13)
 561      010000
 256:fltk-1.3.4-1/jpeg/jdmarker.c ****   INPUT_2BYTES(cinfo, cinfo->image_width, return FALSE);
 562              		.loc 1 256 0 discriminator 4
 563 03c6 0F85A6FC 		jne	.L86
 563      FFFF
 564              	.LVL96:
 565              	.L10:
 256:fltk-1.3.4-1/jpeg/jdmarker.c ****   INPUT_2BYTES(cinfo, cinfo->image_width, return FALSE);
 566              		.loc 1 256 0 is_stmt 0 discriminator 1
 567 03cc 4C89EF   		movq	%r13, %rdi
 568 03cf FF5518   		call	*24(%rbp)
 569              	.LVL97:
 570 03d2 85C0     		testl	%eax, %eax
 571 03d4 7497     		je	.L7
 256:fltk-1.3.4-1/jpeg/jdmarker.c ****   INPUT_2BYTES(cinfo, cinfo->image_width, return FALSE);
 572              		.loc 1 256 0 discriminator 4
 573 03d6 488B7D00 		movq	0(%rbp), %rdi
 574              	.LVL98:
 575 03da 488B4508 		movq	8(%rbp), %rax
 576              	.LVL99:
 577 03de 0FB617   		movzbl	(%rdi), %edx
 578 03e1 C1E208   		sall	$8, %edx
 579 03e4 4883E801 		subq	$1, %rax
 580              	.LVL100:
 581 03e8 41895534 		movl	%edx, 52(%r13)
 582 03ec 0F8598FC 		jne	.L87
 582      FFFF
 583              	.LVL101:
 584              	.L12:
 256:fltk-1.3.4-1/jpeg/jdmarker.c ****   INPUT_2BYTES(cinfo, cinfo->image_width, return FALSE);
 585              		.loc 1 256 0 discriminator 6
 586 03f2 4C89EF   		movq	%r13, %rdi
 587 03f5 FF5518   		call	*24(%rbp)
 588              	.LVL102:
 589 03f8 85C0     		testl	%eax, %eax
 590 03fa 0F846DFF 		je	.L7
 590      FFFF
 256:fltk-1.3.4-1/jpeg/jdmarker.c ****   INPUT_2BYTES(cinfo, cinfo->image_width, return FALSE);
 591              		.loc 1 256 0 discriminator 9
 592 0400 488B7D00 		movq	0(%rbp), %rdi
 593              	.LVL103:
 594 0404 488B4508 		movq	8(%rbp), %rax
 595              	.LVL104:
 596 0408 418B5534 		movl	52(%r13), %edx
 597              	.LVL105:
 598 040c 0FB60F   		movzbl	(%rdi), %ecx
 599 040f 01CA     		addl	%ecx, %edx
 257:fltk-1.3.4-1/jpeg/jdmarker.c ****   INPUT_BYTE(cinfo, cinfo->num_components, return FALSE);
 600              		.loc 1 257 0 is_stmt 1 discriminator 9
 601 0411 4883E801 		subq	$1, %rax
 602              	.LVL106:
 256:fltk-1.3.4-1/jpeg/jdmarker.c ****   INPUT_2BYTES(cinfo, cinfo->image_width, return FALSE);
 603              		.loc 1 256 0 discriminator 9
 604 0415 41895534 		movl	%edx, 52(%r13)
 257:fltk-1.3.4-1/jpeg/jdmarker.c ****   INPUT_BYTE(cinfo, cinfo->num_components, return FALSE);
 605              		.loc 1 257 0 discriminator 9
 606 0419 0F8582FC 		jne	.L88
 606      FFFF
 607              	.LVL107:
 608              	.L14:
 257:fltk-1.3.4-1/jpeg/jdmarker.c ****   INPUT_BYTE(cinfo, cinfo->num_components, return FALSE);
 609              		.loc 1 257 0 is_stmt 0 discriminator 1
 610 041f 4C89EF   		movq	%r13, %rdi
 611 0422 FF5518   		call	*24(%rbp)
 612              	.LVL108:
 613 0425 85C0     		testl	%eax, %eax
 614 0427 0F8440FF 		je	.L7
 614      FFFF
 257:fltk-1.3.4-1/jpeg/jdmarker.c ****   INPUT_BYTE(cinfo, cinfo->num_components, return FALSE);
 615              		.loc 1 257 0 discriminator 4
 616 042d 488B7D00 		movq	0(%rbp), %rdi
 617              	.LVL109:
 618 0431 488B4508 		movq	8(%rbp), %rax
 619              	.LVL110:
 620 0435 0FB617   		movzbl	(%rdi), %edx
 621 0438 C1E208   		sall	$8, %edx
 622 043b 4883E801 		subq	$1, %rax
 623              	.LVL111:
 624 043f 41895530 		movl	%edx, 48(%r13)
 625 0443 0F8570FC 		jne	.L89
 625      FFFF
 626              	.LVL112:
 627              	.L16:
 257:fltk-1.3.4-1/jpeg/jdmarker.c ****   INPUT_BYTE(cinfo, cinfo->num_components, return FALSE);
 628              		.loc 1 257 0 discriminator 6
 629 0449 4C89EF   		movq	%r13, %rdi
 630 044c FF5518   		call	*24(%rbp)
 631              	.LVL113:
 632 044f 85C0     		testl	%eax, %eax
 633 0451 0F8416FF 		je	.L7
 633      FFFF
 257:fltk-1.3.4-1/jpeg/jdmarker.c ****   INPUT_BYTE(cinfo, cinfo->num_components, return FALSE);
 634              		.loc 1 257 0 discriminator 9
 635 0457 488B7D00 		movq	0(%rbp), %rdi
 636              	.LVL114:
 637 045b 488B4508 		movq	8(%rbp), %rax
 638              	.LVL115:
 639 045f 418B5530 		movl	48(%r13), %edx
 640 0463 E955FCFF 		jmp	.L17
 640      FF
 641              	.LVL116:
 642              	.L18:
 258:fltk-1.3.4-1/jpeg/jdmarker.c **** 
 643              		.loc 1 258 0 is_stmt 1 discriminator 1
 644 0468 4C89EF   		movq	%r13, %rdi
 645              	.LVL117:
 646 046b FF5518   		call	*24(%rbp)
 647              	.LVL118:
 648 046e 85C0     		testl	%eax, %eax
 649 0470 0F84F7FE 		je	.L7
 649      FFFF
 258:fltk-1.3.4-1/jpeg/jdmarker.c **** 
 650              		.loc 1 258 0 is_stmt 0 discriminator 4
 651 0476 488B7D00 		movq	0(%rbp), %rdi
 652              	.LVL119:
 653 047a 488B4508 		movq	8(%rbp), %rax
 654              	.LVL120:
 655 047e E951FCFF 		jmp	.L19
 655      FF
 656              	.LVL121:
 657              	.L3:
 253:fltk-1.3.4-1/jpeg/jdmarker.c **** 
 658              		.loc 1 253 0 is_stmt 1 discriminator 4
 659 0483 488B7D00 		movq	0(%rbp), %rdi
 660              	.LVL122:
 661 0487 488B4508 		movq	8(%rbp), %rax
 662              	.LVL123:
 663 048b E9ABFBFF 		jmp	.L2
 663      FF
 664              	.LVL124:
 665              	.L81:
 273:fltk-1.3.4-1/jpeg/jdmarker.c ****     ERREXIT(cinfo, JERR_EMPTY_IMAGE);
 666              		.loc 1 273 0 discriminator 2
 667 0490 49634538 		movslq	56(%r13), %rax
 272:fltk-1.3.4-1/jpeg/jdmarker.c ****       cinfo->num_components <= 0)
 668              		.loc 1 272 0 discriminator 2
 669 0494 85C0     		testl	%eax, %eax
 670 0496 0F8FD1FC 		jg	.L22
 670      FFFF
 671 049c E9B4FCFF 		jmp	.L21
 671      FF
 672              	.L80:
 267:fltk-1.3.4-1/jpeg/jdmarker.c **** 
 673              		.loc 1 267 0
 674 04a1 498B4500 		movq	0(%r13), %rax
 675 04a5 4C89EF   		movq	%r13, %rdi
 676 04a8 C740283D 		movl	$61, 40(%rax)
 676      000000
 677 04af 498B4500 		movq	0(%r13), %rax
 678 04b3 FF10     		call	*(%rax)
 679              	.LVL125:
 680 04b5 E987FCFF 		jmp	.L20
 680      FF
 681              	.L82:
 280:fltk-1.3.4-1/jpeg/jdmarker.c **** 			((j_common_ptr) cinfo, JPOOL_IMAGE,
 682              		.loc 1 280 0
 683 04ba 488D1440 		leaq	(%rax,%rax,2), %rdx
 684 04be 498B4508 		movq	8(%r13), %rax
 685 04c2 BE010000 		movl	$1, %esi
 685      00
 686 04c7 4C89EF   		movq	%r13, %rdi
 687 04ca 48C1E205 		salq	$5, %rdx
 688 04ce FF10     		call	*(%rax)
 689              	.LVL126:
 690 04d0 49898530 		movq	%rax, 304(%r13)
 690      010000
 691 04d7 418B4538 		movl	56(%r13), %eax
 692 04db E9BEFCFF 		jmp	.L24
 692      FF
 693              		.cfi_endproc
 694              	.LFE62:
 696              		.section	.text.unlikely.get_sof
 697              	.LCOLDE0:
 698              		.section	.text.get_sof
 699              	.LHOTE0:
 700              		.section	.text.unlikely.examine_app0,"ax",@progbits
 701              	.LCOLDB1:
 702              		.section	.text.examine_app0,"ax",@progbits
 703              	.LHOTB1:
 704              		.p2align 4,,15
 706              	examine_app0:
 707              	.LFB69:
 319:fltk-1.3.4-1/jpeg/jdmarker.c **** 
 320:fltk-1.3.4-1/jpeg/jdmarker.c **** 
 321:fltk-1.3.4-1/jpeg/jdmarker.c **** LOCAL(boolean)
 322:fltk-1.3.4-1/jpeg/jdmarker.c **** get_sos (j_decompress_ptr cinfo)
 323:fltk-1.3.4-1/jpeg/jdmarker.c **** /* Process a SOS marker */
 324:fltk-1.3.4-1/jpeg/jdmarker.c **** {
 325:fltk-1.3.4-1/jpeg/jdmarker.c ****   INT32 length;
 326:fltk-1.3.4-1/jpeg/jdmarker.c ****   int c, ci, i, n;
 327:fltk-1.3.4-1/jpeg/jdmarker.c ****   jpeg_component_info * compptr;
 328:fltk-1.3.4-1/jpeg/jdmarker.c ****   INPUT_VARS(cinfo);
 329:fltk-1.3.4-1/jpeg/jdmarker.c **** 
 330:fltk-1.3.4-1/jpeg/jdmarker.c ****   if (! cinfo->marker->saw_SOF)
 331:fltk-1.3.4-1/jpeg/jdmarker.c ****     ERREXITS(cinfo, JERR_SOF_BEFORE, "SOS");
 332:fltk-1.3.4-1/jpeg/jdmarker.c **** 
 333:fltk-1.3.4-1/jpeg/jdmarker.c ****   INPUT_2BYTES(cinfo, length, return FALSE);
 334:fltk-1.3.4-1/jpeg/jdmarker.c **** 
 335:fltk-1.3.4-1/jpeg/jdmarker.c ****   INPUT_BYTE(cinfo, n, return FALSE); /* Number of components */
 336:fltk-1.3.4-1/jpeg/jdmarker.c **** 
 337:fltk-1.3.4-1/jpeg/jdmarker.c ****   TRACEMS1(cinfo, 1, JTRC_SOS, n);
 338:fltk-1.3.4-1/jpeg/jdmarker.c **** 
 339:fltk-1.3.4-1/jpeg/jdmarker.c ****   if (length != (n * 2 + 6) || n > MAX_COMPS_IN_SCAN ||
 340:fltk-1.3.4-1/jpeg/jdmarker.c ****       (n == 0 && !cinfo->progressive_mode))
 341:fltk-1.3.4-1/jpeg/jdmarker.c ****       /* pseudo SOS marker only allowed in progressive mode */
 342:fltk-1.3.4-1/jpeg/jdmarker.c ****     ERREXIT(cinfo, JERR_BAD_LENGTH);
 343:fltk-1.3.4-1/jpeg/jdmarker.c **** 
 344:fltk-1.3.4-1/jpeg/jdmarker.c ****   cinfo->comps_in_scan = n;
 345:fltk-1.3.4-1/jpeg/jdmarker.c **** 
 346:fltk-1.3.4-1/jpeg/jdmarker.c ****   /* Collect the component-spec parameters */
 347:fltk-1.3.4-1/jpeg/jdmarker.c **** 
 348:fltk-1.3.4-1/jpeg/jdmarker.c ****   for (i = 0; i < n; i++) {
 349:fltk-1.3.4-1/jpeg/jdmarker.c ****     INPUT_BYTE(cinfo, c, return FALSE);
 350:fltk-1.3.4-1/jpeg/jdmarker.c **** 
 351:fltk-1.3.4-1/jpeg/jdmarker.c ****     /* Detect the case where component id's are not unique, and, if so, */
 352:fltk-1.3.4-1/jpeg/jdmarker.c ****     /* create a fake component id using the same logic as in get_sof.   */
 353:fltk-1.3.4-1/jpeg/jdmarker.c ****     /* Note:  This also ensures that all of the SOF components are      */
 354:fltk-1.3.4-1/jpeg/jdmarker.c ****     /* referenced in the single scan case, which prevents access to     */
 355:fltk-1.3.4-1/jpeg/jdmarker.c ****     /* uninitialized memory in later decoding stages. */
 356:fltk-1.3.4-1/jpeg/jdmarker.c ****     for (ci = 0; ci < i; ci++) {
 357:fltk-1.3.4-1/jpeg/jdmarker.c ****       if (c == cinfo->cur_comp_info[ci]->component_id) {
 358:fltk-1.3.4-1/jpeg/jdmarker.c **** 	c = cinfo->cur_comp_info[0]->component_id;
 359:fltk-1.3.4-1/jpeg/jdmarker.c **** 	for (ci = 1; ci < i; ci++) {
 360:fltk-1.3.4-1/jpeg/jdmarker.c **** 	  compptr = cinfo->cur_comp_info[ci];
 361:fltk-1.3.4-1/jpeg/jdmarker.c **** 	  if (compptr->component_id > c) c = compptr->component_id;
 362:fltk-1.3.4-1/jpeg/jdmarker.c **** 	}
 363:fltk-1.3.4-1/jpeg/jdmarker.c **** 	c++;
 364:fltk-1.3.4-1/jpeg/jdmarker.c **** 	break;
 365:fltk-1.3.4-1/jpeg/jdmarker.c ****       }
 366:fltk-1.3.4-1/jpeg/jdmarker.c ****     }
 367:fltk-1.3.4-1/jpeg/jdmarker.c **** 
 368:fltk-1.3.4-1/jpeg/jdmarker.c ****     for (ci = 0, compptr = cinfo->comp_info; ci < cinfo->num_components;
 369:fltk-1.3.4-1/jpeg/jdmarker.c **** 	 ci++, compptr++) {
 370:fltk-1.3.4-1/jpeg/jdmarker.c ****       if (c == compptr->component_id)
 371:fltk-1.3.4-1/jpeg/jdmarker.c **** 	goto id_found;
 372:fltk-1.3.4-1/jpeg/jdmarker.c ****     }
 373:fltk-1.3.4-1/jpeg/jdmarker.c **** 
 374:fltk-1.3.4-1/jpeg/jdmarker.c ****     ERREXIT1(cinfo, JERR_BAD_COMPONENT_ID, c);
 375:fltk-1.3.4-1/jpeg/jdmarker.c **** 
 376:fltk-1.3.4-1/jpeg/jdmarker.c ****   id_found:
 377:fltk-1.3.4-1/jpeg/jdmarker.c **** 
 378:fltk-1.3.4-1/jpeg/jdmarker.c ****     cinfo->cur_comp_info[i] = compptr;
 379:fltk-1.3.4-1/jpeg/jdmarker.c ****     INPUT_BYTE(cinfo, c, return FALSE);
 380:fltk-1.3.4-1/jpeg/jdmarker.c ****     compptr->dc_tbl_no = (c >> 4) & 15;
 381:fltk-1.3.4-1/jpeg/jdmarker.c ****     compptr->ac_tbl_no = (c     ) & 15;
 382:fltk-1.3.4-1/jpeg/jdmarker.c **** 
 383:fltk-1.3.4-1/jpeg/jdmarker.c ****     TRACEMS3(cinfo, 1, JTRC_SOS_COMPONENT, compptr->component_id,
 384:fltk-1.3.4-1/jpeg/jdmarker.c **** 	     compptr->dc_tbl_no, compptr->ac_tbl_no);
 385:fltk-1.3.4-1/jpeg/jdmarker.c ****   }
 386:fltk-1.3.4-1/jpeg/jdmarker.c **** 
 387:fltk-1.3.4-1/jpeg/jdmarker.c ****   /* Collect the additional scan parameters Ss, Se, Ah/Al. */
 388:fltk-1.3.4-1/jpeg/jdmarker.c ****   INPUT_BYTE(cinfo, c, return FALSE);
 389:fltk-1.3.4-1/jpeg/jdmarker.c ****   cinfo->Ss = c;
 390:fltk-1.3.4-1/jpeg/jdmarker.c ****   INPUT_BYTE(cinfo, c, return FALSE);
 391:fltk-1.3.4-1/jpeg/jdmarker.c ****   cinfo->Se = c;
 392:fltk-1.3.4-1/jpeg/jdmarker.c ****   INPUT_BYTE(cinfo, c, return FALSE);
 393:fltk-1.3.4-1/jpeg/jdmarker.c ****   cinfo->Ah = (c >> 4) & 15;
 394:fltk-1.3.4-1/jpeg/jdmarker.c ****   cinfo->Al = (c     ) & 15;
 395:fltk-1.3.4-1/jpeg/jdmarker.c **** 
 396:fltk-1.3.4-1/jpeg/jdmarker.c ****   TRACEMS4(cinfo, 1, JTRC_SOS_PARAMS, cinfo->Ss, cinfo->Se,
 397:fltk-1.3.4-1/jpeg/jdmarker.c **** 	   cinfo->Ah, cinfo->Al);
 398:fltk-1.3.4-1/jpeg/jdmarker.c **** 
 399:fltk-1.3.4-1/jpeg/jdmarker.c ****   /* Prepare to scan data & restart markers */
 400:fltk-1.3.4-1/jpeg/jdmarker.c ****   cinfo->marker->next_restart_num = 0;
 401:fltk-1.3.4-1/jpeg/jdmarker.c **** 
 402:fltk-1.3.4-1/jpeg/jdmarker.c ****   /* Count another (non-pseudo) SOS marker */
 403:fltk-1.3.4-1/jpeg/jdmarker.c ****   if (n) cinfo->input_scan_number++;
 404:fltk-1.3.4-1/jpeg/jdmarker.c **** 
 405:fltk-1.3.4-1/jpeg/jdmarker.c ****   INPUT_SYNC(cinfo);
 406:fltk-1.3.4-1/jpeg/jdmarker.c ****   return TRUE;
 407:fltk-1.3.4-1/jpeg/jdmarker.c **** }
 408:fltk-1.3.4-1/jpeg/jdmarker.c **** 
 409:fltk-1.3.4-1/jpeg/jdmarker.c **** 
 410:fltk-1.3.4-1/jpeg/jdmarker.c **** #ifdef D_ARITH_CODING_SUPPORTED
 411:fltk-1.3.4-1/jpeg/jdmarker.c **** 
 412:fltk-1.3.4-1/jpeg/jdmarker.c **** LOCAL(boolean)
 413:fltk-1.3.4-1/jpeg/jdmarker.c **** get_dac (j_decompress_ptr cinfo)
 414:fltk-1.3.4-1/jpeg/jdmarker.c **** /* Process a DAC marker */
 415:fltk-1.3.4-1/jpeg/jdmarker.c **** {
 416:fltk-1.3.4-1/jpeg/jdmarker.c ****   INT32 length;
 417:fltk-1.3.4-1/jpeg/jdmarker.c ****   int index, val;
 418:fltk-1.3.4-1/jpeg/jdmarker.c ****   INPUT_VARS(cinfo);
 419:fltk-1.3.4-1/jpeg/jdmarker.c **** 
 420:fltk-1.3.4-1/jpeg/jdmarker.c ****   INPUT_2BYTES(cinfo, length, return FALSE);
 421:fltk-1.3.4-1/jpeg/jdmarker.c ****   length -= 2;
 422:fltk-1.3.4-1/jpeg/jdmarker.c ****   
 423:fltk-1.3.4-1/jpeg/jdmarker.c ****   while (length > 0) {
 424:fltk-1.3.4-1/jpeg/jdmarker.c ****     INPUT_BYTE(cinfo, index, return FALSE);
 425:fltk-1.3.4-1/jpeg/jdmarker.c ****     INPUT_BYTE(cinfo, val, return FALSE);
 426:fltk-1.3.4-1/jpeg/jdmarker.c **** 
 427:fltk-1.3.4-1/jpeg/jdmarker.c ****     length -= 2;
 428:fltk-1.3.4-1/jpeg/jdmarker.c **** 
 429:fltk-1.3.4-1/jpeg/jdmarker.c ****     TRACEMS2(cinfo, 1, JTRC_DAC, index, val);
 430:fltk-1.3.4-1/jpeg/jdmarker.c **** 
 431:fltk-1.3.4-1/jpeg/jdmarker.c ****     if (index < 0 || index >= (2*NUM_ARITH_TBLS))
 432:fltk-1.3.4-1/jpeg/jdmarker.c ****       ERREXIT1(cinfo, JERR_DAC_INDEX, index);
 433:fltk-1.3.4-1/jpeg/jdmarker.c **** 
 434:fltk-1.3.4-1/jpeg/jdmarker.c ****     if (index >= NUM_ARITH_TBLS) { /* define AC table */
 435:fltk-1.3.4-1/jpeg/jdmarker.c ****       cinfo->arith_ac_K[index-NUM_ARITH_TBLS] = (UINT8) val;
 436:fltk-1.3.4-1/jpeg/jdmarker.c ****     } else {			/* define DC table */
 437:fltk-1.3.4-1/jpeg/jdmarker.c ****       cinfo->arith_dc_L[index] = (UINT8) (val & 0x0F);
 438:fltk-1.3.4-1/jpeg/jdmarker.c ****       cinfo->arith_dc_U[index] = (UINT8) (val >> 4);
 439:fltk-1.3.4-1/jpeg/jdmarker.c ****       if (cinfo->arith_dc_L[index] > cinfo->arith_dc_U[index])
 440:fltk-1.3.4-1/jpeg/jdmarker.c **** 	ERREXIT1(cinfo, JERR_DAC_VALUE, val);
 441:fltk-1.3.4-1/jpeg/jdmarker.c ****     }
 442:fltk-1.3.4-1/jpeg/jdmarker.c ****   }
 443:fltk-1.3.4-1/jpeg/jdmarker.c **** 
 444:fltk-1.3.4-1/jpeg/jdmarker.c ****   if (length != 0)
 445:fltk-1.3.4-1/jpeg/jdmarker.c ****     ERREXIT(cinfo, JERR_BAD_LENGTH);
 446:fltk-1.3.4-1/jpeg/jdmarker.c **** 
 447:fltk-1.3.4-1/jpeg/jdmarker.c ****   INPUT_SYNC(cinfo);
 448:fltk-1.3.4-1/jpeg/jdmarker.c ****   return TRUE;
 449:fltk-1.3.4-1/jpeg/jdmarker.c **** }
 450:fltk-1.3.4-1/jpeg/jdmarker.c **** 
 451:fltk-1.3.4-1/jpeg/jdmarker.c **** #else /* ! D_ARITH_CODING_SUPPORTED */
 452:fltk-1.3.4-1/jpeg/jdmarker.c **** 
 453:fltk-1.3.4-1/jpeg/jdmarker.c **** #define get_dac(cinfo)  skip_variable(cinfo)
 454:fltk-1.3.4-1/jpeg/jdmarker.c **** 
 455:fltk-1.3.4-1/jpeg/jdmarker.c **** #endif /* D_ARITH_CODING_SUPPORTED */
 456:fltk-1.3.4-1/jpeg/jdmarker.c **** 
 457:fltk-1.3.4-1/jpeg/jdmarker.c **** 
 458:fltk-1.3.4-1/jpeg/jdmarker.c **** LOCAL(boolean)
 459:fltk-1.3.4-1/jpeg/jdmarker.c **** get_dht (j_decompress_ptr cinfo)
 460:fltk-1.3.4-1/jpeg/jdmarker.c **** /* Process a DHT marker */
 461:fltk-1.3.4-1/jpeg/jdmarker.c **** {
 462:fltk-1.3.4-1/jpeg/jdmarker.c ****   INT32 length;
 463:fltk-1.3.4-1/jpeg/jdmarker.c ****   UINT8 bits[17];
 464:fltk-1.3.4-1/jpeg/jdmarker.c ****   UINT8 huffval[256];
 465:fltk-1.3.4-1/jpeg/jdmarker.c ****   int i, index, count;
 466:fltk-1.3.4-1/jpeg/jdmarker.c ****   JHUFF_TBL **htblptr;
 467:fltk-1.3.4-1/jpeg/jdmarker.c ****   INPUT_VARS(cinfo);
 468:fltk-1.3.4-1/jpeg/jdmarker.c **** 
 469:fltk-1.3.4-1/jpeg/jdmarker.c ****   INPUT_2BYTES(cinfo, length, return FALSE);
 470:fltk-1.3.4-1/jpeg/jdmarker.c ****   length -= 2;
 471:fltk-1.3.4-1/jpeg/jdmarker.c ****   
 472:fltk-1.3.4-1/jpeg/jdmarker.c ****   while (length > 16) {
 473:fltk-1.3.4-1/jpeg/jdmarker.c ****     INPUT_BYTE(cinfo, index, return FALSE);
 474:fltk-1.3.4-1/jpeg/jdmarker.c **** 
 475:fltk-1.3.4-1/jpeg/jdmarker.c ****     TRACEMS1(cinfo, 1, JTRC_DHT, index);
 476:fltk-1.3.4-1/jpeg/jdmarker.c ****       
 477:fltk-1.3.4-1/jpeg/jdmarker.c ****     bits[0] = 0;
 478:fltk-1.3.4-1/jpeg/jdmarker.c ****     count = 0;
 479:fltk-1.3.4-1/jpeg/jdmarker.c ****     for (i = 1; i <= 16; i++) {
 480:fltk-1.3.4-1/jpeg/jdmarker.c ****       INPUT_BYTE(cinfo, bits[i], return FALSE);
 481:fltk-1.3.4-1/jpeg/jdmarker.c ****       count += bits[i];
 482:fltk-1.3.4-1/jpeg/jdmarker.c ****     }
 483:fltk-1.3.4-1/jpeg/jdmarker.c **** 
 484:fltk-1.3.4-1/jpeg/jdmarker.c ****     length -= 1 + 16;
 485:fltk-1.3.4-1/jpeg/jdmarker.c **** 
 486:fltk-1.3.4-1/jpeg/jdmarker.c ****     TRACEMS8(cinfo, 2, JTRC_HUFFBITS,
 487:fltk-1.3.4-1/jpeg/jdmarker.c **** 	     bits[1], bits[2], bits[3], bits[4],
 488:fltk-1.3.4-1/jpeg/jdmarker.c **** 	     bits[5], bits[6], bits[7], bits[8]);
 489:fltk-1.3.4-1/jpeg/jdmarker.c ****     TRACEMS8(cinfo, 2, JTRC_HUFFBITS,
 490:fltk-1.3.4-1/jpeg/jdmarker.c **** 	     bits[9], bits[10], bits[11], bits[12],
 491:fltk-1.3.4-1/jpeg/jdmarker.c **** 	     bits[13], bits[14], bits[15], bits[16]);
 492:fltk-1.3.4-1/jpeg/jdmarker.c **** 
 493:fltk-1.3.4-1/jpeg/jdmarker.c ****     /* Here we just do minimal validation of the counts to avoid walking
 494:fltk-1.3.4-1/jpeg/jdmarker.c ****      * off the end of our table space.  jdhuff.c will check more carefully.
 495:fltk-1.3.4-1/jpeg/jdmarker.c ****      */
 496:fltk-1.3.4-1/jpeg/jdmarker.c ****     if (count > 256 || ((INT32) count) > length)
 497:fltk-1.3.4-1/jpeg/jdmarker.c ****       ERREXIT(cinfo, JERR_BAD_HUFF_TABLE);
 498:fltk-1.3.4-1/jpeg/jdmarker.c **** 
 499:fltk-1.3.4-1/jpeg/jdmarker.c ****     MEMZERO(huffval, SIZEOF(huffval)); /* pre-zero array for later copy */
 500:fltk-1.3.4-1/jpeg/jdmarker.c **** 
 501:fltk-1.3.4-1/jpeg/jdmarker.c ****     for (i = 0; i < count; i++)
 502:fltk-1.3.4-1/jpeg/jdmarker.c ****       INPUT_BYTE(cinfo, huffval[i], return FALSE);
 503:fltk-1.3.4-1/jpeg/jdmarker.c **** 
 504:fltk-1.3.4-1/jpeg/jdmarker.c ****     length -= count;
 505:fltk-1.3.4-1/jpeg/jdmarker.c **** 
 506:fltk-1.3.4-1/jpeg/jdmarker.c ****     if (index & 0x10) {		/* AC table definition */
 507:fltk-1.3.4-1/jpeg/jdmarker.c ****       index -= 0x10;
 508:fltk-1.3.4-1/jpeg/jdmarker.c ****       htblptr = &cinfo->ac_huff_tbl_ptrs[index];
 509:fltk-1.3.4-1/jpeg/jdmarker.c ****     } else {			/* DC table definition */
 510:fltk-1.3.4-1/jpeg/jdmarker.c ****       htblptr = &cinfo->dc_huff_tbl_ptrs[index];
 511:fltk-1.3.4-1/jpeg/jdmarker.c ****     }
 512:fltk-1.3.4-1/jpeg/jdmarker.c **** 
 513:fltk-1.3.4-1/jpeg/jdmarker.c ****     if (index < 0 || index >= NUM_HUFF_TBLS)
 514:fltk-1.3.4-1/jpeg/jdmarker.c ****       ERREXIT1(cinfo, JERR_DHT_INDEX, index);
 515:fltk-1.3.4-1/jpeg/jdmarker.c **** 
 516:fltk-1.3.4-1/jpeg/jdmarker.c ****     if (*htblptr == NULL)
 517:fltk-1.3.4-1/jpeg/jdmarker.c ****       *htblptr = jpeg_alloc_huff_table((j_common_ptr) cinfo);
 518:fltk-1.3.4-1/jpeg/jdmarker.c ****   
 519:fltk-1.3.4-1/jpeg/jdmarker.c ****     MEMCOPY((*htblptr)->bits, bits, SIZEOF((*htblptr)->bits));
 520:fltk-1.3.4-1/jpeg/jdmarker.c ****     MEMCOPY((*htblptr)->huffval, huffval, SIZEOF((*htblptr)->huffval));
 521:fltk-1.3.4-1/jpeg/jdmarker.c ****   }
 522:fltk-1.3.4-1/jpeg/jdmarker.c **** 
 523:fltk-1.3.4-1/jpeg/jdmarker.c ****   if (length != 0)
 524:fltk-1.3.4-1/jpeg/jdmarker.c ****     ERREXIT(cinfo, JERR_BAD_LENGTH);
 525:fltk-1.3.4-1/jpeg/jdmarker.c **** 
 526:fltk-1.3.4-1/jpeg/jdmarker.c ****   INPUT_SYNC(cinfo);
 527:fltk-1.3.4-1/jpeg/jdmarker.c ****   return TRUE;
 528:fltk-1.3.4-1/jpeg/jdmarker.c **** }
 529:fltk-1.3.4-1/jpeg/jdmarker.c **** 
 530:fltk-1.3.4-1/jpeg/jdmarker.c **** 
 531:fltk-1.3.4-1/jpeg/jdmarker.c **** LOCAL(boolean)
 532:fltk-1.3.4-1/jpeg/jdmarker.c **** get_dqt (j_decompress_ptr cinfo)
 533:fltk-1.3.4-1/jpeg/jdmarker.c **** /* Process a DQT marker */
 534:fltk-1.3.4-1/jpeg/jdmarker.c **** {
 535:fltk-1.3.4-1/jpeg/jdmarker.c ****   INT32 length, count, i;
 536:fltk-1.3.4-1/jpeg/jdmarker.c ****   int n, prec;
 537:fltk-1.3.4-1/jpeg/jdmarker.c ****   unsigned int tmp;
 538:fltk-1.3.4-1/jpeg/jdmarker.c ****   JQUANT_TBL *quant_ptr;
 539:fltk-1.3.4-1/jpeg/jdmarker.c ****   const int *natural_order;
 540:fltk-1.3.4-1/jpeg/jdmarker.c ****   INPUT_VARS(cinfo);
 541:fltk-1.3.4-1/jpeg/jdmarker.c **** 
 542:fltk-1.3.4-1/jpeg/jdmarker.c ****   INPUT_2BYTES(cinfo, length, return FALSE);
 543:fltk-1.3.4-1/jpeg/jdmarker.c ****   length -= 2;
 544:fltk-1.3.4-1/jpeg/jdmarker.c **** 
 545:fltk-1.3.4-1/jpeg/jdmarker.c ****   while (length > 0) {
 546:fltk-1.3.4-1/jpeg/jdmarker.c ****     length--;
 547:fltk-1.3.4-1/jpeg/jdmarker.c ****     INPUT_BYTE(cinfo, n, return FALSE);
 548:fltk-1.3.4-1/jpeg/jdmarker.c ****     prec = n >> 4;
 549:fltk-1.3.4-1/jpeg/jdmarker.c ****     n &= 0x0F;
 550:fltk-1.3.4-1/jpeg/jdmarker.c **** 
 551:fltk-1.3.4-1/jpeg/jdmarker.c ****     TRACEMS2(cinfo, 1, JTRC_DQT, n, prec);
 552:fltk-1.3.4-1/jpeg/jdmarker.c **** 
 553:fltk-1.3.4-1/jpeg/jdmarker.c ****     if (n >= NUM_QUANT_TBLS)
 554:fltk-1.3.4-1/jpeg/jdmarker.c ****       ERREXIT1(cinfo, JERR_DQT_INDEX, n);
 555:fltk-1.3.4-1/jpeg/jdmarker.c ****       
 556:fltk-1.3.4-1/jpeg/jdmarker.c ****     if (cinfo->quant_tbl_ptrs[n] == NULL)
 557:fltk-1.3.4-1/jpeg/jdmarker.c ****       cinfo->quant_tbl_ptrs[n] = jpeg_alloc_quant_table((j_common_ptr) cinfo);
 558:fltk-1.3.4-1/jpeg/jdmarker.c ****     quant_ptr = cinfo->quant_tbl_ptrs[n];
 559:fltk-1.3.4-1/jpeg/jdmarker.c **** 
 560:fltk-1.3.4-1/jpeg/jdmarker.c ****     if (prec) {
 561:fltk-1.3.4-1/jpeg/jdmarker.c ****       if (length < DCTSIZE2 * 2) {
 562:fltk-1.3.4-1/jpeg/jdmarker.c **** 	/* Initialize full table for safety. */
 563:fltk-1.3.4-1/jpeg/jdmarker.c **** 	for (i = 0; i < DCTSIZE2; i++) {
 564:fltk-1.3.4-1/jpeg/jdmarker.c **** 	  quant_ptr->quantval[i] = 1;
 565:fltk-1.3.4-1/jpeg/jdmarker.c **** 	}
 566:fltk-1.3.4-1/jpeg/jdmarker.c **** 	count = length >> 1;
 567:fltk-1.3.4-1/jpeg/jdmarker.c ****       } else
 568:fltk-1.3.4-1/jpeg/jdmarker.c **** 	count = DCTSIZE2;
 569:fltk-1.3.4-1/jpeg/jdmarker.c ****     } else {
 570:fltk-1.3.4-1/jpeg/jdmarker.c ****       if (length < DCTSIZE2) {
 571:fltk-1.3.4-1/jpeg/jdmarker.c **** 	/* Initialize full table for safety. */
 572:fltk-1.3.4-1/jpeg/jdmarker.c **** 	for (i = 0; i < DCTSIZE2; i++) {
 573:fltk-1.3.4-1/jpeg/jdmarker.c **** 	  quant_ptr->quantval[i] = 1;
 574:fltk-1.3.4-1/jpeg/jdmarker.c **** 	}
 575:fltk-1.3.4-1/jpeg/jdmarker.c **** 	count = length;
 576:fltk-1.3.4-1/jpeg/jdmarker.c ****       } else
 577:fltk-1.3.4-1/jpeg/jdmarker.c **** 	count = DCTSIZE2;
 578:fltk-1.3.4-1/jpeg/jdmarker.c ****     }
 579:fltk-1.3.4-1/jpeg/jdmarker.c **** 
 580:fltk-1.3.4-1/jpeg/jdmarker.c ****     switch (count) {
 581:fltk-1.3.4-1/jpeg/jdmarker.c ****     case (2*2): natural_order = jpeg_natural_order2; break;
 582:fltk-1.3.4-1/jpeg/jdmarker.c ****     case (3*3): natural_order = jpeg_natural_order3; break;
 583:fltk-1.3.4-1/jpeg/jdmarker.c ****     case (4*4): natural_order = jpeg_natural_order4; break;
 584:fltk-1.3.4-1/jpeg/jdmarker.c ****     case (5*5): natural_order = jpeg_natural_order5; break;
 585:fltk-1.3.4-1/jpeg/jdmarker.c ****     case (6*6): natural_order = jpeg_natural_order6; break;
 586:fltk-1.3.4-1/jpeg/jdmarker.c ****     case (7*7): natural_order = jpeg_natural_order7; break;
 587:fltk-1.3.4-1/jpeg/jdmarker.c ****     default:    natural_order = jpeg_natural_order;  break;
 588:fltk-1.3.4-1/jpeg/jdmarker.c ****     }
 589:fltk-1.3.4-1/jpeg/jdmarker.c **** 
 590:fltk-1.3.4-1/jpeg/jdmarker.c ****     for (i = 0; i < count; i++) {
 591:fltk-1.3.4-1/jpeg/jdmarker.c ****       if (prec)
 592:fltk-1.3.4-1/jpeg/jdmarker.c **** 	INPUT_2BYTES(cinfo, tmp, return FALSE);
 593:fltk-1.3.4-1/jpeg/jdmarker.c ****       else
 594:fltk-1.3.4-1/jpeg/jdmarker.c **** 	INPUT_BYTE(cinfo, tmp, return FALSE);
 595:fltk-1.3.4-1/jpeg/jdmarker.c ****       /* We convert the zigzag-order table to natural array order. */
 596:fltk-1.3.4-1/jpeg/jdmarker.c ****       quant_ptr->quantval[natural_order[i]] = (UINT16) tmp;
 597:fltk-1.3.4-1/jpeg/jdmarker.c ****     }
 598:fltk-1.3.4-1/jpeg/jdmarker.c **** 
 599:fltk-1.3.4-1/jpeg/jdmarker.c ****     if (cinfo->err->trace_level >= 2) {
 600:fltk-1.3.4-1/jpeg/jdmarker.c ****       for (i = 0; i < DCTSIZE2; i += 8) {
 601:fltk-1.3.4-1/jpeg/jdmarker.c **** 	TRACEMS8(cinfo, 2, JTRC_QUANTVALS,
 602:fltk-1.3.4-1/jpeg/jdmarker.c **** 		 quant_ptr->quantval[i],   quant_ptr->quantval[i+1],
 603:fltk-1.3.4-1/jpeg/jdmarker.c **** 		 quant_ptr->quantval[i+2], quant_ptr->quantval[i+3],
 604:fltk-1.3.4-1/jpeg/jdmarker.c **** 		 quant_ptr->quantval[i+4], quant_ptr->quantval[i+5],
 605:fltk-1.3.4-1/jpeg/jdmarker.c **** 		 quant_ptr->quantval[i+6], quant_ptr->quantval[i+7]);
 606:fltk-1.3.4-1/jpeg/jdmarker.c ****       }
 607:fltk-1.3.4-1/jpeg/jdmarker.c ****     }
 608:fltk-1.3.4-1/jpeg/jdmarker.c **** 
 609:fltk-1.3.4-1/jpeg/jdmarker.c ****     length -= count;
 610:fltk-1.3.4-1/jpeg/jdmarker.c ****     if (prec) length -= count;
 611:fltk-1.3.4-1/jpeg/jdmarker.c ****   }
 612:fltk-1.3.4-1/jpeg/jdmarker.c **** 
 613:fltk-1.3.4-1/jpeg/jdmarker.c ****   if (length != 0)
 614:fltk-1.3.4-1/jpeg/jdmarker.c ****     ERREXIT(cinfo, JERR_BAD_LENGTH);
 615:fltk-1.3.4-1/jpeg/jdmarker.c **** 
 616:fltk-1.3.4-1/jpeg/jdmarker.c ****   INPUT_SYNC(cinfo);
 617:fltk-1.3.4-1/jpeg/jdmarker.c ****   return TRUE;
 618:fltk-1.3.4-1/jpeg/jdmarker.c **** }
 619:fltk-1.3.4-1/jpeg/jdmarker.c **** 
 620:fltk-1.3.4-1/jpeg/jdmarker.c **** 
 621:fltk-1.3.4-1/jpeg/jdmarker.c **** LOCAL(boolean)
 622:fltk-1.3.4-1/jpeg/jdmarker.c **** get_dri (j_decompress_ptr cinfo)
 623:fltk-1.3.4-1/jpeg/jdmarker.c **** /* Process a DRI marker */
 624:fltk-1.3.4-1/jpeg/jdmarker.c **** {
 625:fltk-1.3.4-1/jpeg/jdmarker.c ****   INT32 length;
 626:fltk-1.3.4-1/jpeg/jdmarker.c ****   unsigned int tmp;
 627:fltk-1.3.4-1/jpeg/jdmarker.c ****   INPUT_VARS(cinfo);
 628:fltk-1.3.4-1/jpeg/jdmarker.c **** 
 629:fltk-1.3.4-1/jpeg/jdmarker.c ****   INPUT_2BYTES(cinfo, length, return FALSE);
 630:fltk-1.3.4-1/jpeg/jdmarker.c ****   
 631:fltk-1.3.4-1/jpeg/jdmarker.c ****   if (length != 4)
 632:fltk-1.3.4-1/jpeg/jdmarker.c ****     ERREXIT(cinfo, JERR_BAD_LENGTH);
 633:fltk-1.3.4-1/jpeg/jdmarker.c **** 
 634:fltk-1.3.4-1/jpeg/jdmarker.c ****   INPUT_2BYTES(cinfo, tmp, return FALSE);
 635:fltk-1.3.4-1/jpeg/jdmarker.c **** 
 636:fltk-1.3.4-1/jpeg/jdmarker.c ****   TRACEMS1(cinfo, 1, JTRC_DRI, tmp);
 637:fltk-1.3.4-1/jpeg/jdmarker.c **** 
 638:fltk-1.3.4-1/jpeg/jdmarker.c ****   cinfo->restart_interval = tmp;
 639:fltk-1.3.4-1/jpeg/jdmarker.c **** 
 640:fltk-1.3.4-1/jpeg/jdmarker.c ****   INPUT_SYNC(cinfo);
 641:fltk-1.3.4-1/jpeg/jdmarker.c ****   return TRUE;
 642:fltk-1.3.4-1/jpeg/jdmarker.c **** }
 643:fltk-1.3.4-1/jpeg/jdmarker.c **** 
 644:fltk-1.3.4-1/jpeg/jdmarker.c **** 
 645:fltk-1.3.4-1/jpeg/jdmarker.c **** LOCAL(boolean)
 646:fltk-1.3.4-1/jpeg/jdmarker.c **** get_lse (j_decompress_ptr cinfo)
 647:fltk-1.3.4-1/jpeg/jdmarker.c **** /* Process an LSE marker */
 648:fltk-1.3.4-1/jpeg/jdmarker.c **** {
 649:fltk-1.3.4-1/jpeg/jdmarker.c ****   INT32 length;
 650:fltk-1.3.4-1/jpeg/jdmarker.c ****   unsigned int tmp;
 651:fltk-1.3.4-1/jpeg/jdmarker.c ****   int cid;
 652:fltk-1.3.4-1/jpeg/jdmarker.c ****   INPUT_VARS(cinfo);
 653:fltk-1.3.4-1/jpeg/jdmarker.c **** 
 654:fltk-1.3.4-1/jpeg/jdmarker.c ****   if (! cinfo->marker->saw_SOF)
 655:fltk-1.3.4-1/jpeg/jdmarker.c ****     ERREXITS(cinfo, JERR_SOF_BEFORE, "LSE");
 656:fltk-1.3.4-1/jpeg/jdmarker.c **** 
 657:fltk-1.3.4-1/jpeg/jdmarker.c ****   if (cinfo->num_components < 3) goto bad;
 658:fltk-1.3.4-1/jpeg/jdmarker.c **** 
 659:fltk-1.3.4-1/jpeg/jdmarker.c ****   INPUT_2BYTES(cinfo, length, return FALSE);
 660:fltk-1.3.4-1/jpeg/jdmarker.c **** 
 661:fltk-1.3.4-1/jpeg/jdmarker.c ****   if (length != 24)
 662:fltk-1.3.4-1/jpeg/jdmarker.c ****     ERREXIT(cinfo, JERR_BAD_LENGTH);
 663:fltk-1.3.4-1/jpeg/jdmarker.c **** 
 664:fltk-1.3.4-1/jpeg/jdmarker.c ****   INPUT_BYTE(cinfo, tmp, return FALSE);
 665:fltk-1.3.4-1/jpeg/jdmarker.c ****   if (tmp != 0x0D)	/* ID inverse transform specification */
 666:fltk-1.3.4-1/jpeg/jdmarker.c ****     ERREXIT1(cinfo, JERR_UNKNOWN_MARKER, cinfo->unread_marker);
 667:fltk-1.3.4-1/jpeg/jdmarker.c ****   INPUT_2BYTES(cinfo, tmp, return FALSE);
 668:fltk-1.3.4-1/jpeg/jdmarker.c ****   if (tmp != MAXJSAMPLE) goto bad;		/* MAXTRANS */
 669:fltk-1.3.4-1/jpeg/jdmarker.c ****   INPUT_BYTE(cinfo, tmp, return FALSE);
 670:fltk-1.3.4-1/jpeg/jdmarker.c ****   if (tmp != 3) goto bad;			/* Nt=3 */
 671:fltk-1.3.4-1/jpeg/jdmarker.c ****   INPUT_BYTE(cinfo, cid, return FALSE);
 672:fltk-1.3.4-1/jpeg/jdmarker.c ****   if (cid != cinfo->comp_info[1].component_id) goto bad;
 673:fltk-1.3.4-1/jpeg/jdmarker.c ****   INPUT_BYTE(cinfo, cid, return FALSE);
 674:fltk-1.3.4-1/jpeg/jdmarker.c ****   if (cid != cinfo->comp_info[0].component_id) goto bad;
 675:fltk-1.3.4-1/jpeg/jdmarker.c ****   INPUT_BYTE(cinfo, cid, return FALSE);
 676:fltk-1.3.4-1/jpeg/jdmarker.c ****   if (cid != cinfo->comp_info[2].component_id) goto bad;
 677:fltk-1.3.4-1/jpeg/jdmarker.c ****   INPUT_BYTE(cinfo, tmp, return FALSE);
 678:fltk-1.3.4-1/jpeg/jdmarker.c ****   if (tmp != 0x80) goto bad;		/* F1: CENTER1=1, NORM1=0 */
 679:fltk-1.3.4-1/jpeg/jdmarker.c ****   INPUT_2BYTES(cinfo, tmp, return FALSE);
 680:fltk-1.3.4-1/jpeg/jdmarker.c ****   if (tmp != 0) goto bad;			/* A(1,1)=0 */
 681:fltk-1.3.4-1/jpeg/jdmarker.c ****   INPUT_2BYTES(cinfo, tmp, return FALSE);
 682:fltk-1.3.4-1/jpeg/jdmarker.c ****   if (tmp != 0) goto bad;			/* A(1,2)=0 */
 683:fltk-1.3.4-1/jpeg/jdmarker.c ****   INPUT_BYTE(cinfo, tmp, return FALSE);
 684:fltk-1.3.4-1/jpeg/jdmarker.c ****   if (tmp != 0) goto bad;		/* F2: CENTER2=0, NORM2=0 */
 685:fltk-1.3.4-1/jpeg/jdmarker.c ****   INPUT_2BYTES(cinfo, tmp, return FALSE);
 686:fltk-1.3.4-1/jpeg/jdmarker.c ****   if (tmp != 1) goto bad;			/* A(2,1)=1 */
 687:fltk-1.3.4-1/jpeg/jdmarker.c ****   INPUT_2BYTES(cinfo, tmp, return FALSE);
 688:fltk-1.3.4-1/jpeg/jdmarker.c ****   if (tmp != 0) goto bad;			/* A(2,2)=0 */
 689:fltk-1.3.4-1/jpeg/jdmarker.c ****   INPUT_BYTE(cinfo, tmp, return FALSE);
 690:fltk-1.3.4-1/jpeg/jdmarker.c ****   if (tmp != 0) goto bad;		/* F3: CENTER3=0, NORM3=0 */
 691:fltk-1.3.4-1/jpeg/jdmarker.c ****   INPUT_2BYTES(cinfo, tmp, return FALSE);
 692:fltk-1.3.4-1/jpeg/jdmarker.c ****   if (tmp != 1) goto bad;			/* A(3,1)=1 */
 693:fltk-1.3.4-1/jpeg/jdmarker.c ****   INPUT_2BYTES(cinfo, tmp, return FALSE);
 694:fltk-1.3.4-1/jpeg/jdmarker.c ****   if (tmp != 0) {				/* A(3,2)=0 */
 695:fltk-1.3.4-1/jpeg/jdmarker.c ****     bad:
 696:fltk-1.3.4-1/jpeg/jdmarker.c ****     ERREXIT(cinfo, JERR_CONVERSION_NOTIMPL);
 697:fltk-1.3.4-1/jpeg/jdmarker.c ****   }
 698:fltk-1.3.4-1/jpeg/jdmarker.c **** 
 699:fltk-1.3.4-1/jpeg/jdmarker.c ****   /* OK, valid transform that we can handle. */
 700:fltk-1.3.4-1/jpeg/jdmarker.c ****   cinfo->color_transform = JCT_SUBTRACT_GREEN;
 701:fltk-1.3.4-1/jpeg/jdmarker.c **** 
 702:fltk-1.3.4-1/jpeg/jdmarker.c ****   INPUT_SYNC(cinfo);
 703:fltk-1.3.4-1/jpeg/jdmarker.c ****   return TRUE;
 704:fltk-1.3.4-1/jpeg/jdmarker.c **** }
 705:fltk-1.3.4-1/jpeg/jdmarker.c **** 
 706:fltk-1.3.4-1/jpeg/jdmarker.c **** 
 707:fltk-1.3.4-1/jpeg/jdmarker.c **** /*
 708:fltk-1.3.4-1/jpeg/jdmarker.c ****  * Routines for processing APPn and COM markers.
 709:fltk-1.3.4-1/jpeg/jdmarker.c ****  * These are either saved in memory or discarded, per application request.
 710:fltk-1.3.4-1/jpeg/jdmarker.c ****  * APP0 and APP14 are specially checked to see if they are
 711:fltk-1.3.4-1/jpeg/jdmarker.c ****  * JFIF and Adobe markers, respectively.
 712:fltk-1.3.4-1/jpeg/jdmarker.c ****  */
 713:fltk-1.3.4-1/jpeg/jdmarker.c **** 
 714:fltk-1.3.4-1/jpeg/jdmarker.c **** #define APP0_DATA_LEN	14	/* Length of interesting data in APP0 */
 715:fltk-1.3.4-1/jpeg/jdmarker.c **** #define APP14_DATA_LEN	12	/* Length of interesting data in APP14 */
 716:fltk-1.3.4-1/jpeg/jdmarker.c **** #define APPN_DATA_LEN	14	/* Must be the largest of the above!! */
 717:fltk-1.3.4-1/jpeg/jdmarker.c **** 
 718:fltk-1.3.4-1/jpeg/jdmarker.c **** 
 719:fltk-1.3.4-1/jpeg/jdmarker.c **** LOCAL(void)
 720:fltk-1.3.4-1/jpeg/jdmarker.c **** examine_app0 (j_decompress_ptr cinfo, JOCTET FAR * data,
 721:fltk-1.3.4-1/jpeg/jdmarker.c **** 	      unsigned int datalen, INT32 remaining)
 722:fltk-1.3.4-1/jpeg/jdmarker.c **** /* Examine first few bytes from an APP0.
 723:fltk-1.3.4-1/jpeg/jdmarker.c ****  * Take appropriate action if it is a JFIF marker.
 724:fltk-1.3.4-1/jpeg/jdmarker.c ****  * datalen is # of bytes at data[], remaining is length of rest of marker data.
 725:fltk-1.3.4-1/jpeg/jdmarker.c ****  */
 726:fltk-1.3.4-1/jpeg/jdmarker.c **** {
 708              		.loc 1 726 0
 709              		.cfi_startproc
 710              	.LVL127:
 727:fltk-1.3.4-1/jpeg/jdmarker.c ****   INT32 totallen = (INT32) datalen + remaining;
 711              		.loc 1 727 0
 712 0000 89D0     		movl	%edx, %eax
 728:fltk-1.3.4-1/jpeg/jdmarker.c **** 
 729:fltk-1.3.4-1/jpeg/jdmarker.c ****   if (datalen >= APP0_DATA_LEN &&
 713              		.loc 1 729 0
 714 0002 83FA0D   		cmpl	$13, %edx
 726:fltk-1.3.4-1/jpeg/jdmarker.c ****   INT32 totallen = (INT32) datalen + remaining;
 715              		.loc 1 726 0
 716 0005 4154     		pushq	%r12
 717              		.cfi_def_cfa_offset 16
 718              		.cfi_offset 12, -16
 727:fltk-1.3.4-1/jpeg/jdmarker.c ****   INT32 totallen = (INT32) datalen + remaining;
 719              		.loc 1 727 0
 720 0007 4C8D2408 		leaq	(%rax,%rcx), %r12
 721              	.LVL128:
 726:fltk-1.3.4-1/jpeg/jdmarker.c ****   INT32 totallen = (INT32) datalen + remaining;
 722              		.loc 1 726 0
 723 000b 55       		pushq	%rbp
 724              		.cfi_def_cfa_offset 24
 725              		.cfi_offset 6, -24
 726 000c 53       		pushq	%rbx
 727              		.cfi_def_cfa_offset 32
 728              		.cfi_offset 3, -32
 729              		.loc 1 729 0
 730 000d 7631     		jbe	.L91
 731              		.loc 1 729 0 is_stmt 0 discriminator 1
 732 000f 803E4A   		cmpb	$74, (%rsi)
 733 0012 0F848800 		je	.L107
 733      0000
 734              	.L92:
 730:fltk-1.3.4-1/jpeg/jdmarker.c ****       GETJOCTET(data[0]) == 0x4A &&
 731:fltk-1.3.4-1/jpeg/jdmarker.c ****       GETJOCTET(data[1]) == 0x46 &&
 732:fltk-1.3.4-1/jpeg/jdmarker.c ****       GETJOCTET(data[2]) == 0x49 &&
 733:fltk-1.3.4-1/jpeg/jdmarker.c ****       GETJOCTET(data[3]) == 0x46 &&
 734:fltk-1.3.4-1/jpeg/jdmarker.c ****       GETJOCTET(data[4]) == 0) {
 735:fltk-1.3.4-1/jpeg/jdmarker.c ****     /* Found JFIF APP0 marker: save info */
 736:fltk-1.3.4-1/jpeg/jdmarker.c ****     cinfo->saw_JFIF_marker = TRUE;
 737:fltk-1.3.4-1/jpeg/jdmarker.c ****     cinfo->JFIF_major_version = GETJOCTET(data[5]);
 738:fltk-1.3.4-1/jpeg/jdmarker.c ****     cinfo->JFIF_minor_version = GETJOCTET(data[6]);
 739:fltk-1.3.4-1/jpeg/jdmarker.c ****     cinfo->density_unit = GETJOCTET(data[7]);
 740:fltk-1.3.4-1/jpeg/jdmarker.c ****     cinfo->X_density = (GETJOCTET(data[8]) << 8) + GETJOCTET(data[9]);
 741:fltk-1.3.4-1/jpeg/jdmarker.c ****     cinfo->Y_density = (GETJOCTET(data[10]) << 8) + GETJOCTET(data[11]);
 742:fltk-1.3.4-1/jpeg/jdmarker.c ****     /* Check version.
 743:fltk-1.3.4-1/jpeg/jdmarker.c ****      * Major version must be 1 or 2, anything else signals an incompatible
 744:fltk-1.3.4-1/jpeg/jdmarker.c ****      * change.
 745:fltk-1.3.4-1/jpeg/jdmarker.c ****      * (We used to treat this as an error, but now it's a nonfatal warning,
 746:fltk-1.3.4-1/jpeg/jdmarker.c ****      * because some bozo at Hijaak couldn't read the spec.)
 747:fltk-1.3.4-1/jpeg/jdmarker.c ****      * Minor version should be 0..2, but process anyway if newer.
 748:fltk-1.3.4-1/jpeg/jdmarker.c ****      */
 749:fltk-1.3.4-1/jpeg/jdmarker.c ****     if (cinfo->JFIF_major_version != 1 && cinfo->JFIF_major_version != 2)
 750:fltk-1.3.4-1/jpeg/jdmarker.c ****       WARNMS2(cinfo, JWRN_JFIF_MAJOR,
 751:fltk-1.3.4-1/jpeg/jdmarker.c **** 	      cinfo->JFIF_major_version, cinfo->JFIF_minor_version);
 752:fltk-1.3.4-1/jpeg/jdmarker.c ****     /* Generate trace messages */
 753:fltk-1.3.4-1/jpeg/jdmarker.c ****     TRACEMS5(cinfo, 1, JTRC_JFIF,
 754:fltk-1.3.4-1/jpeg/jdmarker.c **** 	     cinfo->JFIF_major_version, cinfo->JFIF_minor_version,
 755:fltk-1.3.4-1/jpeg/jdmarker.c **** 	     cinfo->X_density, cinfo->Y_density, cinfo->density_unit);
 756:fltk-1.3.4-1/jpeg/jdmarker.c ****     /* Validate thumbnail dimensions and issue appropriate messages */
 757:fltk-1.3.4-1/jpeg/jdmarker.c ****     if (GETJOCTET(data[12]) | GETJOCTET(data[13]))
 758:fltk-1.3.4-1/jpeg/jdmarker.c ****       TRACEMS2(cinfo, 1, JTRC_JFIF_THUMBNAIL,
 759:fltk-1.3.4-1/jpeg/jdmarker.c **** 	       GETJOCTET(data[12]), GETJOCTET(data[13]));
 760:fltk-1.3.4-1/jpeg/jdmarker.c ****     totallen -= APP0_DATA_LEN;
 761:fltk-1.3.4-1/jpeg/jdmarker.c ****     if (totallen !=
 762:fltk-1.3.4-1/jpeg/jdmarker.c **** 	((INT32)GETJOCTET(data[12]) * (INT32)GETJOCTET(data[13]) * (INT32) 3))
 763:fltk-1.3.4-1/jpeg/jdmarker.c ****       TRACEMS1(cinfo, 1, JTRC_JFIF_BADTHUMBNAILSIZE, (int) totallen);
 764:fltk-1.3.4-1/jpeg/jdmarker.c ****   } else if (datalen >= 6 &&
 765:fltk-1.3.4-1/jpeg/jdmarker.c ****       GETJOCTET(data[0]) == 0x4A &&
 766:fltk-1.3.4-1/jpeg/jdmarker.c ****       GETJOCTET(data[1]) == 0x46 &&
 767:fltk-1.3.4-1/jpeg/jdmarker.c ****       GETJOCTET(data[2]) == 0x58 &&
 768:fltk-1.3.4-1/jpeg/jdmarker.c ****       GETJOCTET(data[3]) == 0x58 &&
 769:fltk-1.3.4-1/jpeg/jdmarker.c ****       GETJOCTET(data[4]) == 0) {
 770:fltk-1.3.4-1/jpeg/jdmarker.c ****     /* Found JFIF "JFXX" extension APP0 marker */
 771:fltk-1.3.4-1/jpeg/jdmarker.c ****     /* The library doesn't actually do anything with these,
 772:fltk-1.3.4-1/jpeg/jdmarker.c ****      * but we try to produce a helpful trace message.
 773:fltk-1.3.4-1/jpeg/jdmarker.c ****      */
 774:fltk-1.3.4-1/jpeg/jdmarker.c ****     switch (GETJOCTET(data[5])) {
 775:fltk-1.3.4-1/jpeg/jdmarker.c ****     case 0x10:
 776:fltk-1.3.4-1/jpeg/jdmarker.c ****       TRACEMS1(cinfo, 1, JTRC_THUMB_JPEG, (int) totallen);
 777:fltk-1.3.4-1/jpeg/jdmarker.c ****       break;
 778:fltk-1.3.4-1/jpeg/jdmarker.c ****     case 0x11:
 779:fltk-1.3.4-1/jpeg/jdmarker.c ****       TRACEMS1(cinfo, 1, JTRC_THUMB_PALETTE, (int) totallen);
 780:fltk-1.3.4-1/jpeg/jdmarker.c ****       break;
 781:fltk-1.3.4-1/jpeg/jdmarker.c ****     case 0x13:
 782:fltk-1.3.4-1/jpeg/jdmarker.c ****       TRACEMS1(cinfo, 1, JTRC_THUMB_RGB, (int) totallen);
 783:fltk-1.3.4-1/jpeg/jdmarker.c ****       break;
 784:fltk-1.3.4-1/jpeg/jdmarker.c ****     default:
 785:fltk-1.3.4-1/jpeg/jdmarker.c ****       TRACEMS2(cinfo, 1, JTRC_JFIF_EXTENSION,
 786:fltk-1.3.4-1/jpeg/jdmarker.c **** 	       GETJOCTET(data[5]), (int) totallen);
 787:fltk-1.3.4-1/jpeg/jdmarker.c ****       break;
 788:fltk-1.3.4-1/jpeg/jdmarker.c ****     }
 789:fltk-1.3.4-1/jpeg/jdmarker.c ****   } else {
 790:fltk-1.3.4-1/jpeg/jdmarker.c ****     /* Start of APP0 does not match "JFIF" or "JFXX", or too short */
 791:fltk-1.3.4-1/jpeg/jdmarker.c ****     TRACEMS1(cinfo, 1, JTRC_APP0, (int) totallen);
 735              		.loc 1 791 0 is_stmt 1
 736 0018 488B07   		movq	(%rdi), %rax
 737 001b C740284F 		movl	$79, 40(%rax)
 737      000000
 738              	.L105:
 739 0022 488B07   		movq	(%rdi), %rax
 740 0025 4489602C 		movl	%r12d, 44(%rax)
 741              	.LVL129:
 742              	.L106:
 743 0029 488B07   		movq	(%rdi), %rax
 744 002c BE010000 		movl	$1, %esi
 744      00
 745              	.LVL130:
 792:fltk-1.3.4-1/jpeg/jdmarker.c ****   }
 793:fltk-1.3.4-1/jpeg/jdmarker.c **** }
 746              		.loc 1 793 0
 747 0031 5B       		popq	%rbx
 748              		.cfi_remember_state
 749              		.cfi_def_cfa_offset 24
 750 0032 5D       		popq	%rbp
 751              		.cfi_def_cfa_offset 16
 752 0033 415C     		popq	%r12
 753              		.cfi_def_cfa_offset 8
 754              	.LVL131:
 791:fltk-1.3.4-1/jpeg/jdmarker.c ****   }
 755              		.loc 1 791 0
 756 0035 488B4008 		movq	8(%rax), %rax
 757 0039 FFE0     		jmp	*%rax
 758              	.LVL132:
 759 003b 0F1F4400 		.p2align 4,,10
 759      00
 760              		.p2align 3
 761              	.L91:
 762              		.cfi_restore_state
 764:fltk-1.3.4-1/jpeg/jdmarker.c ****       GETJOCTET(data[0]) == 0x4A &&
 763              		.loc 1 764 0
 764 0040 83FA05   		cmpl	$5, %edx
 765 0043 76D3     		jbe	.L92
 764:fltk-1.3.4-1/jpeg/jdmarker.c ****       GETJOCTET(data[0]) == 0x4A &&
 766              		.loc 1 764 0 is_stmt 0 discriminator 1
 767 0045 803E4A   		cmpb	$74, (%rsi)
 768 0048 75CE     		jne	.L92
 765:fltk-1.3.4-1/jpeg/jdmarker.c ****       GETJOCTET(data[1]) == 0x46 &&
 769              		.loc 1 765 0 is_stmt 1
 770 004a 807E0146 		cmpb	$70, 1(%rsi)
 771 004e 75C8     		jne	.L92
 772              	.L93:
 766:fltk-1.3.4-1/jpeg/jdmarker.c ****       GETJOCTET(data[2]) == 0x58 &&
 773              		.loc 1 766 0
 774 0050 807E0258 		cmpb	$88, 2(%rsi)
 775 0054 75C2     		jne	.L92
 767:fltk-1.3.4-1/jpeg/jdmarker.c ****       GETJOCTET(data[3]) == 0x58 &&
 776              		.loc 1 767 0
 777 0056 807E0358 		cmpb	$88, 3(%rsi)
 778 005a 75BC     		jne	.L92
 768:fltk-1.3.4-1/jpeg/jdmarker.c ****       GETJOCTET(data[4]) == 0) {
 779              		.loc 1 768 0
 780 005c 807E0400 		cmpb	$0, 4(%rsi)
 781 0060 75B6     		jne	.L92
 774:fltk-1.3.4-1/jpeg/jdmarker.c ****     case 0x10:
 782              		.loc 1 774 0
 783 0062 0FB64605 		movzbl	5(%rsi), %eax
 784 0066 3C11     		cmpb	$17, %al
 785 0068 0F848E01 		je	.L98
 785      0000
 786 006e 3C13     		cmpb	$19, %al
 787 0070 0F847701 		je	.L99
 787      0000
 788 0076 3C10     		cmpb	$16, %al
 776:fltk-1.3.4-1/jpeg/jdmarker.c ****       break;
 789              		.loc 1 776 0
 790 0078 488B07   		movq	(%rdi), %rax
 774:fltk-1.3.4-1/jpeg/jdmarker.c ****     case 0x10:
 791              		.loc 1 774 0
 792 007b 0F846001 		je	.L108
 792      0000
 785:fltk-1.3.4-1/jpeg/jdmarker.c **** 	       GETJOCTET(data[5]), (int) totallen);
 793              		.loc 1 785 0
 794 0081 C740285B 		movl	$91, 40(%rax)
 794      000000
 795 0088 0FB65605 		movzbl	5(%rsi), %edx
 796              	.LVL133:
 797 008c 488B07   		movq	(%rdi), %rax
 798 008f 89502C   		movl	%edx, 44(%rax)
 799 0092 488B07   		movq	(%rdi), %rax
 800 0095 44896030 		movl	%r12d, 48(%rax)
 801 0099 EB8E     		jmp	.L106
 802              	.LVL134:
 803 009b 0F1F4400 		.p2align 4,,10
 803      00
 804              		.p2align 3
 805              	.L107:
 730:fltk-1.3.4-1/jpeg/jdmarker.c ****       GETJOCTET(data[1]) == 0x46 &&
 806              		.loc 1 730 0
 807 00a0 807E0146 		cmpb	$70, 1(%rsi)
 808 00a4 0F856EFF 		jne	.L92
 808      FFFF
 731:fltk-1.3.4-1/jpeg/jdmarker.c ****       GETJOCTET(data[2]) == 0x49 &&
 809              		.loc 1 731 0
 810 00aa 807E0249 		cmpb	$73, 2(%rsi)
 811 00ae 75A0     		jne	.L93
 732:fltk-1.3.4-1/jpeg/jdmarker.c ****       GETJOCTET(data[3]) == 0x46 &&
 812              		.loc 1 732 0
 813 00b0 807E0346 		cmpb	$70, 3(%rsi)
 814 00b4 759A     		jne	.L93
 733:fltk-1.3.4-1/jpeg/jdmarker.c ****       GETJOCTET(data[4]) == 0) {
 815              		.loc 1 733 0
 816 00b6 807E0400 		cmpb	$0, 4(%rsi)
 817 00ba 7594     		jne	.L93
 736:fltk-1.3.4-1/jpeg/jdmarker.c ****     cinfo->JFIF_major_version = GETJOCTET(data[5]);
 818              		.loc 1 736 0
 819 00bc C7877801 		movl	$1, 376(%rdi)
 819      00000100 
 819      0000
 737:fltk-1.3.4-1/jpeg/jdmarker.c ****     cinfo->JFIF_minor_version = GETJOCTET(data[6]);
 820              		.loc 1 737 0
 821 00c6 0FB64605 		movzbl	5(%rsi), %eax
 822 00ca 4889F5   		movq	%rsi, %rbp
 823 00cd 4889FB   		movq	%rdi, %rbx
 824 00d0 88877C01 		movb	%al, 380(%rdi)
 824      0000
 738:fltk-1.3.4-1/jpeg/jdmarker.c ****     cinfo->density_unit = GETJOCTET(data[7]);
 825              		.loc 1 738 0
 826 00d6 0FB65606 		movzbl	6(%rsi), %edx
 827              	.LVL135:
 749:fltk-1.3.4-1/jpeg/jdmarker.c ****       WARNMS2(cinfo, JWRN_JFIF_MAJOR,
 828              		.loc 1 749 0
 829 00da 83E801   		subl	$1, %eax
 738:fltk-1.3.4-1/jpeg/jdmarker.c ****     cinfo->density_unit = GETJOCTET(data[7]);
 830              		.loc 1 738 0
 831 00dd 88977D01 		movb	%dl, 381(%rdi)
 831      0000
 739:fltk-1.3.4-1/jpeg/jdmarker.c ****     cinfo->X_density = (GETJOCTET(data[8]) << 8) + GETJOCTET(data[9]);
 832              		.loc 1 739 0
 833 00e3 0FB65607 		movzbl	7(%rsi), %edx
 834 00e7 88977E01 		movb	%dl, 382(%rdi)
 834      0000
 740:fltk-1.3.4-1/jpeg/jdmarker.c ****     cinfo->Y_density = (GETJOCTET(data[10]) << 8) + GETJOCTET(data[11]);
 835              		.loc 1 740 0
 836 00ed 0FB65608 		movzbl	8(%rsi), %edx
 837 00f1 89D6     		movl	%edx, %esi
 838              	.LVL136:
 839 00f3 0FB65509 		movzbl	9(%rbp), %edx
 840 00f7 C1E608   		sall	$8, %esi
 841 00fa 01F2     		addl	%esi, %edx
 842 00fc 66899780 		movw	%dx, 384(%rdi)
 842      010000
 741:fltk-1.3.4-1/jpeg/jdmarker.c ****     /* Check version.
 843              		.loc 1 741 0
 844 0103 0FB6550A 		movzbl	10(%rbp), %edx
 845 0107 89D6     		movl	%edx, %esi
 846 0109 0FB6550B 		movzbl	11(%rbp), %edx
 847 010d C1E608   		sall	$8, %esi
 848 0110 01F2     		addl	%esi, %edx
 749:fltk-1.3.4-1/jpeg/jdmarker.c ****       WARNMS2(cinfo, JWRN_JFIF_MAJOR,
 849              		.loc 1 749 0
 850 0112 3C01     		cmpb	$1, %al
 741:fltk-1.3.4-1/jpeg/jdmarker.c ****     /* Check version.
 851              		.loc 1 741 0
 852 0114 66899782 		movw	%dx, 386(%rdi)
 852      010000
 749:fltk-1.3.4-1/jpeg/jdmarker.c ****       WARNMS2(cinfo, JWRN_JFIF_MAJOR,
 853              		.loc 1 749 0
 854 011b 762D     		jbe	.L94
 855              	.LVL137:
 750:fltk-1.3.4-1/jpeg/jdmarker.c **** 	      cinfo->JFIF_major_version, cinfo->JFIF_minor_version);
 856              		.loc 1 750 0
 857 011d 488B07   		movq	(%rdi), %rax
 858 0120 83CEFF   		orl	$-1, %esi
 859 0123 C740287A 		movl	$122, 40(%rax)
 859      000000
 860 012a 0FB6977C 		movzbl	380(%rdi), %edx
 860      010000
 861 0131 488B07   		movq	(%rdi), %rax
 862 0134 89502C   		movl	%edx, 44(%rax)
 863 0137 0FB6977D 		movzbl	381(%rdi), %edx
 863      010000
 864 013e 488B07   		movq	(%rdi), %rax
 865 0141 895030   		movl	%edx, 48(%rax)
 866 0144 488B07   		movq	(%rdi), %rax
 867 0147 FF5008   		call	*8(%rax)
 868              	.LVL138:
 869              	.L94:
 870              	.LBB26:
 753:fltk-1.3.4-1/jpeg/jdmarker.c **** 	     cinfo->JFIF_major_version, cinfo->JFIF_minor_version,
 871              		.loc 1 753 0
 872 014a 0FB6937C 		movzbl	380(%rbx), %edx
 872      010000
 873 0151 488B03   		movq	(%rbx), %rax
 874              	.LVL139:
 875 0154 BE010000 		movl	$1, %esi
 875      00
 876 0159 4889DF   		movq	%rbx, %rdi
 877 015c 89502C   		movl	%edx, 44(%rax)
 878 015f 0FB6937D 		movzbl	381(%rbx), %edx
 878      010000
 879 0166 895030   		movl	%edx, 48(%rax)
 880 0169 0FB79380 		movzwl	384(%rbx), %edx
 880      010000
 881 0170 895034   		movl	%edx, 52(%rax)
 882 0173 0FB79382 		movzwl	386(%rbx), %edx
 882      010000
 883 017a 895038   		movl	%edx, 56(%rax)
 884 017d 0FB6937E 		movzbl	382(%rbx), %edx
 884      010000
 885 0184 89503C   		movl	%edx, 60(%rax)
 886 0187 488B03   		movq	(%rbx), %rax
 887              	.LVL140:
 888 018a C7402859 		movl	$89, 40(%rax)
 888      000000
 889 0191 488B03   		movq	(%rbx), %rax
 890 0194 FF5008   		call	*8(%rax)
 891              	.LVL141:
 892              	.LBE26:
 757:fltk-1.3.4-1/jpeg/jdmarker.c ****       TRACEMS2(cinfo, 1, JTRC_JFIF_THUMBNAIL,
 893              		.loc 1 757 0
 894 0197 0FB6550C 		movzbl	12(%rbp), %edx
 895 019b 31C0     		xorl	%eax, %eax
 896 019d 0A550D   		orb	13(%rbp), %dl
 897 01a0 7569     		jne	.L109
 898              	.L95:
 761:fltk-1.3.4-1/jpeg/jdmarker.c **** 	((INT32)GETJOCTET(data[12]) * (INT32)GETJOCTET(data[13]) * (INT32) 3))
 899              		.loc 1 761 0
 900 01a2 0FB6D2   		movzbl	%dl, %edx
 760:fltk-1.3.4-1/jpeg/jdmarker.c ****     if (totallen !=
 901              		.loc 1 760 0
 902 01a5 498D4C24 		leaq	-14(%r12), %rcx
 902      F2
 903              	.LVL142:
 761:fltk-1.3.4-1/jpeg/jdmarker.c **** 	((INT32)GETJOCTET(data[12]) * (INT32)GETJOCTET(data[13]) * (INT32) 3))
 904              		.loc 1 761 0
 905 01aa 480FAFC2 		imulq	%rdx, %rax
 906 01ae 488D0440 		leaq	(%rax,%rax,2), %rax
 907 01b2 4839C1   		cmpq	%rax, %rcx
 908 01b5 7425     		je	.L90
 763:fltk-1.3.4-1/jpeg/jdmarker.c ****   } else if (datalen >= 6 &&
 909              		.loc 1 763 0
 910 01b7 488B03   		movq	(%rbx), %rax
 911 01ba 4889DF   		movq	%rbx, %rdi
 912 01bd BE010000 		movl	$1, %esi
 912      00
 913 01c2 C740285A 		movl	$90, 40(%rax)
 913      000000
 914 01c9 488B03   		movq	(%rbx), %rax
 915 01cc 89482C   		movl	%ecx, 44(%rax)
 916 01cf 488B03   		movq	(%rbx), %rax
 917              		.loc 1 793 0
 918 01d2 5B       		popq	%rbx
 919              		.cfi_remember_state
 920              		.cfi_def_cfa_offset 24
 921              	.LVL143:
 922 01d3 5D       		popq	%rbp
 923              		.cfi_def_cfa_offset 16
 924              	.LVL144:
 925 01d4 415C     		popq	%r12
 926              		.cfi_def_cfa_offset 8
 763:fltk-1.3.4-1/jpeg/jdmarker.c ****   } else if (datalen >= 6 &&
 927              		.loc 1 763 0
 928 01d6 488B4008 		movq	8(%rax), %rax
 929 01da FFE0     		jmp	*%rax
 930              	.LVL145:
 931              	.L90:
 932              		.cfi_restore_state
 933              		.loc 1 793 0
 934 01dc 5B       		popq	%rbx
 935              		.cfi_remember_state
 936              		.cfi_def_cfa_offset 24
 937              	.LVL146:
 938 01dd 5D       		popq	%rbp
 939              		.cfi_def_cfa_offset 16
 940              	.LVL147:
 941 01de 415C     		popq	%r12
 942              		.cfi_def_cfa_offset 8
 943 01e0 C3       		ret
 944              	.LVL148:
 945              	.L108:
 946              		.cfi_restore_state
 776:fltk-1.3.4-1/jpeg/jdmarker.c ****       break;
 947              		.loc 1 776 0
 948 01e1 C740286E 		movl	$110, 40(%rax)
 948      000000
 949 01e8 E935FEFF 		jmp	.L105
 949      FF
 950              	.L99:
 782:fltk-1.3.4-1/jpeg/jdmarker.c ****       break;
 951              		.loc 1 782 0
 952 01ed 488B07   		movq	(%rdi), %rax
 953 01f0 C7402870 		movl	$112, 40(%rax)
 953      000000
 954 01f7 E926FEFF 		jmp	.L105
 954      FF
 955              	.L98:
 779:fltk-1.3.4-1/jpeg/jdmarker.c ****       break;
 956              		.loc 1 779 0
 957 01fc 488B07   		movq	(%rdi), %rax
 958 01ff C740286F 		movl	$111, 40(%rax)
 958      000000
 959 0206 E917FEFF 		jmp	.L105
 959      FF
 960              	.LVL149:
 961              	.L109:
 758:fltk-1.3.4-1/jpeg/jdmarker.c **** 	       GETJOCTET(data[12]), GETJOCTET(data[13]));
 962              		.loc 1 758 0
 963 020b 488B03   		movq	(%rbx), %rax
 964 020e BE010000 		movl	$1, %esi
 964      00
 965 0213 4889DF   		movq	%rbx, %rdi
 966 0216 C740285C 		movl	$92, 40(%rax)
 966      000000
 967 021d 0FB6550C 		movzbl	12(%rbp), %edx
 968 0221 488B03   		movq	(%rbx), %rax
 969 0224 89502C   		movl	%edx, 44(%rax)
 970 0227 0FB6550D 		movzbl	13(%rbp), %edx
 971 022b 488B03   		movq	(%rbx), %rax
 972 022e 895030   		movl	%edx, 48(%rax)
 973 0231 488B03   		movq	(%rbx), %rax
 974 0234 FF5008   		call	*8(%rax)
 975              	.LVL150:
 976 0237 0FB6450C 		movzbl	12(%rbp), %eax
 977 023b 0FB6550D 		movzbl	13(%rbp), %edx
 978 023f E95EFFFF 		jmp	.L95
 978      FF
 979              		.cfi_endproc
 980              	.LFE69:
 982              		.section	.text.unlikely.examine_app0
 983              	.LCOLDE1:
 984              		.section	.text.examine_app0
 985              	.LHOTE1:
 986              		.section	.text.unlikely.skip_variable,"ax",@progbits
 987              	.LCOLDB2:
 988              		.section	.text.skip_variable,"ax",@progbits
 989              	.LHOTB2:
 990              		.p2align 4,,15
 992              	skip_variable:
 993              	.LFB73:
 794:fltk-1.3.4-1/jpeg/jdmarker.c **** 
 795:fltk-1.3.4-1/jpeg/jdmarker.c **** 
 796:fltk-1.3.4-1/jpeg/jdmarker.c **** LOCAL(void)
 797:fltk-1.3.4-1/jpeg/jdmarker.c **** examine_app14 (j_decompress_ptr cinfo, JOCTET FAR * data,
 798:fltk-1.3.4-1/jpeg/jdmarker.c **** 	       unsigned int datalen, INT32 remaining)
 799:fltk-1.3.4-1/jpeg/jdmarker.c **** /* Examine first few bytes from an APP14.
 800:fltk-1.3.4-1/jpeg/jdmarker.c ****  * Take appropriate action if it is an Adobe marker.
 801:fltk-1.3.4-1/jpeg/jdmarker.c ****  * datalen is # of bytes at data[], remaining is length of rest of marker data.
 802:fltk-1.3.4-1/jpeg/jdmarker.c ****  */
 803:fltk-1.3.4-1/jpeg/jdmarker.c **** {
 804:fltk-1.3.4-1/jpeg/jdmarker.c ****   unsigned int version, flags0, flags1, transform;
 805:fltk-1.3.4-1/jpeg/jdmarker.c **** 
 806:fltk-1.3.4-1/jpeg/jdmarker.c ****   if (datalen >= APP14_DATA_LEN &&
 807:fltk-1.3.4-1/jpeg/jdmarker.c ****       GETJOCTET(data[0]) == 0x41 &&
 808:fltk-1.3.4-1/jpeg/jdmarker.c ****       GETJOCTET(data[1]) == 0x64 &&
 809:fltk-1.3.4-1/jpeg/jdmarker.c ****       GETJOCTET(data[2]) == 0x6F &&
 810:fltk-1.3.4-1/jpeg/jdmarker.c ****       GETJOCTET(data[3]) == 0x62 &&
 811:fltk-1.3.4-1/jpeg/jdmarker.c ****       GETJOCTET(data[4]) == 0x65) {
 812:fltk-1.3.4-1/jpeg/jdmarker.c ****     /* Found Adobe APP14 marker */
 813:fltk-1.3.4-1/jpeg/jdmarker.c ****     version = (GETJOCTET(data[5]) << 8) + GETJOCTET(data[6]);
 814:fltk-1.3.4-1/jpeg/jdmarker.c ****     flags0 = (GETJOCTET(data[7]) << 8) + GETJOCTET(data[8]);
 815:fltk-1.3.4-1/jpeg/jdmarker.c ****     flags1 = (GETJOCTET(data[9]) << 8) + GETJOCTET(data[10]);
 816:fltk-1.3.4-1/jpeg/jdmarker.c ****     transform = GETJOCTET(data[11]);
 817:fltk-1.3.4-1/jpeg/jdmarker.c ****     TRACEMS4(cinfo, 1, JTRC_ADOBE, version, flags0, flags1, transform);
 818:fltk-1.3.4-1/jpeg/jdmarker.c ****     cinfo->saw_Adobe_marker = TRUE;
 819:fltk-1.3.4-1/jpeg/jdmarker.c ****     cinfo->Adobe_transform = (UINT8) transform;
 820:fltk-1.3.4-1/jpeg/jdmarker.c ****   } else {
 821:fltk-1.3.4-1/jpeg/jdmarker.c ****     /* Start of APP14 does not match "Adobe", or too short */
 822:fltk-1.3.4-1/jpeg/jdmarker.c ****     TRACEMS1(cinfo, 1, JTRC_APP14, (int) (datalen + remaining));
 823:fltk-1.3.4-1/jpeg/jdmarker.c ****   }
 824:fltk-1.3.4-1/jpeg/jdmarker.c **** }
 825:fltk-1.3.4-1/jpeg/jdmarker.c **** 
 826:fltk-1.3.4-1/jpeg/jdmarker.c **** 
 827:fltk-1.3.4-1/jpeg/jdmarker.c **** METHODDEF(boolean)
 828:fltk-1.3.4-1/jpeg/jdmarker.c **** get_interesting_appn (j_decompress_ptr cinfo)
 829:fltk-1.3.4-1/jpeg/jdmarker.c **** /* Process an APP0 or APP14 marker without saving it */
 830:fltk-1.3.4-1/jpeg/jdmarker.c **** {
 831:fltk-1.3.4-1/jpeg/jdmarker.c ****   INT32 length;
 832:fltk-1.3.4-1/jpeg/jdmarker.c ****   JOCTET b[APPN_DATA_LEN];
 833:fltk-1.3.4-1/jpeg/jdmarker.c ****   unsigned int i, numtoread;
 834:fltk-1.3.4-1/jpeg/jdmarker.c ****   INPUT_VARS(cinfo);
 835:fltk-1.3.4-1/jpeg/jdmarker.c **** 
 836:fltk-1.3.4-1/jpeg/jdmarker.c ****   INPUT_2BYTES(cinfo, length, return FALSE);
 837:fltk-1.3.4-1/jpeg/jdmarker.c ****   length -= 2;
 838:fltk-1.3.4-1/jpeg/jdmarker.c **** 
 839:fltk-1.3.4-1/jpeg/jdmarker.c ****   /* get the interesting part of the marker data */
 840:fltk-1.3.4-1/jpeg/jdmarker.c ****   if (length >= APPN_DATA_LEN)
 841:fltk-1.3.4-1/jpeg/jdmarker.c ****     numtoread = APPN_DATA_LEN;
 842:fltk-1.3.4-1/jpeg/jdmarker.c ****   else if (length > 0)
 843:fltk-1.3.4-1/jpeg/jdmarker.c ****     numtoread = (unsigned int) length;
 844:fltk-1.3.4-1/jpeg/jdmarker.c ****   else
 845:fltk-1.3.4-1/jpeg/jdmarker.c ****     numtoread = 0;
 846:fltk-1.3.4-1/jpeg/jdmarker.c ****   for (i = 0; i < numtoread; i++)
 847:fltk-1.3.4-1/jpeg/jdmarker.c ****     INPUT_BYTE(cinfo, b[i], return FALSE);
 848:fltk-1.3.4-1/jpeg/jdmarker.c ****   length -= numtoread;
 849:fltk-1.3.4-1/jpeg/jdmarker.c **** 
 850:fltk-1.3.4-1/jpeg/jdmarker.c ****   /* process it */
 851:fltk-1.3.4-1/jpeg/jdmarker.c ****   switch (cinfo->unread_marker) {
 852:fltk-1.3.4-1/jpeg/jdmarker.c ****   case M_APP0:
 853:fltk-1.3.4-1/jpeg/jdmarker.c ****     examine_app0(cinfo, (JOCTET FAR *) b, numtoread, length);
 854:fltk-1.3.4-1/jpeg/jdmarker.c ****     break;
 855:fltk-1.3.4-1/jpeg/jdmarker.c ****   case M_APP14:
 856:fltk-1.3.4-1/jpeg/jdmarker.c ****     examine_app14(cinfo, (JOCTET FAR *) b, numtoread, length);
 857:fltk-1.3.4-1/jpeg/jdmarker.c ****     break;
 858:fltk-1.3.4-1/jpeg/jdmarker.c ****   default:
 859:fltk-1.3.4-1/jpeg/jdmarker.c ****     /* can't get here unless jpeg_save_markers chooses wrong processor */
 860:fltk-1.3.4-1/jpeg/jdmarker.c ****     ERREXIT1(cinfo, JERR_UNKNOWN_MARKER, cinfo->unread_marker);
 861:fltk-1.3.4-1/jpeg/jdmarker.c ****     break;
 862:fltk-1.3.4-1/jpeg/jdmarker.c ****   }
 863:fltk-1.3.4-1/jpeg/jdmarker.c **** 
 864:fltk-1.3.4-1/jpeg/jdmarker.c ****   /* skip any remaining data -- could be lots */
 865:fltk-1.3.4-1/jpeg/jdmarker.c ****   INPUT_SYNC(cinfo);
 866:fltk-1.3.4-1/jpeg/jdmarker.c ****   if (length > 0)
 867:fltk-1.3.4-1/jpeg/jdmarker.c ****     (*cinfo->src->skip_input_data) (cinfo, (long) length);
 868:fltk-1.3.4-1/jpeg/jdmarker.c **** 
 869:fltk-1.3.4-1/jpeg/jdmarker.c ****   return TRUE;
 870:fltk-1.3.4-1/jpeg/jdmarker.c **** }
 871:fltk-1.3.4-1/jpeg/jdmarker.c **** 
 872:fltk-1.3.4-1/jpeg/jdmarker.c **** 
 873:fltk-1.3.4-1/jpeg/jdmarker.c **** #ifdef SAVE_MARKERS_SUPPORTED
 874:fltk-1.3.4-1/jpeg/jdmarker.c **** 
 875:fltk-1.3.4-1/jpeg/jdmarker.c **** METHODDEF(boolean)
 876:fltk-1.3.4-1/jpeg/jdmarker.c **** save_marker (j_decompress_ptr cinfo)
 877:fltk-1.3.4-1/jpeg/jdmarker.c **** /* Save an APPn or COM marker into the marker list */
 878:fltk-1.3.4-1/jpeg/jdmarker.c **** {
 879:fltk-1.3.4-1/jpeg/jdmarker.c ****   my_marker_ptr marker = (my_marker_ptr) cinfo->marker;
 880:fltk-1.3.4-1/jpeg/jdmarker.c ****   jpeg_saved_marker_ptr cur_marker = marker->cur_marker;
 881:fltk-1.3.4-1/jpeg/jdmarker.c ****   unsigned int bytes_read, data_length;
 882:fltk-1.3.4-1/jpeg/jdmarker.c ****   JOCTET FAR * data;
 883:fltk-1.3.4-1/jpeg/jdmarker.c ****   INT32 length = 0;
 884:fltk-1.3.4-1/jpeg/jdmarker.c ****   INPUT_VARS(cinfo);
 885:fltk-1.3.4-1/jpeg/jdmarker.c **** 
 886:fltk-1.3.4-1/jpeg/jdmarker.c ****   if (cur_marker == NULL) {
 887:fltk-1.3.4-1/jpeg/jdmarker.c ****     /* begin reading a marker */
 888:fltk-1.3.4-1/jpeg/jdmarker.c ****     INPUT_2BYTES(cinfo, length, return FALSE);
 889:fltk-1.3.4-1/jpeg/jdmarker.c ****     length -= 2;
 890:fltk-1.3.4-1/jpeg/jdmarker.c ****     if (length >= 0) {		/* watch out for bogus length word */
 891:fltk-1.3.4-1/jpeg/jdmarker.c ****       /* figure out how much we want to save */
 892:fltk-1.3.4-1/jpeg/jdmarker.c ****       unsigned int limit;
 893:fltk-1.3.4-1/jpeg/jdmarker.c ****       if (cinfo->unread_marker == (int) M_COM)
 894:fltk-1.3.4-1/jpeg/jdmarker.c **** 	limit = marker->length_limit_COM;
 895:fltk-1.3.4-1/jpeg/jdmarker.c ****       else
 896:fltk-1.3.4-1/jpeg/jdmarker.c **** 	limit = marker->length_limit_APPn[cinfo->unread_marker - (int) M_APP0];
 897:fltk-1.3.4-1/jpeg/jdmarker.c ****       if ((unsigned int) length < limit)
 898:fltk-1.3.4-1/jpeg/jdmarker.c **** 	limit = (unsigned int) length;
 899:fltk-1.3.4-1/jpeg/jdmarker.c ****       /* allocate and initialize the marker item */
 900:fltk-1.3.4-1/jpeg/jdmarker.c ****       cur_marker = (jpeg_saved_marker_ptr)
 901:fltk-1.3.4-1/jpeg/jdmarker.c **** 	(*cinfo->mem->alloc_large) ((j_common_ptr) cinfo, JPOOL_IMAGE,
 902:fltk-1.3.4-1/jpeg/jdmarker.c **** 				    SIZEOF(struct jpeg_marker_struct) + limit);
 903:fltk-1.3.4-1/jpeg/jdmarker.c ****       cur_marker->next = NULL;
 904:fltk-1.3.4-1/jpeg/jdmarker.c ****       cur_marker->marker = (UINT8) cinfo->unread_marker;
 905:fltk-1.3.4-1/jpeg/jdmarker.c ****       cur_marker->original_length = (unsigned int) length;
 906:fltk-1.3.4-1/jpeg/jdmarker.c ****       cur_marker->data_length = limit;
 907:fltk-1.3.4-1/jpeg/jdmarker.c ****       /* data area is just beyond the jpeg_marker_struct */
 908:fltk-1.3.4-1/jpeg/jdmarker.c ****       data = cur_marker->data = (JOCTET FAR *) (cur_marker + 1);
 909:fltk-1.3.4-1/jpeg/jdmarker.c ****       marker->cur_marker = cur_marker;
 910:fltk-1.3.4-1/jpeg/jdmarker.c ****       marker->bytes_read = 0;
 911:fltk-1.3.4-1/jpeg/jdmarker.c ****       bytes_read = 0;
 912:fltk-1.3.4-1/jpeg/jdmarker.c ****       data_length = limit;
 913:fltk-1.3.4-1/jpeg/jdmarker.c ****     } else {
 914:fltk-1.3.4-1/jpeg/jdmarker.c ****       /* deal with bogus length word */
 915:fltk-1.3.4-1/jpeg/jdmarker.c ****       bytes_read = data_length = 0;
 916:fltk-1.3.4-1/jpeg/jdmarker.c ****       data = NULL;
 917:fltk-1.3.4-1/jpeg/jdmarker.c ****     }
 918:fltk-1.3.4-1/jpeg/jdmarker.c ****   } else {
 919:fltk-1.3.4-1/jpeg/jdmarker.c ****     /* resume reading a marker */
 920:fltk-1.3.4-1/jpeg/jdmarker.c ****     bytes_read = marker->bytes_read;
 921:fltk-1.3.4-1/jpeg/jdmarker.c ****     data_length = cur_marker->data_length;
 922:fltk-1.3.4-1/jpeg/jdmarker.c ****     data = cur_marker->data + bytes_read;
 923:fltk-1.3.4-1/jpeg/jdmarker.c ****   }
 924:fltk-1.3.4-1/jpeg/jdmarker.c **** 
 925:fltk-1.3.4-1/jpeg/jdmarker.c ****   while (bytes_read < data_length) {
 926:fltk-1.3.4-1/jpeg/jdmarker.c ****     INPUT_SYNC(cinfo);		/* move the restart point to here */
 927:fltk-1.3.4-1/jpeg/jdmarker.c ****     marker->bytes_read = bytes_read;
 928:fltk-1.3.4-1/jpeg/jdmarker.c ****     /* If there's not at least one byte in buffer, suspend */
 929:fltk-1.3.4-1/jpeg/jdmarker.c ****     MAKE_BYTE_AVAIL(cinfo, return FALSE);
 930:fltk-1.3.4-1/jpeg/jdmarker.c ****     /* Copy bytes with reasonable rapidity */
 931:fltk-1.3.4-1/jpeg/jdmarker.c ****     while (bytes_read < data_length && bytes_in_buffer > 0) {
 932:fltk-1.3.4-1/jpeg/jdmarker.c ****       *data++ = *next_input_byte++;
 933:fltk-1.3.4-1/jpeg/jdmarker.c ****       bytes_in_buffer--;
 934:fltk-1.3.4-1/jpeg/jdmarker.c ****       bytes_read++;
 935:fltk-1.3.4-1/jpeg/jdmarker.c ****     }
 936:fltk-1.3.4-1/jpeg/jdmarker.c ****   }
 937:fltk-1.3.4-1/jpeg/jdmarker.c **** 
 938:fltk-1.3.4-1/jpeg/jdmarker.c ****   /* Done reading what we want to read */
 939:fltk-1.3.4-1/jpeg/jdmarker.c ****   if (cur_marker != NULL) {	/* will be NULL if bogus length word */
 940:fltk-1.3.4-1/jpeg/jdmarker.c ****     /* Add new marker to end of list */
 941:fltk-1.3.4-1/jpeg/jdmarker.c ****     if (cinfo->marker_list == NULL) {
 942:fltk-1.3.4-1/jpeg/jdmarker.c ****       cinfo->marker_list = cur_marker;
 943:fltk-1.3.4-1/jpeg/jdmarker.c ****     } else {
 944:fltk-1.3.4-1/jpeg/jdmarker.c ****       jpeg_saved_marker_ptr prev = cinfo->marker_list;
 945:fltk-1.3.4-1/jpeg/jdmarker.c ****       while (prev->next != NULL)
 946:fltk-1.3.4-1/jpeg/jdmarker.c **** 	prev = prev->next;
 947:fltk-1.3.4-1/jpeg/jdmarker.c ****       prev->next = cur_marker;
 948:fltk-1.3.4-1/jpeg/jdmarker.c ****     }
 949:fltk-1.3.4-1/jpeg/jdmarker.c ****     /* Reset pointer & calc remaining data length */
 950:fltk-1.3.4-1/jpeg/jdmarker.c ****     data = cur_marker->data;
 951:fltk-1.3.4-1/jpeg/jdmarker.c ****     length = cur_marker->original_length - data_length;
 952:fltk-1.3.4-1/jpeg/jdmarker.c ****   }
 953:fltk-1.3.4-1/jpeg/jdmarker.c ****   /* Reset to initial state for next marker */
 954:fltk-1.3.4-1/jpeg/jdmarker.c ****   marker->cur_marker = NULL;
 955:fltk-1.3.4-1/jpeg/jdmarker.c **** 
 956:fltk-1.3.4-1/jpeg/jdmarker.c ****   /* Process the marker if interesting; else just make a generic trace msg */
 957:fltk-1.3.4-1/jpeg/jdmarker.c ****   switch (cinfo->unread_marker) {
 958:fltk-1.3.4-1/jpeg/jdmarker.c ****   case M_APP0:
 959:fltk-1.3.4-1/jpeg/jdmarker.c ****     examine_app0(cinfo, data, data_length, length);
 960:fltk-1.3.4-1/jpeg/jdmarker.c ****     break;
 961:fltk-1.3.4-1/jpeg/jdmarker.c ****   case M_APP14:
 962:fltk-1.3.4-1/jpeg/jdmarker.c ****     examine_app14(cinfo, data, data_length, length);
 963:fltk-1.3.4-1/jpeg/jdmarker.c ****     break;
 964:fltk-1.3.4-1/jpeg/jdmarker.c ****   default:
 965:fltk-1.3.4-1/jpeg/jdmarker.c ****     TRACEMS2(cinfo, 1, JTRC_MISC_MARKER, cinfo->unread_marker,
 966:fltk-1.3.4-1/jpeg/jdmarker.c **** 	     (int) (data_length + length));
 967:fltk-1.3.4-1/jpeg/jdmarker.c ****     break;
 968:fltk-1.3.4-1/jpeg/jdmarker.c ****   }
 969:fltk-1.3.4-1/jpeg/jdmarker.c **** 
 970:fltk-1.3.4-1/jpeg/jdmarker.c ****   /* skip any remaining data -- could be lots */
 971:fltk-1.3.4-1/jpeg/jdmarker.c ****   INPUT_SYNC(cinfo);		/* do before skip_input_data */
 972:fltk-1.3.4-1/jpeg/jdmarker.c ****   if (length > 0)
 973:fltk-1.3.4-1/jpeg/jdmarker.c ****     (*cinfo->src->skip_input_data) (cinfo, (long) length);
 974:fltk-1.3.4-1/jpeg/jdmarker.c **** 
 975:fltk-1.3.4-1/jpeg/jdmarker.c ****   return TRUE;
 976:fltk-1.3.4-1/jpeg/jdmarker.c **** }
 977:fltk-1.3.4-1/jpeg/jdmarker.c **** 
 978:fltk-1.3.4-1/jpeg/jdmarker.c **** #endif /* SAVE_MARKERS_SUPPORTED */
 979:fltk-1.3.4-1/jpeg/jdmarker.c **** 
 980:fltk-1.3.4-1/jpeg/jdmarker.c **** 
 981:fltk-1.3.4-1/jpeg/jdmarker.c **** METHODDEF(boolean)
 982:fltk-1.3.4-1/jpeg/jdmarker.c **** skip_variable (j_decompress_ptr cinfo)
 983:fltk-1.3.4-1/jpeg/jdmarker.c **** /* Skip over an unknown or uninteresting variable-length marker */
 984:fltk-1.3.4-1/jpeg/jdmarker.c **** {
 994              		.loc 1 984 0
 995              		.cfi_startproc
 996              	.LVL151:
 997 0000 4156     		pushq	%r14
 998              		.cfi_def_cfa_offset 16
 999              		.cfi_offset 14, -16
 1000 0002 4155     		pushq	%r13
 1001              		.cfi_def_cfa_offset 24
 1002              		.cfi_offset 13, -24
 1003 0004 4154     		pushq	%r12
 1004              		.cfi_def_cfa_offset 32
 1005              		.cfi_offset 12, -32
 1006 0006 55       		pushq	%rbp
 1007              		.cfi_def_cfa_offset 40
 1008              		.cfi_offset 6, -40
 1009 0007 53       		pushq	%rbx
 1010              		.cfi_def_cfa_offset 48
 1011              		.cfi_offset 3, -48
 985:fltk-1.3.4-1/jpeg/jdmarker.c ****   INT32 length;
 986:fltk-1.3.4-1/jpeg/jdmarker.c ****   INPUT_VARS(cinfo);
 1012              		.loc 1 986 0
 1013 0008 4C8B7728 		movq	40(%rdi), %r14
 1014              	.LVL152:
 984:fltk-1.3.4-1/jpeg/jdmarker.c ****   INT32 length;
 1015              		.loc 1 984 0
 1016 000c 4889FB   		movq	%rdi, %rbx
 1017              		.loc 1 986 0
 1018 000f 498B4E08 		movq	8(%r14), %rcx
 1019              	.LVL153:
 987:fltk-1.3.4-1/jpeg/jdmarker.c **** 
 988:fltk-1.3.4-1/jpeg/jdmarker.c ****   INPUT_2BYTES(cinfo, length, return FALSE);
 1020              		.loc 1 988 0
 1021 0013 4885C9   		testq	%rcx, %rcx
 1022 0016 0F849400 		je	.L111
 1022      0000
 986:fltk-1.3.4-1/jpeg/jdmarker.c **** 
 1023              		.loc 1 986 0
 1024 001c 498B06   		movq	(%r14), %rax
 1025              	.LVL154:
 1026              	.L112:
 1027              		.loc 1 988 0 discriminator 5
 1028 001f 0FB610   		movzbl	(%rax), %edx
 1029 0022 488D6801 		leaq	1(%rax), %rbp
 1030              	.LVL155:
 1031 0026 C1E208   		sall	$8, %edx
 1032 0029 4883E901 		subq	$1, %rcx
 1033              	.LVL156:
 1034 002d 4189D4   		movl	%edx, %r12d
 1035              	.LVL157:
 1036 0030 4989CD   		movq	%rcx, %r13
 1037 0033 7516     		jne	.L116
 1038              		.loc 1 988 0 is_stmt 0 discriminator 6
 1039 0035 4889DF   		movq	%rbx, %rdi
 1040 0038 41FF5618 		call	*24(%r14)
 1041              	.LVL158:
 1042 003c 85C0     		testl	%eax, %eax
 1043 003e 0F848400 		je	.L117
 1043      0000
 1044              		.loc 1 988 0 discriminator 9
 1045 0044 498B2E   		movq	(%r14), %rbp
 1046              	.LVL159:
 1047 0047 4D8B6E08 		movq	8(%r14), %r13
 1048              	.LVL160:
 1049              	.L116:
 1050              		.loc 1 988 0 discriminator 10
 1051 004b 0FB64500 		movzbl	0(%rbp), %eax
 1052              	.LVL161:
 989:fltk-1.3.4-1/jpeg/jdmarker.c ****   length -= 2;
 990:fltk-1.3.4-1/jpeg/jdmarker.c ****   
 991:fltk-1.3.4-1/jpeg/jdmarker.c ****   TRACEMS2(cinfo, 1, JTRC_MISC_MARKER, cinfo->unread_marker, (int) length);
 1053              		.loc 1 991 0 is_stmt 1 discriminator 10
 1054 004f BE010000 		movl	$1, %esi
 1054      00
 1055 0054 4889DF   		movq	%rbx, %rdi
 989:fltk-1.3.4-1/jpeg/jdmarker.c ****   length -= 2;
 1056              		.loc 1 989 0 discriminator 10
 1057 0057 4D8D6404 		leaq	-2(%r12,%rax), %r12
 1057      FE
 1058              	.LVL162:
 1059              		.loc 1 991 0 discriminator 10
 1060 005c 488B03   		movq	(%rbx), %rax
 1061 005f C740285D 		movl	$93, 40(%rax)
 1061      000000
 1062 0066 488B03   		movq	(%rbx), %rax
 1063 0069 8B933C02 		movl	572(%rbx), %edx
 1063      0000
 1064 006f 89502C   		movl	%edx, 44(%rax)
 1065 0072 488B03   		movq	(%rbx), %rax
 1066 0075 44896030 		movl	%r12d, 48(%rax)
 1067 0079 488B03   		movq	(%rbx), %rax
 1068 007c FF5008   		call	*8(%rax)
 1069              	.LVL163:
 992:fltk-1.3.4-1/jpeg/jdmarker.c **** 
 993:fltk-1.3.4-1/jpeg/jdmarker.c ****   INPUT_SYNC(cinfo);		/* do before skip_input_data */
 1070              		.loc 1 993 0 discriminator 10
 1071 007f 488D4501 		leaq	1(%rbp), %rax
 1072              	.LVL164:
 1073 0083 498D4DFF 		leaq	-1(%r13), %rcx
 1074              	.LVL165:
 994:fltk-1.3.4-1/jpeg/jdmarker.c ****   if (length > 0)
 1075              		.loc 1 994 0 discriminator 10
 1076 0087 4D85E4   		testq	%r12, %r12
 995:fltk-1.3.4-1/jpeg/jdmarker.c ****     (*cinfo->src->skip_input_data) (cinfo, (long) length);
 996:fltk-1.3.4-1/jpeg/jdmarker.c **** 
 997:fltk-1.3.4-1/jpeg/jdmarker.c ****   return TRUE;
 1077              		.loc 1 997 0 discriminator 10
 1078 008a BD010000 		movl	$1, %ebp
 1078      00
 993:fltk-1.3.4-1/jpeg/jdmarker.c ****   if (length > 0)
 1079              		.loc 1 993 0 discriminator 10
 1080 008f 498906   		movq	%rax, (%r14)
 1081 0092 49894E08 		movq	%rcx, 8(%r14)
 994:fltk-1.3.4-1/jpeg/jdmarker.c ****   if (length > 0)
 1082              		.loc 1 994 0 discriminator 10
 1083 0096 7E0D     		jle	.L114
 995:fltk-1.3.4-1/jpeg/jdmarker.c ****     (*cinfo->src->skip_input_data) (cinfo, (long) length);
 1084              		.loc 1 995 0
 1085 0098 488B4328 		movq	40(%rbx), %rax
 1086              	.LVL166:
 1087 009c 4C89E6   		movq	%r12, %rsi
 1088 009f 4889DF   		movq	%rbx, %rdi
 1089 00a2 FF5020   		call	*32(%rax)
 1090              	.LVL167:
 1091              	.L114:
 998:fltk-1.3.4-1/jpeg/jdmarker.c **** }
 1092              		.loc 1 998 0
 1093 00a5 5B       		popq	%rbx
 1094              		.cfi_remember_state
 1095              		.cfi_def_cfa_offset 40
 1096              	.LVL168:
 1097 00a6 89E8     		movl	%ebp, %eax
 1098 00a8 5D       		popq	%rbp
 1099              		.cfi_def_cfa_offset 32
 1100 00a9 415C     		popq	%r12
 1101              		.cfi_def_cfa_offset 24
 1102              	.LVL169:
 1103 00ab 415D     		popq	%r13
 1104              		.cfi_def_cfa_offset 16
 1105              	.LVL170:
 1106 00ad 415E     		popq	%r14
 1107              		.cfi_def_cfa_offset 8
 1108              	.LVL171:
 1109 00af C3       		ret
 1110              	.LVL172:
 1111              		.p2align 4,,10
 1112              		.p2align 3
 1113              	.L111:
 1114              		.cfi_restore_state
 988:fltk-1.3.4-1/jpeg/jdmarker.c ****   length -= 2;
 1115              		.loc 1 988 0 discriminator 1
 1116 00b0 41FF5618 		call	*24(%r14)
 1117              	.LVL173:
 1118 00b4 85C0     		testl	%eax, %eax
 1119 00b6 7410     		je	.L117
 988:fltk-1.3.4-1/jpeg/jdmarker.c ****   length -= 2;
 1120              		.loc 1 988 0 is_stmt 0 discriminator 4
 1121 00b8 498B06   		movq	(%r14), %rax
 1122              	.LVL174:
 1123 00bb 498B4E08 		movq	8(%r14), %rcx
 1124              	.LVL175:
 1125 00bf E95BFFFF 		jmp	.L112
 1125      FF
 1126              	.LVL176:
 1127              		.p2align 4,,10
 1128 00c4 0F1F4000 		.p2align 3
 1129              	.L117:
 988:fltk-1.3.4-1/jpeg/jdmarker.c ****   length -= 2;
 1130              		.loc 1 988 0
 1131 00c8 31ED     		xorl	%ebp, %ebp
 1132              		.loc 1 998 0 is_stmt 1
 1133 00ca 5B       		popq	%rbx
 1134              		.cfi_def_cfa_offset 40
 1135              	.LVL177:
 1136 00cb 89E8     		movl	%ebp, %eax
 1137 00cd 5D       		popq	%rbp
 1138              		.cfi_def_cfa_offset 32
 1139 00ce 415C     		popq	%r12
 1140              		.cfi_def_cfa_offset 24
 1141 00d0 415D     		popq	%r13
 1142              		.cfi_def_cfa_offset 16
 1143 00d2 415E     		popq	%r14
 1144              		.cfi_def_cfa_offset 8
 1145              	.LVL178:
 1146 00d4 C3       		ret
 1147              		.cfi_endproc
 1148              	.LFE73:
 1150              		.section	.text.unlikely.skip_variable
 1151              	.LCOLDE2:
 1152              		.section	.text.skip_variable
 1153              	.LHOTE2:
 1154              		.section	.text.unlikely.next_marker,"ax",@progbits
 1155              	.LCOLDB3:
 1156              		.section	.text.next_marker,"ax",@progbits
 1157              	.LHOTB3:
 1158              		.p2align 4,,15
 1160              	next_marker:
 1161              	.LFB74:
 999:fltk-1.3.4-1/jpeg/jdmarker.c **** 
1000:fltk-1.3.4-1/jpeg/jdmarker.c **** 
1001:fltk-1.3.4-1/jpeg/jdmarker.c **** /*
1002:fltk-1.3.4-1/jpeg/jdmarker.c ****  * Find the next JPEG marker, save it in cinfo->unread_marker.
1003:fltk-1.3.4-1/jpeg/jdmarker.c ****  * Returns FALSE if had to suspend before reaching a marker;
1004:fltk-1.3.4-1/jpeg/jdmarker.c ****  * in that case cinfo->unread_marker is unchanged.
1005:fltk-1.3.4-1/jpeg/jdmarker.c ****  *
1006:fltk-1.3.4-1/jpeg/jdmarker.c ****  * Note that the result might not be a valid marker code,
1007:fltk-1.3.4-1/jpeg/jdmarker.c ****  * but it will never be 0 or FF.
1008:fltk-1.3.4-1/jpeg/jdmarker.c ****  */
1009:fltk-1.3.4-1/jpeg/jdmarker.c **** 
1010:fltk-1.3.4-1/jpeg/jdmarker.c **** LOCAL(boolean)
1011:fltk-1.3.4-1/jpeg/jdmarker.c **** next_marker (j_decompress_ptr cinfo)
1012:fltk-1.3.4-1/jpeg/jdmarker.c **** {
 1162              		.loc 1 1012 0
 1163              		.cfi_startproc
 1164              	.LVL179:
 1165 0000 4156     		pushq	%r14
 1166              		.cfi_def_cfa_offset 16
 1167              		.cfi_offset 14, -16
 1168 0002 4155     		pushq	%r13
 1169              		.cfi_def_cfa_offset 24
 1170              		.cfi_offset 13, -24
 1171 0004 4989FE   		movq	%rdi, %r14
 1172 0007 4154     		pushq	%r12
 1173              		.cfi_def_cfa_offset 32
 1174              		.cfi_offset 12, -32
 1175 0009 55       		pushq	%rbp
 1176              		.cfi_def_cfa_offset 40
 1177              		.cfi_offset 6, -40
 1178 000a 53       		pushq	%rbx
 1179              		.cfi_def_cfa_offset 48
 1180              		.cfi_offset 3, -48
1013:fltk-1.3.4-1/jpeg/jdmarker.c ****   int c;
1014:fltk-1.3.4-1/jpeg/jdmarker.c ****   INPUT_VARS(cinfo);
 1181              		.loc 1 1014 0
 1182 000b 4C8B6728 		movq	40(%rdi), %r12
 1183              	.LVL180:
 1184 000f 498B0424 		movq	(%r12), %rax
 1185              	.LVL181:
 1186 0013 498B5C24 		movq	8(%r12), %rbx
 1186      08
 1187              	.LVL182:
 1188              	.L134:
1015:fltk-1.3.4-1/jpeg/jdmarker.c **** 
1016:fltk-1.3.4-1/jpeg/jdmarker.c ****   for (;;) {
1017:fltk-1.3.4-1/jpeg/jdmarker.c ****     INPUT_BYTE(cinfo, c, return FALSE);
 1189              		.loc 1 1017 0
 1190 0018 4885DB   		testq	%rbx, %rbx
 1191 001b 742C     		je	.L148
 1192 001d 0F1F00   		.p2align 4,,10
 1193              		.p2align 3
 1194              	.L124:
 1195              		.loc 1 1017 0 is_stmt 0 discriminator 5
 1196 0020 4883EB01 		subq	$1, %rbx
 1197              	.LVL183:
1018:fltk-1.3.4-1/jpeg/jdmarker.c ****     /* Skip any non-FF bytes.
1019:fltk-1.3.4-1/jpeg/jdmarker.c ****      * This may look a bit inefficient, but it will not occur in a valid file.
1020:fltk-1.3.4-1/jpeg/jdmarker.c ****      * We sync after each discarded byte so that a suspending data source
1021:fltk-1.3.4-1/jpeg/jdmarker.c ****      * can discard the byte from its buffer.
1022:fltk-1.3.4-1/jpeg/jdmarker.c ****      */
1023:fltk-1.3.4-1/jpeg/jdmarker.c ****     while (c != 0xFF) {
 1198              		.loc 1 1023 0 is_stmt 1 discriminator 5
 1199 0024 8038FF   		cmpb	$-1, (%rax)
1017:fltk-1.3.4-1/jpeg/jdmarker.c ****     /* Skip any non-FF bytes.
 1200              		.loc 1 1017 0 discriminator 5
 1201 0027 488D6801 		leaq	1(%rax), %rbp
 1202              	.LVL184:
 1203              		.loc 1 1023 0 discriminator 5
 1204 002b 745D     		je	.L132
1024:fltk-1.3.4-1/jpeg/jdmarker.c ****       cinfo->marker->discarded_bytes++;
 1205              		.loc 1 1024 0
 1206 002d 498B8668 		movq	616(%r14), %rax
 1206      020000
 1207              	.LVL185:
 1208 0034 83402401 		addl	$1, 36(%rax)
 1209              	.LVL186:
1025:fltk-1.3.4-1/jpeg/jdmarker.c ****       INPUT_SYNC(cinfo);
1026:fltk-1.3.4-1/jpeg/jdmarker.c ****       INPUT_BYTE(cinfo, c, return FALSE);
 1210              		.loc 1 1026 0
 1211 0038 4885DB   		testq	%rbx, %rbx
1025:fltk-1.3.4-1/jpeg/jdmarker.c ****       INPUT_SYNC(cinfo);
 1212              		.loc 1 1025 0
 1213 003b 49892C24 		movq	%rbp, (%r12)
 1214 003f 49895C24 		movq	%rbx, 8(%r12)
 1214      08
 1215 0044 4889E8   		movq	%rbp, %rax
 1216              		.loc 1 1026 0
 1217 0047 75D7     		jne	.L124
 1218              	.LVL187:
 1219              	.L148:
1017:fltk-1.3.4-1/jpeg/jdmarker.c ****     /* Skip any non-FF bytes.
 1220              		.loc 1 1017 0 discriminator 1
 1221 0049 4C89F7   		movq	%r14, %rdi
 1222 004c 41FF5424 		call	*24(%r12)
 1222      18
 1223              	.LVL188:
 1224 0051 85C0     		testl	%eax, %eax
 1225 0053 746B     		je	.L129
1017:fltk-1.3.4-1/jpeg/jdmarker.c ****     /* Skip any non-FF bytes.
 1226              		.loc 1 1017 0 is_stmt 0 discriminator 4
 1227 0055 498B0424 		movq	(%r12), %rax
 1228              	.LVL189:
 1229 0059 498B5C24 		movq	8(%r12), %rbx
 1229      08
 1230              	.LVL190:
 1231 005e EBC0     		jmp	.L124
 1232              		.p2align 4,,10
 1233              		.p2align 3
 1234              	.L150:
1027:fltk-1.3.4-1/jpeg/jdmarker.c ****     }
1028:fltk-1.3.4-1/jpeg/jdmarker.c ****     /* This loop swallows any duplicate FF bytes.  Extra FFs are legal as
1029:fltk-1.3.4-1/jpeg/jdmarker.c ****      * pad bytes, so don't count them in discarded_bytes.  We assume there
1030:fltk-1.3.4-1/jpeg/jdmarker.c ****      * will not be so many consecutive FF bytes as to overflow a suspending
1031:fltk-1.3.4-1/jpeg/jdmarker.c ****      * data source's input buffer.
1032:fltk-1.3.4-1/jpeg/jdmarker.c ****      */
1033:fltk-1.3.4-1/jpeg/jdmarker.c ****     do {
1034:fltk-1.3.4-1/jpeg/jdmarker.c ****       INPUT_BYTE(cinfo, c, return FALSE);
 1235              		.loc 1 1034 0 is_stmt 1 discriminator 1
 1236 0060 4C89F7   		movq	%r14, %rdi
 1237 0063 41FF5424 		call	*24(%r12)
 1237      18
 1238              	.LVL191:
 1239 0068 85C0     		testl	%eax, %eax
 1240 006a 7454     		je	.L129
 1241              		.loc 1 1034 0 is_stmt 0 discriminator 4
 1242 006c 498B0424 		movq	(%r12), %rax
 1243              	.LVL192:
 1244 0070 498B5C24 		movq	8(%r12), %rbx
 1244      08
 1245              	.LVL193:
 1246              	.L131:
 1247              		.loc 1 1034 0 discriminator 5
 1248 0075 440FB628 		movzbl	(%rax), %r13d
 1249 0079 4883EB01 		subq	$1, %rbx
 1250              	.LVL194:
 1251 007d 488D6801 		leaq	1(%rax), %rbp
 1252              	.LVL195:
1035:fltk-1.3.4-1/jpeg/jdmarker.c ****     } while (c == 0xFF);
 1253              		.loc 1 1035 0 is_stmt 1 discriminator 5
 1254 0081 4181FDFF 		cmpl	$255, %r13d
 1254      000000
 1255 0088 750E     		jne	.L149
 1256              	.LVL196:
 1257              	.L132:
1034:fltk-1.3.4-1/jpeg/jdmarker.c ****     } while (c == 0xFF);
 1258              		.loc 1 1034 0
 1259 008a 4885DB   		testq	%rbx, %rbx
 1260 008d 4889E8   		movq	%rbp, %rax
 1261 0090 75E3     		jne	.L131
 1262              	.LVL197:
 1263 0092 EBCC     		jmp	.L150
 1264              	.LVL198:
 1265              		.p2align 4,,10
 1266 0094 0F1F4000 		.p2align 3
 1267              	.L149:
1036:fltk-1.3.4-1/jpeg/jdmarker.c ****     if (c != 0)
 1268              		.loc 1 1036 0
 1269 0098 4585ED   		testl	%r13d, %r13d
1037:fltk-1.3.4-1/jpeg/jdmarker.c ****       break;			/* found a valid marker, exit loop */
1038:fltk-1.3.4-1/jpeg/jdmarker.c ****     /* Reach here if we found a stuffed-zero data sequence (FF/00).
1039:fltk-1.3.4-1/jpeg/jdmarker.c ****      * Discard it and loop back to try again.
1040:fltk-1.3.4-1/jpeg/jdmarker.c ****      */
1041:fltk-1.3.4-1/jpeg/jdmarker.c ****     cinfo->marker->discarded_bytes += 2;
1042:fltk-1.3.4-1/jpeg/jdmarker.c ****     INPUT_SYNC(cinfo);
1043:fltk-1.3.4-1/jpeg/jdmarker.c ****   }
1044:fltk-1.3.4-1/jpeg/jdmarker.c **** 
1045:fltk-1.3.4-1/jpeg/jdmarker.c ****   if (cinfo->marker->discarded_bytes != 0) {
 1270              		.loc 1 1045 0
 1271 009b 498B8668 		movq	616(%r14), %rax
 1271      020000
1036:fltk-1.3.4-1/jpeg/jdmarker.c ****     if (c != 0)
 1272              		.loc 1 1036 0
 1273 00a2 7527     		jne	.L133
1041:fltk-1.3.4-1/jpeg/jdmarker.c ****     INPUT_SYNC(cinfo);
 1274              		.loc 1 1041 0
 1275 00a4 83402402 		addl	$2, 36(%rax)
1042:fltk-1.3.4-1/jpeg/jdmarker.c ****   }
 1276              		.loc 1 1042 0
 1277 00a8 49892C24 		movq	%rbp, (%r12)
1034:fltk-1.3.4-1/jpeg/jdmarker.c ****     } while (c == 0xFF);
 1278              		.loc 1 1034 0
 1279 00ac 4889E8   		movq	%rbp, %rax
1042:fltk-1.3.4-1/jpeg/jdmarker.c ****   }
 1280              		.loc 1 1042 0
 1281 00af 49895C24 		movq	%rbx, 8(%r12)
 1281      08
1043:fltk-1.3.4-1/jpeg/jdmarker.c **** 
 1282              		.loc 1 1043 0
 1283 00b4 E95FFFFF 		jmp	.L134
 1283      FF
 1284              	.LVL199:
 1285 00b9 0F1F8000 		.p2align 4,,10
 1285      000000
 1286              		.p2align 3
 1287              	.L129:
1017:fltk-1.3.4-1/jpeg/jdmarker.c ****     /* Skip any non-FF bytes.
 1288              		.loc 1 1017 0
 1289 00c0 31C0     		xorl	%eax, %eax
 1290              	.L126:
1046:fltk-1.3.4-1/jpeg/jdmarker.c ****     WARNMS2(cinfo, JWRN_EXTRANEOUS_DATA, cinfo->marker->discarded_bytes, c);
1047:fltk-1.3.4-1/jpeg/jdmarker.c ****     cinfo->marker->discarded_bytes = 0;
1048:fltk-1.3.4-1/jpeg/jdmarker.c ****   }
1049:fltk-1.3.4-1/jpeg/jdmarker.c **** 
1050:fltk-1.3.4-1/jpeg/jdmarker.c ****   cinfo->unread_marker = c;
1051:fltk-1.3.4-1/jpeg/jdmarker.c **** 
1052:fltk-1.3.4-1/jpeg/jdmarker.c ****   INPUT_SYNC(cinfo);
1053:fltk-1.3.4-1/jpeg/jdmarker.c ****   return TRUE;
1054:fltk-1.3.4-1/jpeg/jdmarker.c **** }
 1291              		.loc 1 1054 0
 1292 00c2 5B       		popq	%rbx
 1293              		.cfi_remember_state
 1294              		.cfi_def_cfa_offset 40
 1295              	.LVL200:
 1296 00c3 5D       		popq	%rbp
 1297              		.cfi_def_cfa_offset 32
 1298 00c4 415C     		popq	%r12
 1299              		.cfi_def_cfa_offset 24
 1300              	.LVL201:
 1301 00c6 415D     		popq	%r13
 1302              		.cfi_def_cfa_offset 16
 1303 00c8 415E     		popq	%r14
 1304              		.cfi_def_cfa_offset 8
 1305              	.LVL202:
 1306 00ca C3       		ret
 1307              	.LVL203:
 1308              	.L133:
 1309              		.cfi_restore_state
1045:fltk-1.3.4-1/jpeg/jdmarker.c ****     WARNMS2(cinfo, JWRN_EXTRANEOUS_DATA, cinfo->marker->discarded_bytes, c);
 1310              		.loc 1 1045 0
 1311 00cb 8B4024   		movl	36(%rax), %eax
 1312 00ce 85C0     		testl	%eax, %eax
 1313 00d0 7517     		jne	.L151
 1314              	.L135:
1050:fltk-1.3.4-1/jpeg/jdmarker.c **** 
 1315              		.loc 1 1050 0
 1316 00d2 4589AE3C 		movl	%r13d, 572(%r14)
 1316      020000
1053:fltk-1.3.4-1/jpeg/jdmarker.c **** }
 1317              		.loc 1 1053 0
 1318 00d9 B8010000 		movl	$1, %eax
 1318      00
1052:fltk-1.3.4-1/jpeg/jdmarker.c ****   return TRUE;
 1319              		.loc 1 1052 0
 1320 00de 49892C24 		movq	%rbp, (%r12)
 1321 00e2 49895C24 		movq	%rbx, 8(%r12)
 1321      08
1053:fltk-1.3.4-1/jpeg/jdmarker.c **** }
 1322              		.loc 1 1053 0
 1323 00e7 EBD9     		jmp	.L126
 1324              	.L151:
1046:fltk-1.3.4-1/jpeg/jdmarker.c ****     cinfo->marker->discarded_bytes = 0;
 1325              		.loc 1 1046 0
 1326 00e9 498B06   		movq	(%r14), %rax
 1327 00ec BEFFFFFF 		movl	$-1, %esi
 1327      FF
 1328 00f1 4C89F7   		movq	%r14, %rdi
 1329 00f4 C7402877 		movl	$119, 40(%rax)
 1329      000000
 1330 00fb 498B9668 		movq	616(%r14), %rdx
 1330      020000
 1331 0102 498B06   		movq	(%r14), %rax
 1332 0105 8B5224   		movl	36(%rdx), %edx
 1333 0108 89502C   		movl	%edx, 44(%rax)
 1334 010b 498B06   		movq	(%r14), %rax
 1335 010e 44896830 		movl	%r13d, 48(%rax)
 1336 0112 498B06   		movq	(%r14), %rax
 1337 0115 FF5008   		call	*8(%rax)
 1338              	.LVL204:
1047:fltk-1.3.4-1/jpeg/jdmarker.c ****   }
 1339              		.loc 1 1047 0
 1340 0118 498B8668 		movq	616(%r14), %rax
 1340      020000
 1341 011f C7402400 		movl	$0, 36(%rax)
 1341      000000
 1342 0126 EBAA     		jmp	.L135
 1343              		.cfi_endproc
 1344              	.LFE74:
 1346              		.section	.text.unlikely.next_marker
 1347              	.LCOLDE3:
 1348              		.section	.text.next_marker
 1349              	.LHOTE3:
 1350              		.section	.text.unlikely.read_restart_marker,"ax",@progbits
 1351              	.LCOLDB4:
 1352              		.section	.text.read_restart_marker,"ax",@progbits
 1353              	.LHOTB4:
 1354              		.p2align 4,,15
 1356              	read_restart_marker:
 1357              	.LFB77:
1055:fltk-1.3.4-1/jpeg/jdmarker.c **** 
1056:fltk-1.3.4-1/jpeg/jdmarker.c **** 
1057:fltk-1.3.4-1/jpeg/jdmarker.c **** LOCAL(boolean)
1058:fltk-1.3.4-1/jpeg/jdmarker.c **** first_marker (j_decompress_ptr cinfo)
1059:fltk-1.3.4-1/jpeg/jdmarker.c **** /* Like next_marker, but used to obtain the initial SOI marker. */
1060:fltk-1.3.4-1/jpeg/jdmarker.c **** /* For this marker, we do not allow preceding garbage or fill; otherwise,
1061:fltk-1.3.4-1/jpeg/jdmarker.c ****  * we might well scan an entire input file before realizing it ain't JPEG.
1062:fltk-1.3.4-1/jpeg/jdmarker.c ****  * If an application wants to process non-JFIF files, it must seek to the
1063:fltk-1.3.4-1/jpeg/jdmarker.c ****  * SOI before calling the JPEG library.
1064:fltk-1.3.4-1/jpeg/jdmarker.c ****  */
1065:fltk-1.3.4-1/jpeg/jdmarker.c **** {
1066:fltk-1.3.4-1/jpeg/jdmarker.c ****   int c, c2;
1067:fltk-1.3.4-1/jpeg/jdmarker.c ****   INPUT_VARS(cinfo);
1068:fltk-1.3.4-1/jpeg/jdmarker.c **** 
1069:fltk-1.3.4-1/jpeg/jdmarker.c ****   INPUT_BYTE(cinfo, c, return FALSE);
1070:fltk-1.3.4-1/jpeg/jdmarker.c ****   INPUT_BYTE(cinfo, c2, return FALSE);
1071:fltk-1.3.4-1/jpeg/jdmarker.c ****   if (c != 0xFF || c2 != (int) M_SOI)
1072:fltk-1.3.4-1/jpeg/jdmarker.c ****     ERREXIT2(cinfo, JERR_NO_SOI, c, c2);
1073:fltk-1.3.4-1/jpeg/jdmarker.c **** 
1074:fltk-1.3.4-1/jpeg/jdmarker.c ****   cinfo->unread_marker = c2;
1075:fltk-1.3.4-1/jpeg/jdmarker.c **** 
1076:fltk-1.3.4-1/jpeg/jdmarker.c ****   INPUT_SYNC(cinfo);
1077:fltk-1.3.4-1/jpeg/jdmarker.c ****   return TRUE;
1078:fltk-1.3.4-1/jpeg/jdmarker.c **** }
1079:fltk-1.3.4-1/jpeg/jdmarker.c **** 
1080:fltk-1.3.4-1/jpeg/jdmarker.c **** 
1081:fltk-1.3.4-1/jpeg/jdmarker.c **** /*
1082:fltk-1.3.4-1/jpeg/jdmarker.c ****  * Read markers until SOS or EOI.
1083:fltk-1.3.4-1/jpeg/jdmarker.c ****  *
1084:fltk-1.3.4-1/jpeg/jdmarker.c ****  * Returns same codes as are defined for jpeg_consume_input:
1085:fltk-1.3.4-1/jpeg/jdmarker.c ****  * JPEG_SUSPENDED, JPEG_REACHED_SOS, or JPEG_REACHED_EOI.
1086:fltk-1.3.4-1/jpeg/jdmarker.c ****  *
1087:fltk-1.3.4-1/jpeg/jdmarker.c ****  * Note: This function may return a pseudo SOS marker (with zero
1088:fltk-1.3.4-1/jpeg/jdmarker.c ****  * component number) for treat by input controller's consume_input.
1089:fltk-1.3.4-1/jpeg/jdmarker.c ****  * consume_input itself should filter out (skip) the pseudo marker
1090:fltk-1.3.4-1/jpeg/jdmarker.c ****  * after processing for the caller.
1091:fltk-1.3.4-1/jpeg/jdmarker.c ****  */
1092:fltk-1.3.4-1/jpeg/jdmarker.c **** 
1093:fltk-1.3.4-1/jpeg/jdmarker.c **** METHODDEF(int)
1094:fltk-1.3.4-1/jpeg/jdmarker.c **** read_markers (j_decompress_ptr cinfo)
1095:fltk-1.3.4-1/jpeg/jdmarker.c **** {
1096:fltk-1.3.4-1/jpeg/jdmarker.c ****   /* Outer loop repeats once for each marker. */
1097:fltk-1.3.4-1/jpeg/jdmarker.c ****   for (;;) {
1098:fltk-1.3.4-1/jpeg/jdmarker.c ****     /* Collect the marker proper, unless we already did. */
1099:fltk-1.3.4-1/jpeg/jdmarker.c ****     /* NB: first_marker() enforces the requirement that SOI appear first. */
1100:fltk-1.3.4-1/jpeg/jdmarker.c ****     if (cinfo->unread_marker == 0) {
1101:fltk-1.3.4-1/jpeg/jdmarker.c ****       if (! cinfo->marker->saw_SOI) {
1102:fltk-1.3.4-1/jpeg/jdmarker.c **** 	if (! first_marker(cinfo))
1103:fltk-1.3.4-1/jpeg/jdmarker.c **** 	  return JPEG_SUSPENDED;
1104:fltk-1.3.4-1/jpeg/jdmarker.c ****       } else {
1105:fltk-1.3.4-1/jpeg/jdmarker.c **** 	if (! next_marker(cinfo))
1106:fltk-1.3.4-1/jpeg/jdmarker.c **** 	  return JPEG_SUSPENDED;
1107:fltk-1.3.4-1/jpeg/jdmarker.c ****       }
1108:fltk-1.3.4-1/jpeg/jdmarker.c ****     }
1109:fltk-1.3.4-1/jpeg/jdmarker.c ****     /* At this point cinfo->unread_marker contains the marker code and the
1110:fltk-1.3.4-1/jpeg/jdmarker.c ****      * input point is just past the marker proper, but before any parameters.
1111:fltk-1.3.4-1/jpeg/jdmarker.c ****      * A suspension will cause us to return with this state still true.
1112:fltk-1.3.4-1/jpeg/jdmarker.c ****      */
1113:fltk-1.3.4-1/jpeg/jdmarker.c ****     switch (cinfo->unread_marker) {
1114:fltk-1.3.4-1/jpeg/jdmarker.c ****     case M_SOI:
1115:fltk-1.3.4-1/jpeg/jdmarker.c ****       if (! get_soi(cinfo))
1116:fltk-1.3.4-1/jpeg/jdmarker.c **** 	return JPEG_SUSPENDED;
1117:fltk-1.3.4-1/jpeg/jdmarker.c ****       break;
1118:fltk-1.3.4-1/jpeg/jdmarker.c **** 
1119:fltk-1.3.4-1/jpeg/jdmarker.c ****     case M_SOF0:		/* Baseline */
1120:fltk-1.3.4-1/jpeg/jdmarker.c ****       if (! get_sof(cinfo, TRUE, FALSE, FALSE))
1121:fltk-1.3.4-1/jpeg/jdmarker.c **** 	return JPEG_SUSPENDED;
1122:fltk-1.3.4-1/jpeg/jdmarker.c ****       break;
1123:fltk-1.3.4-1/jpeg/jdmarker.c **** 
1124:fltk-1.3.4-1/jpeg/jdmarker.c ****     case M_SOF1:		/* Extended sequential, Huffman */
1125:fltk-1.3.4-1/jpeg/jdmarker.c ****       if (! get_sof(cinfo, FALSE, FALSE, FALSE))
1126:fltk-1.3.4-1/jpeg/jdmarker.c **** 	return JPEG_SUSPENDED;
1127:fltk-1.3.4-1/jpeg/jdmarker.c ****       break;
1128:fltk-1.3.4-1/jpeg/jdmarker.c **** 
1129:fltk-1.3.4-1/jpeg/jdmarker.c ****     case M_SOF2:		/* Progressive, Huffman */
1130:fltk-1.3.4-1/jpeg/jdmarker.c ****       if (! get_sof(cinfo, FALSE, TRUE, FALSE))
1131:fltk-1.3.4-1/jpeg/jdmarker.c **** 	return JPEG_SUSPENDED;
1132:fltk-1.3.4-1/jpeg/jdmarker.c ****       break;
1133:fltk-1.3.4-1/jpeg/jdmarker.c **** 
1134:fltk-1.3.4-1/jpeg/jdmarker.c ****     case M_SOF9:		/* Extended sequential, arithmetic */
1135:fltk-1.3.4-1/jpeg/jdmarker.c ****       if (! get_sof(cinfo, FALSE, FALSE, TRUE))
1136:fltk-1.3.4-1/jpeg/jdmarker.c **** 	return JPEG_SUSPENDED;
1137:fltk-1.3.4-1/jpeg/jdmarker.c ****       break;
1138:fltk-1.3.4-1/jpeg/jdmarker.c **** 
1139:fltk-1.3.4-1/jpeg/jdmarker.c ****     case M_SOF10:		/* Progressive, arithmetic */
1140:fltk-1.3.4-1/jpeg/jdmarker.c ****       if (! get_sof(cinfo, FALSE, TRUE, TRUE))
1141:fltk-1.3.4-1/jpeg/jdmarker.c **** 	return JPEG_SUSPENDED;
1142:fltk-1.3.4-1/jpeg/jdmarker.c ****       break;
1143:fltk-1.3.4-1/jpeg/jdmarker.c **** 
1144:fltk-1.3.4-1/jpeg/jdmarker.c ****     /* Currently unsupported SOFn types */
1145:fltk-1.3.4-1/jpeg/jdmarker.c ****     case M_SOF3:		/* Lossless, Huffman */
1146:fltk-1.3.4-1/jpeg/jdmarker.c ****     case M_SOF5:		/* Differential sequential, Huffman */
1147:fltk-1.3.4-1/jpeg/jdmarker.c ****     case M_SOF6:		/* Differential progressive, Huffman */
1148:fltk-1.3.4-1/jpeg/jdmarker.c ****     case M_SOF7:		/* Differential lossless, Huffman */
1149:fltk-1.3.4-1/jpeg/jdmarker.c ****     case M_JPG:			/* Reserved for JPEG extensions */
1150:fltk-1.3.4-1/jpeg/jdmarker.c ****     case M_SOF11:		/* Lossless, arithmetic */
1151:fltk-1.3.4-1/jpeg/jdmarker.c ****     case M_SOF13:		/* Differential sequential, arithmetic */
1152:fltk-1.3.4-1/jpeg/jdmarker.c ****     case M_SOF14:		/* Differential progressive, arithmetic */
1153:fltk-1.3.4-1/jpeg/jdmarker.c ****     case M_SOF15:		/* Differential lossless, arithmetic */
1154:fltk-1.3.4-1/jpeg/jdmarker.c ****       ERREXIT1(cinfo, JERR_SOF_UNSUPPORTED, cinfo->unread_marker);
1155:fltk-1.3.4-1/jpeg/jdmarker.c ****       break;
1156:fltk-1.3.4-1/jpeg/jdmarker.c **** 
1157:fltk-1.3.4-1/jpeg/jdmarker.c ****     case M_SOS:
1158:fltk-1.3.4-1/jpeg/jdmarker.c ****       if (! get_sos(cinfo))
1159:fltk-1.3.4-1/jpeg/jdmarker.c **** 	return JPEG_SUSPENDED;
1160:fltk-1.3.4-1/jpeg/jdmarker.c ****       cinfo->unread_marker = 0;	/* processed the marker */
1161:fltk-1.3.4-1/jpeg/jdmarker.c ****       return JPEG_REACHED_SOS;
1162:fltk-1.3.4-1/jpeg/jdmarker.c **** 
1163:fltk-1.3.4-1/jpeg/jdmarker.c ****     case M_EOI:
1164:fltk-1.3.4-1/jpeg/jdmarker.c ****       TRACEMS(cinfo, 1, JTRC_EOI);
1165:fltk-1.3.4-1/jpeg/jdmarker.c ****       cinfo->unread_marker = 0;	/* processed the marker */
1166:fltk-1.3.4-1/jpeg/jdmarker.c ****       return JPEG_REACHED_EOI;
1167:fltk-1.3.4-1/jpeg/jdmarker.c **** 
1168:fltk-1.3.4-1/jpeg/jdmarker.c ****     case M_DAC:
1169:fltk-1.3.4-1/jpeg/jdmarker.c ****       if (! get_dac(cinfo))
1170:fltk-1.3.4-1/jpeg/jdmarker.c **** 	return JPEG_SUSPENDED;
1171:fltk-1.3.4-1/jpeg/jdmarker.c ****       break;
1172:fltk-1.3.4-1/jpeg/jdmarker.c **** 
1173:fltk-1.3.4-1/jpeg/jdmarker.c ****     case M_DHT:
1174:fltk-1.3.4-1/jpeg/jdmarker.c ****       if (! get_dht(cinfo))
1175:fltk-1.3.4-1/jpeg/jdmarker.c **** 	return JPEG_SUSPENDED;
1176:fltk-1.3.4-1/jpeg/jdmarker.c ****       break;
1177:fltk-1.3.4-1/jpeg/jdmarker.c **** 
1178:fltk-1.3.4-1/jpeg/jdmarker.c ****     case M_DQT:
1179:fltk-1.3.4-1/jpeg/jdmarker.c ****       if (! get_dqt(cinfo))
1180:fltk-1.3.4-1/jpeg/jdmarker.c **** 	return JPEG_SUSPENDED;
1181:fltk-1.3.4-1/jpeg/jdmarker.c ****       break;
1182:fltk-1.3.4-1/jpeg/jdmarker.c **** 
1183:fltk-1.3.4-1/jpeg/jdmarker.c ****     case M_DRI:
1184:fltk-1.3.4-1/jpeg/jdmarker.c ****       if (! get_dri(cinfo))
1185:fltk-1.3.4-1/jpeg/jdmarker.c **** 	return JPEG_SUSPENDED;
1186:fltk-1.3.4-1/jpeg/jdmarker.c ****       break;
1187:fltk-1.3.4-1/jpeg/jdmarker.c **** 
1188:fltk-1.3.4-1/jpeg/jdmarker.c ****     case M_JPG8:
1189:fltk-1.3.4-1/jpeg/jdmarker.c ****       if (! get_lse(cinfo))
1190:fltk-1.3.4-1/jpeg/jdmarker.c **** 	return JPEG_SUSPENDED;
1191:fltk-1.3.4-1/jpeg/jdmarker.c ****       break;
1192:fltk-1.3.4-1/jpeg/jdmarker.c **** 
1193:fltk-1.3.4-1/jpeg/jdmarker.c ****     case M_APP0:
1194:fltk-1.3.4-1/jpeg/jdmarker.c ****     case M_APP1:
1195:fltk-1.3.4-1/jpeg/jdmarker.c ****     case M_APP2:
1196:fltk-1.3.4-1/jpeg/jdmarker.c ****     case M_APP3:
1197:fltk-1.3.4-1/jpeg/jdmarker.c ****     case M_APP4:
1198:fltk-1.3.4-1/jpeg/jdmarker.c ****     case M_APP5:
1199:fltk-1.3.4-1/jpeg/jdmarker.c ****     case M_APP6:
1200:fltk-1.3.4-1/jpeg/jdmarker.c ****     case M_APP7:
1201:fltk-1.3.4-1/jpeg/jdmarker.c ****     case M_APP8:
1202:fltk-1.3.4-1/jpeg/jdmarker.c ****     case M_APP9:
1203:fltk-1.3.4-1/jpeg/jdmarker.c ****     case M_APP10:
1204:fltk-1.3.4-1/jpeg/jdmarker.c ****     case M_APP11:
1205:fltk-1.3.4-1/jpeg/jdmarker.c ****     case M_APP12:
1206:fltk-1.3.4-1/jpeg/jdmarker.c ****     case M_APP13:
1207:fltk-1.3.4-1/jpeg/jdmarker.c ****     case M_APP14:
1208:fltk-1.3.4-1/jpeg/jdmarker.c ****     case M_APP15:
1209:fltk-1.3.4-1/jpeg/jdmarker.c ****       if (! (*((my_marker_ptr) cinfo->marker)->process_APPn[
1210:fltk-1.3.4-1/jpeg/jdmarker.c **** 		cinfo->unread_marker - (int) M_APP0]) (cinfo))
1211:fltk-1.3.4-1/jpeg/jdmarker.c **** 	return JPEG_SUSPENDED;
1212:fltk-1.3.4-1/jpeg/jdmarker.c ****       break;
1213:fltk-1.3.4-1/jpeg/jdmarker.c **** 
1214:fltk-1.3.4-1/jpeg/jdmarker.c ****     case M_COM:
1215:fltk-1.3.4-1/jpeg/jdmarker.c ****       if (! (*((my_marker_ptr) cinfo->marker)->process_COM) (cinfo))
1216:fltk-1.3.4-1/jpeg/jdmarker.c **** 	return JPEG_SUSPENDED;
1217:fltk-1.3.4-1/jpeg/jdmarker.c ****       break;
1218:fltk-1.3.4-1/jpeg/jdmarker.c **** 
1219:fltk-1.3.4-1/jpeg/jdmarker.c ****     case M_RST0:		/* these are all parameterless */
1220:fltk-1.3.4-1/jpeg/jdmarker.c ****     case M_RST1:
1221:fltk-1.3.4-1/jpeg/jdmarker.c ****     case M_RST2:
1222:fltk-1.3.4-1/jpeg/jdmarker.c ****     case M_RST3:
1223:fltk-1.3.4-1/jpeg/jdmarker.c ****     case M_RST4:
1224:fltk-1.3.4-1/jpeg/jdmarker.c ****     case M_RST5:
1225:fltk-1.3.4-1/jpeg/jdmarker.c ****     case M_RST6:
1226:fltk-1.3.4-1/jpeg/jdmarker.c ****     case M_RST7:
1227:fltk-1.3.4-1/jpeg/jdmarker.c ****     case M_TEM:
1228:fltk-1.3.4-1/jpeg/jdmarker.c ****       TRACEMS1(cinfo, 1, JTRC_PARMLESS_MARKER, cinfo->unread_marker);
1229:fltk-1.3.4-1/jpeg/jdmarker.c ****       break;
1230:fltk-1.3.4-1/jpeg/jdmarker.c **** 
1231:fltk-1.3.4-1/jpeg/jdmarker.c ****     case M_DNL:			/* Ignore DNL ... perhaps the wrong thing */
1232:fltk-1.3.4-1/jpeg/jdmarker.c ****       if (! skip_variable(cinfo))
1233:fltk-1.3.4-1/jpeg/jdmarker.c **** 	return JPEG_SUSPENDED;
1234:fltk-1.3.4-1/jpeg/jdmarker.c ****       break;
1235:fltk-1.3.4-1/jpeg/jdmarker.c **** 
1236:fltk-1.3.4-1/jpeg/jdmarker.c ****     default:			/* must be DHP, EXP, JPGn, or RESn */
1237:fltk-1.3.4-1/jpeg/jdmarker.c ****       /* For now, we treat the reserved markers as fatal errors since they are
1238:fltk-1.3.4-1/jpeg/jdmarker.c ****        * likely to be used to signal incompatible JPEG Part 3 extensions.
1239:fltk-1.3.4-1/jpeg/jdmarker.c ****        * Once the JPEG 3 version-number marker is well defined, this code
1240:fltk-1.3.4-1/jpeg/jdmarker.c ****        * ought to change!
1241:fltk-1.3.4-1/jpeg/jdmarker.c ****        */
1242:fltk-1.3.4-1/jpeg/jdmarker.c ****       ERREXIT1(cinfo, JERR_UNKNOWN_MARKER, cinfo->unread_marker);
1243:fltk-1.3.4-1/jpeg/jdmarker.c ****       break;
1244:fltk-1.3.4-1/jpeg/jdmarker.c ****     }
1245:fltk-1.3.4-1/jpeg/jdmarker.c ****     /* Successfully processed marker, so reset state variable */
1246:fltk-1.3.4-1/jpeg/jdmarker.c ****     cinfo->unread_marker = 0;
1247:fltk-1.3.4-1/jpeg/jdmarker.c ****   } /* end loop */
1248:fltk-1.3.4-1/jpeg/jdmarker.c **** }
1249:fltk-1.3.4-1/jpeg/jdmarker.c **** 
1250:fltk-1.3.4-1/jpeg/jdmarker.c **** 
1251:fltk-1.3.4-1/jpeg/jdmarker.c **** /*
1252:fltk-1.3.4-1/jpeg/jdmarker.c ****  * Read a restart marker, which is expected to appear next in the datastream;
1253:fltk-1.3.4-1/jpeg/jdmarker.c ****  * if the marker is not there, take appropriate recovery action.
1254:fltk-1.3.4-1/jpeg/jdmarker.c ****  * Returns FALSE if suspension is required.
1255:fltk-1.3.4-1/jpeg/jdmarker.c ****  *
1256:fltk-1.3.4-1/jpeg/jdmarker.c ****  * This is called by the entropy decoder after it has read an appropriate
1257:fltk-1.3.4-1/jpeg/jdmarker.c ****  * number of MCUs.  cinfo->unread_marker may be nonzero if the entropy decoder
1258:fltk-1.3.4-1/jpeg/jdmarker.c ****  * has already read a marker from the data source.  Under normal conditions
1259:fltk-1.3.4-1/jpeg/jdmarker.c ****  * cinfo->unread_marker will be reset to 0 before returning; if not reset,
1260:fltk-1.3.4-1/jpeg/jdmarker.c ****  * it holds a marker which the decoder will be unable to read past.
1261:fltk-1.3.4-1/jpeg/jdmarker.c ****  */
1262:fltk-1.3.4-1/jpeg/jdmarker.c **** 
1263:fltk-1.3.4-1/jpeg/jdmarker.c **** METHODDEF(boolean)
1264:fltk-1.3.4-1/jpeg/jdmarker.c **** read_restart_marker (j_decompress_ptr cinfo)
1265:fltk-1.3.4-1/jpeg/jdmarker.c **** {
 1358              		.loc 1 1265 0
 1359              		.cfi_startproc
 1360              	.LVL205:
 1361 0000 53       		pushq	%rbx
 1362              		.cfi_def_cfa_offset 16
 1363              		.cfi_offset 3, -16
1266:fltk-1.3.4-1/jpeg/jdmarker.c ****   /* Obtain a marker unless we already did. */
1267:fltk-1.3.4-1/jpeg/jdmarker.c ****   /* Note that next_marker will complain if it skips any data. */
1268:fltk-1.3.4-1/jpeg/jdmarker.c ****   if (cinfo->unread_marker == 0) {
 1364              		.loc 1 1268 0
 1365 0001 8B873C02 		movl	572(%rdi), %eax
 1365      0000
1265:fltk-1.3.4-1/jpeg/jdmarker.c ****   /* Obtain a marker unless we already did. */
 1366              		.loc 1 1265 0
 1367 0007 4889FB   		movq	%rdi, %rbx
 1368              		.loc 1 1268 0
 1369 000a 85C0     		testl	%eax, %eax
 1370 000c 7442     		je	.L163
 1371              	.LVL206:
 1372              	.L153:
1269:fltk-1.3.4-1/jpeg/jdmarker.c ****     if (! next_marker(cinfo))
1270:fltk-1.3.4-1/jpeg/jdmarker.c ****       return FALSE;
1271:fltk-1.3.4-1/jpeg/jdmarker.c ****   }
1272:fltk-1.3.4-1/jpeg/jdmarker.c **** 
1273:fltk-1.3.4-1/jpeg/jdmarker.c ****   if (cinfo->unread_marker ==
1274:fltk-1.3.4-1/jpeg/jdmarker.c ****       ((int) M_RST0 + cinfo->marker->next_restart_num)) {
 1373              		.loc 1 1274 0
 1374 000e 488B9368 		movq	616(%rbx), %rdx
 1374      020000
 1375 0015 8B7220   		movl	32(%rdx), %esi
1273:fltk-1.3.4-1/jpeg/jdmarker.c ****       ((int) M_RST0 + cinfo->marker->next_restart_num)) {
 1376              		.loc 1 1273 0
 1377 0018 8D96D000 		leal	208(%rsi), %edx
 1377      0000
 1378 001e 39C2     		cmpl	%eax, %edx
 1379 0020 743E     		je	.L164
1275:fltk-1.3.4-1/jpeg/jdmarker.c ****     /* Normal case --- swallow the marker and let entropy decoder continue */
1276:fltk-1.3.4-1/jpeg/jdmarker.c ****     TRACEMS1(cinfo, 3, JTRC_RST, cinfo->marker->next_restart_num);
1277:fltk-1.3.4-1/jpeg/jdmarker.c ****     cinfo->unread_marker = 0;
1278:fltk-1.3.4-1/jpeg/jdmarker.c ****   } else {
1279:fltk-1.3.4-1/jpeg/jdmarker.c ****     /* Uh-oh, the restart markers have been messed up. */
1280:fltk-1.3.4-1/jpeg/jdmarker.c ****     /* Let the data source manager determine how to resync. */
1281:fltk-1.3.4-1/jpeg/jdmarker.c ****     if (! (*cinfo->src->resync_to_restart) (cinfo,
 1380              		.loc 1 1281 0
 1381 0022 488B4328 		movq	40(%rbx), %rax
 1382 0026 4889DF   		movq	%rbx, %rdi
 1383 0029 FF5028   		call	*40(%rax)
 1384              	.LVL207:
 1385 002c 85C0     		testl	%eax, %eax
 1386 002e 7429     		je	.L158
 1387              	.L157:
1282:fltk-1.3.4-1/jpeg/jdmarker.c **** 					    cinfo->marker->next_restart_num))
1283:fltk-1.3.4-1/jpeg/jdmarker.c ****       return FALSE;
1284:fltk-1.3.4-1/jpeg/jdmarker.c ****   }
1285:fltk-1.3.4-1/jpeg/jdmarker.c **** 
1286:fltk-1.3.4-1/jpeg/jdmarker.c ****   /* Update next-restart state */
1287:fltk-1.3.4-1/jpeg/jdmarker.c ****   cinfo->marker->next_restart_num = (cinfo->marker->next_restart_num + 1) & 7;
 1388              		.loc 1 1287 0
 1389 0030 488B9368 		movq	616(%rbx), %rdx
 1389      020000
 1390 0037 8B4220   		movl	32(%rdx), %eax
 1391 003a 83C001   		addl	$1, %eax
 1392 003d 83E007   		andl	$7, %eax
 1393 0040 894220   		movl	%eax, 32(%rdx)
1288:fltk-1.3.4-1/jpeg/jdmarker.c **** 
1289:fltk-1.3.4-1/jpeg/jdmarker.c ****   return TRUE;
 1394              		.loc 1 1289 0
 1395 0043 B8010000 		movl	$1, %eax
 1395      00
1290:fltk-1.3.4-1/jpeg/jdmarker.c **** }
 1396              		.loc 1 1290 0
 1397 0048 5B       		popq	%rbx
 1398              		.cfi_remember_state
 1399              		.cfi_def_cfa_offset 8
 1400              	.LVL208:
 1401 0049 C3       		ret
 1402              	.LVL209:
 1403 004a 660F1F44 		.p2align 4,,10
 1403      0000
 1404              		.p2align 3
 1405              	.L163:
 1406              		.cfi_restore_state
1269:fltk-1.3.4-1/jpeg/jdmarker.c ****       return FALSE;
 1407              		.loc 1 1269 0
 1408 0050 E8000000 		call	next_marker
 1408      00
 1409              	.LVL210:
 1410 0055 85C0     		testl	%eax, %eax
 1411 0057 753F     		jne	.L154
 1412              	.L158:
1270:fltk-1.3.4-1/jpeg/jdmarker.c ****   }
 1413              		.loc 1 1270 0
 1414 0059 31C0     		xorl	%eax, %eax
 1415              		.loc 1 1290 0
 1416 005b 5B       		popq	%rbx
 1417              		.cfi_remember_state
 1418              		.cfi_def_cfa_offset 8
 1419              	.LVL211:
 1420 005c C3       		ret
 1421              	.LVL212:
 1422 005d 0F1F00   		.p2align 4,,10
 1423              		.p2align 3
 1424              	.L164:
 1425              		.cfi_restore_state
1276:fltk-1.3.4-1/jpeg/jdmarker.c ****     cinfo->unread_marker = 0;
 1426              		.loc 1 1276 0
 1427 0060 488B03   		movq	(%rbx), %rax
 1428 0063 BE030000 		movl	$3, %esi
 1428      00
 1429 0068 4889DF   		movq	%rbx, %rdi
 1430 006b C7402864 		movl	$100, 40(%rax)
 1430      000000
 1431 0072 488B9368 		movq	616(%rbx), %rdx
 1431      020000
 1432 0079 488B03   		movq	(%rbx), %rax
 1433 007c 8B5220   		movl	32(%rdx), %edx
 1434 007f 89502C   		movl	%edx, 44(%rax)
 1435 0082 488B03   		movq	(%rbx), %rax
 1436 0085 FF5008   		call	*8(%rax)
 1437              	.LVL213:
1277:fltk-1.3.4-1/jpeg/jdmarker.c ****   } else {
 1438              		.loc 1 1277 0
 1439 0088 C7833C02 		movl	$0, 572(%rbx)
 1439      00000000 
 1439      0000
 1440 0092 EB9C     		jmp	.L157
 1441              		.p2align 4,,10
 1442 0094 0F1F4000 		.p2align 3
 1443              	.L154:
 1444 0098 8B833C02 		movl	572(%rbx), %eax
 1444      0000
 1445 009e E96BFFFF 		jmp	.L153
 1445      FF
 1446              		.cfi_endproc
 1447              	.LFE77:
 1449              		.section	.text.unlikely.read_restart_marker
 1450              	.LCOLDE4:
 1451              		.section	.text.read_restart_marker
 1452              	.LHOTE4:
 1453              		.section	.text.unlikely.reset_marker_reader,"ax",@progbits
 1454              	.LCOLDB5:
 1455              		.section	.text.reset_marker_reader,"ax",@progbits
 1456              	.LHOTB5:
 1457              		.p2align 4,,15
 1459              	reset_marker_reader:
 1460              	.LFB79:
1291:fltk-1.3.4-1/jpeg/jdmarker.c **** 
1292:fltk-1.3.4-1/jpeg/jdmarker.c **** 
1293:fltk-1.3.4-1/jpeg/jdmarker.c **** /*
1294:fltk-1.3.4-1/jpeg/jdmarker.c ****  * This is the default resync_to_restart method for data source managers
1295:fltk-1.3.4-1/jpeg/jdmarker.c ****  * to use if they don't have any better approach.  Some data source managers
1296:fltk-1.3.4-1/jpeg/jdmarker.c ****  * may be able to back up, or may have additional knowledge about the data
1297:fltk-1.3.4-1/jpeg/jdmarker.c ****  * which permits a more intelligent recovery strategy; such managers would
1298:fltk-1.3.4-1/jpeg/jdmarker.c ****  * presumably supply their own resync method.
1299:fltk-1.3.4-1/jpeg/jdmarker.c ****  *
1300:fltk-1.3.4-1/jpeg/jdmarker.c ****  * read_restart_marker calls resync_to_restart if it finds a marker other than
1301:fltk-1.3.4-1/jpeg/jdmarker.c ****  * the restart marker it was expecting.  (This code is *not* used unless
1302:fltk-1.3.4-1/jpeg/jdmarker.c ****  * a nonzero restart interval has been declared.)  cinfo->unread_marker is
1303:fltk-1.3.4-1/jpeg/jdmarker.c ****  * the marker code actually found (might be anything, except 0 or FF).
1304:fltk-1.3.4-1/jpeg/jdmarker.c ****  * The desired restart marker number (0..7) is passed as a parameter.
1305:fltk-1.3.4-1/jpeg/jdmarker.c ****  * This routine is supposed to apply whatever error recovery strategy seems
1306:fltk-1.3.4-1/jpeg/jdmarker.c ****  * appropriate in order to position the input stream to the next data segment.
1307:fltk-1.3.4-1/jpeg/jdmarker.c ****  * Note that cinfo->unread_marker is treated as a marker appearing before
1308:fltk-1.3.4-1/jpeg/jdmarker.c ****  * the current data-source input point; usually it should be reset to zero
1309:fltk-1.3.4-1/jpeg/jdmarker.c ****  * before returning.
1310:fltk-1.3.4-1/jpeg/jdmarker.c ****  * Returns FALSE if suspension is required.
1311:fltk-1.3.4-1/jpeg/jdmarker.c ****  *
1312:fltk-1.3.4-1/jpeg/jdmarker.c ****  * This implementation is substantially constrained by wanting to treat the
1313:fltk-1.3.4-1/jpeg/jdmarker.c ****  * input as a data stream; this means we can't back up.  Therefore, we have
1314:fltk-1.3.4-1/jpeg/jdmarker.c ****  * only the following actions to work with:
1315:fltk-1.3.4-1/jpeg/jdmarker.c ****  *   1. Simply discard the marker and let the entropy decoder resume at next
1316:fltk-1.3.4-1/jpeg/jdmarker.c ****  *      byte of file.
1317:fltk-1.3.4-1/jpeg/jdmarker.c ****  *   2. Read forward until we find another marker, discarding intervening
1318:fltk-1.3.4-1/jpeg/jdmarker.c ****  *      data.  (In theory we could look ahead within the current bufferload,
1319:fltk-1.3.4-1/jpeg/jdmarker.c ****  *      without having to discard data if we don't find the desired marker.
1320:fltk-1.3.4-1/jpeg/jdmarker.c ****  *      This idea is not implemented here, in part because it makes behavior
1321:fltk-1.3.4-1/jpeg/jdmarker.c ****  *      dependent on buffer size and chance buffer-boundary positions.)
1322:fltk-1.3.4-1/jpeg/jdmarker.c ****  *   3. Leave the marker unread (by failing to zero cinfo->unread_marker).
1323:fltk-1.3.4-1/jpeg/jdmarker.c ****  *      This will cause the entropy decoder to process an empty data segment,
1324:fltk-1.3.4-1/jpeg/jdmarker.c ****  *      inserting dummy zeroes, and then we will reprocess the marker.
1325:fltk-1.3.4-1/jpeg/jdmarker.c ****  *
1326:fltk-1.3.4-1/jpeg/jdmarker.c ****  * #2 is appropriate if we think the desired marker lies ahead, while #3 is
1327:fltk-1.3.4-1/jpeg/jdmarker.c ****  * appropriate if the found marker is a future restart marker (indicating
1328:fltk-1.3.4-1/jpeg/jdmarker.c ****  * that we have missed the desired restart marker, probably because it got
1329:fltk-1.3.4-1/jpeg/jdmarker.c ****  * corrupted).
1330:fltk-1.3.4-1/jpeg/jdmarker.c ****  * We apply #2 or #3 if the found marker is a restart marker no more than
1331:fltk-1.3.4-1/jpeg/jdmarker.c ****  * two counts behind or ahead of the expected one.  We also apply #2 if the
1332:fltk-1.3.4-1/jpeg/jdmarker.c ****  * found marker is not a legal JPEG marker code (it's certainly bogus data).
1333:fltk-1.3.4-1/jpeg/jdmarker.c ****  * If the found marker is a restart marker more than 2 counts away, we do #1
1334:fltk-1.3.4-1/jpeg/jdmarker.c ****  * (too much risk that the marker is erroneous; with luck we will be able to
1335:fltk-1.3.4-1/jpeg/jdmarker.c ****  * resync at some future point).
1336:fltk-1.3.4-1/jpeg/jdmarker.c ****  * For any valid non-restart JPEG marker, we apply #3.  This keeps us from
1337:fltk-1.3.4-1/jpeg/jdmarker.c ****  * overrunning the end of a scan.  An implementation limited to single-scan
1338:fltk-1.3.4-1/jpeg/jdmarker.c ****  * files might find it better to apply #2 for markers other than EOI, since
1339:fltk-1.3.4-1/jpeg/jdmarker.c ****  * any other marker would have to be bogus data in that case.
1340:fltk-1.3.4-1/jpeg/jdmarker.c ****  */
1341:fltk-1.3.4-1/jpeg/jdmarker.c **** 
1342:fltk-1.3.4-1/jpeg/jdmarker.c **** GLOBAL(boolean)
1343:fltk-1.3.4-1/jpeg/jdmarker.c **** jpeg_resync_to_restart (j_decompress_ptr cinfo, int desired)
1344:fltk-1.3.4-1/jpeg/jdmarker.c **** {
1345:fltk-1.3.4-1/jpeg/jdmarker.c ****   int marker = cinfo->unread_marker;
1346:fltk-1.3.4-1/jpeg/jdmarker.c ****   int action = 1;
1347:fltk-1.3.4-1/jpeg/jdmarker.c ****   
1348:fltk-1.3.4-1/jpeg/jdmarker.c ****   /* Always put up a warning. */
1349:fltk-1.3.4-1/jpeg/jdmarker.c ****   WARNMS2(cinfo, JWRN_MUST_RESYNC, marker, desired);
1350:fltk-1.3.4-1/jpeg/jdmarker.c ****   
1351:fltk-1.3.4-1/jpeg/jdmarker.c ****   /* Outer loop handles repeated decision after scanning forward. */
1352:fltk-1.3.4-1/jpeg/jdmarker.c ****   for (;;) {
1353:fltk-1.3.4-1/jpeg/jdmarker.c ****     if (marker < (int) M_SOF0)
1354:fltk-1.3.4-1/jpeg/jdmarker.c ****       action = 2;		/* invalid marker */
1355:fltk-1.3.4-1/jpeg/jdmarker.c ****     else if (marker < (int) M_RST0 || marker > (int) M_RST7)
1356:fltk-1.3.4-1/jpeg/jdmarker.c ****       action = 3;		/* valid non-restart marker */
1357:fltk-1.3.4-1/jpeg/jdmarker.c ****     else {
1358:fltk-1.3.4-1/jpeg/jdmarker.c ****       if (marker == ((int) M_RST0 + ((desired+1) & 7)) ||
1359:fltk-1.3.4-1/jpeg/jdmarker.c **** 	  marker == ((int) M_RST0 + ((desired+2) & 7)))
1360:fltk-1.3.4-1/jpeg/jdmarker.c **** 	action = 3;		/* one of the next two expected restarts */
1361:fltk-1.3.4-1/jpeg/jdmarker.c ****       else if (marker == ((int) M_RST0 + ((desired-1) & 7)) ||
1362:fltk-1.3.4-1/jpeg/jdmarker.c **** 	       marker == ((int) M_RST0 + ((desired-2) & 7)))
1363:fltk-1.3.4-1/jpeg/jdmarker.c **** 	action = 2;		/* a prior restart, so advance */
1364:fltk-1.3.4-1/jpeg/jdmarker.c ****       else
1365:fltk-1.3.4-1/jpeg/jdmarker.c **** 	action = 1;		/* desired restart or too far away */
1366:fltk-1.3.4-1/jpeg/jdmarker.c ****     }
1367:fltk-1.3.4-1/jpeg/jdmarker.c ****     TRACEMS2(cinfo, 4, JTRC_RECOVERY_ACTION, marker, action);
1368:fltk-1.3.4-1/jpeg/jdmarker.c ****     switch (action) {
1369:fltk-1.3.4-1/jpeg/jdmarker.c ****     case 1:
1370:fltk-1.3.4-1/jpeg/jdmarker.c ****       /* Discard marker and let entropy decoder resume processing. */
1371:fltk-1.3.4-1/jpeg/jdmarker.c ****       cinfo->unread_marker = 0;
1372:fltk-1.3.4-1/jpeg/jdmarker.c ****       return TRUE;
1373:fltk-1.3.4-1/jpeg/jdmarker.c ****     case 2:
1374:fltk-1.3.4-1/jpeg/jdmarker.c ****       /* Scan to the next marker, and repeat the decision loop. */
1375:fltk-1.3.4-1/jpeg/jdmarker.c ****       if (! next_marker(cinfo))
1376:fltk-1.3.4-1/jpeg/jdmarker.c **** 	return FALSE;
1377:fltk-1.3.4-1/jpeg/jdmarker.c ****       marker = cinfo->unread_marker;
1378:fltk-1.3.4-1/jpeg/jdmarker.c ****       break;
1379:fltk-1.3.4-1/jpeg/jdmarker.c ****     case 3:
1380:fltk-1.3.4-1/jpeg/jdmarker.c ****       /* Return without advancing past this marker. */
1381:fltk-1.3.4-1/jpeg/jdmarker.c ****       /* Entropy decoder will be forced to process an empty segment. */
1382:fltk-1.3.4-1/jpeg/jdmarker.c ****       return TRUE;
1383:fltk-1.3.4-1/jpeg/jdmarker.c ****     }
1384:fltk-1.3.4-1/jpeg/jdmarker.c ****   } /* end loop */
1385:fltk-1.3.4-1/jpeg/jdmarker.c **** }
1386:fltk-1.3.4-1/jpeg/jdmarker.c **** 
1387:fltk-1.3.4-1/jpeg/jdmarker.c **** 
1388:fltk-1.3.4-1/jpeg/jdmarker.c **** /*
1389:fltk-1.3.4-1/jpeg/jdmarker.c ****  * Reset marker processing state to begin a fresh datastream.
1390:fltk-1.3.4-1/jpeg/jdmarker.c ****  */
1391:fltk-1.3.4-1/jpeg/jdmarker.c **** 
1392:fltk-1.3.4-1/jpeg/jdmarker.c **** METHODDEF(void)
1393:fltk-1.3.4-1/jpeg/jdmarker.c **** reset_marker_reader (j_decompress_ptr cinfo)
1394:fltk-1.3.4-1/jpeg/jdmarker.c **** {
 1461              		.loc 1 1394 0
 1462              		.cfi_startproc
 1463              	.LVL214:
1395:fltk-1.3.4-1/jpeg/jdmarker.c ****   my_marker_ptr marker = (my_marker_ptr) cinfo->marker;
 1464              		.loc 1 1395 0
 1465 0000 488B8768 		movq	616(%rdi), %rax
 1465      020000
 1466              	.LVL215:
1396:fltk-1.3.4-1/jpeg/jdmarker.c **** 
1397:fltk-1.3.4-1/jpeg/jdmarker.c ****   cinfo->comp_info = NULL;		/* until allocated by get_sof */
 1467              		.loc 1 1397 0
 1468 0007 48C78730 		movq	$0, 304(%rdi)
 1468      01000000 
 1468      000000
1398:fltk-1.3.4-1/jpeg/jdmarker.c ****   cinfo->input_scan_number = 0;		/* no SOS seen yet */
 1469              		.loc 1 1398 0
 1470 0012 C787AC00 		movl	$0, 172(%rdi)
 1470      00000000 
 1470      0000
1399:fltk-1.3.4-1/jpeg/jdmarker.c ****   cinfo->unread_marker = 0;		/* no pending marker */
 1471              		.loc 1 1399 0
 1472 001c C7873C02 		movl	$0, 572(%rdi)
 1472      00000000 
 1472      0000
1400:fltk-1.3.4-1/jpeg/jdmarker.c ****   marker->pub.saw_SOI = FALSE;		/* set internal state too */
 1473              		.loc 1 1400 0
 1474 0026 C7401800 		movl	$0, 24(%rax)
 1474      000000
1401:fltk-1.3.4-1/jpeg/jdmarker.c ****   marker->pub.saw_SOF = FALSE;
 1475              		.loc 1 1401 0
 1476 002d C7401C00 		movl	$0, 28(%rax)
 1476      000000
1402:fltk-1.3.4-1/jpeg/jdmarker.c ****   marker->pub.discarded_bytes = 0;
 1477              		.loc 1 1402 0
 1478 0034 C7402400 		movl	$0, 36(%rax)
 1478      000000
1403:fltk-1.3.4-1/jpeg/jdmarker.c ****   marker->cur_marker = NULL;
 1479              		.loc 1 1403 0
 1480 003b 48C780F8 		movq	$0, 248(%rax)
 1480      00000000 
 1480      000000
 1481 0046 C3       		ret
 1482              		.cfi_endproc
 1483              	.LFE79:
 1485              		.section	.text.unlikely.reset_marker_reader
 1486              	.LCOLDE5:
 1487              		.section	.text.reset_marker_reader
 1488              	.LHOTE5:
 1489              		.section	.text.unlikely.examine_app14,"ax",@progbits
 1490              	.LCOLDB6:
 1491              		.section	.text.examine_app14,"ax",@progbits
 1492              	.LHOTB6:
 1493              		.p2align 4,,15
 1495              	examine_app14:
 1496              	.LFB70:
 803:fltk-1.3.4-1/jpeg/jdmarker.c ****   unsigned int version, flags0, flags1, transform;
 1497              		.loc 1 803 0
 1498              		.cfi_startproc
 1499              	.LVL216:
 806:fltk-1.3.4-1/jpeg/jdmarker.c ****       GETJOCTET(data[0]) == 0x41 &&
 1500              		.loc 1 806 0
 1501 0000 83FA0B   		cmpl	$11, %edx
 1502 0003 7605     		jbe	.L167
 806:fltk-1.3.4-1/jpeg/jdmarker.c ****       GETJOCTET(data[0]) == 0x41 &&
 1503              		.loc 1 806 0 is_stmt 0 discriminator 1
 1504 0005 803E41   		cmpb	$65, (%rsi)
 1505 0008 7426     		je	.L171
 1506              	.L167:
 822:fltk-1.3.4-1/jpeg/jdmarker.c ****   }
 1507              		.loc 1 822 0 is_stmt 1
 1508 000a 488B07   		movq	(%rdi), %rax
 1509 000d 01D1     		addl	%edx, %ecx
 1510              	.LVL217:
 1511 000f BE010000 		movl	$1, %esi
 1511      00
 1512              	.LVL218:
 1513 0014 C7402850 		movl	$80, 40(%rax)
 1513      000000
 1514 001b 488B07   		movq	(%rdi), %rax
 1515 001e 89482C   		movl	%ecx, 44(%rax)
 1516 0021 488B07   		movq	(%rdi), %rax
 1517 0024 488B4008 		movq	8(%rax), %rax
 1518 0028 FFE0     		jmp	*%rax
 1519              	.LVL219:
 1520 002a 660F1F44 		.p2align 4,,10
 1520      0000
 1521              		.p2align 3
 1522              	.L171:
 807:fltk-1.3.4-1/jpeg/jdmarker.c ****       GETJOCTET(data[1]) == 0x64 &&
 1523              		.loc 1 807 0
 1524 0030 807E0164 		cmpb	$100, 1(%rsi)
 1525 0034 75D4     		jne	.L167
 808:fltk-1.3.4-1/jpeg/jdmarker.c ****       GETJOCTET(data[2]) == 0x6F &&
 1526              		.loc 1 808 0
 1527 0036 807E026F 		cmpb	$111, 2(%rsi)
 1528 003a 75CE     		jne	.L167
 809:fltk-1.3.4-1/jpeg/jdmarker.c ****       GETJOCTET(data[3]) == 0x62 &&
 1529              		.loc 1 809 0
 1530 003c 807E0362 		cmpb	$98, 3(%rsi)
 1531 0040 75C8     		jne	.L167
 810:fltk-1.3.4-1/jpeg/jdmarker.c ****       GETJOCTET(data[4]) == 0x65) {
 1532              		.loc 1 810 0
 1533 0042 807E0465 		cmpb	$101, 4(%rsi)
 1534 0046 75C2     		jne	.L167
 803:fltk-1.3.4-1/jpeg/jdmarker.c ****   unsigned int version, flags0, flags1, transform;
 1535              		.loc 1 803 0
 1536 0048 55       		pushq	%rbp
 1537              		.cfi_def_cfa_offset 16
 1538              		.cfi_offset 6, -16
 1539 0049 53       		pushq	%rbx
 1540              		.cfi_def_cfa_offset 24
 1541              		.cfi_offset 3, -24
 1542 004a 4889FB   		movq	%rdi, %rbx
 1543              	.LVL220:
 1544 004d 50       		pushq	%rax
 1545              		.cfi_def_cfa_offset 32
 1546              	.LVL221:
 1547              	.LBB30:
 1548              	.LBB31:
 814:fltk-1.3.4-1/jpeg/jdmarker.c ****     flags1 = (GETJOCTET(data[9]) << 8) + GETJOCTET(data[10]);
 1549              		.loc 1 814 0
 1550 004e 0FB64E07 		movzbl	7(%rsi), %ecx
 1551              	.LVL222:
 1552 0052 0FB64608 		movzbl	8(%rsi), %eax
 815:fltk-1.3.4-1/jpeg/jdmarker.c ****     transform = GETJOCTET(data[11]);
 1553              		.loc 1 815 0
 1554 0056 0FB65609 		movzbl	9(%rsi), %edx
 1555              	.LVL223:
 816:fltk-1.3.4-1/jpeg/jdmarker.c ****     TRACEMS4(cinfo, 1, JTRC_ADOBE, version, flags0, flags1, transform);
 1556              		.loc 1 816 0
 1557 005a 0FB66E0B 		movzbl	11(%rsi), %ebp
 814:fltk-1.3.4-1/jpeg/jdmarker.c ****     flags1 = (GETJOCTET(data[9]) << 8) + GETJOCTET(data[10]);
 1558              		.loc 1 814 0
 1559 005e C1E108   		sall	$8, %ecx
 1560 0061 01C1     		addl	%eax, %ecx
 1561              	.LVL224:
 815:fltk-1.3.4-1/jpeg/jdmarker.c ****     transform = GETJOCTET(data[11]);
 1562              		.loc 1 815 0
 1563 0063 0FB6460A 		movzbl	10(%rsi), %eax
 1564 0067 C1E208   		sall	$8, %edx
 1565 006a 01C2     		addl	%eax, %edx
 1566              	.LVL225:
 1567              	.LBB32:
 817:fltk-1.3.4-1/jpeg/jdmarker.c ****     cinfo->saw_Adobe_marker = TRUE;
 1568              		.loc 1 817 0
 1569 006c 488B07   		movq	(%rdi), %rax
 1570              	.LVL226:
 1571 006f 0FB67E05 		movzbl	5(%rsi), %edi
 1572              	.LVL227:
 1573 0073 0FB67606 		movzbl	6(%rsi), %esi
 1574              	.LVL228:
 1575 0077 895034   		movl	%edx, 52(%rax)
 1576 007a 400FB6D5 		movzbl	%bpl, %edx
 1577              	.LVL229:
 1578 007e 894830   		movl	%ecx, 48(%rax)
 1579 0081 C1E708   		sall	$8, %edi
 1580 0084 895038   		movl	%edx, 56(%rax)
 1581 0087 01FE     		addl	%edi, %esi
 1582 0089 4889DF   		movq	%rbx, %rdi
 1583 008c 89702C   		movl	%esi, 44(%rax)
 1584 008f 488B03   		movq	(%rbx), %rax
 1585              	.LVL230:
 1586 0092 BE010000 		movl	$1, %esi
 1586      00
 1587 0097 C740284E 		movl	$78, 40(%rax)
 1587      000000
 1588 009e 488B03   		movq	(%rbx), %rax
 1589 00a1 FF5008   		call	*8(%rax)
 1590              	.LVL231:
 1591              	.LBE32:
 818:fltk-1.3.4-1/jpeg/jdmarker.c ****     cinfo->Adobe_transform = (UINT8) transform;
 1592              		.loc 1 818 0
 1593 00a4 C7838401 		movl	$1, 388(%rbx)
 1593      00000100 
 1593      0000
 819:fltk-1.3.4-1/jpeg/jdmarker.c ****   } else {
 1594              		.loc 1 819 0
 1595 00ae 4088AB88 		movb	%bpl, 392(%rbx)
 1595      010000
 1596              	.LBE31:
 1597              	.LBE30:
 824:fltk-1.3.4-1/jpeg/jdmarker.c **** 
 1598              		.loc 1 824 0
 1599 00b5 5A       		popq	%rdx
 1600              		.cfi_def_cfa_offset 24
 1601 00b6 5B       		popq	%rbx
 1602              		.cfi_restore 3
 1603              		.cfi_def_cfa_offset 16
 1604              	.LVL232:
 1605 00b7 5D       		popq	%rbp
 1606              		.cfi_restore 6
 1607              		.cfi_def_cfa_offset 8
 1608              	.LVL233:
 1609 00b8 C3       		ret
 1610              		.cfi_endproc
 1611              	.LFE70:
 1613              		.section	.text.unlikely.examine_app14
 1614              	.LCOLDE6:
 1615              		.section	.text.examine_app14
 1616              	.LHOTE6:
 1617              		.section	.text.unlikely.get_interesting_appn,"ax",@progbits
 1618              	.LCOLDB7:
 1619              		.section	.text.get_interesting_appn,"ax",@progbits
 1620              	.LHOTB7:
 1621              		.p2align 4,,15
 1623              	get_interesting_appn:
 1624              	.LFB71:
 830:fltk-1.3.4-1/jpeg/jdmarker.c ****   INT32 length;
 1625              		.loc 1 830 0
 1626              		.cfi_startproc
 1627              	.LVL234:
 1628 0000 4157     		pushq	%r15
 1629              		.cfi_def_cfa_offset 16
 1630              		.cfi_offset 15, -16
 1631 0002 4156     		pushq	%r14
 1632              		.cfi_def_cfa_offset 24
 1633              		.cfi_offset 14, -24
 1634 0004 4155     		pushq	%r13
 1635              		.cfi_def_cfa_offset 32
 1636              		.cfi_offset 13, -32
 1637 0006 4154     		pushq	%r12
 1638              		.cfi_def_cfa_offset 40
 1639              		.cfi_offset 12, -40
 1640 0008 4989FC   		movq	%rdi, %r12
 1641 000b 55       		pushq	%rbp
 1642              		.cfi_def_cfa_offset 48
 1643              		.cfi_offset 6, -48
 1644 000c 53       		pushq	%rbx
 1645              		.cfi_def_cfa_offset 56
 1646              		.cfi_offset 3, -56
 1647 000d 4883EC38 		subq	$56, %rsp
 1648              		.cfi_def_cfa_offset 112
 834:fltk-1.3.4-1/jpeg/jdmarker.c **** 
 1649              		.loc 1 834 0
 1650 0011 4C8B7F28 		movq	40(%rdi), %r15
 1651              	.LVL235:
 830:fltk-1.3.4-1/jpeg/jdmarker.c ****   INT32 length;
 1652              		.loc 1 830 0
 1653 0015 64488B04 		movq	%fs:40, %rax
 1653      25280000 
 1653      00
 1654 001e 48894424 		movq	%rax, 40(%rsp)
 1654      28
 1655 0023 31C0     		xorl	%eax, %eax
 834:fltk-1.3.4-1/jpeg/jdmarker.c **** 
 1656              		.loc 1 834 0
 1657 0025 498B6F08 		movq	8(%r15), %rbp
 1658              	.LVL236:
 836:fltk-1.3.4-1/jpeg/jdmarker.c ****   length -= 2;
 1659              		.loc 1 836 0
 1660 0029 4885ED   		testq	%rbp, %rbp
 1661 002c 0F841601 		je	.L173
 1661      0000
 834:fltk-1.3.4-1/jpeg/jdmarker.c **** 
 1662              		.loc 1 834 0
 1663 0032 498B17   		movq	(%r15), %rdx
 1664              	.LVL237:
 1665              	.L174:
 836:fltk-1.3.4-1/jpeg/jdmarker.c ****   length -= 2;
 1666              		.loc 1 836 0 discriminator 5
 1667 0035 0FB602   		movzbl	(%rdx), %eax
 1668 0038 C1E008   		sall	$8, %eax
 1669 003b 4883ED01 		subq	$1, %rbp
 1670              	.LVL238:
 1671 003f 89C3     		movl	%eax, %ebx
 1672              	.LVL239:
 1673 0041 0F841901 		je	.L177
 1673      0000
 836:fltk-1.3.4-1/jpeg/jdmarker.c ****   length -= 2;
 1674              		.loc 1 836 0 is_stmt 0
 1675 0047 4883C201 		addq	$1, %rdx
 1676              	.LVL240:
 1677              	.L178:
 836:fltk-1.3.4-1/jpeg/jdmarker.c ****   length -= 2;
 1678              		.loc 1 836 0 discriminator 10
 1679 004b 0FB602   		movzbl	(%rdx), %eax
 1680 004e 4883ED01 		subq	$1, %rbp
 1681              	.LVL241:
 1682 0052 4C8D4201 		leaq	1(%rdx), %r8
 1683              	.LVL242:
 837:fltk-1.3.4-1/jpeg/jdmarker.c **** 
 1684              		.loc 1 837 0 is_stmt 1 discriminator 10
 1685 0056 4C8D6C03 		leaq	-2(%rbx,%rax), %r13
 1685      FE
 1686              	.LVL243:
 840:fltk-1.3.4-1/jpeg/jdmarker.c ****     numtoread = APPN_DATA_LEN;
 1687              		.loc 1 840 0 discriminator 10
 1688 005b 4983FD0D 		cmpq	$13, %r13
 1689 005f 7E4F     		jle	.L203
 841:fltk-1.3.4-1/jpeg/jdmarker.c ****   else if (length > 0)
 1690              		.loc 1 841 0
 1691 0061 41BE0E00 		movl	$14, %r14d
 1691      0000
 1692              	.L180:
 1693              	.LVL244:
 1694 0067 31DB     		xorl	%ebx, %ebx
 1695 0069 EB1D     		jmp	.L183
 1696              	.LVL245:
 1697 006b 0F1F4400 		.p2align 4,,10
 1697      00
 1698              		.p2align 3
 1699              	.L182:
 847:fltk-1.3.4-1/jpeg/jdmarker.c ****   length -= numtoread;
 1700              		.loc 1 847 0 discriminator 5
 1701 0070 4C8D4001 		leaq	1(%rax), %r8
 1702 0074 0FB600   		movzbl	(%rax), %eax
 1703              	.LVL246:
 1704 0077 4883ED01 		subq	$1, %rbp
 1705              	.LVL247:
 1706 007b 88441C10 		movb	%al, 16(%rsp,%rbx)
 1707              	.LVL248:
 1708 007f 4883C301 		addq	$1, %rbx
 1709              	.LVL249:
 846:fltk-1.3.4-1/jpeg/jdmarker.c ****     INPUT_BYTE(cinfo, b[i], return FALSE);
 1710              		.loc 1 846 0 discriminator 5
 1711 0083 4139DE   		cmpl	%ebx, %r14d
 1712 0086 7638     		jbe	.L204
 1713              	.L183:
 1714              	.LVL250:
 847:fltk-1.3.4-1/jpeg/jdmarker.c ****   length -= numtoread;
 1715              		.loc 1 847 0
 1716 0088 4885ED   		testq	%rbp, %rbp
 1717 008b 4C89C0   		movq	%r8, %rax
 1718 008e 75E0     		jne	.L182
 1719              	.LVL251:
 847:fltk-1.3.4-1/jpeg/jdmarker.c ****   length -= numtoread;
 1720              		.loc 1 847 0 is_stmt 0 discriminator 1
 1721 0090 4C89E7   		movq	%r12, %rdi
 1722 0093 41FF5718 		call	*24(%r15)
 1723              	.LVL252:
 1724 0097 85C0     		testl	%eax, %eax
 1725 0099 0F84B500 		je	.L179
 1725      0000
 847:fltk-1.3.4-1/jpeg/jdmarker.c ****   length -= numtoread;
 1726              		.loc 1 847 0 discriminator 4
 1727 009f 498B07   		movq	(%r15), %rax
 1728              	.LVL253:
 1729 00a2 498B6F08 		movq	8(%r15), %rbp
 1730              	.LVL254:
 1731 00a6 EBC8     		jmp	.L182
 1732              	.LVL255:
 1733 00a8 0F1F8400 		.p2align 4,,10
 1733      00000000 
 1734              		.p2align 3
 1735              	.L203:
 842:fltk-1.3.4-1/jpeg/jdmarker.c ****     numtoread = (unsigned int) length;
 1736              		.loc 1 842 0 is_stmt 1
 1737 00b0 4D85ED   		testq	%r13, %r13
 843:fltk-1.3.4-1/jpeg/jdmarker.c ****   else
 1738              		.loc 1 843 0
 1739 00b3 4589EE   		movl	%r13d, %r14d
 842:fltk-1.3.4-1/jpeg/jdmarker.c ****     numtoread = (unsigned int) length;
 1740              		.loc 1 842 0
 1741 00b6 7FAF     		jg	.L180
 1742 00b8 31C0     		xorl	%eax, %eax
 845:fltk-1.3.4-1/jpeg/jdmarker.c ****   for (i = 0; i < numtoread; i++)
 1743              		.loc 1 845 0
 1744 00ba 4531F6   		xorl	%r14d, %r14d
 1745 00bd EB04     		jmp	.L181
 1746              	.LVL256:
 1747 00bf 90       		.p2align 4,,10
 1748              		.p2align 3
 1749              	.L204:
 1750 00c0 4489F0   		movl	%r14d, %eax
 1751              	.LVL257:
 1752              	.L181:
 848:fltk-1.3.4-1/jpeg/jdmarker.c **** 
 1753              		.loc 1 848 0
 1754 00c3 4929C5   		subq	%rax, %r13
 1755              	.LVL258:
 851:fltk-1.3.4-1/jpeg/jdmarker.c ****   case M_APP0:
 1756              		.loc 1 851 0
 1757 00c6 418B8424 		movl	572(%r12), %eax
 1757      3C020000 
 1758 00ce 3DE00000 		cmpl	$224, %eax
 1758      00
 1759 00d3 0F84DF00 		je	.L185
 1759      0000
 1760 00d9 3DEE0000 		cmpl	$238, %eax
 1760      00
 1761 00de 0F859C00 		jne	.L205
 1761      0000
 856:fltk-1.3.4-1/jpeg/jdmarker.c ****     break;
 1762              		.loc 1 856 0
 1763 00e4 488D7424 		leaq	16(%rsp), %rsi
 1763      10
 1764 00e9 4C89E9   		movq	%r13, %rcx
 1765 00ec 4489F2   		movl	%r14d, %edx
 1766 00ef 4C89E7   		movq	%r12, %rdi
 1767 00f2 4C894424 		movq	%r8, 8(%rsp)
 1767      08
 1768 00f7 E8000000 		call	examine_app14
 1768      00
 1769              	.LVL259:
 857:fltk-1.3.4-1/jpeg/jdmarker.c ****   default:
 1770              		.loc 1 857 0
 1771 00fc 4C8B4424 		movq	8(%rsp), %r8
 1771      08
 1772              	.L187:
 866:fltk-1.3.4-1/jpeg/jdmarker.c ****     (*cinfo->src->skip_input_data) (cinfo, (long) length);
 1773              		.loc 1 866 0
 1774 0101 4D85ED   		testq	%r13, %r13
 865:fltk-1.3.4-1/jpeg/jdmarker.c ****   if (length > 0)
 1775              		.loc 1 865 0
 1776 0104 4D8907   		movq	%r8, (%r15)
 1777 0107 49896F08 		movq	%rbp, 8(%r15)
 869:fltk-1.3.4-1/jpeg/jdmarker.c **** }
 1778              		.loc 1 869 0
 1779 010b BB010000 		movl	$1, %ebx
 1779      00
 866:fltk-1.3.4-1/jpeg/jdmarker.c ****     (*cinfo->src->skip_input_data) (cinfo, (long) length);
 1780              		.loc 1 866 0
 1781 0110 7E0E     		jle	.L176
 867:fltk-1.3.4-1/jpeg/jdmarker.c **** 
 1782              		.loc 1 867 0
 1783 0112 498B4424 		movq	40(%r12), %rax
 1783      28
 1784 0117 4C89EE   		movq	%r13, %rsi
 1785 011a 4C89E7   		movq	%r12, %rdi
 1786 011d FF5020   		call	*32(%rax)
 1787              	.LVL260:
 1788              	.L176:
 870:fltk-1.3.4-1/jpeg/jdmarker.c **** 
 1789              		.loc 1 870 0
 1790 0120 488B4C24 		movq	40(%rsp), %rcx
 1790      28
 1791 0125 6448330C 		xorq	%fs:40, %rcx
 1791      25280000 
 1791      00
 1792 012e 89D8     		movl	%ebx, %eax
 1793 0130 0F85B600 		jne	.L206
 1793      0000
 1794 0136 4883C438 		addq	$56, %rsp
 1795              		.cfi_remember_state
 1796              		.cfi_def_cfa_offset 56
 1797 013a 5B       		popq	%rbx
 1798              		.cfi_def_cfa_offset 48
 1799 013b 5D       		popq	%rbp
 1800              		.cfi_def_cfa_offset 40
 1801 013c 415C     		popq	%r12
 1802              		.cfi_def_cfa_offset 32
 1803              	.LVL261:
 1804 013e 415D     		popq	%r13
 1805              		.cfi_def_cfa_offset 24
 1806 0140 415E     		popq	%r14
 1807              		.cfi_def_cfa_offset 16
 1808 0142 415F     		popq	%r15
 1809              		.cfi_def_cfa_offset 8
 1810              	.LVL262:
 1811 0144 C3       		ret
 1812              	.LVL263:
 1813              		.p2align 4,,10
 1814 0145 0F1F00   		.p2align 3
 1815              	.L173:
 1816              		.cfi_restore_state
 836:fltk-1.3.4-1/jpeg/jdmarker.c ****   length -= 2;
 1817              		.loc 1 836 0 discriminator 1
 1818 0148 41FF5718 		call	*24(%r15)
 1819              	.LVL264:
 1820 014c 85C0     		testl	%eax, %eax
 1821 014e 0F858C00 		jne	.L175
 1821      0000
 1822              	.L179:
 836:fltk-1.3.4-1/jpeg/jdmarker.c ****   length -= 2;
 1823              		.loc 1 836 0 is_stmt 0
 1824 0154 31DB     		xorl	%ebx, %ebx
 1825 0156 EBC8     		jmp	.L176
 1826              	.LVL265:
 1827 0158 0F1F8400 		.p2align 4,,10
 1827      00000000 
 1828              		.p2align 3
 1829              	.L177:
 836:fltk-1.3.4-1/jpeg/jdmarker.c ****   length -= 2;
 1830              		.loc 1 836 0 discriminator 6
 1831 0160 4C89E7   		movq	%r12, %rdi
 1832 0163 41FF5718 		call	*24(%r15)
 1833              	.LVL266:
 1834 0167 85C0     		testl	%eax, %eax
 1835 0169 74E9     		je	.L179
 836:fltk-1.3.4-1/jpeg/jdmarker.c ****   length -= 2;
 1836              		.loc 1 836 0 discriminator 9
 1837 016b 498B17   		movq	(%r15), %rdx
 1838              	.LVL267:
 1839 016e 498B6F08 		movq	8(%r15), %rbp
 1840              	.LVL268:
 1841 0172 E9D4FEFF 		jmp	.L178
 1841      FF
 1842              	.LVL269:
 1843 0177 660F1F84 		.p2align 4,,10
 1843      00000000 
 1843      00
 1844              		.p2align 3
 1845              	.L205:
 860:fltk-1.3.4-1/jpeg/jdmarker.c ****     break;
 1846              		.loc 1 860 0 is_stmt 1
 1847 0180 498B0424 		movq	(%r12), %rax
 1848 0184 4C894424 		movq	%r8, 8(%rsp)
 1848      08
 1849 0189 4C89E7   		movq	%r12, %rdi
 1850 018c C7402846 		movl	$70, 40(%rax)
 1850      000000
 1851 0193 498B0424 		movq	(%r12), %rax
 1852 0197 418B9424 		movl	572(%r12), %edx
 1852      3C020000 
 1853 019f 89502C   		movl	%edx, 44(%rax)
 1854 01a2 498B0424 		movq	(%r12), %rax
 1855 01a6 FF10     		call	*(%rax)
 1856              	.LVL270:
 1857 01a8 4C8B4424 		movq	8(%rsp), %r8
 1857      08
 861:fltk-1.3.4-1/jpeg/jdmarker.c ****   }
 1858              		.loc 1 861 0
 1859 01ad E94FFFFF 		jmp	.L187
 1859      FF
 1860              		.p2align 4,,10
 1861 01b2 660F1F44 		.p2align 3
 1861      0000
 1862              	.L185:
 853:fltk-1.3.4-1/jpeg/jdmarker.c ****     break;
 1863              		.loc 1 853 0
 1864 01b8 488D7424 		leaq	16(%rsp), %rsi
 1864      10
 1865 01bd 4C89E9   		movq	%r13, %rcx
 1866 01c0 4489F2   		movl	%r14d, %edx
 1867 01c3 4C89E7   		movq	%r12, %rdi
 1868 01c6 4C894424 		movq	%r8, 8(%rsp)
 1868      08
 1869 01cb E8000000 		call	examine_app0
 1869      00
 1870              	.LVL271:
 854:fltk-1.3.4-1/jpeg/jdmarker.c ****   case M_APP14:
 1871              		.loc 1 854 0
 1872 01d0 4C8B4424 		movq	8(%rsp), %r8
 1872      08
 1873 01d5 E927FFFF 		jmp	.L187
 1873      FF
 1874              	.LVL272:
 1875 01da 660F1F44 		.p2align 4,,10
 1875      0000
 1876              		.p2align 3
 1877              	.L175:
 836:fltk-1.3.4-1/jpeg/jdmarker.c ****   length -= 2;
 1878              		.loc 1 836 0 discriminator 4
 1879 01e0 498B17   		movq	(%r15), %rdx
 1880              	.LVL273:
 1881 01e3 498B6F08 		movq	8(%r15), %rbp
 1882              	.LVL274:
 1883 01e7 E949FEFF 		jmp	.L174
 1883      FF
 1884              	.LVL275:
 1885              	.L206:
 870:fltk-1.3.4-1/jpeg/jdmarker.c **** 
 1886              		.loc 1 870 0
 1887 01ec E8000000 		call	__stack_chk_fail
 1887      00
 1888              	.LVL276:
 1889              		.cfi_endproc
 1890              	.LFE71:
 1892              		.section	.text.unlikely.get_interesting_appn
 1893              	.LCOLDE7:
 1894              		.section	.text.get_interesting_appn
 1895              	.LHOTE7:
 1896              		.section	.text.unlikely.save_marker,"ax",@progbits
 1897              	.LCOLDB8:
 1898              		.section	.text.save_marker,"ax",@progbits
 1899              	.LHOTB8:
 1900              		.p2align 4,,15
 1902              	save_marker:
 1903              	.LFB72:
 878:fltk-1.3.4-1/jpeg/jdmarker.c ****   my_marker_ptr marker = (my_marker_ptr) cinfo->marker;
 1904              		.loc 1 878 0
 1905              		.cfi_startproc
 1906              	.LVL277:
 1907 0000 4157     		pushq	%r15
 1908              		.cfi_def_cfa_offset 16
 1909              		.cfi_offset 15, -16
 1910 0002 4156     		pushq	%r14
 1911              		.cfi_def_cfa_offset 24
 1912              		.cfi_offset 14, -24
 1913 0004 4989FE   		movq	%rdi, %r14
 1914 0007 4155     		pushq	%r13
 1915              		.cfi_def_cfa_offset 32
 1916              		.cfi_offset 13, -32
 1917 0009 4154     		pushq	%r12
 1918              		.cfi_def_cfa_offset 40
 1919              		.cfi_offset 12, -40
 1920 000b 55       		pushq	%rbp
 1921              		.cfi_def_cfa_offset 48
 1922              		.cfi_offset 6, -48
 1923 000c 53       		pushq	%rbx
 1924              		.cfi_def_cfa_offset 56
 1925              		.cfi_offset 3, -56
 1926 000d 4883EC28 		subq	$40, %rsp
 1927              		.cfi_def_cfa_offset 96
 879:fltk-1.3.4-1/jpeg/jdmarker.c ****   jpeg_saved_marker_ptr cur_marker = marker->cur_marker;
 1928              		.loc 1 879 0
 1929 0011 488B8F68 		movq	616(%rdi), %rcx
 1929      020000
 1930              	.LVL278:
 884:fltk-1.3.4-1/jpeg/jdmarker.c **** 
 1931              		.loc 1 884 0
 1932 0018 4C8B4728 		movq	40(%rdi), %r8
 880:fltk-1.3.4-1/jpeg/jdmarker.c ****   unsigned int bytes_read, data_length;
 1933              		.loc 1 880 0
 1934 001c 488B81F8 		movq	248(%rcx), %rax
 1934      000000
 884:fltk-1.3.4-1/jpeg/jdmarker.c **** 
 1935              		.loc 1 884 0
 1936 0023 4D8B20   		movq	(%r8), %r12
 1937 0026 498B6808 		movq	8(%r8), %rbp
 886:fltk-1.3.4-1/jpeg/jdmarker.c ****     /* begin reading a marker */
 1938              		.loc 1 886 0
 1939 002a 4885C0   		testq	%rax, %rax
 880:fltk-1.3.4-1/jpeg/jdmarker.c ****   unsigned int bytes_read, data_length;
 1940              		.loc 1 880 0
 1941 002d 48894424 		movq	%rax, 24(%rsp)
 1941      18
 1942              	.LVL279:
 886:fltk-1.3.4-1/jpeg/jdmarker.c ****     /* begin reading a marker */
 1943              		.loc 1 886 0
 1944 0032 0F84C901 		je	.L257
 1944      0000
 920:fltk-1.3.4-1/jpeg/jdmarker.c ****     data_length = cur_marker->data_length;
 1945              		.loc 1 920 0
 1946 0038 448BA900 		movl	256(%rcx), %r13d
 1946      010000
 921:fltk-1.3.4-1/jpeg/jdmarker.c ****     data = cur_marker->data + bytes_read;
 1947              		.loc 1 921 0
 1948 003f 488B4424 		movq	24(%rsp), %rax
 1948      18
 1949 0044 448B7810 		movl	16(%rax), %r15d
 920:fltk-1.3.4-1/jpeg/jdmarker.c ****     data_length = cur_marker->data_length;
 1950              		.loc 1 920 0
 1951 0048 4C89EB   		movq	%r13, %rbx
 1952              	.LVL280:
 922:fltk-1.3.4-1/jpeg/jdmarker.c ****   }
 1953              		.loc 1 922 0
 1954 004b 4C036818 		addq	24(%rax), %r13
 1955              	.LVL281:
 1956              	.L217:
 925:fltk-1.3.4-1/jpeg/jdmarker.c ****     INPUT_SYNC(cinfo);		/* move the restart point to here */
 1957              		.loc 1 925 0
 1958 004f 4439FB   		cmpl	%r15d, %ebx
 1959 0052 7354     		jnb	.L223
 1960              		.p2align 4,,10
 1961 0054 0F1F4000 		.p2align 3
 1962              	.L245:
 929:fltk-1.3.4-1/jpeg/jdmarker.c ****     /* Copy bytes with reasonable rapidity */
 1963              		.loc 1 929 0
 1964 0058 4885ED   		testq	%rbp, %rbp
 926:fltk-1.3.4-1/jpeg/jdmarker.c ****     marker->bytes_read = bytes_read;
 1965              		.loc 1 926 0
 1966 005b 4D8920   		movq	%r12, (%r8)
 1967 005e 49896808 		movq	%rbp, 8(%r8)
 927:fltk-1.3.4-1/jpeg/jdmarker.c ****     /* If there's not at least one byte in buffer, suspend */
 1968              		.loc 1 927 0
 1969 0062 89990001 		movl	%ebx, 256(%rcx)
 1969      0000
 929:fltk-1.3.4-1/jpeg/jdmarker.c ****     /* Copy bytes with reasonable rapidity */
 1970              		.loc 1 929 0
 1971 0068 0F840A01 		je	.L258
 1971      0000
 1972              	.L218:
 931:fltk-1.3.4-1/jpeg/jdmarker.c ****       *data++ = *next_input_byte++;
 1973              		.loc 1 931 0
 1974 006e 4885ED   		testq	%rbp, %rbp
 1975 0071 7430     		je	.L219
 1976 0073 4139DF   		cmpl	%ebx, %r15d
 1977 0076 770D     		ja	.L220
 1978 0078 EB29     		jmp	.L219
 1979 007a 660F1F44 		.p2align 4,,10
 1979      0000
 1980              		.p2align 3
 1981              	.L259:
 1982 0080 4885ED   		testq	%rbp, %rbp
 1983 0083 741E     		je	.L219
 1984              	.L220:
 932:fltk-1.3.4-1/jpeg/jdmarker.c ****       bytes_in_buffer--;
 1985              		.loc 1 932 0
 1986 0085 4983C401 		addq	$1, %r12
 1987              	.LVL282:
 1988 0089 410FB644 		movzbl	-1(%r12), %eax
 1988      24FF
 934:fltk-1.3.4-1/jpeg/jdmarker.c ****     }
 1989              		.loc 1 934 0
 1990 008f 83C301   		addl	$1, %ebx
 1991              	.LVL283:
 932:fltk-1.3.4-1/jpeg/jdmarker.c ****       bytes_in_buffer--;
 1992              		.loc 1 932 0
 1993 0092 4983C501 		addq	$1, %r13
 1994              	.LVL284:
 933:fltk-1.3.4-1/jpeg/jdmarker.c ****       bytes_read++;
 1995              		.loc 1 933 0
 1996 0096 4883ED01 		subq	$1, %rbp
 1997              	.LVL285:
 931:fltk-1.3.4-1/jpeg/jdmarker.c ****       *data++ = *next_input_byte++;
 1998              		.loc 1 931 0
 1999 009a 4139DF   		cmpl	%ebx, %r15d
 932:fltk-1.3.4-1/jpeg/jdmarker.c ****       bytes_in_buffer--;
 2000              		.loc 1 932 0
 2001 009d 418845FF 		movb	%al, -1(%r13)
 931:fltk-1.3.4-1/jpeg/jdmarker.c ****       *data++ = *next_input_byte++;
 2002              		.loc 1 931 0
 2003 00a1 77DD     		ja	.L259
 2004              	.L219:
 925:fltk-1.3.4-1/jpeg/jdmarker.c ****     INPUT_SYNC(cinfo);		/* move the restart point to here */
 2005              		.loc 1 925 0
 2006 00a3 4139DF   		cmpl	%ebx, %r15d
 2007 00a6 77B0     		ja	.L245
 2008              	.L223:
 2009              	.LVL286:
 941:fltk-1.3.4-1/jpeg/jdmarker.c ****       cinfo->marker_list = cur_marker;
 2010              		.loc 1 941 0
 2011 00a8 498B9698 		movq	408(%r14), %rdx
 2011      010000
 2012 00af 4885D2   		testq	%rdx, %rdx
 2013 00b2 750F     		jne	.L248
 2014 00b4 E90F0200 		jmp	.L260
 2014      00
 2015              	.LVL287:
 2016 00b9 0F1F8000 		.p2align 4,,10
 2016      000000
 2017              		.p2align 3
 2018              	.L233:
 2019              	.LBB33:
 2020 00c0 4889C2   		movq	%rax, %rdx
 2021              	.LVL288:
 2022              	.L248:
 945:fltk-1.3.4-1/jpeg/jdmarker.c **** 	prev = prev->next;
 2023              		.loc 1 945 0
 2024 00c3 488B02   		movq	(%rdx), %rax
 2025 00c6 4885C0   		testq	%rax, %rax
 2026 00c9 75F5     		jne	.L233
 947:fltk-1.3.4-1/jpeg/jdmarker.c ****     }
 2027              		.loc 1 947 0
 2028 00cb 488B4424 		movq	24(%rsp), %rax
 2028      18
 2029 00d0 488902   		movq	%rax, (%rdx)
 2030              	.LVL289:
 2031              	.L226:
 2032              	.LBE33:
 950:fltk-1.3.4-1/jpeg/jdmarker.c ****     length = cur_marker->original_length - data_length;
 2033              		.loc 1 950 0
 2034 00d3 488B4424 		movq	24(%rsp), %rax
 2034      18
 951:fltk-1.3.4-1/jpeg/jdmarker.c ****   }
 2035              		.loc 1 951 0
 2036 00d8 8B580C   		movl	12(%rax), %ebx
 950:fltk-1.3.4-1/jpeg/jdmarker.c ****     length = cur_marker->original_length - data_length;
 2037              		.loc 1 950 0
 2038 00db 488B7018 		movq	24(%rax), %rsi
 2039              	.LVL290:
 951:fltk-1.3.4-1/jpeg/jdmarker.c ****   }
 2040              		.loc 1 951 0
 2041 00df 4429FB   		subl	%r15d, %ebx
 2042              	.LVL291:
 2043              	.L214:
 954:fltk-1.3.4-1/jpeg/jdmarker.c **** 
 2044              		.loc 1 954 0
 2045 00e2 48C781F8 		movq	$0, 248(%rcx)
 2045      00000000 
 2045      000000
 957:fltk-1.3.4-1/jpeg/jdmarker.c ****   case M_APP0:
 2046              		.loc 1 957 0
 2047 00ed 418B863C 		movl	572(%r14), %eax
 2047      020000
 2048 00f4 3DE00000 		cmpl	$224, %eax
 2048      00
 2049 00f9 0F84BE00 		je	.L229
 2049      0000
 2050 00ff 3DEE0000 		cmpl	$238, %eax
 2050      00
 2051 0104 0F849900 		je	.L230
 2051      0000
 965:fltk-1.3.4-1/jpeg/jdmarker.c **** 	     (int) (data_length + length));
 2052              		.loc 1 965 0
 2053 010a 498B06   		movq	(%r14), %rax
 2054 010d 4101DF   		addl	%ebx, %r15d
 2055 0110 4C894424 		movq	%r8, 8(%rsp)
 2055      08
 2056 0115 BE010000 		movl	$1, %esi
 2056      00
 2057              	.LVL292:
 2058 011a 4C89F7   		movq	%r14, %rdi
 2059 011d C740285D 		movl	$93, 40(%rax)
 2059      000000
 2060 0124 498B06   		movq	(%r14), %rax
 2061 0127 418B963C 		movl	572(%r14), %edx
 2061      020000
 2062 012e 89502C   		movl	%edx, 44(%rax)
 2063 0131 498B06   		movq	(%r14), %rax
 2064 0134 44897830 		movl	%r15d, 48(%rax)
 2065 0138 498B06   		movq	(%r14), %rax
 2066 013b FF5008   		call	*8(%rax)
 2067              	.LVL293:
 2068 013e 4C8B4424 		movq	8(%rsp), %r8
 2068      08
 2069              	.L231:
 972:fltk-1.3.4-1/jpeg/jdmarker.c ****     (*cinfo->src->skip_input_data) (cinfo, (long) length);
 2070              		.loc 1 972 0
 2071 0143 4885DB   		testq	%rbx, %rbx
 971:fltk-1.3.4-1/jpeg/jdmarker.c ****   if (length > 0)
 2072              		.loc 1 971 0
 2073 0146 49896808 		movq	%rbp, 8(%r8)
 2074 014a 4D8920   		movq	%r12, (%r8)
 975:fltk-1.3.4-1/jpeg/jdmarker.c **** }
 2075              		.loc 1 975 0
 2076 014d BD010000 		movl	$1, %ebp
 2076      00
 972:fltk-1.3.4-1/jpeg/jdmarker.c ****     (*cinfo->src->skip_input_data) (cinfo, (long) length);
 2077              		.loc 1 972 0
 2078 0152 7E0D     		jle	.L211
 973:fltk-1.3.4-1/jpeg/jdmarker.c **** 
 2079              		.loc 1 973 0
 2080 0154 498B4628 		movq	40(%r14), %rax
 2081 0158 4889DE   		movq	%rbx, %rsi
 2082 015b 4C89F7   		movq	%r14, %rdi
 2083 015e FF5020   		call	*32(%rax)
 2084              	.LVL294:
 2085              	.L211:
 976:fltk-1.3.4-1/jpeg/jdmarker.c **** 
 2086              		.loc 1 976 0
 2087 0161 4883C428 		addq	$40, %rsp
 2088              		.cfi_remember_state
 2089              		.cfi_def_cfa_offset 56
 2090 0165 89E8     		movl	%ebp, %eax
 2091 0167 5B       		popq	%rbx
 2092              		.cfi_def_cfa_offset 48
 2093 0168 5D       		popq	%rbp
 2094              		.cfi_def_cfa_offset 40
 2095 0169 415C     		popq	%r12
 2096              		.cfi_def_cfa_offset 32
 2097 016b 415D     		popq	%r13
 2098              		.cfi_def_cfa_offset 24
 2099 016d 415E     		popq	%r14
 2100              		.cfi_def_cfa_offset 16
 2101              	.LVL295:
 2102 016f 415F     		popq	%r15
 2103              		.cfi_def_cfa_offset 8
 2104 0171 C3       		ret
 2105              	.LVL296:
 2106              		.p2align 4,,10
 2107 0172 660F1F44 		.p2align 3
 2107      0000
 2108              	.L258:
 2109              		.cfi_restore_state
 2110 0178 48894C24 		movq	%rcx, 16(%rsp)
 2110      10
 929:fltk-1.3.4-1/jpeg/jdmarker.c ****     /* Copy bytes with reasonable rapidity */
 2111              		.loc 1 929 0 discriminator 1
 2112 017d 4C89F7   		movq	%r14, %rdi
 2113 0180 4C894424 		movq	%r8, 8(%rsp)
 2113      08
 2114 0185 41FF5018 		call	*24(%r8)
 2115              	.LVL297:
 2116 0189 85C0     		testl	%eax, %eax
 2117 018b 746D     		je	.L213
 929:fltk-1.3.4-1/jpeg/jdmarker.c ****     /* Copy bytes with reasonable rapidity */
 2118              		.loc 1 929 0 is_stmt 0 discriminator 3
 2119 018d 4C8B4424 		movq	8(%rsp), %r8
 2119      08
 2120 0192 488B4C24 		movq	16(%rsp), %rcx
 2120      10
 2121 0197 4D8B20   		movq	(%r8), %r12
 2122              	.LVL298:
 2123 019a 498B6808 		movq	8(%r8), %rbp
 2124              	.LVL299:
 2125 019e E9CBFEFF 		jmp	.L218
 2125      FF
 2126              	.LVL300:
 2127              	.L230:
 962:fltk-1.3.4-1/jpeg/jdmarker.c ****     break;
 2128              		.loc 1 962 0 is_stmt 1
 2129 01a3 4889D9   		movq	%rbx, %rcx
 2130 01a6 4489FA   		movl	%r15d, %edx
 2131 01a9 4C89F7   		movq	%r14, %rdi
 2132 01ac 4C894424 		movq	%r8, 8(%rsp)
 2132      08
 2133 01b1 E8000000 		call	examine_app14
 2133      00
 2134              	.LVL301:
 963:fltk-1.3.4-1/jpeg/jdmarker.c ****   default:
 2135              		.loc 1 963 0
 2136 01b6 4C8B4424 		movq	8(%rsp), %r8
 2136      08
 2137 01bb EB86     		jmp	.L231
 2138              	.LVL302:
 2139              	.L229:
 959:fltk-1.3.4-1/jpeg/jdmarker.c ****     break;
 2140              		.loc 1 959 0
 2141 01bd 4889D9   		movq	%rbx, %rcx
 2142 01c0 4489FA   		movl	%r15d, %edx
 2143 01c3 4C89F7   		movq	%r14, %rdi
 2144 01c6 4C894424 		movq	%r8, 8(%rsp)
 2144      08
 2145 01cb E8000000 		call	examine_app0
 2145      00
 2146              	.LVL303:
 960:fltk-1.3.4-1/jpeg/jdmarker.c ****   case M_APP14:
 2147              		.loc 1 960 0
 2148 01d0 4C8B4424 		movq	8(%rsp), %r8
 2148      08
 2149 01d5 E969FFFF 		jmp	.L231
 2149      FF
 2150              	.LVL304:
 2151              	.L261:
 2152 01da 48894C24 		movq	%rcx, 16(%rsp)
 2152      10
 888:fltk-1.3.4-1/jpeg/jdmarker.c ****     length -= 2;
 2153              		.loc 1 888 0 discriminator 1
 2154 01df 4C894424 		movq	%r8, 8(%rsp)
 2154      08
 2155 01e4 41FF5018 		call	*24(%r8)
 2156              	.LVL305:
 2157 01e8 85C0     		testl	%eax, %eax
 2158 01ea 4C8B4424 		movq	8(%rsp), %r8
 2158      08
 2159 01ef 488B4C24 		movq	16(%rsp), %rcx
 2159      10
 2160 01f4 0F851801 		jne	.L210
 2160      0000
 2161              	.LVL306:
 2162              	.L213:
 888:fltk-1.3.4-1/jpeg/jdmarker.c ****     length -= 2;
 2163              		.loc 1 888 0 is_stmt 0
 2164 01fa 31ED     		xorl	%ebp, %ebp
 2165              	.LVL307:
 2166 01fc E960FFFF 		jmp	.L211
 2166      FF
 2167              	.LVL308:
 2168              	.L257:
 2169 0201 4885ED   		testq	%rbp, %rbp
 2170 0204 74D4     		je	.L261
 2171              	.LVL309:
 2172              	.L209:
 888:fltk-1.3.4-1/jpeg/jdmarker.c ****     length -= 2;
 2173              		.loc 1 888 0 discriminator 5
 2174 0206 410FB61C 		movzbl	(%r12), %ebx
 2174      24
 2175 020b 498D4424 		leaq	1(%r12), %rax
 2175      01
 2176              	.LVL310:
 2177 0210 C1E308   		sall	$8, %ebx
 2178              	.LVL311:
 2179 0213 4883ED01 		subq	$1, %rbp
 2180              	.LVL312:
 2181 0217 0F84C600 		je	.L262
 2181      0000
 2182              	.L212:
 888:fltk-1.3.4-1/jpeg/jdmarker.c ****     length -= 2;
 2183              		.loc 1 888 0 discriminator 10
 2184 021d 4C8D6001 		leaq	1(%rax), %r12
 2185 0221 0FB600   		movzbl	(%rax), %eax
 2186              	.LVL313:
 2187 0224 4883ED01 		subq	$1, %rbp
 2188              	.LVL314:
 889:fltk-1.3.4-1/jpeg/jdmarker.c ****     if (length >= 0) {		/* watch out for bogus length word */
 2189              		.loc 1 889 0 is_stmt 1 discriminator 10
 2190 0228 488D5C03 		leaq	-2(%rbx,%rax), %rbx
 2190      FE
 2191              	.LVL315:
 890:fltk-1.3.4-1/jpeg/jdmarker.c ****       /* figure out how much we want to save */
 2192              		.loc 1 890 0 discriminator 10
 2193 022d 4885DB   		testq	%rbx, %rbx
 2194 0230 0F88A300 		js	.L232
 2194      0000
 2195              	.LBB34:
 893:fltk-1.3.4-1/jpeg/jdmarker.c **** 	limit = marker->length_limit_COM;
 2196              		.loc 1 893 0
 2197 0236 418B863C 		movl	572(%r14), %eax
 2197      020000
 2198 023d 3DFE0000 		cmpl	$254, %eax
 2198      00
 2199 0242 0F84D600 		je	.L263
 2199      0000
 896:fltk-1.3.4-1/jpeg/jdmarker.c ****       if ((unsigned int) length < limit)
 2200              		.loc 1 896 0
 2201 0248 2DE00000 		subl	$224, %eax
 2201      00
 2202 024d 4898     		cltq
 2203 024f 448BBC81 		movl	180(%rcx,%rax,4), %r15d
 2203      B4000000 
 2204              	.LVL316:
 2205              	.L216:
 2206 0257 4139DF   		cmpl	%ebx, %r15d
 901:fltk-1.3.4-1/jpeg/jdmarker.c **** 				    SIZEOF(struct jpeg_marker_struct) + limit);
 2207              		.loc 1 901 0
 2208 025a 498B4608 		movq	8(%r14), %rax
 2209 025e 4C894424 		movq	%r8, 16(%rsp)
 2209      10
 2210 0263 440F47FB 		cmova	%ebx, %r15d
 2211              	.LVL317:
 2212 0267 48894C24 		movq	%rcx, 8(%rsp)
 2212      08
 2213              	.LVL318:
 900:fltk-1.3.4-1/jpeg/jdmarker.c **** 	(*cinfo->mem->alloc_large) ((j_common_ptr) cinfo, JPOOL_IMAGE,
 2214              		.loc 1 900 0
 2215 026c BE010000 		movl	$1, %esi
 2215      00
 2216 0271 4489FA   		movl	%r15d, %edx
 2217 0274 4C89F7   		movq	%r14, %rdi
 2218 0277 4883C220 		addq	$32, %rdx
 2219 027b FF5008   		call	*8(%rax)
 2220              	.LVL319:
 909:fltk-1.3.4-1/jpeg/jdmarker.c ****       marker->bytes_read = 0;
 2221              		.loc 1 909 0
 2222 027e 488B4C24 		movq	8(%rsp), %rcx
 2222      08
 900:fltk-1.3.4-1/jpeg/jdmarker.c **** 	(*cinfo->mem->alloc_large) ((j_common_ptr) cinfo, JPOOL_IMAGE,
 2223              		.loc 1 900 0
 2224 0283 4889C6   		movq	%rax, %rsi
 903:fltk-1.3.4-1/jpeg/jdmarker.c ****       cur_marker->marker = (UINT8) cinfo->unread_marker;
 2225              		.loc 1 903 0
 2226 0286 48C70000 		movq	$0, (%rax)
 2226      000000
 900:fltk-1.3.4-1/jpeg/jdmarker.c **** 	(*cinfo->mem->alloc_large) ((j_common_ptr) cinfo, JPOOL_IMAGE,
 2227              		.loc 1 900 0
 2228 028d 48894424 		movq	%rax, 24(%rsp)
 2228      18
 2229              	.LVL320:
 904:fltk-1.3.4-1/jpeg/jdmarker.c ****       cur_marker->original_length = (unsigned int) length;
 2230              		.loc 1 904 0
 2231 0292 418B863C 		movl	572(%r14), %eax
 2231      020000
 2232              	.LVL321:
 908:fltk-1.3.4-1/jpeg/jdmarker.c ****       marker->cur_marker = cur_marker;
 2233              		.loc 1 908 0
 2234 0299 4C8D6E20 		leaq	32(%rsi), %r13
 905:fltk-1.3.4-1/jpeg/jdmarker.c ****       cur_marker->data_length = limit;
 2235              		.loc 1 905 0
 2236 029d 895E0C   		movl	%ebx, 12(%rsi)
 906:fltk-1.3.4-1/jpeg/jdmarker.c ****       /* data area is just beyond the jpeg_marker_struct */
 2237              		.loc 1 906 0
 2238 02a0 44897E10 		movl	%r15d, 16(%rsi)
 911:fltk-1.3.4-1/jpeg/jdmarker.c ****       data_length = limit;
 2239              		.loc 1 911 0
 2240 02a4 31DB     		xorl	%ebx, %ebx
 2241              	.LVL322:
 908:fltk-1.3.4-1/jpeg/jdmarker.c ****       marker->cur_marker = cur_marker;
 2242              		.loc 1 908 0
 2243 02a6 4C896E18 		movq	%r13, 24(%rsi)
 2244              	.LVL323:
 2245              	.LBE34:
 2246 02aa 4C8B4424 		movq	16(%rsp), %r8
 2246      10
 2247              	.LBB35:
 904:fltk-1.3.4-1/jpeg/jdmarker.c ****       cur_marker->original_length = (unsigned int) length;
 2248              		.loc 1 904 0
 2249 02af 884608   		movb	%al, 8(%rsi)
 909:fltk-1.3.4-1/jpeg/jdmarker.c ****       marker->bytes_read = 0;
 2250              		.loc 1 909 0
 2251 02b2 4889B1F8 		movq	%rsi, 248(%rcx)
 2251      000000
 910:fltk-1.3.4-1/jpeg/jdmarker.c ****       bytes_read = 0;
 2252              		.loc 1 910 0
 2253 02b9 C7810001 		movl	$0, 256(%rcx)
 2253      00000000 
 2253      0000
 2254              	.LVL324:
 2255              	.LBE35:
 2256 02c3 E987FDFF 		jmp	.L217
 2256      FF
 2257              	.LVL325:
 2258              	.L260:
 942:fltk-1.3.4-1/jpeg/jdmarker.c ****     } else {
 2259              		.loc 1 942 0
 2260 02c8 488B4424 		movq	24(%rsp), %rax
 2260      18
 2261 02cd 49898698 		movq	%rax, 408(%r14)
 2261      010000
 2262 02d4 E9FAFDFF 		jmp	.L226
 2262      FF
 2263              	.LVL326:
 2264              	.L232:
 915:fltk-1.3.4-1/jpeg/jdmarker.c ****       data = NULL;
 2265              		.loc 1 915 0
 2266 02d9 4531FF   		xorl	%r15d, %r15d
 916:fltk-1.3.4-1/jpeg/jdmarker.c ****     }
 2267              		.loc 1 916 0
 2268 02dc 31F6     		xorl	%esi, %esi
 2269 02de E9FFFDFF 		jmp	.L214
 2269      FF
 2270              	.LVL327:
 2271              	.L262:
 2272 02e3 48894C24 		movq	%rcx, 16(%rsp)
 2272      10
 888:fltk-1.3.4-1/jpeg/jdmarker.c ****     length -= 2;
 2273              		.loc 1 888 0 discriminator 6
 2274 02e8 4C89F7   		movq	%r14, %rdi
 2275 02eb 4C894424 		movq	%r8, 8(%rsp)
 2275      08
 2276 02f0 41FF5018 		call	*24(%r8)
 2277              	.LVL328:
 2278 02f4 85C0     		testl	%eax, %eax
 2279 02f6 0F84FEFE 		je	.L213
 2279      FFFF
 888:fltk-1.3.4-1/jpeg/jdmarker.c ****     length -= 2;
 2280              		.loc 1 888 0 is_stmt 0 discriminator 9
 2281 02fc 4C8B4424 		movq	8(%rsp), %r8
 2281      08
 2282 0301 488B4C24 		movq	16(%rsp), %rcx
 2282      10
 2283 0306 498B00   		movq	(%r8), %rax
 2284              	.LVL329:
 2285 0309 498B6808 		movq	8(%r8), %rbp
 2286              	.LVL330:
 2287 030d E90BFFFF 		jmp	.L212
 2287      FF
 2288              	.LVL331:
 2289              	.L210:
 888:fltk-1.3.4-1/jpeg/jdmarker.c ****     length -= 2;
 2290              		.loc 1 888 0 discriminator 4
 2291 0312 4D8B20   		movq	(%r8), %r12
 2292              	.LVL332:
 2293 0315 498B6808 		movq	8(%r8), %rbp
 2294              	.LVL333:
 2295 0319 E9E8FEFF 		jmp	.L209
 2295      FF
 2296              	.LVL334:
 2297              	.L263:
 2298              	.LBB36:
 894:fltk-1.3.4-1/jpeg/jdmarker.c ****       else
 2299              		.loc 1 894 0 is_stmt 1
 2300 031e 448BB9B0 		movl	176(%rcx), %r15d
 2300      000000
 2301              	.LVL335:
 2302 0325 E92DFFFF 		jmp	.L216
 2302      FF
 2303              	.LBE36:
 2304              		.cfi_endproc
 2305              	.LFE72:
 2307              		.section	.text.unlikely.save_marker
 2308              	.LCOLDE8:
 2309              		.section	.text.save_marker
 2310              	.LHOTE8:
 2311              		.section	.text.unlikely.get_dht,"ax",@progbits
 2312              	.LCOLDB9:
 2313              		.section	.text.get_dht,"ax",@progbits
 2314              	.LHOTB9:
 2315              		.p2align 4,,15
 2317              	get_dht:
 2318              	.LFB65:
 461:fltk-1.3.4-1/jpeg/jdmarker.c ****   INT32 length;
 2319              		.loc 1 461 0
 2320              		.cfi_startproc
 2321              	.LVL336:
 2322 0000 4157     		pushq	%r15
 2323              		.cfi_def_cfa_offset 16
 2324              		.cfi_offset 15, -16
 2325 0002 4156     		pushq	%r14
 2326              		.cfi_def_cfa_offset 24
 2327              		.cfi_offset 14, -24
 2328 0004 4989FE   		movq	%rdi, %r14
 2329 0007 4155     		pushq	%r13
 2330              		.cfi_def_cfa_offset 32
 2331              		.cfi_offset 13, -32
 2332 0009 4154     		pushq	%r12
 2333              		.cfi_def_cfa_offset 40
 2334              		.cfi_offset 12, -40
 2335 000b 55       		pushq	%rbp
 2336              		.cfi_def_cfa_offset 48
 2337              		.cfi_offset 6, -48
 2338 000c 53       		pushq	%rbx
 2339              		.cfi_def_cfa_offset 56
 2340              		.cfi_offset 3, -56
 2341 000d 4881EC68 		subq	$360, %rsp
 2341      010000
 2342              		.cfi_def_cfa_offset 416
 467:fltk-1.3.4-1/jpeg/jdmarker.c **** 
 2343              		.loc 1 467 0
 2344 0014 4C8B6F28 		movq	40(%rdi), %r13
 2345              	.LVL337:
 461:fltk-1.3.4-1/jpeg/jdmarker.c ****   INT32 length;
 2346              		.loc 1 461 0
 2347 0018 64488B04 		movq	%fs:40, %rax
 2347      25280000 
 2347      00
 2348 0021 48898424 		movq	%rax, 344(%rsp)
 2348      58010000 
 2349 0029 31C0     		xorl	%eax, %eax
 467:fltk-1.3.4-1/jpeg/jdmarker.c **** 
 2350              		.loc 1 467 0
 2351 002b 498B5D08 		movq	8(%r13), %rbx
 2352              	.LVL338:
 469:fltk-1.3.4-1/jpeg/jdmarker.c ****   length -= 2;
 2353              		.loc 1 469 0
 2354 002f 4885DB   		testq	%rbx, %rbx
 2355 0032 0F842803 		je	.L265
 2355      0000
 467:fltk-1.3.4-1/jpeg/jdmarker.c **** 
 2356              		.loc 1 467 0
 2357 0038 498B5500 		movq	0(%r13), %rdx
 2358              	.LVL339:
 2359              	.L266:
 469:fltk-1.3.4-1/jpeg/jdmarker.c ****   length -= 2;
 2360              		.loc 1 469 0 discriminator 5
 2361 003c 0FB602   		movzbl	(%rdx), %eax
 2362 003f C1E008   		sall	$8, %eax
 2363 0042 4883EB01 		subq	$1, %rbx
 2364              	.LVL340:
 2365 0046 89C5     		movl	%eax, %ebp
 2366              	.LVL341:
 2367 0048 0F849503 		je	.L269
 2367      0000
 469:fltk-1.3.4-1/jpeg/jdmarker.c ****   length -= 2;
 2368              		.loc 1 469 0 is_stmt 0
 2369 004e 4883C201 		addq	$1, %rdx
 2370              	.LVL342:
 2371              	.L270:
 469:fltk-1.3.4-1/jpeg/jdmarker.c ****   length -= 2;
 2372              		.loc 1 469 0 discriminator 10
 2373 0052 0FB602   		movzbl	(%rdx), %eax
 2374 0055 4883EB01 		subq	$1, %rbx
 2375              	.LVL343:
 2376 0059 4C8D4201 		leaq	1(%rdx), %r8
 2377              	.LVL344:
 470:fltk-1.3.4-1/jpeg/jdmarker.c ****   
 2378              		.loc 1 470 0 is_stmt 1 discriminator 10
 2379 005d 488D4405 		leaq	-2(%rbp,%rax), %rax
 2379      FE
 2380              	.LVL345:
 472:fltk-1.3.4-1/jpeg/jdmarker.c ****     INPUT_BYTE(cinfo, index, return FALSE);
 2381              		.loc 1 472 0 discriminator 10
 2382 0062 4883F810 		cmpq	$16, %rax
 470:fltk-1.3.4-1/jpeg/jdmarker.c ****   
 2383              		.loc 1 470 0 discriminator 10
 2384 0066 48894424 		movq	%rax, 8(%rsp)
 2384      08
 2385              	.LVL346:
 472:fltk-1.3.4-1/jpeg/jdmarker.c ****     INPUT_BYTE(cinfo, index, return FALSE);
 2386              		.loc 1 472 0 discriminator 10
 2387 006b 0F8ECA02 		jle	.L272
 2387      0000
 2388 0071 488D6C24 		leaq	65(%rsp), %rbp
 2388      41
 2389              	.LVL347:
 2390              	.L285:
 473:fltk-1.3.4-1/jpeg/jdmarker.c **** 
 2391              		.loc 1 473 0
 2392 0076 4885DB   		testq	%rbx, %rbx
 2393 0079 7517     		jne	.L273
 473:fltk-1.3.4-1/jpeg/jdmarker.c **** 
 2394              		.loc 1 473 0 is_stmt 0 discriminator 1
 2395 007b 4C89F7   		movq	%r14, %rdi
 2396 007e 41FF5518 		call	*24(%r13)
 2397              	.LVL348:
 2398 0082 85C0     		testl	%eax, %eax
 2399 0084 0F84E602 		je	.L271
 2399      0000
 473:fltk-1.3.4-1/jpeg/jdmarker.c **** 
 2400              		.loc 1 473 0 discriminator 4
 2401 008a 4D8B4500 		movq	0(%r13), %r8
 2402              	.LVL349:
 2403 008e 498B5D08 		movq	8(%r13), %rbx
 2404              	.LVL350:
 2405              	.L273:
 473:fltk-1.3.4-1/jpeg/jdmarker.c **** 
 2406              		.loc 1 473 0 discriminator 5
 2407 0092 410FB600 		movzbl	(%r8), %eax
 2408 0096 4D8D4801 		leaq	1(%r8), %r9
 475:fltk-1.3.4-1/jpeg/jdmarker.c ****       
 2409              		.loc 1 475 0 is_stmt 1 discriminator 5
 2410 009a 4C89F7   		movq	%r14, %rdi
 473:fltk-1.3.4-1/jpeg/jdmarker.c **** 
 2411              		.loc 1 473 0 discriminator 5
 2412 009d 4883EB01 		subq	$1, %rbx
 2413              	.LVL351:
 2414 00a1 4C8D6424 		leaq	49(%rsp), %r12
 2414      31
 478:fltk-1.3.4-1/jpeg/jdmarker.c ****     for (i = 1; i <= 16; i++) {
 2415              		.loc 1 478 0 discriminator 5
 2416 00a6 4531FF   		xorl	%r15d, %r15d
 473:fltk-1.3.4-1/jpeg/jdmarker.c **** 
 2417              		.loc 1 473 0 discriminator 5
 2418 00a9 4C894C24 		movq	%r9, 24(%rsp)
 2418      18
 2419              	.LVL352:
 2420 00ae 89C6     		movl	%eax, %esi
 2421 00b0 88442427 		movb	%al, 39(%rsp)
 2422 00b4 89442410 		movl	%eax, 16(%rsp)
 2423              	.LVL353:
 475:fltk-1.3.4-1/jpeg/jdmarker.c ****       
 2424              		.loc 1 475 0 discriminator 5
 2425 00b8 498B06   		movq	(%r14), %rax
 2426              	.LVL354:
 2427 00bb C7402852 		movl	$82, 40(%rax)
 2427      000000
 2428 00c2 498B06   		movq	(%r14), %rax
 2429 00c5 89702C   		movl	%esi, 44(%rax)
 2430 00c8 498B06   		movq	(%r14), %rax
 2431 00cb BE010000 		movl	$1, %esi
 2431      00
 2432              	.LVL355:
 2433 00d0 FF5008   		call	*8(%rax)
 2434              	.LVL356:
 477:fltk-1.3.4-1/jpeg/jdmarker.c ****     count = 0;
 2435              		.loc 1 477 0 discriminator 5
 2436 00d3 C6442430 		movb	$0, 48(%rsp)
 2436      00
 2437              	.LVL357:
 478:fltk-1.3.4-1/jpeg/jdmarker.c ****     for (i = 1; i <= 16; i++) {
 2438              		.loc 1 478 0 discriminator 5
 2439 00d8 4C8B4C24 		movq	24(%rsp), %r9
 2439      18
 2440 00dd EB1D     		jmp	.L275
 2441              	.LVL358:
 2442 00df 90       		.p2align 4,,10
 2443              		.p2align 3
 2444              	.L274:
 480:fltk-1.3.4-1/jpeg/jdmarker.c ****       count += bits[i];
 2445              		.loc 1 480 0 discriminator 5
 2446 00e0 4C8D4801 		leaq	1(%rax), %r9
 2447 00e4 0FB600   		movzbl	(%rax), %eax
 2448              	.LVL359:
 2449 00e7 4983C401 		addq	$1, %r12
 2450              	.LVL360:
 2451 00eb 4883EB01 		subq	$1, %rbx
 2452              	.LVL361:
 2453 00ef 41884424 		movb	%al, -1(%r12)
 2453      FF
 481:fltk-1.3.4-1/jpeg/jdmarker.c ****     }
 2454              		.loc 1 481 0 discriminator 5
 2455 00f4 4101C7   		addl	%eax, %r15d
 2456              	.LVL362:
 479:fltk-1.3.4-1/jpeg/jdmarker.c ****       INPUT_BYTE(cinfo, bits[i], return FALSE);
 2457              		.loc 1 479 0 discriminator 5
 2458 00f7 4939EC   		cmpq	%rbp, %r12
 2459 00fa 7424     		je	.L310
 2460              	.LVL363:
 2461              	.L275:
 480:fltk-1.3.4-1/jpeg/jdmarker.c ****       count += bits[i];
 2462              		.loc 1 480 0
 2463 00fc 4885DB   		testq	%rbx, %rbx
 2464 00ff 4C89C8   		movq	%r9, %rax
 2465 0102 75DC     		jne	.L274
 2466              	.LVL364:
 480:fltk-1.3.4-1/jpeg/jdmarker.c ****       count += bits[i];
 2467              		.loc 1 480 0 is_stmt 0 discriminator 1
 2468 0104 4C89F7   		movq	%r14, %rdi
 2469 0107 41FF5518 		call	*24(%r13)
 2470              	.LVL365:
 2471 010b 85C0     		testl	%eax, %eax
 2472 010d 0F845D02 		je	.L271
 2472      0000
 480:fltk-1.3.4-1/jpeg/jdmarker.c ****       count += bits[i];
 2473              		.loc 1 480 0 discriminator 4
 2474 0113 498B4500 		movq	0(%r13), %rax
 2475              	.LVL366:
 2476 0117 498B5D08 		movq	8(%r13), %rbx
 2477              	.LVL367:
 2478 011b EBC3     		jmp	.L274
 2479              	.LVL368:
 2480 011d 0F1F00   		.p2align 4,,10
 2481              		.p2align 3
 2482              	.L310:
 484:fltk-1.3.4-1/jpeg/jdmarker.c **** 
 2483              		.loc 1 484 0 is_stmt 1
 2484 0120 488B4424 		movq	8(%rsp), %rax
 2484      08
 2485              	.LBB37:
 486:fltk-1.3.4-1/jpeg/jdmarker.c **** 	     bits[1], bits[2], bits[3], bits[4],
 2486              		.loc 1 486 0
 2487 0125 0FB64C24 		movzbl	49(%rsp), %ecx
 2487      31
 2488 012a BE020000 		movl	$2, %esi
 2488      00
 2489 012f 4C894C24 		movq	%r9, 24(%rsp)
 2489      18
 2490 0134 4C89F7   		movq	%r14, %rdi
 2491              	.LBE37:
 484:fltk-1.3.4-1/jpeg/jdmarker.c **** 
 2492              		.loc 1 484 0
 2493 0137 4883E811 		subq	$17, %rax
 2494 013b 48894424 		movq	%rax, 40(%rsp)
 2494      28
 2495 0140 4989C4   		movq	%rax, %r12
 2496              	.LVL369:
 2497              	.LBB38:
 486:fltk-1.3.4-1/jpeg/jdmarker.c **** 	     bits[1], bits[2], bits[3], bits[4],
 2498              		.loc 1 486 0
 2499 0143 498B06   		movq	(%r14), %rax
 2500              	.LVL370:
 2501 0146 89482C   		movl	%ecx, 44(%rax)
 2502 0149 0FB64C24 		movzbl	50(%rsp), %ecx
 2502      32
 2503 014e 894830   		movl	%ecx, 48(%rax)
 2504 0151 0FB64C24 		movzbl	51(%rsp), %ecx
 2504      33
 2505 0156 894834   		movl	%ecx, 52(%rax)
 2506 0159 0FB64C24 		movzbl	52(%rsp), %ecx
 2506      34
 2507 015e 894838   		movl	%ecx, 56(%rax)
 2508 0161 0FB64C24 		movzbl	53(%rsp), %ecx
 2508      35
 2509 0166 89483C   		movl	%ecx, 60(%rax)
 2510 0169 0FB64C24 		movzbl	54(%rsp), %ecx
 2510      36
 2511 016e 894840   		movl	%ecx, 64(%rax)
 2512 0171 0FB64C24 		movzbl	55(%rsp), %ecx
 2512      37
 2513 0176 894844   		movl	%ecx, 68(%rax)
 2514 0179 0FB64C24 		movzbl	56(%rsp), %ecx
 2514      38
 2515 017e 894848   		movl	%ecx, 72(%rax)
 2516 0181 498B06   		movq	(%r14), %rax
 2517              	.LVL371:
 2518 0184 C7402858 		movl	$88, 40(%rax)
 2518      000000
 2519 018b 498B06   		movq	(%r14), %rax
 2520 018e FF5008   		call	*8(%rax)
 2521              	.LVL372:
 2522              	.LBE38:
 2523              	.LBB39:
 489:fltk-1.3.4-1/jpeg/jdmarker.c **** 	     bits[9], bits[10], bits[11], bits[12],
 2524              		.loc 1 489 0
 2525 0191 0FB64C24 		movzbl	57(%rsp), %ecx
 2525      39
 2526 0196 498B06   		movq	(%r14), %rax
 2527              	.LVL373:
 2528 0199 BE020000 		movl	$2, %esi
 2528      00
 2529 019e 4C89F7   		movq	%r14, %rdi
 2530 01a1 89482C   		movl	%ecx, 44(%rax)
 2531 01a4 0FB64C24 		movzbl	58(%rsp), %ecx
 2531      3A
 2532 01a9 894830   		movl	%ecx, 48(%rax)
 2533 01ac 0FB64C24 		movzbl	59(%rsp), %ecx
 2533      3B
 2534 01b1 894834   		movl	%ecx, 52(%rax)
 2535 01b4 0FB64C24 		movzbl	60(%rsp), %ecx
 2535      3C
 2536 01b9 894838   		movl	%ecx, 56(%rax)
 2537 01bc 0FB64C24 		movzbl	61(%rsp), %ecx
 2537      3D
 2538 01c1 89483C   		movl	%ecx, 60(%rax)
 2539 01c4 0FB64C24 		movzbl	62(%rsp), %ecx
 2539      3E
 2540 01c9 894840   		movl	%ecx, 64(%rax)
 2541 01cc 0FB64C24 		movzbl	63(%rsp), %ecx
 2541      3F
 2542 01d1 894844   		movl	%ecx, 68(%rax)
 2543 01d4 0FB64C24 		movzbl	64(%rsp), %ecx
 2543      40
 2544 01d9 894848   		movl	%ecx, 72(%rax)
 2545 01dc 498B06   		movq	(%r14), %rax
 2546              	.LVL374:
 2547 01df C7402858 		movl	$88, 40(%rax)
 2547      000000
 2548 01e6 498B06   		movq	(%r14), %rax
 2549 01e9 FF5008   		call	*8(%rax)
 2550              	.LVL375:
 2551              	.LBE39:
 496:fltk-1.3.4-1/jpeg/jdmarker.c ****       ERREXIT(cinfo, JERR_BAD_HUFF_TABLE);
 2552              		.loc 1 496 0
 2553 01ec 4181FF00 		cmpl	$256, %r15d
 2553      010000
 2554 01f3 4C8B4C24 		movq	24(%rsp), %r9
 2554      18
 2555 01f8 7F08     		jg	.L276
 496:fltk-1.3.4-1/jpeg/jdmarker.c ****       ERREXIT(cinfo, JERR_BAD_HUFF_TABLE);
 2556              		.loc 1 496 0 is_stmt 0 discriminator 1
 2557 01fa 4963C7   		movslq	%r15d, %rax
 2558 01fd 4939C4   		cmpq	%rax, %r12
 2559 0200 7D1C     		jge	.L277
 2560              	.L276:
 497:fltk-1.3.4-1/jpeg/jdmarker.c **** 
 2561              		.loc 1 497 0 is_stmt 1
 2562 0202 498B06   		movq	(%r14), %rax
 2563 0205 4C894C24 		movq	%r9, 8(%rsp)
 2563      08
 2564 020a 4C89F7   		movq	%r14, %rdi
 2565 020d C7402809 		movl	$9, 40(%rax)
 2565      000000
 2566 0214 498B06   		movq	(%r14), %rax
 2567 0217 FF10     		call	*(%rax)
 2568              	.LVL376:
 2569 0219 4C8B4C24 		movq	8(%rsp), %r9
 2569      08
 2570              	.L277:
 2571              	.LVL377:
 2572              	.LBB40:
 2573              	.LBB41:
 2574              		.file 2 "/usr/include/x86_64-linux-gnu/bits/string3.h"
   1:/usr/include/x86_64-linux-gnu/bits/string3.h **** /* Copyright (C) 2004-2016 Free Software Foundation, Inc.
   2:/usr/include/x86_64-linux-gnu/bits/string3.h ****    This file is part of the GNU C Library.
   3:/usr/include/x86_64-linux-gnu/bits/string3.h **** 
   4:/usr/include/x86_64-linux-gnu/bits/string3.h ****    The GNU C Library is free software; you can redistribute it and/or
   5:/usr/include/x86_64-linux-gnu/bits/string3.h ****    modify it under the terms of the GNU Lesser General Public
   6:/usr/include/x86_64-linux-gnu/bits/string3.h ****    License as published by the Free Software Foundation; either
   7:/usr/include/x86_64-linux-gnu/bits/string3.h ****    version 2.1 of the License, or (at your option) any later version.
   8:/usr/include/x86_64-linux-gnu/bits/string3.h **** 
   9:/usr/include/x86_64-linux-gnu/bits/string3.h ****    The GNU C Library is distributed in the hope that it will be useful,
  10:/usr/include/x86_64-linux-gnu/bits/string3.h ****    but WITHOUT ANY WARRANTY; without even the implied warranty of
  11:/usr/include/x86_64-linux-gnu/bits/string3.h ****    MERCHANTABILITY or FITNESS FOR A PARTICULAR PURPOSE.  See the GNU
  12:/usr/include/x86_64-linux-gnu/bits/string3.h ****    Lesser General Public License for more details.
  13:/usr/include/x86_64-linux-gnu/bits/string3.h **** 
  14:/usr/include/x86_64-linux-gnu/bits/string3.h ****    You should have received a copy of the GNU Lesser General Public
  15:/usr/include/x86_64-linux-gnu/bits/string3.h ****    License along with the GNU C Library; if not, see
  16:/usr/include/x86_64-linux-gnu/bits/string3.h ****    <http://www.gnu.org/licenses/>.  */
  17:/usr/include/x86_64-linux-gnu/bits/string3.h **** 
  18:/usr/include/x86_64-linux-gnu/bits/string3.h **** #ifndef _STRING_H
  19:/usr/include/x86_64-linux-gnu/bits/string3.h **** # error "Never use <bits/string3.h> directly; include <string.h> instead."
  20:/usr/include/x86_64-linux-gnu/bits/string3.h **** #endif
  21:/usr/include/x86_64-linux-gnu/bits/string3.h **** 
  22:/usr/include/x86_64-linux-gnu/bits/string3.h **** #if !__GNUC_PREREQ (5,0)
  23:/usr/include/x86_64-linux-gnu/bits/string3.h **** __warndecl (__warn_memset_zero_len,
  24:/usr/include/x86_64-linux-gnu/bits/string3.h **** 	    "memset used with constant zero length parameter; this could be due to transposed parameters")
  25:/usr/include/x86_64-linux-gnu/bits/string3.h **** #endif
  26:/usr/include/x86_64-linux-gnu/bits/string3.h **** 
  27:/usr/include/x86_64-linux-gnu/bits/string3.h **** #ifndef __cplusplus
  28:/usr/include/x86_64-linux-gnu/bits/string3.h **** /* XXX This is temporarily.  We should not redefine any of the symbols
  29:/usr/include/x86_64-linux-gnu/bits/string3.h ****    and instead integrate the error checking into the original
  30:/usr/include/x86_64-linux-gnu/bits/string3.h ****    definitions.  */
  31:/usr/include/x86_64-linux-gnu/bits/string3.h **** # undef memcpy
  32:/usr/include/x86_64-linux-gnu/bits/string3.h **** # undef memmove
  33:/usr/include/x86_64-linux-gnu/bits/string3.h **** # undef memset
  34:/usr/include/x86_64-linux-gnu/bits/string3.h **** # undef strcat
  35:/usr/include/x86_64-linux-gnu/bits/string3.h **** # undef strcpy
  36:/usr/include/x86_64-linux-gnu/bits/string3.h **** # undef strncat
  37:/usr/include/x86_64-linux-gnu/bits/string3.h **** # undef strncpy
  38:/usr/include/x86_64-linux-gnu/bits/string3.h **** # ifdef __USE_GNU
  39:/usr/include/x86_64-linux-gnu/bits/string3.h **** #  undef mempcpy
  40:/usr/include/x86_64-linux-gnu/bits/string3.h **** #  undef stpcpy
  41:/usr/include/x86_64-linux-gnu/bits/string3.h **** # endif
  42:/usr/include/x86_64-linux-gnu/bits/string3.h **** # ifdef __USE_MISC
  43:/usr/include/x86_64-linux-gnu/bits/string3.h **** #  undef bcopy
  44:/usr/include/x86_64-linux-gnu/bits/string3.h **** #  undef bzero
  45:/usr/include/x86_64-linux-gnu/bits/string3.h **** # endif
  46:/usr/include/x86_64-linux-gnu/bits/string3.h **** #endif
  47:/usr/include/x86_64-linux-gnu/bits/string3.h **** 
  48:/usr/include/x86_64-linux-gnu/bits/string3.h **** 
  49:/usr/include/x86_64-linux-gnu/bits/string3.h **** __fortify_function void *
  50:/usr/include/x86_64-linux-gnu/bits/string3.h **** __NTH (memcpy (void *__restrict __dest, const void *__restrict __src,
  51:/usr/include/x86_64-linux-gnu/bits/string3.h **** 	       size_t __len))
  52:/usr/include/x86_64-linux-gnu/bits/string3.h **** {
  53:/usr/include/x86_64-linux-gnu/bits/string3.h ****   return __builtin___memcpy_chk (__dest, __src, __len, __bos0 (__dest));
  54:/usr/include/x86_64-linux-gnu/bits/string3.h **** }
  55:/usr/include/x86_64-linux-gnu/bits/string3.h **** 
  56:/usr/include/x86_64-linux-gnu/bits/string3.h **** __fortify_function void *
  57:/usr/include/x86_64-linux-gnu/bits/string3.h **** __NTH (memmove (void *__dest, const void *__src, size_t __len))
  58:/usr/include/x86_64-linux-gnu/bits/string3.h **** {
  59:/usr/include/x86_64-linux-gnu/bits/string3.h ****   return __builtin___memmove_chk (__dest, __src, __len, __bos0 (__dest));
  60:/usr/include/x86_64-linux-gnu/bits/string3.h **** }
  61:/usr/include/x86_64-linux-gnu/bits/string3.h **** 
  62:/usr/include/x86_64-linux-gnu/bits/string3.h **** #ifdef __USE_GNU
  63:/usr/include/x86_64-linux-gnu/bits/string3.h **** __fortify_function void *
  64:/usr/include/x86_64-linux-gnu/bits/string3.h **** __NTH (mempcpy (void *__restrict __dest, const void *__restrict __src,
  65:/usr/include/x86_64-linux-gnu/bits/string3.h **** 		size_t __len))
  66:/usr/include/x86_64-linux-gnu/bits/string3.h **** {
  67:/usr/include/x86_64-linux-gnu/bits/string3.h ****   return __builtin___mempcpy_chk (__dest, __src, __len, __bos0 (__dest));
  68:/usr/include/x86_64-linux-gnu/bits/string3.h **** }
  69:/usr/include/x86_64-linux-gnu/bits/string3.h **** #endif
  70:/usr/include/x86_64-linux-gnu/bits/string3.h **** 
  71:/usr/include/x86_64-linux-gnu/bits/string3.h **** 
  72:/usr/include/x86_64-linux-gnu/bits/string3.h **** /* The first two tests here help to catch a somewhat common problem
  73:/usr/include/x86_64-linux-gnu/bits/string3.h ****    where the second and third parameter are transposed.  This is
  74:/usr/include/x86_64-linux-gnu/bits/string3.h ****    especially problematic if the intended fill value is zero.  In this
  75:/usr/include/x86_64-linux-gnu/bits/string3.h ****    case no work is done at all.  We detect these problems by referring
  76:/usr/include/x86_64-linux-gnu/bits/string3.h ****    non-existing functions.  */
  77:/usr/include/x86_64-linux-gnu/bits/string3.h **** __fortify_function void *
  78:/usr/include/x86_64-linux-gnu/bits/string3.h **** __NTH (memset (void *__dest, int __ch, size_t __len))
  79:/usr/include/x86_64-linux-gnu/bits/string3.h **** {
  80:/usr/include/x86_64-linux-gnu/bits/string3.h ****   /* GCC-5.0 and newer implements these checks in the compiler, so we don't
  81:/usr/include/x86_64-linux-gnu/bits/string3.h ****      need them here.  */
  82:/usr/include/x86_64-linux-gnu/bits/string3.h **** #if !__GNUC_PREREQ (5,0)
  83:/usr/include/x86_64-linux-gnu/bits/string3.h ****   if (__builtin_constant_p (__len) && __len == 0
  84:/usr/include/x86_64-linux-gnu/bits/string3.h ****       && (!__builtin_constant_p (__ch) || __ch != 0))
  85:/usr/include/x86_64-linux-gnu/bits/string3.h ****     {
  86:/usr/include/x86_64-linux-gnu/bits/string3.h ****       __warn_memset_zero_len ();
  87:/usr/include/x86_64-linux-gnu/bits/string3.h ****       return __dest;
  88:/usr/include/x86_64-linux-gnu/bits/string3.h ****     }
  89:/usr/include/x86_64-linux-gnu/bits/string3.h **** #endif
  90:/usr/include/x86_64-linux-gnu/bits/string3.h ****   return __builtin___memset_chk (__dest, __ch, __len, __bos0 (__dest));
 2575              		.loc 2 90 0
 2576 021e 488D7C24 		leaq	80(%rsp), %rdi
 2576      50
 2577              	.LVL378:
 2578 0223 31C0     		xorl	%eax, %eax
 2579 0225 B9200000 		movl	$32, %ecx
 2579      00
 2580              	.LBE41:
 2581              	.LBE40:
 501:fltk-1.3.4-1/jpeg/jdmarker.c ****       INPUT_BYTE(cinfo, huffval[i], return FALSE);
 2582              		.loc 1 501 0
 2583 022a 4585FF   		testl	%r15d, %r15d
 2584              	.LBB43:
 2585              	.LBB42:
 2586              		.loc 2 90 0
 2587 022d F348AB   		rep stosq
 2588              	.LVL379:
 2589              	.LBE42:
 2590              	.LBE43:
 501:fltk-1.3.4-1/jpeg/jdmarker.c ****       INPUT_BYTE(cinfo, huffval[i], return FALSE);
 2591              		.loc 1 501 0
 2592 0230 7458     		je	.L289
 2593 0232 418D47FF 		leal	-1(%r15), %eax
 2594 0236 488D4C24 		leaq	80(%rsp), %rcx
 2594      50
 480:fltk-1.3.4-1/jpeg/jdmarker.c ****       count += bits[i];
 2595              		.loc 1 480 0
 2596 023b 4D89C8   		movq	%r9, %r8
 2597 023e 4C8D6404 		leaq	81(%rsp,%rax), %r12
 2597      51
 2598              	.LVL380:
 2599 0243 EB1A     		jmp	.L280
 2600              	.LVL381:
 2601              		.p2align 4,,10
 2602 0245 0F1F00   		.p2align 3
 2603              	.L279:
 502:fltk-1.3.4-1/jpeg/jdmarker.c **** 
 2604              		.loc 1 502 0 discriminator 5
 2605 0248 4C8D4001 		leaq	1(%rax), %r8
 2606 024c 0FB600   		movzbl	(%rax), %eax
 2607              	.LVL382:
 2608 024f 4883C101 		addq	$1, %rcx
 2609 0253 4883EB01 		subq	$1, %rbx
 2610              	.LVL383:
 2611 0257 8841FF   		movb	%al, -1(%rcx)
 501:fltk-1.3.4-1/jpeg/jdmarker.c ****       INPUT_BYTE(cinfo, huffval[i], return FALSE);
 2612              		.loc 1 501 0 discriminator 5
 2613 025a 4C39E1   		cmpq	%r12, %rcx
 2614 025d 7431     		je	.L278
 2615              	.L280:
 2616              	.LVL384:
 502:fltk-1.3.4-1/jpeg/jdmarker.c **** 
 2617              		.loc 1 502 0
 2618 025f 4885DB   		testq	%rbx, %rbx
 2619 0262 4C89C0   		movq	%r8, %rax
 2620 0265 75E1     		jne	.L279
 2621              	.LVL385:
 2622 0267 48894C24 		movq	%rcx, 8(%rsp)
 2622      08
 502:fltk-1.3.4-1/jpeg/jdmarker.c **** 
 2623              		.loc 1 502 0 is_stmt 0 discriminator 1
 2624 026c 4C89F7   		movq	%r14, %rdi
 2625 026f 41FF5518 		call	*24(%r13)
 2626              	.LVL386:
 2627 0273 85C0     		testl	%eax, %eax
 2628 0275 0F84F500 		je	.L271
 2628      0000
 502:fltk-1.3.4-1/jpeg/jdmarker.c **** 
 2629              		.loc 1 502 0 discriminator 4
 2630 027b 498B4500 		movq	0(%r13), %rax
 2631              	.LVL387:
 2632 027f 498B5D08 		movq	8(%r13), %rbx
 2633              	.LVL388:
 2634 0283 488B4C24 		movq	8(%rsp), %rcx
 2634      08
 2635              	.LVL389:
 2636 0288 EBBE     		jmp	.L279
 2637              	.LVL390:
 2638              	.L289:
 480:fltk-1.3.4-1/jpeg/jdmarker.c ****       count += bits[i];
 2639              		.loc 1 480 0 is_stmt 1
 2640 028a 4D89C8   		movq	%r9, %r8
 2641              	.LVL391:
 2642 028d 0F1F00   		.p2align 4,,10
 2643              		.p2align 3
 2644              	.L278:
 504:fltk-1.3.4-1/jpeg/jdmarker.c **** 
 2645              		.loc 1 504 0
 2646 0290 488B4424 		movq	40(%rsp), %rax
 2646      28
 2647 0295 4963D7   		movslq	%r15d, %rdx
 2648 0298 4829D0   		subq	%rdx, %rax
 506:fltk-1.3.4-1/jpeg/jdmarker.c ****       index -= 0x10;
 2649              		.loc 1 506 0
 2650 029b F6442427 		testb	$16, 39(%rsp)
 2650      10
 504:fltk-1.3.4-1/jpeg/jdmarker.c **** 
 2651              		.loc 1 504 0
 2652 02a0 48894424 		movq	%rax, 8(%rsp)
 2652      08
 2653              	.LVL392:
 506:fltk-1.3.4-1/jpeg/jdmarker.c ****       index -= 0x10;
 2654              		.loc 1 506 0
 2655 02a5 0F84F500 		je	.L281
 2655      0000
 507:fltk-1.3.4-1/jpeg/jdmarker.c ****       htblptr = &cinfo->ac_huff_tbl_ptrs[index];
 2656              		.loc 1 507 0
 2657 02ab 836C2410 		subl	$16, 16(%rsp)
 2657      10
 2658              	.LVL393:
 2659 02b0 48634424 		movslq	16(%rsp), %rax
 2659      10
 2660              	.LVL394:
 513:fltk-1.3.4-1/jpeg/jdmarker.c ****       ERREXIT1(cinfo, JERR_DHT_INDEX, index);
 2661              		.loc 1 513 0
 2662 02b5 837C2410 		cmpl	$3, 16(%rsp)
 2662      03
 508:fltk-1.3.4-1/jpeg/jdmarker.c ****     } else {			/* DC table definition */
 2663              		.loc 1 508 0
 2664 02ba 4D8DBCC6 		leaq	264(%r14,%rax,8), %r15
 2664      08010000 
 2665              	.LVL395:
 513:fltk-1.3.4-1/jpeg/jdmarker.c ****       ERREXIT1(cinfo, JERR_DHT_INDEX, index);
 2666              		.loc 1 513 0
 2667 02c2 0F87F000 		ja	.L311
 2667      0000
 2668              	.LVL396:
 2669              	.L283:
 516:fltk-1.3.4-1/jpeg/jdmarker.c ****       *htblptr = jpeg_alloc_huff_table((j_common_ptr) cinfo);
 2670              		.loc 1 516 0
 2671 02c8 498B07   		movq	(%r15), %rax
 2672 02cb 4885C0   		testq	%rax, %rax
 2673 02ce 0F843401 		je	.L312
 2673      0000
 2674              	.L284:
 2675              	.LVL397:
 2676              	.LBB44:
 2677              	.LBB45:
  53:/usr/include/x86_64-linux-gnu/bits/string3.h **** }
 2678              		.loc 2 53 0
 2679 02d4 488B5424 		movq	48(%rsp), %rdx
 2679      30
 2680              	.LBE45:
 2681              	.LBE44:
 2682              	.LBB47:
 2683              	.LBB48:
 2684 02d9 488D7424 		leaq	80(%rsp), %rsi
 2684      50
 2685              	.LBE48:
 2686              	.LBE47:
 2687              	.LBB50:
 2688              	.LBB46:
 2689 02de 488910   		movq	%rdx, (%rax)
 2690              	.LVL398:
 2691 02e1 488B5424 		movq	56(%rsp), %rdx
 2691      38
 2692 02e6 48895008 		movq	%rdx, 8(%rax)
 2693 02ea 0FB65424 		movzbl	64(%rsp), %edx
 2693      40
 2694 02ef 885010   		movb	%dl, 16(%rax)
 2695              	.LVL399:
 2696              	.LBE46:
 2697              	.LBE50:
 520:fltk-1.3.4-1/jpeg/jdmarker.c ****   }
 2698              		.loc 1 520 0
 2699 02f2 498B3F   		movq	(%r15), %rdi
 2700              	.LVL400:
 2701              	.LBB51:
 2702              	.LBB49:
  53:/usr/include/x86_64-linux-gnu/bits/string3.h **** }
 2703              		.loc 2 53 0
 2704 02f5 488B5424 		movq	80(%rsp), %rdx
 2704      50
 2705 02fa 488D4711 		leaq	17(%rdi), %rax
 2706              	.LVL401:
 2707 02fe 4883C719 		addq	$25, %rdi
 2708 0302 488957F8 		movq	%rdx, -8(%rdi)
 2709              	.LVL402:
 2710 0306 488B9424 		movq	328(%rsp), %rdx
 2710      48010000 
 2711 030e 488997F0 		movq	%rdx, 240(%rdi)
 2711      000000
 2712 0315 4883E7F8 		andq	$-8, %rdi
 2713 0319 4829F8   		subq	%rdi, %rax
 2714              	.LVL403:
 2715 031c 8D880001 		leal	256(%rax), %ecx
 2715      0000
 2716 0322 4829C6   		subq	%rax, %rsi
 2717              	.LVL404:
 2718 0325 89C8     		movl	%ecx, %eax
 2719 0327 C1E803   		shrl	$3, %eax
 2720 032a 89C1     		movl	%eax, %ecx
 2721 032c F348A5   		rep movsq
 2722              	.LVL405:
 2723              	.LBE49:
 2724              	.LBE51:
 472:fltk-1.3.4-1/jpeg/jdmarker.c ****     INPUT_BYTE(cinfo, index, return FALSE);
 2725              		.loc 1 472 0
 2726 032f 48837C24 		cmpq	$16, 8(%rsp)
 2726      0810
 2727 0335 0F8F3BFD 		jg	.L285
 2727      FFFF
 2728              	.LVL406:
 2729              	.L272:
 523:fltk-1.3.4-1/jpeg/jdmarker.c ****     ERREXIT(cinfo, JERR_BAD_LENGTH);
 2730              		.loc 1 523 0
 2731 033b 48837C24 		cmpq	$0, 8(%rsp)
 2731      0800
 2732 0341 0F85DB00 		jne	.L313
 2732      0000
 2733              	.LVL407:
 2734              	.L286:
 526:fltk-1.3.4-1/jpeg/jdmarker.c ****   return TRUE;
 2735              		.loc 1 526 0
 2736 0347 4D894500 		movq	%r8, 0(%r13)
 2737 034b 49895D08 		movq	%rbx, 8(%r13)
 527:fltk-1.3.4-1/jpeg/jdmarker.c **** }
 2738              		.loc 1 527 0
 2739 034f B8010000 		movl	$1, %eax
 2739      00
 2740 0354 EB1C     		jmp	.L268
 2741              	.LVL408:
 2742 0356 662E0F1F 		.p2align 4,,10
 2742      84000000 
 2742      0000
 2743              		.p2align 3
 2744              	.L265:
 469:fltk-1.3.4-1/jpeg/jdmarker.c ****   length -= 2;
 2745              		.loc 1 469 0 discriminator 1
 2746 0360 41FF5518 		call	*24(%r13)
 2747              	.LVL409:
 2748 0364 85C0     		testl	%eax, %eax
 2749 0366 0F858F00 		jne	.L267
 2749      0000
 2750 036c 0F1F4000 		.p2align 4,,10
 2751              		.p2align 3
 2752              	.L271:
 469:fltk-1.3.4-1/jpeg/jdmarker.c ****   length -= 2;
 2753              		.loc 1 469 0 is_stmt 0
 2754 0370 31C0     		xorl	%eax, %eax
 2755              	.L268:
 528:fltk-1.3.4-1/jpeg/jdmarker.c **** 
 2756              		.loc 1 528 0 is_stmt 1
 2757 0372 488B9424 		movq	344(%rsp), %rdx
 2757      58010000 
 2758 037a 64483314 		xorq	%fs:40, %rdx
 2758      25280000 
 2758      00
 2759 0383 0F85BA00 		jne	.L314
 2759      0000
 2760 0389 4881C468 		addq	$360, %rsp
 2760      010000
 2761              		.cfi_remember_state
 2762              		.cfi_def_cfa_offset 56
 2763 0390 5B       		popq	%rbx
 2764              		.cfi_def_cfa_offset 48
 2765              	.LVL410:
 2766 0391 5D       		popq	%rbp
 2767              		.cfi_def_cfa_offset 40
 2768 0392 415C     		popq	%r12
 2769              		.cfi_def_cfa_offset 32
 2770 0394 415D     		popq	%r13
 2771              		.cfi_def_cfa_offset 24
 2772              	.LVL411:
 2773 0396 415E     		popq	%r14
 2774              		.cfi_def_cfa_offset 16
 2775              	.LVL412:
 2776 0398 415F     		popq	%r15
 2777              		.cfi_def_cfa_offset 8
 2778 039a C3       		ret
 2779              	.LVL413:
 2780 039b 0F1F4400 		.p2align 4,,10
 2780      00
 2781              		.p2align 3
 2782              	.L281:
 2783              		.cfi_restore_state
 510:fltk-1.3.4-1/jpeg/jdmarker.c ****     }
 2784              		.loc 1 510 0
 2785 03a0 48634424 		movslq	16(%rsp), %rax
 2785      10
 2786              	.LVL414:
 513:fltk-1.3.4-1/jpeg/jdmarker.c ****       ERREXIT1(cinfo, JERR_DHT_INDEX, index);
 2787              		.loc 1 513 0
 2788 03a5 837C2410 		cmpl	$3, 16(%rsp)
 2788      03
 510:fltk-1.3.4-1/jpeg/jdmarker.c ****     }
 2789              		.loc 1 510 0
 2790 03aa 4D8DBCC6 		leaq	232(%r14,%rax,8), %r15
 2790      E8000000 
 2791              	.LVL415:
 513:fltk-1.3.4-1/jpeg/jdmarker.c ****       ERREXIT1(cinfo, JERR_DHT_INDEX, index);
 2792              		.loc 1 513 0
 2793 03b2 0F8610FF 		jbe	.L283
 2793      FFFF
 2794              	.L311:
 514:fltk-1.3.4-1/jpeg/jdmarker.c **** 
 2795              		.loc 1 514 0
 2796 03b8 498B06   		movq	(%r14), %rax
 2797 03bb 8B542410 		movl	16(%rsp), %edx
 2798              	.LVL416:
 2799 03bf 4C89F7   		movq	%r14, %rdi
 2800 03c2 4C894424 		movq	%r8, 24(%rsp)
 2800      18
 2801 03c7 C740281F 		movl	$31, 40(%rax)
 2801      000000
 2802 03ce 498B06   		movq	(%r14), %rax
 2803 03d1 89502C   		movl	%edx, 44(%rax)
 2804 03d4 498B06   		movq	(%r14), %rax
 2805 03d7 FF10     		call	*(%rax)
 2806              	.LVL417:
 2807 03d9 4C8B4424 		movq	24(%rsp), %r8
 2807      18
 2808 03de E9E5FEFF 		jmp	.L283
 2808      FF
 2809              	.LVL418:
 2810              	.L269:
 469:fltk-1.3.4-1/jpeg/jdmarker.c ****   length -= 2;
 2811              		.loc 1 469 0 discriminator 6
 2812 03e3 4C89F7   		movq	%r14, %rdi
 2813 03e6 41FF5518 		call	*24(%r13)
 2814              	.LVL419:
 2815 03ea 85C0     		testl	%eax, %eax
 2816 03ec 7482     		je	.L271
 469:fltk-1.3.4-1/jpeg/jdmarker.c ****   length -= 2;
 2817              		.loc 1 469 0 is_stmt 0 discriminator 9
 2818 03ee 498B5500 		movq	0(%r13), %rdx
 2819              	.LVL420:
 2820 03f2 498B5D08 		movq	8(%r13), %rbx
 2821              	.LVL421:
 2822 03f6 E957FCFF 		jmp	.L270
 2822      FF
 2823              	.LVL422:
 2824              	.L267:
 469:fltk-1.3.4-1/jpeg/jdmarker.c ****   length -= 2;
 2825              		.loc 1 469 0 discriminator 4
 2826 03fb 498B5500 		movq	0(%r13), %rdx
 2827              	.LVL423:
 2828 03ff 498B5D08 		movq	8(%r13), %rbx
 2829              	.LVL424:
 2830 0403 E934FCFF 		jmp	.L266
 2830      FF
 2831              	.LVL425:
 2832              	.L312:
 517:fltk-1.3.4-1/jpeg/jdmarker.c ****   
 2833              		.loc 1 517 0 is_stmt 1
 2834 0408 4C89F7   		movq	%r14, %rdi
 2835 040b 4C894424 		movq	%r8, 16(%rsp)
 2835      10
 2836 0410 E8000000 		call	jpeg_alloc_huff_table
 2836      00
 2837              	.LVL426:
 2838 0415 4C8B4424 		movq	16(%rsp), %r8
 2838      10
 2839 041a 498907   		movq	%rax, (%r15)
 2840 041d E9B2FEFF 		jmp	.L284
 2840      FF
 2841              	.LVL427:
 2842              	.L313:
 524:fltk-1.3.4-1/jpeg/jdmarker.c **** 
 2843              		.loc 1 524 0
 2844 0422 498B06   		movq	(%r14), %rax
 2845 0425 4C894424 		movq	%r8, 8(%rsp)
 2845      08
 2846 042a 4C89F7   		movq	%r14, %rdi
 2847 042d C740280C 		movl	$12, 40(%rax)
 2847      000000
 2848 0434 498B06   		movq	(%r14), %rax
 2849 0437 FF10     		call	*(%rax)
 2850              	.LVL428:
 2851 0439 4C8B4424 		movq	8(%rsp), %r8
 2851      08
 2852 043e E904FFFF 		jmp	.L286
 2852      FF
 2853              	.LVL429:
 2854              	.L314:
 528:fltk-1.3.4-1/jpeg/jdmarker.c **** 
 2855              		.loc 1 528 0
 2856 0443 E8000000 		call	__stack_chk_fail
 2856      00
 2857              	.LVL430:
 2858              		.cfi_endproc
 2859              	.LFE65:
 2861              		.section	.text.unlikely.get_dht
 2862              	.LCOLDE9:
 2863              		.section	.text.get_dht
 2864              	.LHOTE9:
 2865              		.section	.text.unlikely.read_markers,"ax",@progbits
 2866              	.LCOLDB10:
 2867              		.section	.text.read_markers,"ax",@progbits
 2868              	.LHOTB10:
 2869              		.p2align 4,,15
 2871              	read_markers:
 2872              	.LFB76:
1095:fltk-1.3.4-1/jpeg/jdmarker.c ****   /* Outer loop repeats once for each marker. */
 2873              		.loc 1 1095 0
 2874              		.cfi_startproc
 2875              	.LVL431:
 2876 0000 4157     		pushq	%r15
 2877              		.cfi_def_cfa_offset 16
 2878              		.cfi_offset 15, -16
 2879 0002 4156     		pushq	%r14
 2880              		.cfi_def_cfa_offset 24
 2881              		.cfi_offset 14, -24
 2882 0004 4155     		pushq	%r13
 2883              		.cfi_def_cfa_offset 32
 2884              		.cfi_offset 13, -32
 2885 0006 4154     		pushq	%r12
 2886              		.cfi_def_cfa_offset 40
 2887              		.cfi_offset 12, -40
 2888 0008 4989FC   		movq	%rdi, %r12
 2889 000b 55       		pushq	%rbp
 2890              		.cfi_def_cfa_offset 48
 2891              		.cfi_offset 6, -48
 2892 000c 53       		pushq	%rbx
 2893              		.cfi_def_cfa_offset 56
 2894              		.cfi_offset 3, -56
 2895 000d 4881C754 		addq	$340, %rdi
 2895      010000
 2896              	.LVL432:
 2897 0014 4883EC38 		subq	$56, %rsp
 2898              		.cfi_def_cfa_offset 112
 2899 0018 8B87E800 		movl	232(%rdi), %eax
 2899      0000
 2900 001e 48897C24 		movq	%rdi, 32(%rsp)
 2900      20
1100:fltk-1.3.4-1/jpeg/jdmarker.c ****       if (! cinfo->marker->saw_SOI) {
 2901              		.loc 1 1100 0
 2902 0023 85C0     		testl	%eax, %eax
 2903 0025 0F857C00 		jne	.L316
 2903      0000
 2904 002b 0F1F4400 		.p2align 4,,10
 2904      00
 2905              		.p2align 3
 2906              	.L693:
1101:fltk-1.3.4-1/jpeg/jdmarker.c **** 	if (! first_marker(cinfo))
 2907              		.loc 1 1101 0
 2908 0030 498B8424 		movq	616(%r12), %rax
 2908      68020000 
 2909 0038 448B6818 		movl	24(%rax), %r13d
 2910 003c 4585ED   		testl	%r13d, %r13d
 2911 003f 757F     		jne	.L317
 2912              	.LVL433:
 2913              	.LBB73:
 2914              	.LBB74:
1067:fltk-1.3.4-1/jpeg/jdmarker.c **** 
 2915              		.loc 1 1067 0
 2916 0041 498B6C24 		movq	40(%r12), %rbp
 2916      28
 2917              	.LVL434:
 2918 0046 488B4508 		movq	8(%rbp), %rax
 2919              	.LVL435:
1069:fltk-1.3.4-1/jpeg/jdmarker.c ****   INPUT_BYTE(cinfo, c2, return FALSE);
 2920              		.loc 1 1069 0
 2921 004a 4885C0   		testq	%rax, %rax
 2922 004d 0F84D501 		je	.L318
 2922      0000
 2923              	.LVL436:
1067:fltk-1.3.4-1/jpeg/jdmarker.c **** 
 2924              		.loc 1 1067 0
 2925 0053 488B5500 		movq	0(%rbp), %rdx
 2926              	.LVL437:
1070:fltk-1.3.4-1/jpeg/jdmarker.c ****   if (c != 0xFF || c2 != (int) M_SOI)
 2927              		.loc 1 1070 0
 2928 0057 4883E801 		subq	$1, %rax
 2929              	.LVL438:
1069:fltk-1.3.4-1/jpeg/jdmarker.c ****   INPUT_BYTE(cinfo, c2, return FALSE);
 2930              		.loc 1 1069 0
 2931 005b 440FB632 		movzbl	(%rdx), %r14d
 2932              	.LVL439:
1070:fltk-1.3.4-1/jpeg/jdmarker.c ****   if (c != 0xFF || c2 != (int) M_SOI)
 2933              		.loc 1 1070 0
 2934 005f 0F84E301 		je	.L321
 2934      0000
 2935              	.LVL440:
 2936              	.L711:
1069:fltk-1.3.4-1/jpeg/jdmarker.c ****   INPUT_BYTE(cinfo, c2, return FALSE);
 2937              		.loc 1 1069 0
 2938 0065 4883C201 		addq	$1, %rdx
 2939              	.L322:
 2940              	.LVL441:
1071:fltk-1.3.4-1/jpeg/jdmarker.c ****     ERREXIT2(cinfo, JERR_NO_SOI, c, c2);
 2941              		.loc 1 1071 0
 2942 0069 4181FEFF 		cmpl	$255, %r14d
 2942      000000
1070:fltk-1.3.4-1/jpeg/jdmarker.c ****   if (c != 0xFF || c2 != (int) M_SOI)
 2943              		.loc 1 1070 0
 2944 0070 488D58FF 		leaq	-1(%rax), %rbx
 2945              	.LVL442:
 2946 0074 4C8D6A01 		leaq	1(%rdx), %r13
 2947              	.LVL443:
 2948 0078 440FB63A 		movzbl	(%rdx), %r15d
 2949              	.LVL444:
1071:fltk-1.3.4-1/jpeg/jdmarker.c ****     ERREXIT2(cinfo, JERR_NO_SOI, c, c2);
 2950              		.loc 1 1071 0
 2951 007c 0F85DF0C 		jne	.L476
 2951      0000
 2952 0082 4181FFD8 		cmpl	$216, %r15d
 2952      000000
 2953 0089 0F85D20C 		jne	.L476
 2953      0000
 2954              	.L323:
1074:fltk-1.3.4-1/jpeg/jdmarker.c **** 
 2955              		.loc 1 1074 0
 2956 008f 4589BC24 		movl	%r15d, 572(%r12)
 2956      3C020000 
1076:fltk-1.3.4-1/jpeg/jdmarker.c ****   return TRUE;
 2957              		.loc 1 1076 0
 2958 0097 4C896D00 		movq	%r13, 0(%rbp)
 2959 009b 48895D08 		movq	%rbx, 8(%rbp)
 2960              	.LVL445:
 2961 009f 418B8424 		movl	572(%r12), %eax
 2961      3C020000 
 2962              	.L316:
 2963              	.LBE74:
 2964              	.LBE73:
1113:fltk-1.3.4-1/jpeg/jdmarker.c ****     case M_SOI:
 2965              		.loc 1 1113 0
 2966 00a7 3DFE0000 		cmpl	$254, %eax
 2966      00
 2967 00ac 7731     		ja	.L326
 2968              	.L704:
 2969 00ae 89C2     		movl	%eax, %edx
 2970 00b0 FF24D500 		jmp	*.L328(,%rdx,8)
 2970      000000
 2971              		.section	.rodata.read_markers,"a",@progbits
 2972              		.align 8
 2973              		.align 4
 2974              	.L328:
 2975 0000 00000000 		.quad	.L326
 2975      00000000 
 2976 0008 00000000 		.quad	.L327
 2976      00000000 
 2977 0010 00000000 		.quad	.L326
 2977      00000000 
 2978 0018 00000000 		.quad	.L326
 2978      00000000 
 2979 0020 00000000 		.quad	.L326
 2979      00000000 
 2980 0028 00000000 		.quad	.L326
 2980      00000000 
 2981 0030 00000000 		.quad	.L326
 2981      00000000 
 2982 0038 00000000 		.quad	.L326
 2982      00000000 
 2983 0040 00000000 		.quad	.L326
 2983      00000000 
 2984 0048 00000000 		.quad	.L326
 2984      00000000 
 2985 0050 00000000 		.quad	.L326
 2985      00000000 
 2986 0058 00000000 		.quad	.L326
 2986      00000000 
 2987 0060 00000000 		.quad	.L326
 2987      00000000 
 2988 0068 00000000 		.quad	.L326
 2988      00000000 
 2989 0070 00000000 		.quad	.L326
 2989      00000000 
 2990 0078 00000000 		.quad	.L326
 2990      00000000 
 2991 0080 00000000 		.quad	.L326
 2991      00000000 
 2992 0088 00000000 		.quad	.L326
 2992      00000000 
 2993 0090 00000000 		.quad	.L326
 2993      00000000 
 2994 0098 00000000 		.quad	.L326
 2994      00000000 
 2995 00a0 00000000 		.quad	.L326
 2995      00000000 
 2996 00a8 00000000 		.quad	.L326
 2996      00000000 
 2997 00b0 00000000 		.quad	.L326
 2997      00000000 
 2998 00b8 00000000 		.quad	.L326
 2998      00000000 
 2999 00c0 00000000 		.quad	.L326
 2999      00000000 
 3000 00c8 00000000 		.quad	.L326
 3000      00000000 
 3001 00d0 00000000 		.quad	.L326
 3001      00000000 
 3002 00d8 00000000 		.quad	.L326
 3002      00000000 
 3003 00e0 00000000 		.quad	.L326
 3003      00000000 
 3004 00e8 00000000 		.quad	.L326
 3004      00000000 
 3005 00f0 00000000 		.quad	.L326
 3005      00000000 
 3006 00f8 00000000 		.quad	.L326
 3006      00000000 
 3007 0100 00000000 		.quad	.L326
 3007      00000000 
 3008 0108 00000000 		.quad	.L326
 3008      00000000 
 3009 0110 00000000 		.quad	.L326
 3009      00000000 
 3010 0118 00000000 		.quad	.L326
 3010      00000000 
 3011 0120 00000000 		.quad	.L326
 3011      00000000 
 3012 0128 00000000 		.quad	.L326
 3012      00000000 
 3013 0130 00000000 		.quad	.L326
 3013      00000000 
 3014 0138 00000000 		.quad	.L326
 3014      00000000 
 3015 0140 00000000 		.quad	.L326
 3015      00000000 
 3016 0148 00000000 		.quad	.L326
 3016      00000000 
 3017 0150 00000000 		.quad	.L326
 3017      00000000 
 3018 0158 00000000 		.quad	.L326
 3018      00000000 
 3019 0160 00000000 		.quad	.L326
 3019      00000000 
 3020 0168 00000000 		.quad	.L326
 3020      00000000 
 3021 0170 00000000 		.quad	.L326
 3021      00000000 
 3022 0178 00000000 		.quad	.L326
 3022      00000000 
 3023 0180 00000000 		.quad	.L326
 3023      00000000 
 3024 0188 00000000 		.quad	.L326
 3024      00000000 
 3025 0190 00000000 		.quad	.L326
 3025      00000000 
 3026 0198 00000000 		.quad	.L326
 3026      00000000 
 3027 01a0 00000000 		.quad	.L326
 3027      00000000 
 3028 01a8 00000000 		.quad	.L326
 3028      00000000 
 3029 01b0 00000000 		.quad	.L326
 3029      00000000 
 3030 01b8 00000000 		.quad	.L326
 3030      00000000 
 3031 01c0 00000000 		.quad	.L326
 3031      00000000 
 3032 01c8 00000000 		.quad	.L326
 3032      00000000 
 3033 01d0 00000000 		.quad	.L326
 3033      00000000 
 3034 01d8 00000000 		.quad	.L326
 3034      00000000 
 3035 01e0 00000000 		.quad	.L326
 3035      00000000 
 3036 01e8 00000000 		.quad	.L326
 3036      00000000 
 3037 01f0 00000000 		.quad	.L326
 3037      00000000 
 3038 01f8 00000000 		.quad	.L326
 3038      00000000 
 3039 0200 00000000 		.quad	.L326
 3039      00000000 
 3040 0208 00000000 		.quad	.L326
 3040      00000000 
 3041 0210 00000000 		.quad	.L326
 3041      00000000 
 3042 0218 00000000 		.quad	.L326
 3042      00000000 
 3043 0220 00000000 		.quad	.L326
 3043      00000000 
 3044 0228 00000000 		.quad	.L326
 3044      00000000 
 3045 0230 00000000 		.quad	.L326
 3045      00000000 
 3046 0238 00000000 		.quad	.L326
 3046      00000000 
 3047 0240 00000000 		.quad	.L326
 3047      00000000 
 3048 0248 00000000 		.quad	.L326
 3048      00000000 
 3049 0250 00000000 		.quad	.L326
 3049      00000000 
 3050 0258 00000000 		.quad	.L326
 3050      00000000 
 3051 0260 00000000 		.quad	.L326
 3051      00000000 
 3052 0268 00000000 		.quad	.L326
 3052      00000000 
 3053 0270 00000000 		.quad	.L326
 3053      00000000 
 3054 0278 00000000 		.quad	.L326
 3054      00000000 
 3055 0280 00000000 		.quad	.L326
 3055      00000000 
 3056 0288 00000000 		.quad	.L326
 3056      00000000 
 3057 0290 00000000 		.quad	.L326
 3057      00000000 
 3058 0298 00000000 		.quad	.L326
 3058      00000000 
 3059 02a0 00000000 		.quad	.L326
 3059      00000000 
 3060 02a8 00000000 		.quad	.L326
 3060      00000000 
 3061 02b0 00000000 		.quad	.L326
 3061      00000000 
 3062 02b8 00000000 		.quad	.L326
 3062      00000000 
 3063 02c0 00000000 		.quad	.L326
 3063      00000000 
 3064 02c8 00000000 		.quad	.L326
 3064      00000000 
 3065 02d0 00000000 		.quad	.L326
 3065      00000000 
 3066 02d8 00000000 		.quad	.L326
 3066      00000000 
 3067 02e0 00000000 		.quad	.L326
 3067      00000000 
 3068 02e8 00000000 		.quad	.L326
 3068      00000000 
 3069 02f0 00000000 		.quad	.L326
 3069      00000000 
 3070 02f8 00000000 		.quad	.L326
 3070      00000000 
 3071 0300 00000000 		.quad	.L326
 3071      00000000 
 3072 0308 00000000 		.quad	.L326
 3072      00000000 
 3073 0310 00000000 		.quad	.L326
 3073      00000000 
 3074 0318 00000000 		.quad	.L326
 3074      00000000 
 3075 0320 00000000 		.quad	.L326
 3075      00000000 
 3076 0328 00000000 		.quad	.L326
 3076      00000000 
 3077 0330 00000000 		.quad	.L326
 3077      00000000 
 3078 0338 00000000 		.quad	.L326
 3078      00000000 
 3079 0340 00000000 		.quad	.L326
 3079      00000000 
 3080 0348 00000000 		.quad	.L326
 3080      00000000 
 3081 0350 00000000 		.quad	.L326
 3081      00000000 
 3082 0358 00000000 		.quad	.L326
 3082      00000000 
 3083 0360 00000000 		.quad	.L326
 3083      00000000 
 3084 0368 00000000 		.quad	.L326
 3084      00000000 
 3085 0370 00000000 		.quad	.L326
 3085      00000000 
 3086 0378 00000000 		.quad	.L326
 3086      00000000 
 3087 0380 00000000 		.quad	.L326
 3087      00000000 
 3088 0388 00000000 		.quad	.L326
 3088      00000000 
 3089 0390 00000000 		.quad	.L326
 3089      00000000 
 3090 0398 00000000 		.quad	.L326
 3090      00000000 
 3091 03a0 00000000 		.quad	.L326
 3091      00000000 
 3092 03a8 00000000 		.quad	.L326
 3092      00000000 
 3093 03b0 00000000 		.quad	.L326
 3093      00000000 
 3094 03b8 00000000 		.quad	.L326
 3094      00000000 
 3095 03c0 00000000 		.quad	.L326
 3095      00000000 
 3096 03c8 00000000 		.quad	.L326
 3096      00000000 
 3097 03d0 00000000 		.quad	.L326
 3097      00000000 
 3098 03d8 00000000 		.quad	.L326
 3098      00000000 
 3099 03e0 00000000 		.quad	.L326
 3099      00000000 
 3100 03e8 00000000 		.quad	.L326
 3100      00000000 
 3101 03f0 00000000 		.quad	.L326
 3101      00000000 
 3102 03f8 00000000 		.quad	.L326
 3102      00000000 
 3103 0400 00000000 		.quad	.L326
 3103      00000000 
 3104 0408 00000000 		.quad	.L326
 3104      00000000 
 3105 0410 00000000 		.quad	.L326
 3105      00000000 
 3106 0418 00000000 		.quad	.L326
 3106      00000000 
 3107 0420 00000000 		.quad	.L326
 3107      00000000 
 3108 0428 00000000 		.quad	.L326
 3108      00000000 
 3109 0430 00000000 		.quad	.L326
 3109      00000000 
 3110 0438 00000000 		.quad	.L326
 3110      00000000 
 3111 0440 00000000 		.quad	.L326
 3111      00000000 
 3112 0448 00000000 		.quad	.L326
 3112      00000000 
 3113 0450 00000000 		.quad	.L326
 3113      00000000 
 3114 0458 00000000 		.quad	.L326
 3114      00000000 
 3115 0460 00000000 		.quad	.L326
 3115      00000000 
 3116 0468 00000000 		.quad	.L326
 3116      00000000 
 3117 0470 00000000 		.quad	.L326
 3117      00000000 
 3118 0478 00000000 		.quad	.L326
 3118      00000000 
 3119 0480 00000000 		.quad	.L326
 3119      00000000 
 3120 0488 00000000 		.quad	.L326
 3120      00000000 
 3121 0490 00000000 		.quad	.L326
 3121      00000000 
 3122 0498 00000000 		.quad	.L326
 3122      00000000 
 3123 04a0 00000000 		.quad	.L326
 3123      00000000 
 3124 04a8 00000000 		.quad	.L326
 3124      00000000 
 3125 04b0 00000000 		.quad	.L326
 3125      00000000 
 3126 04b8 00000000 		.quad	.L326
 3126      00000000 
 3127 04c0 00000000 		.quad	.L326
 3127      00000000 
 3128 04c8 00000000 		.quad	.L326
 3128      00000000 
 3129 04d0 00000000 		.quad	.L326
 3129      00000000 
 3130 04d8 00000000 		.quad	.L326
 3130      00000000 
 3131 04e0 00000000 		.quad	.L326
 3131      00000000 
 3132 04e8 00000000 		.quad	.L326
 3132      00000000 
 3133 04f0 00000000 		.quad	.L326
 3133      00000000 
 3134 04f8 00000000 		.quad	.L326
 3134      00000000 
 3135 0500 00000000 		.quad	.L326
 3135      00000000 
 3136 0508 00000000 		.quad	.L326
 3136      00000000 
 3137 0510 00000000 		.quad	.L326
 3137      00000000 
 3138 0518 00000000 		.quad	.L326
 3138      00000000 
 3139 0520 00000000 		.quad	.L326
 3139      00000000 
 3140 0528 00000000 		.quad	.L326
 3140      00000000 
 3141 0530 00000000 		.quad	.L326
 3141      00000000 
 3142 0538 00000000 		.quad	.L326
 3142      00000000 
 3143 0540 00000000 		.quad	.L326
 3143      00000000 
 3144 0548 00000000 		.quad	.L326
 3144      00000000 
 3145 0550 00000000 		.quad	.L326
 3145      00000000 
 3146 0558 00000000 		.quad	.L326
 3146      00000000 
 3147 0560 00000000 		.quad	.L326
 3147      00000000 
 3148 0568 00000000 		.quad	.L326
 3148      00000000 
 3149 0570 00000000 		.quad	.L326
 3149      00000000 
 3150 0578 00000000 		.quad	.L326
 3150      00000000 
 3151 0580 00000000 		.quad	.L326
 3151      00000000 
 3152 0588 00000000 		.quad	.L326
 3152      00000000 
 3153 0590 00000000 		.quad	.L326
 3153      00000000 
 3154 0598 00000000 		.quad	.L326
 3154      00000000 
 3155 05a0 00000000 		.quad	.L326
 3155      00000000 
 3156 05a8 00000000 		.quad	.L326
 3156      00000000 
 3157 05b0 00000000 		.quad	.L326
 3157      00000000 
 3158 05b8 00000000 		.quad	.L326
 3158      00000000 
 3159 05c0 00000000 		.quad	.L326
 3159      00000000 
 3160 05c8 00000000 		.quad	.L326
 3160      00000000 
 3161 05d0 00000000 		.quad	.L326
 3161      00000000 
 3162 05d8 00000000 		.quad	.L326
 3162      00000000 
 3163 05e0 00000000 		.quad	.L326
 3163      00000000 
 3164 05e8 00000000 		.quad	.L326
 3164      00000000 
 3165 05f0 00000000 		.quad	.L326
 3165      00000000 
 3166 05f8 00000000 		.quad	.L326
 3166      00000000 
 3167 0600 00000000 		.quad	.L329
 3167      00000000 
 3168 0608 00000000 		.quad	.L330
 3168      00000000 
 3169 0610 00000000 		.quad	.L331
 3169      00000000 
 3170 0618 00000000 		.quad	.L332
 3170      00000000 
 3171 0620 00000000 		.quad	.L333
 3171      00000000 
 3172 0628 00000000 		.quad	.L332
 3172      00000000 
 3173 0630 00000000 		.quad	.L332
 3173      00000000 
 3174 0638 00000000 		.quad	.L332
 3174      00000000 
 3175 0640 00000000 		.quad	.L332
 3175      00000000 
 3176 0648 00000000 		.quad	.L334
 3176      00000000 
 3177 0650 00000000 		.quad	.L335
 3177      00000000 
 3178 0658 00000000 		.quad	.L332
 3178      00000000 
 3179 0660 00000000 		.quad	.L336
 3179      00000000 
 3180 0668 00000000 		.quad	.L332
 3180      00000000 
 3181 0670 00000000 		.quad	.L332
 3181      00000000 
 3182 0678 00000000 		.quad	.L332
 3182      00000000 
 3183 0680 00000000 		.quad	.L327
 3183      00000000 
 3184 0688 00000000 		.quad	.L327
 3184      00000000 
 3185 0690 00000000 		.quad	.L327
 3185      00000000 
 3186 0698 00000000 		.quad	.L327
 3186      00000000 
 3187 06a0 00000000 		.quad	.L327
 3187      00000000 
 3188 06a8 00000000 		.quad	.L327
 3188      00000000 
 3189 06b0 00000000 		.quad	.L327
 3189      00000000 
 3190 06b8 00000000 		.quad	.L327
 3190      00000000 
 3191 06c0 00000000 		.quad	.L337
 3191      00000000 
 3192 06c8 00000000 		.quad	.L338
 3192      00000000 
 3193 06d0 00000000 		.quad	.L339
 3193      00000000 
 3194 06d8 00000000 		.quad	.L340
 3194      00000000 
 3195 06e0 00000000 		.quad	.L341
 3195      00000000 
 3196 06e8 00000000 		.quad	.L342
 3196      00000000 
 3197 06f0 00000000 		.quad	.L326
 3197      00000000 
 3198 06f8 00000000 		.quad	.L326
 3198      00000000 
 3199 0700 00000000 		.quad	.L343
 3199      00000000 
 3200 0708 00000000 		.quad	.L343
 3200      00000000 
 3201 0710 00000000 		.quad	.L343
 3201      00000000 
 3202 0718 00000000 		.quad	.L343
 3202      00000000 
 3203 0720 00000000 		.quad	.L343
 3203      00000000 
 3204 0728 00000000 		.quad	.L343
 3204      00000000 
 3205 0730 00000000 		.quad	.L343
 3205      00000000 
 3206 0738 00000000 		.quad	.L343
 3206      00000000 
 3207 0740 00000000 		.quad	.L343
 3207      00000000 
 3208 0748 00000000 		.quad	.L343
 3208      00000000 
 3209 0750 00000000 		.quad	.L343
 3209      00000000 
 3210 0758 00000000 		.quad	.L343
 3210      00000000 
 3211 0760 00000000 		.quad	.L343
 3211      00000000 
 3212 0768 00000000 		.quad	.L343
 3212      00000000 
 3213 0770 00000000 		.quad	.L343
 3213      00000000 
 3214 0778 00000000 		.quad	.L343
 3214      00000000 
 3215 0780 00000000 		.quad	.L326
 3215      00000000 
 3216 0788 00000000 		.quad	.L326
 3216      00000000 
 3217 0790 00000000 		.quad	.L326
 3217      00000000 
 3218 0798 00000000 		.quad	.L326
 3218      00000000 
 3219 07a0 00000000 		.quad	.L326
 3219      00000000 
 3220 07a8 00000000 		.quad	.L326
 3220      00000000 
 3221 07b0 00000000 		.quad	.L326
 3221      00000000 
 3222 07b8 00000000 		.quad	.L326
 3222      00000000 
 3223 07c0 00000000 		.quad	.L344
 3223      00000000 
 3224 07c8 00000000 		.quad	.L326
 3224      00000000 
 3225 07d0 00000000 		.quad	.L326
 3225      00000000 
 3226 07d8 00000000 		.quad	.L326
 3226      00000000 
 3227 07e0 00000000 		.quad	.L326
 3227      00000000 
 3228 07e8 00000000 		.quad	.L326
 3228      00000000 
 3229 07f0 00000000 		.quad	.L345
 3229      00000000 
 3230              		.section	.text.read_markers
 3231 00b7 660F1F84 		.p2align 4,,10
 3231      00000000 
 3231      00
 3232              		.p2align 3
 3233              	.L317:
1105:fltk-1.3.4-1/jpeg/jdmarker.c **** 	  return JPEG_SUSPENDED;
 3234              		.loc 1 1105 0
 3235 00c0 4C89E7   		movq	%r12, %rdi
 3236 00c3 E8000000 		call	next_marker
 3236      00
 3237              	.LVL446:
 3238 00c8 85C0     		testl	%eax, %eax
 3239 00ca 0F844301 		je	.L325
 3239      0000
 3240 00d0 418B8424 		movl	572(%r12), %eax
 3240      3C020000 
1113:fltk-1.3.4-1/jpeg/jdmarker.c ****     case M_SOI:
 3241              		.loc 1 1113 0
 3242 00d8 3DFE0000 		cmpl	$254, %eax
 3242      00
 3243 00dd 76CF     		jbe	.L704
 3244              	.L326:
1242:fltk-1.3.4-1/jpeg/jdmarker.c ****       break;
 3245              		.loc 1 1242 0
 3246 00df 498B0424 		movq	(%r12), %rax
 3247 00e3 C7402846 		movl	$70, 40(%rax)
 3247      000000
 3248 00ea E9A40500 		jmp	.L697
 3248      00
 3249              	.L339:
 3250              	.LVL447:
 3251              	.LBB77:
 3252              	.LBB78:
 330:fltk-1.3.4-1/jpeg/jdmarker.c ****     ERREXITS(cinfo, JERR_SOF_BEFORE, "SOS");
 3253              		.loc 1 330 0
 3254 00ef 498B8424 		movq	616(%r12), %rax
 3254      68020000 
 328:fltk-1.3.4-1/jpeg/jdmarker.c **** 
 3255              		.loc 1 328 0
 3256 00f7 4D8B6C24 		movq	40(%r12), %r13
 3256      28
 3257              	.LVL448:
 330:fltk-1.3.4-1/jpeg/jdmarker.c ****     ERREXITS(cinfo, JERR_SOF_BEFORE, "SOS");
 3258              		.loc 1 330 0
 3259 00fc 448B501C 		movl	28(%rax), %r10d
 328:fltk-1.3.4-1/jpeg/jdmarker.c **** 
 3260              		.loc 1 328 0
 3261 0100 4D8B7500 		movq	0(%r13), %r14
 3262              	.LVL449:
 3263 0104 498B5D08 		movq	8(%r13), %rbx
 3264              	.LVL450:
 330:fltk-1.3.4-1/jpeg/jdmarker.c ****     ERREXITS(cinfo, JERR_SOF_BEFORE, "SOS");
 3265              		.loc 1 330 0
 3266 0108 4585D2   		testl	%r10d, %r10d
 3267 010b 0F84610D 		je	.L705
 3267      0000
 3268              	.L350:
 333:fltk-1.3.4-1/jpeg/jdmarker.c **** 
 3269              		.loc 1 333 0
 3270 0111 4885DB   		testq	%rbx, %rbx
 3271 0114 0F843C0D 		je	.L706
 3271      0000
 3272              	.L351:
 3273              	.LVL451:
 3274 011a 410FB62E 		movzbl	(%r14), %ebp
 3275 011e 498D5601 		leaq	1(%r14), %rdx
 3276              	.LVL452:
 3277 0122 C1E508   		sall	$8, %ebp
 3278              	.LVL453:
 3279 0125 4883EB01 		subq	$1, %rbx
 3280              	.LVL454:
 3281 0129 0F84080E 		je	.L707
 3281      0000
 3282              	.L353:
 3283              	.LVL455:
 3284 012f 0FB602   		movzbl	(%rdx), %eax
 3285 0132 4801C5   		addq	%rax, %rbp
 3286              	.LVL456:
 335:fltk-1.3.4-1/jpeg/jdmarker.c **** 
 3287              		.loc 1 335 0
 3288 0135 4883EB01 		subq	$1, %rbx
 3289              	.LVL457:
 333:fltk-1.3.4-1/jpeg/jdmarker.c **** 
 3290              		.loc 1 333 0
 3291 0139 488D4201 		leaq	1(%rdx), %rax
 3292              	.LVL458:
 335:fltk-1.3.4-1/jpeg/jdmarker.c **** 
 3293              		.loc 1 335 0
 3294 013d 7517     		jne	.L355
 3295 013f 4C89E7   		movq	%r12, %rdi
 3296 0142 41FF5518 		call	*24(%r13)
 3297              	.LVL459:
 3298 0146 85C0     		testl	%eax, %eax
 3299 0148 0F84C500 		je	.L325
 3299      0000
 3300 014e 498B4500 		movq	0(%r13), %rax
 3301              	.LVL460:
 3302 0152 498B5D08 		movq	8(%r13), %rbx
 3303              	.LVL461:
 3304              	.L355:
 3305 0156 4C8D7001 		leaq	1(%rax), %r14
 3306 015a 0FB600   		movzbl	(%rax), %eax
 3307              	.LVL462:
 3308 015d 4C8D7BFF 		leaq	-1(%rbx), %r15
 3309              	.LVL463:
 337:fltk-1.3.4-1/jpeg/jdmarker.c **** 
 3310              		.loc 1 337 0
 3311 0161 BE010000 		movl	$1, %esi
 3311      00
 3312 0166 4C89E7   		movq	%r12, %rdi
 335:fltk-1.3.4-1/jpeg/jdmarker.c **** 
 3313              		.loc 1 335 0
 3314 0169 89C3     		movl	%eax, %ebx
 3315 016b 89442410 		movl	%eax, 16(%rsp)
 3316              	.LVL464:
 337:fltk-1.3.4-1/jpeg/jdmarker.c **** 
 3317              		.loc 1 337 0
 3318 016f 498B0424 		movq	(%r12), %rax
 3319              	.LVL465:
 3320 0173 C7402869 		movl	$105, 40(%rax)
 3320      000000
 3321 017a 498B0424 		movq	(%r12), %rax
 3322 017e 89582C   		movl	%ebx, 44(%rax)
 3323 0181 498B0424 		movq	(%r12), %rax
 3324 0185 FF5008   		call	*8(%rax)
 3325              	.LVL466:
 339:fltk-1.3.4-1/jpeg/jdmarker.c ****       (n == 0 && !cinfo->progressive_mode))
 3326              		.loc 1 339 0
 3327 0188 8D441B06 		leal	6(%rbx,%rbx), %eax
 3328 018c 4898     		cltq
 3329 018e 4839E8   		cmpq	%rbp, %rax
 3330 0191 0F859007 		jne	.L356
 3330      0000
 3331 0197 83FB04   		cmpl	$4, %ebx
 3332 019a 0F8F8707 		jg	.L356
 3332      0000
 3333 01a0 85DB     		testl	%ebx, %ebx
 3334 01a2 0F859307 		jne	.L357
 3334      0000
 340:fltk-1.3.4-1/jpeg/jdmarker.c ****       /* pseudo SOS marker only allowed in progressive mode */
 3335              		.loc 1 340 0
 3336 01a8 458B8C24 		movl	316(%r12), %r9d
 3336      3C010000 
 3337 01b0 4585C9   		testl	%r9d, %r9d
 3338 01b3 0F846E07 		je	.L356
 3338      0000
 344:fltk-1.3.4-1/jpeg/jdmarker.c **** 
 3339              		.loc 1 344 0
 3340 01b9 41C78424 		movl	$0, 448(%r12)
 3340      C0010000 
 3340      00000000 
 3341              	.LVL467:
 3342              	.L359:
 388:fltk-1.3.4-1/jpeg/jdmarker.c ****   cinfo->Ss = c;
 3343              		.loc 1 388 0
 3344 01c5 4D85FF   		testq	%r15, %r15
 3345 01c8 0F846C0F 		je	.L708
 3345      0000
 3346              	.L376:
 3347              	.LVL468:
 389:fltk-1.3.4-1/jpeg/jdmarker.c ****   INPUT_BYTE(cinfo, c, return FALSE);
 3348              		.loc 1 389 0
 3349 01ce 410FB606 		movzbl	(%r14), %eax
 3350              	.LVL469:
 390:fltk-1.3.4-1/jpeg/jdmarker.c ****   cinfo->Se = c;
 3351              		.loc 1 390 0
 3352 01d2 4C89FE   		movq	%r15, %rsi
 388:fltk-1.3.4-1/jpeg/jdmarker.c ****   cinfo->Ss = c;
 3353              		.loc 1 388 0
 3354 01d5 498D5601 		leaq	1(%r14), %rdx
 3355              	.LVL470:
 390:fltk-1.3.4-1/jpeg/jdmarker.c ****   cinfo->Se = c;
 3356              		.loc 1 390 0
 3357 01d9 4883EE01 		subq	$1, %rsi
 3358              	.LVL471:
 389:fltk-1.3.4-1/jpeg/jdmarker.c ****   INPUT_BYTE(cinfo, c, return FALSE);
 3359              		.loc 1 389 0
 3360 01dd 41898424 		movl	%eax, 540(%r12)
 3360      1C020000 
 390:fltk-1.3.4-1/jpeg/jdmarker.c ****   cinfo->Se = c;
 3361              		.loc 1 390 0
 3362 01e5 0F846B0F 		je	.L709
 3362      0000
 3363              	.LVL472:
 3364              	.L378:
 391:fltk-1.3.4-1/jpeg/jdmarker.c ****   INPUT_BYTE(cinfo, c, return FALSE);
 3365              		.loc 1 391 0
 3366 01eb 0FB602   		movzbl	(%rdx), %eax
 3367              	.LVL473:
 392:fltk-1.3.4-1/jpeg/jdmarker.c ****   cinfo->Ah = (c >> 4) & 15;
 3368              		.loc 1 392 0
 3369 01ee 4883EE01 		subq	$1, %rsi
 3370              	.LVL474:
 391:fltk-1.3.4-1/jpeg/jdmarker.c ****   INPUT_BYTE(cinfo, c, return FALSE);
 3371              		.loc 1 391 0
 3372 01f2 41898424 		movl	%eax, 544(%r12)
 3372      20020000 
 390:fltk-1.3.4-1/jpeg/jdmarker.c ****   cinfo->Se = c;
 3373              		.loc 1 390 0
 3374 01fa 488D4201 		leaq	1(%rdx), %rax
 3375              	.LVL475:
 392:fltk-1.3.4-1/jpeg/jdmarker.c ****   cinfo->Ah = (c >> 4) & 15;
 3376              		.loc 1 392 0
 3377 01fe 0F85A90D 		jne	.L380
 3377      0000
 3378 0204 4C89E7   		movq	%r12, %rdi
 3379 0207 41FF5518 		call	*24(%r13)
 3380              	.LVL476:
 3381 020b 85C0     		testl	%eax, %eax
 3382 020d 0F85920D 		jne	.L710
 3382      0000
 3383              	.LVL477:
 3384              	.L325:
 3385              	.LBE78:
 3386              	.LBE77:
1248:fltk-1.3.4-1/jpeg/jdmarker.c **** 
 3387              		.loc 1 1248 0
 3388 0213 4883C438 		addq	$56, %rsp
 3389              		.cfi_remember_state
 3390              		.cfi_def_cfa_offset 56
1103:fltk-1.3.4-1/jpeg/jdmarker.c ****       } else {
 3391              		.loc 1 1103 0
 3392 0217 31C0     		xorl	%eax, %eax
1248:fltk-1.3.4-1/jpeg/jdmarker.c **** 
 3393              		.loc 1 1248 0
 3394 0219 5B       		popq	%rbx
 3395              		.cfi_def_cfa_offset 48
 3396 021a 5D       		popq	%rbp
 3397              		.cfi_def_cfa_offset 40
 3398 021b 415C     		popq	%r12
 3399              		.cfi_def_cfa_offset 32
 3400              	.LVL478:
 3401 021d 415D     		popq	%r13
 3402              		.cfi_def_cfa_offset 24
 3403 021f 415E     		popq	%r14
 3404              		.cfi_def_cfa_offset 16
 3405 0221 415F     		popq	%r15
 3406              		.cfi_def_cfa_offset 8
 3407 0223 C3       		ret
 3408              	.LVL479:
 3409              		.p2align 4,,10
 3410 0224 0F1F4000 		.p2align 3
 3411              	.L318:
 3412              		.cfi_restore_state
 3413              	.LBB94:
 3414              	.LBB75:
1069:fltk-1.3.4-1/jpeg/jdmarker.c ****   INPUT_BYTE(cinfo, c2, return FALSE);
 3415              		.loc 1 1069 0
 3416 0228 4C89E7   		movq	%r12, %rdi
 3417 022b FF5518   		call	*24(%rbp)
 3418              	.LVL480:
 3419 022e 85C0     		testl	%eax, %eax
 3420 0230 74E1     		je	.L325
 3421 0232 488B4508 		movq	8(%rbp), %rax
 3422 0236 488B5500 		movq	0(%rbp), %rdx
 3423              	.LVL481:
1070:fltk-1.3.4-1/jpeg/jdmarker.c ****   if (c != 0xFF || c2 != (int) M_SOI)
 3424              		.loc 1 1070 0
 3425 023a 4883E801 		subq	$1, %rax
 3426              	.LVL482:
1069:fltk-1.3.4-1/jpeg/jdmarker.c ****   INPUT_BYTE(cinfo, c2, return FALSE);
 3427              		.loc 1 1069 0
 3428 023e 440FB632 		movzbl	(%rdx), %r14d
 3429              	.LVL483:
1070:fltk-1.3.4-1/jpeg/jdmarker.c ****   if (c != 0xFF || c2 != (int) M_SOI)
 3430              		.loc 1 1070 0
 3431 0242 0F851DFE 		jne	.L711
 3431      FFFF
 3432              	.LVL484:
 3433              	.L321:
 3434 0248 4C89E7   		movq	%r12, %rdi
 3435 024b FF5518   		call	*24(%rbp)
 3436              	.LVL485:
 3437 024e 85C0     		testl	%eax, %eax
 3438 0250 74C1     		je	.L325
 3439 0252 488B5500 		movq	0(%rbp), %rdx
 3440              	.LVL486:
 3441 0256 488B4508 		movq	8(%rbp), %rax
 3442              	.LVL487:
 3443 025a E90AFEFF 		jmp	.L322
 3443      FF
 3444              	.LVL488:
 3445              	.L345:
 3446              	.LBE75:
 3447              	.LBE94:
1215:fltk-1.3.4-1/jpeg/jdmarker.c **** 	return JPEG_SUSPENDED;
 3448              		.loc 1 1215 0
 3449 025f 498B8424 		movq	616(%r12), %rax
 3449      68020000 
 3450 0267 4C89E7   		movq	%r12, %rdi
 3451 026a FF5028   		call	*40(%rax)
 3452              	.LVL489:
 3453 026d 85C0     		testl	%eax, %eax
 3454 026f 74A2     		je	.L325
 3455              		.p2align 4,,10
 3456 0271 0F1F8000 		.p2align 3
 3456      000000
 3457              	.L348:
1246:fltk-1.3.4-1/jpeg/jdmarker.c ****   } /* end loop */
 3458              		.loc 1 1246 0
 3459 0278 41C78424 		movl	$0, 572(%r12)
 3459      3C020000 
 3459      00000000 
1247:fltk-1.3.4-1/jpeg/jdmarker.c **** }
 3460              		.loc 1 1247 0
 3461 0284 E9A7FDFF 		jmp	.L693
 3461      FF
 3462              	.L344:
 3463              	.LVL490:
 3464              	.LBB95:
 3465              	.LBB96:
 654:fltk-1.3.4-1/jpeg/jdmarker.c ****     ERREXITS(cinfo, JERR_SOF_BEFORE, "LSE");
 3466              		.loc 1 654 0
 3467 0289 498B8424 		movq	616(%r12), %rax
 3467      68020000 
 652:fltk-1.3.4-1/jpeg/jdmarker.c **** 
 3468              		.loc 1 652 0
 3469 0291 498B6C24 		movq	40(%r12), %rbp
 3469      28
 3470              	.LVL491:
 654:fltk-1.3.4-1/jpeg/jdmarker.c ****     ERREXITS(cinfo, JERR_SOF_BEFORE, "LSE");
 3471              		.loc 1 654 0
 3472 0296 8B401C   		movl	28(%rax), %eax
 652:fltk-1.3.4-1/jpeg/jdmarker.c **** 
 3473              		.loc 1 652 0
 3474 0299 4C8B7500 		movq	0(%rbp), %r14
 3475              	.LVL492:
 3476 029d 488B5D08 		movq	8(%rbp), %rbx
 3477              	.LVL493:
 654:fltk-1.3.4-1/jpeg/jdmarker.c ****     ERREXITS(cinfo, JERR_SOF_BEFORE, "LSE");
 3478              		.loc 1 654 0
 3479 02a1 85C0     		testl	%eax, %eax
 3480 02a3 0F84250B 		je	.L712
 3480      0000
 3481              	.L433:
 657:fltk-1.3.4-1/jpeg/jdmarker.c **** 
 3482              		.loc 1 657 0
 3483 02a9 41837C24 		cmpl	$2, 56(%r12)
 3483      3802
 3484 02af 0F8EBD00 		jle	.L434
 3484      0000
 659:fltk-1.3.4-1/jpeg/jdmarker.c **** 
 3485              		.loc 1 659 0
 3486 02b5 4885DB   		testq	%rbx, %rbx
 3487 02b8 0F84C10D 		je	.L713
 3487      0000
 3488              	.L435:
 3489              	.LVL494:
 3490 02be 450FB62E 		movzbl	(%r14), %r13d
 3491 02c2 41C1E508 		sall	$8, %r13d
 3492              	.LVL495:
 3493 02c6 4883EB01 		subq	$1, %rbx
 3494              	.LVL496:
 3495 02ca 0F84E30A 		je	.L436
 3495      0000
 3496 02d0 4983C601 		addq	$1, %r14
 3497              	.LVL497:
 3498              	.L437:
 661:fltk-1.3.4-1/jpeg/jdmarker.c ****     ERREXIT(cinfo, JERR_BAD_LENGTH);
 3499              		.loc 1 661 0
 3500 02d4 410FB606 		movzbl	(%r14), %eax
 659:fltk-1.3.4-1/jpeg/jdmarker.c **** 
 3501              		.loc 1 659 0
 3502 02d8 4883EB01 		subq	$1, %rbx
 3503              	.LVL498:
 661:fltk-1.3.4-1/jpeg/jdmarker.c ****     ERREXIT(cinfo, JERR_BAD_LENGTH);
 3504              		.loc 1 661 0
 3505 02dc 4901C5   		addq	%rax, %r13
 3506              	.LVL499:
 3507 02df 4983FD18 		cmpq	$24, %r13
 3508 02e3 7414     		je	.L438
 662:fltk-1.3.4-1/jpeg/jdmarker.c **** 
 3509              		.loc 1 662 0
 3510 02e5 498B0424 		movq	(%r12), %rax
 3511 02e9 4C89E7   		movq	%r12, %rdi
 3512 02ec C740280C 		movl	$12, 40(%rax)
 3512      000000
 3513 02f3 498B0424 		movq	(%r12), %rax
 3514 02f7 FF10     		call	*(%rax)
 3515              	.LVL500:
 3516              	.L438:
 664:fltk-1.3.4-1/jpeg/jdmarker.c ****   if (tmp != 0x0D)	/* ID inverse transform specification */
 3517              		.loc 1 664 0
 3518 02f9 4885DB   		testq	%rbx, %rbx
 659:fltk-1.3.4-1/jpeg/jdmarker.c **** 
 3519              		.loc 1 659 0
 3520 02fc 4D8D6E01 		leaq	1(%r14), %r13
 3521              	.LVL501:
 664:fltk-1.3.4-1/jpeg/jdmarker.c ****   if (tmp != 0x0D)	/* ID inverse transform specification */
 3522              		.loc 1 664 0
 3523 0300 0F84AB0D 		je	.L714
 3523      0000
 3524              	.LVL502:
 3525              	.L440:
 3526 0306 4883EB01 		subq	$1, %rbx
 3527              	.LVL503:
 665:fltk-1.3.4-1/jpeg/jdmarker.c ****     ERREXIT1(cinfo, JERR_UNKNOWN_MARKER, cinfo->unread_marker);
 3528              		.loc 1 665 0
 3529 030a 41807D00 		cmpb	$13, 0(%r13)
 3529      0D
 3530 030f 7423     		je	.L441
 666:fltk-1.3.4-1/jpeg/jdmarker.c ****   INPUT_2BYTES(cinfo, tmp, return FALSE);
 3531              		.loc 1 666 0
 3532 0311 498B0424 		movq	(%r12), %rax
 3533 0315 4C89E7   		movq	%r12, %rdi
 3534 0318 C7402846 		movl	$70, 40(%rax)
 3534      000000
 3535              	.LVL504:
 3536 031f 498B0424 		movq	(%r12), %rax
 3537 0323 418B9424 		movl	572(%r12), %edx
 3537      3C020000 
 3538 032b 89502C   		movl	%edx, 44(%rax)
 3539 032e 498B0424 		movq	(%r12), %rax
 3540 0332 FF10     		call	*(%rax)
 3541              	.LVL505:
 3542              	.L441:
 667:fltk-1.3.4-1/jpeg/jdmarker.c ****   if (tmp != MAXJSAMPLE) goto bad;		/* MAXTRANS */
 3543              		.loc 1 667 0
 3544 0334 4885DB   		testq	%rbx, %rbx
 664:fltk-1.3.4-1/jpeg/jdmarker.c ****   if (tmp != 0x0D)	/* ID inverse transform specification */
 3545              		.loc 1 664 0
 3546 0337 498D4501 		leaq	1(%r13), %rax
 667:fltk-1.3.4-1/jpeg/jdmarker.c ****   if (tmp != MAXJSAMPLE) goto bad;		/* MAXTRANS */
 3547              		.loc 1 667 0
 3548 033b 0F848B0D 		je	.L715
 3548      0000
 3549              	.LVL506:
 3550              	.L443:
 3551 0341 440FB628 		movzbl	(%rax), %r13d
 3552 0345 41C1E508 		sall	$8, %r13d
 3553              	.LVL507:
 3554 0349 4883EB01 		subq	$1, %rbx
 3555              	.LVL508:
 3556 034d 0F84940D 		je	.L444
 3556      0000
 3557 0353 4883C001 		addq	$1, %rax
 3558              	.LVL509:
 3559              	.L445:
 3560 0357 4C8D7001 		leaq	1(%rax), %r14
 668:fltk-1.3.4-1/jpeg/jdmarker.c ****   INPUT_BYTE(cinfo, tmp, return FALSE);
 3561              		.loc 1 668 0
 3562 035b 0FB600   		movzbl	(%rax), %eax
 3563              	.LVL510:
 667:fltk-1.3.4-1/jpeg/jdmarker.c ****   if (tmp != MAXJSAMPLE) goto bad;		/* MAXTRANS */
 3564              		.loc 1 667 0
 3565 035e 4883EB01 		subq	$1, %rbx
 3566              	.LVL511:
 668:fltk-1.3.4-1/jpeg/jdmarker.c ****   INPUT_BYTE(cinfo, tmp, return FALSE);
 3567              		.loc 1 668 0
 3568 0362 4101C5   		addl	%eax, %r13d
 3569 0365 4181FDFF 		cmpl	$255, %r13d
 3569      000000
 3570 036c 0F84A90D 		je	.L716
 3570      0000
 3571              	.L434:
 696:fltk-1.3.4-1/jpeg/jdmarker.c ****   }
 3572              		.loc 1 696 0
 3573 0372 498B0424 		movq	(%r12), %rax
 3574 0376 4C89E7   		movq	%r12, %rdi
 3575 0379 C740281C 		movl	$28, 40(%rax)
 3575      000000
 3576 0380 498B0424 		movq	(%r12), %rax
 3577 0384 FF10     		call	*(%rax)
 3578              	.LVL512:
 3579              	.L465:
 700:fltk-1.3.4-1/jpeg/jdmarker.c **** 
 3580              		.loc 1 700 0
 3581 0386 41C78424 		movl	$1, 396(%r12)
 3581      8C010000 
 3581      01000000 
 702:fltk-1.3.4-1/jpeg/jdmarker.c ****   return TRUE;
 3582              		.loc 1 702 0
 3583 0392 4C897500 		movq	%r14, 0(%rbp)
 3584 0396 48895D08 		movq	%rbx, 8(%rbp)
 3585              	.LVL513:
 3586 039a E9D9FEFF 		jmp	.L348
 3586      FF
 3587              	.L343:
 3588              	.LBE96:
 3589              	.LBE95:
1209:fltk-1.3.4-1/jpeg/jdmarker.c **** 		cinfo->unread_marker - (int) M_APP0]) (cinfo))
 3590              		.loc 1 1209 0
 3591 039f 498B9424 		movq	616(%r12), %rdx
 3591      68020000 
 3592 03a7 2DE00000 		subl	$224, %eax
 3592      00
 3593 03ac 4C89E7   		movq	%r12, %rdi
 3594 03af 4898     		cltq
 3595 03b1 FF54C230 		call	*48(%rdx,%rax,8)
 3596              	.LVL514:
 3597 03b5 85C0     		testl	%eax, %eax
 3598 03b7 0F85BBFE 		jne	.L348
 3598      FFFF
 3599 03bd E951FEFF 		jmp	.L325
 3599      FF
 3600              		.p2align 4,,10
 3601 03c2 660F1F44 		.p2align 3
 3601      0000
 3602              	.L341:
1232:fltk-1.3.4-1/jpeg/jdmarker.c **** 	return JPEG_SUSPENDED;
 3603              		.loc 1 1232 0
 3604 03c8 4C89E7   		movq	%r12, %rdi
 3605 03cb E8000000 		call	skip_variable
 3605      00
 3606              	.LVL515:
 3607 03d0 85C0     		testl	%eax, %eax
 3608 03d2 0F85A0FE 		jne	.L348
 3608      FFFF
 3609 03d8 E936FEFF 		jmp	.L325
 3609      FF
 3610 03dd 0F1F00   		.p2align 4,,10
 3611              		.p2align 3
 3612              	.L340:
 3613              	.LVL516:
 3614              	.LBB105:
 3615              	.LBB106:
 540:fltk-1.3.4-1/jpeg/jdmarker.c **** 
 3616              		.loc 1 540 0
 3617 03e0 4D8B7C24 		movq	40(%r12), %r15
 3617      28
 3618              	.LVL517:
 3619 03e5 498B4708 		movq	8(%r15), %rax
 3620              	.LVL518:
 542:fltk-1.3.4-1/jpeg/jdmarker.c ****   length -= 2;
 3621              		.loc 1 542 0
 3622 03e9 4885C0   		testq	%rax, %rax
 3623 03ec 0F842A0B 		je	.L396
 3623      0000
 540:fltk-1.3.4-1/jpeg/jdmarker.c **** 
 3624              		.loc 1 540 0
 3625 03f2 498B0F   		movq	(%r15), %rcx
 3626              	.LVL519:
 3627              	.L397:
 542:fltk-1.3.4-1/jpeg/jdmarker.c ****   length -= 2;
 3628              		.loc 1 542 0
 3629 03f5 0FB619   		movzbl	(%rcx), %ebx
 3630 03f8 C1E308   		sall	$8, %ebx
 3631              	.LVL520:
 3632 03fb 4883E801 		subq	$1, %rax
 3633              	.LVL521:
 3634 03ff 0F844E0B 		je	.L398
 3634      0000
 3635 0405 4883C101 		addq	$1, %rcx
 3636              	.LVL522:
 3637              	.L399:
 3638 0409 4C8D70FF 		leaq	-1(%rax), %r14
 3639              	.LVL523:
 3640 040d 0FB601   		movzbl	(%rcx), %eax
 3641 0410 488D5101 		leaq	1(%rcx), %rdx
 3642              	.LVL524:
 543:fltk-1.3.4-1/jpeg/jdmarker.c **** 
 3643              		.loc 1 543 0
 3644 0414 488D4C03 		leaq	-2(%rbx,%rax), %rcx
 3644      FE
 3645              	.LVL525:
 545:fltk-1.3.4-1/jpeg/jdmarker.c ****     length--;
 3646              		.loc 1 545 0
 3647 0419 4885C9   		testq	%rcx, %rcx
 3648 041c 0F8ED808 		jle	.L400
 3648      0000
 3649              	.L422:
 546:fltk-1.3.4-1/jpeg/jdmarker.c ****     INPUT_BYTE(cinfo, n, return FALSE);
 3650              		.loc 1 546 0
 3651 0422 488D41FF 		leaq	-1(%rcx), %rax
 547:fltk-1.3.4-1/jpeg/jdmarker.c ****     prec = n >> 4;
 3652              		.loc 1 547 0
 3653 0426 4D85F6   		testq	%r14, %r14
 546:fltk-1.3.4-1/jpeg/jdmarker.c ****     INPUT_BYTE(cinfo, n, return FALSE);
 3654              		.loc 1 546 0
 3655 0429 48894424 		movq	%rax, 40(%rsp)
 3655      28
 3656              	.LVL526:
 547:fltk-1.3.4-1/jpeg/jdmarker.c ****     prec = n >> 4;
 3657              		.loc 1 547 0
 3658 042e 7516     		jne	.L401
 3659 0430 4C89E7   		movq	%r12, %rdi
 3660 0433 41FF5718 		call	*24(%r15)
 3661              	.LVL527:
 3662 0437 85C0     		testl	%eax, %eax
 3663 0439 0F84D4FD 		je	.L325
 3663      FFFF
 3664 043f 498B17   		movq	(%r15), %rdx
 3665              	.LVL528:
 3666 0442 4D8B7708 		movq	8(%r15), %r14
 3667              	.LVL529:
 3668              	.L401:
 3669 0446 0FB61A   		movzbl	(%rdx), %ebx
 3670 0449 488D4201 		leaq	1(%rdx), %rax
 551:fltk-1.3.4-1/jpeg/jdmarker.c **** 
 3671              		.loc 1 551 0
 3672 044d 498B1424 		movq	(%r12), %rdx
 3673              	.LVL530:
 547:fltk-1.3.4-1/jpeg/jdmarker.c ****     prec = n >> 4;
 3674              		.loc 1 547 0
 3675 0451 4983EE01 		subq	$1, %r14
 3676              	.LVL531:
 551:fltk-1.3.4-1/jpeg/jdmarker.c **** 
 3677              		.loc 1 551 0
 3678 0455 BE010000 		movl	$1, %esi
 3678      00
 3679 045a 4C89E7   		movq	%r12, %rdi
 547:fltk-1.3.4-1/jpeg/jdmarker.c ****     prec = n >> 4;
 3680              		.loc 1 547 0
 3681 045d 48894424 		movq	%rax, 16(%rsp)
 3681      10
 3682              	.LVL532:
 551:fltk-1.3.4-1/jpeg/jdmarker.c **** 
 3683              		.loc 1 551 0
 3684 0462 C7422853 		movl	$83, 40(%rdx)
 3684      000000
 3685 0469 498B1424 		movq	(%r12), %rdx
 547:fltk-1.3.4-1/jpeg/jdmarker.c ****     prec = n >> 4;
 3686              		.loc 1 547 0
 3687 046d 89DD     		movl	%ebx, %ebp
 3688              	.LVL533:
 548:fltk-1.3.4-1/jpeg/jdmarker.c ****     n &= 0x0F;
 3689              		.loc 1 548 0
 3690 046f C1FB04   		sarl	$4, %ebx
 3691              	.LVL534:
 3692 0472 83E50F   		andl	$15, %ebp
 3693              	.LVL535:
 549:fltk-1.3.4-1/jpeg/jdmarker.c **** 
 3694              		.loc 1 549 0
 3695 0475 440FB6ED 		movzbl	%bpl, %r13d
 3696              	.LVL536:
 551:fltk-1.3.4-1/jpeg/jdmarker.c **** 
 3697              		.loc 1 551 0
 3698 0479 44896A2C 		movl	%r13d, 44(%rdx)
 3699 047d 498B1424 		movq	(%r12), %rdx
 3700 0481 895A30   		movl	%ebx, 48(%rdx)
 3701 0484 498B1424 		movq	(%r12), %rdx
 3702 0488 FF5208   		call	*8(%rdx)
 3703              	.LVL537:
 553:fltk-1.3.4-1/jpeg/jdmarker.c ****       ERREXIT1(cinfo, JERR_DQT_INDEX, n);
 3704              		.loc 1 553 0
 3705 048b 4080FD03 		cmpb	$3, %bpl
 3706 048f 0F87F508 		ja	.L717
 3706      0000
 3707              	.L402:
 3708 0495 400FB6ED 		movzbl	%bpl, %ebp
 3709 0499 498D2CEC 		leaq	(%r12,%rbp,8), %rbp
 556:fltk-1.3.4-1/jpeg/jdmarker.c ****       cinfo->quant_tbl_ptrs[n] = jpeg_alloc_quant_table((j_common_ptr) cinfo);
 3710              		.loc 1 556 0
 3711 049d 488B8DC8 		movq	200(%rbp), %rcx
 3711      000000
 3712 04a4 4885C9   		testq	%rcx, %rcx
 3713 04a7 0F84ED0B 		je	.L718
 3713      0000
 3714              	.L403:
 3715              	.LVL538:
 560:fltk-1.3.4-1/jpeg/jdmarker.c ****       if (length < DCTSIZE2 * 2) {
 3716              		.loc 1 560 0
 3717 04ad 85DB     		testl	%ebx, %ebx
 3718 04af 0F847308 		je	.L404
 3718      0000
 561:fltk-1.3.4-1/jpeg/jdmarker.c **** 	/* Initialize full table for safety. */
 3719              		.loc 1 561 0
 3720 04b5 48837C24 		cmpq	$127, 40(%rsp)
 3720      287F
 3721 04bb 0F8F4F08 		jg	.L469
 3721      0000
 3722 04c1 488D9180 		leaq	128(%rcx), %rdx
 3722      000000
 3723 04c8 4889C8   		movq	%rcx, %rax
 3724              	.LVL539:
 3725 04cb 0F1F4400 		.p2align 4,,10
 3725      00
 3726              		.p2align 3
 3727              	.L406:
 564:fltk-1.3.4-1/jpeg/jdmarker.c **** 	}
 3728              		.loc 1 564 0
 3729 04d0 BF010000 		movl	$1, %edi
 3729      00
 3730 04d5 4883C002 		addq	$2, %rax
 3731 04d9 668978FE 		movw	%di, -2(%rax)
 3732              	.LVL540:
 563:fltk-1.3.4-1/jpeg/jdmarker.c **** 	  quant_ptr->quantval[i] = 1;
 3733              		.loc 1 563 0
 3734 04dd 4839D0   		cmpq	%rdx, %rax
 3735 04e0 75EE     		jne	.L406
 566:fltk-1.3.4-1/jpeg/jdmarker.c ****       } else
 3736              		.loc 1 566 0
 3737 04e2 488B4424 		movq	40(%rsp), %rax
 3737      28
 3738 04e7 48D1F8   		sarq	%rax
 3739 04ea 48894424 		movq	%rax, 8(%rsp)
 3739      08
 3740              	.LVL541:
 3741              	.L407:
 3742 04ef 488B4424 		movq	8(%rsp), %rax
 3742      08
 3743 04f4 4883E804 		subq	$4, %rax
 3744 04f8 4883F82D 		cmpq	$45, %rax
 3745 04fc 0F872707 		ja	.L409
 3745      0000
 3746 0502 488B2CC5 		movq	CSWTCH.107(,%rax,8), %rbp
 3746      00000000 
 3747              	.LVL542:
 3748              	.L405:
 590:fltk-1.3.4-1/jpeg/jdmarker.c ****       if (prec)
 3749              		.loc 1 590 0
 3750 050a 488B5424 		movq	16(%rsp), %rdx
 3750      10
 3751 050f 4531ED   		xorl	%r13d, %r13d
 3752              	.LVL543:
 3753 0512 EB4A     		jmp	.L417
 3754              	.LVL544:
 3755              		.p2align 4,,10
 3756 0514 0F1F4000 		.p2align 3
 3757              	.L721:
 592:fltk-1.3.4-1/jpeg/jdmarker.c ****       else
 3758              		.loc 1 592 0
 3759 0518 4D85F6   		testq	%r14, %r14
 3760 051b 0F84A705 		je	.L719
 3760      0000
 3761              	.L412:
 3762              	.LVL545:
 3763 0521 0FB602   		movzbl	(%rdx), %eax
 3764 0524 C1E008   		sall	$8, %eax
 3765 0527 4983EE01 		subq	$1, %r14
 3766              	.LVL546:
 3767 052b 4189C2   		movl	%eax, %r10d
 3768              	.LVL547:
 3769 052e 488D4201 		leaq	1(%rdx), %rax
 3770              	.LVL548:
 3771 0532 0F84E005 		je	.L720
 3771      0000
 3772              	.LVL549:
 3773              	.L414:
 3774 0538 488D5001 		leaq	1(%rax), %rdx
 3775 053c 0FB600   		movzbl	(%rax), %eax
 3776              	.LVL550:
 3777 053f 4983EE01 		subq	$1, %r14
 3778              	.LVL551:
 3779 0543 4401D0   		addl	%r10d, %eax
 3780              	.LVL552:
 3781              	.L415:
 596:fltk-1.3.4-1/jpeg/jdmarker.c ****     }
 3782              		.loc 1 596 0
 3783 0546 4A637CAD 		movslq	0(%rbp,%r13,4), %rdi
 3783      00
 590:fltk-1.3.4-1/jpeg/jdmarker.c ****       if (prec)
 3784              		.loc 1 590 0
 3785 054b 4983C501 		addq	$1, %r13
 3786              	.LVL553:
 3787 054f 4C396C24 		cmpq	%r13, 8(%rsp)
 3787      08
 596:fltk-1.3.4-1/jpeg/jdmarker.c ****     }
 3788              		.loc 1 596 0
 3789 0554 66890479 		movw	%ax, (%rcx,%rdi,2)
 590:fltk-1.3.4-1/jpeg/jdmarker.c ****       if (prec)
 3790              		.loc 1 590 0
 3791 0558 0F8EE206 		jle	.L410
 3791      0000
 3792              	.LVL554:
 3793              	.L417:
 591:fltk-1.3.4-1/jpeg/jdmarker.c **** 	INPUT_2BYTES(cinfo, tmp, return FALSE);
 3794              		.loc 1 591 0
 3795 055e 85DB     		testl	%ebx, %ebx
 3796 0560 75B6     		jne	.L721
 594:fltk-1.3.4-1/jpeg/jdmarker.c ****       /* We convert the zigzag-order table to natural array order. */
 3797              		.loc 1 594 0
 3798 0562 4D85F6   		testq	%r14, %r14
 3799 0565 0F848505 		je	.L722
 3799      0000
 3800              	.L416:
 3801 056b 0FB602   		movzbl	(%rdx), %eax
 3802 056e 4983EE01 		subq	$1, %r14
 3803              	.LVL555:
 3804 0572 4883C201 		addq	$1, %rdx
 3805              	.LVL556:
 3806 0576 EBCE     		jmp	.L415
 3807              	.LVL557:
 3808              	.L342:
 3809              	.LBE106:
 3810              	.LBE105:
 3811              	.LBB115:
 3812              	.LBB116:
 627:fltk-1.3.4-1/jpeg/jdmarker.c **** 
 3813              		.loc 1 627 0
 3814 0578 4D8B7424 		movq	40(%r12), %r14
 3814      28
 3815              	.LVL558:
 3816 057d 498B4608 		movq	8(%r14), %rax
 3817              	.LVL559:
 629:fltk-1.3.4-1/jpeg/jdmarker.c ****   
 3818              		.loc 1 629 0
 3819 0581 4885C0   		testq	%rax, %rax
 3820 0584 0F84B108 		je	.L424
 3820      0000
 627:fltk-1.3.4-1/jpeg/jdmarker.c **** 
 3821              		.loc 1 627 0
 3822 058a 498B16   		movq	(%r14), %rdx
 3823              	.LVL560:
 3824              	.L425:
 629:fltk-1.3.4-1/jpeg/jdmarker.c ****   
 3825              		.loc 1 629 0
 3826 058d 440FB62A 		movzbl	(%rdx), %r13d
 3827 0591 488D6A01 		leaq	1(%rdx), %rbp
 3828              	.LVL561:
 3829 0595 41C1E508 		sall	$8, %r13d
 3830              	.LVL562:
 3831 0599 4883E801 		subq	$1, %rax
 3832              	.LVL563:
 3833 059d 0F84CB09 		je	.L723
 3833      0000
 3834              	.L427:
 3835 05a3 488D58FF 		leaq	-1(%rax), %rbx
 3836              	.LVL564:
 631:fltk-1.3.4-1/jpeg/jdmarker.c ****     ERREXIT(cinfo, JERR_BAD_LENGTH);
 3837              		.loc 1 631 0
 3838 05a7 0FB64500 		movzbl	0(%rbp), %eax
 3839 05ab 4901C5   		addq	%rax, %r13
 3840              	.LVL565:
 3841 05ae 4983FD04 		cmpq	$4, %r13
 3842 05b2 7414     		je	.L428
 632:fltk-1.3.4-1/jpeg/jdmarker.c **** 
 3843              		.loc 1 632 0
 3844 05b4 498B0424 		movq	(%r12), %rax
 3845 05b8 4C89E7   		movq	%r12, %rdi
 3846 05bb C740280C 		movl	$12, 40(%rax)
 3846      000000
 3847 05c2 498B0424 		movq	(%r12), %rax
 3848 05c6 FF10     		call	*(%rax)
 3849              	.LVL566:
 3850              	.L428:
 634:fltk-1.3.4-1/jpeg/jdmarker.c **** 
 3851              		.loc 1 634 0
 3852 05c8 4885DB   		testq	%rbx, %rbx
 629:fltk-1.3.4-1/jpeg/jdmarker.c ****   
 3853              		.loc 1 629 0
 3854 05cb 488D5501 		leaq	1(%rbp), %rdx
 634:fltk-1.3.4-1/jpeg/jdmarker.c **** 
 3855              		.loc 1 634 0
 3856 05cf 0F848F0A 		je	.L724
 3856      0000
 3857              	.LVL567:
 3858              	.L430:
 3859 05d5 440FB62A 		movzbl	(%rdx), %r13d
 3860              	.LVL568:
 3861 05d9 488D6A01 		leaq	1(%rdx), %rbp
 3862              	.LVL569:
 3863 05dd 41C1E508 		sall	$8, %r13d
 3864              	.LVL570:
 3865 05e1 4883EB01 		subq	$1, %rbx
 3866              	.LVL571:
 3867 05e5 7516     		jne	.L432
 3868 05e7 4C89E7   		movq	%r12, %rdi
 3869 05ea 41FF5618 		call	*24(%r14)
 3870              	.LVL572:
 3871 05ee 85C0     		testl	%eax, %eax
 3872 05f0 0F841DFC 		je	.L325
 3872      FFFF
 3873 05f6 498B2E   		movq	(%r14), %rbp
 3874              	.LVL573:
 3875 05f9 498B5E08 		movq	8(%r14), %rbx
 3876              	.LVL574:
 3877              	.L432:
 3878 05fd 0FB64500 		movzbl	0(%rbp), %eax
 636:fltk-1.3.4-1/jpeg/jdmarker.c **** 
 3879              		.loc 1 636 0
 3880 0601 BE010000 		movl	$1, %esi
 3880      00
 3881 0606 4C89E7   		movq	%r12, %rdi
 640:fltk-1.3.4-1/jpeg/jdmarker.c ****   return TRUE;
 3882              		.loc 1 640 0
 3883 0609 4883EB01 		subq	$1, %rbx
 3884              	.LVL575:
 634:fltk-1.3.4-1/jpeg/jdmarker.c **** 
 3885              		.loc 1 634 0
 3886 060d 4101C5   		addl	%eax, %r13d
 3887              	.LVL576:
 636:fltk-1.3.4-1/jpeg/jdmarker.c **** 
 3888              		.loc 1 636 0
 3889 0610 498B0424 		movq	(%r12), %rax
 3890 0614 C7402854 		movl	$84, 40(%rax)
 3890      000000
 3891 061b 498B0424 		movq	(%r12), %rax
 3892 061f 4489682C 		movl	%r13d, 44(%rax)
 3893 0623 498B0424 		movq	(%r12), %rax
 3894 0627 FF5008   		call	*8(%rax)
 3895              	.LVL577:
 640:fltk-1.3.4-1/jpeg/jdmarker.c ****   return TRUE;
 3896              		.loc 1 640 0
 3897 062a 488D5501 		leaq	1(%rbp), %rdx
 3898              	.LVL578:
 638:fltk-1.3.4-1/jpeg/jdmarker.c **** 
 3899              		.loc 1 638 0
 3900 062e 4589AC24 		movl	%r13d, 372(%r12)
 3900      74010000 
 640:fltk-1.3.4-1/jpeg/jdmarker.c ****   return TRUE;
 3901              		.loc 1 640 0
 3902 0636 49895E08 		movq	%rbx, 8(%r14)
 3903              	.LVL579:
 3904 063a 498916   		movq	%rdx, (%r14)
 3905 063d E936FCFF 		jmp	.L348
 3905      FF
 3906              	.L331:
 3907              	.LBE116:
 3908              	.LBE115:
1130:fltk-1.3.4-1/jpeg/jdmarker.c **** 	return JPEG_SUSPENDED;
 3909              		.loc 1 1130 0
 3910 0642 31C9     		xorl	%ecx, %ecx
 3911              	.L702:
1140:fltk-1.3.4-1/jpeg/jdmarker.c **** 	return JPEG_SUSPENDED;
 3912              		.loc 1 1140 0
 3913 0644 BA010000 		movl	$1, %edx
 3913      00
 3914              	.L699:
 3915 0649 31F6     		xorl	%esi, %esi
 3916 064b 4C89E7   		movq	%r12, %rdi
 3917 064e E8000000 		call	get_sof
 3917      00
 3918              	.LVL580:
 3919 0653 85C0     		testl	%eax, %eax
 3920 0655 0F851DFC 		jne	.L348
 3920      FFFF
 3921 065b E9B3FBFF 		jmp	.L325
 3921      FF
 3922              		.p2align 4,,10
 3923              		.p2align 3
 3924              	.L335:
 3925 0660 B9010000 		movl	$1, %ecx
 3925      00
 3926 0665 EBDD     		jmp	.L702
 3927              	.L334:
1135:fltk-1.3.4-1/jpeg/jdmarker.c **** 	return JPEG_SUSPENDED;
 3928              		.loc 1 1135 0
 3929 0667 B9010000 		movl	$1, %ecx
 3929      00
 3930 066c 31D2     		xorl	%edx, %edx
 3931 066e EBD9     		jmp	.L699
 3932              	.L333:
1174:fltk-1.3.4-1/jpeg/jdmarker.c **** 	return JPEG_SUSPENDED;
 3933              		.loc 1 1174 0
 3934 0670 4C89E7   		movq	%r12, %rdi
 3935 0673 E8000000 		call	get_dht
 3935      00
 3936              	.LVL581:
 3937 0678 85C0     		testl	%eax, %eax
 3938 067a 0F85F8FB 		jne	.L348
 3938      FFFF
 3939 0680 E98EFBFF 		jmp	.L325
 3939      FF
 3940              		.p2align 4,,10
 3941 0685 0F1F00   		.p2align 3
 3942              	.L332:
1154:fltk-1.3.4-1/jpeg/jdmarker.c ****       break;
 3943              		.loc 1 1154 0
 3944 0688 498B0424 		movq	(%r12), %rax
 3945 068c C740283F 		movl	$63, 40(%rax)
 3945      000000
 3946              	.L697:
1242:fltk-1.3.4-1/jpeg/jdmarker.c ****       break;
 3947              		.loc 1 1242 0
 3948 0693 498B0424 		movq	(%r12), %rax
 3949 0697 418B9424 		movl	572(%r12), %edx
 3949      3C020000 
 3950 069f 4C89E7   		movq	%r12, %rdi
 3951 06a2 89502C   		movl	%edx, 44(%rax)
 3952 06a5 498B0424 		movq	(%r12), %rax
 3953 06a9 FF10     		call	*(%rax)
 3954              	.LVL582:
1243:fltk-1.3.4-1/jpeg/jdmarker.c ****     }
 3955              		.loc 1 1243 0
 3956 06ab E9C8FBFF 		jmp	.L348
 3956      FF
 3957              	.L337:
 3958              	.LVL583:
 3959              	.LBB120:
 3960              	.LBB121:
 204:fltk-1.3.4-1/jpeg/jdmarker.c **** 
 3961              		.loc 1 204 0
 3962 06b0 498B0424 		movq	(%r12), %rax
 3963 06b4 BE010000 		movl	$1, %esi
 3963      00
 3964 06b9 4C89E7   		movq	%r12, %rdi
 3965 06bc C7402868 		movl	$104, 40(%rax)
 3965      000000
 3966 06c3 498B0424 		movq	(%r12), %rax
 3967 06c7 FF5008   		call	*8(%rax)
 3968              	.LVL584:
 206:fltk-1.3.4-1/jpeg/jdmarker.c ****     ERREXIT(cinfo, JERR_SOI_DUPLICATE);
 3969              		.loc 1 206 0
 3970 06ca 498B9424 		movq	616(%r12), %rdx
 3970      68020000 
 3971 06d2 8B6A18   		movl	24(%rdx), %ebp
 3972 06d5 85ED     		testl	%ebp, %ebp
 3973 06d7 0F851E08 		jne	.L725
 3973      0000
 3974              	.L346:
 3975              	.LVL585:
 3976 06dd 498D8424 		leaq	324(%r12), %rax
 3976      44010000 
 3977              	.LVL586:
 3978              		.p2align 4,,10
 3979 06e5 0F1F00   		.p2align 3
 3980              	.L347:
 212:fltk-1.3.4-1/jpeg/jdmarker.c ****     cinfo->arith_dc_U[i] = 1;
 3981              		.loc 1 212 0
 3982 06e8 C60000   		movb	$0, (%rax)
 213:fltk-1.3.4-1/jpeg/jdmarker.c ****     cinfo->arith_ac_K[i] = 5;
 3983              		.loc 1 213 0
 3984 06eb C6401001 		movb	$1, 16(%rax)
 3985 06ef 4883C001 		addq	$1, %rax
 3986              	.LVL587:
 214:fltk-1.3.4-1/jpeg/jdmarker.c ****   }
 3987              		.loc 1 214 0
 3988 06f3 C6401F05 		movb	$5, 31(%rax)
 211:fltk-1.3.4-1/jpeg/jdmarker.c ****     cinfo->arith_dc_L[i] = 0;
 3989              		.loc 1 211 0
 3990 06f7 48394424 		cmpq	%rax, 32(%rsp)
 3990      20
 3991 06fc 75EA     		jne	.L347
 228:fltk-1.3.4-1/jpeg/jdmarker.c ****   cinfo->Y_density = 1;
 3992              		.loc 1 228 0
 3993 06fe 41BB0100 		movl	$1, %r11d
 3993      0000
 229:fltk-1.3.4-1/jpeg/jdmarker.c ****   cinfo->saw_Adobe_marker = FALSE;
 3994              		.loc 1 229 0
 3995 0704 BB010000 		movl	$1, %ebx
 3995      00
 216:fltk-1.3.4-1/jpeg/jdmarker.c **** 
 3996              		.loc 1 216 0
 3997 0709 41C78424 		movl	$0, 372(%r12)
 3997      74010000 
 3997      00000000 
 220:fltk-1.3.4-1/jpeg/jdmarker.c ****   cinfo->color_transform = JCT_NONE;
 3998              		.loc 1 220 0
 3999 0715 41C74424 		movl	$0, 60(%r12)
 3999      3C000000 
 3999      00
 221:fltk-1.3.4-1/jpeg/jdmarker.c ****   cinfo->CCIR601_sampling = FALSE; /* Assume non-CCIR sampling??? */
 4000              		.loc 1 221 0
 4001 071e 41C78424 		movl	$0, 396(%r12)
 4001      8C010000 
 4001      00000000 
 222:fltk-1.3.4-1/jpeg/jdmarker.c **** 
 4002              		.loc 1 222 0
 4003 072a 41C78424 		movl	$0, 400(%r12)
 4003      90010000 
 4003      00000000 
 224:fltk-1.3.4-1/jpeg/jdmarker.c ****   cinfo->JFIF_major_version = 1; /* set default JFIF APP0 values */
 4004              		.loc 1 224 0
 4005 0736 41C78424 		movl	$0, 376(%r12)
 4005      78010000 
 4005      00000000 
 225:fltk-1.3.4-1/jpeg/jdmarker.c ****   cinfo->JFIF_minor_version = 1;
 4006              		.loc 1 225 0
 4007 0742 41C68424 		movb	$1, 380(%r12)
 4007      7C010000 
 4007      01
 226:fltk-1.3.4-1/jpeg/jdmarker.c ****   cinfo->density_unit = 0;
 4008              		.loc 1 226 0
 4009 074b 41C68424 		movb	$1, 381(%r12)
 4009      7D010000 
 4009      01
 227:fltk-1.3.4-1/jpeg/jdmarker.c ****   cinfo->X_density = 1;
 4010              		.loc 1 227 0
 4011 0754 41C68424 		movb	$0, 382(%r12)
 4011      7E010000 
 4011      00
 228:fltk-1.3.4-1/jpeg/jdmarker.c ****   cinfo->Y_density = 1;
 4012              		.loc 1 228 0
 4013 075d 6645899C 		movw	%r11w, 384(%r12)
 4013      24800100 
 4013      00
 229:fltk-1.3.4-1/jpeg/jdmarker.c ****   cinfo->saw_Adobe_marker = FALSE;
 4014              		.loc 1 229 0
 4015 0766 6641899C 		movw	%bx, 386(%r12)
 4015      24820100 
 4015      00
 230:fltk-1.3.4-1/jpeg/jdmarker.c ****   cinfo->Adobe_transform = 0;
 4016              		.loc 1 230 0
 4017 076f 41C78424 		movl	$0, 388(%r12)
 4017      84010000 
 4017      00000000 
 231:fltk-1.3.4-1/jpeg/jdmarker.c **** 
 4018              		.loc 1 231 0
 4019 077b 41C68424 		movb	$0, 392(%r12)
 4019      88010000 
 4019      00
 233:fltk-1.3.4-1/jpeg/jdmarker.c **** 
 4020              		.loc 1 233 0
 4021 0784 C7421801 		movl	$1, 24(%rdx)
 4021      000000
 4022              	.LVL588:
 4023              	.LBE121:
 4024              	.LBE120:
 4025 078b E9E8FAFF 		jmp	.L348
 4025      FF
 4026              	.L336:
 4027              	.LVL589:
 4028              	.LBB123:
 4029              	.LBB124:
 418:fltk-1.3.4-1/jpeg/jdmarker.c **** 
 4030              		.loc 1 418 0
 4031 0790 4D8B6C24 		movq	40(%r12), %r13
 4031      28
 4032              	.LVL590:
 4033 0795 498B4508 		movq	8(%r13), %rax
 4034              	.LVL591:
 420:fltk-1.3.4-1/jpeg/jdmarker.c ****   length -= 2;
 4035              		.loc 1 420 0
 4036 0799 4885C0   		testq	%rax, %rax
 4037 079c 0F843D07 		je	.L383
 4037      0000
 418:fltk-1.3.4-1/jpeg/jdmarker.c **** 
 4038              		.loc 1 418 0
 4039 07a2 498B5500 		movq	0(%r13), %rdx
 4040              	.LVL592:
 4041              	.L384:
 420:fltk-1.3.4-1/jpeg/jdmarker.c ****   length -= 2;
 4042              		.loc 1 420 0
 4043 07a6 0FB61A   		movzbl	(%rdx), %ebx
 4044 07a9 C1E308   		sall	$8, %ebx
 4045              	.LVL593:
 4046 07ac 4883E801 		subq	$1, %rax
 4047              	.LVL594:
 4048 07b0 0F84D307 		je	.L385
 4048      0000
 4049 07b6 4883C201 		addq	$1, %rdx
 4050              	.LVL595:
 4051              	.L386:
 4052 07ba 4C8D7201 		leaq	1(%rdx), %r14
 4053 07be 0FB612   		movzbl	(%rdx), %edx
 4054              	.LVL596:
 4055 07c1 4C8D78FF 		leaq	-1(%rax), %r15
 4056              	.LVL597:
 421:fltk-1.3.4-1/jpeg/jdmarker.c ****   
 4057              		.loc 1 421 0
 4058 07c5 488D5C13 		leaq	-2(%rbx,%rdx), %rbx
 4058      FE
 4059              	.LVL598:
 4060 07ca 660F1F44 		.p2align 4,,10
 4060      0000
 4061              		.p2align 3
 4062              	.L695:
 423:fltk-1.3.4-1/jpeg/jdmarker.c ****     INPUT_BYTE(cinfo, index, return FALSE);
 4063              		.loc 1 423 0
 4064 07d0 4885DB   		testq	%rbx, %rbx
 4065 07d3 0F8EA600 		jle	.L387
 4065      0000
 4066              	.L728:
 424:fltk-1.3.4-1/jpeg/jdmarker.c ****     INPUT_BYTE(cinfo, val, return FALSE);
 4067              		.loc 1 424 0
 4068 07d9 4D85FF   		testq	%r15, %r15
 4069 07dc 0F84FE03 		je	.L726
 4069      0000
 4070              	.L388:
 4071              	.LVL599:
 4072 07e2 410FB62E 		movzbl	(%r14), %ebp
 425:fltk-1.3.4-1/jpeg/jdmarker.c **** 
 4073              		.loc 1 425 0
 4074 07e6 4C89F8   		movq	%r15, %rax
 424:fltk-1.3.4-1/jpeg/jdmarker.c ****     INPUT_BYTE(cinfo, val, return FALSE);
 4075              		.loc 1 424 0
 4076 07e9 498D4E01 		leaq	1(%r14), %rcx
 4077              	.LVL600:
 425:fltk-1.3.4-1/jpeg/jdmarker.c **** 
 4078              		.loc 1 425 0
 4079 07ed 4883E801 		subq	$1, %rax
 4080              	.LVL601:
 424:fltk-1.3.4-1/jpeg/jdmarker.c ****     INPUT_BYTE(cinfo, val, return FALSE);
 4081              		.loc 1 424 0
 4082 07f1 40886C24 		movb	%bpl, 8(%rsp)
 4082      08
 4083              	.LVL602:
 425:fltk-1.3.4-1/jpeg/jdmarker.c **** 
 4084              		.loc 1 425 0
 4085 07f6 7517     		jne	.L390
 4086 07f8 4C89E7   		movq	%r12, %rdi
 4087 07fb 41FF5518 		call	*24(%r13)
 4088              	.LVL603:
 4089 07ff 85C0     		testl	%eax, %eax
 4090 0801 0F840CFA 		je	.L325
 4090      FFFF
 4091 0807 498B4D00 		movq	0(%r13), %rcx
 4092              	.LVL604:
 4093 080b 498B4508 		movq	8(%r13), %rax
 4094              	.LVL605:
 4095              	.L390:
 429:fltk-1.3.4-1/jpeg/jdmarker.c **** 
 4096              		.loc 1 429 0
 4097 080f 498B3424 		movq	(%r12), %rsi
 425:fltk-1.3.4-1/jpeg/jdmarker.c **** 
 4098              		.loc 1 425 0
 4099 0813 4C8D78FF 		leaq	-1(%rax), %r15
 4100              	.LVL606:
 4101 0817 0FB601   		movzbl	(%rcx), %eax
 4102 081a 4C8D7101 		leaq	1(%rcx), %r14
 4103              	.LVL607:
 427:fltk-1.3.4-1/jpeg/jdmarker.c **** 
 4104              		.loc 1 427 0
 4105 081e 4883EB02 		subq	$2, %rbx
 4106              	.LVL608:
 429:fltk-1.3.4-1/jpeg/jdmarker.c **** 
 4107              		.loc 1 429 0
 4108 0822 4C89E7   		movq	%r12, %rdi
 4109 0825 C7462851 		movl	$81, 40(%rsi)
 4109      000000
 4110 082c 498B3424 		movq	(%r12), %rsi
 425:fltk-1.3.4-1/jpeg/jdmarker.c **** 
 4111              		.loc 1 425 0
 4112 0830 88442410 		movb	%al, 16(%rsp)
 4113 0834 89442418 		movl	%eax, 24(%rsp)
 4114              	.LVL609:
 429:fltk-1.3.4-1/jpeg/jdmarker.c **** 
 4115              		.loc 1 429 0
 4116 0838 896E2C   		movl	%ebp, 44(%rsi)
 4117 083b 498B3424 		movq	(%r12), %rsi
 4118 083f 894630   		movl	%eax, 48(%rsi)
 4119 0842 4D8B0C24 		movq	(%r12), %r9
 4120 0846 BE010000 		movl	$1, %esi
 4120      00
 4121 084b 41FF5108 		call	*8(%r9)
 4122              	.LVL610:
 431:fltk-1.3.4-1/jpeg/jdmarker.c ****       ERREXIT1(cinfo, JERR_DAC_INDEX, index);
 4123              		.loc 1 431 0
 4124 084f 807C2408 		cmpb	$31, 8(%rsp)
 4124      1F
 4125 0854 0FB64C24 		movzbl	16(%rsp), %ecx
 4125      10
 4126 0859 0F87A103 		ja	.L727
 4126      0000
 4127              	.L391:
 434:fltk-1.3.4-1/jpeg/jdmarker.c ****       cinfo->arith_ac_K[index-NUM_ARITH_TBLS] = (UINT8) val;
 4128              		.loc 1 434 0
 4129 085f 83FD0F   		cmpl	$15, %ebp
 4130 0862 0F8EE802 		jle	.L392
 4130      0000
 435:fltk-1.3.4-1/jpeg/jdmarker.c ****     } else {			/* define DC table */
 4131              		.loc 1 435 0
 4132 0868 8D55F0   		leal	-16(%rbp), %edx
 423:fltk-1.3.4-1/jpeg/jdmarker.c ****     INPUT_BYTE(cinfo, index, return FALSE);
 4133              		.loc 1 423 0
 4134 086b 4885DB   		testq	%rbx, %rbx
 435:fltk-1.3.4-1/jpeg/jdmarker.c ****     } else {			/* define DC table */
 4135              		.loc 1 435 0
 4136 086e 4863D2   		movslq	%edx, %rdx
 4137 0871 41888C14 		movb	%cl, 356(%r12,%rdx)
 4137      64010000 
 423:fltk-1.3.4-1/jpeg/jdmarker.c ****     INPUT_BYTE(cinfo, index, return FALSE);
 4138              		.loc 1 423 0
 4139 0879 0F8F5AFF 		jg	.L728
 4139      FFFF
 4140              	.LVL611:
 4141              	.L387:
 444:fltk-1.3.4-1/jpeg/jdmarker.c ****     ERREXIT(cinfo, JERR_BAD_LENGTH);
 4142              		.loc 1 444 0
 4143 087f 4885DB   		testq	%rbx, %rbx
 4144 0882 0F857A08 		jne	.L729
 4144      0000
 4145              	.L395:
 447:fltk-1.3.4-1/jpeg/jdmarker.c ****   return TRUE;
 4146              		.loc 1 447 0
 4147 0888 4D897500 		movq	%r14, 0(%r13)
 4148 088c 4D897D08 		movq	%r15, 8(%r13)
 4149              	.LVL612:
 4150 0890 E9E3F9FF 		jmp	.L348
 4150      FF
 4151              	.L338:
 4152              	.LBE124:
 4153              	.LBE123:
1164:fltk-1.3.4-1/jpeg/jdmarker.c ****       cinfo->unread_marker = 0;	/* processed the marker */
 4154              		.loc 1 1164 0
 4155 0895 498B0424 		movq	(%r12), %rax
 4156 0899 4C89E7   		movq	%r12, %rdi
 4157 089c BE010000 		movl	$1, %esi
 4157      00
 4158 08a1 C7402857 		movl	$87, 40(%rax)
 4158      000000
 4159 08a8 498B0424 		movq	(%r12), %rax
 4160 08ac FF5008   		call	*8(%rax)
 4161              	.LVL613:
1165:fltk-1.3.4-1/jpeg/jdmarker.c ****       return JPEG_REACHED_EOI;
 4162              		.loc 1 1165 0
 4163 08af 41C78424 		movl	$0, 572(%r12)
 4163      3C020000 
 4163      00000000 
1248:fltk-1.3.4-1/jpeg/jdmarker.c **** 
 4164              		.loc 1 1248 0
 4165 08bb 4883C438 		addq	$56, %rsp
 4166              		.cfi_remember_state
 4167              		.cfi_def_cfa_offset 56
1166:fltk-1.3.4-1/jpeg/jdmarker.c **** 
 4168              		.loc 1 1166 0
 4169 08bf B8020000 		movl	$2, %eax
 4169      00
1248:fltk-1.3.4-1/jpeg/jdmarker.c **** 
 4170              		.loc 1 1248 0
 4171 08c4 5B       		popq	%rbx
 4172              		.cfi_def_cfa_offset 48
 4173 08c5 5D       		popq	%rbp
 4174              		.cfi_def_cfa_offset 40
 4175 08c6 415C     		popq	%r12
 4176              		.cfi_def_cfa_offset 32
 4177              	.LVL614:
 4178 08c8 415D     		popq	%r13
 4179              		.cfi_def_cfa_offset 24
 4180 08ca 415E     		popq	%r14
 4181              		.cfi_def_cfa_offset 16
 4182 08cc 415F     		popq	%r15
 4183              		.cfi_def_cfa_offset 8
 4184 08ce C3       		ret
 4185              	.LVL615:
 4186              	.L329:
 4187              		.cfi_restore_state
1120:fltk-1.3.4-1/jpeg/jdmarker.c **** 	return JPEG_SUSPENDED;
 4188              		.loc 1 1120 0
 4189 08cf 31C9     		xorl	%ecx, %ecx
 4190 08d1 31D2     		xorl	%edx, %edx
 4191 08d3 BE010000 		movl	$1, %esi
 4191      00
 4192 08d8 4C89E7   		movq	%r12, %rdi
 4193 08db E8000000 		call	get_sof
 4193      00
 4194              	.LVL616:
 4195 08e0 85C0     		testl	%eax, %eax
 4196 08e2 0F8590F9 		jne	.L348
 4196      FFFF
 4197 08e8 E926F9FF 		jmp	.L325
 4197      FF
 4198 08ed 0F1F00   		.p2align 4,,10
 4199              		.p2align 3
 4200              	.L327:
1228:fltk-1.3.4-1/jpeg/jdmarker.c ****       break;
 4201              		.loc 1 1228 0
 4202 08f0 498B0424 		movq	(%r12), %rax
 4203 08f4 BE010000 		movl	$1, %esi
 4203      00
 4204 08f9 4C89E7   		movq	%r12, %rdi
 4205 08fc C740285E 		movl	$94, 40(%rax)
 4205      000000
 4206 0903 498B0424 		movq	(%r12), %rax
 4207 0907 418B9424 		movl	572(%r12), %edx
 4207      3C020000 
 4208 090f 89502C   		movl	%edx, 44(%rax)
 4209 0912 498B0424 		movq	(%r12), %rax
 4210 0916 FF5008   		call	*8(%rax)
 4211              	.LVL617:
1229:fltk-1.3.4-1/jpeg/jdmarker.c **** 
 4212              		.loc 1 1229 0
 4213 0919 E95AF9FF 		jmp	.L348
 4213      FF
 4214              	.L330:
1125:fltk-1.3.4-1/jpeg/jdmarker.c **** 	return JPEG_SUSPENDED;
 4215              		.loc 1 1125 0
 4216 091e 31C9     		xorl	%ecx, %ecx
 4217 0920 31D2     		xorl	%edx, %edx
 4218 0922 E922FDFF 		jmp	.L699
 4218      FF
 4219              	.LVL618:
 4220              	.L356:
 4221              	.LBB130:
 4222              	.LBB87:
 342:fltk-1.3.4-1/jpeg/jdmarker.c **** 
 4223              		.loc 1 342 0
 4224 0927 498B0424 		movq	(%r12), %rax
 4225 092b 4C89E7   		movq	%r12, %rdi
 4226 092e C740280C 		movl	$12, 40(%rax)
 4226      000000
 4227 0935 498B0424 		movq	(%r12), %rax
 4228 0939 FF10     		call	*(%rax)
 4229              	.LVL619:
 4230              	.L357:
 344:fltk-1.3.4-1/jpeg/jdmarker.c **** 
 4231              		.loc 1 344 0
 4232 093b 8B442410 		movl	16(%rsp), %eax
 348:fltk-1.3.4-1/jpeg/jdmarker.c ****     INPUT_BYTE(cinfo, c, return FALSE);
 4233              		.loc 1 348 0
 4234 093f 85C0     		testl	%eax, %eax
 344:fltk-1.3.4-1/jpeg/jdmarker.c **** 
 4235              		.loc 1 344 0
 4236 0941 41898424 		movl	%eax, 448(%r12)
 4236      C0010000 
 4237              	.LVL620:
 348:fltk-1.3.4-1/jpeg/jdmarker.c ****     INPUT_BYTE(cinfo, c, return FALSE);
 4238              		.loc 1 348 0
 4239 0949 0F8476F8 		je	.L359
 4239      FFFF
 4240 094f 498D8424 		leaq	456(%r12), %rax
 4240      C8010000 
 4241 0957 31ED     		xorl	%ebp, %ebp
 4242              	.LVL621:
 349:fltk-1.3.4-1/jpeg/jdmarker.c **** 
 4243              		.loc 1 349 0
 4244 0959 4D85FF   		testq	%r15, %r15
 4245 095c 48894424 		movq	%rax, 8(%rsp)
 4245      08
 4246 0961 0F844201 		je	.L730
 4246      0000
 4247              	.LVL622:
 4248 0967 660F1F84 		.p2align 4,,10
 4248      00000000 
 4248      00
 4249              		.p2align 3
 4250              	.L360:
 356:fltk-1.3.4-1/jpeg/jdmarker.c ****       if (c == cinfo->cur_comp_info[ci]->component_id) {
 4251              		.loc 1 356 0
 4252 0970 85ED     		testl	%ebp, %ebp
 349:fltk-1.3.4-1/jpeg/jdmarker.c **** 
 4253              		.loc 1 349 0
 4254 0972 498D77FF 		leaq	-1(%r15), %rsi
 4255              	.LVL623:
 4256 0976 410FB616 		movzbl	(%r14), %edx
 4257              	.LVL624:
 356:fltk-1.3.4-1/jpeg/jdmarker.c ****       if (c == cinfo->cur_comp_info[ci]->component_id) {
 4258              		.loc 1 356 0
 4259 097a 7E3C     		jle	.L361
 357:fltk-1.3.4-1/jpeg/jdmarker.c **** 	c = cinfo->cur_comp_info[0]->component_id;
 4260              		.loc 1 357 0
 4261 097c 498B8424 		movq	456(%r12), %rax
 4261      C8010000 
 4262 0984 448B10   		movl	(%rax), %r10d
 4263 0987 4439D2   		cmpl	%r10d, %edx
 4264 098a 0F841002 		je	.L362
 4264      0000
 4265 0990 8D4DFF   		leal	-1(%rbp), %ecx
 4266 0993 4C89E0   		movq	%r12, %rax
 4267 0996 498D3CCC 		leaq	(%r12,%rcx,8), %rdi
 4268 099a EB17     		jmp	.L364
 4269              	.LVL625:
 4270 099c 0F1F4000 		.p2align 4,,10
 4271              		.p2align 3
 4272              	.L367:
 4273 09a0 488B88D0 		movq	464(%rax), %rcx
 4273      010000
 4274 09a7 4883C008 		addq	$8, %rax
 4275 09ab 3B11     		cmpl	(%rcx), %edx
 4276 09ad 0F84ED01 		je	.L362
 4276      0000
 4277              	.L364:
 356:fltk-1.3.4-1/jpeg/jdmarker.c ****       if (c == cinfo->cur_comp_info[ci]->component_id) {
 4278              		.loc 1 356 0
 4279 09b3 4839F8   		cmpq	%rdi, %rax
 4280 09b6 75E8     		jne	.L367
 4281              	.L361:
 4282              	.LVL626:
 368:fltk-1.3.4-1/jpeg/jdmarker.c **** 	 ci++, compptr++) {
 4283              		.loc 1 368 0
 4284 09b8 418B4424 		movl	56(%r12), %eax
 4284      38
 4285 09bd 498B9C24 		movq	304(%r12), %rbx
 4285      30010000 
 4286              	.LVL627:
 4287 09c5 85C0     		testl	%eax, %eax
 4288 09c7 0F8EDE03 		jle	.L467
 4288      0000
 370:fltk-1.3.4-1/jpeg/jdmarker.c **** 	goto id_found;
 4289              		.loc 1 370 0
 4290 09cd 3B13     		cmpl	(%rbx), %edx
 4291 09cf 744C     		je	.L369
 4292 09d1 83E801   		subl	$1, %eax
 4293 09d4 4C8D7C40 		leaq	3(%rax,%rax,2), %r15
 4293      03
 4294 09d9 49C1E705 		salq	$5, %r15
 4295 09dd 4901DF   		addq	%rbx, %r15
 4296 09e0 EB0A     		jmp	.L371
 4297              	.LVL628:
 4298              		.p2align 4,,10
 4299 09e2 660F1F44 		.p2align 3
 4299      0000
 4300              	.L372:
 4301 09e8 3913     		cmpl	%edx, (%rbx)
 4302 09ea 7431     		je	.L369
 4303              	.L371:
 369:fltk-1.3.4-1/jpeg/jdmarker.c ****       if (c == compptr->component_id)
 4304              		.loc 1 369 0
 4305 09ec 4883C360 		addq	$96, %rbx
 4306              	.LVL629:
 368:fltk-1.3.4-1/jpeg/jdmarker.c **** 	 ci++, compptr++) {
 4307              		.loc 1 368 0
 4308 09f0 4C39FB   		cmpq	%r15, %rbx
 4309 09f3 75F3     		jne	.L372
 4310              	.L368:
 374:fltk-1.3.4-1/jpeg/jdmarker.c **** 
 4311              		.loc 1 374 0
 4312 09f5 498B0424 		movq	(%r12), %rax
 4313 09f9 48897424 		movq	%rsi, 24(%rsp)
 4313      18
 4314 09fe 4C89E7   		movq	%r12, %rdi
 4315 0a01 4C89FB   		movq	%r15, %rbx
 4316              	.LVL630:
 4317 0a04 C7402804 		movl	$4, 40(%rax)
 4317      000000
 4318 0a0b 498B0424 		movq	(%r12), %rax
 4319 0a0f 89502C   		movl	%edx, 44(%rax)
 4320 0a12 498B0424 		movq	(%r12), %rax
 4321 0a16 FF10     		call	*(%rax)
 4322              	.LVL631:
 4323 0a18 488B7424 		movq	24(%rsp), %rsi
 4323      18
 4324              	.LVL632:
 4325              	.L369:
 378:fltk-1.3.4-1/jpeg/jdmarker.c ****     INPUT_BYTE(cinfo, c, return FALSE);
 4326              		.loc 1 378 0
 4327 0a1d 488B4424 		movq	8(%rsp), %rax
 4327      08
 379:fltk-1.3.4-1/jpeg/jdmarker.c ****     compptr->dc_tbl_no = (c >> 4) & 15;
 4328              		.loc 1 379 0
 4329 0a22 4885F6   		testq	%rsi, %rsi
 378:fltk-1.3.4-1/jpeg/jdmarker.c ****     INPUT_BYTE(cinfo, c, return FALSE);
 4330              		.loc 1 378 0
 4331 0a25 488918   		movq	%rbx, (%rax)
 349:fltk-1.3.4-1/jpeg/jdmarker.c **** 
 4332              		.loc 1 349 0
 4333 0a28 498D4601 		leaq	1(%r14), %rax
 379:fltk-1.3.4-1/jpeg/jdmarker.c ****     compptr->dc_tbl_no = (c >> 4) & 15;
 4334              		.loc 1 379 0
 4335 0a2c 7517     		jne	.L374
 4336 0a2e 4C89E7   		movq	%r12, %rdi
 4337 0a31 41FF5518 		call	*24(%r13)
 4338              	.LVL633:
 4339 0a35 85C0     		testl	%eax, %eax
 4340 0a37 0F84D6F7 		je	.L325
 4340      FFFF
 4341 0a3d 498B4500 		movq	0(%r13), %rax
 4342              	.LVL634:
 4343 0a41 498B7508 		movq	8(%r13), %rsi
 4344              	.LVL635:
 4345              	.L374:
 4346 0a45 0FB610   		movzbl	(%rax), %edx
 4347 0a48 4C8D7001 		leaq	1(%rax), %r14
 4348 0a4c 4C8D7EFF 		leaq	-1(%rsi), %r15
 4349              	.LVL636:
 4350              	.LBB79:
 383:fltk-1.3.4-1/jpeg/jdmarker.c **** 	     compptr->dc_tbl_no, compptr->ac_tbl_no);
 4351              		.loc 1 383 0
 4352 0a50 4C89E7   		movq	%r12, %rdi
 4353 0a53 BE010000 		movl	$1, %esi
 4353      00
 4354              	.LBE79:
 348:fltk-1.3.4-1/jpeg/jdmarker.c ****     INPUT_BYTE(cinfo, c, return FALSE);
 4355              		.loc 1 348 0
 4356 0a58 83C501   		addl	$1, %ebp
 4357              	.LVL637:
 379:fltk-1.3.4-1/jpeg/jdmarker.c ****     compptr->dc_tbl_no = (c >> 4) & 15;
 4358              		.loc 1 379 0
 4359 0a5b 89D0     		movl	%edx, %eax
 4360              	.LVL638:
 380:fltk-1.3.4-1/jpeg/jdmarker.c ****     compptr->ac_tbl_no = (c     ) & 15;
 4361              		.loc 1 380 0
 4362 0a5d C1FA04   		sarl	$4, %edx
 4363              	.LVL639:
 381:fltk-1.3.4-1/jpeg/jdmarker.c **** 
 4364              		.loc 1 381 0
 4365 0a60 83E00F   		andl	$15, %eax
 4366              	.LVL640:
 380:fltk-1.3.4-1/jpeg/jdmarker.c ****     compptr->ac_tbl_no = (c     ) & 15;
 4367              		.loc 1 380 0
 4368 0a63 895314   		movl	%edx, 20(%rbx)
 4369              	.LVL641:
 4370              	.LBB80:
 383:fltk-1.3.4-1/jpeg/jdmarker.c **** 	     compptr->dc_tbl_no, compptr->ac_tbl_no);
 4371              		.loc 1 383 0
 4372 0a66 8B13     		movl	(%rbx), %edx
 4373              	.LBE80:
 381:fltk-1.3.4-1/jpeg/jdmarker.c **** 
 4374              		.loc 1 381 0
 4375 0a68 894318   		movl	%eax, 24(%rbx)
 4376              	.LBB81:
 383:fltk-1.3.4-1/jpeg/jdmarker.c **** 	     compptr->dc_tbl_no, compptr->ac_tbl_no);
 4377              		.loc 1 383 0
 4378 0a6b 498B0424 		movq	(%r12), %rax
 4379              	.LVL642:
 4380 0a6f 89502C   		movl	%edx, 44(%rax)
 4381 0a72 8B5314   		movl	20(%rbx), %edx
 4382 0a75 895030   		movl	%edx, 48(%rax)
 4383 0a78 8B5318   		movl	24(%rbx), %edx
 4384 0a7b 895034   		movl	%edx, 52(%rax)
 4385 0a7e 498B0424 		movq	(%r12), %rax
 4386              	.LVL643:
 4387 0a82 C740286A 		movl	$106, 40(%rax)
 4387      000000
 4388 0a89 498B0424 		movq	(%r12), %rax
 4389 0a8d FF5008   		call	*8(%rax)
 4390              	.LVL644:
 4391 0a90 48834424 		addq	$8, 8(%rsp)
 4391      0808
 4392              	.LBE81:
 348:fltk-1.3.4-1/jpeg/jdmarker.c ****     INPUT_BYTE(cinfo, c, return FALSE);
 4393              		.loc 1 348 0
 4394 0a96 396C2410 		cmpl	%ebp, 16(%rsp)
 4395 0a9a 0F8425F7 		je	.L359
 4395      FFFF
 349:fltk-1.3.4-1/jpeg/jdmarker.c **** 
 4396              		.loc 1 349 0
 4397 0aa0 4D85FF   		testq	%r15, %r15
 4398 0aa3 0F85C7FE 		jne	.L360
 4398      FFFF
 4399              	.L730:
 4400 0aa9 4C89E7   		movq	%r12, %rdi
 4401 0aac 41FF5518 		call	*24(%r13)
 4402              	.LVL645:
 4403 0ab0 85C0     		testl	%eax, %eax
 4404 0ab2 0F845BF7 		je	.L325
 4404      FFFF
 4405 0ab8 4D8B7500 		movq	0(%r13), %r14
 4406              	.LVL646:
 4407 0abc 4D8B7D08 		movq	8(%r13), %r15
 4408              	.LVL647:
 4409 0ac0 E9ABFEFF 		jmp	.L360
 4409      FF
 4410              	.LVL648:
 4411              		.p2align 4,,10
 4412 0ac5 0F1F00   		.p2align 3
 4413              	.L719:
 4414 0ac8 48894C24 		movq	%rcx, 16(%rsp)
 4414      10
 4415              	.LBE87:
 4416              	.LBE130:
 4417              	.LBB131:
 4418              	.LBB108:
 592:fltk-1.3.4-1/jpeg/jdmarker.c ****       else
 4419              		.loc 1 592 0
 4420 0acd 4C89E7   		movq	%r12, %rdi
 4421 0ad0 41FF5718 		call	*24(%r15)
 4422              	.LVL649:
 4423 0ad4 85C0     		testl	%eax, %eax
 4424 0ad6 0F8437F7 		je	.L325
 4424      FFFF
 4425 0adc 498B17   		movq	(%r15), %rdx
 4426              	.LVL650:
 4427 0adf 4D8B7708 		movq	8(%r15), %r14
 4428              	.LVL651:
 4429 0ae3 488B4C24 		movq	16(%rsp), %rcx
 4429      10
 4430              	.LVL652:
 4431 0ae8 E934FAFF 		jmp	.L412
 4431      FF
 4432 0aed 0F1F00   		.p2align 4,,10
 4433              		.p2align 3
 4434              	.L722:
 4435 0af0 48894C24 		movq	%rcx, 16(%rsp)
 4435      10
 594:fltk-1.3.4-1/jpeg/jdmarker.c ****       /* We convert the zigzag-order table to natural array order. */
 4436              		.loc 1 594 0
 4437 0af5 4C89E7   		movq	%r12, %rdi
 4438 0af8 41FF5718 		call	*24(%r15)
 4439              	.LVL653:
 4440 0afc 85C0     		testl	%eax, %eax
 4441 0afe 0F840FF7 		je	.L325
 4441      FFFF
 4442 0b04 498B17   		movq	(%r15), %rdx
 4443              	.LVL654:
 4444 0b07 4D8B7708 		movq	8(%r15), %r14
 4445              	.LVL655:
 4446 0b0b 488B4C24 		movq	16(%rsp), %rcx
 4446      10
 4447              	.LVL656:
 4448 0b10 E956FAFF 		jmp	.L416
 4448      FF
 4449              	.LVL657:
 4450              		.p2align 4,,10
 4451 0b15 0F1F00   		.p2align 3
 4452              	.L720:
 4453 0b18 44895424 		movl	%r10d, 24(%rsp)
 4453      18
 4454 0b1d 48894C24 		movq	%rcx, 16(%rsp)
 4454      10
 592:fltk-1.3.4-1/jpeg/jdmarker.c ****       else
 4455              		.loc 1 592 0
 4456 0b22 4C89E7   		movq	%r12, %rdi
 4457 0b25 41FF5718 		call	*24(%r15)
 4458              	.LVL658:
 4459 0b29 85C0     		testl	%eax, %eax
 4460 0b2b 0F84E2F6 		je	.L325
 4460      FFFF
 4461 0b31 498B07   		movq	(%r15), %rax
 4462              	.LVL659:
 4463 0b34 4D8B7708 		movq	8(%r15), %r14
 4464              	.LVL660:
 4465 0b38 448B5424 		movl	24(%rsp), %r10d
 4465      18
 4466 0b3d 488B4C24 		movq	16(%rsp), %rcx
 4466      10
 4467              	.LVL661:
 4468 0b42 E9F1F9FF 		jmp	.L414
 4468      FF
 4469              	.LVL662:
 4470 0b47 660F1F84 		.p2align 4,,10
 4470      00000000 
 4470      00
 4471              		.p2align 3
 4472              	.L392:
 4473              	.LBE108:
 4474              	.LBE131:
 4475              	.LBB132:
 4476              	.LBB125:
 438:fltk-1.3.4-1/jpeg/jdmarker.c ****       if (cinfo->arith_dc_L[index] > cinfo->arith_dc_U[index])
 4477              		.loc 1 438 0
 4478 0b50 8B742418 		movl	24(%rsp), %esi
 437:fltk-1.3.4-1/jpeg/jdmarker.c ****       cinfo->arith_dc_U[index] = (UINT8) (val >> 4);
 4479              		.loc 1 437 0
 4480 0b54 83E10F   		andl	$15, %ecx
 4481 0b57 4863D5   		movslq	%ebp, %rdx
 4482 0b5a 41888C14 		movb	%cl, 324(%r12,%rdx)
 4482      44010000 
 438:fltk-1.3.4-1/jpeg/jdmarker.c ****       if (cinfo->arith_dc_L[index] > cinfo->arith_dc_U[index])
 4483              		.loc 1 438 0
 4484 0b62 C1FE04   		sarl	$4, %esi
 439:fltk-1.3.4-1/jpeg/jdmarker.c **** 	ERREXIT1(cinfo, JERR_DAC_VALUE, val);
 4485              		.loc 1 439 0
 4486 0b65 4038F1   		cmpb	%sil, %cl
 438:fltk-1.3.4-1/jpeg/jdmarker.c ****       if (cinfo->arith_dc_L[index] > cinfo->arith_dc_U[index])
 4487              		.loc 1 438 0
 4488 0b68 4188B414 		movb	%sil, 340(%r12,%rdx)
 4488      54010000 
 439:fltk-1.3.4-1/jpeg/jdmarker.c **** 	ERREXIT1(cinfo, JERR_DAC_VALUE, val);
 4489              		.loc 1 439 0
 4490 0b70 0F865AFC 		jbe	.L695
 4490      FFFF
 440:fltk-1.3.4-1/jpeg/jdmarker.c ****     }
 4491              		.loc 1 440 0
 4492 0b76 498B1424 		movq	(%r12), %rdx
 4493 0b7a 8B442418 		movl	24(%rsp), %eax
 4494 0b7e 4C89E7   		movq	%r12, %rdi
 4495 0b81 C742281E 		movl	$30, 40(%rdx)
 4495      000000
 4496 0b88 498B1424 		movq	(%r12), %rdx
 4497 0b8c 89422C   		movl	%eax, 44(%rdx)
 4498 0b8f 498B1424 		movq	(%r12), %rdx
 4499 0b93 FF12     		call	*(%rdx)
 4500              	.LVL663:
 4501 0b95 E936FCFF 		jmp	.L695
 4501      FF
 4502              	.LVL664:
 4503 0b9a 660F1F44 		.p2align 4,,10
 4503      0000
 4504              		.p2align 3
 4505              	.L362:
 4506              	.LBE125:
 4507              	.LBE132:
 4508              	.LBB133:
 4509              	.LBB88:
 359:fltk-1.3.4-1/jpeg/jdmarker.c **** 	  compptr = cinfo->cur_comp_info[ci];
 4510              		.loc 1 359 0
 4511 0ba0 83FD01   		cmpl	$1, %ebp
 4512 0ba3 7428     		je	.L365
 4513 0ba5 8D55FE   		leal	-2(%rbp), %edx
 4514 0ba8 498D8424 		leaq	464(%r12), %rax
 4514      D0010000 
 4515 0bb0 498D8CD4 		leaq	472(%r12,%rdx,8), %rcx
 4515      D8010000 
 4516              	.LVL665:
 4517              	.L366:
 361:fltk-1.3.4-1/jpeg/jdmarker.c **** 	}
 4518              		.loc 1 361 0
 4519 0bb8 488B10   		movq	(%rax), %rdx
 4520 0bbb 8B12     		movl	(%rdx), %edx
 4521 0bbd 4139D2   		cmpl	%edx, %r10d
 4522 0bc0 440F4CD2 		cmovl	%edx, %r10d
 4523              	.LVL666:
 4524 0bc4 4883C008 		addq	$8, %rax
 4525              	.LVL667:
 359:fltk-1.3.4-1/jpeg/jdmarker.c **** 	  compptr = cinfo->cur_comp_info[ci];
 4526              		.loc 1 359 0
 4527 0bc8 4839C8   		cmpq	%rcx, %rax
 4528 0bcb 75EB     		jne	.L366
 4529              	.LVL668:
 4530              	.L365:
 363:fltk-1.3.4-1/jpeg/jdmarker.c **** 	break;
 4531              		.loc 1 363 0
 4532 0bcd 418D5201 		leal	1(%r10), %edx
 4533              	.LVL669:
 4534 0bd1 E9E2FDFF 		jmp	.L361
 4534      FF
 4535              	.LVL670:
 4536 0bd6 662E0F1F 		.p2align 4,,10
 4536      84000000 
 4536      0000
 4537              		.p2align 3
 4538              	.L726:
 4539              	.LBE88:
 4540              	.LBE133:
 4541              	.LBB134:
 4542              	.LBB126:
 424:fltk-1.3.4-1/jpeg/jdmarker.c ****     INPUT_BYTE(cinfo, val, return FALSE);
 4543              		.loc 1 424 0
 4544 0be0 4C89E7   		movq	%r12, %rdi
 4545 0be3 41FF5518 		call	*24(%r13)
 4546              	.LVL671:
 4547 0be7 85C0     		testl	%eax, %eax
 4548 0be9 0F8424F6 		je	.L325
 4548      FFFF
 4549 0bef 4D8B7500 		movq	0(%r13), %r14
 4550              	.LVL672:
 4551 0bf3 4D8B7D08 		movq	8(%r13), %r15
 4552              	.LVL673:
 4553 0bf7 E9E6FBFF 		jmp	.L388
 4553      FF
 4554              	.LVL674:
 4555 0bfc 0F1F4000 		.p2align 4,,10
 4556              		.p2align 3
 4557              	.L727:
 432:fltk-1.3.4-1/jpeg/jdmarker.c **** 
 4558              		.loc 1 432 0
 4559 0c00 498B3424 		movq	(%r12), %rsi
 4560 0c04 884C2408 		movb	%cl, 8(%rsp)
 4561 0c08 4C89E7   		movq	%r12, %rdi
 4562 0c0b C746281D 		movl	$29, 40(%rsi)
 4562      000000
 4563 0c12 498B3424 		movq	(%r12), %rsi
 4564 0c16 896E2C   		movl	%ebp, 44(%rsi)
 4565 0c19 498B3424 		movq	(%r12), %rsi
 4566 0c1d FF16     		call	*(%rsi)
 4567              	.LVL675:
 4568 0c1f 0FB64C24 		movzbl	8(%rsp), %ecx
 4568      08
 4569 0c24 E936FCFF 		jmp	.L391
 4569      FF
 4570              	.LVL676:
 4571              	.L409:
 4572              	.LBE126:
 4573              	.LBE134:
 4574              	.LBB135:
 4575              	.LBB109:
 590:fltk-1.3.4-1/jpeg/jdmarker.c ****       if (prec)
 4576              		.loc 1 590 0
 4577 0c29 48837C24 		cmpq	$0, 8(%rsp)
 4577      0800
 4578 0c2f 0F85E400 		jne	.L696
 4578      0000
 547:fltk-1.3.4-1/jpeg/jdmarker.c ****     prec = n >> 4;
 4579              		.loc 1 547 0
 4580 0c35 488B5424 		movq	16(%rsp), %rdx
 4580      10
 4581              	.LVL677:
 4582 0c3a 660F1F44 		.p2align 4,,10
 4582      0000
 4583              		.p2align 3
 4584              	.L410:
 599:fltk-1.3.4-1/jpeg/jdmarker.c ****       for (i = 0; i < DCTSIZE2; i += 8) {
 4585              		.loc 1 599 0
 4586 0c40 498B0424 		movq	(%r12), %rax
 4587 0c44 83787C01 		cmpl	$1, 124(%rax)
 4588 0c48 0F8E8A00 		jle	.L418
 4588      0000
 4589 0c4e 4989CD   		movq	%rcx, %r13
 4590 0c51 31C9     		xorl	%ecx, %ecx
 4591 0c53 EB07     		jmp	.L419
 4592              	.LVL678:
 4593              		.p2align 4,,10
 4594 0c55 0F1F00   		.p2align 3
 4595              	.L731:
 4596 0c58 498B0424 		movq	(%r12), %rax
 4597              	.LVL679:
 4598              	.L419:
 4599              	.LBB107:
 601:fltk-1.3.4-1/jpeg/jdmarker.c **** 		 quant_ptr->quantval[i],   quant_ptr->quantval[i+1],
 4600              		.loc 1 601 0
 4601 0c5c 410FB775 		movzwl	0(%r13), %esi
 4601      00
 4602 0c61 48895424 		movq	%rdx, 24(%rsp)
 4602      18
 4603 0c66 4C89E7   		movq	%r12, %rdi
 4604 0c69 48894C24 		movq	%rcx, 16(%rsp)
 4604      10
 4605              	.LVL680:
 4606 0c6e 4983C510 		addq	$16, %r13
 4607 0c72 89702C   		movl	%esi, 44(%rax)
 4608              	.LVL681:
 4609 0c75 410FB775 		movzwl	-14(%r13), %esi
 4609      F2
 4610 0c7a 897030   		movl	%esi, 48(%rax)
 4611 0c7d 410FB775 		movzwl	-12(%r13), %esi
 4611      F4
 4612 0c82 897034   		movl	%esi, 52(%rax)
 4613 0c85 410FB775 		movzwl	-10(%r13), %esi
 4613      F6
 4614 0c8a 897038   		movl	%esi, 56(%rax)
 4615 0c8d 410FB775 		movzwl	-8(%r13), %esi
 4615      F8
 4616 0c92 89703C   		movl	%esi, 60(%rax)
 4617 0c95 410FB775 		movzwl	-6(%r13), %esi
 4617      FA
 4618 0c9a 897040   		movl	%esi, 64(%rax)
 4619 0c9d 410FB775 		movzwl	-4(%r13), %esi
 4619      FC
 4620 0ca2 897044   		movl	%esi, 68(%rax)
 4621 0ca5 410FB775 		movzwl	-2(%r13), %esi
 4621      FE
 4622 0caa 897048   		movl	%esi, 72(%rax)
 4623 0cad 498B0424 		movq	(%r12), %rax
 4624 0cb1 BE020000 		movl	$2, %esi
 4624      00
 4625 0cb6 C740285F 		movl	$95, 40(%rax)
 4625      000000
 4626 0cbd 498B0424 		movq	(%r12), %rax
 4627 0cc1 FF5008   		call	*8(%rax)
 4628              	.LVL682:
 4629              	.LBE107:
 600:fltk-1.3.4-1/jpeg/jdmarker.c **** 	TRACEMS8(cinfo, 2, JTRC_QUANTVALS,
 4630              		.loc 1 600 0
 4631 0cc4 488B4C24 		movq	16(%rsp), %rcx
 4631      10
 4632 0cc9 488B5424 		movq	24(%rsp), %rdx
 4632      18
 4633 0cce 4883C108 		addq	$8, %rcx
 4634              	.LVL683:
 4635 0cd2 4883F940 		cmpq	$64, %rcx
 4636 0cd6 7580     		jne	.L731
 4637              	.LVL684:
 4638              	.L418:
 609:fltk-1.3.4-1/jpeg/jdmarker.c ****     if (prec) length -= count;
 4639              		.loc 1 609 0
 4640 0cd8 488B7C24 		movq	8(%rsp), %rdi
 4640      08
 4641 0cdd 488B4C24 		movq	40(%rsp), %rcx
 4641      28
 4642 0ce2 4829F9   		subq	%rdi, %rcx
 4643              	.LVL685:
 610:fltk-1.3.4-1/jpeg/jdmarker.c ****   }
 4644              		.loc 1 610 0
 4645 0ce5 4889C8   		movq	%rcx, %rax
 4646 0ce8 4829F8   		subq	%rdi, %rax
 4647 0ceb 85DB     		testl	%ebx, %ebx
 4648 0ced 480F45C8 		cmovne	%rax, %rcx
 4649              	.LVL686:
 545:fltk-1.3.4-1/jpeg/jdmarker.c ****     length--;
 4650              		.loc 1 545 0
 4651 0cf1 4885C9   		testq	%rcx, %rcx
 4652 0cf4 0F8F28F7 		jg	.L422
 4652      FFFF
 4653              	.LVL687:
 4654              	.L400:
 613:fltk-1.3.4-1/jpeg/jdmarker.c ****     ERREXIT(cinfo, JERR_BAD_LENGTH);
 4655              		.loc 1 613 0
 4656 0cfa 4885C9   		testq	%rcx, %rcx
 4657 0cfd 0F853D05 		jne	.L732
 4657      0000
 4658              	.LVL688:
 4659              	.L423:
 616:fltk-1.3.4-1/jpeg/jdmarker.c ****   return TRUE;
 4660              		.loc 1 616 0
 4661 0d03 498917   		movq	%rdx, (%r15)
 4662 0d06 4D897708 		movq	%r14, 8(%r15)
 4663              	.LVL689:
 4664 0d0a E969F5FF 		jmp	.L348
 4664      FF
 4665              	.LVL690:
 4666 0d0f 90       		.p2align 4,,10
 4667              		.p2align 3
 4668              	.L469:
 570:fltk-1.3.4-1/jpeg/jdmarker.c **** 	/* Initialize full table for safety. */
 4669              		.loc 1 570 0
 4670 0d10 48C74424 		movq	$64, 8(%rsp)
 4670      08400000 
 4670      00
 4671              	.LVL691:
 4672              	.L696:
 4673 0d19 BD000000 		movl	$jpeg_natural_order, %ebp
 4673      00
 4674 0d1e E9E7F7FF 		jmp	.L405
 4674      FF
 4675              	.LVL692:
 4676              		.p2align 4,,10
 4677 0d23 0F1F4400 		.p2align 3
 4677      00
 4678              	.L404:
 4679 0d28 48837C24 		cmpq	$63, 40(%rsp)
 4679      283F
 4680 0d2e 7FE0     		jg	.L469
 4681 0d30 488D9180 		leaq	128(%rcx), %rdx
 4681      000000
 4682 0d37 4889C8   		movq	%rcx, %rax
 4683              	.LVL693:
 4684 0d3a 660F1F44 		.p2align 4,,10
 4684      0000
 4685              		.p2align 3
 4686              	.L408:
 573:fltk-1.3.4-1/jpeg/jdmarker.c **** 	}
 4687              		.loc 1 573 0
 4688 0d40 BE010000 		movl	$1, %esi
 4688      00
 4689 0d45 4883C002 		addq	$2, %rax
 4690 0d49 668970FE 		movw	%si, -2(%rax)
 572:fltk-1.3.4-1/jpeg/jdmarker.c **** 	  quant_ptr->quantval[i] = 1;
 4691              		.loc 1 572 0
 4692 0d4d 4839C2   		cmpq	%rax, %rdx
 4693 0d50 75EE     		jne	.L408
 4694 0d52 488B4424 		movq	40(%rsp), %rax
 4694      28
 4695 0d57 48894424 		movq	%rax, 8(%rsp)
 4695      08
 4696 0d5c E98EF7FF 		jmp	.L407
 4696      FF
 4697              	.LVL694:
 4698              	.L476:
 4699              	.LBE109:
 4700              	.LBE135:
 4701              	.LBB136:
 4702              	.LBB76:
1072:fltk-1.3.4-1/jpeg/jdmarker.c **** 
 4703              		.loc 1 1072 0
 4704 0d61 498B0424 		movq	(%r12), %rax
 4705 0d65 4C89E7   		movq	%r12, %rdi
 4706 0d68 C7402837 		movl	$55, 40(%rax)
 4706      000000
 4707 0d6f 498B0424 		movq	(%r12), %rax
 4708 0d73 4489702C 		movl	%r14d, 44(%rax)
 4709 0d77 498B0424 		movq	(%r12), %rax
 4710 0d7b 44897830 		movl	%r15d, 48(%rax)
 4711 0d7f 498B0424 		movq	(%r12), %rax
 4712 0d83 FF10     		call	*(%rax)
 4713              	.LVL695:
 4714 0d85 E905F3FF 		jmp	.L323
 4714      FF
 4715              	.LVL696:
 4716              	.L717:
 4717              	.LBE76:
 4718              	.LBE136:
 4719              	.LBB137:
 4720              	.LBB110:
 554:fltk-1.3.4-1/jpeg/jdmarker.c ****       
 4721              		.loc 1 554 0
 4722 0d8a 498B1424 		movq	(%r12), %rdx
 4723 0d8e 4C89E7   		movq	%r12, %rdi
 4724 0d91 C7422820 		movl	$32, 40(%rdx)
 4724      000000
 4725 0d98 498B1424 		movq	(%r12), %rdx
 4726 0d9c 44896A2C 		movl	%r13d, 44(%rdx)
 4727 0da0 498B0424 		movq	(%r12), %rax
 4728 0da4 FF10     		call	*(%rax)
 4729              	.LVL697:
 4730 0da6 E9EAF6FF 		jmp	.L402
 4730      FF
 4731              	.LVL698:
 4732              	.L467:
 4733              	.LBE110:
 4734              	.LBE137:
 4735              	.LBB138:
 4736              	.LBB89:
 368:fltk-1.3.4-1/jpeg/jdmarker.c **** 	 ci++, compptr++) {
 4737              		.loc 1 368 0
 4738 0dab 4989DF   		movq	%rbx, %r15
 4739 0dae E942FCFF 		jmp	.L368
 4739      FF
 4740              	.LVL699:
 4741              	.L436:
 4742              	.LBE89:
 4743              	.LBE138:
 4744              	.LBB139:
 4745              	.LBB99:
 659:fltk-1.3.4-1/jpeg/jdmarker.c **** 
 4746              		.loc 1 659 0
 4747 0db3 4C89E7   		movq	%r12, %rdi
 4748 0db6 FF5518   		call	*24(%rbp)
 4749              	.LVL700:
 4750 0db9 85C0     		testl	%eax, %eax
 4751 0dbb 0F8452F4 		je	.L325
 4751      FFFF
 4752 0dc1 4C8B7500 		movq	0(%rbp), %r14
 4753              	.LVL701:
 4754 0dc5 488B5D08 		movq	8(%rbp), %rbx
 4755              	.LVL702:
 4756 0dc9 E906F5FF 		jmp	.L437
 4756      FF
 4757              	.LVL703:
 4758              	.L712:
 655:fltk-1.3.4-1/jpeg/jdmarker.c **** 
 4759              		.loc 1 655 0
 4760 0dce 498B0424 		movq	(%r12), %rax
 4761 0dd2 4C89E7   		movq	%r12, %rdi
 4762 0dd5 C740283C 		movl	$60, 40(%rax)
 4762      000000
 4763              	.LVL704:
 4764              	.LBB97:
 4765              	.LBB98:
  91:/usr/include/x86_64-linux-gnu/bits/string3.h **** }
  92:/usr/include/x86_64-linux-gnu/bits/string3.h **** 
  93:/usr/include/x86_64-linux-gnu/bits/string3.h **** #ifdef __USE_MISC
  94:/usr/include/x86_64-linux-gnu/bits/string3.h **** __fortify_function void
  95:/usr/include/x86_64-linux-gnu/bits/string3.h **** __NTH (bcopy (const void *__src, void *__dest, size_t __len))
  96:/usr/include/x86_64-linux-gnu/bits/string3.h **** {
  97:/usr/include/x86_64-linux-gnu/bits/string3.h ****   (void) __builtin___memmove_chk (__dest, __src, __len, __bos0 (__dest));
  98:/usr/include/x86_64-linux-gnu/bits/string3.h **** }
  99:/usr/include/x86_64-linux-gnu/bits/string3.h **** 
 100:/usr/include/x86_64-linux-gnu/bits/string3.h **** __fortify_function void
 101:/usr/include/x86_64-linux-gnu/bits/string3.h **** __NTH (bzero (void *__dest, size_t __len))
 102:/usr/include/x86_64-linux-gnu/bits/string3.h **** {
 103:/usr/include/x86_64-linux-gnu/bits/string3.h ****   (void) __builtin___memset_chk (__dest, '\0', __len, __bos0 (__dest));
 104:/usr/include/x86_64-linux-gnu/bits/string3.h **** }
 105:/usr/include/x86_64-linux-gnu/bits/string3.h **** #endif
 106:/usr/include/x86_64-linux-gnu/bits/string3.h **** 
 107:/usr/include/x86_64-linux-gnu/bits/string3.h **** __fortify_function char *
 108:/usr/include/x86_64-linux-gnu/bits/string3.h **** __NTH (strcpy (char *__restrict __dest, const char *__restrict __src))
 109:/usr/include/x86_64-linux-gnu/bits/string3.h **** {
 110:/usr/include/x86_64-linux-gnu/bits/string3.h ****   return __builtin___strcpy_chk (__dest, __src, __bos (__dest));
 111:/usr/include/x86_64-linux-gnu/bits/string3.h **** }
 112:/usr/include/x86_64-linux-gnu/bits/string3.h **** 
 113:/usr/include/x86_64-linux-gnu/bits/string3.h **** #ifdef __USE_GNU
 114:/usr/include/x86_64-linux-gnu/bits/string3.h **** __fortify_function char *
 115:/usr/include/x86_64-linux-gnu/bits/string3.h **** __NTH (stpcpy (char *__restrict __dest, const char *__restrict __src))
 116:/usr/include/x86_64-linux-gnu/bits/string3.h **** {
 117:/usr/include/x86_64-linux-gnu/bits/string3.h ****   return __builtin___stpcpy_chk (__dest, __src, __bos (__dest));
 118:/usr/include/x86_64-linux-gnu/bits/string3.h **** }
 119:/usr/include/x86_64-linux-gnu/bits/string3.h **** #endif
 120:/usr/include/x86_64-linux-gnu/bits/string3.h **** 
 121:/usr/include/x86_64-linux-gnu/bits/string3.h **** 
 122:/usr/include/x86_64-linux-gnu/bits/string3.h **** __fortify_function char *
 123:/usr/include/x86_64-linux-gnu/bits/string3.h **** __NTH (strncpy (char *__restrict __dest, const char *__restrict __src,
 124:/usr/include/x86_64-linux-gnu/bits/string3.h **** 		size_t __len))
 125:/usr/include/x86_64-linux-gnu/bits/string3.h **** {
 126:/usr/include/x86_64-linux-gnu/bits/string3.h ****   return __builtin___strncpy_chk (__dest, __src, __len, __bos (__dest));
 4766              		.loc 2 126 0
 4767 0ddc 498B0424 		movq	(%r12), %rax
 4768 0de0 48C7402C 		movq	$4543308, 44(%rax)
 4768      4C534500 
 4769              	.LVL705:
 4770 0de8 48C74034 		movq	$0, 52(%rax)
 4770      00000000 
 4771 0df0 48C7403C 		movq	$0, 60(%rax)
 4771      00000000 
 4772 0df8 48C74044 		movq	$0, 68(%rax)
 4772      00000000 
 4773 0e00 48C7404C 		movq	$0, 76(%rax)
 4773      00000000 
 4774 0e08 48C74054 		movq	$0, 84(%rax)
 4774      00000000 
 4775 0e10 48C7405C 		movq	$0, 92(%rax)
 4775      00000000 
 4776 0e18 48C74064 		movq	$0, 100(%rax)
 4776      00000000 
 4777 0e20 48C7406C 		movq	$0, 108(%rax)
 4777      00000000 
 4778 0e28 48C74074 		movq	$0, 116(%rax)
 4778      00000000 
 4779              	.LVL706:
 4780              	.LBE98:
 4781              	.LBE97:
 655:fltk-1.3.4-1/jpeg/jdmarker.c **** 
 4782              		.loc 1 655 0
 4783 0e30 498B0424 		movq	(%r12), %rax
 4784 0e34 FF10     		call	*(%rax)
 4785              	.LVL707:
 4786 0e36 E96EF4FF 		jmp	.L433
 4786      FF
 4787              	.LVL708:
 4788              	.L424:
 4789              	.LBE99:
 4790              	.LBE139:
 4791              	.LBB140:
 4792              	.LBB117:
 629:fltk-1.3.4-1/jpeg/jdmarker.c ****   
 4793              		.loc 1 629 0
 4794 0e3b 4C89E7   		movq	%r12, %rdi
 4795 0e3e 41FF5618 		call	*24(%r14)
 4796              	.LVL709:
 4797 0e42 85C0     		testl	%eax, %eax
 4798 0e44 0F84C9F3 		je	.L325
 4798      FFFF
 4799 0e4a 498B16   		movq	(%r14), %rdx
 4800              	.LVL710:
 4801 0e4d 498B4608 		movq	8(%r14), %rax
 4802              	.LVL711:
 4803 0e51 E937F7FF 		jmp	.L425
 4803      FF
 4804              	.LVL712:
 4805              	.L706:
 4806              	.LBE117:
 4807              	.LBE140:
 4808              	.LBB141:
 4809              	.LBB90:
 333:fltk-1.3.4-1/jpeg/jdmarker.c **** 
 4810              		.loc 1 333 0
 4811 0e56 4C89E7   		movq	%r12, %rdi
 4812 0e59 41FF5518 		call	*24(%r13)
 4813              	.LVL713:
 4814 0e5d 85C0     		testl	%eax, %eax
 4815 0e5f 0F84AEF3 		je	.L325
 4815      FFFF
 4816 0e65 4D8B7500 		movq	0(%r13), %r14
 4817              	.LVL714:
 4818 0e69 498B5D08 		movq	8(%r13), %rbx
 4819              	.LVL715:
 4820 0e6d E9A8F2FF 		jmp	.L351
 4820      FF
 4821              	.L705:
 331:fltk-1.3.4-1/jpeg/jdmarker.c **** 
 4822              		.loc 1 331 0
 4823 0e72 498B0424 		movq	(%r12), %rax
 4824 0e76 4C89E7   		movq	%r12, %rdi
 4825 0e79 C740283C 		movl	$60, 40(%rax)
 4825      000000
 4826              	.LVL716:
 4827              	.LBB82:
 4828              	.LBB83:
 4829              		.loc 2 126 0
 4830 0e80 498B1424 		movq	(%r12), %rdx
 4831 0e84 48C7422C 		movq	$5459795, 44(%rdx)
 4831      534F5300 
 4832              	.LVL717:
 4833 0e8c 48C74234 		movq	$0, 52(%rdx)
 4833      00000000 
 4834 0e94 48C7423C 		movq	$0, 60(%rdx)
 4834      00000000 
 4835 0e9c 48C74244 		movq	$0, 68(%rdx)
 4835      00000000 
 4836 0ea4 48C7424C 		movq	$0, 76(%rdx)
 4836      00000000 
 4837 0eac 48C74254 		movq	$0, 84(%rdx)
 4837      00000000 
 4838 0eb4 48C7425C 		movq	$0, 92(%rdx)
 4838      00000000 
 4839 0ebc 48C74264 		movq	$0, 100(%rdx)
 4839      00000000 
 4840 0ec4 48C7426C 		movq	$0, 108(%rdx)
 4840      00000000 
 4841 0ecc 48C74274 		movq	$0, 116(%rdx)
 4841      00000000 
 4842              	.LVL718:
 4843              	.LBE83:
 4844              	.LBE82:
 331:fltk-1.3.4-1/jpeg/jdmarker.c **** 
 4845              		.loc 1 331 0
 4846 0ed4 498B0424 		movq	(%r12), %rax
 4847 0ed8 FF10     		call	*(%rax)
 4848              	.LVL719:
 4849 0eda E932F2FF 		jmp	.L350
 4849      FF
 4850              	.LVL720:
 4851              	.L383:
 4852              	.LBE90:
 4853              	.LBE141:
 4854              	.LBB142:
 4855              	.LBB127:
 420:fltk-1.3.4-1/jpeg/jdmarker.c ****   length -= 2;
 4856              		.loc 1 420 0
 4857 0edf 4C89E7   		movq	%r12, %rdi
 4858 0ee2 41FF5518 		call	*24(%r13)
 4859              	.LVL721:
 4860 0ee6 85C0     		testl	%eax, %eax
 4861 0ee8 0F8425F3 		je	.L325
 4861      FFFF
 4862 0eee 498B5500 		movq	0(%r13), %rdx
 4863              	.LVL722:
 4864 0ef2 498B4508 		movq	8(%r13), %rax
 4865              	.LVL723:
 4866 0ef6 E9ABF8FF 		jmp	.L384
 4866      FF
 4867              	.LVL724:
 4868              	.L725:
 4869              	.LBE127:
 4870              	.LBE142:
 4871              	.LBB143:
 4872              	.LBB122:
 207:fltk-1.3.4-1/jpeg/jdmarker.c **** 
 4873              		.loc 1 207 0
 4874 0efb 498B0424 		movq	(%r12), %rax
 4875 0eff 4C89E7   		movq	%r12, %rdi
 4876 0f02 C7402840 		movl	$64, 40(%rax)
 4876      000000
 4877 0f09 498B0424 		movq	(%r12), %rax
 4878 0f0d FF10     		call	*(%rax)
 4879              	.LVL725:
 4880 0f0f 498B9424 		movq	616(%r12), %rdx
 4880      68020000 
 4881 0f17 E9C1F7FF 		jmp	.L346
 4881      FF
 4882              	.LVL726:
 4883              	.L396:
 4884              	.LBE122:
 4885              	.LBE143:
 4886              	.LBB144:
 4887              	.LBB111:
 542:fltk-1.3.4-1/jpeg/jdmarker.c ****   length -= 2;
 4888              		.loc 1 542 0
 4889 0f1c 4C89E7   		movq	%r12, %rdi
 4890 0f1f 41FF5718 		call	*24(%r15)
 4891              	.LVL727:
 4892 0f23 85C0     		testl	%eax, %eax
 4893 0f25 0F84E8F2 		je	.L325
 4893      FFFF
 4894 0f2b 498B0F   		movq	(%r15), %rcx
 4895              	.LVL728:
 4896 0f2e 498B4708 		movq	8(%r15), %rax
 4897              	.LVL729:
 4898 0f32 E9BEF4FF 		jmp	.L397
 4898      FF
 4899              	.LVL730:
 4900              	.L707:
 4901              	.LBE111:
 4902              	.LBE144:
 4903              	.LBB145:
 4904              	.LBB91:
 333:fltk-1.3.4-1/jpeg/jdmarker.c **** 
 4905              		.loc 1 333 0
 4906 0f37 4C89E7   		movq	%r12, %rdi
 4907 0f3a 41FF5518 		call	*24(%r13)
 4908              	.LVL731:
 4909 0f3e 85C0     		testl	%eax, %eax
 4910 0f40 0F84CDF2 		je	.L325
 4910      FFFF
 4911 0f46 498B5500 		movq	0(%r13), %rdx
 4912              	.LVL732:
 4913 0f4a 498B5D08 		movq	8(%r13), %rbx
 4914              	.LVL733:
 4915 0f4e E9DCF1FF 		jmp	.L353
 4915      FF
 4916              	.LVL734:
 4917              	.L398:
 4918              	.LBE91:
 4919              	.LBE145:
 4920              	.LBB146:
 4921              	.LBB112:
 542:fltk-1.3.4-1/jpeg/jdmarker.c ****   length -= 2;
 4922              		.loc 1 542 0
 4923 0f53 4C89E7   		movq	%r12, %rdi
 4924 0f56 41FF5718 		call	*24(%r15)
 4925              	.LVL735:
 4926 0f5a 85C0     		testl	%eax, %eax
 4927 0f5c 0F84B1F2 		je	.L325
 4927      FFFF
 4928 0f62 498B0F   		movq	(%r15), %rcx
 4929              	.LVL736:
 4930 0f65 498B4708 		movq	8(%r15), %rax
 4931              	.LVL737:
 4932 0f69 E99BF4FF 		jmp	.L399
 4932      FF
 4933              	.LVL738:
 4934              	.L723:
 4935              	.LBE112:
 4936              	.LBE146:
 4937              	.LBB147:
 4938              	.LBB118:
 629:fltk-1.3.4-1/jpeg/jdmarker.c ****   
 4939              		.loc 1 629 0
 4940 0f6e 4C89E7   		movq	%r12, %rdi
 4941 0f71 41FF5618 		call	*24(%r14)
 4942              	.LVL739:
 4943 0f75 85C0     		testl	%eax, %eax
 4944 0f77 0F8496F2 		je	.L325
 4944      FFFF
 4945 0f7d 498B2E   		movq	(%r14), %rbp
 4946              	.LVL740:
 4947 0f80 498B4608 		movq	8(%r14), %rax
 4948              	.LVL741:
 4949 0f84 E91AF6FF 		jmp	.L427
 4949      FF
 4950              	.LVL742:
 4951              	.L385:
 4952              	.LBE118:
 4953              	.LBE147:
 4954              	.LBB148:
 4955              	.LBB128:
 420:fltk-1.3.4-1/jpeg/jdmarker.c ****   length -= 2;
 4956              		.loc 1 420 0
 4957 0f89 4C89E7   		movq	%r12, %rdi
 4958 0f8c 41FF5518 		call	*24(%r13)
 4959              	.LVL743:
 4960 0f90 85C0     		testl	%eax, %eax
 4961 0f92 0F847BF2 		je	.L325
 4961      FFFF
 4962 0f98 498B5500 		movq	0(%r13), %rdx
 4963              	.LVL744:
 4964 0f9c 498B4508 		movq	8(%r13), %rax
 4965              	.LVL745:
 4966 0fa0 E915F8FF 		jmp	.L386
 4966      FF
 4967              	.LVL746:
 4968              	.L710:
 4969              	.LBE128:
 4970              	.LBE148:
 4971              	.LBB149:
 4972              	.LBB92:
 392:fltk-1.3.4-1/jpeg/jdmarker.c ****   cinfo->Ah = (c >> 4) & 15;
 4973              		.loc 1 392 0
 4974 0fa5 498B4500 		movq	0(%r13), %rax
 4975              	.LVL747:
 4976 0fa9 498B7508 		movq	8(%r13), %rsi
 4977              	.LVL748:
 4978              	.L380:
 4979 0fad 0FB610   		movzbl	(%rax), %edx
 4980 0fb0 488D6801 		leaq	1(%rax), %rbp
 4981 0fb4 488D5EFF 		leaq	-1(%rsi), %rbx
 4982              	.LVL749:
 4983              	.LBB84:
 396:fltk-1.3.4-1/jpeg/jdmarker.c **** 	   cinfo->Ah, cinfo->Al);
 4984              		.loc 1 396 0
 4985 0fb8 4C89E7   		movq	%r12, %rdi
 4986 0fbb BE010000 		movl	$1, %esi
 4986      00
 4987              	.LBE84:
 392:fltk-1.3.4-1/jpeg/jdmarker.c ****   cinfo->Ah = (c >> 4) & 15;
 4988              		.loc 1 392 0
 4989 0fc0 89D0     		movl	%edx, %eax
 4990              	.LVL750:
 393:fltk-1.3.4-1/jpeg/jdmarker.c ****   cinfo->Al = (c     ) & 15;
 4991              		.loc 1 393 0
 4992 0fc2 C1FA04   		sarl	$4, %edx
 4993              	.LVL751:
 394:fltk-1.3.4-1/jpeg/jdmarker.c **** 
 4994              		.loc 1 394 0
 4995 0fc5 83E00F   		andl	$15, %eax
 4996              	.LVL752:
 393:fltk-1.3.4-1/jpeg/jdmarker.c ****   cinfo->Al = (c     ) & 15;
 4997              		.loc 1 393 0
 4998 0fc8 41899424 		movl	%edx, 548(%r12)
 4998      24020000 
 4999              	.LVL753:
 5000              	.LBB85:
 396:fltk-1.3.4-1/jpeg/jdmarker.c **** 	   cinfo->Ah, cinfo->Al);
 5001              		.loc 1 396 0
 5002 0fd0 418B9424 		movl	540(%r12), %edx
 5002      1C020000 
 5003              	.LBE85:
 394:fltk-1.3.4-1/jpeg/jdmarker.c **** 
 5004              		.loc 1 394 0
 5005 0fd8 41898424 		movl	%eax, 552(%r12)
 5005      28020000 
 5006              	.LBB86:
 396:fltk-1.3.4-1/jpeg/jdmarker.c **** 	   cinfo->Ah, cinfo->Al);
 5007              		.loc 1 396 0
 5008 0fe0 498B0424 		movq	(%r12), %rax
 5009              	.LVL754:
 5010 0fe4 89502C   		movl	%edx, 44(%rax)
 5011 0fe7 418B9424 		movl	544(%r12), %edx
 5011      20020000 
 5012 0fef 895030   		movl	%edx, 48(%rax)
 5013 0ff2 418B9424 		movl	548(%r12), %edx
 5013      24020000 
 5014 0ffa 895034   		movl	%edx, 52(%rax)
 5015 0ffd 418B9424 		movl	552(%r12), %edx
 5015      28020000 
 5016 1005 895038   		movl	%edx, 56(%rax)
 5017 1008 498B0424 		movq	(%r12), %rax
 5018              	.LVL755:
 5019 100c C740286B 		movl	$107, 40(%rax)
 5019      000000
 5020 1013 498B0424 		movq	(%r12), %rax
 5021 1017 FF5008   		call	*8(%rax)
 5022              	.LVL756:
 5023              	.LBE86:
 403:fltk-1.3.4-1/jpeg/jdmarker.c **** 
 5024              		.loc 1 403 0
 5025 101a 448B4424 		movl	16(%rsp), %r8d
 5025      10
 400:fltk-1.3.4-1/jpeg/jdmarker.c **** 
 5026              		.loc 1 400 0
 5027 101f 498B8424 		movq	616(%r12), %rax
 5027      68020000 
 403:fltk-1.3.4-1/jpeg/jdmarker.c **** 
 5028              		.loc 1 403 0
 5029 1027 4585C0   		testl	%r8d, %r8d
 400:fltk-1.3.4-1/jpeg/jdmarker.c **** 
 5030              		.loc 1 400 0
 5031 102a C7402000 		movl	$0, 32(%rax)
 5031      000000
 403:fltk-1.3.4-1/jpeg/jdmarker.c **** 
 5032              		.loc 1 403 0
 5033 1031 7409     		je	.L381
 5034 1033 41838424 		addl	$1, 172(%r12)
 5034      AC000000 
 5034      01
 5035              	.L381:
 405:fltk-1.3.4-1/jpeg/jdmarker.c ****   return TRUE;
 5036              		.loc 1 405 0
 5037 103c 49896D00 		movq	%rbp, 0(%r13)
 5038 1040 49895D08 		movq	%rbx, 8(%r13)
 5039              	.LVL757:
 5040              	.LBE92:
 5041              	.LBE149:
1161:fltk-1.3.4-1/jpeg/jdmarker.c **** 
 5042              		.loc 1 1161 0
 5043 1044 B8010000 		movl	$1, %eax
 5043      00
1160:fltk-1.3.4-1/jpeg/jdmarker.c ****       return JPEG_REACHED_SOS;
 5044              		.loc 1 1160 0
 5045 1049 41C78424 		movl	$0, 572(%r12)
 5045      3C020000 
 5045      00000000 
1248:fltk-1.3.4-1/jpeg/jdmarker.c **** 
 5046              		.loc 1 1248 0
 5047 1055 4883C438 		addq	$56, %rsp
 5048              		.cfi_remember_state
 5049              		.cfi_def_cfa_offset 56
 5050 1059 5B       		popq	%rbx
 5051              		.cfi_def_cfa_offset 48
 5052 105a 5D       		popq	%rbp
 5053              		.cfi_def_cfa_offset 40
 5054 105b 415C     		popq	%r12
 5055              		.cfi_def_cfa_offset 32
 5056              	.LVL758:
 5057 105d 415D     		popq	%r13
 5058              		.cfi_def_cfa_offset 24
 5059 105f 415E     		popq	%r14
 5060              		.cfi_def_cfa_offset 16
 5061 1061 415F     		popq	%r15
 5062              		.cfi_def_cfa_offset 8
 5063 1063 C3       		ret
 5064              	.LVL759:
 5065              	.L724:
 5066              		.cfi_restore_state
 5067              	.LBB150:
 5068              	.LBB119:
 634:fltk-1.3.4-1/jpeg/jdmarker.c **** 
 5069              		.loc 1 634 0
 5070 1064 4C89E7   		movq	%r12, %rdi
 5071 1067 41FF5618 		call	*24(%r14)
 5072              	.LVL760:
 5073 106b 85C0     		testl	%eax, %eax
 5074 106d 0F84A0F1 		je	.L325
 5074      FFFF
 5075 1073 498B16   		movq	(%r14), %rdx
 5076              	.LVL761:
 5077 1076 498B5E08 		movq	8(%r14), %rbx
 5078              	.LVL762:
 5079 107a E956F5FF 		jmp	.L430
 5079      FF
 5080              	.LVL763:
 5081              	.L713:
 5082              	.LBE119:
 5083              	.LBE150:
 5084              	.LBB151:
 5085              	.LBB100:
 659:fltk-1.3.4-1/jpeg/jdmarker.c **** 
 5086              		.loc 1 659 0
 5087 107f 4C89E7   		movq	%r12, %rdi
 5088 1082 FF5518   		call	*24(%rbp)
 5089              	.LVL764:
 5090 1085 85C0     		testl	%eax, %eax
 5091 1087 0F8486F1 		je	.L325
 5091      FFFF
 5092 108d 4C8B7500 		movq	0(%rbp), %r14
 5093              	.LVL765:
 5094 1091 488B5D08 		movq	8(%rbp), %rbx
 5095              	.LVL766:
 5096 1095 E924F2FF 		jmp	.L435
 5096      FF
 5097              	.LVL767:
 5098              	.L718:
 5099              	.LBE100:
 5100              	.LBE151:
 5101              	.LBB152:
 5102              	.LBB113:
 557:fltk-1.3.4-1/jpeg/jdmarker.c ****     quant_ptr = cinfo->quant_tbl_ptrs[n];
 5103              		.loc 1 557 0
 5104 109a 4C89E7   		movq	%r12, %rdi
 5105 109d E8000000 		call	jpeg_alloc_quant_table
 5105      00
 5106              	.LVL768:
 5107 10a2 4889C1   		movq	%rax, %rcx
 5108 10a5 488985C8 		movq	%rax, 200(%rbp)
 5108      000000
 5109 10ac E9FCF3FF 		jmp	.L403
 5109      FF
 5110              	.LVL769:
 5111              	.L714:
 5112              	.LBE113:
 5113              	.LBE152:
 5114              	.LBB153:
 5115              	.LBB101:
 664:fltk-1.3.4-1/jpeg/jdmarker.c ****   if (tmp != 0x0D)	/* ID inverse transform specification */
 5116              		.loc 1 664 0
 5117 10b1 4C89E7   		movq	%r12, %rdi
 5118 10b4 FF5518   		call	*24(%rbp)
 5119              	.LVL770:
 5120 10b7 85C0     		testl	%eax, %eax
 5121 10b9 0F8454F1 		je	.L325
 5121      FFFF
 5122 10bf 4C8B6D00 		movq	0(%rbp), %r13
 5123              	.LVL771:
 5124 10c3 488B5D08 		movq	8(%rbp), %rbx
 5125              	.LVL772:
 5126 10c7 E93AF2FF 		jmp	.L440
 5126      FF
 5127              	.LVL773:
 5128              	.L715:
 667:fltk-1.3.4-1/jpeg/jdmarker.c ****   if (tmp != MAXJSAMPLE) goto bad;		/* MAXTRANS */
 5129              		.loc 1 667 0
 5130 10cc 4C89E7   		movq	%r12, %rdi
 5131 10cf FF5518   		call	*24(%rbp)
 5132              	.LVL774:
 5133 10d2 85C0     		testl	%eax, %eax
 5134 10d4 0F8439F1 		je	.L325
 5134      FFFF
 5135 10da 488B4500 		movq	0(%rbp), %rax
 5136              	.LVL775:
 5137 10de 488B5D08 		movq	8(%rbp), %rbx
 5138              	.LVL776:
 5139 10e2 E95AF2FF 		jmp	.L443
 5139      FF
 5140              	.LVL777:
 5141              	.L444:
 5142 10e7 4C89E7   		movq	%r12, %rdi
 5143 10ea FF5518   		call	*24(%rbp)
 5144              	.LVL778:
 5145 10ed 85C0     		testl	%eax, %eax
 5146 10ef 0F841EF1 		je	.L325
 5146      FFFF
 5147 10f5 488B4500 		movq	0(%rbp), %rax
 5148              	.LVL779:
 5149 10f9 488B5D08 		movq	8(%rbp), %rbx
 5150              	.LVL780:
 5151 10fd E955F2FF 		jmp	.L445
 5151      FF
 5152              	.LVL781:
 5153              	.L729:
 5154              	.LBE101:
 5155              	.LBE153:
 5156              	.LBB154:
 5157              	.LBB129:
 445:fltk-1.3.4-1/jpeg/jdmarker.c **** 
 5158              		.loc 1 445 0
 5159 1102 498B1424 		movq	(%r12), %rdx
 5160 1106 4C89E7   		movq	%r12, %rdi
 5161 1109 C742280C 		movl	$12, 40(%rdx)
 5161      000000
 5162 1110 498B1424 		movq	(%r12), %rdx
 5163 1114 FF12     		call	*(%rdx)
 5164              	.LVL782:
 5165 1116 E96DF7FF 		jmp	.L395
 5165      FF
 5166              	.LVL783:
 5167              	.L716:
 5168              	.LBE129:
 5169              	.LBE154:
 5170              	.LBB155:
 5171              	.LBB102:
 669:fltk-1.3.4-1/jpeg/jdmarker.c ****   if (tmp != 3) goto bad;			/* Nt=3 */
 5172              		.loc 1 669 0
 5173 111b 4885DB   		testq	%rbx, %rbx
 5174 111e 0F84DC00 		je	.L733
 5174      0000
 5175              	.L446:
 5176 1124 4883EB01 		subq	$1, %rbx
 5177              	.LVL784:
 670:fltk-1.3.4-1/jpeg/jdmarker.c ****   INPUT_BYTE(cinfo, cid, return FALSE);
 5178              		.loc 1 670 0
 5179 1128 41803E03 		cmpb	$3, (%r14)
 669:fltk-1.3.4-1/jpeg/jdmarker.c ****   if (tmp != 3) goto bad;			/* Nt=3 */
 5180              		.loc 1 669 0
 5181 112c 498D5601 		leaq	1(%r14), %rdx
 5182              	.LVL785:
 670:fltk-1.3.4-1/jpeg/jdmarker.c ****   INPUT_BYTE(cinfo, cid, return FALSE);
 5183              		.loc 1 670 0
 5184 1130 7440     		je	.L734
 669:fltk-1.3.4-1/jpeg/jdmarker.c ****   if (tmp != 3) goto bad;			/* Nt=3 */
 5185              		.loc 1 669 0
 5186 1132 4989D6   		movq	%rdx, %r14
 5187              	.LVL786:
 5188 1135 E938F2FF 		jmp	.L434
 5188      FF
 5189              	.LVL787:
 5190              	.L708:
 5191              	.LBE102:
 5192              	.LBE155:
 5193              	.LBB156:
 5194              	.LBB93:
 388:fltk-1.3.4-1/jpeg/jdmarker.c ****   cinfo->Ss = c;
 5195              		.loc 1 388 0
 5196 113a 4C89E7   		movq	%r12, %rdi
 5197 113d 41FF5518 		call	*24(%r13)
 5198              	.LVL788:
 5199 1141 85C0     		testl	%eax, %eax
 5200 1143 0F84CAF0 		je	.L325
 5200      FFFF
 5201 1149 4D8B7500 		movq	0(%r13), %r14
 5202              	.LVL789:
 5203 114d 4D8B7D08 		movq	8(%r13), %r15
 5204              	.LVL790:
 5205 1151 E978F0FF 		jmp	.L376
 5205      FF
 5206              	.LVL791:
 5207              	.L709:
 390:fltk-1.3.4-1/jpeg/jdmarker.c ****   cinfo->Se = c;
 5208              		.loc 1 390 0
 5209 1156 4C89E7   		movq	%r12, %rdi
 5210 1159 41FF5518 		call	*24(%r13)
 5211              	.LVL792:
 5212 115d 85C0     		testl	%eax, %eax
 5213 115f 0F84AEF0 		je	.L325
 5213      FFFF
 5214 1165 498B5500 		movq	0(%r13), %rdx
 5215              	.LVL793:
 5216 1169 498B7508 		movq	8(%r13), %rsi
 5217              	.LVL794:
 5218 116d E979F0FF 		jmp	.L378
 5218      FF
 5219              	.LVL795:
 5220              	.L734:
 5221              	.LBE93:
 5222              	.LBE156:
 5223              	.LBB157:
 5224              	.LBB103:
 671:fltk-1.3.4-1/jpeg/jdmarker.c ****   if (cid != cinfo->comp_info[1].component_id) goto bad;
 5225              		.loc 1 671 0
 5226 1172 4885DB   		testq	%rbx, %rbx
 5227 1175 0F84A000 		je	.L735
 5227      0000
 5228              	.LVL796:
 5229              	.L447:
 672:fltk-1.3.4-1/jpeg/jdmarker.c ****   INPUT_BYTE(cinfo, cid, return FALSE);
 5230              		.loc 1 672 0
 5231 117b 498B8424 		movq	304(%r12), %rax
 5231      30010000 
 671:fltk-1.3.4-1/jpeg/jdmarker.c ****   if (cid != cinfo->comp_info[1].component_id) goto bad;
 5232              		.loc 1 671 0
 5233 1183 4C8D7201 		leaq	1(%rdx), %r14
 672:fltk-1.3.4-1/jpeg/jdmarker.c ****   INPUT_BYTE(cinfo, cid, return FALSE);
 5234              		.loc 1 672 0
 5235 1187 0FB612   		movzbl	(%rdx), %edx
 5236              	.LVL797:
 671:fltk-1.3.4-1/jpeg/jdmarker.c ****   if (cid != cinfo->comp_info[1].component_id) goto bad;
 5237              		.loc 1 671 0
 5238 118a 4883EB01 		subq	$1, %rbx
 5239              	.LVL798:
 672:fltk-1.3.4-1/jpeg/jdmarker.c ****   INPUT_BYTE(cinfo, cid, return FALSE);
 5240              		.loc 1 672 0
 5241 118e 3B5060   		cmpl	96(%rax), %edx
 5242 1191 0F85DBF1 		jne	.L434
 5242      FFFF
 673:fltk-1.3.4-1/jpeg/jdmarker.c ****   if (cid != cinfo->comp_info[0].component_id) goto bad;
 5243              		.loc 1 673 0
 5244 1197 4885DB   		testq	%rbx, %rbx
 5245 119a 0F846E02 		je	.L736
 5245      0000
 5246              	.L448:
 674:fltk-1.3.4-1/jpeg/jdmarker.c ****   INPUT_BYTE(cinfo, cid, return FALSE);
 5247              		.loc 1 674 0
 5248 11a0 410FB60E 		movzbl	(%r14), %ecx
 673:fltk-1.3.4-1/jpeg/jdmarker.c ****   if (cid != cinfo->comp_info[0].component_id) goto bad;
 5249              		.loc 1 673 0
 5250 11a4 4883EB01 		subq	$1, %rbx
 5251              	.LVL799:
 5252 11a8 498D5601 		leaq	1(%r14), %rdx
 5253              	.LVL800:
 674:fltk-1.3.4-1/jpeg/jdmarker.c ****   INPUT_BYTE(cinfo, cid, return FALSE);
 5254              		.loc 1 674 0
 5255 11ac 3B08     		cmpl	(%rax), %ecx
 673:fltk-1.3.4-1/jpeg/jdmarker.c ****   if (cid != cinfo->comp_info[0].component_id) goto bad;
 5256              		.loc 1 673 0
 5257 11ae 4989D6   		movq	%rdx, %r14
 674:fltk-1.3.4-1/jpeg/jdmarker.c ****   INPUT_BYTE(cinfo, cid, return FALSE);
 5258              		.loc 1 674 0
 5259 11b1 0F85BBF1 		jne	.L434
 5259      FFFF
 675:fltk-1.3.4-1/jpeg/jdmarker.c ****   if (cid != cinfo->comp_info[2].component_id) goto bad;
 5260              		.loc 1 675 0
 5261 11b7 4885DB   		testq	%rbx, %rbx
 5262 11ba 0F84BE00 		je	.L737
 5262      0000
 5263              	.LVL801:
 5264              	.L449:
 5265 11c0 4C8D7201 		leaq	1(%rdx), %r14
 676:fltk-1.3.4-1/jpeg/jdmarker.c ****   INPUT_BYTE(cinfo, tmp, return FALSE);
 5266              		.loc 1 676 0
 5267 11c4 0FB612   		movzbl	(%rdx), %edx
 5268              	.LVL802:
 675:fltk-1.3.4-1/jpeg/jdmarker.c ****   if (cid != cinfo->comp_info[2].component_id) goto bad;
 5269              		.loc 1 675 0
 5270 11c7 4883EB01 		subq	$1, %rbx
 5271              	.LVL803:
 676:fltk-1.3.4-1/jpeg/jdmarker.c ****   INPUT_BYTE(cinfo, tmp, return FALSE);
 5272              		.loc 1 676 0
 5273 11cb 3B90C000 		cmpl	192(%rax), %edx
 5273      0000
 5274 11d1 0F859BF1 		jne	.L434
 5274      FFFF
 677:fltk-1.3.4-1/jpeg/jdmarker.c ****   if (tmp != 0x80) goto bad;		/* F1: CENTER1=1, NORM1=0 */
 5275              		.loc 1 677 0
 5276 11d7 4885DB   		testq	%rbx, %rbx
 5277 11da 0F848300 		je	.L738
 5277      0000
 5278              	.L450:
 5279 11e0 4883EB01 		subq	$1, %rbx
 5280              	.LVL804:
 678:fltk-1.3.4-1/jpeg/jdmarker.c ****   INPUT_2BYTES(cinfo, tmp, return FALSE);
 5281              		.loc 1 678 0
 5282 11e4 41803E80 		cmpb	$-128, (%r14)
 677:fltk-1.3.4-1/jpeg/jdmarker.c ****   if (tmp != 0x80) goto bad;		/* F1: CENTER1=1, NORM1=0 */
 5283              		.loc 1 677 0
 5284 11e8 498D4601 		leaq	1(%r14), %rax
 5285              	.LVL805:
 678:fltk-1.3.4-1/jpeg/jdmarker.c ****   INPUT_2BYTES(cinfo, tmp, return FALSE);
 5286              		.loc 1 678 0
 5287 11ec 0F84AF00 		je	.L739
 5287      0000
 5288              	.LVL806:
 5289              	.L475:
 689:fltk-1.3.4-1/jpeg/jdmarker.c ****   if (tmp != 0) goto bad;		/* F3: CENTER3=0, NORM3=0 */
 5290              		.loc 1 689 0
 5291 11f2 4989C6   		movq	%rax, %r14
 5292 11f5 E978F1FF 		jmp	.L434
 5292      FF
 5293              	.LVL807:
 5294 11fa 660F1F44 		.p2align 4,,10
 5294      0000
 5295              		.p2align 3
 5296              	.L733:
 669:fltk-1.3.4-1/jpeg/jdmarker.c ****   if (tmp != 3) goto bad;			/* Nt=3 */
 5297              		.loc 1 669 0
 5298 1200 4C89E7   		movq	%r12, %rdi
 5299 1203 FF5518   		call	*24(%rbp)
 5300              	.LVL808:
 5301 1206 85C0     		testl	%eax, %eax
 5302 1208 0F8405F0 		je	.L325
 5302      FFFF
 5303 120e 4C8B7500 		movq	0(%rbp), %r14
 5304              	.LVL809:
 5305 1212 488B5D08 		movq	8(%rbp), %rbx
 5306              	.LVL810:
 5307 1216 E909FFFF 		jmp	.L446
 5307      FF
 5308              	.LVL811:
 5309              	.L735:
 671:fltk-1.3.4-1/jpeg/jdmarker.c ****   if (cid != cinfo->comp_info[1].component_id) goto bad;
 5310              		.loc 1 671 0
 5311 121b 4C89E7   		movq	%r12, %rdi
 5312 121e FF5518   		call	*24(%rbp)
 5313              	.LVL812:
 5314 1221 85C0     		testl	%eax, %eax
 5315 1223 0F84EAEF 		je	.L325
 5315      FFFF
 5316 1229 488B5500 		movq	0(%rbp), %rdx
 5317              	.LVL813:
 5318 122d 488B5D08 		movq	8(%rbp), %rbx
 5319              	.LVL814:
 5320 1231 E945FFFF 		jmp	.L447
 5320      FF
 5321              	.LVL815:
 5322 1236 662E0F1F 		.p2align 4,,10
 5322      84000000 
 5322      0000
 5323              		.p2align 3
 5324              	.L732:
 5325              	.LBE103:
 5326              	.LBE157:
 5327              	.LBB158:
 5328              	.LBB114:
 614:fltk-1.3.4-1/jpeg/jdmarker.c **** 
 5329              		.loc 1 614 0
 5330 1240 498B0424 		movq	(%r12), %rax
 5331 1244 48895424 		movq	%rdx, 8(%rsp)
 5331      08
 5332 1249 4C89E7   		movq	%r12, %rdi
 5333 124c C740280C 		movl	$12, 40(%rax)
 5333      000000
 5334 1253 498B0424 		movq	(%r12), %rax
 5335 1257 FF10     		call	*(%rax)
 5336              	.LVL816:
 5337 1259 488B5424 		movq	8(%rsp), %rdx
 5337      08
 5338 125e E9A0FAFF 		jmp	.L423
 5338      FF
 5339              	.LVL817:
 5340              	.L738:
 5341              	.LBE114:
 5342              	.LBE158:
 5343              	.LBB159:
 5344              	.LBB104:
 677:fltk-1.3.4-1/jpeg/jdmarker.c ****   if (tmp != 0x80) goto bad;		/* F1: CENTER1=1, NORM1=0 */
 5345              		.loc 1 677 0
 5346 1263 4C89E7   		movq	%r12, %rdi
 5347 1266 FF5518   		call	*24(%rbp)
 5348              	.LVL818:
 5349 1269 85C0     		testl	%eax, %eax
 5350 126b 0F84A2EF 		je	.L325
 5350      FFFF
 5351 1271 4C8B7500 		movq	0(%rbp), %r14
 5352              	.LVL819:
 5353 1275 488B5D08 		movq	8(%rbp), %rbx
 5354              	.LVL820:
 5355 1279 E962FFFF 		jmp	.L450
 5355      FF
 5356              	.LVL821:
 5357              	.L737:
 675:fltk-1.3.4-1/jpeg/jdmarker.c ****   if (cid != cinfo->comp_info[2].component_id) goto bad;
 5358              		.loc 1 675 0
 5359 127e 4C89E7   		movq	%r12, %rdi
 5360 1281 FF5518   		call	*24(%rbp)
 5361              	.LVL822:
 5362 1284 85C0     		testl	%eax, %eax
 5363 1286 0F8487EF 		je	.L325
 5363      FFFF
 5364 128c 488B5500 		movq	0(%rbp), %rdx
 5365              	.LVL823:
 5366 1290 488B5D08 		movq	8(%rbp), %rbx
 5367              	.LVL824:
 5368 1294 498B8424 		movq	304(%r12), %rax
 5368      30010000 
 5369 129c E91FFFFF 		jmp	.L449
 5369      FF
 5370              	.LVL825:
 5371              	.L739:
 679:fltk-1.3.4-1/jpeg/jdmarker.c ****   if (tmp != 0) goto bad;			/* A(1,1)=0 */
 5372              		.loc 1 679 0
 5373 12a1 4885DB   		testq	%rbx, %rbx
 5374 12a4 0F84E002 		je	.L740
 5374      0000
 5375              	.LVL826:
 5376              	.L451:
 5377 12aa 440FB628 		movzbl	(%rax), %r13d
 5378 12ae 488D5001 		leaq	1(%rax), %rdx
 5379              	.LVL827:
 5380 12b2 41C1E508 		sall	$8, %r13d
 5381              	.LVL828:
 5382 12b6 4883EB01 		subq	$1, %rbx
 5383              	.LVL829:
 5384 12ba 0F84AF02 		je	.L741
 5384      0000
 5385              	.L452:
 680:fltk-1.3.4-1/jpeg/jdmarker.c ****   INPUT_2BYTES(cinfo, tmp, return FALSE);
 5386              		.loc 1 680 0
 5387 12c0 0FB602   		movzbl	(%rdx), %eax
 679:fltk-1.3.4-1/jpeg/jdmarker.c ****   if (tmp != 0) goto bad;			/* A(1,1)=0 */
 5388              		.loc 1 679 0
 5389 12c3 4883EB01 		subq	$1, %rbx
 5390              	.LVL830:
 5391 12c7 4C8D7201 		leaq	1(%rdx), %r14
 5392              	.LVL831:
 680:fltk-1.3.4-1/jpeg/jdmarker.c ****   INPUT_2BYTES(cinfo, tmp, return FALSE);
 5393              		.loc 1 680 0
 5394 12cb 4401E8   		addl	%r13d, %eax
 5395 12ce 0F859EF0 		jne	.L434
 5395      FFFF
 681:fltk-1.3.4-1/jpeg/jdmarker.c ****   if (tmp != 0) goto bad;			/* A(1,2)=0 */
 5396              		.loc 1 681 0
 5397 12d4 4885DB   		testq	%rbx, %rbx
 5398 12d7 0F847702 		je	.L742
 5398      0000
 5399              	.LVL832:
 5400              	.L453:
 5401 12dd 450FB62E 		movzbl	(%r14), %r13d
 5402 12e1 498D4601 		leaq	1(%r14), %rax
 5403              	.LVL833:
 5404 12e5 41C1E508 		sall	$8, %r13d
 5405              	.LVL834:
 5406 12e9 4883EB01 		subq	$1, %rbx
 5407              	.LVL835:
 5408 12ed 0F844602 		je	.L743
 5408      0000
 5409              	.L454:
 5410 12f3 4C8D7001 		leaq	1(%rax), %r14
 682:fltk-1.3.4-1/jpeg/jdmarker.c ****   INPUT_BYTE(cinfo, tmp, return FALSE);
 5411              		.loc 1 682 0
 5412 12f7 0FB600   		movzbl	(%rax), %eax
 5413              	.LVL836:
 681:fltk-1.3.4-1/jpeg/jdmarker.c ****   if (tmp != 0) goto bad;			/* A(1,2)=0 */
 5414              		.loc 1 681 0
 5415 12fa 4883EB01 		subq	$1, %rbx
 5416              	.LVL837:
 682:fltk-1.3.4-1/jpeg/jdmarker.c ****   INPUT_BYTE(cinfo, tmp, return FALSE);
 5417              		.loc 1 682 0
 5418 12fe 4401E8   		addl	%r13d, %eax
 5419 1301 0F856BF0 		jne	.L434
 5419      FFFF
 683:fltk-1.3.4-1/jpeg/jdmarker.c ****   if (tmp != 0) goto bad;		/* F2: CENTER2=0, NORM2=0 */
 5420              		.loc 1 683 0
 5421 1307 4885DB   		testq	%rbx, %rbx
 5422 130a 0F840E02 		je	.L744
 5422      0000
 5423              	.L455:
 5424 1310 4883EB01 		subq	$1, %rbx
 5425              	.LVL838:
 684:fltk-1.3.4-1/jpeg/jdmarker.c ****   INPUT_2BYTES(cinfo, tmp, return FALSE);
 5426              		.loc 1 684 0
 5427 1314 41803E00 		cmpb	$0, (%r14)
 683:fltk-1.3.4-1/jpeg/jdmarker.c ****   if (tmp != 0) goto bad;		/* F2: CENTER2=0, NORM2=0 */
 5428              		.loc 1 683 0
 5429 1318 498D4601 		leaq	1(%r14), %rax
 5430              	.LVL839:
 684:fltk-1.3.4-1/jpeg/jdmarker.c ****   INPUT_2BYTES(cinfo, tmp, return FALSE);
 5431              		.loc 1 684 0
 5432 131c 0F85D0FE 		jne	.L475
 5432      FFFF
 685:fltk-1.3.4-1/jpeg/jdmarker.c ****   if (tmp != 1) goto bad;			/* A(2,1)=1 */
 5433              		.loc 1 685 0
 5434 1322 4885DB   		testq	%rbx, %rbx
 5435 1325 0F84D801 		je	.L745
 5435      0000
 5436              	.LVL840:
 5437              	.L456:
 5438 132b 440FB628 		movzbl	(%rax), %r13d
 5439 132f 488D5001 		leaq	1(%rax), %rdx
 5440              	.LVL841:
 5441 1333 41C1E508 		sall	$8, %r13d
 5442              	.LVL842:
 5443 1337 4883EB01 		subq	$1, %rbx
 5444              	.LVL843:
 5445 133b 0F84A701 		je	.L746
 5445      0000
 5446              	.L457:
 686:fltk-1.3.4-1/jpeg/jdmarker.c ****   INPUT_2BYTES(cinfo, tmp, return FALSE);
 5447              		.loc 1 686 0
 5448 1341 0FB602   		movzbl	(%rdx), %eax
 685:fltk-1.3.4-1/jpeg/jdmarker.c ****   if (tmp != 1) goto bad;			/* A(2,1)=1 */
 5449              		.loc 1 685 0
 5450 1344 4883EB01 		subq	$1, %rbx
 5451              	.LVL844:
 5452 1348 4C8D7201 		leaq	1(%rdx), %r14
 5453              	.LVL845:
 686:fltk-1.3.4-1/jpeg/jdmarker.c ****   INPUT_2BYTES(cinfo, tmp, return FALSE);
 5454              		.loc 1 686 0
 5455 134c 4101C5   		addl	%eax, %r13d
 5456              	.LVL846:
 5457 134f 4183FD01 		cmpl	$1, %r13d
 5458 1353 0F8519F0 		jne	.L434
 5458      FFFF
 687:fltk-1.3.4-1/jpeg/jdmarker.c ****   if (tmp != 0) goto bad;			/* A(2,2)=0 */
 5459              		.loc 1 687 0
 5460 1359 4885DB   		testq	%rbx, %rbx
 5461 135c 0F846B01 		je	.L747
 5461      0000
 5462              	.L458:
 5463              	.LVL847:
 5464 1362 450FB62E 		movzbl	(%r14), %r13d
 5465              	.LVL848:
 5466 1366 498D4601 		leaq	1(%r14), %rax
 5467              	.LVL849:
 5468 136a 41C1E508 		sall	$8, %r13d
 5469              	.LVL850:
 5470 136e 4883EB01 		subq	$1, %rbx
 5471              	.LVL851:
 5472 1372 0F843A01 		je	.L748
 5472      0000
 5473              	.L459:
 5474 1378 4C8D7001 		leaq	1(%rax), %r14
 688:fltk-1.3.4-1/jpeg/jdmarker.c ****   INPUT_BYTE(cinfo, tmp, return FALSE);
 5475              		.loc 1 688 0
 5476 137c 0FB600   		movzbl	(%rax), %eax
 5477              	.LVL852:
 687:fltk-1.3.4-1/jpeg/jdmarker.c ****   if (tmp != 0) goto bad;			/* A(2,2)=0 */
 5478              		.loc 1 687 0
 5479 137f 4883EB01 		subq	$1, %rbx
 5480              	.LVL853:
 688:fltk-1.3.4-1/jpeg/jdmarker.c ****   INPUT_BYTE(cinfo, tmp, return FALSE);
 5481              		.loc 1 688 0
 5482 1383 4401E8   		addl	%r13d, %eax
 5483 1386 0F85E6EF 		jne	.L434
 5483      FFFF
 689:fltk-1.3.4-1/jpeg/jdmarker.c ****   if (tmp != 0) goto bad;		/* F3: CENTER3=0, NORM3=0 */
 5484              		.loc 1 689 0
 5485 138c 4885DB   		testq	%rbx, %rbx
 5486 138f 0F840201 		je	.L749
 5486      0000
 5487              	.L460:
 5488 1395 4883EB01 		subq	$1, %rbx
 5489              	.LVL854:
 690:fltk-1.3.4-1/jpeg/jdmarker.c ****   INPUT_2BYTES(cinfo, tmp, return FALSE);
 5490              		.loc 1 690 0
 5491 1399 41803E00 		cmpb	$0, (%r14)
 689:fltk-1.3.4-1/jpeg/jdmarker.c ****   if (tmp != 0) goto bad;		/* F3: CENTER3=0, NORM3=0 */
 5492              		.loc 1 689 0
 5493 139d 498D4601 		leaq	1(%r14), %rax
 5494              	.LVL855:
 690:fltk-1.3.4-1/jpeg/jdmarker.c ****   INPUT_2BYTES(cinfo, tmp, return FALSE);
 5495              		.loc 1 690 0
 5496 13a1 0F854BFE 		jne	.L475
 5496      FFFF
 691:fltk-1.3.4-1/jpeg/jdmarker.c ****   if (tmp != 1) goto bad;			/* A(3,1)=1 */
 5497              		.loc 1 691 0
 5498 13a7 4885DB   		testq	%rbx, %rbx
 5499 13aa 0F84CC00 		je	.L750
 5499      0000
 5500              	.LVL856:
 5501              	.L461:
 5502 13b0 440FB628 		movzbl	(%rax), %r13d
 5503 13b4 488D5001 		leaq	1(%rax), %rdx
 5504              	.LVL857:
 5505 13b8 41C1E508 		sall	$8, %r13d
 5506              	.LVL858:
 5507 13bc 4883EB01 		subq	$1, %rbx
 5508              	.LVL859:
 5509 13c0 0F849B00 		je	.L751
 5509      0000
 5510              	.L462:
 692:fltk-1.3.4-1/jpeg/jdmarker.c ****   INPUT_2BYTES(cinfo, tmp, return FALSE);
 5511              		.loc 1 692 0
 5512 13c6 0FB602   		movzbl	(%rdx), %eax
 691:fltk-1.3.4-1/jpeg/jdmarker.c ****   if (tmp != 1) goto bad;			/* A(3,1)=1 */
 5513              		.loc 1 691 0
 5514 13c9 4883EB01 		subq	$1, %rbx
 5515              	.LVL860:
 5516 13cd 4C8D7201 		leaq	1(%rdx), %r14
 5517              	.LVL861:
 692:fltk-1.3.4-1/jpeg/jdmarker.c ****   INPUT_2BYTES(cinfo, tmp, return FALSE);
 5518              		.loc 1 692 0
 5519 13d1 4101C5   		addl	%eax, %r13d
 5520              	.LVL862:
 5521 13d4 4183FD01 		cmpl	$1, %r13d
 5522 13d8 0F8594EF 		jne	.L434
 5522      FFFF
 693:fltk-1.3.4-1/jpeg/jdmarker.c ****   if (tmp != 0) {				/* A(3,2)=0 */
 5523              		.loc 1 693 0
 5524 13de 4885DB   		testq	%rbx, %rbx
 5525 13e1 7466     		je	.L752
 5526              	.L463:
 5527              	.LVL863:
 5528 13e3 450FB62E 		movzbl	(%r14), %r13d
 5529              	.LVL864:
 5530 13e7 498D4601 		leaq	1(%r14), %rax
 5531              	.LVL865:
 5532 13eb 41C1E508 		sall	$8, %r13d
 5533              	.LVL866:
 5534 13ef 4883EB01 		subq	$1, %rbx
 5535              	.LVL867:
 5536 13f3 743C     		je	.L753
 5537              	.L464:
 5538 13f5 4C8D7001 		leaq	1(%rax), %r14
 694:fltk-1.3.4-1/jpeg/jdmarker.c ****     bad:
 5539              		.loc 1 694 0
 5540 13f9 0FB600   		movzbl	(%rax), %eax
 5541              	.LVL868:
 693:fltk-1.3.4-1/jpeg/jdmarker.c ****   if (tmp != 0) {				/* A(3,2)=0 */
 5542              		.loc 1 693 0
 5543 13fc 4883EB01 		subq	$1, %rbx
 5544              	.LVL869:
 694:fltk-1.3.4-1/jpeg/jdmarker.c ****     bad:
 5545              		.loc 1 694 0
 5546 1400 4401E8   		addl	%r13d, %eax
 5547 1403 0F847DEF 		je	.L465
 5547      FFFF
 5548 1409 E964EFFF 		jmp	.L434
 5548      FF
 5549              	.L736:
 673:fltk-1.3.4-1/jpeg/jdmarker.c ****   if (cid != cinfo->comp_info[0].component_id) goto bad;
 5550              		.loc 1 673 0
 5551 140e 4C89E7   		movq	%r12, %rdi
 5552 1411 FF5518   		call	*24(%rbp)
 5553              	.LVL870:
 5554 1414 85C0     		testl	%eax, %eax
 5555 1416 0F84F7ED 		je	.L325
 5555      FFFF
 5556 141c 4C8B7500 		movq	0(%rbp), %r14
 5557              	.LVL871:
 5558 1420 488B5D08 		movq	8(%rbp), %rbx
 5559              	.LVL872:
 5560 1424 498B8424 		movq	304(%r12), %rax
 5560      30010000 
 5561 142c E96FFDFF 		jmp	.L448
 5561      FF
 5562              	.LVL873:
 5563              	.L753:
 693:fltk-1.3.4-1/jpeg/jdmarker.c ****   if (tmp != 0) {				/* A(3,2)=0 */
 5564              		.loc 1 693 0
 5565 1431 4C89E7   		movq	%r12, %rdi
 5566 1434 FF5518   		call	*24(%rbp)
 5567              	.LVL874:
 5568 1437 85C0     		testl	%eax, %eax
 5569 1439 0F84D4ED 		je	.L325
 5569      FFFF
 5570 143f 488B4500 		movq	0(%rbp), %rax
 5571              	.LVL875:
 5572 1443 488B5D08 		movq	8(%rbp), %rbx
 5573              	.LVL876:
 5574 1447 EBAC     		jmp	.L464
 5575              	.LVL877:
 5576              	.L752:
 5577 1449 4C89E7   		movq	%r12, %rdi
 5578 144c FF5518   		call	*24(%rbp)
 5579              	.LVL878:
 5580 144f 85C0     		testl	%eax, %eax
 5581 1451 0F84BCED 		je	.L325
 5581      FFFF
 5582 1457 4C8B7500 		movq	0(%rbp), %r14
 5583              	.LVL879:
 5584 145b 488B5D08 		movq	8(%rbp), %rbx
 5585              	.LVL880:
 5586 145f EB82     		jmp	.L463
 5587              	.LVL881:
 5588              	.L751:
 691:fltk-1.3.4-1/jpeg/jdmarker.c ****   if (tmp != 1) goto bad;			/* A(3,1)=1 */
 5589              		.loc 1 691 0
 5590 1461 4C89E7   		movq	%r12, %rdi
 5591 1464 FF5518   		call	*24(%rbp)
 5592              	.LVL882:
 5593 1467 85C0     		testl	%eax, %eax
 5594 1469 0F84A4ED 		je	.L325
 5594      FFFF
 5595 146f 488B5500 		movq	0(%rbp), %rdx
 5596              	.LVL883:
 5597 1473 488B5D08 		movq	8(%rbp), %rbx
 5598              	.LVL884:
 5599 1477 E94AFFFF 		jmp	.L462
 5599      FF
 5600              	.LVL885:
 5601              	.L750:
 5602 147c 4C89E7   		movq	%r12, %rdi
 5603 147f FF5518   		call	*24(%rbp)
 5604              	.LVL886:
 5605 1482 85C0     		testl	%eax, %eax
 5606 1484 0F8489ED 		je	.L325
 5606      FFFF
 5607 148a 488B4500 		movq	0(%rbp), %rax
 5608              	.LVL887:
 5609 148e 488B5D08 		movq	8(%rbp), %rbx
 5610              	.LVL888:
 5611 1492 E919FFFF 		jmp	.L461
 5611      FF
 5612              	.LVL889:
 5613              	.L749:
 689:fltk-1.3.4-1/jpeg/jdmarker.c ****   if (tmp != 0) goto bad;		/* F3: CENTER3=0, NORM3=0 */
 5614              		.loc 1 689 0
 5615 1497 4C89E7   		movq	%r12, %rdi
 5616 149a FF5518   		call	*24(%rbp)
 5617              	.LVL890:
 5618 149d 85C0     		testl	%eax, %eax
 5619 149f 0F846EED 		je	.L325
 5619      FFFF
 5620 14a5 4C8B7500 		movq	0(%rbp), %r14
 5621              	.LVL891:
 5622 14a9 488B5D08 		movq	8(%rbp), %rbx
 5623              	.LVL892:
 5624 14ad E9E3FEFF 		jmp	.L460
 5624      FF
 5625              	.LVL893:
 5626              	.L748:
 687:fltk-1.3.4-1/jpeg/jdmarker.c ****   if (tmp != 0) goto bad;			/* A(2,2)=0 */
 5627              		.loc 1 687 0
 5628 14b2 4C89E7   		movq	%r12, %rdi
 5629 14b5 FF5518   		call	*24(%rbp)
 5630              	.LVL894:
 5631 14b8 85C0     		testl	%eax, %eax
 5632 14ba 0F8453ED 		je	.L325
 5632      FFFF
 5633 14c0 488B4500 		movq	0(%rbp), %rax
 5634              	.LVL895:
 5635 14c4 488B5D08 		movq	8(%rbp), %rbx
 5636              	.LVL896:
 5637 14c8 E9ABFEFF 		jmp	.L459
 5637      FF
 5638              	.LVL897:
 5639              	.L747:
 5640 14cd 4C89E7   		movq	%r12, %rdi
 5641 14d0 FF5518   		call	*24(%rbp)
 5642              	.LVL898:
 5643 14d3 85C0     		testl	%eax, %eax
 5644 14d5 0F8438ED 		je	.L325
 5644      FFFF
 5645 14db 4C8B7500 		movq	0(%rbp), %r14
 5646              	.LVL899:
 5647 14df 488B5D08 		movq	8(%rbp), %rbx
 5648              	.LVL900:
 5649 14e3 E97AFEFF 		jmp	.L458
 5649      FF
 5650              	.LVL901:
 5651              	.L746:
 685:fltk-1.3.4-1/jpeg/jdmarker.c ****   if (tmp != 1) goto bad;			/* A(2,1)=1 */
 5652              		.loc 1 685 0
 5653 14e8 4C89E7   		movq	%r12, %rdi
 5654 14eb FF5518   		call	*24(%rbp)
 5655              	.LVL902:
 5656 14ee 85C0     		testl	%eax, %eax
 5657 14f0 0F841DED 		je	.L325
 5657      FFFF
 5658 14f6 488B5500 		movq	0(%rbp), %rdx
 5659              	.LVL903:
 5660 14fa 488B5D08 		movq	8(%rbp), %rbx
 5661              	.LVL904:
 5662 14fe E93EFEFF 		jmp	.L457
 5662      FF
 5663              	.LVL905:
 5664              	.L745:
 5665 1503 4C89E7   		movq	%r12, %rdi
 5666 1506 FF5518   		call	*24(%rbp)
 5667              	.LVL906:
 5668 1509 85C0     		testl	%eax, %eax
 5669 150b 0F8402ED 		je	.L325
 5669      FFFF
 5670 1511 488B4500 		movq	0(%rbp), %rax
 5671              	.LVL907:
 5672 1515 488B5D08 		movq	8(%rbp), %rbx
 5673              	.LVL908:
 5674 1519 E90DFEFF 		jmp	.L456
 5674      FF
 5675              	.LVL909:
 5676              	.L744:
 683:fltk-1.3.4-1/jpeg/jdmarker.c ****   if (tmp != 0) goto bad;		/* F2: CENTER2=0, NORM2=0 */
 5677              		.loc 1 683 0
 5678 151e 4C89E7   		movq	%r12, %rdi
 5679 1521 FF5518   		call	*24(%rbp)
 5680              	.LVL910:
 5681 1524 85C0     		testl	%eax, %eax
 5682 1526 0F84E7EC 		je	.L325
 5682      FFFF
 5683 152c 4C8B7500 		movq	0(%rbp), %r14
 5684              	.LVL911:
 5685 1530 488B5D08 		movq	8(%rbp), %rbx
 5686              	.LVL912:
 5687 1534 E9D7FDFF 		jmp	.L455
 5687      FF
 5688              	.LVL913:
 5689              	.L743:
 681:fltk-1.3.4-1/jpeg/jdmarker.c ****   if (tmp != 0) goto bad;			/* A(1,2)=0 */
 5690              		.loc 1 681 0
 5691 1539 4C89E7   		movq	%r12, %rdi
 5692 153c FF5518   		call	*24(%rbp)
 5693              	.LVL914:
 5694 153f 85C0     		testl	%eax, %eax
 5695 1541 0F84CCEC 		je	.L325
 5695      FFFF
 5696 1547 488B4500 		movq	0(%rbp), %rax
 5697              	.LVL915:
 5698 154b 488B5D08 		movq	8(%rbp), %rbx
 5699              	.LVL916:
 5700 154f E99FFDFF 		jmp	.L454
 5700      FF
 5701              	.LVL917:
 5702              	.L742:
 5703 1554 4C89E7   		movq	%r12, %rdi
 5704 1557 FF5518   		call	*24(%rbp)
 5705              	.LVL918:
 5706 155a 85C0     		testl	%eax, %eax
 5707 155c 0F84B1EC 		je	.L325
 5707      FFFF
 5708 1562 4C8B7500 		movq	0(%rbp), %r14
 5709              	.LVL919:
 5710 1566 488B5D08 		movq	8(%rbp), %rbx
 5711              	.LVL920:
 5712 156a E96EFDFF 		jmp	.L453
 5712      FF
 5713              	.LVL921:
 5714              	.L741:
 679:fltk-1.3.4-1/jpeg/jdmarker.c ****   if (tmp != 0) goto bad;			/* A(1,1)=0 */
 5715              		.loc 1 679 0
 5716 156f 4C89E7   		movq	%r12, %rdi
 5717 1572 FF5518   		call	*24(%rbp)
 5718              	.LVL922:
 5719 1575 85C0     		testl	%eax, %eax
 5720 1577 0F8496EC 		je	.L325
 5720      FFFF
 5721 157d 488B5500 		movq	0(%rbp), %rdx
 5722              	.LVL923:
 5723 1581 488B5D08 		movq	8(%rbp), %rbx
 5724              	.LVL924:
 5725 1585 E936FDFF 		jmp	.L452
 5725      FF
 5726              	.LVL925:
 5727              	.L740:
 5728 158a 4C89E7   		movq	%r12, %rdi
 5729 158d FF5518   		call	*24(%rbp)
 5730              	.LVL926:
 5731 1590 85C0     		testl	%eax, %eax
 5732 1592 0F847BEC 		je	.L325
 5732      FFFF
 5733 1598 488B4500 		movq	0(%rbp), %rax
 5734              	.LVL927:
 5735 159c 488B5D08 		movq	8(%rbp), %rbx
 5736              	.LVL928:
 5737 15a0 E905FDFF 		jmp	.L451
 5737      FF
 5738              	.LBE104:
 5739              	.LBE159:
 5740              		.cfi_endproc
 5741              	.LFE76:
 5743              		.section	.text.unlikely.read_markers
 5744              	.LCOLDE10:
 5745              		.section	.text.read_markers
 5746              	.LHOTE10:
 5747              		.section	.text.unlikely.jpeg_resync_to_restart,"ax",@progbits
 5748              	.LCOLDB11:
 5749              		.section	.text.jpeg_resync_to_restart,"ax",@progbits
 5750              	.LHOTB11:
 5751              		.p2align 4,,15
 5752              		.globl	jpeg_resync_to_restart
 5754              	jpeg_resync_to_restart:
 5755              	.LFB78:
1344:fltk-1.3.4-1/jpeg/jdmarker.c ****   int marker = cinfo->unread_marker;
 5756              		.loc 1 1344 0
 5757              		.cfi_startproc
 5758              	.LVL929:
 5759 0000 4156     		pushq	%r14
 5760              		.cfi_def_cfa_offset 16
 5761              		.cfi_offset 14, -16
 5762 0002 4155     		pushq	%r13
 5763              		.cfi_def_cfa_offset 24
 5764              		.cfi_offset 13, -24
 5765 0004 4154     		pushq	%r12
 5766              		.cfi_def_cfa_offset 32
 5767              		.cfi_offset 12, -32
 5768 0006 55       		pushq	%rbp
 5769              		.cfi_def_cfa_offset 40
 5770              		.cfi_offset 6, -40
 5771 0007 4189F4   		movl	%esi, %r12d
 5772 000a 53       		pushq	%rbx
 5773              		.cfi_def_cfa_offset 48
 5774              		.cfi_offset 3, -48
1349:fltk-1.3.4-1/jpeg/jdmarker.c ****   
 5775              		.loc 1 1349 0
 5776 000b 488B07   		movq	(%rdi), %rax
1344:fltk-1.3.4-1/jpeg/jdmarker.c ****   int marker = cinfo->unread_marker;
 5777              		.loc 1 1344 0
 5778 000e 4889FB   		movq	%rdi, %rbx
1345:fltk-1.3.4-1/jpeg/jdmarker.c ****   int action = 1;
 5779              		.loc 1 1345 0
 5780 0011 8BAF3C02 		movl	572(%rdi), %ebp
 5780      0000
 5781              	.LVL930:
1361:fltk-1.3.4-1/jpeg/jdmarker.c **** 	       marker == ((int) M_RST0 + ((desired-2) & 7)))
 5782              		.loc 1 1361 0
 5783 0017 458D7424 		leal	-2(%r12), %r14d
 5783      FE
1349:fltk-1.3.4-1/jpeg/jdmarker.c ****   
 5784              		.loc 1 1349 0
 5785 001c C740287C 		movl	$124, 40(%rax)
 5785      000000
 5786 0023 488B07   		movq	(%rdi), %rax
 5787 0026 89682C   		movl	%ebp, 44(%rax)
 5788 0029 488B07   		movq	(%rdi), %rax
 5789 002c 897030   		movl	%esi, 48(%rax)
 5790 002f 488B07   		movq	(%rdi), %rax
 5791 0032 BEFFFFFF 		movl	$-1, %esi
 5791      FF
 5792              	.LVL931:
 5793 0037 FF5008   		call	*8(%rax)
 5794              	.LVL932:
1361:fltk-1.3.4-1/jpeg/jdmarker.c **** 	       marker == ((int) M_RST0 + ((desired-2) & 7)))
 5795              		.loc 1 1361 0
 5796 003a 418D4424 		leal	-1(%r12), %eax
 5796      FF
 5797 003f 83E007   		andl	$7, %eax
 5798 0042 448DA8D0 		leal	208(%rax), %r13d
 5798      000000
 5799              	.LVL933:
 5800              	.L758:
1353:fltk-1.3.4-1/jpeg/jdmarker.c ****       action = 2;		/* invalid marker */
 5801              		.loc 1 1353 0
 5802 0049 81FDBF00 		cmpl	$191, %ebp
 5802      0000
 5803 004f 0F8ECB00 		jle	.L755
 5803      0000
1355:fltk-1.3.4-1/jpeg/jdmarker.c ****       action = 3;		/* valid non-restart marker */
 5804              		.loc 1 1355 0
 5805 0055 8D8530FF 		leal	-208(%rbp), %eax
 5805      FFFF
 5806 005b 83F807   		cmpl	$7, %eax
 5807 005e 0F878400 		ja	.L756
 5807      0000
1358:fltk-1.3.4-1/jpeg/jdmarker.c **** 	  marker == ((int) M_RST0 + ((desired+2) & 7)))
 5808              		.loc 1 1358 0
 5809 0064 418D4424 		leal	1(%r12), %eax
 5809      01
 5810 0069 83E007   		andl	$7, %eax
 5811 006c 05D00000 		addl	$208, %eax
 5811      00
 5812 0071 39C5     		cmpl	%eax, %ebp
 5813 0073 7473     		je	.L756
1359:fltk-1.3.4-1/jpeg/jdmarker.c **** 	action = 3;		/* one of the next two expected restarts */
 5814              		.loc 1 1359 0 discriminator 1
 5815 0075 418D4424 		leal	2(%r12), %eax
 5815      02
 5816 007a 83E007   		andl	$7, %eax
 5817 007d 05D00000 		addl	$208, %eax
 5817      00
1358:fltk-1.3.4-1/jpeg/jdmarker.c **** 	  marker == ((int) M_RST0 + ((desired+2) & 7)))
 5818              		.loc 1 1358 0 discriminator 1
 5819 0082 39C5     		cmpl	%eax, %ebp
 5820 0084 7462     		je	.L756
1361:fltk-1.3.4-1/jpeg/jdmarker.c **** 	       marker == ((int) M_RST0 + ((desired-2) & 7)))
 5821              		.loc 1 1361 0
 5822 0086 4439ED   		cmpl	%r13d, %ebp
 5823 0089 0F849100 		je	.L755
 5823      0000
1361:fltk-1.3.4-1/jpeg/jdmarker.c **** 	       marker == ((int) M_RST0 + ((desired-2) & 7)))
 5824              		.loc 1 1361 0 is_stmt 0 discriminator 1
 5825 008f 4489F0   		movl	%r14d, %eax
 5826 0092 83E007   		andl	$7, %eax
 5827 0095 05D00000 		addl	$208, %eax
 5827      00
 5828 009a 39C5     		cmpl	%eax, %ebp
 5829 009c 0F847E00 		je	.L755
 5829      0000
 5830              	.LVL934:
1367:fltk-1.3.4-1/jpeg/jdmarker.c ****     switch (action) {
 5831              		.loc 1 1367 0 is_stmt 1
 5832 00a2 488B03   		movq	(%rbx), %rax
 5833 00a5 4889DF   		movq	%rbx, %rdi
 5834 00a8 BE040000 		movl	$4, %esi
 5834      00
 5835 00ad C7402863 		movl	$99, 40(%rax)
 5835      000000
 5836 00b4 488B03   		movq	(%rbx), %rax
 5837 00b7 89682C   		movl	%ebp, 44(%rax)
 5838 00ba 488B03   		movq	(%rbx), %rax
 5839 00bd C7403001 		movl	$1, 48(%rax)
 5839      000000
 5840 00c4 488B03   		movq	(%rbx), %rax
 5841 00c7 FF5008   		call	*8(%rax)
 5842              	.LVL935:
1371:fltk-1.3.4-1/jpeg/jdmarker.c ****       return TRUE;
 5843              		.loc 1 1371 0
 5844 00ca C7833C02 		movl	$0, 572(%rbx)
 5844      00000000 
 5844      0000
1372:fltk-1.3.4-1/jpeg/jdmarker.c ****     case 2:
 5845              		.loc 1 1372 0
 5846 00d4 B8010000 		movl	$1, %eax
 5846      00
1385:fltk-1.3.4-1/jpeg/jdmarker.c **** 
 5847              		.loc 1 1385 0
 5848 00d9 5B       		popq	%rbx
 5849              		.cfi_remember_state
 5850              		.cfi_def_cfa_offset 40
 5851              	.LVL936:
 5852 00da 5D       		popq	%rbp
 5853              		.cfi_def_cfa_offset 32
 5854              	.LVL937:
 5855 00db 415C     		popq	%r12
 5856              		.cfi_def_cfa_offset 24
 5857              	.LVL938:
 5858 00dd 415D     		popq	%r13
 5859              		.cfi_def_cfa_offset 16
 5860 00df 415E     		popq	%r14
 5861              		.cfi_def_cfa_offset 8
 5862              	.LVL939:
 5863 00e1 C3       		ret
 5864              	.LVL940:
 5865              		.p2align 4,,10
 5866 00e2 660F1F44 		.p2align 3
 5866      0000
 5867              	.L756:
 5868              		.cfi_restore_state
1367:fltk-1.3.4-1/jpeg/jdmarker.c ****     switch (action) {
 5869              		.loc 1 1367 0
 5870 00e8 488B03   		movq	(%rbx), %rax
 5871 00eb BE040000 		movl	$4, %esi
 5871      00
 5872 00f0 4889DF   		movq	%rbx, %rdi
 5873 00f3 C7402863 		movl	$99, 40(%rax)
 5873      000000
 5874 00fa 488B03   		movq	(%rbx), %rax
 5875 00fd 89682C   		movl	%ebp, 44(%rax)
 5876 0100 488B03   		movq	(%rbx), %rax
 5877 0103 C7403003 		movl	$3, 48(%rax)
 5877      000000
 5878 010a 488B03   		movq	(%rbx), %rax
 5879 010d FF5008   		call	*8(%rax)
 5880              	.LVL941:
1382:fltk-1.3.4-1/jpeg/jdmarker.c ****     }
 5881              		.loc 1 1382 0
 5882 0110 B8010000 		movl	$1, %eax
 5882      00
 5883              	.LVL942:
 5884              	.L764:
1385:fltk-1.3.4-1/jpeg/jdmarker.c **** 
 5885              		.loc 1 1385 0
 5886 0115 5B       		popq	%rbx
 5887              		.cfi_remember_state
 5888              		.cfi_def_cfa_offset 40
 5889              	.LVL943:
 5890 0116 5D       		popq	%rbp
 5891              		.cfi_def_cfa_offset 32
 5892              	.LVL944:
 5893 0117 415C     		popq	%r12
 5894              		.cfi_def_cfa_offset 24
 5895              	.LVL945:
 5896 0119 415D     		popq	%r13
 5897              		.cfi_def_cfa_offset 16
 5898 011b 415E     		popq	%r14
 5899              		.cfi_def_cfa_offset 8
 5900              	.LVL946:
 5901 011d C3       		ret
 5902              	.LVL947:
 5903 011e 6690     		.p2align 4,,10
 5904              		.p2align 3
 5905              	.L755:
 5906              		.cfi_restore_state
1367:fltk-1.3.4-1/jpeg/jdmarker.c ****     switch (action) {
 5907              		.loc 1 1367 0
 5908 0120 488B03   		movq	(%rbx), %rax
 5909 0123 BE040000 		movl	$4, %esi
 5909      00
 5910 0128 4889DF   		movq	%rbx, %rdi
 5911 012b C7402863 		movl	$99, 40(%rax)
 5911      000000
 5912 0132 488B03   		movq	(%rbx), %rax
 5913 0135 89682C   		movl	%ebp, 44(%rax)
 5914 0138 488B03   		movq	(%rbx), %rax
 5915 013b C7403002 		movl	$2, 48(%rax)
 5915      000000
 5916 0142 488B03   		movq	(%rbx), %rax
 5917 0145 FF5008   		call	*8(%rax)
 5918              	.LVL948:
1375:fltk-1.3.4-1/jpeg/jdmarker.c **** 	return FALSE;
 5919              		.loc 1 1375 0
 5920 0148 4889DF   		movq	%rbx, %rdi
 5921 014b E8000000 		call	next_marker
 5921      00
 5922              	.LVL949:
 5923 0150 85C0     		testl	%eax, %eax
 5924 0152 74C1     		je	.L764
1377:fltk-1.3.4-1/jpeg/jdmarker.c ****       break;
 5925              		.loc 1 1377 0
 5926 0154 8BAB3C02 		movl	572(%rbx), %ebp
 5926      0000
 5927              	.LVL950:
1378:fltk-1.3.4-1/jpeg/jdmarker.c ****     case 3:
 5928              		.loc 1 1378 0
 5929 015a E9EAFEFF 		jmp	.L758
 5929      FF
 5930              		.cfi_endproc
 5931              	.LFE78:
 5933              		.section	.text.unlikely.jpeg_resync_to_restart
 5934              	.LCOLDE11:
 5935              		.section	.text.jpeg_resync_to_restart
 5936              	.LHOTE11:
 5937              		.section	.text.unlikely.jinit_marker_reader,"ax",@progbits
 5938              	.LCOLDB12:
 5939              		.section	.text.jinit_marker_reader,"ax",@progbits
 5940              	.LHOTB12:
 5941              		.p2align 4,,15
 5942              		.globl	jinit_marker_reader
 5944              	jinit_marker_reader:
 5945              	.LFB80:
1404:fltk-1.3.4-1/jpeg/jdmarker.c **** }
1405:fltk-1.3.4-1/jpeg/jdmarker.c **** 
1406:fltk-1.3.4-1/jpeg/jdmarker.c **** 
1407:fltk-1.3.4-1/jpeg/jdmarker.c **** /*
1408:fltk-1.3.4-1/jpeg/jdmarker.c ****  * Initialize the marker reader module.
1409:fltk-1.3.4-1/jpeg/jdmarker.c ****  * This is called only once, when the decompression object is created.
1410:fltk-1.3.4-1/jpeg/jdmarker.c ****  */
1411:fltk-1.3.4-1/jpeg/jdmarker.c **** 
1412:fltk-1.3.4-1/jpeg/jdmarker.c **** GLOBAL(void)
1413:fltk-1.3.4-1/jpeg/jdmarker.c **** jinit_marker_reader (j_decompress_ptr cinfo)
1414:fltk-1.3.4-1/jpeg/jdmarker.c **** {
 5946              		.loc 1 1414 0
 5947              		.cfi_startproc
 5948              	.LVL951:
1415:fltk-1.3.4-1/jpeg/jdmarker.c ****   my_marker_ptr marker;
1416:fltk-1.3.4-1/jpeg/jdmarker.c ****   int i;
1417:fltk-1.3.4-1/jpeg/jdmarker.c **** 
1418:fltk-1.3.4-1/jpeg/jdmarker.c ****   /* Create subobject in permanent pool */
1419:fltk-1.3.4-1/jpeg/jdmarker.c ****   marker = (my_marker_ptr)
1420:fltk-1.3.4-1/jpeg/jdmarker.c ****     (*cinfo->mem->alloc_small) ((j_common_ptr) cinfo, JPOOL_PERMANENT,
 5949              		.loc 1 1420 0
 5950 0000 488B4708 		movq	8(%rdi), %rax
1414:fltk-1.3.4-1/jpeg/jdmarker.c ****   my_marker_ptr marker;
 5951              		.loc 1 1414 0
 5952 0004 53       		pushq	%rbx
 5953              		.cfi_def_cfa_offset 16
 5954              		.cfi_offset 3, -16
1414:fltk-1.3.4-1/jpeg/jdmarker.c ****   my_marker_ptr marker;
 5955              		.loc 1 1414 0
 5956 0005 4889FB   		movq	%rdi, %rbx
1419:fltk-1.3.4-1/jpeg/jdmarker.c ****     (*cinfo->mem->alloc_small) ((j_common_ptr) cinfo, JPOOL_PERMANENT,
 5957              		.loc 1 1419 0
 5958 0008 BA080100 		movl	$264, %edx
 5958      00
 5959 000d 31F6     		xorl	%esi, %esi
 5960 000f FF10     		call	*(%rax)
 5961              	.LVL952:
1421:fltk-1.3.4-1/jpeg/jdmarker.c **** 				SIZEOF(my_marker_reader));
1422:fltk-1.3.4-1/jpeg/jdmarker.c ****   cinfo->marker = &marker->pub;
1423:fltk-1.3.4-1/jpeg/jdmarker.c ****   /* Initialize public method pointers */
1424:fltk-1.3.4-1/jpeg/jdmarker.c ****   marker->pub.reset_marker_reader = reset_marker_reader;
1425:fltk-1.3.4-1/jpeg/jdmarker.c ****   marker->pub.read_markers = read_markers;
1426:fltk-1.3.4-1/jpeg/jdmarker.c ****   marker->pub.read_restart_marker = read_restart_marker;
1427:fltk-1.3.4-1/jpeg/jdmarker.c ****   /* Initialize COM/APPn processing.
1428:fltk-1.3.4-1/jpeg/jdmarker.c ****    * By default, we examine and then discard APP0 and APP14,
1429:fltk-1.3.4-1/jpeg/jdmarker.c ****    * but simply discard COM and all other APPn.
1430:fltk-1.3.4-1/jpeg/jdmarker.c ****    */
1431:fltk-1.3.4-1/jpeg/jdmarker.c ****   marker->process_COM = skip_variable;
1432:fltk-1.3.4-1/jpeg/jdmarker.c ****   marker->length_limit_COM = 0;
 5962              		.loc 1 1432 0
 5963 0011 31D2     		xorl	%edx, %edx
1422:fltk-1.3.4-1/jpeg/jdmarker.c ****   /* Initialize public method pointers */
 5964              		.loc 1 1422 0
 5965 0013 48898368 		movq	%rax, 616(%rbx)
 5965      020000
1424:fltk-1.3.4-1/jpeg/jdmarker.c ****   marker->pub.read_markers = read_markers;
 5966              		.loc 1 1424 0
 5967 001a 48C70000 		movq	$reset_marker_reader, (%rax)
 5967      000000
1425:fltk-1.3.4-1/jpeg/jdmarker.c ****   marker->pub.read_restart_marker = read_restart_marker;
 5968              		.loc 1 1425 0
 5969 0021 48C74008 		movq	$read_markers, 8(%rax)
 5969      00000000 
1426:fltk-1.3.4-1/jpeg/jdmarker.c ****   /* Initialize COM/APPn processing.
 5970              		.loc 1 1426 0
 5971 0029 48C74010 		movq	$read_restart_marker, 16(%rax)
 5971      00000000 
1431:fltk-1.3.4-1/jpeg/jdmarker.c ****   marker->length_limit_COM = 0;
 5972              		.loc 1 1431 0
 5973 0031 48C74028 		movq	$skip_variable, 40(%rax)
 5973      00000000 
 5974              		.loc 1 1432 0
 5975 0039 C780B000 		movl	$0, 176(%rax)
 5975      00000000 
 5975      0000
 5976              	.LVL953:
 5977              		.p2align 4,,10
 5978 0043 0F1F4400 		.p2align 3
 5978      00
 5979              	.L771:
1433:fltk-1.3.4-1/jpeg/jdmarker.c ****   for (i = 0; i < 16; i++) {
1434:fltk-1.3.4-1/jpeg/jdmarker.c ****     marker->process_APPn[i] = skip_variable;
 5980              		.loc 1 1434 0 discriminator 3
 5981 0048 48C74450 		movq	$skip_variable, 48(%rax,%rdx,2)
 5981      30000000 
 5981      00
1435:fltk-1.3.4-1/jpeg/jdmarker.c ****     marker->length_limit_APPn[i] = 0;
 5982              		.loc 1 1435 0 discriminator 3
 5983 0051 C78410B4 		movl	$0, 180(%rax,%rdx)
 5983      00000000 
 5983      000000
 5984 005c 4883C204 		addq	$4, %rdx
1433:fltk-1.3.4-1/jpeg/jdmarker.c ****   for (i = 0; i < 16; i++) {
 5985              		.loc 1 1433 0 discriminator 3
 5986 0060 4883FA40 		cmpq	$64, %rdx
 5987 0064 75E2     		jne	.L771
1436:fltk-1.3.4-1/jpeg/jdmarker.c ****   }
1437:fltk-1.3.4-1/jpeg/jdmarker.c ****   marker->process_APPn[0] = get_interesting_appn;
 5988              		.loc 1 1437 0
 5989 0066 48C74030 		movq	$get_interesting_appn, 48(%rax)
 5989      00000000 
1438:fltk-1.3.4-1/jpeg/jdmarker.c ****   marker->process_APPn[14] = get_interesting_appn;
 5990              		.loc 1 1438 0
 5991 006e 48C780A0 		movq	$get_interesting_appn, 160(%rax)
 5991      00000000 
 5991      000000
 5992              	.LVL954:
 5993              	.LBB160:
 5994              	.LBB161:
1395:fltk-1.3.4-1/jpeg/jdmarker.c **** 
 5995              		.loc 1 1395 0
 5996 0079 488B8368 		movq	616(%rbx), %rax
 5996      020000
 5997              	.LVL955:
1397:fltk-1.3.4-1/jpeg/jdmarker.c ****   cinfo->input_scan_number = 0;		/* no SOS seen yet */
 5998              		.loc 1 1397 0
 5999 0080 48C78330 		movq	$0, 304(%rbx)
 5999      01000000 
 5999      000000
1398:fltk-1.3.4-1/jpeg/jdmarker.c ****   cinfo->unread_marker = 0;		/* no pending marker */
 6000              		.loc 1 1398 0
 6001 008b C783AC00 		movl	$0, 172(%rbx)
 6001      00000000 
 6001      0000
1399:fltk-1.3.4-1/jpeg/jdmarker.c ****   marker->pub.saw_SOI = FALSE;		/* set internal state too */
 6002              		.loc 1 1399 0
 6003 0095 C7833C02 		movl	$0, 572(%rbx)
 6003      00000000 
 6003      0000
1400:fltk-1.3.4-1/jpeg/jdmarker.c ****   marker->pub.saw_SOF = FALSE;
 6004              		.loc 1 1400 0
 6005 009f C7401800 		movl	$0, 24(%rax)
 6005      000000
1401:fltk-1.3.4-1/jpeg/jdmarker.c ****   marker->pub.discarded_bytes = 0;
 6006              		.loc 1 1401 0
 6007 00a6 C7401C00 		movl	$0, 28(%rax)
 6007      000000
1402:fltk-1.3.4-1/jpeg/jdmarker.c ****   marker->cur_marker = NULL;
 6008              		.loc 1 1402 0
 6009 00ad C7402400 		movl	$0, 36(%rax)
 6009      000000
1403:fltk-1.3.4-1/jpeg/jdmarker.c **** }
 6010              		.loc 1 1403 0
 6011 00b4 48C780F8 		movq	$0, 248(%rax)
 6011      00000000 
 6011      000000
 6012              	.LVL956:
 6013              	.LBE161:
 6014              	.LBE160:
1439:fltk-1.3.4-1/jpeg/jdmarker.c ****   /* Reset marker processing state */
1440:fltk-1.3.4-1/jpeg/jdmarker.c ****   reset_marker_reader(cinfo);
1441:fltk-1.3.4-1/jpeg/jdmarker.c **** }
 6015              		.loc 1 1441 0
 6016 00bf 5B       		popq	%rbx
 6017              		.cfi_def_cfa_offset 8
 6018              	.LVL957:
 6019 00c0 C3       		ret
 6020              		.cfi_endproc
 6021              	.LFE80:
 6023              		.section	.text.unlikely.jinit_marker_reader
 6024              	.LCOLDE12:
 6025              		.section	.text.jinit_marker_reader
 6026              	.LHOTE12:
 6027              		.section	.text.unlikely.jpeg_save_markers,"ax",@progbits
 6028              	.LCOLDB13:
 6029              		.section	.text.jpeg_save_markers,"ax",@progbits
 6030              	.LHOTB13:
 6031              		.p2align 4,,15
 6032              		.globl	jpeg_save_markers
 6034              	jpeg_save_markers:
 6035              	.LFB81:
1442:fltk-1.3.4-1/jpeg/jdmarker.c **** 
1443:fltk-1.3.4-1/jpeg/jdmarker.c **** 
1444:fltk-1.3.4-1/jpeg/jdmarker.c **** /*
1445:fltk-1.3.4-1/jpeg/jdmarker.c ****  * Control saving of COM and APPn markers into marker_list.
1446:fltk-1.3.4-1/jpeg/jdmarker.c ****  */
1447:fltk-1.3.4-1/jpeg/jdmarker.c **** 
1448:fltk-1.3.4-1/jpeg/jdmarker.c **** #ifdef SAVE_MARKERS_SUPPORTED
1449:fltk-1.3.4-1/jpeg/jdmarker.c **** 
1450:fltk-1.3.4-1/jpeg/jdmarker.c **** GLOBAL(void)
1451:fltk-1.3.4-1/jpeg/jdmarker.c **** jpeg_save_markers (j_decompress_ptr cinfo, int marker_code,
1452:fltk-1.3.4-1/jpeg/jdmarker.c **** 		   unsigned int length_limit)
1453:fltk-1.3.4-1/jpeg/jdmarker.c **** {
 6036              		.loc 1 1453 0
 6037              		.cfi_startproc
 6038              	.LVL958:
1454:fltk-1.3.4-1/jpeg/jdmarker.c ****   my_marker_ptr marker = (my_marker_ptr) cinfo->marker;
1455:fltk-1.3.4-1/jpeg/jdmarker.c ****   long maxlength;
1456:fltk-1.3.4-1/jpeg/jdmarker.c ****   jpeg_marker_parser_method processor;
1457:fltk-1.3.4-1/jpeg/jdmarker.c **** 
1458:fltk-1.3.4-1/jpeg/jdmarker.c ****   /* Length limit mustn't be larger than what we can allocate
1459:fltk-1.3.4-1/jpeg/jdmarker.c ****    * (should only be a concern in a 16-bit environment).
1460:fltk-1.3.4-1/jpeg/jdmarker.c ****    */
1461:fltk-1.3.4-1/jpeg/jdmarker.c ****   maxlength = cinfo->mem->max_alloc_chunk - SIZEOF(struct jpeg_marker_struct);
 6039              		.loc 1 1461 0
 6040 0000 488B4708 		movq	8(%rdi), %rax
1462:fltk-1.3.4-1/jpeg/jdmarker.c ****   if (((long) length_limit) > maxlength)
 6041              		.loc 1 1462 0
 6042 0004 4189D0   		movl	%edx, %r8d
1454:fltk-1.3.4-1/jpeg/jdmarker.c ****   my_marker_ptr marker = (my_marker_ptr) cinfo->marker;
 6043              		.loc 1 1454 0
 6044 0007 488B8F68 		movq	616(%rdi), %rcx
 6044      020000
 6045              	.LVL959:
1461:fltk-1.3.4-1/jpeg/jdmarker.c ****   if (((long) length_limit) > maxlength)
 6046              		.loc 1 1461 0
 6047 000e 488B4060 		movq	96(%rax), %rax
 6048 0012 4883E820 		subq	$32, %rax
 6049              	.LVL960:
1463:fltk-1.3.4-1/jpeg/jdmarker.c ****     length_limit = (unsigned int) maxlength;
 6050              		.loc 1 1463 0
 6051 0016 4C39C0   		cmpq	%r8, %rax
 6052 0019 0F4CD0   		cmovl	%eax, %edx
 6053              	.LVL961:
1464:fltk-1.3.4-1/jpeg/jdmarker.c **** 
1465:fltk-1.3.4-1/jpeg/jdmarker.c ****   /* Choose processor routine to use.
1466:fltk-1.3.4-1/jpeg/jdmarker.c ****    * APP0/APP14 have special requirements.
1467:fltk-1.3.4-1/jpeg/jdmarker.c ****    */
1468:fltk-1.3.4-1/jpeg/jdmarker.c ****   if (length_limit) {
 6054              		.loc 1 1468 0
 6055 001c 85D2     		testl	%edx, %edx
 6056 001e 7440     		je	.L776
 6057              	.LVL962:
1469:fltk-1.3.4-1/jpeg/jdmarker.c ****     processor = save_marker;
1470:fltk-1.3.4-1/jpeg/jdmarker.c ****     /* If saving APP0/APP14, save at least enough for our internal use. */
1471:fltk-1.3.4-1/jpeg/jdmarker.c ****     if (marker_code == (int) M_APP0 && length_limit < APP0_DATA_LEN)
 6058              		.loc 1 1471 0
 6059 0020 81FEE000 		cmpl	$224, %esi
 6059      0000
 6060 0026 0F859400 		jne	.L788
 6060      0000
 6061 002c 83FA0D   		cmpl	$13, %edx
 6062 002f 0F878B00 		ja	.L788
 6062      0000
1472:fltk-1.3.4-1/jpeg/jdmarker.c ****       length_limit = APP0_DATA_LEN;
 6063              		.loc 1 1472 0
 6064 0035 BA0E0000 		movl	$14, %edx
 6064      00
 6065              	.LVL963:
 6066              	.L777:
1473:fltk-1.3.4-1/jpeg/jdmarker.c ****     else if (marker_code == (int) M_APP14 && length_limit < APP14_DATA_LEN)
1474:fltk-1.3.4-1/jpeg/jdmarker.c ****       length_limit = APP14_DATA_LEN;
1475:fltk-1.3.4-1/jpeg/jdmarker.c ****   } else {
1476:fltk-1.3.4-1/jpeg/jdmarker.c ****     processor = skip_variable;
1477:fltk-1.3.4-1/jpeg/jdmarker.c ****     /* If discarding APP0/APP14, use our regular on-the-fly processor. */
1478:fltk-1.3.4-1/jpeg/jdmarker.c ****     if (marker_code == (int) M_APP0 || marker_code == (int) M_APP14)
1479:fltk-1.3.4-1/jpeg/jdmarker.c ****       processor = get_interesting_appn;
1480:fltk-1.3.4-1/jpeg/jdmarker.c ****   }
1481:fltk-1.3.4-1/jpeg/jdmarker.c **** 
1482:fltk-1.3.4-1/jpeg/jdmarker.c ****   if (marker_code == (int) M_COM) {
1483:fltk-1.3.4-1/jpeg/jdmarker.c ****     marker->process_COM = processor;
1484:fltk-1.3.4-1/jpeg/jdmarker.c ****     marker->length_limit_COM = length_limit;
1485:fltk-1.3.4-1/jpeg/jdmarker.c ****   } else if (marker_code >= (int) M_APP0 && marker_code <= (int) M_APP15) {
 6067              		.loc 1 1485 0
 6068 003a 8D8620FF 		leal	-224(%rsi), %eax
 6068      FFFF
 6069              	.LVL964:
1479:fltk-1.3.4-1/jpeg/jdmarker.c ****   }
 6070              		.loc 1 1479 0
 6071 0040 41B80000 		movl	$save_marker, %r8d
 6071      0000
 6072              	.LVL965:
 6073              		.loc 1 1485 0
 6074 0046 83F80F   		cmpl	$15, %eax
 6075 0049 763E     		jbe	.L798
 6076              	.L784:
1486:fltk-1.3.4-1/jpeg/jdmarker.c ****     marker->process_APPn[marker_code - (int) M_APP0] = processor;
1487:fltk-1.3.4-1/jpeg/jdmarker.c ****     marker->length_limit_APPn[marker_code - (int) M_APP0] = length_limit;
1488:fltk-1.3.4-1/jpeg/jdmarker.c ****   } else
1489:fltk-1.3.4-1/jpeg/jdmarker.c ****     ERREXIT1(cinfo, JERR_UNKNOWN_MARKER, marker_code);
 6077              		.loc 1 1489 0
 6078 004b 488B07   		movq	(%rdi), %rax
 6079 004e C7402846 		movl	$70, 40(%rax)
 6079      000000
 6080              	.LVL966:
 6081 0055 488B07   		movq	(%rdi), %rax
 6082 0058 89702C   		movl	%esi, 44(%rax)
 6083 005b 488B07   		movq	(%rdi), %rax
 6084 005e FF20     		jmp	*(%rax)
 6085              	.LVL967:
 6086              		.p2align 4,,10
 6087              		.p2align 3
 6088              	.L776:
1478:fltk-1.3.4-1/jpeg/jdmarker.c ****       processor = get_interesting_appn;
 6089              		.loc 1 1478 0
 6090 0060 81FEE000 		cmpl	$224, %esi
 6090      0000
 6091 0066 7438     		je	.L790
 6092 0068 81FEEE00 		cmpl	$238, %esi
 6092      0000
1476:fltk-1.3.4-1/jpeg/jdmarker.c ****     /* If discarding APP0/APP14, use our regular on-the-fly processor. */
 6093              		.loc 1 1476 0
 6094 006e 41B80000 		movl	$skip_variable, %r8d
 6094      0000
1478:fltk-1.3.4-1/jpeg/jdmarker.c ****       processor = get_interesting_appn;
 6095              		.loc 1 1478 0
 6096 0074 742A     		je	.L790
 6097              	.LVL968:
 6098              	.L780:
1482:fltk-1.3.4-1/jpeg/jdmarker.c ****     marker->process_COM = processor;
 6099              		.loc 1 1482 0
 6100 0076 81FEFE00 		cmpl	$254, %esi
 6100      0000
 6101 007c 7430     		je	.L799
 6102              	.L782:
1485:fltk-1.3.4-1/jpeg/jdmarker.c ****     marker->process_APPn[marker_code - (int) M_APP0] = processor;
 6103              		.loc 1 1485 0
 6104 007e 8D8620FF 		leal	-224(%rsi), %eax
 6104      FFFF
 6105              	.LVL969:
 6106 0084 83F80F   		cmpl	$15, %eax
 6107 0087 77C2     		ja	.L784
 6108              	.L798:
1486:fltk-1.3.4-1/jpeg/jdmarker.c ****     marker->length_limit_APPn[marker_code - (int) M_APP0] = length_limit;
 6109              		.loc 1 1486 0
 6110 0089 4898     		cltq
 6111 008b 4C8944C1 		movq	%r8, 48(%rcx,%rax,8)
 6111      30
 6112              	.LVL970:
1487:fltk-1.3.4-1/jpeg/jdmarker.c ****   } else
 6113              		.loc 1 1487 0
 6114 0090 899481B4 		movl	%edx, 180(%rcx,%rax,4)
 6114      000000
 6115 0097 C3       		ret
 6116              	.LVL971:
 6117 0098 0F1F8400 		.p2align 4,,10
 6117      00000000 
 6118              		.p2align 3
 6119              	.L790:
1482:fltk-1.3.4-1/jpeg/jdmarker.c ****     marker->process_COM = processor;
 6120              		.loc 1 1482 0
 6121 00a0 81FEFE00 		cmpl	$254, %esi
 6121      0000
1479:fltk-1.3.4-1/jpeg/jdmarker.c ****   }
 6122              		.loc 1 1479 0
 6123 00a6 41B80000 		movl	$get_interesting_appn, %r8d
 6123      0000
 6124              	.LVL972:
1482:fltk-1.3.4-1/jpeg/jdmarker.c ****     marker->process_COM = processor;
 6125              		.loc 1 1482 0
 6126 00ac 75D0     		jne	.L782
 6127              	.L799:
1483:fltk-1.3.4-1/jpeg/jdmarker.c ****     marker->length_limit_COM = length_limit;
 6128              		.loc 1 1483 0
 6129 00ae 4C894128 		movq	%r8, 40(%rcx)
1484:fltk-1.3.4-1/jpeg/jdmarker.c ****   } else if (marker_code >= (int) M_APP0 && marker_code <= (int) M_APP15) {
 6130              		.loc 1 1484 0
 6131 00b2 8991B000 		movl	%edx, 176(%rcx)
 6131      0000
 6132 00b8 C3       		ret
 6133              	.LVL973:
 6134 00b9 0F1F8000 		.p2align 4,,10
 6134      000000
 6135              		.p2align 3
 6136              	.L788:
1473:fltk-1.3.4-1/jpeg/jdmarker.c ****       length_limit = APP14_DATA_LEN;
 6137              		.loc 1 1473 0
 6138 00c0 81FEEE00 		cmpl	$238, %esi
 6138      0000
 6139 00c6 7518     		jne	.L789
 6140 00c8 83FA0B   		cmpl	$11, %edx
 6141 00cb 7713     		ja	.L789
1474:fltk-1.3.4-1/jpeg/jdmarker.c ****   } else {
 6142              		.loc 1 1474 0
 6143 00cd BA0C0000 		movl	$12, %edx
 6143      00
 6144              	.LVL974:
 6145 00d2 E963FFFF 		jmp	.L777
 6145      FF
 6146              	.LVL975:
 6147 00d7 660F1F84 		.p2align 4,,10
 6147      00000000 
 6147      00
 6148              		.p2align 3
 6149              	.L789:
1469:fltk-1.3.4-1/jpeg/jdmarker.c ****     /* If saving APP0/APP14, save at least enough for our internal use. */
 6150              		.loc 1 1469 0
 6151 00e0 41B80000 		movl	$save_marker, %r8d
 6151      0000
 6152 00e6 EB8E     		jmp	.L780
 6153              		.cfi_endproc
 6154              	.LFE81:
 6156              		.section	.text.unlikely.jpeg_save_markers
 6157              	.LCOLDE13:
 6158              		.section	.text.jpeg_save_markers
 6159              	.LHOTE13:
 6160              		.section	.text.unlikely.jpeg_set_marker_processor,"ax",@progbits
 6161              	.LCOLDB14:
 6162              		.section	.text.jpeg_set_marker_processor,"ax",@progbits
 6163              	.LHOTB14:
 6164              		.p2align 4,,15
 6165              		.globl	jpeg_set_marker_processor
 6167              	jpeg_set_marker_processor:
 6168              	.LFB82:
1490:fltk-1.3.4-1/jpeg/jdmarker.c **** }
1491:fltk-1.3.4-1/jpeg/jdmarker.c **** 
1492:fltk-1.3.4-1/jpeg/jdmarker.c **** #endif /* SAVE_MARKERS_SUPPORTED */
1493:fltk-1.3.4-1/jpeg/jdmarker.c **** 
1494:fltk-1.3.4-1/jpeg/jdmarker.c **** 
1495:fltk-1.3.4-1/jpeg/jdmarker.c **** /*
1496:fltk-1.3.4-1/jpeg/jdmarker.c ****  * Install a special processing method for COM or APPn markers.
1497:fltk-1.3.4-1/jpeg/jdmarker.c ****  */
1498:fltk-1.3.4-1/jpeg/jdmarker.c **** 
1499:fltk-1.3.4-1/jpeg/jdmarker.c **** GLOBAL(void)
1500:fltk-1.3.4-1/jpeg/jdmarker.c **** jpeg_set_marker_processor (j_decompress_ptr cinfo, int marker_code,
1501:fltk-1.3.4-1/jpeg/jdmarker.c **** 			   jpeg_marker_parser_method routine)
1502:fltk-1.3.4-1/jpeg/jdmarker.c **** {
 6169              		.loc 1 1502 0
 6170              		.cfi_startproc
 6171              	.LVL976:
1503:fltk-1.3.4-1/jpeg/jdmarker.c ****   my_marker_ptr marker = (my_marker_ptr) cinfo->marker;
1504:fltk-1.3.4-1/jpeg/jdmarker.c **** 
1505:fltk-1.3.4-1/jpeg/jdmarker.c ****   if (marker_code == (int) M_COM)
 6172              		.loc 1 1505 0
 6173 0000 81FEFE00 		cmpl	$254, %esi
 6173      0000
1503:fltk-1.3.4-1/jpeg/jdmarker.c ****   my_marker_ptr marker = (my_marker_ptr) cinfo->marker;
 6174              		.loc 1 1503 0
 6175 0006 488B8F68 		movq	616(%rdi), %rcx
 6175      020000
 6176              	.LVL977:
 6177              		.loc 1 1505 0
 6178 000d 7431     		je	.L804
1506:fltk-1.3.4-1/jpeg/jdmarker.c ****     marker->process_COM = routine;
1507:fltk-1.3.4-1/jpeg/jdmarker.c ****   else if (marker_code >= (int) M_APP0 && marker_code <= (int) M_APP15)
 6179              		.loc 1 1507 0
 6180 000f 8D8620FF 		leal	-224(%rsi), %eax
 6180      FFFF
 6181 0015 83F80F   		cmpl	$15, %eax
 6182 0018 770E     		ja	.L803
1508:fltk-1.3.4-1/jpeg/jdmarker.c ****     marker->process_APPn[marker_code - (int) M_APP0] = routine;
 6183              		.loc 1 1508 0
 6184 001a 4898     		cltq
 6185 001c 488954C1 		movq	%rdx, 48(%rcx,%rax,8)
 6185      30
 6186 0021 C3       		ret
 6187              		.p2align 4,,10
 6188 0022 660F1F44 		.p2align 3
 6188      0000
 6189              	.L803:
1509:fltk-1.3.4-1/jpeg/jdmarker.c ****   else
1510:fltk-1.3.4-1/jpeg/jdmarker.c ****     ERREXIT1(cinfo, JERR_UNKNOWN_MARKER, marker_code);
 6190              		.loc 1 1510 0
 6191 0028 488B07   		movq	(%rdi), %rax
 6192 002b C7402846 		movl	$70, 40(%rax)
 6192      000000
 6193 0032 488B07   		movq	(%rdi), %rax
 6194 0035 89702C   		movl	%esi, 44(%rax)
 6195 0038 488B07   		movq	(%rdi), %rax
 6196 003b FF20     		jmp	*(%rax)
 6197              	.LVL978:
 6198 003d 0F1F00   		.p2align 4,,10
 6199              		.p2align 3
 6200              	.L804:
1506:fltk-1.3.4-1/jpeg/jdmarker.c ****   else if (marker_code >= (int) M_APP0 && marker_code <= (int) M_APP15)
 6201              		.loc 1 1506 0
 6202 0040 48895128 		movq	%rdx, 40(%rcx)
 6203 0044 C3       		ret
 6204              		.cfi_endproc
 6205              	.LFE82:
 6207              		.section	.text.unlikely.jpeg_set_marker_processor
 6208              	.LCOLDE14:
 6209              		.section	.text.jpeg_set_marker_processor
 6210              	.LHOTE14:
 6211              		.section	.rodata.CSWTCH.107,"a",@progbits
 6212              		.align 32
 6215              	CSWTCH.107:
 6216 0000 00000000 		.quad	jpeg_natural_order2
 6216      00000000 
 6217 0008 00000000 		.quad	jpeg_natural_order
 6217      00000000 
 6218 0010 00000000 		.quad	jpeg_natural_order
 6218      00000000 
 6219 0018 00000000 		.quad	jpeg_natural_order
 6219      00000000 
 6220 0020 00000000 		.quad	jpeg_natural_order
 6220      00000000 
 6221 0028 00000000 		.quad	jpeg_natural_order3
 6221      00000000 
 6222 0030 00000000 		.quad	jpeg_natural_order
 6222      00000000 
 6223 0038 00000000 		.quad	jpeg_natural_order
 6223      00000000 
 6224 0040 00000000 		.quad	jpeg_natural_order
 6224      00000000 
 6225 0048 00000000 		.quad	jpeg_natural_order
 6225      00000000 
 6226 0050 00000000 		.quad	jpeg_natural_order
 6226      00000000 
 6227 0058 00000000 		.quad	jpeg_natural_order
 6227      00000000 
 6228 0060 00000000 		.quad	jpeg_natural_order4
 6228      00000000 
 6229 0068 00000000 		.quad	jpeg_natural_order
 6229      00000000 
 6230 0070 00000000 		.quad	jpeg_natural_order
 6230      00000000 
 6231 0078 00000000 		.quad	jpeg_natural_order
 6231      00000000 
 6232 0080 00000000 		.quad	jpeg_natural_order
 6232      00000000 
 6233 0088 00000000 		.quad	jpeg_natural_order
 6233      00000000 
 6234 0090 00000000 		.quad	jpeg_natural_order
 6234      00000000 
 6235 0098 00000000 		.quad	jpeg_natural_order
 6235      00000000 
 6236 00a0 00000000 		.quad	jpeg_natural_order
 6236      00000000 
 6237 00a8 00000000 		.quad	jpeg_natural_order5
 6237      00000000 
 6238 00b0 00000000 		.quad	jpeg_natural_order
 6238      00000000 
 6239 00b8 00000000 		.quad	jpeg_natural_order
 6239      00000000 
 6240 00c0 00000000 		.quad	jpeg_natural_order
 6240      00000000 
 6241 00c8 00000000 		.quad	jpeg_natural_order
 6241      00000000 
 6242 00d0 00000000 		.quad	jpeg_natural_order
 6242      00000000 
 6243 00d8 00000000 		.quad	jpeg_natural_order
 6243      00000000 
 6244 00e0 00000000 		.quad	jpeg_natural_order
 6244      00000000 
 6245 00e8 00000000 		.quad	jpeg_natural_order
 6245      00000000 
 6246 00f0 00000000 		.quad	jpeg_natural_order
 6246      00000000 
 6247 00f8 00000000 		.quad	jpeg_natural_order
 6247      00000000 
 6248 0100 00000000 		.quad	jpeg_natural_order6
 6248      00000000 
 6249 0108 00000000 		.quad	jpeg_natural_order
 6249      00000000 
 6250 0110 00000000 		.quad	jpeg_natural_order
 6250      00000000 
 6251 0118 00000000 		.quad	jpeg_natural_order
 6251      00000000 
 6252 0120 00000000 		.quad	jpeg_natural_order
 6252      00000000 
 6253 0128 00000000 		.quad	jpeg_natural_order
 6253      00000000 
 6254 0130 00000000 		.quad	jpeg_natural_order
 6254      00000000 
 6255 0138 00000000 		.quad	jpeg_natural_order
 6255      00000000 
 6256 0140 00000000 		.quad	jpeg_natural_order
 6256      00000000 
 6257 0148 00000000 		.quad	jpeg_natural_order
 6257      00000000 
 6258 0150 00000000 		.quad	jpeg_natural_order
 6258      00000000 
 6259 0158 00000000 		.quad	jpeg_natural_order
 6259      00000000 
 6260 0160 00000000 		.quad	jpeg_natural_order
 6260      00000000 
 6261 0168 00000000 		.quad	jpeg_natural_order7
 6261      00000000 
 6262              		.text
 6263              	.Letext0:
 6264              		.section	.text.unlikely.get_sof
 6265              	.Letext_cold0:
 6266              		.file 3 "/usr/lib/gcc/x86_64-linux-gnu/5/include/stddef.h"
 6267              		.file 4 "/usr/include/x86_64-linux-gnu/bits/types.h"
 6268              		.file 5 "/usr/include/libio.h"
 6269              		.file 6 "fltk-1.3.4-1/jpeg/jmorecfg.h"
 6270              		.file 7 "fltk-1.3.4-1/jpeg/jpeglib.h"
 6271              		.file 8 "fltk-1.3.4-1/jpeg/jpegint.h"
 6272              		.file 9 "fltk-1.3.4-1/jpeg/jerror.h"
 6273              		.file 10 "/usr/include/stdio.h"
DEFINED SYMBOLS
                            *ABS*:0000000000000000 jdmarker.c
     /tmp/ccuHiLqB.s:13     .text.get_sof:0000000000000000 get_sof
     /tmp/ccuHiLqB.s:706    .text.examine_app0:0000000000000000 examine_app0
     /tmp/ccuHiLqB.s:992    .text.skip_variable:0000000000000000 skip_variable
     /tmp/ccuHiLqB.s:1160   .text.next_marker:0000000000000000 next_marker
     /tmp/ccuHiLqB.s:1356   .text.read_restart_marker:0000000000000000 read_restart_marker
     /tmp/ccuHiLqB.s:1459   .text.reset_marker_reader:0000000000000000 reset_marker_reader
     /tmp/ccuHiLqB.s:1495   .text.examine_app14:0000000000000000 examine_app14
     /tmp/ccuHiLqB.s:1623   .text.get_interesting_appn:0000000000000000 get_interesting_appn
     /tmp/ccuHiLqB.s:1902   .text.save_marker:0000000000000000 save_marker
     /tmp/ccuHiLqB.s:2317   .text.get_dht:0000000000000000 get_dht
     /tmp/ccuHiLqB.s:2871   .text.read_markers:0000000000000000 read_markers
     /tmp/ccuHiLqB.s:6215   .rodata.CSWTCH.107:0000000000000000 CSWTCH.107
     /tmp/ccuHiLqB.s:5754   .text.jpeg_resync_to_restart:0000000000000000 jpeg_resync_to_restart
     /tmp/ccuHiLqB.s:5944   .text.jinit_marker_reader:0000000000000000 jinit_marker_reader
     /tmp/ccuHiLqB.s:6034   .text.jpeg_save_markers:0000000000000000 jpeg_save_markers
     /tmp/ccuHiLqB.s:6167   .text.jpeg_set_marker_processor:0000000000000000 jpeg_set_marker_processor
                           .group:0000000000000000 wm4.0.cf9695abff4f49bdfe00dc4091904acd
                           .group:0000000000000000 wm4.stdcpredef.h.19.bf2bf6c5fb087dfb5ef2d2297c2795de
                           .group:0000000000000000 wm4.jconfig.h.10.247fc3ff67998f3074970b1373c70333
                           .group:0000000000000000 wm4.features.h.19.24da27e0a4d0d521fd057013d982b8b5
                           .group:0000000000000000 wm4.cdefs.h.19.56613e71f285ebad825b69b151170a81
                           .group:0000000000000000 wm4.wordsize.h.4.256e8fdbd37801980286acdbc40d0280
                           .group:0000000000000000 wm4.cdefs.h.432.619afd0aac7c4b439843706c1b28ddea
                           .group:0000000000000000 wm4.stubs64.h.10.918ceb5fa58268542bf143e4c1efbcf3
                           .group:0000000000000000 wm4.stdlib.h.27.59e2586c75bdbcb991b248ad7257b993
                           .group:0000000000000000 wm4.stddef.h.187.e1c83cba2098ce92b68f6311de19e6b1
                           .group:0000000000000000 wm4.waitflags.h.25.e401b8bcfee800b540b27abd7cc78de9
                           .group:0000000000000000 wm4.waitstatus.h.28.93f167f49d64e2b9b99f98d1162a93bf
                           .group:0000000000000000 wm4.endian.h.19.ff00c9c0f5e9f9a9719c5de76ace57b4
                           .group:0000000000000000 wm4.endian.h.41.24cced64aef71195a51d4daa8e4f4a95
                           .group:0000000000000000 wm4.types.h.89.468e2451361e3b92f048f6cad51690ff
                           .group:0000000000000000 wm4.typesizes.h.24.40eb69a6270178f15d1bf3d7b6635a8b
                           .group:0000000000000000 wm4.byteswap.h.38.11ee5fdc0f6cc53a16c505b9233cecef
                           .group:0000000000000000 wm4.endian.h.63.97272d7c64d5db8020003b32e9289502
                           .group:0000000000000000 wm4.waitstatus.h.99.408b6270fa6eb71377201a241ef15f79
                           .group:0000000000000000 wm4.stdlib.h.50.84aeca2ac6f37d40e1e9b3cef757ba2d
                           .group:0000000000000000 wm4.types.h.23.f6dcbaa72f8f71361acef09804d45a5e
                           .group:0000000000000000 wm4.time.h.53.beb46e650cd406cb917b6b96b45e640a
                           .group:0000000000000000 wm4.stddef.h.238.847b6907dabda77be90a9ab7ad789e2e
                           .group:0000000000000000 wm4.types.h.187.bd5a05039b505b3620e6973f1b2ffeb1
                           .group:0000000000000000 wm4.select.h.28.eb2f3debdbcffd1442ebddaebc4fb6ff
                           .group:0000000000000000 wm4.sigset.h.20.f36413b6d2364ad847d3db53fb03e683
                           .group:0000000000000000 wm4.select.h.36.f76c3b9e55c871743863013cc4cc14c9
                           .group:0000000000000000 wm4.time.h.66.e70ce69790c975f0efb369340c432e0b
                           .group:0000000000000000 wm4.time.h.25.ae5284cdff565e87a9198d819340325d
                           .group:0000000000000000 wm4.select.h.49.e9d2041e5035cc68ebd1a20f7dbc8514
                           .group:0000000000000000 wm4.select2.h.27.f95f2ab0ffee66dc1b6575014894b21a
                           .group:0000000000000000 wm4.sysmacros.h.20.8a0c33ff175cd9b434a86c0aaa36f0a2
                           .group:0000000000000000 wm4.types.h.229.67b3f66bd74b06b451caec392a72a945
                           .group:0000000000000000 wm4.pthreadtypes.h.25.6892b1493314fcf446bbc76e7362acba
                           .group:0000000000000000 wm4.alloca.h.19.edefa922a76c1cbaaf1e416903ba2d1c
                           .group:0000000000000000 wm4.alloca.h.29.156e12058824cc23d961c4d3b13031f6
                           .group:0000000000000000 wm4.stdio.h.26.4719156f1aea2bb9662fd6c582dc9a4c
                           .group:0000000000000000 wm4.stddef.h.238.04cc7214bceba497b20d15c10fd97511
                           .group:0000000000000000 wm4.stdio.h.36.2dd12c1fd035242ad5cfd0152a01be5a
                           .group:0000000000000000 wm4._G_config.h.5.b0f37d9e474454cf6e459063458db32f
                           .group:0000000000000000 wm4.wchar.h.80.eea3eba2d2a17aace9470a8e0d8218dc
                           .group:0000000000000000 wm4._G_config.h.46.5187c97b14fd664662cb32e6b94fc49e
                           .group:0000000000000000 wm4.libio.h.33.a775b9ecae273f33bc59931e9891e4ca
                           .group:0000000000000000 wm4.stdarg.h.34.3a23a216c0c293b3d2ea2e89281481e6
                           .group:0000000000000000 wm4.libio.h.51.dab170798ec1df48c625aea7c30e1b63
                           .group:0000000000000000 wm4.stdio.h.80.17b7dd1ca72d8a61987532cb1d80194a
                           .group:0000000000000000 wm4.stdio_lim.h.23.557290a6cddeba0587f574f29e3a5fb9
                           .group:0000000000000000 wm4.stdio.h.172.df21df34a7396d7da2e08f9b617d582f
                           .group:0000000000000000 wm4.stdio.h.26.cae64f7ada9bb8327a89dba6a5e93655
                           .group:0000000000000000 wm4.string.h.23.8394011d5995a16f15d67d04e84a1d69
                           .group:0000000000000000 wm4.string.h.24.1b0dc67418e7128d207285861439c2f8
                           .group:0000000000000000 wm4.string2.h.45.00535b99420fc3014c2da41d6645330d
                           .group:0000000000000000 wm4.string3.h.31.0c4b9301b754a2db05eaafef869657d2
                           .group:0000000000000000 wm4.jinclude.h.67.b19f941ec97c4845fa4609292c7e2db4
                           .group:0000000000000000 wm4.jmorecfg.h.33.3b4c5f9cc07b3737823b06caf24d5b05
                           .group:0000000000000000 wm4.jpeglib.h.40.4f111c27252a38df39328d65454e82f4
                           .group:0000000000000000 wm4.jpegint.h.26.5219ef5d4e4921371d38e77b6091fd20
                           .group:0000000000000000 wm4.jerror.h.25.1dbd8674e70ab5215bc0037320e5c2a2

UNDEFINED SYMBOLS
__stack_chk_fail
jpeg_alloc_huff_table
jpeg_natural_order
jpeg_alloc_quant_table
jpeg_natural_order2
jpeg_natural_order3
jpeg_natural_order4
jpeg_natural_order5
jpeg_natural_order6
jpeg_natural_order7
