   1              		.file	"jdmaster.c"
   2              		.text
   3              	.Ltext0:
   4              		.section	.text.prepare_for_output_pass,"ax",@progbits
   5              		.p2align 4
   7              	prepare_for_output_pass:
   8              	.LVL0:
   9              	.LFB55:
  10              		.file 1 "fltk-1.3.4-1/jpeg/jdmaster.c"
   1:fltk-1.3.4-1/jpeg/jdmaster.c **** /*
   2:fltk-1.3.4-1/jpeg/jdmaster.c ****  * jdmaster.c
   3:fltk-1.3.4-1/jpeg/jdmaster.c ****  *
   4:fltk-1.3.4-1/jpeg/jdmaster.c ****  * Copyright (C) 1991-1997, Thomas G. Lane.
   5:fltk-1.3.4-1/jpeg/jdmaster.c ****  * Modified 2002-2013 by Guido Vollbeding.
   6:fltk-1.3.4-1/jpeg/jdmaster.c ****  * This file is part of the Independent JPEG Group's software.
   7:fltk-1.3.4-1/jpeg/jdmaster.c ****  * For conditions of distribution and use, see the accompanying README file.
   8:fltk-1.3.4-1/jpeg/jdmaster.c ****  *
   9:fltk-1.3.4-1/jpeg/jdmaster.c ****  * This file contains master control logic for the JPEG decompressor.
  10:fltk-1.3.4-1/jpeg/jdmaster.c ****  * These routines are concerned with selecting the modules to be executed
  11:fltk-1.3.4-1/jpeg/jdmaster.c ****  * and with determining the number of passes and the work to be done in each
  12:fltk-1.3.4-1/jpeg/jdmaster.c ****  * pass.
  13:fltk-1.3.4-1/jpeg/jdmaster.c ****  */
  14:fltk-1.3.4-1/jpeg/jdmaster.c **** 
  15:fltk-1.3.4-1/jpeg/jdmaster.c **** #define JPEG_INTERNALS
  16:fltk-1.3.4-1/jpeg/jdmaster.c **** #include "jinclude.h"
  17:fltk-1.3.4-1/jpeg/jdmaster.c **** #include "jpeglib.h"
  18:fltk-1.3.4-1/jpeg/jdmaster.c **** 
  19:fltk-1.3.4-1/jpeg/jdmaster.c **** 
  20:fltk-1.3.4-1/jpeg/jdmaster.c **** /* Private state */
  21:fltk-1.3.4-1/jpeg/jdmaster.c **** 
  22:fltk-1.3.4-1/jpeg/jdmaster.c **** typedef struct {
  23:fltk-1.3.4-1/jpeg/jdmaster.c ****   struct jpeg_decomp_master pub; /* public fields */
  24:fltk-1.3.4-1/jpeg/jdmaster.c **** 
  25:fltk-1.3.4-1/jpeg/jdmaster.c ****   int pass_number;		/* # of passes completed */
  26:fltk-1.3.4-1/jpeg/jdmaster.c **** 
  27:fltk-1.3.4-1/jpeg/jdmaster.c ****   boolean using_merged_upsample; /* TRUE if using merged upsample/cconvert */
  28:fltk-1.3.4-1/jpeg/jdmaster.c **** 
  29:fltk-1.3.4-1/jpeg/jdmaster.c ****   /* Saved references to initialized quantizer modules,
  30:fltk-1.3.4-1/jpeg/jdmaster.c ****    * in case we need to switch modes.
  31:fltk-1.3.4-1/jpeg/jdmaster.c ****    */
  32:fltk-1.3.4-1/jpeg/jdmaster.c ****   struct jpeg_color_quantizer * quantizer_1pass;
  33:fltk-1.3.4-1/jpeg/jdmaster.c ****   struct jpeg_color_quantizer * quantizer_2pass;
  34:fltk-1.3.4-1/jpeg/jdmaster.c **** } my_decomp_master;
  35:fltk-1.3.4-1/jpeg/jdmaster.c **** 
  36:fltk-1.3.4-1/jpeg/jdmaster.c **** typedef my_decomp_master * my_master_ptr;
  37:fltk-1.3.4-1/jpeg/jdmaster.c **** 
  38:fltk-1.3.4-1/jpeg/jdmaster.c **** 
  39:fltk-1.3.4-1/jpeg/jdmaster.c **** /*
  40:fltk-1.3.4-1/jpeg/jdmaster.c ****  * Determine whether merged upsample/color conversion should be used.
  41:fltk-1.3.4-1/jpeg/jdmaster.c ****  * CRUCIAL: this must match the actual capabilities of jdmerge.c!
  42:fltk-1.3.4-1/jpeg/jdmaster.c ****  */
  43:fltk-1.3.4-1/jpeg/jdmaster.c **** 
  44:fltk-1.3.4-1/jpeg/jdmaster.c **** LOCAL(boolean)
  45:fltk-1.3.4-1/jpeg/jdmaster.c **** use_merged_upsample (j_decompress_ptr cinfo)
  46:fltk-1.3.4-1/jpeg/jdmaster.c **** {
  47:fltk-1.3.4-1/jpeg/jdmaster.c **** #ifdef UPSAMPLE_MERGING_SUPPORTED
  48:fltk-1.3.4-1/jpeg/jdmaster.c ****   /* Merging is the equivalent of plain box-filter upsampling */
  49:fltk-1.3.4-1/jpeg/jdmaster.c ****   if (cinfo->do_fancy_upsampling || cinfo->CCIR601_sampling)
  50:fltk-1.3.4-1/jpeg/jdmaster.c ****     return FALSE;
  51:fltk-1.3.4-1/jpeg/jdmaster.c ****   /* jdmerge.c only supports YCC=>RGB color conversion */
  52:fltk-1.3.4-1/jpeg/jdmaster.c ****   if (cinfo->jpeg_color_space != JCS_YCbCr || cinfo->num_components != 3 ||
  53:fltk-1.3.4-1/jpeg/jdmaster.c ****       cinfo->out_color_space != JCS_RGB ||
  54:fltk-1.3.4-1/jpeg/jdmaster.c ****       cinfo->out_color_components != RGB_PIXELSIZE ||
  55:fltk-1.3.4-1/jpeg/jdmaster.c ****       cinfo->color_transform)
  56:fltk-1.3.4-1/jpeg/jdmaster.c ****     return FALSE;
  57:fltk-1.3.4-1/jpeg/jdmaster.c ****   /* and it only handles 2h1v or 2h2v sampling ratios */
  58:fltk-1.3.4-1/jpeg/jdmaster.c ****   if (cinfo->comp_info[0].h_samp_factor != 2 ||
  59:fltk-1.3.4-1/jpeg/jdmaster.c ****       cinfo->comp_info[1].h_samp_factor != 1 ||
  60:fltk-1.3.4-1/jpeg/jdmaster.c ****       cinfo->comp_info[2].h_samp_factor != 1 ||
  61:fltk-1.3.4-1/jpeg/jdmaster.c ****       cinfo->comp_info[0].v_samp_factor >  2 ||
  62:fltk-1.3.4-1/jpeg/jdmaster.c ****       cinfo->comp_info[1].v_samp_factor != 1 ||
  63:fltk-1.3.4-1/jpeg/jdmaster.c ****       cinfo->comp_info[2].v_samp_factor != 1)
  64:fltk-1.3.4-1/jpeg/jdmaster.c ****     return FALSE;
  65:fltk-1.3.4-1/jpeg/jdmaster.c ****   /* furthermore, it doesn't work if we've scaled the IDCTs differently */
  66:fltk-1.3.4-1/jpeg/jdmaster.c ****   if (cinfo->comp_info[0].DCT_h_scaled_size != cinfo->min_DCT_h_scaled_size ||
  67:fltk-1.3.4-1/jpeg/jdmaster.c ****       cinfo->comp_info[1].DCT_h_scaled_size != cinfo->min_DCT_h_scaled_size ||
  68:fltk-1.3.4-1/jpeg/jdmaster.c ****       cinfo->comp_info[2].DCT_h_scaled_size != cinfo->min_DCT_h_scaled_size ||
  69:fltk-1.3.4-1/jpeg/jdmaster.c ****       cinfo->comp_info[0].DCT_v_scaled_size != cinfo->min_DCT_v_scaled_size ||
  70:fltk-1.3.4-1/jpeg/jdmaster.c ****       cinfo->comp_info[1].DCT_v_scaled_size != cinfo->min_DCT_v_scaled_size ||
  71:fltk-1.3.4-1/jpeg/jdmaster.c ****       cinfo->comp_info[2].DCT_v_scaled_size != cinfo->min_DCT_v_scaled_size)
  72:fltk-1.3.4-1/jpeg/jdmaster.c ****     return FALSE;
  73:fltk-1.3.4-1/jpeg/jdmaster.c ****   /* ??? also need to test for upsample-time rescaling, when & if supported */
  74:fltk-1.3.4-1/jpeg/jdmaster.c ****   return TRUE;			/* by golly, it'll work... */
  75:fltk-1.3.4-1/jpeg/jdmaster.c **** #else
  76:fltk-1.3.4-1/jpeg/jdmaster.c ****   return FALSE;
  77:fltk-1.3.4-1/jpeg/jdmaster.c **** #endif
  78:fltk-1.3.4-1/jpeg/jdmaster.c **** }
  79:fltk-1.3.4-1/jpeg/jdmaster.c **** 
  80:fltk-1.3.4-1/jpeg/jdmaster.c **** 
  81:fltk-1.3.4-1/jpeg/jdmaster.c **** /*
  82:fltk-1.3.4-1/jpeg/jdmaster.c ****  * Compute output image dimensions and related values.
  83:fltk-1.3.4-1/jpeg/jdmaster.c ****  * NOTE: this is exported for possible use by application.
  84:fltk-1.3.4-1/jpeg/jdmaster.c ****  * Hence it mustn't do anything that can't be done twice.
  85:fltk-1.3.4-1/jpeg/jdmaster.c ****  * Also note that it may be called before the master module is initialized!
  86:fltk-1.3.4-1/jpeg/jdmaster.c ****  */
  87:fltk-1.3.4-1/jpeg/jdmaster.c **** 
  88:fltk-1.3.4-1/jpeg/jdmaster.c **** GLOBAL(void)
  89:fltk-1.3.4-1/jpeg/jdmaster.c **** jpeg_calc_output_dimensions (j_decompress_ptr cinfo)
  90:fltk-1.3.4-1/jpeg/jdmaster.c **** /* Do computations that are needed before master selection phase.
  91:fltk-1.3.4-1/jpeg/jdmaster.c ****  * This function is used for full decompression.
  92:fltk-1.3.4-1/jpeg/jdmaster.c ****  */
  93:fltk-1.3.4-1/jpeg/jdmaster.c **** {
  94:fltk-1.3.4-1/jpeg/jdmaster.c **** #ifdef IDCT_SCALING_SUPPORTED
  95:fltk-1.3.4-1/jpeg/jdmaster.c ****   int ci;
  96:fltk-1.3.4-1/jpeg/jdmaster.c ****   jpeg_component_info *compptr;
  97:fltk-1.3.4-1/jpeg/jdmaster.c **** #endif
  98:fltk-1.3.4-1/jpeg/jdmaster.c **** 
  99:fltk-1.3.4-1/jpeg/jdmaster.c ****   /* Prevent application from calling me at wrong times */
 100:fltk-1.3.4-1/jpeg/jdmaster.c ****   if (cinfo->global_state != DSTATE_READY)
 101:fltk-1.3.4-1/jpeg/jdmaster.c ****     ERREXIT1(cinfo, JERR_BAD_STATE, cinfo->global_state);
 102:fltk-1.3.4-1/jpeg/jdmaster.c **** 
 103:fltk-1.3.4-1/jpeg/jdmaster.c ****   /* Compute core output image dimensions and DCT scaling choices. */
 104:fltk-1.3.4-1/jpeg/jdmaster.c ****   jpeg_core_output_dimensions(cinfo);
 105:fltk-1.3.4-1/jpeg/jdmaster.c **** 
 106:fltk-1.3.4-1/jpeg/jdmaster.c **** #ifdef IDCT_SCALING_SUPPORTED
 107:fltk-1.3.4-1/jpeg/jdmaster.c **** 
 108:fltk-1.3.4-1/jpeg/jdmaster.c ****   /* In selecting the actual DCT scaling for each component, we try to
 109:fltk-1.3.4-1/jpeg/jdmaster.c ****    * scale up the chroma components via IDCT scaling rather than upsampling.
 110:fltk-1.3.4-1/jpeg/jdmaster.c ****    * This saves time if the upsampler gets to use 1:1 scaling.
 111:fltk-1.3.4-1/jpeg/jdmaster.c ****    * Note this code adapts subsampling ratios which are powers of 2.
 112:fltk-1.3.4-1/jpeg/jdmaster.c ****    */
 113:fltk-1.3.4-1/jpeg/jdmaster.c ****   for (ci = 0, compptr = cinfo->comp_info; ci < cinfo->num_components;
 114:fltk-1.3.4-1/jpeg/jdmaster.c ****        ci++, compptr++) {
 115:fltk-1.3.4-1/jpeg/jdmaster.c ****     int ssize = 1;
 116:fltk-1.3.4-1/jpeg/jdmaster.c ****     while (cinfo->min_DCT_h_scaled_size * ssize <=
 117:fltk-1.3.4-1/jpeg/jdmaster.c **** 	   (cinfo->do_fancy_upsampling ? DCTSIZE : DCTSIZE / 2) &&
 118:fltk-1.3.4-1/jpeg/jdmaster.c **** 	   (cinfo->max_h_samp_factor % (compptr->h_samp_factor * ssize * 2)) == 0) {
 119:fltk-1.3.4-1/jpeg/jdmaster.c ****       ssize = ssize * 2;
 120:fltk-1.3.4-1/jpeg/jdmaster.c ****     }
 121:fltk-1.3.4-1/jpeg/jdmaster.c ****     compptr->DCT_h_scaled_size = cinfo->min_DCT_h_scaled_size * ssize;
 122:fltk-1.3.4-1/jpeg/jdmaster.c ****     ssize = 1;
 123:fltk-1.3.4-1/jpeg/jdmaster.c ****     while (cinfo->min_DCT_v_scaled_size * ssize <=
 124:fltk-1.3.4-1/jpeg/jdmaster.c **** 	   (cinfo->do_fancy_upsampling ? DCTSIZE : DCTSIZE / 2) &&
 125:fltk-1.3.4-1/jpeg/jdmaster.c **** 	   (cinfo->max_v_samp_factor % (compptr->v_samp_factor * ssize * 2)) == 0) {
 126:fltk-1.3.4-1/jpeg/jdmaster.c ****       ssize = ssize * 2;
 127:fltk-1.3.4-1/jpeg/jdmaster.c ****     }
 128:fltk-1.3.4-1/jpeg/jdmaster.c ****     compptr->DCT_v_scaled_size = cinfo->min_DCT_v_scaled_size * ssize;
 129:fltk-1.3.4-1/jpeg/jdmaster.c **** 
 130:fltk-1.3.4-1/jpeg/jdmaster.c ****     /* We don't support IDCT ratios larger than 2. */
 131:fltk-1.3.4-1/jpeg/jdmaster.c ****     if (compptr->DCT_h_scaled_size > compptr->DCT_v_scaled_size * 2)
 132:fltk-1.3.4-1/jpeg/jdmaster.c **** 	compptr->DCT_h_scaled_size = compptr->DCT_v_scaled_size * 2;
 133:fltk-1.3.4-1/jpeg/jdmaster.c ****     else if (compptr->DCT_v_scaled_size > compptr->DCT_h_scaled_size * 2)
 134:fltk-1.3.4-1/jpeg/jdmaster.c **** 	compptr->DCT_v_scaled_size = compptr->DCT_h_scaled_size * 2;
 135:fltk-1.3.4-1/jpeg/jdmaster.c ****   }
 136:fltk-1.3.4-1/jpeg/jdmaster.c **** 
 137:fltk-1.3.4-1/jpeg/jdmaster.c ****   /* Recompute downsampled dimensions of components;
 138:fltk-1.3.4-1/jpeg/jdmaster.c ****    * application needs to know these if using raw downsampled data.
 139:fltk-1.3.4-1/jpeg/jdmaster.c ****    */
 140:fltk-1.3.4-1/jpeg/jdmaster.c ****   for (ci = 0, compptr = cinfo->comp_info; ci < cinfo->num_components;
 141:fltk-1.3.4-1/jpeg/jdmaster.c ****        ci++, compptr++) {
 142:fltk-1.3.4-1/jpeg/jdmaster.c ****     /* Size in samples, after IDCT scaling */
 143:fltk-1.3.4-1/jpeg/jdmaster.c ****     compptr->downsampled_width = (JDIMENSION)
 144:fltk-1.3.4-1/jpeg/jdmaster.c ****       jdiv_round_up((long) cinfo->image_width *
 145:fltk-1.3.4-1/jpeg/jdmaster.c **** 		    (long) (compptr->h_samp_factor * compptr->DCT_h_scaled_size),
 146:fltk-1.3.4-1/jpeg/jdmaster.c **** 		    (long) (cinfo->max_h_samp_factor * cinfo->block_size));
 147:fltk-1.3.4-1/jpeg/jdmaster.c ****     compptr->downsampled_height = (JDIMENSION)
 148:fltk-1.3.4-1/jpeg/jdmaster.c ****       jdiv_round_up((long) cinfo->image_height *
 149:fltk-1.3.4-1/jpeg/jdmaster.c **** 		    (long) (compptr->v_samp_factor * compptr->DCT_v_scaled_size),
 150:fltk-1.3.4-1/jpeg/jdmaster.c **** 		    (long) (cinfo->max_v_samp_factor * cinfo->block_size));
 151:fltk-1.3.4-1/jpeg/jdmaster.c ****   }
 152:fltk-1.3.4-1/jpeg/jdmaster.c **** 
 153:fltk-1.3.4-1/jpeg/jdmaster.c **** #endif /* IDCT_SCALING_SUPPORTED */
 154:fltk-1.3.4-1/jpeg/jdmaster.c **** 
 155:fltk-1.3.4-1/jpeg/jdmaster.c ****   /* Report number of components in selected colorspace. */
 156:fltk-1.3.4-1/jpeg/jdmaster.c ****   /* Probably this should be in the color conversion module... */
 157:fltk-1.3.4-1/jpeg/jdmaster.c ****   switch (cinfo->out_color_space) {
 158:fltk-1.3.4-1/jpeg/jdmaster.c ****   case JCS_GRAYSCALE:
 159:fltk-1.3.4-1/jpeg/jdmaster.c ****     cinfo->out_color_components = 1;
 160:fltk-1.3.4-1/jpeg/jdmaster.c ****     break;
 161:fltk-1.3.4-1/jpeg/jdmaster.c ****   case JCS_RGB:
 162:fltk-1.3.4-1/jpeg/jdmaster.c ****   case JCS_BG_RGB:
 163:fltk-1.3.4-1/jpeg/jdmaster.c ****     cinfo->out_color_components = RGB_PIXELSIZE;
 164:fltk-1.3.4-1/jpeg/jdmaster.c ****     break;
 165:fltk-1.3.4-1/jpeg/jdmaster.c ****   case JCS_YCbCr:
 166:fltk-1.3.4-1/jpeg/jdmaster.c ****   case JCS_BG_YCC:
 167:fltk-1.3.4-1/jpeg/jdmaster.c ****     cinfo->out_color_components = 3;
 168:fltk-1.3.4-1/jpeg/jdmaster.c ****     break;
 169:fltk-1.3.4-1/jpeg/jdmaster.c ****   case JCS_CMYK:
 170:fltk-1.3.4-1/jpeg/jdmaster.c ****   case JCS_YCCK:
 171:fltk-1.3.4-1/jpeg/jdmaster.c ****     cinfo->out_color_components = 4;
 172:fltk-1.3.4-1/jpeg/jdmaster.c ****     break;
 173:fltk-1.3.4-1/jpeg/jdmaster.c ****   default:			/* else must be same colorspace as in file */
 174:fltk-1.3.4-1/jpeg/jdmaster.c ****     cinfo->out_color_components = cinfo->num_components;
 175:fltk-1.3.4-1/jpeg/jdmaster.c ****     break;
 176:fltk-1.3.4-1/jpeg/jdmaster.c ****   }
 177:fltk-1.3.4-1/jpeg/jdmaster.c ****   cinfo->output_components = (cinfo->quantize_colors ? 1 :
 178:fltk-1.3.4-1/jpeg/jdmaster.c **** 			      cinfo->out_color_components);
 179:fltk-1.3.4-1/jpeg/jdmaster.c **** 
 180:fltk-1.3.4-1/jpeg/jdmaster.c ****   /* See if upsampler will want to emit more than one row at a time */
 181:fltk-1.3.4-1/jpeg/jdmaster.c ****   if (use_merged_upsample(cinfo))
 182:fltk-1.3.4-1/jpeg/jdmaster.c ****     cinfo->rec_outbuf_height = cinfo->max_v_samp_factor;
 183:fltk-1.3.4-1/jpeg/jdmaster.c ****   else
 184:fltk-1.3.4-1/jpeg/jdmaster.c ****     cinfo->rec_outbuf_height = 1;
 185:fltk-1.3.4-1/jpeg/jdmaster.c **** }
 186:fltk-1.3.4-1/jpeg/jdmaster.c **** 
 187:fltk-1.3.4-1/jpeg/jdmaster.c **** 
 188:fltk-1.3.4-1/jpeg/jdmaster.c **** /*
 189:fltk-1.3.4-1/jpeg/jdmaster.c ****  * Several decompression processes need to range-limit values to the range
 190:fltk-1.3.4-1/jpeg/jdmaster.c ****  * 0..MAXJSAMPLE; the input value may fall somewhat outside this range
 191:fltk-1.3.4-1/jpeg/jdmaster.c ****  * due to noise introduced by quantization, roundoff error, etc.  These
 192:fltk-1.3.4-1/jpeg/jdmaster.c ****  * processes are inner loops and need to be as fast as possible.  On most
 193:fltk-1.3.4-1/jpeg/jdmaster.c ****  * machines, particularly CPUs with pipelines or instruction prefetch,
 194:fltk-1.3.4-1/jpeg/jdmaster.c ****  * a (subscript-check-less) C table lookup
 195:fltk-1.3.4-1/jpeg/jdmaster.c ****  *		x = sample_range_limit[x];
 196:fltk-1.3.4-1/jpeg/jdmaster.c ****  * is faster than explicit tests
 197:fltk-1.3.4-1/jpeg/jdmaster.c ****  *		if (x < 0)  x = 0;
 198:fltk-1.3.4-1/jpeg/jdmaster.c ****  *		else if (x > MAXJSAMPLE)  x = MAXJSAMPLE;
 199:fltk-1.3.4-1/jpeg/jdmaster.c ****  * These processes all use a common table prepared by the routine below.
 200:fltk-1.3.4-1/jpeg/jdmaster.c ****  *
 201:fltk-1.3.4-1/jpeg/jdmaster.c ****  * For most steps we can mathematically guarantee that the initial value
 202:fltk-1.3.4-1/jpeg/jdmaster.c ****  * of x is within MAXJSAMPLE+1 of the legal range, so a table running from
 203:fltk-1.3.4-1/jpeg/jdmaster.c ****  * -(MAXJSAMPLE+1) to 2*MAXJSAMPLE+1 is sufficient.  But for the initial
 204:fltk-1.3.4-1/jpeg/jdmaster.c ****  * limiting step (just after the IDCT), a wildly out-of-range value is 
 205:fltk-1.3.4-1/jpeg/jdmaster.c ****  * possible if the input data is corrupt.  To avoid any chance of indexing
 206:fltk-1.3.4-1/jpeg/jdmaster.c ****  * off the end of memory and getting a bad-pointer trap, we perform the
 207:fltk-1.3.4-1/jpeg/jdmaster.c ****  * post-IDCT limiting thus:
 208:fltk-1.3.4-1/jpeg/jdmaster.c ****  *		x = range_limit[x & MASK];
 209:fltk-1.3.4-1/jpeg/jdmaster.c ****  * where MASK is 2 bits wider than legal sample data, ie 10 bits for 8-bit
 210:fltk-1.3.4-1/jpeg/jdmaster.c ****  * samples.  Under normal circumstances this is more than enough range and
 211:fltk-1.3.4-1/jpeg/jdmaster.c ****  * a correct output will be generated; with bogus input data the mask will
 212:fltk-1.3.4-1/jpeg/jdmaster.c ****  * cause wraparound, and we will safely generate a bogus-but-in-range output.
 213:fltk-1.3.4-1/jpeg/jdmaster.c ****  * For the post-IDCT step, we want to convert the data from signed to unsigned
 214:fltk-1.3.4-1/jpeg/jdmaster.c ****  * representation by adding CENTERJSAMPLE at the same time that we limit it.
 215:fltk-1.3.4-1/jpeg/jdmaster.c ****  * So the post-IDCT limiting table ends up looking like this:
 216:fltk-1.3.4-1/jpeg/jdmaster.c ****  *   CENTERJSAMPLE,CENTERJSAMPLE+1,...,MAXJSAMPLE,
 217:fltk-1.3.4-1/jpeg/jdmaster.c ****  *   MAXJSAMPLE (repeat 2*(MAXJSAMPLE+1)-CENTERJSAMPLE times),
 218:fltk-1.3.4-1/jpeg/jdmaster.c ****  *   0          (repeat 2*(MAXJSAMPLE+1)-CENTERJSAMPLE times),
 219:fltk-1.3.4-1/jpeg/jdmaster.c ****  *   0,1,...,CENTERJSAMPLE-1
 220:fltk-1.3.4-1/jpeg/jdmaster.c ****  * Negative inputs select values from the upper half of the table after
 221:fltk-1.3.4-1/jpeg/jdmaster.c ****  * masking.
 222:fltk-1.3.4-1/jpeg/jdmaster.c ****  *
 223:fltk-1.3.4-1/jpeg/jdmaster.c ****  * We can save some space by overlapping the start of the post-IDCT table
 224:fltk-1.3.4-1/jpeg/jdmaster.c ****  * with the simpler range limiting table.  The post-IDCT table begins at
 225:fltk-1.3.4-1/jpeg/jdmaster.c ****  * sample_range_limit + CENTERJSAMPLE.
 226:fltk-1.3.4-1/jpeg/jdmaster.c ****  *
 227:fltk-1.3.4-1/jpeg/jdmaster.c ****  * Note that the table is allocated in near data space on PCs; it's small
 228:fltk-1.3.4-1/jpeg/jdmaster.c ****  * enough and used often enough to justify this.
 229:fltk-1.3.4-1/jpeg/jdmaster.c ****  */
 230:fltk-1.3.4-1/jpeg/jdmaster.c **** 
 231:fltk-1.3.4-1/jpeg/jdmaster.c **** LOCAL(void)
 232:fltk-1.3.4-1/jpeg/jdmaster.c **** prepare_range_limit_table (j_decompress_ptr cinfo)
 233:fltk-1.3.4-1/jpeg/jdmaster.c **** /* Allocate and fill in the sample_range_limit table */
 234:fltk-1.3.4-1/jpeg/jdmaster.c **** {
 235:fltk-1.3.4-1/jpeg/jdmaster.c ****   JSAMPLE * table;
 236:fltk-1.3.4-1/jpeg/jdmaster.c ****   int i;
 237:fltk-1.3.4-1/jpeg/jdmaster.c **** 
 238:fltk-1.3.4-1/jpeg/jdmaster.c ****   table = (JSAMPLE *)
 239:fltk-1.3.4-1/jpeg/jdmaster.c ****     (*cinfo->mem->alloc_small) ((j_common_ptr) cinfo, JPOOL_IMAGE,
 240:fltk-1.3.4-1/jpeg/jdmaster.c **** 		(5 * (MAXJSAMPLE+1) + CENTERJSAMPLE) * SIZEOF(JSAMPLE));
 241:fltk-1.3.4-1/jpeg/jdmaster.c ****   table += (MAXJSAMPLE+1);	/* allow negative subscripts of simple table */
 242:fltk-1.3.4-1/jpeg/jdmaster.c ****   cinfo->sample_range_limit = table;
 243:fltk-1.3.4-1/jpeg/jdmaster.c ****   /* First segment of "simple" table: limit[x] = 0 for x < 0 */
 244:fltk-1.3.4-1/jpeg/jdmaster.c ****   MEMZERO(table - (MAXJSAMPLE+1), (MAXJSAMPLE+1) * SIZEOF(JSAMPLE));
 245:fltk-1.3.4-1/jpeg/jdmaster.c ****   /* Main part of "simple" table: limit[x] = x */
 246:fltk-1.3.4-1/jpeg/jdmaster.c ****   for (i = 0; i <= MAXJSAMPLE; i++)
 247:fltk-1.3.4-1/jpeg/jdmaster.c ****     table[i] = (JSAMPLE) i;
 248:fltk-1.3.4-1/jpeg/jdmaster.c ****   table += CENTERJSAMPLE;	/* Point to where post-IDCT table starts */
 249:fltk-1.3.4-1/jpeg/jdmaster.c ****   /* End of simple table, rest of first half of post-IDCT table */
 250:fltk-1.3.4-1/jpeg/jdmaster.c ****   for (i = CENTERJSAMPLE; i < 2*(MAXJSAMPLE+1); i++)
 251:fltk-1.3.4-1/jpeg/jdmaster.c ****     table[i] = MAXJSAMPLE;
 252:fltk-1.3.4-1/jpeg/jdmaster.c ****   /* Second half of post-IDCT table */
 253:fltk-1.3.4-1/jpeg/jdmaster.c ****   MEMZERO(table + (2 * (MAXJSAMPLE+1)),
 254:fltk-1.3.4-1/jpeg/jdmaster.c **** 	  (2 * (MAXJSAMPLE+1) - CENTERJSAMPLE) * SIZEOF(JSAMPLE));
 255:fltk-1.3.4-1/jpeg/jdmaster.c ****   MEMCOPY(table + (4 * (MAXJSAMPLE+1) - CENTERJSAMPLE),
 256:fltk-1.3.4-1/jpeg/jdmaster.c **** 	  cinfo->sample_range_limit, CENTERJSAMPLE * SIZEOF(JSAMPLE));
 257:fltk-1.3.4-1/jpeg/jdmaster.c **** }
 258:fltk-1.3.4-1/jpeg/jdmaster.c **** 
 259:fltk-1.3.4-1/jpeg/jdmaster.c **** 
 260:fltk-1.3.4-1/jpeg/jdmaster.c **** /*
 261:fltk-1.3.4-1/jpeg/jdmaster.c ****  * Master selection of decompression modules.
 262:fltk-1.3.4-1/jpeg/jdmaster.c ****  * This is done once at jpeg_start_decompress time.  We determine
 263:fltk-1.3.4-1/jpeg/jdmaster.c ****  * which modules will be used and give them appropriate initialization calls.
 264:fltk-1.3.4-1/jpeg/jdmaster.c ****  * We also initialize the decompressor input side to begin consuming data.
 265:fltk-1.3.4-1/jpeg/jdmaster.c ****  *
 266:fltk-1.3.4-1/jpeg/jdmaster.c ****  * Since jpeg_read_header has finished, we know what is in the SOF
 267:fltk-1.3.4-1/jpeg/jdmaster.c ****  * and (first) SOS markers.  We also have all the application parameter
 268:fltk-1.3.4-1/jpeg/jdmaster.c ****  * settings.
 269:fltk-1.3.4-1/jpeg/jdmaster.c ****  */
 270:fltk-1.3.4-1/jpeg/jdmaster.c **** 
 271:fltk-1.3.4-1/jpeg/jdmaster.c **** LOCAL(void)
 272:fltk-1.3.4-1/jpeg/jdmaster.c **** master_selection (j_decompress_ptr cinfo)
 273:fltk-1.3.4-1/jpeg/jdmaster.c **** {
 274:fltk-1.3.4-1/jpeg/jdmaster.c ****   my_master_ptr master = (my_master_ptr) cinfo->master;
 275:fltk-1.3.4-1/jpeg/jdmaster.c ****   boolean use_c_buffer;
 276:fltk-1.3.4-1/jpeg/jdmaster.c ****   long samplesperrow;
 277:fltk-1.3.4-1/jpeg/jdmaster.c ****   JDIMENSION jd_samplesperrow;
 278:fltk-1.3.4-1/jpeg/jdmaster.c **** 
 279:fltk-1.3.4-1/jpeg/jdmaster.c ****   /* For now, precision must match compiled-in value... */
 280:fltk-1.3.4-1/jpeg/jdmaster.c ****   if (cinfo->data_precision != BITS_IN_JSAMPLE)
 281:fltk-1.3.4-1/jpeg/jdmaster.c ****     ERREXIT1(cinfo, JERR_BAD_PRECISION, cinfo->data_precision);
 282:fltk-1.3.4-1/jpeg/jdmaster.c **** 
 283:fltk-1.3.4-1/jpeg/jdmaster.c ****   /* Initialize dimensions and other stuff */
 284:fltk-1.3.4-1/jpeg/jdmaster.c ****   jpeg_calc_output_dimensions(cinfo);
 285:fltk-1.3.4-1/jpeg/jdmaster.c ****   prepare_range_limit_table(cinfo);
 286:fltk-1.3.4-1/jpeg/jdmaster.c **** 
 287:fltk-1.3.4-1/jpeg/jdmaster.c ****   /* Sanity check on image dimensions */
 288:fltk-1.3.4-1/jpeg/jdmaster.c ****   if (cinfo->output_height <= 0 || cinfo->output_width <= 0 ||
 289:fltk-1.3.4-1/jpeg/jdmaster.c ****       cinfo->out_color_components <= 0)
 290:fltk-1.3.4-1/jpeg/jdmaster.c ****     ERREXIT(cinfo, JERR_EMPTY_IMAGE);
 291:fltk-1.3.4-1/jpeg/jdmaster.c **** 
 292:fltk-1.3.4-1/jpeg/jdmaster.c ****   /* Width of an output scanline must be representable as JDIMENSION. */
 293:fltk-1.3.4-1/jpeg/jdmaster.c ****   samplesperrow = (long) cinfo->output_width * (long) cinfo->out_color_components;
 294:fltk-1.3.4-1/jpeg/jdmaster.c ****   jd_samplesperrow = (JDIMENSION) samplesperrow;
 295:fltk-1.3.4-1/jpeg/jdmaster.c ****   if ((long) jd_samplesperrow != samplesperrow)
 296:fltk-1.3.4-1/jpeg/jdmaster.c ****     ERREXIT(cinfo, JERR_WIDTH_OVERFLOW);
 297:fltk-1.3.4-1/jpeg/jdmaster.c **** 
 298:fltk-1.3.4-1/jpeg/jdmaster.c ****   /* Initialize my private state */
 299:fltk-1.3.4-1/jpeg/jdmaster.c ****   master->pass_number = 0;
 300:fltk-1.3.4-1/jpeg/jdmaster.c ****   master->using_merged_upsample = use_merged_upsample(cinfo);
 301:fltk-1.3.4-1/jpeg/jdmaster.c **** 
 302:fltk-1.3.4-1/jpeg/jdmaster.c ****   /* Color quantizer selection */
 303:fltk-1.3.4-1/jpeg/jdmaster.c ****   master->quantizer_1pass = NULL;
 304:fltk-1.3.4-1/jpeg/jdmaster.c ****   master->quantizer_2pass = NULL;
 305:fltk-1.3.4-1/jpeg/jdmaster.c ****   /* No mode changes if not using buffered-image mode. */
 306:fltk-1.3.4-1/jpeg/jdmaster.c ****   if (! cinfo->quantize_colors || ! cinfo->buffered_image) {
 307:fltk-1.3.4-1/jpeg/jdmaster.c ****     cinfo->enable_1pass_quant = FALSE;
 308:fltk-1.3.4-1/jpeg/jdmaster.c ****     cinfo->enable_external_quant = FALSE;
 309:fltk-1.3.4-1/jpeg/jdmaster.c ****     cinfo->enable_2pass_quant = FALSE;
 310:fltk-1.3.4-1/jpeg/jdmaster.c ****   }
 311:fltk-1.3.4-1/jpeg/jdmaster.c ****   if (cinfo->quantize_colors) {
 312:fltk-1.3.4-1/jpeg/jdmaster.c ****     if (cinfo->raw_data_out)
 313:fltk-1.3.4-1/jpeg/jdmaster.c ****       ERREXIT(cinfo, JERR_NOTIMPL);
 314:fltk-1.3.4-1/jpeg/jdmaster.c ****     /* 2-pass quantizer only works in 3-component color space. */
 315:fltk-1.3.4-1/jpeg/jdmaster.c ****     if (cinfo->out_color_components != 3) {
 316:fltk-1.3.4-1/jpeg/jdmaster.c ****       cinfo->enable_1pass_quant = TRUE;
 317:fltk-1.3.4-1/jpeg/jdmaster.c ****       cinfo->enable_external_quant = FALSE;
 318:fltk-1.3.4-1/jpeg/jdmaster.c ****       cinfo->enable_2pass_quant = FALSE;
 319:fltk-1.3.4-1/jpeg/jdmaster.c ****       cinfo->colormap = NULL;
 320:fltk-1.3.4-1/jpeg/jdmaster.c ****     } else if (cinfo->colormap != NULL) {
 321:fltk-1.3.4-1/jpeg/jdmaster.c ****       cinfo->enable_external_quant = TRUE;
 322:fltk-1.3.4-1/jpeg/jdmaster.c ****     } else if (cinfo->two_pass_quantize) {
 323:fltk-1.3.4-1/jpeg/jdmaster.c ****       cinfo->enable_2pass_quant = TRUE;
 324:fltk-1.3.4-1/jpeg/jdmaster.c ****     } else {
 325:fltk-1.3.4-1/jpeg/jdmaster.c ****       cinfo->enable_1pass_quant = TRUE;
 326:fltk-1.3.4-1/jpeg/jdmaster.c ****     }
 327:fltk-1.3.4-1/jpeg/jdmaster.c **** 
 328:fltk-1.3.4-1/jpeg/jdmaster.c ****     if (cinfo->enable_1pass_quant) {
 329:fltk-1.3.4-1/jpeg/jdmaster.c **** #ifdef QUANT_1PASS_SUPPORTED
 330:fltk-1.3.4-1/jpeg/jdmaster.c ****       jinit_1pass_quantizer(cinfo);
 331:fltk-1.3.4-1/jpeg/jdmaster.c ****       master->quantizer_1pass = cinfo->cquantize;
 332:fltk-1.3.4-1/jpeg/jdmaster.c **** #else
 333:fltk-1.3.4-1/jpeg/jdmaster.c ****       ERREXIT(cinfo, JERR_NOT_COMPILED);
 334:fltk-1.3.4-1/jpeg/jdmaster.c **** #endif
 335:fltk-1.3.4-1/jpeg/jdmaster.c ****     }
 336:fltk-1.3.4-1/jpeg/jdmaster.c **** 
 337:fltk-1.3.4-1/jpeg/jdmaster.c ****     /* We use the 2-pass code to map to external colormaps. */
 338:fltk-1.3.4-1/jpeg/jdmaster.c ****     if (cinfo->enable_2pass_quant || cinfo->enable_external_quant) {
 339:fltk-1.3.4-1/jpeg/jdmaster.c **** #ifdef QUANT_2PASS_SUPPORTED
 340:fltk-1.3.4-1/jpeg/jdmaster.c ****       jinit_2pass_quantizer(cinfo);
 341:fltk-1.3.4-1/jpeg/jdmaster.c ****       master->quantizer_2pass = cinfo->cquantize;
 342:fltk-1.3.4-1/jpeg/jdmaster.c **** #else
 343:fltk-1.3.4-1/jpeg/jdmaster.c ****       ERREXIT(cinfo, JERR_NOT_COMPILED);
 344:fltk-1.3.4-1/jpeg/jdmaster.c **** #endif
 345:fltk-1.3.4-1/jpeg/jdmaster.c ****     }
 346:fltk-1.3.4-1/jpeg/jdmaster.c ****     /* If both quantizers are initialized, the 2-pass one is left active;
 347:fltk-1.3.4-1/jpeg/jdmaster.c ****      * this is necessary for starting with quantization to an external map.
 348:fltk-1.3.4-1/jpeg/jdmaster.c ****      */
 349:fltk-1.3.4-1/jpeg/jdmaster.c ****   }
 350:fltk-1.3.4-1/jpeg/jdmaster.c **** 
 351:fltk-1.3.4-1/jpeg/jdmaster.c ****   /* Post-processing: in particular, color conversion first */
 352:fltk-1.3.4-1/jpeg/jdmaster.c ****   if (! cinfo->raw_data_out) {
 353:fltk-1.3.4-1/jpeg/jdmaster.c ****     if (master->using_merged_upsample) {
 354:fltk-1.3.4-1/jpeg/jdmaster.c **** #ifdef UPSAMPLE_MERGING_SUPPORTED
 355:fltk-1.3.4-1/jpeg/jdmaster.c ****       jinit_merged_upsampler(cinfo); /* does color conversion too */
 356:fltk-1.3.4-1/jpeg/jdmaster.c **** #else
 357:fltk-1.3.4-1/jpeg/jdmaster.c ****       ERREXIT(cinfo, JERR_NOT_COMPILED);
 358:fltk-1.3.4-1/jpeg/jdmaster.c **** #endif
 359:fltk-1.3.4-1/jpeg/jdmaster.c ****     } else {
 360:fltk-1.3.4-1/jpeg/jdmaster.c ****       jinit_color_deconverter(cinfo);
 361:fltk-1.3.4-1/jpeg/jdmaster.c ****       jinit_upsampler(cinfo);
 362:fltk-1.3.4-1/jpeg/jdmaster.c ****     }
 363:fltk-1.3.4-1/jpeg/jdmaster.c ****     jinit_d_post_controller(cinfo, cinfo->enable_2pass_quant);
 364:fltk-1.3.4-1/jpeg/jdmaster.c ****   }
 365:fltk-1.3.4-1/jpeg/jdmaster.c ****   /* Inverse DCT */
 366:fltk-1.3.4-1/jpeg/jdmaster.c ****   jinit_inverse_dct(cinfo);
 367:fltk-1.3.4-1/jpeg/jdmaster.c ****   /* Entropy decoding: either Huffman or arithmetic coding. */
 368:fltk-1.3.4-1/jpeg/jdmaster.c ****   if (cinfo->arith_code)
 369:fltk-1.3.4-1/jpeg/jdmaster.c ****     jinit_arith_decoder(cinfo);
 370:fltk-1.3.4-1/jpeg/jdmaster.c ****   else {
 371:fltk-1.3.4-1/jpeg/jdmaster.c ****     jinit_huff_decoder(cinfo);
 372:fltk-1.3.4-1/jpeg/jdmaster.c ****   }
 373:fltk-1.3.4-1/jpeg/jdmaster.c **** 
 374:fltk-1.3.4-1/jpeg/jdmaster.c ****   /* Initialize principal buffer controllers. */
 375:fltk-1.3.4-1/jpeg/jdmaster.c ****   use_c_buffer = cinfo->inputctl->has_multiple_scans || cinfo->buffered_image;
 376:fltk-1.3.4-1/jpeg/jdmaster.c ****   jinit_d_coef_controller(cinfo, use_c_buffer);
 377:fltk-1.3.4-1/jpeg/jdmaster.c **** 
 378:fltk-1.3.4-1/jpeg/jdmaster.c ****   if (! cinfo->raw_data_out)
 379:fltk-1.3.4-1/jpeg/jdmaster.c ****     jinit_d_main_controller(cinfo, FALSE /* never need full buffer here */);
 380:fltk-1.3.4-1/jpeg/jdmaster.c **** 
 381:fltk-1.3.4-1/jpeg/jdmaster.c ****   /* We can now tell the memory manager to allocate virtual arrays. */
 382:fltk-1.3.4-1/jpeg/jdmaster.c ****   (*cinfo->mem->realize_virt_arrays) ((j_common_ptr) cinfo);
 383:fltk-1.3.4-1/jpeg/jdmaster.c **** 
 384:fltk-1.3.4-1/jpeg/jdmaster.c ****   /* Initialize input side of decompressor to consume first scan. */
 385:fltk-1.3.4-1/jpeg/jdmaster.c ****   (*cinfo->inputctl->start_input_pass) (cinfo);
 386:fltk-1.3.4-1/jpeg/jdmaster.c **** 
 387:fltk-1.3.4-1/jpeg/jdmaster.c **** #ifdef D_MULTISCAN_FILES_SUPPORTED
 388:fltk-1.3.4-1/jpeg/jdmaster.c ****   /* If jpeg_start_decompress will read the whole file, initialize
 389:fltk-1.3.4-1/jpeg/jdmaster.c ****    * progress monitoring appropriately.  The input step is counted
 390:fltk-1.3.4-1/jpeg/jdmaster.c ****    * as one pass.
 391:fltk-1.3.4-1/jpeg/jdmaster.c ****    */
 392:fltk-1.3.4-1/jpeg/jdmaster.c ****   if (cinfo->progress != NULL && ! cinfo->buffered_image &&
 393:fltk-1.3.4-1/jpeg/jdmaster.c ****       cinfo->inputctl->has_multiple_scans) {
 394:fltk-1.3.4-1/jpeg/jdmaster.c ****     int nscans;
 395:fltk-1.3.4-1/jpeg/jdmaster.c ****     /* Estimate number of scans to set pass_limit. */
 396:fltk-1.3.4-1/jpeg/jdmaster.c ****     if (cinfo->progressive_mode) {
 397:fltk-1.3.4-1/jpeg/jdmaster.c ****       /* Arbitrarily estimate 2 interleaved DC scans + 3 AC scans/component. */
 398:fltk-1.3.4-1/jpeg/jdmaster.c ****       nscans = 2 + 3 * cinfo->num_components;
 399:fltk-1.3.4-1/jpeg/jdmaster.c ****     } else {
 400:fltk-1.3.4-1/jpeg/jdmaster.c ****       /* For a nonprogressive multiscan file, estimate 1 scan per component. */
 401:fltk-1.3.4-1/jpeg/jdmaster.c ****       nscans = cinfo->num_components;
 402:fltk-1.3.4-1/jpeg/jdmaster.c ****     }
 403:fltk-1.3.4-1/jpeg/jdmaster.c ****     cinfo->progress->pass_counter = 0L;
 404:fltk-1.3.4-1/jpeg/jdmaster.c ****     cinfo->progress->pass_limit = (long) cinfo->total_iMCU_rows * nscans;
 405:fltk-1.3.4-1/jpeg/jdmaster.c ****     cinfo->progress->completed_passes = 0;
 406:fltk-1.3.4-1/jpeg/jdmaster.c ****     cinfo->progress->total_passes = (cinfo->enable_2pass_quant ? 3 : 2);
 407:fltk-1.3.4-1/jpeg/jdmaster.c ****     /* Count the input pass as done */
 408:fltk-1.3.4-1/jpeg/jdmaster.c ****     master->pass_number++;
 409:fltk-1.3.4-1/jpeg/jdmaster.c ****   }
 410:fltk-1.3.4-1/jpeg/jdmaster.c **** #endif /* D_MULTISCAN_FILES_SUPPORTED */
 411:fltk-1.3.4-1/jpeg/jdmaster.c **** }
 412:fltk-1.3.4-1/jpeg/jdmaster.c **** 
 413:fltk-1.3.4-1/jpeg/jdmaster.c **** 
 414:fltk-1.3.4-1/jpeg/jdmaster.c **** /*
 415:fltk-1.3.4-1/jpeg/jdmaster.c ****  * Per-pass setup.
 416:fltk-1.3.4-1/jpeg/jdmaster.c ****  * This is called at the beginning of each output pass.  We determine which
 417:fltk-1.3.4-1/jpeg/jdmaster.c ****  * modules will be active during this pass and give them appropriate
 418:fltk-1.3.4-1/jpeg/jdmaster.c ****  * start_pass calls.  We also set is_dummy_pass to indicate whether this
 419:fltk-1.3.4-1/jpeg/jdmaster.c ****  * is a "real" output pass or a dummy pass for color quantization.
 420:fltk-1.3.4-1/jpeg/jdmaster.c ****  * (In the latter case, jdapistd.c will crank the pass to completion.)
 421:fltk-1.3.4-1/jpeg/jdmaster.c ****  */
 422:fltk-1.3.4-1/jpeg/jdmaster.c **** 
 423:fltk-1.3.4-1/jpeg/jdmaster.c **** METHODDEF(void)
 424:fltk-1.3.4-1/jpeg/jdmaster.c **** prepare_for_output_pass (j_decompress_ptr cinfo)
 425:fltk-1.3.4-1/jpeg/jdmaster.c **** {
  11              		.loc 1 425 1 view -0
  12              		.cfi_startproc
  13              		.loc 1 425 1 is_stmt 0 view .LVU1
  14 0000 F30F1EFA 		endbr64
 426:fltk-1.3.4-1/jpeg/jdmaster.c ****   my_master_ptr master = (my_master_ptr) cinfo->master;
  15              		.loc 1 426 3 is_stmt 1 view .LVU2
 425:fltk-1.3.4-1/jpeg/jdmaster.c ****   my_master_ptr master = (my_master_ptr) cinfo->master;
  16              		.loc 1 425 1 is_stmt 0 view .LVU3
  17 0004 55       		pushq	%rbp
  18              		.cfi_def_cfa_offset 16
  19              		.cfi_offset 6, -16
  20 0005 53       		pushq	%rbx
  21              		.cfi_def_cfa_offset 24
  22              		.cfi_offset 3, -24
  23 0006 4889FB   		movq	%rdi, %rbx
  24 0009 4883EC08 		subq	$8, %rsp
  25              		.cfi_def_cfa_offset 32
  26              		.loc 1 426 17 view .LVU4
  27 000d 488BAF40 		movq	576(%rdi), %rbp
  27      020000
  28              	.LVL1:
 427:fltk-1.3.4-1/jpeg/jdmaster.c **** 
 428:fltk-1.3.4-1/jpeg/jdmaster.c ****   if (master->pub.is_dummy_pass) {
  29              		.loc 1 428 3 is_stmt 1 view .LVU5
  30              		.loc 1 428 6 is_stmt 0 view .LVU6
  31 0014 8B4510   		movl	16(%rbp), %eax
  32 0017 85C0     		testl	%eax, %eax
  33 0019 0F849100 		je	.L2
  33      0000
 429:fltk-1.3.4-1/jpeg/jdmaster.c **** #ifdef QUANT_2PASS_SUPPORTED
 430:fltk-1.3.4-1/jpeg/jdmaster.c ****     /* Final pass of 2-pass quantization */
 431:fltk-1.3.4-1/jpeg/jdmaster.c ****     master->pub.is_dummy_pass = FALSE;
  34              		.loc 1 431 5 is_stmt 1 view .LVU7
  35              		.loc 1 431 31 is_stmt 0 view .LVU8
  36 001f C7451000 		movl	$0, 16(%rbp)
  36      000000
 432:fltk-1.3.4-1/jpeg/jdmaster.c ****     (*cinfo->cquantize->start_pass) (cinfo, FALSE);
  37              		.loc 1 432 5 is_stmt 1 view .LVU9
  38              		.loc 1 432 6 is_stmt 0 view .LVU10
  39 0026 488B8790 		movq	656(%rdi), %rax
  39      020000
  40 002d 31F6     		xorl	%esi, %esi
  41 002f FF10     		call	*(%rax)
  42              	.LVL2:
 433:fltk-1.3.4-1/jpeg/jdmaster.c ****     (*cinfo->post->start_pass) (cinfo, JBUF_CRANK_DEST);
  43              		.loc 1 433 5 is_stmt 1 view .LVU11
  44              		.loc 1 433 6 is_stmt 0 view .LVU12
  45 0031 488B8358 		movq	600(%rbx), %rax
  45      020000
  46 0038 BE020000 		movl	$2, %esi
  46      00
  47 003d 4889DF   		movq	%rbx, %rdi
  48 0040 FF10     		call	*(%rax)
  49              	.LVL3:
 434:fltk-1.3.4-1/jpeg/jdmaster.c ****     (*cinfo->main->start_pass) (cinfo, JBUF_CRANK_DEST);
  50              		.loc 1 434 5 is_stmt 1 view .LVU13
  51              		.loc 1 434 6 is_stmt 0 view .LVU14
  52 0042 488B8348 		movq	584(%rbx), %rax
  52      020000
  53 0049 BE020000 		movl	$2, %esi
  53      00
  54 004e 4889DF   		movq	%rbx, %rdi
  55 0051 FF10     		call	*(%rax)
  56              	.LVL4:
  57              	.L3:
 435:fltk-1.3.4-1/jpeg/jdmaster.c **** #else
 436:fltk-1.3.4-1/jpeg/jdmaster.c ****     ERREXIT(cinfo, JERR_NOT_COMPILED);
 437:fltk-1.3.4-1/jpeg/jdmaster.c **** #endif /* QUANT_2PASS_SUPPORTED */
 438:fltk-1.3.4-1/jpeg/jdmaster.c ****   } else {
 439:fltk-1.3.4-1/jpeg/jdmaster.c ****     if (cinfo->quantize_colors && cinfo->colormap == NULL) {
 440:fltk-1.3.4-1/jpeg/jdmaster.c ****       /* Select new quantization method */
 441:fltk-1.3.4-1/jpeg/jdmaster.c ****       if (cinfo->two_pass_quantize && cinfo->enable_2pass_quant) {
 442:fltk-1.3.4-1/jpeg/jdmaster.c **** 	cinfo->cquantize = master->quantizer_2pass;
 443:fltk-1.3.4-1/jpeg/jdmaster.c **** 	master->pub.is_dummy_pass = TRUE;
 444:fltk-1.3.4-1/jpeg/jdmaster.c ****       } else if (cinfo->enable_1pass_quant) {
 445:fltk-1.3.4-1/jpeg/jdmaster.c **** 	cinfo->cquantize = master->quantizer_1pass;
 446:fltk-1.3.4-1/jpeg/jdmaster.c ****       } else {
 447:fltk-1.3.4-1/jpeg/jdmaster.c **** 	ERREXIT(cinfo, JERR_MODE_CHANGE);
 448:fltk-1.3.4-1/jpeg/jdmaster.c ****       }
 449:fltk-1.3.4-1/jpeg/jdmaster.c ****     }
 450:fltk-1.3.4-1/jpeg/jdmaster.c ****     (*cinfo->idct->start_pass) (cinfo);
 451:fltk-1.3.4-1/jpeg/jdmaster.c ****     (*cinfo->coef->start_output_pass) (cinfo);
 452:fltk-1.3.4-1/jpeg/jdmaster.c ****     if (! cinfo->raw_data_out) {
 453:fltk-1.3.4-1/jpeg/jdmaster.c ****       if (! master->using_merged_upsample)
 454:fltk-1.3.4-1/jpeg/jdmaster.c **** 	(*cinfo->cconvert->start_pass) (cinfo);
 455:fltk-1.3.4-1/jpeg/jdmaster.c ****       (*cinfo->upsample->start_pass) (cinfo);
 456:fltk-1.3.4-1/jpeg/jdmaster.c ****       if (cinfo->quantize_colors)
 457:fltk-1.3.4-1/jpeg/jdmaster.c **** 	(*cinfo->cquantize->start_pass) (cinfo, master->pub.is_dummy_pass);
 458:fltk-1.3.4-1/jpeg/jdmaster.c ****       (*cinfo->post->start_pass) (cinfo,
 459:fltk-1.3.4-1/jpeg/jdmaster.c **** 	    (master->pub.is_dummy_pass ? JBUF_SAVE_AND_PASS : JBUF_PASS_THRU));
 460:fltk-1.3.4-1/jpeg/jdmaster.c ****       (*cinfo->main->start_pass) (cinfo, JBUF_PASS_THRU);
 461:fltk-1.3.4-1/jpeg/jdmaster.c ****     }
 462:fltk-1.3.4-1/jpeg/jdmaster.c ****   }
 463:fltk-1.3.4-1/jpeg/jdmaster.c **** 
 464:fltk-1.3.4-1/jpeg/jdmaster.c ****   /* Set up progress monitor's pass info if present */
 465:fltk-1.3.4-1/jpeg/jdmaster.c ****   if (cinfo->progress != NULL) {
  58              		.loc 1 465 3 is_stmt 1 view .LVU15
  59              		.loc 1 465 12 is_stmt 0 view .LVU16
  60 0053 488B4310 		movq	16(%rbx), %rax
  61              		.loc 1 465 6 view .LVU17
  62 0057 4885C0   		testq	%rax, %rax
  63 005a 7449     		je	.L1
 466:fltk-1.3.4-1/jpeg/jdmaster.c ****     cinfo->progress->completed_passes = master->pass_number;
  64              		.loc 1 466 5 is_stmt 1 view .LVU18
  65              		.loc 1 466 47 is_stmt 0 view .LVU19
  66 005c 8B5518   		movl	24(%rbp), %edx
 467:fltk-1.3.4-1/jpeg/jdmaster.c ****     cinfo->progress->total_passes = master->pass_number +
 468:fltk-1.3.4-1/jpeg/jdmaster.c **** 				    (master->pub.is_dummy_pass ? 2 : 1);
  67              		.loc 1 468 40 view .LVU20
  68 005f 31C9     		xorl	%ecx, %ecx
 466:fltk-1.3.4-1/jpeg/jdmaster.c ****     cinfo->progress->completed_passes = master->pass_number;
  69              		.loc 1 466 39 view .LVU21
  70 0061 895018   		movl	%edx, 24(%rax)
 467:fltk-1.3.4-1/jpeg/jdmaster.c ****     cinfo->progress->total_passes = master->pass_number +
  71              		.loc 1 467 5 is_stmt 1 view .LVU22
  72              		.loc 1 468 40 is_stmt 0 view .LVU23
  73 0064 8B7D10   		movl	16(%rbp), %edi
 467:fltk-1.3.4-1/jpeg/jdmaster.c ****     cinfo->progress->total_passes = master->pass_number +
  74              		.loc 1 467 10 view .LVU24
  75 0067 488B4310 		movq	16(%rbx), %rax
  76              		.loc 1 468 40 view .LVU25
  77 006b 85FF     		testl	%edi, %edi
  78 006d 0F95C1   		setne	%cl
 467:fltk-1.3.4-1/jpeg/jdmaster.c ****     cinfo->progress->total_passes = master->pass_number +
  79              		.loc 1 467 57 view .LVU26
  80 0070 8D540A01 		leal	1(%rdx,%rcx), %edx
  81 0074 89501C   		movl	%edx, 28(%rax)
 469:fltk-1.3.4-1/jpeg/jdmaster.c ****     /* In buffered-image mode, we assume one more output pass if EOI not
 470:fltk-1.3.4-1/jpeg/jdmaster.c ****      * yet reached, but no more passes if EOI has been reached.
 471:fltk-1.3.4-1/jpeg/jdmaster.c ****      */
 472:fltk-1.3.4-1/jpeg/jdmaster.c ****     if (cinfo->buffered_image && ! cinfo->inputctl->eoi_reached) {
  82              		.loc 1 472 5 is_stmt 1 view .LVU27
  83              		.loc 1 472 8 is_stmt 0 view .LVU28
  84 0077 448B4358 		movl	88(%rbx), %r8d
  85 007b 4585C0   		testl	%r8d, %r8d
  86 007e 7425     		je	.L1
  87              		.loc 1 472 51 discriminator 1 view .LVU29
  88 0080 488B8360 		movq	608(%rbx), %rax
  88      020000
  89              		.loc 1 472 31 discriminator 1 view .LVU30
  90 0087 8B7024   		movl	36(%rax), %esi
  91 008a 85F6     		testl	%esi, %esi
  92 008c 7517     		jne	.L1
 473:fltk-1.3.4-1/jpeg/jdmaster.c ****       cinfo->progress->total_passes += (cinfo->enable_2pass_quant ? 2 : 1);
  93              		.loc 1 473 7 is_stmt 1 view .LVU31
  94              		.loc 1 473 71 is_stmt 0 view .LVU32
  95 008e 8B8B8400 		movl	132(%rbx), %ecx
  95      0000
  96 0094 31C0     		xorl	%eax, %eax
  97              		.loc 1 473 12 view .LVU33
  98 0096 488B5310 		movq	16(%rbx), %rdx
  99              		.loc 1 473 71 view .LVU34
 100 009a 85C9     		testl	%ecx, %ecx
 101 009c 0F95C0   		setne	%al
 102 009f 83C001   		addl	$1, %eax
 103              		.loc 1 473 37 view .LVU35
 104 00a2 01421C   		addl	%eax, 28(%rdx)
 105              	.L1:
 474:fltk-1.3.4-1/jpeg/jdmaster.c ****     }
 475:fltk-1.3.4-1/jpeg/jdmaster.c ****   }
 476:fltk-1.3.4-1/jpeg/jdmaster.c **** }
 106              		.loc 1 476 1 view .LVU36
 107 00a5 4883C408 		addq	$8, %rsp
 108              		.cfi_remember_state
 109              		.cfi_def_cfa_offset 24
 110 00a9 5B       		popq	%rbx
 111              		.cfi_def_cfa_offset 16
 112              	.LVL5:
 113              		.loc 1 476 1 view .LVU37
 114 00aa 5D       		popq	%rbp
 115              		.cfi_def_cfa_offset 8
 116              	.LVL6:
 117              		.loc 1 476 1 view .LVU38
 118 00ab C3       		ret
 119              	.LVL7:
 120 00ac 0F1F4000 		.p2align 4,,10
 121              		.p2align 3
 122              	.L2:
 123              		.cfi_restore_state
 439:fltk-1.3.4-1/jpeg/jdmaster.c ****       /* Select new quantization method */
 124              		.loc 1 439 5 is_stmt 1 view .LVU39
 439:fltk-1.3.4-1/jpeg/jdmaster.c ****       /* Select new quantization method */
 125              		.loc 1 439 8 is_stmt 0 view .LVU40
 126 00b0 8B476C   		movl	108(%rdi), %eax
 127 00b3 85C0     		testl	%eax, %eax
 128 00b5 740E     		je	.L4
 439:fltk-1.3.4-1/jpeg/jdmaster.c ****       /* Select new quantization method */
 129              		.loc 1 439 32 discriminator 1 view .LVU41
 130 00b7 4883BFA0 		cmpq	$0, 160(%rdi)
 130      00000000 
 131 00bf 0F848B00 		je	.L20
 131      0000
 132              	.L4:
 450:fltk-1.3.4-1/jpeg/jdmaster.c ****     (*cinfo->coef->start_output_pass) (cinfo);
 133              		.loc 1 450 5 is_stmt 1 view .LVU42
 450:fltk-1.3.4-1/jpeg/jdmaster.c ****     (*cinfo->coef->start_output_pass) (cinfo);
 134              		.loc 1 450 6 is_stmt 0 view .LVU43
 135 00c5 488B8378 		movq	632(%rbx), %rax
 135      020000
 136 00cc 4889DF   		movq	%rbx, %rdi
 137 00cf FF10     		call	*(%rax)
 138              	.LVL8:
 451:fltk-1.3.4-1/jpeg/jdmaster.c ****     if (! cinfo->raw_data_out) {
 139              		.loc 1 451 5 is_stmt 1 view .LVU44
 451:fltk-1.3.4-1/jpeg/jdmaster.c ****     if (! cinfo->raw_data_out) {
 140              		.loc 1 451 6 is_stmt 0 view .LVU45
 141 00d1 488B8350 		movq	592(%rbx), %rax
 141      020000
 142 00d8 4889DF   		movq	%rbx, %rdi
 143 00db FF5010   		call	*16(%rax)
 144              	.LVL9:
 452:fltk-1.3.4-1/jpeg/jdmaster.c ****       if (! master->using_merged_upsample)
 145              		.loc 1 452 5 is_stmt 1 view .LVU46
 452:fltk-1.3.4-1/jpeg/jdmaster.c ****       if (! master->using_merged_upsample)
 146              		.loc 1 452 8 is_stmt 0 view .LVU47
 147 00de 448B5B5C 		movl	92(%rbx), %r11d
 148 00e2 4585DB   		testl	%r11d, %r11d
 149 00e5 0F8568FF 		jne	.L3
 149      FFFF
 453:fltk-1.3.4-1/jpeg/jdmaster.c **** 	(*cinfo->cconvert->start_pass) (cinfo);
 150              		.loc 1 453 7 is_stmt 1 view .LVU48
 453:fltk-1.3.4-1/jpeg/jdmaster.c **** 	(*cinfo->cconvert->start_pass) (cinfo);
 151              		.loc 1 453 10 is_stmt 0 view .LVU49
 152 00eb 448B551C 		movl	28(%rbp), %r10d
 153 00ef 4585D2   		testl	%r10d, %r10d
 154 00f2 750C     		jne	.L7
 454:fltk-1.3.4-1/jpeg/jdmaster.c ****       (*cinfo->upsample->start_pass) (cinfo);
 155              		.loc 1 454 2 is_stmt 1 view .LVU50
 454:fltk-1.3.4-1/jpeg/jdmaster.c ****       (*cinfo->upsample->start_pass) (cinfo);
 156              		.loc 1 454 3 is_stmt 0 view .LVU51
 157 00f4 488B8388 		movq	648(%rbx), %rax
 157      020000
 158 00fb 4889DF   		movq	%rbx, %rdi
 159 00fe FF10     		call	*(%rax)
 160              	.LVL10:
 161              	.L7:
 455:fltk-1.3.4-1/jpeg/jdmaster.c ****       if (cinfo->quantize_colors)
 162              		.loc 1 455 7 is_stmt 1 view .LVU52
 455:fltk-1.3.4-1/jpeg/jdmaster.c ****       if (cinfo->quantize_colors)
 163              		.loc 1 455 8 is_stmt 0 view .LVU53
 164 0100 488B8380 		movq	640(%rbx), %rax
 164      020000
 165 0107 4889DF   		movq	%rbx, %rdi
 166 010a FF10     		call	*(%rax)
 167              	.LVL11:
 456:fltk-1.3.4-1/jpeg/jdmaster.c **** 	(*cinfo->cquantize->start_pass) (cinfo, master->pub.is_dummy_pass);
 168              		.loc 1 456 7 is_stmt 1 view .LVU54
 456:fltk-1.3.4-1/jpeg/jdmaster.c **** 	(*cinfo->cquantize->start_pass) (cinfo, master->pub.is_dummy_pass);
 169              		.loc 1 456 10 is_stmt 0 view .LVU55
 170 010c 448B4B6C 		movl	108(%rbx), %r9d
 171 0110 4585C9   		testl	%r9d, %r9d
 172 0113 740F     		je	.L8
 457:fltk-1.3.4-1/jpeg/jdmaster.c ****       (*cinfo->post->start_pass) (cinfo,
 173              		.loc 1 457 2 is_stmt 1 view .LVU56
 457:fltk-1.3.4-1/jpeg/jdmaster.c ****       (*cinfo->post->start_pass) (cinfo,
 174              		.loc 1 457 3 is_stmt 0 view .LVU57
 175 0115 488B8390 		movq	656(%rbx), %rax
 175      020000
 176 011c 8B7510   		movl	16(%rbp), %esi
 177 011f 4889DF   		movq	%rbx, %rdi
 178 0122 FF10     		call	*(%rax)
 179              	.LVL12:
 180              	.L8:
 458:fltk-1.3.4-1/jpeg/jdmaster.c **** 	    (master->pub.is_dummy_pass ? JBUF_SAVE_AND_PASS : JBUF_PASS_THRU));
 181              		.loc 1 458 7 is_stmt 1 view .LVU58
 459:fltk-1.3.4-1/jpeg/jdmaster.c ****       (*cinfo->main->start_pass) (cinfo, JBUF_PASS_THRU);
 182              		.loc 1 459 18 is_stmt 0 view .LVU59
 183 0124 8B7510   		movl	16(%rbp), %esi
 458:fltk-1.3.4-1/jpeg/jdmaster.c **** 	    (master->pub.is_dummy_pass ? JBUF_SAVE_AND_PASS : JBUF_PASS_THRU));
 184              		.loc 1 458 8 view .LVU60
 185 0127 488B8358 		movq	600(%rbx), %rax
 185      020000
 186 012e BA030000 		movl	$3, %edx
 186      00
 187 0133 4889DF   		movq	%rbx, %rdi
 188 0136 85F6     		testl	%esi, %esi
 189 0138 0F45F2   		cmovne	%edx, %esi
 190 013b FF10     		call	*(%rax)
 191              	.LVL13:
 460:fltk-1.3.4-1/jpeg/jdmaster.c ****     }
 192              		.loc 1 460 7 is_stmt 1 view .LVU61
 460:fltk-1.3.4-1/jpeg/jdmaster.c ****     }
 193              		.loc 1 460 8 is_stmt 0 view .LVU62
 194 013d 488B8348 		movq	584(%rbx), %rax
 194      020000
 195 0144 31F6     		xorl	%esi, %esi
 196 0146 4889DF   		movq	%rbx, %rdi
 197 0149 FF10     		call	*(%rax)
 198              	.LVL14:
 199 014b E903FFFF 		jmp	.L3
 199      FF
 200              		.p2align 4,,10
 201              		.p2align 3
 202              	.L20:
 441:fltk-1.3.4-1/jpeg/jdmaster.c **** 	cinfo->cquantize = master->quantizer_2pass;
 203              		.loc 1 441 7 is_stmt 1 view .LVU63
 441:fltk-1.3.4-1/jpeg/jdmaster.c **** 	cinfo->cquantize = master->quantizer_2pass;
 204              		.loc 1 441 10 is_stmt 0 view .LVU64
 205 0150 8B4774   		movl	116(%rdi), %eax
 206 0153 85C0     		testl	%eax, %eax
 207 0155 7429     		je	.L5
 441:fltk-1.3.4-1/jpeg/jdmaster.c **** 	cinfo->cquantize = master->quantizer_2pass;
 208              		.loc 1 441 36 discriminator 1 view .LVU65
 209 0157 8B878400 		movl	132(%rdi), %eax
 209      0000
 210 015d 85C0     		testl	%eax, %eax
 211 015f 741F     		je	.L5
 442:fltk-1.3.4-1/jpeg/jdmaster.c **** 	master->pub.is_dummy_pass = TRUE;
 212              		.loc 1 442 2 is_stmt 1 view .LVU66
 442:fltk-1.3.4-1/jpeg/jdmaster.c **** 	master->pub.is_dummy_pass = TRUE;
 213              		.loc 1 442 27 is_stmt 0 view .LVU67
 214 0161 488B4528 		movq	40(%rbp), %rax
 442:fltk-1.3.4-1/jpeg/jdmaster.c **** 	master->pub.is_dummy_pass = TRUE;
 215              		.loc 1 442 19 view .LVU68
 216 0165 48898790 		movq	%rax, 656(%rdi)
 216      020000
 443:fltk-1.3.4-1/jpeg/jdmaster.c ****       } else if (cinfo->enable_1pass_quant) {
 217              		.loc 1 443 2 is_stmt 1 view .LVU69
 443:fltk-1.3.4-1/jpeg/jdmaster.c ****       } else if (cinfo->enable_1pass_quant) {
 218              		.loc 1 443 28 is_stmt 0 view .LVU70
 219 016c C7451001 		movl	$1, 16(%rbp)
 219      000000
 220 0173 E94DFFFF 		jmp	.L4
 220      FF
 221 0178 0F1F8400 		.p2align 4,,10
 221      00000000 
 222              		.p2align 3
 223              	.L5:
 444:fltk-1.3.4-1/jpeg/jdmaster.c **** 	cinfo->cquantize = master->quantizer_1pass;
 224              		.loc 1 444 14 is_stmt 1 view .LVU71
 444:fltk-1.3.4-1/jpeg/jdmaster.c **** 	cinfo->cquantize = master->quantizer_1pass;
 225              		.loc 1 444 17 is_stmt 0 view .LVU72
 226 0180 8B437C   		movl	124(%rbx), %eax
 227 0183 85C0     		testl	%eax, %eax
 228 0185 7419     		je	.L6
 445:fltk-1.3.4-1/jpeg/jdmaster.c ****       } else {
 229              		.loc 1 445 2 is_stmt 1 view .LVU73
 445:fltk-1.3.4-1/jpeg/jdmaster.c ****       } else {
 230              		.loc 1 445 27 is_stmt 0 view .LVU74
 231 0187 488B4520 		movq	32(%rbp), %rax
 445:fltk-1.3.4-1/jpeg/jdmaster.c ****       } else {
 232              		.loc 1 445 19 view .LVU75
 233 018b 48898390 		movq	%rax, 656(%rbx)
 233      020000
 234 0192 E92EFFFF 		jmp	.L4
 234      FF
 235 0197 660F1F84 		.p2align 4,,10
 235      00000000 
 235      00
 236              		.p2align 3
 237              	.L6:
 447:fltk-1.3.4-1/jpeg/jdmaster.c ****       }
 238              		.loc 1 447 2 is_stmt 1 view .LVU76
 239 01a0 488B03   		movq	(%rbx), %rax
 240 01a3 4889DF   		movq	%rbx, %rdi
 241 01a6 C740282F 		movl	$47, 40(%rax)
 241      000000
 242 01ad 488B03   		movq	(%rbx), %rax
 243 01b0 FF10     		call	*(%rax)
 244              	.LVL15:
 245 01b2 E90EFFFF 		jmp	.L4
 245      FF
 246              		.cfi_endproc
 247              	.LFE55:
 249              		.section	.text.finish_output_pass,"ax",@progbits
 250              		.p2align 4
 252              	finish_output_pass:
 253              	.LVL16:
 254              	.LFB56:
 477:fltk-1.3.4-1/jpeg/jdmaster.c **** 
 478:fltk-1.3.4-1/jpeg/jdmaster.c **** 
 479:fltk-1.3.4-1/jpeg/jdmaster.c **** /*
 480:fltk-1.3.4-1/jpeg/jdmaster.c ****  * Finish up at end of an output pass.
 481:fltk-1.3.4-1/jpeg/jdmaster.c ****  */
 482:fltk-1.3.4-1/jpeg/jdmaster.c **** 
 483:fltk-1.3.4-1/jpeg/jdmaster.c **** METHODDEF(void)
 484:fltk-1.3.4-1/jpeg/jdmaster.c **** finish_output_pass (j_decompress_ptr cinfo)
 485:fltk-1.3.4-1/jpeg/jdmaster.c **** {
 255              		.loc 1 485 1 view -0
 256              		.cfi_startproc
 257              		.loc 1 485 1 is_stmt 0 view .LVU78
 258 0000 F30F1EFA 		endbr64
 486:fltk-1.3.4-1/jpeg/jdmaster.c ****   my_master_ptr master = (my_master_ptr) cinfo->master;
 259              		.loc 1 486 3 is_stmt 1 view .LVU79
 487:fltk-1.3.4-1/jpeg/jdmaster.c **** 
 488:fltk-1.3.4-1/jpeg/jdmaster.c ****   if (cinfo->quantize_colors)
 260              		.loc 1 488 6 is_stmt 0 view .LVU80
 261 0004 8B476C   		movl	108(%rdi), %eax
 485:fltk-1.3.4-1/jpeg/jdmaster.c ****   my_master_ptr master = (my_master_ptr) cinfo->master;
 262              		.loc 1 485 1 view .LVU81
 263 0007 53       		pushq	%rbx
 264              		.cfi_def_cfa_offset 16
 265              		.cfi_offset 3, -16
 486:fltk-1.3.4-1/jpeg/jdmaster.c ****   my_master_ptr master = (my_master_ptr) cinfo->master;
 266              		.loc 1 486 17 view .LVU82
 267 0008 488B9F40 		movq	576(%rdi), %rbx
 267      020000
 268              	.LVL17:
 269              		.loc 1 488 3 is_stmt 1 view .LVU83
 270              		.loc 1 488 6 is_stmt 0 view .LVU84
 271 000f 85C0     		testl	%eax, %eax
 272 0011 740A     		je	.L22
 489:fltk-1.3.4-1/jpeg/jdmaster.c ****     (*cinfo->cquantize->finish_pass) (cinfo);
 273              		.loc 1 489 5 is_stmt 1 view .LVU85
 274              		.loc 1 489 6 is_stmt 0 view .LVU86
 275 0013 488B8790 		movq	656(%rdi), %rax
 275      020000
 276 001a FF5010   		call	*16(%rax)
 277              	.LVL18:
 278              	.L22:
 490:fltk-1.3.4-1/jpeg/jdmaster.c ****   master->pass_number++;
 279              		.loc 1 490 3 is_stmt 1 view .LVU87
 280              		.loc 1 490 22 is_stmt 0 view .LVU88
 281 001d 83431801 		addl	$1, 24(%rbx)
 491:fltk-1.3.4-1/jpeg/jdmaster.c **** }
 282              		.loc 1 491 1 view .LVU89
 283 0021 5B       		popq	%rbx
 284              		.cfi_def_cfa_offset 8
 285              	.LVL19:
 286              		.loc 1 491 1 view .LVU90
 287 0022 C3       		ret
 288              		.cfi_endproc
 289              	.LFE56:
 291              		.section	.text.use_merged_upsample,"ax",@progbits
 292              		.p2align 4
 294              	use_merged_upsample:
 295              	.LVL20:
 296              	.LFB51:
  46:fltk-1.3.4-1/jpeg/jdmaster.c **** #ifdef UPSAMPLE_MERGING_SUPPORTED
 297              		.loc 1 46 1 is_stmt 1 view -0
 298              		.cfi_startproc
  49:fltk-1.3.4-1/jpeg/jdmaster.c ****     return FALSE;
 299              		.loc 1 49 3 view .LVU92
  49:fltk-1.3.4-1/jpeg/jdmaster.c ****     return FALSE;
 300              		.loc 1 49 6 is_stmt 0 view .LVU93
 301 0000 8B4F64   		movl	100(%rdi), %ecx
 302              	.LBB10:
 303              	.LBB11:
  72:fltk-1.3.4-1/jpeg/jdmaster.c ****   /* ??? also need to test for upsample-time rescaling, when & if supported */
 304              		.loc 1 72 12 view .LVU94
 305 0003 31C0     		xorl	%eax, %eax
 306              	.LBE11:
 307              	.LBE10:
  49:fltk-1.3.4-1/jpeg/jdmaster.c ****     return FALSE;
 308              		.loc 1 49 6 view .LVU95
 309 0005 85C9     		testl	%ecx, %ecx
 310 0007 0F85B500 		jne	.L24
 310      0000
  49:fltk-1.3.4-1/jpeg/jdmaster.c ****     return FALSE;
 311              		.loc 1 49 42 discriminator 1 view .LVU96
 312 000d 8B879001 		movl	400(%rdi), %eax
 312      0000
  49:fltk-1.3.4-1/jpeg/jdmaster.c ****     return FALSE;
 313              		.loc 1 49 34 discriminator 1 view .LVU97
 314 0013 85C0     		testl	%eax, %eax
 315 0015 0F85A500 		jne	.L27
 315      0000
  52:fltk-1.3.4-1/jpeg/jdmaster.c ****       cinfo->out_color_space != JCS_RGB ||
 316              		.loc 1 52 3 is_stmt 1 view .LVU98
  52:fltk-1.3.4-1/jpeg/jdmaster.c ****       cinfo->out_color_space != JCS_RGB ||
 317              		.loc 1 52 6 is_stmt 0 view .LVU99
 318 001b 48BA0300 		movabsq	$12884901891, %rdx
 318      00000300 
 318      0000
 319 0025 48395738 		cmpq	%rdx, 56(%rdi)
 320 0029 0F859300 		jne	.L24
 320      0000
  52:fltk-1.3.4-1/jpeg/jdmaster.c ****       cinfo->out_color_space != JCS_RGB ||
 321              		.loc 1 52 74 discriminator 1 view .LVU100
 322 002f 837F4002 		cmpl	$2, 64(%rdi)
 323 0033 0F858900 		jne	.L24
 323      0000
  53:fltk-1.3.4-1/jpeg/jdmaster.c ****       cinfo->out_color_components != RGB_PIXELSIZE ||
 324              		.loc 1 53 41 view .LVU101
 325 0039 83BF9000 		cmpl	$3, 144(%rdi)
 325      000003
 326 0040 0F857C00 		jne	.L24
 326      0000
  54:fltk-1.3.4-1/jpeg/jdmaster.c ****       cinfo->color_transform)
 327              		.loc 1 54 52 view .LVU102
 328 0046 8B978C01 		movl	396(%rdi), %edx
 328      0000
 329 004c 85D2     		testl	%edx, %edx
 330 004e 7572     		jne	.L24
 331              	.LVL21:
 332              	.LBB13:
 333              	.LBI10:
  45:fltk-1.3.4-1/jpeg/jdmaster.c **** {
 334              		.loc 1 45 1 is_stmt 1 view .LVU103
 335              	.LBB12:
  58:fltk-1.3.4-1/jpeg/jdmaster.c ****       cinfo->comp_info[1].h_samp_factor != 1 ||
 336              		.loc 1 58 3 view .LVU104
  58:fltk-1.3.4-1/jpeg/jdmaster.c ****       cinfo->comp_info[1].h_samp_factor != 1 ||
 337              		.loc 1 58 12 is_stmt 0 view .LVU105
 338 0050 488B9730 		movq	304(%rdi), %rdx
 338      010000
  58:fltk-1.3.4-1/jpeg/jdmaster.c ****       cinfo->comp_info[1].h_samp_factor != 1 ||
 339              		.loc 1 58 6 view .LVU106
 340 0057 837A0802 		cmpl	$2, 8(%rdx)
 341 005b 7565     		jne	.L24
  58:fltk-1.3.4-1/jpeg/jdmaster.c ****       cinfo->comp_info[1].h_samp_factor != 1 ||
 342              		.loc 1 58 46 view .LVU107
 343 005d 837A6801 		cmpl	$1, 104(%rdx)
 344 0061 755F     		jne	.L24
  59:fltk-1.3.4-1/jpeg/jdmaster.c ****       cinfo->comp_info[2].h_samp_factor != 1 ||
 345              		.loc 1 59 46 view .LVU108
 346 0063 83BAC800 		cmpl	$1, 200(%rdx)
 346      000001
 347 006a 7556     		jne	.L24
  60:fltk-1.3.4-1/jpeg/jdmaster.c ****       cinfo->comp_info[0].v_samp_factor >  2 ||
 348              		.loc 1 60 46 view .LVU109
 349 006c 837A0C02 		cmpl	$2, 12(%rdx)
 350 0070 7F50     		jg	.L24
  61:fltk-1.3.4-1/jpeg/jdmaster.c ****       cinfo->comp_info[1].v_samp_factor != 1 ||
 351              		.loc 1 61 46 view .LVU110
 352 0072 837A6C01 		cmpl	$1, 108(%rdx)
 353 0076 754A     		jne	.L24
  62:fltk-1.3.4-1/jpeg/jdmaster.c ****       cinfo->comp_info[2].v_samp_factor != 1)
 354              		.loc 1 62 46 view .LVU111
 355 0078 83BACC00 		cmpl	$1, 204(%rdx)
 355      000001
 356 007f 7541     		jne	.L24
  66:fltk-1.3.4-1/jpeg/jdmaster.c ****       cinfo->comp_info[1].DCT_h_scaled_size != cinfo->min_DCT_h_scaled_size ||
 357              		.loc 1 66 3 is_stmt 1 view .LVU112
  66:fltk-1.3.4-1/jpeg/jdmaster.c ****       cinfo->comp_info[1].DCT_h_scaled_size != cinfo->min_DCT_h_scaled_size ||
 358              		.loc 1 66 53 is_stmt 0 view .LVU113
 359 0081 8B8FA801 		movl	424(%rdi), %ecx
 359      0000
  66:fltk-1.3.4-1/jpeg/jdmaster.c ****       cinfo->comp_info[1].DCT_h_scaled_size != cinfo->min_DCT_h_scaled_size ||
 360              		.loc 1 66 6 view .LVU114
 361 0087 394A24   		cmpl	%ecx, 36(%rdx)
 362 008a 7536     		jne	.L24
  66:fltk-1.3.4-1/jpeg/jdmaster.c ****       cinfo->comp_info[1].DCT_h_scaled_size != cinfo->min_DCT_h_scaled_size ||
 363              		.loc 1 66 77 view .LVU115
 364 008c 3B8A8400 		cmpl	132(%rdx), %ecx
 364      0000
 365 0092 752E     		jne	.L24
  67:fltk-1.3.4-1/jpeg/jdmaster.c ****       cinfo->comp_info[2].DCT_h_scaled_size != cinfo->min_DCT_h_scaled_size ||
 366              		.loc 1 67 77 view .LVU116
 367 0094 3B8AE400 		cmpl	228(%rdx), %ecx
 367      0000
 368 009a 7526     		jne	.L24
  69:fltk-1.3.4-1/jpeg/jdmaster.c ****       cinfo->comp_info[1].DCT_v_scaled_size != cinfo->min_DCT_v_scaled_size ||
 369              		.loc 1 69 53 view .LVU117
 370 009c 8B8FAC01 		movl	428(%rdi), %ecx
 370      0000
  68:fltk-1.3.4-1/jpeg/jdmaster.c ****       cinfo->comp_info[0].DCT_v_scaled_size != cinfo->min_DCT_v_scaled_size ||
 371              		.loc 1 68 77 view .LVU118
 372 00a2 394A28   		cmpl	%ecx, 40(%rdx)
 373 00a5 751B     		jne	.L24
  69:fltk-1.3.4-1/jpeg/jdmaster.c ****       cinfo->comp_info[1].DCT_v_scaled_size != cinfo->min_DCT_v_scaled_size ||
 374              		.loc 1 69 77 view .LVU119
 375 00a7 3B8A8800 		cmpl	136(%rdx), %ecx
 375      0000
 376 00ad 7513     		jne	.L24
  70:fltk-1.3.4-1/jpeg/jdmaster.c ****       cinfo->comp_info[2].DCT_v_scaled_size != cinfo->min_DCT_v_scaled_size)
 377              		.loc 1 70 77 view .LVU120
 378 00af 31C0     		xorl	%eax, %eax
 379 00b1 398AE800 		cmpl	%ecx, 232(%rdx)
 379      0000
 380 00b7 0F94C0   		sete	%al
 381 00ba C3       		ret
 382              	.LVL22:
 383 00bb 0F1F4400 		.p2align 4,,10
 383      00
 384              		.p2align 3
 385              	.L27:
  72:fltk-1.3.4-1/jpeg/jdmaster.c ****   /* ??? also need to test for upsample-time rescaling, when & if supported */
 386              		.loc 1 72 12 view .LVU121
 387 00c0 31C0     		xorl	%eax, %eax
 388              	.L24:
 389              	.LBE12:
 390              	.LBE13:
  78:fltk-1.3.4-1/jpeg/jdmaster.c **** 
 391              		.loc 1 78 1 view .LVU122
 392 00c2 C3       		ret
 393              		.cfi_endproc
 394              	.LFE51:
 396              		.section	.text.jpeg_calc_output_dimensions,"ax",@progbits
 397              		.p2align 4
 398              		.globl	jpeg_calc_output_dimensions
 400              	jpeg_calc_output_dimensions:
 401              	.LVL23:
 402              	.LFB52:
  93:fltk-1.3.4-1/jpeg/jdmaster.c **** #ifdef IDCT_SCALING_SUPPORTED
 403              		.loc 1 93 1 is_stmt 1 view -0
 404              		.cfi_startproc
  93:fltk-1.3.4-1/jpeg/jdmaster.c **** #ifdef IDCT_SCALING_SUPPORTED
 405              		.loc 1 93 1 is_stmt 0 view .LVU124
 406 0000 F30F1EFA 		endbr64
  95:fltk-1.3.4-1/jpeg/jdmaster.c ****   jpeg_component_info *compptr;
 407              		.loc 1 95 3 is_stmt 1 view .LVU125
  96:fltk-1.3.4-1/jpeg/jdmaster.c **** #endif
 408              		.loc 1 96 3 view .LVU126
 100:fltk-1.3.4-1/jpeg/jdmaster.c ****     ERREXIT1(cinfo, JERR_BAD_STATE, cinfo->global_state);
 409              		.loc 1 100 3 view .LVU127
  93:fltk-1.3.4-1/jpeg/jdmaster.c **** #ifdef IDCT_SCALING_SUPPORTED
 410              		.loc 1 93 1 is_stmt 0 view .LVU128
 411 0004 4154     		pushq	%r12
 412              		.cfi_def_cfa_offset 16
 413              		.cfi_offset 12, -16
 414 0006 55       		pushq	%rbp
 415              		.cfi_def_cfa_offset 24
 416              		.cfi_offset 6, -24
 417 0007 53       		pushq	%rbx
 418              		.cfi_def_cfa_offset 32
 419              		.cfi_offset 3, -32
 100:fltk-1.3.4-1/jpeg/jdmaster.c ****     ERREXIT1(cinfo, JERR_BAD_STATE, cinfo->global_state);
 420              		.loc 1 100 6 view .LVU129
 421 0008 817F24CA 		cmpl	$202, 36(%rdi)
 421      000000
  93:fltk-1.3.4-1/jpeg/jdmaster.c **** #ifdef IDCT_SCALING_SUPPORTED
 422              		.loc 1 93 1 view .LVU130
 423 000f 4889FB   		movq	%rdi, %rbx
 100:fltk-1.3.4-1/jpeg/jdmaster.c ****     ERREXIT1(cinfo, JERR_BAD_STATE, cinfo->global_state);
 424              		.loc 1 100 6 view .LVU131
 425 0012 7418     		je	.L40
 101:fltk-1.3.4-1/jpeg/jdmaster.c **** 
 426              		.loc 1 101 5 is_stmt 1 view .LVU132
 427 0014 488B07   		movq	(%rdi), %rax
 428 0017 C7402815 		movl	$21, 40(%rax)
 428      000000
 429 001e 488B07   		movq	(%rdi), %rax
 430 0021 8B5724   		movl	36(%rdi), %edx
 431 0024 89502C   		movl	%edx, 44(%rax)
 432 0027 488B07   		movq	(%rdi), %rax
 433 002a FF10     		call	*(%rax)
 434              	.LVL24:
 435              	.L40:
 104:fltk-1.3.4-1/jpeg/jdmaster.c **** 
 436              		.loc 1 104 3 view .LVU133
 437 002c 4889DF   		movq	%rbx, %rdi
 438 002f E8000000 		call	jpeg_core_output_dimensions@PLT
 438      00
 439              	.LVL25:
 113:fltk-1.3.4-1/jpeg/jdmaster.c ****        ci++, compptr++) {
 440              		.loc 1 113 3 view .LVU134
 113:fltk-1.3.4-1/jpeg/jdmaster.c ****        ci++, compptr++) {
 441              		.loc 1 113 54 is_stmt 0 view .LVU135
 442 0034 8B4338   		movl	56(%rbx), %eax
 113:fltk-1.3.4-1/jpeg/jdmaster.c ****        ci++, compptr++) {
 443              		.loc 1 113 24 view .LVU136
 444 0037 488BBB30 		movq	304(%rbx), %rdi
 444      010000
 445              	.LVL26:
 113:fltk-1.3.4-1/jpeg/jdmaster.c ****        ci++, compptr++) {
 446              		.loc 1 113 44 is_stmt 1 view .LVU137
 113:fltk-1.3.4-1/jpeg/jdmaster.c ****        ci++, compptr++) {
 447              		.loc 1 113 11 is_stmt 0 view .LVU138
 448 003e 4531C9   		xorl	%r9d, %r9d
 113:fltk-1.3.4-1/jpeg/jdmaster.c ****        ci++, compptr++) {
 449              		.loc 1 113 3 view .LVU139
 450 0041 85C0     		testl	%eax, %eax
 451 0043 0F8E3101 		jle	.L42
 451      0000
 452              	.LVL27:
 453 0049 0F1F8000 		.p2align 4,,10
 453      000000
 454              		.p2align 3
 455              	.L41:
 113:fltk-1.3.4-1/jpeg/jdmaster.c ****        ci++, compptr++) {
 456              		.loc 1 113 3 view .LVU140
 457 0050 837B6401 		cmpl	$1, 100(%rbx)
 458              	.LBB14:
 116:fltk-1.3.4-1/jpeg/jdmaster.c **** 	   (cinfo->do_fancy_upsampling ? DCTSIZE : DCTSIZE / 2) &&
 459              		.loc 1 116 17 view .LVU141
 460 0054 448B9BA8 		movl	424(%rbx), %r11d
 460      010000
 115:fltk-1.3.4-1/jpeg/jdmaster.c ****     while (cinfo->min_DCT_h_scaled_size * ssize <=
 461              		.loc 1 115 9 view .LVU142
 462 005b BE010000 		movl	$1, %esi
 462      00
 463 0060 4519D2   		sbbl	%r10d, %r10d
 464 0063 4183E2FC 		andl	$-4, %r10d
 465 0067 4183C208 		addl	$8, %r10d
 466 006b EB1A     		jmp	.L51
 467              	.LVL28:
 468 006d 0F1F00   		.p2align 4,,10
 469              		.p2align 3
 470              	.L68:
 118:fltk-1.3.4-1/jpeg/jdmaster.c ****       ssize = ssize * 2;
 471              		.loc 1 118 57 view .LVU143
 472 0070 8B4F08   		movl	8(%rdi), %ecx
 118:fltk-1.3.4-1/jpeg/jdmaster.c ****       ssize = ssize * 2;
 473              		.loc 1 118 31 view .LVU144
 474 0073 8B83A001 		movl	416(%rbx), %eax
 474      0000
 118:fltk-1.3.4-1/jpeg/jdmaster.c ****       ssize = ssize * 2;
 475              		.loc 1 118 57 view .LVU145
 476 0079 0FAFCE   		imull	%esi, %ecx
 118:fltk-1.3.4-1/jpeg/jdmaster.c ****       ssize = ssize * 2;
 477              		.loc 1 118 31 view .LVU146
 478 007c 99       		cltd
 118:fltk-1.3.4-1/jpeg/jdmaster.c ****       ssize = ssize * 2;
 479              		.loc 1 118 65 view .LVU147
 480 007d 01C9     		addl	%ecx, %ecx
 118:fltk-1.3.4-1/jpeg/jdmaster.c ****       ssize = ssize * 2;
 481              		.loc 1 118 31 view .LVU148
 482 007f F7F9     		idivl	%ecx
 117:fltk-1.3.4-1/jpeg/jdmaster.c **** 	   (cinfo->max_h_samp_factor % (compptr->h_samp_factor * ssize * 2)) == 0) {
 483              		.loc 1 117 58 view .LVU149
 484 0081 85D2     		testl	%edx, %edx
 485 0083 750E     		jne	.L43
 119:fltk-1.3.4-1/jpeg/jdmaster.c ****     }
 486              		.loc 1 119 7 is_stmt 1 view .LVU150
 119:fltk-1.3.4-1/jpeg/jdmaster.c ****     }
 487              		.loc 1 119 13 is_stmt 0 view .LVU151
 488 0085 01F6     		addl	%esi, %esi
 489              	.LVL29:
 490              	.L51:
 116:fltk-1.3.4-1/jpeg/jdmaster.c **** 	   (cinfo->do_fancy_upsampling ? DCTSIZE : DCTSIZE / 2) &&
 491              		.loc 1 116 11 is_stmt 1 view .LVU152
 116:fltk-1.3.4-1/jpeg/jdmaster.c **** 	   (cinfo->do_fancy_upsampling ? DCTSIZE : DCTSIZE / 2) &&
 492              		.loc 1 116 41 is_stmt 0 view .LVU153
 493 0087 4589D8   		movl	%r11d, %r8d
 494 008a 440FAFC6 		imull	%esi, %r8d
 116:fltk-1.3.4-1/jpeg/jdmaster.c **** 	   (cinfo->do_fancy_upsampling ? DCTSIZE : DCTSIZE / 2) &&
 495              		.loc 1 116 11 view .LVU154
 496 008e 4539D0   		cmpl	%r10d, %r8d
 497 0091 7EDD     		jle	.L68
 498              	.L43:
 121:fltk-1.3.4-1/jpeg/jdmaster.c ****     ssize = 1;
 499              		.loc 1 121 5 is_stmt 1 view .LVU155
 121:fltk-1.3.4-1/jpeg/jdmaster.c ****     ssize = 1;
 500              		.loc 1 121 32 is_stmt 0 view .LVU156
 501 0093 44894724 		movl	%r8d, 36(%rdi)
 122:fltk-1.3.4-1/jpeg/jdmaster.c ****     while (cinfo->min_DCT_v_scaled_size * ssize <=
 502              		.loc 1 122 5 is_stmt 1 view .LVU157
 503              	.LVL30:
 123:fltk-1.3.4-1/jpeg/jdmaster.c **** 	   (cinfo->do_fancy_upsampling ? DCTSIZE : DCTSIZE / 2) &&
 504              		.loc 1 123 5 view .LVU158
 505 0097 837B6401 		cmpl	$1, 100(%rbx)
 122:fltk-1.3.4-1/jpeg/jdmaster.c ****     while (cinfo->min_DCT_v_scaled_size * ssize <=
 506              		.loc 1 122 11 is_stmt 0 view .LVU159
 507 009b BE010000 		movl	$1, %esi
 507      00
 508 00a0 4519DB   		sbbl	%r11d, %r11d
 123:fltk-1.3.4-1/jpeg/jdmaster.c **** 	   (cinfo->do_fancy_upsampling ? DCTSIZE : DCTSIZE / 2) &&
 509              		.loc 1 123 17 view .LVU160
 510 00a3 8BABAC01 		movl	428(%rbx), %ebp
 510      0000
 511 00a9 4183E3FC 		andl	$-4, %r11d
 512 00ad 4183C308 		addl	$8, %r11d
 123:fltk-1.3.4-1/jpeg/jdmaster.c **** 	   (cinfo->do_fancy_upsampling ? DCTSIZE : DCTSIZE / 2) &&
 513              		.loc 1 123 11 view .LVU161
 514 00b1 EB1C     		jmp	.L45
 515              	.LVL31:
 516              		.p2align 4,,10
 517 00b3 0F1F4400 		.p2align 3
 517      00
 518              	.L69:
 125:fltk-1.3.4-1/jpeg/jdmaster.c ****       ssize = ssize * 2;
 519              		.loc 1 125 57 view .LVU162
 520 00b8 8B4F0C   		movl	12(%rdi), %ecx
 125:fltk-1.3.4-1/jpeg/jdmaster.c ****       ssize = ssize * 2;
 521              		.loc 1 125 31 view .LVU163
 522 00bb 8B83A401 		movl	420(%rbx), %eax
 522      0000
 125:fltk-1.3.4-1/jpeg/jdmaster.c ****       ssize = ssize * 2;
 523              		.loc 1 125 57 view .LVU164
 524 00c1 0FAFCE   		imull	%esi, %ecx
 125:fltk-1.3.4-1/jpeg/jdmaster.c ****       ssize = ssize * 2;
 525              		.loc 1 125 31 view .LVU165
 526 00c4 99       		cltd
 125:fltk-1.3.4-1/jpeg/jdmaster.c ****       ssize = ssize * 2;
 527              		.loc 1 125 65 view .LVU166
 528 00c5 01C9     		addl	%ecx, %ecx
 125:fltk-1.3.4-1/jpeg/jdmaster.c ****       ssize = ssize * 2;
 529              		.loc 1 125 31 view .LVU167
 530 00c7 F7F9     		idivl	%ecx
 124:fltk-1.3.4-1/jpeg/jdmaster.c **** 	   (cinfo->max_v_samp_factor % (compptr->v_samp_factor * ssize * 2)) == 0) {
 531              		.loc 1 124 58 view .LVU168
 532 00c9 85D2     		testl	%edx, %edx
 533 00cb 750E     		jne	.L46
 126:fltk-1.3.4-1/jpeg/jdmaster.c ****     }
 534              		.loc 1 126 7 is_stmt 1 view .LVU169
 126:fltk-1.3.4-1/jpeg/jdmaster.c ****     }
 535              		.loc 1 126 13 is_stmt 0 view .LVU170
 536 00cd 01F6     		addl	%esi, %esi
 537              	.LVL32:
 538              	.L45:
 123:fltk-1.3.4-1/jpeg/jdmaster.c **** 	   (cinfo->do_fancy_upsampling ? DCTSIZE : DCTSIZE / 2) &&
 539              		.loc 1 123 11 is_stmt 1 view .LVU171
 123:fltk-1.3.4-1/jpeg/jdmaster.c **** 	   (cinfo->do_fancy_upsampling ? DCTSIZE : DCTSIZE / 2) &&
 540              		.loc 1 123 41 is_stmt 0 view .LVU172
 541 00cf 4189EA   		movl	%ebp, %r10d
 542 00d2 440FAFD6 		imull	%esi, %r10d
 123:fltk-1.3.4-1/jpeg/jdmaster.c **** 	   (cinfo->do_fancy_upsampling ? DCTSIZE : DCTSIZE / 2) &&
 543              		.loc 1 123 11 view .LVU173
 544 00d6 4539DA   		cmpl	%r11d, %r10d
 545 00d9 7EDD     		jle	.L69
 546              	.L46:
 128:fltk-1.3.4-1/jpeg/jdmaster.c **** 
 547              		.loc 1 128 5 is_stmt 1 view .LVU174
 131:fltk-1.3.4-1/jpeg/jdmaster.c **** 	compptr->DCT_h_scaled_size = compptr->DCT_v_scaled_size * 2;
 548              		.loc 1 131 65 is_stmt 0 view .LVU175
 549 00db 438D0412 		leal	(%r10,%r10), %eax
 128:fltk-1.3.4-1/jpeg/jdmaster.c **** 
 550              		.loc 1 128 32 view .LVU176
 551 00df 44895728 		movl	%r10d, 40(%rdi)
 131:fltk-1.3.4-1/jpeg/jdmaster.c **** 	compptr->DCT_h_scaled_size = compptr->DCT_v_scaled_size * 2;
 552              		.loc 1 131 5 is_stmt 1 view .LVU177
 131:fltk-1.3.4-1/jpeg/jdmaster.c **** 	compptr->DCT_h_scaled_size = compptr->DCT_v_scaled_size * 2;
 553              		.loc 1 131 8 is_stmt 0 view .LVU178
 554 00e3 4139C0   		cmpl	%eax, %r8d
 555 00e6 0F8EF400 		jle	.L48
 555      0000
 132:fltk-1.3.4-1/jpeg/jdmaster.c ****     else if (compptr->DCT_v_scaled_size > compptr->DCT_h_scaled_size * 2)
 556              		.loc 1 132 2 is_stmt 1 view .LVU179
 132:fltk-1.3.4-1/jpeg/jdmaster.c ****     else if (compptr->DCT_v_scaled_size > compptr->DCT_h_scaled_size * 2)
 557              		.loc 1 132 29 is_stmt 0 view .LVU180
 558 00ec 894724   		movl	%eax, 36(%rdi)
 559              	.L49:
 560              	.LBE14:
 114:fltk-1.3.4-1/jpeg/jdmaster.c ****     int ssize = 1;
 561              		.loc 1 114 8 is_stmt 1 view .LVU181
 113:fltk-1.3.4-1/jpeg/jdmaster.c ****        ci++, compptr++) {
 562              		.loc 1 113 54 is_stmt 0 view .LVU182
 563 00ef 8B4338   		movl	56(%rbx), %eax
 114:fltk-1.3.4-1/jpeg/jdmaster.c ****     int ssize = 1;
 564              		.loc 1 114 10 view .LVU183
 565 00f2 4183C101 		addl	$1, %r9d
 566              	.LVL33:
 114:fltk-1.3.4-1/jpeg/jdmaster.c ****     int ssize = 1;
 567              		.loc 1 114 21 view .LVU184
 568 00f6 4883C760 		addq	$96, %rdi
 569              	.LVL34:
 113:fltk-1.3.4-1/jpeg/jdmaster.c ****        ci++, compptr++) {
 570              		.loc 1 113 44 is_stmt 1 view .LVU185
 113:fltk-1.3.4-1/jpeg/jdmaster.c ****        ci++, compptr++) {
 571              		.loc 1 113 3 is_stmt 0 view .LVU186
 572 00fa 4439C8   		cmpl	%r9d, %eax
 573 00fd 0F8F4DFF 		jg	.L41
 573      FFFF
 140:fltk-1.3.4-1/jpeg/jdmaster.c ****        ci++, compptr++) {
 574              		.loc 1 140 3 is_stmt 1 view .LVU187
 575              	.LVL35:
 140:fltk-1.3.4-1/jpeg/jdmaster.c ****        ci++, compptr++) {
 576              		.loc 1 140 24 is_stmt 0 view .LVU188
 577 0103 488BAB30 		movq	304(%rbx), %rbp
 577      010000
 578              	.LVL36:
 140:fltk-1.3.4-1/jpeg/jdmaster.c ****        ci++, compptr++) {
 579              		.loc 1 140 44 is_stmt 1 view .LVU189
 140:fltk-1.3.4-1/jpeg/jdmaster.c ****        ci++, compptr++) {
 580              		.loc 1 140 3 is_stmt 0 view .LVU190
 581 010a 85C0     		testl	%eax, %eax
 582 010c 7E6C     		jle	.L42
 140:fltk-1.3.4-1/jpeg/jdmaster.c ****        ci++, compptr++) {
 583              		.loc 1 140 11 view .LVU191
 584 010e 4531E4   		xorl	%r12d, %r12d
 585              	.LVL37:
 586              		.p2align 4,,10
 587 0111 0F1F8000 		.p2align 3
 587      000000
 588              	.L52:
 143:fltk-1.3.4-1/jpeg/jdmaster.c ****       jdiv_round_up((long) cinfo->image_width *
 589              		.loc 1 143 5 is_stmt 1 view .LVU192
 145:fltk-1.3.4-1/jpeg/jdmaster.c **** 		    (long) (cinfo->max_h_samp_factor * cinfo->block_size));
 590              		.loc 1 145 38 is_stmt 0 view .LVU193
 591 0118 8B7D08   		movl	8(%rbp), %edi
 592 011b 0FAF7D24 		imull	36(%rbp), %edi
 141:fltk-1.3.4-1/jpeg/jdmaster.c ****     /* Size in samples, after IDCT scaling */
 593              		.loc 1 141 10 view .LVU194
 594 011f 4183C401 		addl	$1, %r12d
 595              	.LVL38:
 141:fltk-1.3.4-1/jpeg/jdmaster.c ****     /* Size in samples, after IDCT scaling */
 596              		.loc 1 141 21 view .LVU195
 597 0123 4883C560 		addq	$96, %rbp
 598              	.LVL39:
 144:fltk-1.3.4-1/jpeg/jdmaster.c **** 		    (long) (compptr->h_samp_factor * compptr->DCT_h_scaled_size),
 599              		.loc 1 144 21 view .LVU196
 600 0127 8B4330   		movl	48(%rbx), %eax
 146:fltk-1.3.4-1/jpeg/jdmaster.c ****     compptr->downsampled_height = (JDIMENSION)
 601              		.loc 1 146 40 view .LVU197
 602 012a 8BB3A001 		movl	416(%rbx), %esi
 602      0000
 603 0130 0FAFB32C 		imull	556(%rbx), %esi
 603      020000
 145:fltk-1.3.4-1/jpeg/jdmaster.c **** 		    (long) (cinfo->max_h_samp_factor * cinfo->block_size));
 604              		.loc 1 145 7 view .LVU198
 605 0137 4863FF   		movslq	%edi, %rdi
 144:fltk-1.3.4-1/jpeg/jdmaster.c **** 		    (long) (compptr->h_samp_factor * compptr->DCT_h_scaled_size),
 606              		.loc 1 144 7 view .LVU199
 607 013a 480FAFF8 		imulq	%rax, %rdi
 608 013e 4863F6   		movslq	%esi, %rsi
 609 0141 E8000000 		call	jdiv_round_up@PLT
 609      00
 610              	.LVL40:
 149:fltk-1.3.4-1/jpeg/jdmaster.c **** 		    (long) (cinfo->max_v_samp_factor * cinfo->block_size));
 611              		.loc 1 149 38 view .LVU200
 612 0146 8B7DAC   		movl	-84(%rbp), %edi
 613 0149 0FAF7DC8 		imull	-56(%rbp), %edi
 143:fltk-1.3.4-1/jpeg/jdmaster.c ****       jdiv_round_up((long) cinfo->image_width *
 614              		.loc 1 143 34 view .LVU201
 615 014d 8945CC   		movl	%eax, -52(%rbp)
 147:fltk-1.3.4-1/jpeg/jdmaster.c ****       jdiv_round_up((long) cinfo->image_height *
 616              		.loc 1 147 5 is_stmt 1 view .LVU202
 148:fltk-1.3.4-1/jpeg/jdmaster.c **** 		    (long) (compptr->v_samp_factor * compptr->DCT_v_scaled_size),
 617              		.loc 1 148 21 is_stmt 0 view .LVU203
 618 0150 8B4334   		movl	52(%rbx), %eax
 150:fltk-1.3.4-1/jpeg/jdmaster.c ****   }
 619              		.loc 1 150 40 view .LVU204
 620 0153 8BB3A401 		movl	420(%rbx), %esi
 620      0000
 621 0159 0FAFB32C 		imull	556(%rbx), %esi
 621      020000
 149:fltk-1.3.4-1/jpeg/jdmaster.c **** 		    (long) (cinfo->max_v_samp_factor * cinfo->block_size));
 622              		.loc 1 149 7 view .LVU205
 623 0160 4863FF   		movslq	%edi, %rdi
 148:fltk-1.3.4-1/jpeg/jdmaster.c **** 		    (long) (compptr->v_samp_factor * compptr->DCT_v_scaled_size),
 624              		.loc 1 148 7 view .LVU206
 625 0163 480FAFF8 		imulq	%rax, %rdi
 626 0167 4863F6   		movslq	%esi, %rsi
 627 016a E8000000 		call	jdiv_round_up@PLT
 627      00
 628              	.LVL41:
 147:fltk-1.3.4-1/jpeg/jdmaster.c ****       jdiv_round_up((long) cinfo->image_height *
 629              		.loc 1 147 35 view .LVU207
 630 016f 8945D0   		movl	%eax, -48(%rbp)
 141:fltk-1.3.4-1/jpeg/jdmaster.c ****     /* Size in samples, after IDCT scaling */
 631              		.loc 1 141 8 is_stmt 1 view .LVU208
 632              	.LVL42:
 140:fltk-1.3.4-1/jpeg/jdmaster.c ****        ci++, compptr++) {
 633              		.loc 1 140 44 view .LVU209
 140:fltk-1.3.4-1/jpeg/jdmaster.c ****        ci++, compptr++) {
 634              		.loc 1 140 54 is_stmt 0 view .LVU210
 635 0172 8B4338   		movl	56(%rbx), %eax
 140:fltk-1.3.4-1/jpeg/jdmaster.c ****        ci++, compptr++) {
 636              		.loc 1 140 3 view .LVU211
 637 0175 4439E0   		cmpl	%r12d, %eax
 638 0178 7F9E     		jg	.L52
 639              	.LVL43:
 640              	.L42:
 157:fltk-1.3.4-1/jpeg/jdmaster.c ****   case JCS_GRAYSCALE:
 641              		.loc 1 157 3 is_stmt 1 view .LVU212
 157:fltk-1.3.4-1/jpeg/jdmaster.c ****   case JCS_GRAYSCALE:
 642              		.loc 1 157 16 is_stmt 0 view .LVU213
 643 017a 8B5340   		movl	64(%rbx), %edx
 157:fltk-1.3.4-1/jpeg/jdmaster.c ****   case JCS_GRAYSCALE:
 644              		.loc 1 157 3 view .LVU214
 645 017d 83FA05   		cmpl	$5, %edx
 646 0180 7773     		ja	.L53
 647 0182 83FA03   		cmpl	$3, %edx
 648 0185 0F87A500 		ja	.L54
 648      0000
 649 018b 83FA01   		cmpl	$1, %edx
 650 018e 0F848100 		je	.L55
 650      0000
 651 0194 83EA02   		subl	$2, %edx
 652 0197 83FA01   		cmpl	$1, %edx
 653 019a 7661     		jbe	.L57
 654              	.L56:
 174:fltk-1.3.4-1/jpeg/jdmaster.c ****     break;
 655              		.loc 1 174 5 is_stmt 1 view .LVU215
 177:fltk-1.3.4-1/jpeg/jdmaster.c **** 			      cinfo->out_color_components);
 656              		.loc 1 177 58 is_stmt 0 view .LVU216
 657 019c 8B536C   		movl	108(%rbx), %edx
 174:fltk-1.3.4-1/jpeg/jdmaster.c ****     break;
 658              		.loc 1 174 33 view .LVU217
 659 019f 89839000 		movl	%eax, 144(%rbx)
 659      0000
 175:fltk-1.3.4-1/jpeg/jdmaster.c ****   }
 660              		.loc 1 175 5 is_stmt 1 view .LVU218
 177:fltk-1.3.4-1/jpeg/jdmaster.c **** 			      cinfo->out_color_components);
 661              		.loc 1 177 3 view .LVU219
 177:fltk-1.3.4-1/jpeg/jdmaster.c **** 			      cinfo->out_color_components);
 662              		.loc 1 177 58 is_stmt 0 view .LVU220
 663 01a5 B8010000 		movl	$1, %eax
 663      00
 664 01aa 85D2     		testl	%edx, %edx
 665 01ac 7506     		jne	.L59
 666              	.L70:
 177:fltk-1.3.4-1/jpeg/jdmaster.c **** 			      cinfo->out_color_components);
 667              		.loc 1 177 58 discriminator 1 view .LVU221
 668 01ae 8B839000 		movl	144(%rbx), %eax
 668      0000
 669              	.L59:
 177:fltk-1.3.4-1/jpeg/jdmaster.c **** 			      cinfo->out_color_components);
 670              		.loc 1 177 28 discriminator 4 view .LVU222
 671 01b4 89839400 		movl	%eax, 148(%rbx)
 671      0000
 181:fltk-1.3.4-1/jpeg/jdmaster.c ****     cinfo->rec_outbuf_height = cinfo->max_v_samp_factor;
 672              		.loc 1 181 3 is_stmt 1 discriminator 4 view .LVU223
 181:fltk-1.3.4-1/jpeg/jdmaster.c ****     cinfo->rec_outbuf_height = cinfo->max_v_samp_factor;
 673              		.loc 1 181 7 is_stmt 0 discriminator 4 view .LVU224
 674 01ba 4889DF   		movq	%rbx, %rdi
 675 01bd E8000000 		call	use_merged_upsample
 675      00
 676              	.LVL44:
 677 01c2 4189C0   		movl	%eax, %r8d
 184:fltk-1.3.4-1/jpeg/jdmaster.c **** }
 678              		.loc 1 184 30 discriminator 4 view .LVU225
 679 01c5 B8010000 		movl	$1, %eax
 679      00
 181:fltk-1.3.4-1/jpeg/jdmaster.c ****     cinfo->rec_outbuf_height = cinfo->max_v_samp_factor;
 680              		.loc 1 181 6 discriminator 4 view .LVU226
 681 01ca 4585C0   		testl	%r8d, %r8d
 682 01cd 7406     		je	.L60
 182:fltk-1.3.4-1/jpeg/jdmaster.c ****   else
 683              		.loc 1 182 5 is_stmt 1 view .LVU227
 182:fltk-1.3.4-1/jpeg/jdmaster.c ****   else
 684              		.loc 1 182 37 is_stmt 0 view .LVU228
 685 01cf 8B83A401 		movl	420(%rbx), %eax
 685      0000
 686              	.L60:
 687 01d5 89839800 		movl	%eax, 152(%rbx)
 687      0000
 185:fltk-1.3.4-1/jpeg/jdmaster.c **** 
 688              		.loc 1 185 1 view .LVU229
 689 01db 5B       		popq	%rbx
 690              		.cfi_remember_state
 691              		.cfi_def_cfa_offset 24
 692              	.LVL45:
 185:fltk-1.3.4-1/jpeg/jdmaster.c **** 
 693              		.loc 1 185 1 view .LVU230
 694 01dc 5D       		popq	%rbp
 695              		.cfi_def_cfa_offset 16
 696 01dd 415C     		popq	%r12
 697              		.cfi_def_cfa_offset 8
 698 01df C3       		ret
 699              	.LVL46:
 700              		.p2align 4,,10
 701              		.p2align 3
 702              	.L48:
 703              		.cfi_restore_state
 704              	.LBB15:
 133:fltk-1.3.4-1/jpeg/jdmaster.c **** 	compptr->DCT_v_scaled_size = compptr->DCT_h_scaled_size * 2;
 705              		.loc 1 133 10 is_stmt 1 view .LVU231
 133:fltk-1.3.4-1/jpeg/jdmaster.c **** 	compptr->DCT_v_scaled_size = compptr->DCT_h_scaled_size * 2;
 706              		.loc 1 133 70 is_stmt 0 view .LVU232
 707 01e0 4501C0   		addl	%r8d, %r8d
 133:fltk-1.3.4-1/jpeg/jdmaster.c **** 	compptr->DCT_v_scaled_size = compptr->DCT_h_scaled_size * 2;
 708              		.loc 1 133 13 view .LVU233
 709 01e3 4539C2   		cmpl	%r8d, %r10d
 710 01e6 0F8E03FF 		jle	.L49
 710      FFFF
 134:fltk-1.3.4-1/jpeg/jdmaster.c ****   }
 711              		.loc 1 134 2 is_stmt 1 view .LVU234
 134:fltk-1.3.4-1/jpeg/jdmaster.c ****   }
 712              		.loc 1 134 29 is_stmt 0 view .LVU235
 713 01ec 44894728 		movl	%r8d, 40(%rdi)
 714 01f0 E9FAFEFF 		jmp	.L49
 714      FF
 715              	.LVL47:
 716              	.L53:
 134:fltk-1.3.4-1/jpeg/jdmaster.c ****   }
 717              		.loc 1 134 29 view .LVU236
 718              	.LBE15:
 157:fltk-1.3.4-1/jpeg/jdmaster.c ****   case JCS_GRAYSCALE:
 719              		.loc 1 157 3 view .LVU237
 720 01f5 83EA06   		subl	$6, %edx
 721 01f8 83FA01   		cmpl	$1, %edx
 722 01fb 779F     		ja	.L56
 723              	.L57:
 163:fltk-1.3.4-1/jpeg/jdmaster.c ****     break;
 724              		.loc 1 163 5 is_stmt 1 view .LVU238
 177:fltk-1.3.4-1/jpeg/jdmaster.c **** 			      cinfo->out_color_components);
 725              		.loc 1 177 58 is_stmt 0 view .LVU239
 726 01fd 8B536C   		movl	108(%rbx), %edx
 727 0200 B8010000 		movl	$1, %eax
 727      00
 163:fltk-1.3.4-1/jpeg/jdmaster.c ****     break;
 728              		.loc 1 163 33 view .LVU240
 729 0205 C7839000 		movl	$3, 144(%rbx)
 729      00000300 
 729      0000
 164:fltk-1.3.4-1/jpeg/jdmaster.c ****   case JCS_YCbCr:
 730              		.loc 1 164 5 is_stmt 1 view .LVU241
 177:fltk-1.3.4-1/jpeg/jdmaster.c **** 			      cinfo->out_color_components);
 731              		.loc 1 177 3 view .LVU242
 177:fltk-1.3.4-1/jpeg/jdmaster.c **** 			      cinfo->out_color_components);
 732              		.loc 1 177 58 is_stmt 0 view .LVU243
 733 020f 85D2     		testl	%edx, %edx
 734 0211 75A1     		jne	.L59
 735 0213 EB99     		jmp	.L70
 736              	.L55:
 159:fltk-1.3.4-1/jpeg/jdmaster.c ****     break;
 737              		.loc 1 159 5 is_stmt 1 view .LVU244
 177:fltk-1.3.4-1/jpeg/jdmaster.c **** 			      cinfo->out_color_components);
 738              		.loc 1 177 58 is_stmt 0 view .LVU245
 739 0215 8B536C   		movl	108(%rbx), %edx
 740 0218 B8010000 		movl	$1, %eax
 740      00
 159:fltk-1.3.4-1/jpeg/jdmaster.c ****     break;
 741              		.loc 1 159 33 view .LVU246
 742 021d C7839000 		movl	$1, 144(%rbx)
 742      00000100 
 742      0000
 160:fltk-1.3.4-1/jpeg/jdmaster.c ****   case JCS_RGB:
 743              		.loc 1 160 5 is_stmt 1 view .LVU247
 177:fltk-1.3.4-1/jpeg/jdmaster.c **** 			      cinfo->out_color_components);
 744              		.loc 1 177 3 view .LVU248
 177:fltk-1.3.4-1/jpeg/jdmaster.c **** 			      cinfo->out_color_components);
 745              		.loc 1 177 58 is_stmt 0 view .LVU249
 746 0227 85D2     		testl	%edx, %edx
 747 0229 7589     		jne	.L59
 748 022b E97EFFFF 		jmp	.L70
 748      FF
 749              	.L54:
 171:fltk-1.3.4-1/jpeg/jdmaster.c ****     break;
 750              		.loc 1 171 5 is_stmt 1 view .LVU250
 177:fltk-1.3.4-1/jpeg/jdmaster.c **** 			      cinfo->out_color_components);
 751              		.loc 1 177 58 is_stmt 0 view .LVU251
 752 0230 8B536C   		movl	108(%rbx), %edx
 753 0233 B8010000 		movl	$1, %eax
 753      00
 171:fltk-1.3.4-1/jpeg/jdmaster.c ****     break;
 754              		.loc 1 171 33 view .LVU252
 755 0238 C7839000 		movl	$4, 144(%rbx)
 755      00000400 
 755      0000
 172:fltk-1.3.4-1/jpeg/jdmaster.c ****   default:			/* else must be same colorspace as in file */
 756              		.loc 1 172 5 is_stmt 1 view .LVU253
 177:fltk-1.3.4-1/jpeg/jdmaster.c **** 			      cinfo->out_color_components);
 757              		.loc 1 177 3 view .LVU254
 177:fltk-1.3.4-1/jpeg/jdmaster.c **** 			      cinfo->out_color_components);
 758              		.loc 1 177 58 is_stmt 0 view .LVU255
 759 0242 85D2     		testl	%edx, %edx
 760 0244 0F856AFF 		jne	.L59
 760      FFFF
 761 024a E95FFFFF 		jmp	.L70
 761      FF
 762              		.cfi_endproc
 763              	.LFE52:
 765              		.section	.text.jpeg_new_colormap,"ax",@progbits
 766              		.p2align 4
 767              		.globl	jpeg_new_colormap
 769              	jpeg_new_colormap:
 770              	.LVL48:
 771              	.LFB57:
 492:fltk-1.3.4-1/jpeg/jdmaster.c **** 
 493:fltk-1.3.4-1/jpeg/jdmaster.c **** 
 494:fltk-1.3.4-1/jpeg/jdmaster.c **** #ifdef D_MULTISCAN_FILES_SUPPORTED
 495:fltk-1.3.4-1/jpeg/jdmaster.c **** 
 496:fltk-1.3.4-1/jpeg/jdmaster.c **** /*
 497:fltk-1.3.4-1/jpeg/jdmaster.c ****  * Switch to a new external colormap between output passes.
 498:fltk-1.3.4-1/jpeg/jdmaster.c ****  */
 499:fltk-1.3.4-1/jpeg/jdmaster.c **** 
 500:fltk-1.3.4-1/jpeg/jdmaster.c **** GLOBAL(void)
 501:fltk-1.3.4-1/jpeg/jdmaster.c **** jpeg_new_colormap (j_decompress_ptr cinfo)
 502:fltk-1.3.4-1/jpeg/jdmaster.c **** {
 772              		.loc 1 502 1 is_stmt 1 view -0
 773              		.cfi_startproc
 774              		.loc 1 502 1 is_stmt 0 view .LVU257
 775 0000 F30F1EFA 		endbr64
 503:fltk-1.3.4-1/jpeg/jdmaster.c ****   my_master_ptr master = (my_master_ptr) cinfo->master;
 776              		.loc 1 503 3 is_stmt 1 view .LVU258
 502:fltk-1.3.4-1/jpeg/jdmaster.c ****   my_master_ptr master = (my_master_ptr) cinfo->master;
 777              		.loc 1 502 1 is_stmt 0 view .LVU259
 778 0004 55       		pushq	%rbp
 779              		.cfi_def_cfa_offset 16
 780              		.cfi_offset 6, -16
 781 0005 4889FD   		movq	%rdi, %rbp
 782 0008 53       		pushq	%rbx
 783              		.cfi_def_cfa_offset 24
 784              		.cfi_offset 3, -24
 785 0009 4883EC08 		subq	$8, %rsp
 786              		.cfi_def_cfa_offset 32
 504:fltk-1.3.4-1/jpeg/jdmaster.c **** 
 505:fltk-1.3.4-1/jpeg/jdmaster.c ****   /* Prevent application from calling me at wrong times */
 506:fltk-1.3.4-1/jpeg/jdmaster.c ****   if (cinfo->global_state != DSTATE_BUFIMAGE)
 787              		.loc 1 506 6 view .LVU260
 788 000d 817F24CF 		cmpl	$207, 36(%rdi)
 788      000000
 503:fltk-1.3.4-1/jpeg/jdmaster.c **** 
 789              		.loc 1 503 17 view .LVU261
 790 0014 488B9F40 		movq	576(%rdi), %rbx
 790      020000
 791              	.LVL49:
 792              		.loc 1 506 3 is_stmt 1 view .LVU262
 793              		.loc 1 506 6 is_stmt 0 view .LVU263
 794 001b 7418     		je	.L72
 507:fltk-1.3.4-1/jpeg/jdmaster.c ****     ERREXIT1(cinfo, JERR_BAD_STATE, cinfo->global_state);
 795              		.loc 1 507 5 is_stmt 1 view .LVU264
 796 001d 488B07   		movq	(%rdi), %rax
 797 0020 C7402815 		movl	$21, 40(%rax)
 797      000000
 798 0027 488B07   		movq	(%rdi), %rax
 799 002a 8B5724   		movl	36(%rdi), %edx
 800 002d 89502C   		movl	%edx, 44(%rax)
 801 0030 488B07   		movq	(%rdi), %rax
 802 0033 FF10     		call	*(%rax)
 803              	.LVL50:
 804              	.L72:
 508:fltk-1.3.4-1/jpeg/jdmaster.c **** 
 509:fltk-1.3.4-1/jpeg/jdmaster.c ****   if (cinfo->quantize_colors && cinfo->enable_external_quant &&
 805              		.loc 1 509 3 view .LVU265
 806              		.loc 1 509 6 is_stmt 0 view .LVU266
 807 0035 8B556C   		movl	108(%rbp), %edx
 808 0038 85D2     		testl	%edx, %edx
 809 003a 7434     		je	.L73
 810              		.loc 1 509 30 discriminator 1 view .LVU267
 811 003c 8B858000 		movl	128(%rbp), %eax
 811      0000
 812 0042 85C0     		testl	%eax, %eax
 813 0044 742A     		je	.L73
 814              		.loc 1 509 62 discriminator 2 view .LVU268
 815 0046 4883BDA0 		cmpq	$0, 160(%rbp)
 815      00000000 
 816 004e 7420     		je	.L73
 510:fltk-1.3.4-1/jpeg/jdmaster.c ****       cinfo->colormap != NULL) {
 511:fltk-1.3.4-1/jpeg/jdmaster.c ****     /* Select 2-pass quantizer for external colormap use */
 512:fltk-1.3.4-1/jpeg/jdmaster.c ****     cinfo->cquantize = master->quantizer_2pass;
 817              		.loc 1 512 5 is_stmt 1 view .LVU269
 818              		.loc 1 512 30 is_stmt 0 view .LVU270
 819 0050 488B4328 		movq	40(%rbx), %rax
 513:fltk-1.3.4-1/jpeg/jdmaster.c ****     /* Notify quantizer of colormap change */
 514:fltk-1.3.4-1/jpeg/jdmaster.c ****     (*cinfo->cquantize->new_color_map) (cinfo);
 820              		.loc 1 514 6 view .LVU271
 821 0054 4889EF   		movq	%rbp, %rdi
 512:fltk-1.3.4-1/jpeg/jdmaster.c ****     /* Notify quantizer of colormap change */
 822              		.loc 1 512 22 view .LVU272
 823 0057 48898590 		movq	%rax, 656(%rbp)
 823      020000
 824              		.loc 1 514 5 is_stmt 1 view .LVU273
 825              		.loc 1 514 6 is_stmt 0 view .LVU274
 826 005e FF5018   		call	*24(%rax)
 827              	.LVL51:
 515:fltk-1.3.4-1/jpeg/jdmaster.c ****     master->pub.is_dummy_pass = FALSE; /* just in case */
 828              		.loc 1 515 5 is_stmt 1 view .LVU275
 829              		.loc 1 515 31 is_stmt 0 view .LVU276
 830 0061 C7431000 		movl	$0, 16(%rbx)
 830      000000
 516:fltk-1.3.4-1/jpeg/jdmaster.c ****   } else
 517:fltk-1.3.4-1/jpeg/jdmaster.c ****     ERREXIT(cinfo, JERR_MODE_CHANGE);
 518:fltk-1.3.4-1/jpeg/jdmaster.c **** }
 831              		.loc 1 518 1 view .LVU277
 832 0068 4883C408 		addq	$8, %rsp
 833              		.cfi_remember_state
 834              		.cfi_def_cfa_offset 24
 835 006c 5B       		popq	%rbx
 836              		.cfi_def_cfa_offset 16
 837              	.LVL52:
 838              		.loc 1 518 1 view .LVU278
 839 006d 5D       		popq	%rbp
 840              		.cfi_def_cfa_offset 8
 841              	.LVL53:
 842              		.loc 1 518 1 view .LVU279
 843 006e C3       		ret
 844              	.LVL54:
 845 006f 90       		.p2align 4,,10
 846              		.p2align 3
 847              	.L73:
 848              		.cfi_restore_state
 517:fltk-1.3.4-1/jpeg/jdmaster.c **** }
 849              		.loc 1 517 5 is_stmt 1 view .LVU280
 850 0070 488B4500 		movq	0(%rbp), %rax
 851 0074 4889EF   		movq	%rbp, %rdi
 852 0077 C740282F 		movl	$47, 40(%rax)
 852      000000
 853 007e 488B4500 		movq	0(%rbp), %rax
 854 0082 488B00   		movq	(%rax), %rax
 855              		.loc 1 518 1 is_stmt 0 view .LVU281
 856 0085 4883C408 		addq	$8, %rsp
 857              		.cfi_def_cfa_offset 24
 858 0089 5B       		popq	%rbx
 859              		.cfi_def_cfa_offset 16
 860              	.LVL55:
 861              		.loc 1 518 1 view .LVU282
 862 008a 5D       		popq	%rbp
 863              		.cfi_def_cfa_offset 8
 864              	.LVL56:
 517:fltk-1.3.4-1/jpeg/jdmaster.c **** }
 865              		.loc 1 517 5 view .LVU283
 866 008b FFE0     		jmp	*%rax
 867              	.LVL57:
 517:fltk-1.3.4-1/jpeg/jdmaster.c **** }
 868              		.loc 1 517 5 view .LVU284
 869              		.cfi_endproc
 870              	.LFE57:
 872              		.section	.text.jinit_master_decompress,"ax",@progbits
 873              		.p2align 4
 874              		.globl	jinit_master_decompress
 876              	jinit_master_decompress:
 877              	.LVL58:
 878              	.LFB58:
 519:fltk-1.3.4-1/jpeg/jdmaster.c **** 
 520:fltk-1.3.4-1/jpeg/jdmaster.c **** #endif /* D_MULTISCAN_FILES_SUPPORTED */
 521:fltk-1.3.4-1/jpeg/jdmaster.c **** 
 522:fltk-1.3.4-1/jpeg/jdmaster.c **** 
 523:fltk-1.3.4-1/jpeg/jdmaster.c **** /*
 524:fltk-1.3.4-1/jpeg/jdmaster.c ****  * Initialize master decompression control and select active modules.
 525:fltk-1.3.4-1/jpeg/jdmaster.c ****  * This is performed at the start of jpeg_start_decompress.
 526:fltk-1.3.4-1/jpeg/jdmaster.c ****  */
 527:fltk-1.3.4-1/jpeg/jdmaster.c **** 
 528:fltk-1.3.4-1/jpeg/jdmaster.c **** GLOBAL(void)
 529:fltk-1.3.4-1/jpeg/jdmaster.c **** jinit_master_decompress (j_decompress_ptr cinfo)
 530:fltk-1.3.4-1/jpeg/jdmaster.c **** {
 879              		.loc 1 530 1 is_stmt 1 view -0
 880              		.cfi_startproc
 881              		.loc 1 530 1 is_stmt 0 view .LVU286
 882 0000 F30F1EFA 		endbr64
 531:fltk-1.3.4-1/jpeg/jdmaster.c ****   my_master_ptr master;
 883              		.loc 1 531 3 is_stmt 1 view .LVU287
 532:fltk-1.3.4-1/jpeg/jdmaster.c **** 
 533:fltk-1.3.4-1/jpeg/jdmaster.c ****   master = (my_master_ptr)
 884              		.loc 1 533 3 view .LVU288
 530:fltk-1.3.4-1/jpeg/jdmaster.c ****   my_master_ptr master;
 885              		.loc 1 530 1 is_stmt 0 view .LVU289
 886 0004 55       		pushq	%rbp
 887              		.cfi_def_cfa_offset 16
 888              		.cfi_offset 6, -16
 534:fltk-1.3.4-1/jpeg/jdmaster.c ****       (*cinfo->mem->alloc_small) ((j_common_ptr) cinfo, JPOOL_IMAGE,
 889              		.loc 1 534 8 view .LVU290
 890 0005 BE010000 		movl	$1, %esi
 890      00
 891 000a BA300000 		movl	$48, %edx
 891      00
 530:fltk-1.3.4-1/jpeg/jdmaster.c ****   my_master_ptr master;
 892              		.loc 1 530 1 view .LVU291
 893 000f 53       		pushq	%rbx
 894              		.cfi_def_cfa_offset 24
 895              		.cfi_offset 3, -24
 896 0010 4889FB   		movq	%rdi, %rbx
 897 0013 4883EC08 		subq	$8, %rsp
 898              		.cfi_def_cfa_offset 32
 899              		.loc 1 534 8 view .LVU292
 900 0017 488B4708 		movq	8(%rdi), %rax
 901 001b FF10     		call	*(%rax)
 902              	.LVL59:
 535:fltk-1.3.4-1/jpeg/jdmaster.c **** 				  SIZEOF(my_decomp_master));
 536:fltk-1.3.4-1/jpeg/jdmaster.c ****   cinfo->master = &master->pub;
 903              		.loc 1 536 3 is_stmt 1 view .LVU293
 537:fltk-1.3.4-1/jpeg/jdmaster.c ****   master->pub.prepare_for_output_pass = prepare_for_output_pass;
 904              		.loc 1 537 39 is_stmt 0 view .LVU294
 905 001d 488D3500 		leaq	prepare_for_output_pass(%rip), %rsi
 905      000000
 536:fltk-1.3.4-1/jpeg/jdmaster.c ****   master->pub.prepare_for_output_pass = prepare_for_output_pass;
 906              		.loc 1 536 17 view .LVU295
 907 0024 48898340 		movq	%rax, 576(%rbx)
 907      020000
 908              		.loc 1 537 3 is_stmt 1 view .LVU296
 909              		.loc 1 537 39 is_stmt 0 view .LVU297
 910 002b 488930   		movq	%rsi, (%rax)
 538:fltk-1.3.4-1/jpeg/jdmaster.c ****   master->pub.finish_output_pass = finish_output_pass;
 911              		.loc 1 538 3 is_stmt 1 view .LVU298
 912              		.loc 1 538 34 is_stmt 0 view .LVU299
 913 002e 488D3500 		leaq	finish_output_pass(%rip), %rsi
 913      000000
 914 0035 48897008 		movq	%rsi, 8(%rax)
 539:fltk-1.3.4-1/jpeg/jdmaster.c **** 
 540:fltk-1.3.4-1/jpeg/jdmaster.c ****   master->pub.is_dummy_pass = FALSE;
 915              		.loc 1 540 3 is_stmt 1 view .LVU300
 916              		.loc 1 540 29 is_stmt 0 view .LVU301
 917 0039 C7401000 		movl	$0, 16(%rax)
 917      000000
 541:fltk-1.3.4-1/jpeg/jdmaster.c **** 
 542:fltk-1.3.4-1/jpeg/jdmaster.c ****   master_selection(cinfo);
 918              		.loc 1 542 3 is_stmt 1 view .LVU302
 919              	.LVL60:
 920              	.LBB27:
 921              	.LBI27:
 272:fltk-1.3.4-1/jpeg/jdmaster.c **** {
 922              		.loc 1 272 1 view .LVU303
 923              	.LBB28:
 274:fltk-1.3.4-1/jpeg/jdmaster.c ****   boolean use_c_buffer;
 924              		.loc 1 274 3 view .LVU304
 280:fltk-1.3.4-1/jpeg/jdmaster.c ****     ERREXIT1(cinfo, JERR_BAD_PRECISION, cinfo->data_precision);
 925              		.loc 1 280 6 is_stmt 0 view .LVU305
 926 0040 83BB2801 		cmpl	$8, 296(%rbx)
 926      000008
 274:fltk-1.3.4-1/jpeg/jdmaster.c ****   boolean use_c_buffer;
 927              		.loc 1 274 17 view .LVU306
 928 0047 488BAB40 		movq	576(%rbx), %rbp
 928      020000
 929              	.LVL61:
 275:fltk-1.3.4-1/jpeg/jdmaster.c ****   long samplesperrow;
 930              		.loc 1 275 3 is_stmt 1 view .LVU307
 276:fltk-1.3.4-1/jpeg/jdmaster.c ****   JDIMENSION jd_samplesperrow;
 931              		.loc 1 276 3 view .LVU308
 277:fltk-1.3.4-1/jpeg/jdmaster.c **** 
 932              		.loc 1 277 3 view .LVU309
 280:fltk-1.3.4-1/jpeg/jdmaster.c ****     ERREXIT1(cinfo, JERR_BAD_PRECISION, cinfo->data_precision);
 933              		.loc 1 280 3 view .LVU310
 280:fltk-1.3.4-1/jpeg/jdmaster.c ****     ERREXIT1(cinfo, JERR_BAD_PRECISION, cinfo->data_precision);
 934              		.loc 1 280 6 is_stmt 0 view .LVU311
 935 004e 741E     		je	.L78
 281:fltk-1.3.4-1/jpeg/jdmaster.c **** 
 936              		.loc 1 281 5 is_stmt 1 view .LVU312
 937 0050 488B03   		movq	(%rbx), %rax
 938              	.LVL62:
 281:fltk-1.3.4-1/jpeg/jdmaster.c **** 
 939              		.loc 1 281 5 is_stmt 0 view .LVU313
 940 0053 4889DF   		movq	%rbx, %rdi
 941 0056 C7402810 		movl	$16, 40(%rax)
 941      000000
 942 005d 488B03   		movq	(%rbx), %rax
 943 0060 8B932801 		movl	296(%rbx), %edx
 943      0000
 944 0066 89502C   		movl	%edx, 44(%rax)
 945 0069 488B03   		movq	(%rbx), %rax
 946 006c FF10     		call	*(%rax)
 947              	.LVL63:
 948              	.L78:
 284:fltk-1.3.4-1/jpeg/jdmaster.c ****   prepare_range_limit_table(cinfo);
 949              		.loc 1 284 3 is_stmt 1 view .LVU314
 950 006e 4889DF   		movq	%rbx, %rdi
 951 0071 E8000000 		call	jpeg_calc_output_dimensions
 951      00
 952              	.LVL64:
 285:fltk-1.3.4-1/jpeg/jdmaster.c **** 
 953              		.loc 1 285 3 view .LVU315
 954              	.LBB29:
 955              	.LBI29:
 232:fltk-1.3.4-1/jpeg/jdmaster.c **** /* Allocate and fill in the sample_range_limit table */
 956              		.loc 1 232 1 view .LVU316
 957              	.LBB30:
 235:fltk-1.3.4-1/jpeg/jdmaster.c ****   int i;
 958              		.loc 1 235 3 view .LVU317
 236:fltk-1.3.4-1/jpeg/jdmaster.c **** 
 959              		.loc 1 236 3 view .LVU318
 238:fltk-1.3.4-1/jpeg/jdmaster.c ****     (*cinfo->mem->alloc_small) ((j_common_ptr) cinfo, JPOOL_IMAGE,
 960              		.loc 1 238 3 view .LVU319
 239:fltk-1.3.4-1/jpeg/jdmaster.c **** 		(5 * (MAXJSAMPLE+1) + CENTERJSAMPLE) * SIZEOF(JSAMPLE));
 961              		.loc 1 239 6 is_stmt 0 view .LVU320
 962 0076 488B4308 		movq	8(%rbx), %rax
 963 007a BA800500 		movl	$1408, %edx
 963      00
 964 007f 4889DF   		movq	%rbx, %rdi
 965 0082 BE010000 		movl	$1, %esi
 965      00
 966 0087 FF10     		call	*(%rax)
 967              	.LVL65:
 968 0089 4889C2   		movq	%rax, %rdx
 969              	.LVL66:
 241:fltk-1.3.4-1/jpeg/jdmaster.c ****   cinfo->sample_range_limit = table;
 970              		.loc 1 241 3 is_stmt 1 view .LVU321
 242:fltk-1.3.4-1/jpeg/jdmaster.c ****   /* First segment of "simple" table: limit[x] = 0 for x < 0 */
 971              		.loc 1 242 3 view .LVU322
 241:fltk-1.3.4-1/jpeg/jdmaster.c ****   cinfo->sample_range_limit = table;
 972              		.loc 1 241 9 is_stmt 0 view .LVU323
 973 008c 488D8000 		leaq	256(%rax), %rax
 973      010000
 974              	.LVL67:
 975              	.LBB31:
 976              	.LBB32:
 977              		.file 2 "/usr/include/x86_64-linux-gnu/bits/string_fortified.h"
   1:/usr/include/x86_64-linux-gnu/bits/string_fortified.h **** /* Copyright (C) 2004-2020 Free Software Foundation, Inc.
   2:/usr/include/x86_64-linux-gnu/bits/string_fortified.h ****    This file is part of the GNU C Library.
   3:/usr/include/x86_64-linux-gnu/bits/string_fortified.h **** 
   4:/usr/include/x86_64-linux-gnu/bits/string_fortified.h ****    The GNU C Library is free software; you can redistribute it and/or
   5:/usr/include/x86_64-linux-gnu/bits/string_fortified.h ****    modify it under the terms of the GNU Lesser General Public
   6:/usr/include/x86_64-linux-gnu/bits/string_fortified.h ****    License as published by the Free Software Foundation; either
   7:/usr/include/x86_64-linux-gnu/bits/string_fortified.h ****    version 2.1 of the License, or (at your option) any later version.
   8:/usr/include/x86_64-linux-gnu/bits/string_fortified.h **** 
   9:/usr/include/x86_64-linux-gnu/bits/string_fortified.h ****    The GNU C Library is distributed in the hope that it will be useful,
  10:/usr/include/x86_64-linux-gnu/bits/string_fortified.h ****    but WITHOUT ANY WARRANTY; without even the implied warranty of
  11:/usr/include/x86_64-linux-gnu/bits/string_fortified.h ****    MERCHANTABILITY or FITNESS FOR A PARTICULAR PURPOSE.  See the GNU
  12:/usr/include/x86_64-linux-gnu/bits/string_fortified.h ****    Lesser General Public License for more details.
  13:/usr/include/x86_64-linux-gnu/bits/string_fortified.h **** 
  14:/usr/include/x86_64-linux-gnu/bits/string_fortified.h ****    You should have received a copy of the GNU Lesser General Public
  15:/usr/include/x86_64-linux-gnu/bits/string_fortified.h ****    License along with the GNU C Library; if not, see
  16:/usr/include/x86_64-linux-gnu/bits/string_fortified.h ****    <https://www.gnu.org/licenses/>.  */
  17:/usr/include/x86_64-linux-gnu/bits/string_fortified.h **** 
  18:/usr/include/x86_64-linux-gnu/bits/string_fortified.h **** #ifndef _BITS_STRING_FORTIFIED_H
  19:/usr/include/x86_64-linux-gnu/bits/string_fortified.h **** #define _BITS_STRING_FORTIFIED_H 1
  20:/usr/include/x86_64-linux-gnu/bits/string_fortified.h **** 
  21:/usr/include/x86_64-linux-gnu/bits/string_fortified.h **** #ifndef _STRING_H
  22:/usr/include/x86_64-linux-gnu/bits/string_fortified.h **** # error "Never use <bits/string_fortified.h> directly; include <string.h> instead."
  23:/usr/include/x86_64-linux-gnu/bits/string_fortified.h **** #endif
  24:/usr/include/x86_64-linux-gnu/bits/string_fortified.h **** 
  25:/usr/include/x86_64-linux-gnu/bits/string_fortified.h **** #if !__GNUC_PREREQ (5,0)
  26:/usr/include/x86_64-linux-gnu/bits/string_fortified.h **** __warndecl (__warn_memset_zero_len,
  27:/usr/include/x86_64-linux-gnu/bits/string_fortified.h **** 	    "memset used with constant zero length parameter; this could be due to transposed parameters")
  28:/usr/include/x86_64-linux-gnu/bits/string_fortified.h **** #endif
  29:/usr/include/x86_64-linux-gnu/bits/string_fortified.h **** 
  30:/usr/include/x86_64-linux-gnu/bits/string_fortified.h **** __fortify_function void *
  31:/usr/include/x86_64-linux-gnu/bits/string_fortified.h **** __NTH (memcpy (void *__restrict __dest, const void *__restrict __src,
  32:/usr/include/x86_64-linux-gnu/bits/string_fortified.h **** 	       size_t __len))
  33:/usr/include/x86_64-linux-gnu/bits/string_fortified.h **** {
  34:/usr/include/x86_64-linux-gnu/bits/string_fortified.h ****   return __builtin___memcpy_chk (__dest, __src, __len, __bos0 (__dest));
  35:/usr/include/x86_64-linux-gnu/bits/string_fortified.h **** }
  36:/usr/include/x86_64-linux-gnu/bits/string_fortified.h **** 
  37:/usr/include/x86_64-linux-gnu/bits/string_fortified.h **** __fortify_function void *
  38:/usr/include/x86_64-linux-gnu/bits/string_fortified.h **** __NTH (memmove (void *__dest, const void *__src, size_t __len))
  39:/usr/include/x86_64-linux-gnu/bits/string_fortified.h **** {
  40:/usr/include/x86_64-linux-gnu/bits/string_fortified.h ****   return __builtin___memmove_chk (__dest, __src, __len, __bos0 (__dest));
  41:/usr/include/x86_64-linux-gnu/bits/string_fortified.h **** }
  42:/usr/include/x86_64-linux-gnu/bits/string_fortified.h **** 
  43:/usr/include/x86_64-linux-gnu/bits/string_fortified.h **** #ifdef __USE_GNU
  44:/usr/include/x86_64-linux-gnu/bits/string_fortified.h **** __fortify_function void *
  45:/usr/include/x86_64-linux-gnu/bits/string_fortified.h **** __NTH (mempcpy (void *__restrict __dest, const void *__restrict __src,
  46:/usr/include/x86_64-linux-gnu/bits/string_fortified.h **** 		size_t __len))
  47:/usr/include/x86_64-linux-gnu/bits/string_fortified.h **** {
  48:/usr/include/x86_64-linux-gnu/bits/string_fortified.h ****   return __builtin___mempcpy_chk (__dest, __src, __len, __bos0 (__dest));
  49:/usr/include/x86_64-linux-gnu/bits/string_fortified.h **** }
  50:/usr/include/x86_64-linux-gnu/bits/string_fortified.h **** #endif
  51:/usr/include/x86_64-linux-gnu/bits/string_fortified.h **** 
  52:/usr/include/x86_64-linux-gnu/bits/string_fortified.h **** 
  53:/usr/include/x86_64-linux-gnu/bits/string_fortified.h **** /* The first two tests here help to catch a somewhat common problem
  54:/usr/include/x86_64-linux-gnu/bits/string_fortified.h ****    where the second and third parameter are transposed.  This is
  55:/usr/include/x86_64-linux-gnu/bits/string_fortified.h ****    especially problematic if the intended fill value is zero.  In this
  56:/usr/include/x86_64-linux-gnu/bits/string_fortified.h ****    case no work is done at all.  We detect these problems by referring
  57:/usr/include/x86_64-linux-gnu/bits/string_fortified.h ****    non-existing functions.  */
  58:/usr/include/x86_64-linux-gnu/bits/string_fortified.h **** __fortify_function void *
  59:/usr/include/x86_64-linux-gnu/bits/string_fortified.h **** __NTH (memset (void *__dest, int __ch, size_t __len))
  60:/usr/include/x86_64-linux-gnu/bits/string_fortified.h **** {
  61:/usr/include/x86_64-linux-gnu/bits/string_fortified.h ****   /* GCC-5.0 and newer implements these checks in the compiler, so we don't
  62:/usr/include/x86_64-linux-gnu/bits/string_fortified.h ****      need them here.  */
  63:/usr/include/x86_64-linux-gnu/bits/string_fortified.h **** #if !__GNUC_PREREQ (5,0)
  64:/usr/include/x86_64-linux-gnu/bits/string_fortified.h ****   if (__builtin_constant_p (__len) && __len == 0
  65:/usr/include/x86_64-linux-gnu/bits/string_fortified.h ****       && (!__builtin_constant_p (__ch) || __ch != 0))
  66:/usr/include/x86_64-linux-gnu/bits/string_fortified.h ****     {
  67:/usr/include/x86_64-linux-gnu/bits/string_fortified.h ****       __warn_memset_zero_len ();
  68:/usr/include/x86_64-linux-gnu/bits/string_fortified.h ****       return __dest;
  69:/usr/include/x86_64-linux-gnu/bits/string_fortified.h ****     }
  70:/usr/include/x86_64-linux-gnu/bits/string_fortified.h **** #endif
  71:/usr/include/x86_64-linux-gnu/bits/string_fortified.h ****   return __builtin___memset_chk (__dest, __ch, __len, __bos0 (__dest));
 978              		.loc 2 71 10 view .LVU324
 979 0093 488D7A08 		leaq	8(%rdx), %rdi
 980 0097 4889D1   		movq	%rdx, %rcx
 981              	.LBE32:
 982              	.LBE31:
 241:fltk-1.3.4-1/jpeg/jdmaster.c ****   cinfo->sample_range_limit = table;
 983              		.loc 1 241 9 view .LVU325
 984 009a 488983B8 		movq	%rax, 440(%rbx)
 984      010000
 244:fltk-1.3.4-1/jpeg/jdmaster.c ****   /* Main part of "simple" table: limit[x] = x */
 985              		.loc 1 244 3 is_stmt 1 view .LVU326
 986              	.LVL68:
 987              	.LBB34:
 988              	.LBI31:
  59:/usr/include/x86_64-linux-gnu/bits/string_fortified.h **** {
 989              		.loc 2 59 1 view .LVU327
 990              	.LBB33:
 991              		.loc 2 71 3 view .LVU328
 992              		.loc 2 71 10 is_stmt 0 view .LVU329
 993 00a1 31C0     		xorl	%eax, %eax
 994              	.LVL69:
 995              		.loc 2 71 10 view .LVU330
 996 00a3 4883E7F8 		andq	$-8, %rdi
 997 00a7 48C70200 		movq	$0, (%rdx)
 997      000000
 998              	.LVL70:
 999              		.loc 2 71 10 view .LVU331
 1000 00ae 48C782F8 		movq	$0, 248(%rdx)
 1000      00000000 
 1000      000000
 1001 00b9 4829F9   		subq	%rdi, %rcx
 1002 00bc 81C10001 		addl	$256, %ecx
 1002      0000
 1003 00c2 C1E903   		shrl	$3, %ecx
 1004 00c5 F348AB   		rep stosq
 1005              	.LVL71:
 1006              		.loc 2 71 10 view .LVU332
 1007              	.LBE33:
 1008              	.LBE34:
 246:fltk-1.3.4-1/jpeg/jdmaster.c ****     table[i] = (JSAMPLE) i;
 1009              		.loc 1 246 3 is_stmt 1 view .LVU333
 246:fltk-1.3.4-1/jpeg/jdmaster.c ****     table[i] = (JSAMPLE) i;
 1010              		.loc 1 246 15 view .LVU334
 1011 00c8 0F1F8400 		.p2align 4,,10
 1011      00000000 
 1012              		.p2align 3
 1013              	.L79:
 247:fltk-1.3.4-1/jpeg/jdmaster.c ****   table += CENTERJSAMPLE;	/* Point to where post-IDCT table starts */
 1014              		.loc 1 247 5 view .LVU335
 247:fltk-1.3.4-1/jpeg/jdmaster.c ****   table += CENTERJSAMPLE;	/* Point to where post-IDCT table starts */
 1015              		.loc 1 247 14 is_stmt 0 view .LVU336
 1016 00d0 88840200 		movb	%al, 256(%rdx,%rax)
 1016      010000
 246:fltk-1.3.4-1/jpeg/jdmaster.c ****     table[i] = (JSAMPLE) i;
 1017              		.loc 1 246 32 is_stmt 1 view .LVU337
 1018              	.LVL72:
 246:fltk-1.3.4-1/jpeg/jdmaster.c ****     table[i] = (JSAMPLE) i;
 1019              		.loc 1 246 15 view .LVU338
 1020 00d7 4883C001 		addq	$1, %rax
 1021              	.LVL73:
 246:fltk-1.3.4-1/jpeg/jdmaster.c ****     table[i] = (JSAMPLE) i;
 1022              		.loc 1 246 3 is_stmt 0 view .LVU339
 1023 00db 483D0001 		cmpq	$256, %rax
 1023      0000
 1024 00e1 75ED     		jne	.L79
 248:fltk-1.3.4-1/jpeg/jdmaster.c ****   /* End of simple table, rest of first half of post-IDCT table */
 1025              		.loc 1 248 3 is_stmt 1 view .LVU340
 1026              	.LVL74:
 250:fltk-1.3.4-1/jpeg/jdmaster.c ****     table[i] = MAXJSAMPLE;
 1027              		.loc 1 250 3 view .LVU341
 250:fltk-1.3.4-1/jpeg/jdmaster.c ****     table[i] = MAXJSAMPLE;
 1028              		.loc 1 250 27 view .LVU342
 1029 00e3 488D8200 		leaq	512(%rdx), %rax
 1029      020000
 1030 00ea 488D8A80 		leaq	896(%rdx), %rcx
 1030      030000
 1031              	.LVL75:
 1032              		.p2align 4,,10
 1033 00f1 0F1F8000 		.p2align 3
 1033      000000
 1034              	.L80:
 251:fltk-1.3.4-1/jpeg/jdmaster.c ****   /* Second half of post-IDCT table */
 1035              		.loc 1 251 5 view .LVU343
 251:fltk-1.3.4-1/jpeg/jdmaster.c ****   /* Second half of post-IDCT table */
 1036              		.loc 1 251 14 is_stmt 0 view .LVU344
 1037 00f8 C600FF   		movb	$-1, (%rax)
 250:fltk-1.3.4-1/jpeg/jdmaster.c ****     table[i] = MAXJSAMPLE;
 1038              		.loc 1 250 49 is_stmt 1 view .LVU345
 1039              	.LVL76:
 250:fltk-1.3.4-1/jpeg/jdmaster.c ****     table[i] = MAXJSAMPLE;
 1040              		.loc 1 250 27 view .LVU346
 1041 00fb 4883C001 		addq	$1, %rax
 1042              	.LVL77:
 250:fltk-1.3.4-1/jpeg/jdmaster.c ****     table[i] = MAXJSAMPLE;
 1043              		.loc 1 250 3 is_stmt 0 view .LVU347
 1044 00ff 4839C1   		cmpq	%rax, %rcx
 1045 0102 75F4     		jne	.L80
 253:fltk-1.3.4-1/jpeg/jdmaster.c **** 	  (2 * (MAXJSAMPLE+1) - CENTERJSAMPLE) * SIZEOF(JSAMPLE));
 1046              		.loc 1 253 3 is_stmt 1 view .LVU348
 1047              	.LVL78:
 1048              	.LBB35:
 1049              	.LBI35:
  59:/usr/include/x86_64-linux-gnu/bits/string_fortified.h **** {
 1050              		.loc 2 59 1 view .LVU349
 1051              	.LBB36:
 1052              		.loc 2 71 3 view .LVU350
 1053              		.loc 2 71 10 is_stmt 0 view .LVU351
 1054 0104 488DBA88 		leaq	904(%rdx), %rdi
 1054      030000
 1055 010b 31C0     		xorl	%eax, %eax
 1056 010d 48C78280 		movq	$0, 896(%rdx)
 1056      03000000 
 1056      000000
 1057 0118 48C782F8 		movq	$0, 1272(%rdx)
 1057      04000000 
 1057      000000
 1058 0123 4883E7F8 		andq	$-8, %rdi
 1059 0127 4829F9   		subq	%rdi, %rcx
 1060 012a 81C18001 		addl	$384, %ecx
 1060      0000
 1061 0130 C1E903   		shrl	$3, %ecx
 1062 0133 F348AB   		rep stosq
 1063              	.LVL79:
 1064              		.loc 2 71 10 view .LVU352
 1065              	.LBE36:
 1066              	.LBE35:
 255:fltk-1.3.4-1/jpeg/jdmaster.c **** 	  cinfo->sample_range_limit, CENTERJSAMPLE * SIZEOF(JSAMPLE));
 1067              		.loc 1 255 3 is_stmt 1 view .LVU353
 1068              	.LBB37:
 1069              	.LBI37:
  31:/usr/include/x86_64-linux-gnu/bits/string_fortified.h **** 	       size_t __len))
 1070              		.loc 2 31 1 view .LVU354
 1071              	.LBB38:
  34:/usr/include/x86_64-linux-gnu/bits/string_fortified.h **** }
 1072              		.loc 2 34 3 view .LVU355
  34:/usr/include/x86_64-linux-gnu/bits/string_fortified.h **** }
 1073              		.loc 2 34 3 is_stmt 0 view .LVU356
 1074              	.LBE38:
 1075              	.LBE37:
 1076              	.LBE30:
 1077              	.LBE29:
 288:fltk-1.3.4-1/jpeg/jdmaster.c ****       cinfo->out_color_components <= 0)
 1078              		.loc 1 288 3 is_stmt 1 view .LVU357
 1079              	.LBB42:
 1080              	.LBB41:
 1081              	.LBB40:
 1082              	.LBB39:
  34:/usr/include/x86_64-linux-gnu/bits/string_fortified.h **** }
 1083              		.loc 2 34 10 is_stmt 0 view .LVU358
 1084 0136 488B83B8 		movq	440(%rbx), %rax
 1084      010000
 1085 013d F30F6F00 		movdqu	(%rax), %xmm0
 1086 0141 0F118200 		movups	%xmm0, 1280(%rdx)
 1086      050000
 1087 0148 F30F6F48 		movdqu	16(%rax), %xmm1
 1087      10
 1088 014d 0F118A10 		movups	%xmm1, 1296(%rdx)
 1088      050000
 1089 0154 F30F6F50 		movdqu	32(%rax), %xmm2
 1089      20
 1090 0159 0F119220 		movups	%xmm2, 1312(%rdx)
 1090      050000
 1091 0160 F30F6F58 		movdqu	48(%rax), %xmm3
 1091      30
 1092 0165 0F119A30 		movups	%xmm3, 1328(%rdx)
 1092      050000
 1093 016c F30F6F60 		movdqu	64(%rax), %xmm4
 1093      40
 1094 0171 0F11A240 		movups	%xmm4, 1344(%rdx)
 1094      050000
 1095 0178 F30F6F68 		movdqu	80(%rax), %xmm5
 1095      50
 1096 017d 0F11AA50 		movups	%xmm5, 1360(%rdx)
 1096      050000
 1097 0184 F30F6F70 		movdqu	96(%rax), %xmm6
 1097      60
 1098 0189 0F11B260 		movups	%xmm6, 1376(%rdx)
 1098      050000
 1099 0190 F30F6F78 		movdqu	112(%rax), %xmm7
 1099      70
 1100 0195 0F11BA70 		movups	%xmm7, 1392(%rdx)
 1100      050000
 1101              	.LBE39:
 1102              	.LBE40:
 1103              	.LBE41:
 1104              	.LBE42:
 288:fltk-1.3.4-1/jpeg/jdmaster.c ****       cinfo->out_color_components <= 0)
 1105              		.loc 1 288 6 view .LVU359
 1106 019c 8BB38C00 		movl	140(%rbx), %esi
 1106      0000
 1107 01a2 85F6     		testl	%esi, %esi
 1108 01a4 740E     		je	.L81
 288:fltk-1.3.4-1/jpeg/jdmaster.c ****       cinfo->out_color_components <= 0)
 1109              		.loc 1 288 41 view .LVU360
 1110 01a6 8B838800 		movl	136(%rbx), %eax
 1110      0000
 288:fltk-1.3.4-1/jpeg/jdmaster.c ****       cinfo->out_color_components <= 0)
 1111              		.loc 1 288 33 view .LVU361
 1112 01ac 85C0     		testl	%eax, %eax
 1113 01ae 0F855C02 		jne	.L116
 1113      0000
 1114              	.L81:
 290:fltk-1.3.4-1/jpeg/jdmaster.c **** 
 1115              		.loc 1 290 5 is_stmt 1 view .LVU362
 1116 01b4 488B03   		movq	(%rbx), %rax
 1117 01b7 4889DF   		movq	%rbx, %rdi
 1118 01ba C7402821 		movl	$33, 40(%rax)
 1118      000000
 1119 01c1 488B03   		movq	(%rbx), %rax
 1120 01c4 FF10     		call	*(%rax)
 1121              	.LVL80:
 1122 01c6 8B838800 		movl	136(%rbx), %eax
 1122      0000
 1123 01cc 48639390 		movslq	144(%rbx), %rdx
 1123      000000
 1124              	.L82:
 293:fltk-1.3.4-1/jpeg/jdmaster.c ****   jd_samplesperrow = (JDIMENSION) samplesperrow;
 1125              		.loc 1 293 3 view .LVU363
 293:fltk-1.3.4-1/jpeg/jdmaster.c ****   jd_samplesperrow = (JDIMENSION) samplesperrow;
 1126              		.loc 1 293 17 is_stmt 0 view .LVU364
 1127 01d3 480FAFC2 		imulq	%rdx, %rax
 1128              	.LVL81:
 294:fltk-1.3.4-1/jpeg/jdmaster.c ****   if ((long) jd_samplesperrow != samplesperrow)
 1129              		.loc 1 294 3 is_stmt 1 view .LVU365
 295:fltk-1.3.4-1/jpeg/jdmaster.c ****     ERREXIT(cinfo, JERR_WIDTH_OVERFLOW);
 1130              		.loc 1 295 3 view .LVU366
 295:fltk-1.3.4-1/jpeg/jdmaster.c ****     ERREXIT(cinfo, JERR_WIDTH_OVERFLOW);
 1131              		.loc 1 295 6 is_stmt 0 view .LVU367
 1132 01d7 89C2     		movl	%eax, %edx
 1133 01d9 4839D0   		cmpq	%rdx, %rax
 1134 01dc 7412     		je	.L83
 296:fltk-1.3.4-1/jpeg/jdmaster.c **** 
 1135              		.loc 1 296 5 is_stmt 1 view .LVU368
 1136 01de 488B03   		movq	(%rbx), %rax
 1137              	.LVL82:
 296:fltk-1.3.4-1/jpeg/jdmaster.c **** 
 1138              		.loc 1 296 5 is_stmt 0 view .LVU369
 1139 01e1 4889DF   		movq	%rbx, %rdi
 1140 01e4 C7402848 		movl	$72, 40(%rax)
 1140      000000
 1141 01eb 488B03   		movq	(%rbx), %rax
 1142 01ee FF10     		call	*(%rax)
 1143              	.LVL83:
 1144              	.L83:
 299:fltk-1.3.4-1/jpeg/jdmaster.c ****   master->using_merged_upsample = use_merged_upsample(cinfo);
 1145              		.loc 1 299 3 is_stmt 1 view .LVU370
 299:fltk-1.3.4-1/jpeg/jdmaster.c ****   master->using_merged_upsample = use_merged_upsample(cinfo);
 1146              		.loc 1 299 23 is_stmt 0 view .LVU371
 1147 01f0 C7451800 		movl	$0, 24(%rbp)
 1147      000000
 300:fltk-1.3.4-1/jpeg/jdmaster.c **** 
 1148              		.loc 1 300 3 is_stmt 1 view .LVU372
 300:fltk-1.3.4-1/jpeg/jdmaster.c **** 
 1149              		.loc 1 300 35 is_stmt 0 view .LVU373
 1150 01f7 4889DF   		movq	%rbx, %rdi
 1151 01fa E8000000 		call	use_merged_upsample
 1151      00
 1152              	.LVL84:
 303:fltk-1.3.4-1/jpeg/jdmaster.c ****   master->quantizer_2pass = NULL;
 1153              		.loc 1 303 27 view .LVU374
 1154 01ff 48C74520 		movq	$0, 32(%rbp)
 1154      00000000 
 300:fltk-1.3.4-1/jpeg/jdmaster.c **** 
 1155              		.loc 1 300 33 view .LVU375
 1156 0207 89451C   		movl	%eax, 28(%rbp)
 303:fltk-1.3.4-1/jpeg/jdmaster.c ****   master->quantizer_2pass = NULL;
 1157              		.loc 1 303 3 is_stmt 1 view .LVU376
 304:fltk-1.3.4-1/jpeg/jdmaster.c ****   /* No mode changes if not using buffered-image mode. */
 1158              		.loc 1 304 3 view .LVU377
 304:fltk-1.3.4-1/jpeg/jdmaster.c ****   /* No mode changes if not using buffered-image mode. */
 1159              		.loc 1 304 27 is_stmt 0 view .LVU378
 1160 020a 48C74528 		movq	$0, 40(%rbp)
 1160      00000000 
 306:fltk-1.3.4-1/jpeg/jdmaster.c ****     cinfo->enable_1pass_quant = FALSE;
 1161              		.loc 1 306 3 is_stmt 1 view .LVU379
 306:fltk-1.3.4-1/jpeg/jdmaster.c ****     cinfo->enable_1pass_quant = FALSE;
 1162              		.loc 1 306 6 is_stmt 0 view .LVU380
 1163 0212 8B4B6C   		movl	108(%rbx), %ecx
 1164 0215 85C9     		testl	%ecx, %ecx
 1165 0217 0F849301 		je	.L84
 1165      0000
 306:fltk-1.3.4-1/jpeg/jdmaster.c ****     cinfo->enable_1pass_quant = FALSE;
 1166              		.loc 1 306 32 view .LVU381
 1167 021d 8B5358   		movl	88(%rbx), %edx
 1168 0220 85D2     		testl	%edx, %edx
 1169 0222 7512     		jne	.L104
 307:fltk-1.3.4-1/jpeg/jdmaster.c ****     cinfo->enable_external_quant = FALSE;
 1170              		.loc 1 307 5 is_stmt 1 view .LVU382
 308:fltk-1.3.4-1/jpeg/jdmaster.c ****     cinfo->enable_2pass_quant = FALSE;
 1171              		.loc 1 308 5 view .LVU383
 309:fltk-1.3.4-1/jpeg/jdmaster.c ****   }
 1172              		.loc 1 309 5 view .LVU384
 307:fltk-1.3.4-1/jpeg/jdmaster.c ****     cinfo->enable_external_quant = FALSE;
 1173              		.loc 1 307 31 is_stmt 0 view .LVU385
 1174 0224 C7437C00 		movl	$0, 124(%rbx)
 1174      000000
 308:fltk-1.3.4-1/jpeg/jdmaster.c ****     cinfo->enable_2pass_quant = FALSE;
 1175              		.loc 1 308 34 view .LVU386
 1176 022b 48C78380 		movq	$0, 128(%rbx)
 1176      00000000 
 1176      000000
 311:fltk-1.3.4-1/jpeg/jdmaster.c ****     if (cinfo->raw_data_out)
 1177              		.loc 1 311 3 is_stmt 1 view .LVU387
 1178              	.L104:
 312:fltk-1.3.4-1/jpeg/jdmaster.c ****       ERREXIT(cinfo, JERR_NOTIMPL);
 1179              		.loc 1 312 5 view .LVU388
 312:fltk-1.3.4-1/jpeg/jdmaster.c ****       ERREXIT(cinfo, JERR_NOTIMPL);
 1180              		.loc 1 312 8 is_stmt 0 view .LVU389
 1181 0236 8B435C   		movl	92(%rbx), %eax
 1182 0239 85C0     		testl	%eax, %eax
 1183 023b 7412     		je	.L86
 313:fltk-1.3.4-1/jpeg/jdmaster.c ****     /* 2-pass quantizer only works in 3-component color space. */
 1184              		.loc 1 313 7 is_stmt 1 view .LVU390
 1185 023d 488B03   		movq	(%rbx), %rax
 1186 0240 4889DF   		movq	%rbx, %rdi
 1187 0243 C7402830 		movl	$48, 40(%rax)
 1187      000000
 1188 024a 488B03   		movq	(%rbx), %rax
 1189 024d FF10     		call	*(%rax)
 1190              	.LVL85:
 1191              	.L86:
 315:fltk-1.3.4-1/jpeg/jdmaster.c ****       cinfo->enable_1pass_quant = TRUE;
 1192              		.loc 1 315 5 view .LVU391
 315:fltk-1.3.4-1/jpeg/jdmaster.c ****       cinfo->enable_1pass_quant = TRUE;
 1193              		.loc 1 315 8 is_stmt 0 view .LVU392
 1194 024f 83BB9000 		cmpl	$3, 144(%rbx)
 1194      000003
 1195 0256 0F84E401 		je	.L87
 1195      0000
 316:fltk-1.3.4-1/jpeg/jdmaster.c ****       cinfo->enable_external_quant = FALSE;
 1196              		.loc 1 316 7 is_stmt 1 view .LVU393
 317:fltk-1.3.4-1/jpeg/jdmaster.c ****       cinfo->enable_2pass_quant = FALSE;
 1197              		.loc 1 317 7 view .LVU394
 318:fltk-1.3.4-1/jpeg/jdmaster.c ****       cinfo->colormap = NULL;
 1198              		.loc 1 318 7 view .LVU395
 316:fltk-1.3.4-1/jpeg/jdmaster.c ****       cinfo->enable_external_quant = FALSE;
 1199              		.loc 1 316 33 is_stmt 0 view .LVU396
 1200 025c C7437C01 		movl	$1, 124(%rbx)
 1200      000000
 317:fltk-1.3.4-1/jpeg/jdmaster.c ****       cinfo->enable_2pass_quant = FALSE;
 1201              		.loc 1 317 36 view .LVU397
 1202 0263 48C78380 		movq	$0, 128(%rbx)
 1202      00000000 
 1202      000000
 319:fltk-1.3.4-1/jpeg/jdmaster.c ****     } else if (cinfo->colormap != NULL) {
 1203              		.loc 1 319 7 is_stmt 1 view .LVU398
 319:fltk-1.3.4-1/jpeg/jdmaster.c ****     } else if (cinfo->colormap != NULL) {
 1204              		.loc 1 319 23 is_stmt 0 view .LVU399
 1205 026e 48C783A0 		movq	$0, 160(%rbx)
 1205      00000000 
 1205      000000
 1206              	.L88:
 328:fltk-1.3.4-1/jpeg/jdmaster.c **** #ifdef QUANT_1PASS_SUPPORTED
 1207              		.loc 1 328 5 is_stmt 1 view .LVU400
 330:fltk-1.3.4-1/jpeg/jdmaster.c ****       master->quantizer_1pass = cinfo->cquantize;
 1208              		.loc 1 330 7 view .LVU401
 1209 0279 4889DF   		movq	%rbx, %rdi
 1210 027c E8000000 		call	jinit_1pass_quantizer@PLT
 1210      00
 1211              	.LVL86:
 331:fltk-1.3.4-1/jpeg/jdmaster.c **** #else
 1212              		.loc 1 331 7 view .LVU402
 331:fltk-1.3.4-1/jpeg/jdmaster.c **** #else
 1213              		.loc 1 331 38 is_stmt 0 view .LVU403
 1214 0281 488B8390 		movq	656(%rbx), %rax
 1214      020000
 331:fltk-1.3.4-1/jpeg/jdmaster.c **** #else
 1215              		.loc 1 331 31 view .LVU404
 1216 0288 48894520 		movq	%rax, 32(%rbp)
 338:fltk-1.3.4-1/jpeg/jdmaster.c **** #ifdef QUANT_2PASS_SUPPORTED
 1217              		.loc 1 338 5 is_stmt 1 view .LVU405
 338:fltk-1.3.4-1/jpeg/jdmaster.c **** #ifdef QUANT_2PASS_SUPPORTED
 1218              		.loc 1 338 8 is_stmt 0 view .LVU406
 1219 028c 4883BB80 		cmpq	$0, 128(%rbx)
 1219      00000000 
 1220 0294 0F842801 		je	.L92
 1220      0000
 1221              	.L120:
 340:fltk-1.3.4-1/jpeg/jdmaster.c ****       master->quantizer_2pass = cinfo->cquantize;
 1222              		.loc 1 340 7 is_stmt 1 view .LVU407
 1223 029a 4889DF   		movq	%rbx, %rdi
 1224 029d E8000000 		call	jinit_2pass_quantizer@PLT
 1224      00
 1225              	.LVL87:
 341:fltk-1.3.4-1/jpeg/jdmaster.c **** #else
 1226              		.loc 1 341 7 view .LVU408
 341:fltk-1.3.4-1/jpeg/jdmaster.c **** #else
 1227              		.loc 1 341 38 is_stmt 0 view .LVU409
 1228 02a2 488B8390 		movq	656(%rbx), %rax
 1228      020000
 341:fltk-1.3.4-1/jpeg/jdmaster.c **** #else
 1229              		.loc 1 341 31 view .LVU410
 1230 02a9 48894528 		movq	%rax, 40(%rbp)
 352:fltk-1.3.4-1/jpeg/jdmaster.c ****     if (master->using_merged_upsample) {
 1231              		.loc 1 352 3 is_stmt 1 view .LVU411
 352:fltk-1.3.4-1/jpeg/jdmaster.c ****     if (master->using_merged_upsample) {
 1232              		.loc 1 352 6 is_stmt 0 view .LVU412
 1233 02ad 8B435C   		movl	92(%rbx), %eax
 1234 02b0 85C0     		testl	%eax, %eax
 1235 02b2 0F841501 		je	.L117
 1235      0000
 1236 02b8 0F1F8400 		.p2align 4,,10
 1236      00000000 
 1237              		.p2align 3
 1238              	.L93:
 366:fltk-1.3.4-1/jpeg/jdmaster.c ****   /* Entropy decoding: either Huffman or arithmetic coding. */
 1239              		.loc 1 366 3 is_stmt 1 view .LVU413
 1240 02c0 4889DF   		movq	%rbx, %rdi
 1241 02c3 E8000000 		call	jinit_inverse_dct@PLT
 1241      00
 1242              	.LVL88:
 368:fltk-1.3.4-1/jpeg/jdmaster.c ****     jinit_arith_decoder(cinfo);
 1243              		.loc 1 368 3 view .LVU414
 368:fltk-1.3.4-1/jpeg/jdmaster.c ****     jinit_arith_decoder(cinfo);
 1244              		.loc 1 368 6 is_stmt 0 view .LVU415
 1245 02c8 448B9B40 		movl	320(%rbx), %r11d
 1245      010000
 369:fltk-1.3.4-1/jpeg/jdmaster.c ****   else {
 1246              		.loc 1 369 5 view .LVU416
 1247 02cf 4889DF   		movq	%rbx, %rdi
 368:fltk-1.3.4-1/jpeg/jdmaster.c ****     jinit_arith_decoder(cinfo);
 1248              		.loc 1 368 6 view .LVU417
 1249 02d2 4585DB   		testl	%r11d, %r11d
 1250 02d5 0F842501 		je	.L96
 1250      0000
 369:fltk-1.3.4-1/jpeg/jdmaster.c ****   else {
 1251              		.loc 1 369 5 is_stmt 1 view .LVU418
 1252 02db E8000000 		call	jinit_arith_decoder@PLT
 1252      00
 1253              	.LVL89:
 1254              	.L97:
 375:fltk-1.3.4-1/jpeg/jdmaster.c ****   jinit_d_coef_controller(cinfo, use_c_buffer);
 1255              		.loc 1 375 3 view .LVU419
 375:fltk-1.3.4-1/jpeg/jdmaster.c ****   jinit_d_coef_controller(cinfo, use_c_buffer);
 1256              		.loc 1 375 33 is_stmt 0 view .LVU420
 1257 02e0 488B8360 		movq	608(%rbx), %rax
 1257      020000
 1258 02e7 BE010000 		movl	$1, %esi
 1258      00
 375:fltk-1.3.4-1/jpeg/jdmaster.c ****   jinit_d_coef_controller(cinfo, use_c_buffer);
 1259              		.loc 1 375 54 view .LVU421
 1260 02ec 448B5020 		movl	32(%rax), %r10d
 1261 02f0 4585D2   		testl	%r10d, %r10d
 1262 02f3 750D     		jne	.L98
 1263 02f5 448B4B58 		movl	88(%rbx), %r9d
 1264 02f9 31F6     		xorl	%esi, %esi
 1265 02fb 4585C9   		testl	%r9d, %r9d
 1266 02fe 400F95C6 		setne	%sil
 1267              	.L98:
 376:fltk-1.3.4-1/jpeg/jdmaster.c **** 
 1268              		.loc 1 376 3 is_stmt 1 view .LVU422
 1269 0302 4889DF   		movq	%rbx, %rdi
 1270 0305 E8000000 		call	jinit_d_coef_controller@PLT
 1270      00
 1271              	.LVL90:
 378:fltk-1.3.4-1/jpeg/jdmaster.c ****     jinit_d_main_controller(cinfo, FALSE /* never need full buffer here */);
 1272              		.loc 1 378 3 view .LVU423
 378:fltk-1.3.4-1/jpeg/jdmaster.c ****     jinit_d_main_controller(cinfo, FALSE /* never need full buffer here */);
 1273              		.loc 1 378 6 is_stmt 0 view .LVU424
 1274 030a 448B435C 		movl	92(%rbx), %r8d
 1275 030e 4585C0   		testl	%r8d, %r8d
 1276 0311 0F841901 		je	.L118
 1276      0000
 1277              	.L99:
 382:fltk-1.3.4-1/jpeg/jdmaster.c **** 
 1278              		.loc 1 382 3 is_stmt 1 view .LVU425
 382:fltk-1.3.4-1/jpeg/jdmaster.c **** 
 1279              		.loc 1 382 4 is_stmt 0 view .LVU426
 1280 0317 488B4308 		movq	8(%rbx), %rax
 1281 031b 4889DF   		movq	%rbx, %rdi
 1282 031e FF5030   		call	*48(%rax)
 1283              	.LVL91:
 385:fltk-1.3.4-1/jpeg/jdmaster.c **** 
 1284              		.loc 1 385 3 is_stmt 1 view .LVU427
 385:fltk-1.3.4-1/jpeg/jdmaster.c **** 
 1285              		.loc 1 385 4 is_stmt 0 view .LVU428
 1286 0321 488B8360 		movq	608(%rbx), %rax
 1286      020000
 1287 0328 4889DF   		movq	%rbx, %rdi
 1288 032b FF5010   		call	*16(%rax)
 1289              	.LVL92:
 392:fltk-1.3.4-1/jpeg/jdmaster.c ****       cinfo->inputctl->has_multiple_scans) {
 1290              		.loc 1 392 3 is_stmt 1 view .LVU429
 392:fltk-1.3.4-1/jpeg/jdmaster.c ****       cinfo->inputctl->has_multiple_scans) {
 1291              		.loc 1 392 12 is_stmt 0 view .LVU430
 1292 032e 488B4310 		movq	16(%rbx), %rax
 392:fltk-1.3.4-1/jpeg/jdmaster.c ****       cinfo->inputctl->has_multiple_scans) {
 1293              		.loc 1 392 6 view .LVU431
 1294 0332 4885C0   		testq	%rax, %rax
 1295 0335 7469     		je	.L77
 392:fltk-1.3.4-1/jpeg/jdmaster.c ****       cinfo->inputctl->has_multiple_scans) {
 1296              		.loc 1 392 31 view .LVU432
 1297 0337 8B7B58   		movl	88(%rbx), %edi
 1298 033a 85FF     		testl	%edi, %edi
 1299 033c 7562     		jne	.L77
 393:fltk-1.3.4-1/jpeg/jdmaster.c ****     int nscans;
 1300              		.loc 1 393 22 view .LVU433
 1301 033e 488B9360 		movq	608(%rbx), %rdx
 1301      020000
 392:fltk-1.3.4-1/jpeg/jdmaster.c ****       cinfo->inputctl->has_multiple_scans) {
 1302              		.loc 1 392 58 view .LVU434
 1303 0345 8B7220   		movl	32(%rdx), %esi
 1304 0348 85F6     		testl	%esi, %esi
 1305 034a 7454     		je	.L77
 1306              	.LBB43:
 394:fltk-1.3.4-1/jpeg/jdmaster.c ****     /* Estimate number of scans to set pass_limit. */
 1307              		.loc 1 394 5 is_stmt 1 view .LVU435
 396:fltk-1.3.4-1/jpeg/jdmaster.c ****       /* Arbitrarily estimate 2 interleaved DC scans + 3 AC scans/component. */
 1308              		.loc 1 396 5 view .LVU436
 396:fltk-1.3.4-1/jpeg/jdmaster.c ****       /* Arbitrarily estimate 2 interleaved DC scans + 3 AC scans/component. */
 1309              		.loc 1 396 8 is_stmt 0 view .LVU437
 1310 034c 8B8B3C01 		movl	316(%rbx), %ecx
 1310      0000
 1311 0352 8B5338   		movl	56(%rbx), %edx
 1312 0355 85C9     		testl	%ecx, %ecx
 1313 0357 7404     		je	.L101
 398:fltk-1.3.4-1/jpeg/jdmaster.c ****     } else {
 1314              		.loc 1 398 7 is_stmt 1 view .LVU438
 398:fltk-1.3.4-1/jpeg/jdmaster.c ****     } else {
 1315              		.loc 1 398 14 is_stmt 0 view .LVU439
 1316 0359 8D545202 		leal	2(%rdx,%rdx,2), %edx
 1317              	.LVL93:
 1318              	.L101:
 403:fltk-1.3.4-1/jpeg/jdmaster.c ****     cinfo->progress->pass_limit = (long) cinfo->total_iMCU_rows * nscans;
 1319              		.loc 1 403 5 is_stmt 1 view .LVU440
 403:fltk-1.3.4-1/jpeg/jdmaster.c ****     cinfo->progress->pass_limit = (long) cinfo->total_iMCU_rows * nscans;
 1320              		.loc 1 403 35 is_stmt 0 view .LVU441
 1321 035d 48C74008 		movq	$0, 8(%rax)
 1321      00000000 
 404:fltk-1.3.4-1/jpeg/jdmaster.c ****     cinfo->progress->completed_passes = 0;
 1322              		.loc 1 404 5 is_stmt 1 view .LVU442
 404:fltk-1.3.4-1/jpeg/jdmaster.c ****     cinfo->progress->completed_passes = 0;
 1323              		.loc 1 404 65 is_stmt 0 view .LVU443
 1324 0365 4863D2   		movslq	%edx, %rdx
 404:fltk-1.3.4-1/jpeg/jdmaster.c ****     cinfo->progress->completed_passes = 0;
 1325              		.loc 1 404 10 view .LVU444
 1326 0368 488B4B10 		movq	16(%rbx), %rcx
 404:fltk-1.3.4-1/jpeg/jdmaster.c ****     cinfo->progress->completed_passes = 0;
 1327              		.loc 1 404 35 view .LVU445
 1328 036c 8B83B001 		movl	432(%rbx), %eax
 1328      0000
 404:fltk-1.3.4-1/jpeg/jdmaster.c ****     cinfo->progress->completed_passes = 0;
 1329              		.loc 1 404 65 view .LVU446
 1330 0372 480FAFD0 		imulq	%rax, %rdx
 1331              	.LVL94:
 404:fltk-1.3.4-1/jpeg/jdmaster.c ****     cinfo->progress->completed_passes = 0;
 1332              		.loc 1 404 33 view .LVU447
 1333 0376 48895110 		movq	%rdx, 16(%rcx)
 405:fltk-1.3.4-1/jpeg/jdmaster.c ****     cinfo->progress->total_passes = (cinfo->enable_2pass_quant ? 3 : 2);
 1334              		.loc 1 405 5 is_stmt 1 view .LVU448
 405:fltk-1.3.4-1/jpeg/jdmaster.c ****     cinfo->progress->total_passes = (cinfo->enable_2pass_quant ? 3 : 2);
 1335              		.loc 1 405 10 is_stmt 0 view .LVU449
 1336 037a 488B4310 		movq	16(%rbx), %rax
 405:fltk-1.3.4-1/jpeg/jdmaster.c ****     cinfo->progress->total_passes = (cinfo->enable_2pass_quant ? 3 : 2);
 1337              		.loc 1 405 39 view .LVU450
 1338 037e C7401800 		movl	$0, 24(%rax)
 1338      000000
 406:fltk-1.3.4-1/jpeg/jdmaster.c ****     /* Count the input pass as done */
 1339              		.loc 1 406 5 is_stmt 1 view .LVU451
 406:fltk-1.3.4-1/jpeg/jdmaster.c ****     /* Count the input pass as done */
 1340              		.loc 1 406 68 is_stmt 0 view .LVU452
 1341 0385 8B938400 		movl	132(%rbx), %edx
 1341      0000
 1342 038b 31C0     		xorl	%eax, %eax
 1343 038d 85D2     		testl	%edx, %edx
 406:fltk-1.3.4-1/jpeg/jdmaster.c ****     /* Count the input pass as done */
 1344              		.loc 1 406 10 view .LVU453
 1345 038f 488B5310 		movq	16(%rbx), %rdx
 406:fltk-1.3.4-1/jpeg/jdmaster.c ****     /* Count the input pass as done */
 1346              		.loc 1 406 68 view .LVU454
 1347 0393 0F95C0   		setne	%al
 1348 0396 83C002   		addl	$2, %eax
 406:fltk-1.3.4-1/jpeg/jdmaster.c ****     /* Count the input pass as done */
 1349              		.loc 1 406 35 view .LVU455
 1350 0399 89421C   		movl	%eax, 28(%rdx)
 408:fltk-1.3.4-1/jpeg/jdmaster.c ****   }
 1351              		.loc 1 408 5 is_stmt 1 view .LVU456
 408:fltk-1.3.4-1/jpeg/jdmaster.c ****   }
 1352              		.loc 1 408 24 is_stmt 0 view .LVU457
 1353 039c 83451801 		addl	$1, 24(%rbp)
 1354              	.LVL95:
 1355              	.L77:
 408:fltk-1.3.4-1/jpeg/jdmaster.c ****   }
 1356              		.loc 1 408 24 view .LVU458
 1357              	.LBE43:
 1358              	.LBE28:
 1359              	.LBE27:
 543:fltk-1.3.4-1/jpeg/jdmaster.c **** }
 1360              		.loc 1 543 1 view .LVU459
 1361 03a0 4883C408 		addq	$8, %rsp
 1362              		.cfi_remember_state
 1363              		.cfi_def_cfa_offset 24
 1364 03a4 5B       		popq	%rbx
 1365              		.cfi_def_cfa_offset 16
 1366              	.LVL96:
 1367              		.loc 1 543 1 view .LVU460
 1368 03a5 5D       		popq	%rbp
 1369              		.cfi_def_cfa_offset 8
 1370 03a6 C3       		ret
 1371              	.LVL97:
 1372 03a7 660F1F84 		.p2align 4,,10
 1372      00000000 
 1372      00
 1373              		.p2align 3
 1374              	.L84:
 1375              		.cfi_restore_state
 1376              	.LBB45:
 1377              	.LBB44:
 307:fltk-1.3.4-1/jpeg/jdmaster.c ****     cinfo->enable_external_quant = FALSE;
 1378              		.loc 1 307 5 is_stmt 1 view .LVU461
 308:fltk-1.3.4-1/jpeg/jdmaster.c ****     cinfo->enable_2pass_quant = FALSE;
 1379              		.loc 1 308 5 view .LVU462
 309:fltk-1.3.4-1/jpeg/jdmaster.c ****   }
 1380              		.loc 1 309 5 view .LVU463
 307:fltk-1.3.4-1/jpeg/jdmaster.c ****     cinfo->enable_external_quant = FALSE;
 1381              		.loc 1 307 31 is_stmt 0 view .LVU464
 1382 03b0 C7437C00 		movl	$0, 124(%rbx)
 1382      000000
 308:fltk-1.3.4-1/jpeg/jdmaster.c ****     cinfo->enable_2pass_quant = FALSE;
 1383              		.loc 1 308 34 view .LVU465
 1384 03b7 48C78380 		movq	$0, 128(%rbx)
 1384      00000000 
 1384      000000
 311:fltk-1.3.4-1/jpeg/jdmaster.c ****     if (cinfo->raw_data_out)
 1385              		.loc 1 311 3 is_stmt 1 view .LVU466
 1386              	.L92:
 352:fltk-1.3.4-1/jpeg/jdmaster.c ****     if (master->using_merged_upsample) {
 1387              		.loc 1 352 3 view .LVU467
 352:fltk-1.3.4-1/jpeg/jdmaster.c ****     if (master->using_merged_upsample) {
 1388              		.loc 1 352 6 is_stmt 0 view .LVU468
 1389 03c2 8B435C   		movl	92(%rbx), %eax
 1390 03c5 85C0     		testl	%eax, %eax
 1391 03c7 0F85F3FE 		jne	.L93
 1391      FFFF
 1392              	.L117:
 353:fltk-1.3.4-1/jpeg/jdmaster.c **** #ifdef UPSAMPLE_MERGING_SUPPORTED
 1393              		.loc 1 353 5 is_stmt 1 view .LVU469
 353:fltk-1.3.4-1/jpeg/jdmaster.c **** #ifdef UPSAMPLE_MERGING_SUPPORTED
 1394              		.loc 1 353 8 is_stmt 0 view .LVU470
 1395 03cd 8B451C   		movl	28(%rbp), %eax
 355:fltk-1.3.4-1/jpeg/jdmaster.c **** #else
 1396              		.loc 1 355 7 view .LVU471
 1397 03d0 4889DF   		movq	%rbx, %rdi
 353:fltk-1.3.4-1/jpeg/jdmaster.c **** #ifdef UPSAMPLE_MERGING_SUPPORTED
 1398              		.loc 1 353 8 view .LVU472
 1399 03d3 85C0     		testl	%eax, %eax
 1400 03d5 7551     		jne	.L119
 360:fltk-1.3.4-1/jpeg/jdmaster.c ****       jinit_upsampler(cinfo);
 1401              		.loc 1 360 7 is_stmt 1 view .LVU473
 1402 03d7 E8000000 		call	jinit_color_deconverter@PLT
 1402      00
 1403              	.LVL98:
 361:fltk-1.3.4-1/jpeg/jdmaster.c ****     }
 1404              		.loc 1 361 7 view .LVU474
 1405 03dc 4889DF   		movq	%rbx, %rdi
 1406 03df E8000000 		call	jinit_upsampler@PLT
 1406      00
 1407              	.LVL99:
 1408              	.L95:
 363:fltk-1.3.4-1/jpeg/jdmaster.c ****   }
 1409              		.loc 1 363 5 view .LVU475
 1410 03e4 8BB38400 		movl	132(%rbx), %esi
 1410      0000
 1411 03ea 4889DF   		movq	%rbx, %rdi
 1412 03ed E8000000 		call	jinit_d_post_controller@PLT
 1412      00
 1413              	.LVL100:
 1414 03f2 E9C9FEFF 		jmp	.L93
 1414      FF
 1415 03f7 660F1F84 		.p2align 4,,10
 1415      00000000 
 1415      00
 1416              		.p2align 3
 1417              	.L96:
 371:fltk-1.3.4-1/jpeg/jdmaster.c ****   }
 1418              		.loc 1 371 5 view .LVU476
 1419 0400 E8000000 		call	jinit_huff_decoder@PLT
 1419      00
 1420              	.LVL101:
 1421 0405 E9D6FEFF 		jmp	.L97
 1421      FF
 1422 040a 660F1F44 		.p2align 4,,10
 1422      0000
 1423              		.p2align 3
 1424              	.L116:
 289:fltk-1.3.4-1/jpeg/jdmaster.c ****     ERREXIT(cinfo, JERR_EMPTY_IMAGE);
 1425              		.loc 1 289 12 is_stmt 0 view .LVU477
 1426 0410 48639390 		movslq	144(%rbx), %rdx
 1426      000000
 288:fltk-1.3.4-1/jpeg/jdmaster.c ****       cinfo->out_color_components <= 0)
 1427              		.loc 1 288 61 view .LVU478
 1428 0417 85D2     		testl	%edx, %edx
 1429 0419 0F8FB4FD 		jg	.L82
 1429      FFFF
 1430 041f E990FDFF 		jmp	.L81
 1430      FF
 1431              		.p2align 4,,10
 1432 0424 0F1F4000 		.p2align 3
 1433              	.L119:
 355:fltk-1.3.4-1/jpeg/jdmaster.c **** #else
 1434              		.loc 1 355 7 is_stmt 1 view .LVU479
 1435 0428 E8000000 		call	jinit_merged_upsampler@PLT
 1435      00
 1436              	.LVL102:
 1437 042d EBB5     		jmp	.L95
 1438 042f 90       		.p2align 4,,10
 1439              		.p2align 3
 1440              	.L118:
 379:fltk-1.3.4-1/jpeg/jdmaster.c **** 
 1441              		.loc 1 379 5 view .LVU480
 1442 0430 31F6     		xorl	%esi, %esi
 1443 0432 4889DF   		movq	%rbx, %rdi
 1444 0435 E8000000 		call	jinit_d_main_controller@PLT
 1444      00
 1445              	.LVL103:
 1446 043a E9D8FEFF 		jmp	.L99
 1446      FF
 1447 043f 90       		.p2align 4,,10
 1448              		.p2align 3
 1449              	.L87:
 320:fltk-1.3.4-1/jpeg/jdmaster.c ****       cinfo->enable_external_quant = TRUE;
 1450              		.loc 1 320 12 view .LVU481
 320:fltk-1.3.4-1/jpeg/jdmaster.c ****       cinfo->enable_external_quant = TRUE;
 1451              		.loc 1 320 15 is_stmt 0 view .LVU482
 1452 0440 4883BBA0 		cmpq	$0, 160(%rbx)
 1452      00000000 
 1453 0448 742E     		je	.L89
 321:fltk-1.3.4-1/jpeg/jdmaster.c ****     } else if (cinfo->two_pass_quantize) {
 1454              		.loc 1 321 7 is_stmt 1 view .LVU483
 321:fltk-1.3.4-1/jpeg/jdmaster.c ****     } else if (cinfo->two_pass_quantize) {
 1455              		.loc 1 321 36 is_stmt 0 view .LVU484
 1456 044a C7838000 		movl	$1, 128(%rbx)
 1456      00000100 
 1456      0000
 1457              	.L90:
 328:fltk-1.3.4-1/jpeg/jdmaster.c **** #ifdef QUANT_1PASS_SUPPORTED
 1458              		.loc 1 328 5 is_stmt 1 view .LVU485
 328:fltk-1.3.4-1/jpeg/jdmaster.c **** #ifdef QUANT_1PASS_SUPPORTED
 1459              		.loc 1 328 8 is_stmt 0 view .LVU486
 1460 0454 8B437C   		movl	124(%rbx), %eax
 1461 0457 85C0     		testl	%eax, %eax
 1462 0459 0F851AFE 		jne	.L88
 1462      FFFF
 338:fltk-1.3.4-1/jpeg/jdmaster.c **** #ifdef QUANT_2PASS_SUPPORTED
 1463              		.loc 1 338 5 is_stmt 1 view .LVU487
 338:fltk-1.3.4-1/jpeg/jdmaster.c **** #ifdef QUANT_2PASS_SUPPORTED
 1464              		.loc 1 338 8 is_stmt 0 view .LVU488
 1465 045f 4883BB80 		cmpq	$0, 128(%rbx)
 1465      00000000 
 1466 0467 0F8455FF 		je	.L92
 1466      FFFF
 1467 046d E928FEFF 		jmp	.L120
 1467      FF
 1468              		.p2align 4,,10
 1469 0472 660F1F44 		.p2align 3
 1469      0000
 1470              	.L89:
 322:fltk-1.3.4-1/jpeg/jdmaster.c ****       cinfo->enable_2pass_quant = TRUE;
 1471              		.loc 1 322 12 is_stmt 1 view .LVU489
 322:fltk-1.3.4-1/jpeg/jdmaster.c ****       cinfo->enable_2pass_quant = TRUE;
 1472              		.loc 1 322 15 is_stmt 0 view .LVU490
 1473 0478 8B4374   		movl	116(%rbx), %eax
 1474 047b 85C0     		testl	%eax, %eax
 1475 047d 7411     		je	.L91
 323:fltk-1.3.4-1/jpeg/jdmaster.c ****     } else {
 1476              		.loc 1 323 7 is_stmt 1 view .LVU491
 323:fltk-1.3.4-1/jpeg/jdmaster.c ****     } else {
 1477              		.loc 1 323 33 is_stmt 0 view .LVU492
 1478 047f C7838400 		movl	$1, 132(%rbx)
 1478      00000100 
 1478      0000
 1479 0489 EBC9     		jmp	.L90
 1480 048b 0F1F4400 		.p2align 4,,10
 1480      00
 1481              		.p2align 3
 1482              	.L91:
 325:fltk-1.3.4-1/jpeg/jdmaster.c ****     }
 1483              		.loc 1 325 7 is_stmt 1 view .LVU493
 325:fltk-1.3.4-1/jpeg/jdmaster.c ****     }
 1484              		.loc 1 325 33 is_stmt 0 view .LVU494
 1485 0490 C7437C01 		movl	$1, 124(%rbx)
 1485      000000
 1486 0497 E9DDFDFF 		jmp	.L88
 1486      FF
 1487              	.LBE44:
 1488              	.LBE45:
 1489              		.cfi_endproc
 1490              	.LFE58:
 1492              		.text
 1493              	.Letext0:
 1494              		.file 3 "/usr/lib/gcc/x86_64-linux-gnu/9/include/stddef.h"
 1495              		.file 4 "/usr/include/x86_64-linux-gnu/bits/types.h"
 1496              		.file 5 "/usr/include/x86_64-linux-gnu/bits/types/struct_FILE.h"
 1497              		.file 6 "/usr/include/x86_64-linux-gnu/bits/types/FILE.h"
 1498              		.file 7 "/usr/include/stdio.h"
 1499              		.file 8 "/usr/include/x86_64-linux-gnu/bits/sys_errlist.h"
 1500              		.file 9 "fltk-1.3.4-1/jpeg/jmorecfg.h"
 1501              		.file 10 "fltk-1.3.4-1/jpeg/jpeglib.h"
 1502              		.file 11 "fltk-1.3.4-1/jpeg/jpegint.h"
 1503              		.file 12 "fltk-1.3.4-1/jpeg/jerror.h"
 14416              		.section	.note.gnu.property,"a"
 14417              		.align 8
 14418 0000 04000000 		.long	 1f - 0f
 14419 0004 10000000 		.long	 4f - 1f
 14420 0008 05000000 		.long	 5
 14421              	0:
 14422 000c 474E5500 		.string	 "GNU"
 14423              	1:
 14424              		.align 8
 14425 0010 020000C0 		.long	 0xc0000002
 14426 0014 04000000 		.long	 3f - 2f
 14427              	2:
 14428 0018 03000000 		.long	 0x3
 14429              	3:
 14430 001c 00000000 		.align 8
 14431              	4: