   1              		.file	"jdtrans.c"
   2              		.text
   3              	.Ltext0:
   4              		.section	.text.jpeg_read_coefficients,"ax",@progbits
   5              		.p2align 4
   6              		.globl	jpeg_read_coefficients
   8              	jpeg_read_coefficients:
   9              	.LVL0:
  10              	.LFB51:
  11              		.file 1 "fltk-1.3.4-1/jpeg/jdtrans.c"
   1:fltk-1.3.4-1/jpeg/jdtrans.c **** /*
   2:fltk-1.3.4-1/jpeg/jdtrans.c ****  * jdtrans.c
   3:fltk-1.3.4-1/jpeg/jdtrans.c ****  *
   4:fltk-1.3.4-1/jpeg/jdtrans.c ****  * Copyright (C) 1995-1997, Thomas G. Lane.
   5:fltk-1.3.4-1/jpeg/jdtrans.c ****  * Modified 2000-2009 by Guido Vollbeding.
   6:fltk-1.3.4-1/jpeg/jdtrans.c ****  * This file is part of the Independent JPEG Group's software.
   7:fltk-1.3.4-1/jpeg/jdtrans.c ****  * For conditions of distribution and use, see the accompanying README file.
   8:fltk-1.3.4-1/jpeg/jdtrans.c ****  *
   9:fltk-1.3.4-1/jpeg/jdtrans.c ****  * This file contains library routines for transcoding decompression,
  10:fltk-1.3.4-1/jpeg/jdtrans.c ****  * that is, reading raw DCT coefficient arrays from an input JPEG file.
  11:fltk-1.3.4-1/jpeg/jdtrans.c ****  * The routines in jdapimin.c will also be needed by a transcoder.
  12:fltk-1.3.4-1/jpeg/jdtrans.c ****  */
  13:fltk-1.3.4-1/jpeg/jdtrans.c **** 
  14:fltk-1.3.4-1/jpeg/jdtrans.c **** #define JPEG_INTERNALS
  15:fltk-1.3.4-1/jpeg/jdtrans.c **** #include "jinclude.h"
  16:fltk-1.3.4-1/jpeg/jdtrans.c **** #include "jpeglib.h"
  17:fltk-1.3.4-1/jpeg/jdtrans.c **** 
  18:fltk-1.3.4-1/jpeg/jdtrans.c **** 
  19:fltk-1.3.4-1/jpeg/jdtrans.c **** /* Forward declarations */
  20:fltk-1.3.4-1/jpeg/jdtrans.c **** LOCAL(void) transdecode_master_selection JPP((j_decompress_ptr cinfo));
  21:fltk-1.3.4-1/jpeg/jdtrans.c **** 
  22:fltk-1.3.4-1/jpeg/jdtrans.c **** 
  23:fltk-1.3.4-1/jpeg/jdtrans.c **** /*
  24:fltk-1.3.4-1/jpeg/jdtrans.c ****  * Read the coefficient arrays from a JPEG file.
  25:fltk-1.3.4-1/jpeg/jdtrans.c ****  * jpeg_read_header must be completed before calling this.
  26:fltk-1.3.4-1/jpeg/jdtrans.c ****  *
  27:fltk-1.3.4-1/jpeg/jdtrans.c ****  * The entire image is read into a set of virtual coefficient-block arrays,
  28:fltk-1.3.4-1/jpeg/jdtrans.c ****  * one per component.  The return value is a pointer to the array of
  29:fltk-1.3.4-1/jpeg/jdtrans.c ****  * virtual-array descriptors.  These can be manipulated directly via the
  30:fltk-1.3.4-1/jpeg/jdtrans.c ****  * JPEG memory manager, or handed off to jpeg_write_coefficients().
  31:fltk-1.3.4-1/jpeg/jdtrans.c ****  * To release the memory occupied by the virtual arrays, call
  32:fltk-1.3.4-1/jpeg/jdtrans.c ****  * jpeg_finish_decompress() when done with the data.
  33:fltk-1.3.4-1/jpeg/jdtrans.c ****  *
  34:fltk-1.3.4-1/jpeg/jdtrans.c ****  * An alternative usage is to simply obtain access to the coefficient arrays
  35:fltk-1.3.4-1/jpeg/jdtrans.c ****  * during a buffered-image-mode decompression operation.  This is allowed
  36:fltk-1.3.4-1/jpeg/jdtrans.c ****  * after any jpeg_finish_output() call.  The arrays can be accessed until
  37:fltk-1.3.4-1/jpeg/jdtrans.c ****  * jpeg_finish_decompress() is called.  (Note that any call to the library
  38:fltk-1.3.4-1/jpeg/jdtrans.c ****  * may reposition the arrays, so don't rely on access_virt_barray() results
  39:fltk-1.3.4-1/jpeg/jdtrans.c ****  * to stay valid across library calls.)
  40:fltk-1.3.4-1/jpeg/jdtrans.c ****  *
  41:fltk-1.3.4-1/jpeg/jdtrans.c ****  * Returns NULL if suspended.  This case need be checked only if
  42:fltk-1.3.4-1/jpeg/jdtrans.c ****  * a suspending data source is used.
  43:fltk-1.3.4-1/jpeg/jdtrans.c ****  */
  44:fltk-1.3.4-1/jpeg/jdtrans.c **** 
  45:fltk-1.3.4-1/jpeg/jdtrans.c **** GLOBAL(jvirt_barray_ptr *)
  46:fltk-1.3.4-1/jpeg/jdtrans.c **** jpeg_read_coefficients (j_decompress_ptr cinfo)
  47:fltk-1.3.4-1/jpeg/jdtrans.c **** {
  12              		.loc 1 47 1 view -0
  13              		.cfi_startproc
  14              		.loc 1 47 1 is_stmt 0 view .LVU1
  15 0000 F30F1EFA 		endbr64
  48:fltk-1.3.4-1/jpeg/jdtrans.c ****   if (cinfo->global_state == DSTATE_READY) {
  16              		.loc 1 48 3 is_stmt 1 view .LVU2
  47:fltk-1.3.4-1/jpeg/jdtrans.c ****   if (cinfo->global_state == DSTATE_READY) {
  17              		.loc 1 47 1 is_stmt 0 view .LVU3
  18 0004 55       		pushq	%rbp
  19              		.cfi_def_cfa_offset 16
  20              		.cfi_offset 6, -16
  21              		.loc 1 48 12 view .LVU4
  22 0005 8B4724   		movl	36(%rdi), %eax
  47:fltk-1.3.4-1/jpeg/jdtrans.c ****   if (cinfo->global_state == DSTATE_READY) {
  23              		.loc 1 47 1 view .LVU5
  24 0008 4889FD   		movq	%rdi, %rbp
  25              		.loc 1 48 6 view .LVU6
  26 000b 3DCA0000 		cmpl	$202, %eax
  26      00
  27 0010 745E     		je	.L36
  49:fltk-1.3.4-1/jpeg/jdtrans.c ****     /* First call: initialize active modules */
  50:fltk-1.3.4-1/jpeg/jdtrans.c ****     transdecode_master_selection(cinfo);
  51:fltk-1.3.4-1/jpeg/jdtrans.c ****     cinfo->global_state = DSTATE_RDCOEFS;
  52:fltk-1.3.4-1/jpeg/jdtrans.c ****   }
  53:fltk-1.3.4-1/jpeg/jdtrans.c ****   if (cinfo->global_state == DSTATE_RDCOEFS) {
  28              		.loc 1 53 3 is_stmt 1 view .LVU7
  29              		.loc 1 53 6 is_stmt 0 view .LVU8
  30 0012 3DD10000 		cmpl	$209, %eax
  30      00
  31 0017 0F847B01 		je	.L37
  31      0000
  54:fltk-1.3.4-1/jpeg/jdtrans.c ****     /* Absorb whole file into the coef buffer */
  55:fltk-1.3.4-1/jpeg/jdtrans.c ****     for (;;) {
  56:fltk-1.3.4-1/jpeg/jdtrans.c ****       int retcode;
  57:fltk-1.3.4-1/jpeg/jdtrans.c ****       /* Call progress monitor hook if present */
  58:fltk-1.3.4-1/jpeg/jdtrans.c ****       if (cinfo->progress != NULL)
  59:fltk-1.3.4-1/jpeg/jdtrans.c **** 	(*cinfo->progress->progress_monitor) ((j_common_ptr) cinfo);
  60:fltk-1.3.4-1/jpeg/jdtrans.c ****       /* Absorb some more input */
  61:fltk-1.3.4-1/jpeg/jdtrans.c ****       retcode = (*cinfo->inputctl->consume_input) (cinfo);
  62:fltk-1.3.4-1/jpeg/jdtrans.c ****       if (retcode == JPEG_SUSPENDED)
  63:fltk-1.3.4-1/jpeg/jdtrans.c **** 	return NULL;
  64:fltk-1.3.4-1/jpeg/jdtrans.c ****       if (retcode == JPEG_REACHED_EOI)
  65:fltk-1.3.4-1/jpeg/jdtrans.c **** 	break;
  66:fltk-1.3.4-1/jpeg/jdtrans.c ****       /* Advance progress counter if appropriate */
  67:fltk-1.3.4-1/jpeg/jdtrans.c ****       if (cinfo->progress != NULL &&
  68:fltk-1.3.4-1/jpeg/jdtrans.c **** 	  (retcode == JPEG_ROW_COMPLETED || retcode == JPEG_REACHED_SOS)) {
  69:fltk-1.3.4-1/jpeg/jdtrans.c **** 	if (++cinfo->progress->pass_counter >= cinfo->progress->pass_limit) {
  70:fltk-1.3.4-1/jpeg/jdtrans.c **** 	  /* startup underestimated number of scans; ratchet up one scan */
  71:fltk-1.3.4-1/jpeg/jdtrans.c **** 	  cinfo->progress->pass_limit += (long) cinfo->total_iMCU_rows;
  72:fltk-1.3.4-1/jpeg/jdtrans.c **** 	}
  73:fltk-1.3.4-1/jpeg/jdtrans.c ****       }
  74:fltk-1.3.4-1/jpeg/jdtrans.c ****     }
  75:fltk-1.3.4-1/jpeg/jdtrans.c ****     /* Set state so that jpeg_finish_decompress does the right thing */
  76:fltk-1.3.4-1/jpeg/jdtrans.c ****     cinfo->global_state = DSTATE_STOPPING;
  77:fltk-1.3.4-1/jpeg/jdtrans.c ****   }
  78:fltk-1.3.4-1/jpeg/jdtrans.c ****   /* At this point we should be in state DSTATE_STOPPING if being used
  79:fltk-1.3.4-1/jpeg/jdtrans.c ****    * standalone, or in state DSTATE_BUFIMAGE if being invoked to get access
  80:fltk-1.3.4-1/jpeg/jdtrans.c ****    * to the coefficients during a full buffered-image-mode decompression.
  81:fltk-1.3.4-1/jpeg/jdtrans.c ****    */
  82:fltk-1.3.4-1/jpeg/jdtrans.c ****   if ((cinfo->global_state == DSTATE_STOPPING ||
  32              		.loc 1 82 3 is_stmt 1 view .LVU9
  33              		.loc 1 82 6 is_stmt 0 view .LVU10
  34 001d 3DD20000 		cmpl	$210, %eax
  34      00
  35 0022 7433     		je	.L17
  36 0024 3DCF0000 		cmpl	$207, %eax
  36      00
  37 0029 742C     		je	.L17
  38              	.LVL1:
  39              	.L18:
  83:fltk-1.3.4-1/jpeg/jdtrans.c ****        cinfo->global_state == DSTATE_BUFIMAGE) && cinfo->buffered_image) {
  84:fltk-1.3.4-1/jpeg/jdtrans.c ****     return cinfo->coef->coef_arrays;
  85:fltk-1.3.4-1/jpeg/jdtrans.c ****   }
  86:fltk-1.3.4-1/jpeg/jdtrans.c ****   /* Oops, improper usage */
  87:fltk-1.3.4-1/jpeg/jdtrans.c ****   ERREXIT1(cinfo, JERR_BAD_STATE, cinfo->global_state);
  40              		.loc 1 87 3 is_stmt 1 view .LVU11
  41 002b 488B4500 		movq	0(%rbp), %rax
  42 002f 4889EF   		movq	%rbp, %rdi
  43 0032 C7402815 		movl	$21, 40(%rax)
  43      000000
  44 0039 488B4500 		movq	0(%rbp), %rax
  45 003d 8B5524   		movl	36(%rbp), %edx
  46 0040 89502C   		movl	%edx, 44(%rax)
  47 0043 488B4500 		movq	0(%rbp), %rax
  48 0047 FF10     		call	*(%rax)
  49              	.LVL2:
  88:fltk-1.3.4-1/jpeg/jdtrans.c ****   return NULL;			/* keep compiler happy */
  50              		.loc 1 88 3 view .LVU12
  51              		.loc 1 88 10 is_stmt 0 view .LVU13
  52 0049 31C0     		xorl	%eax, %eax
  89:fltk-1.3.4-1/jpeg/jdtrans.c **** }
  53              		.loc 1 89 1 view .LVU14
  54 004b 5D       		popq	%rbp
  55              		.cfi_remember_state
  56              		.cfi_def_cfa_offset 8
  57              	.LVL3:
  58              		.loc 1 89 1 view .LVU15
  59 004c C3       		ret
  60              	.LVL4:
  61 004d 0F1F00   		.p2align 4,,10
  62              		.p2align 3
  63              	.L14:
  64              		.cfi_restore_state
  76:fltk-1.3.4-1/jpeg/jdtrans.c ****   }
  65              		.loc 1 76 5 is_stmt 1 view .LVU16
  76:fltk-1.3.4-1/jpeg/jdtrans.c ****   }
  66              		.loc 1 76 25 is_stmt 0 view .LVU17
  67 0050 C74524D2 		movl	$210, 36(%rbp)
  67      000000
  82:fltk-1.3.4-1/jpeg/jdtrans.c ****        cinfo->global_state == DSTATE_BUFIMAGE) && cinfo->buffered_image) {
  68              		.loc 1 82 3 is_stmt 1 view .LVU18
  69              	.LVL5:
  70              	.L17:
  83:fltk-1.3.4-1/jpeg/jdtrans.c ****     return cinfo->coef->coef_arrays;
  71              		.loc 1 83 48 is_stmt 0 view .LVU19
  72 0057 8B4558   		movl	88(%rbp), %eax
  73 005a 85C0     		testl	%eax, %eax
  74 005c 74CD     		je	.L18
  84:fltk-1.3.4-1/jpeg/jdtrans.c ****   }
  75              		.loc 1 84 5 is_stmt 1 view .LVU20
  84:fltk-1.3.4-1/jpeg/jdtrans.c ****   }
  76              		.loc 1 84 23 is_stmt 0 view .LVU21
  77 005e 488B8550 		movq	592(%rbp), %rax
  77      020000
  78              		.loc 1 89 1 view .LVU22
  79 0065 5D       		popq	%rbp
  80              		.cfi_remember_state
  81              		.cfi_def_cfa_offset 8
  82              	.LVL6:
  84:fltk-1.3.4-1/jpeg/jdtrans.c ****   }
  83              		.loc 1 84 23 view .LVU23
  84 0066 488B4020 		movq	32(%rax), %rax
  85              		.loc 1 89 1 view .LVU24
  86 006a C3       		ret
  87              	.LVL7:
  88 006b 0F1F4400 		.p2align 4,,10
  88      00
  89              		.p2align 3
  90              	.L36:
  91              		.cfi_restore_state
  50:fltk-1.3.4-1/jpeg/jdtrans.c ****     cinfo->global_state = DSTATE_RDCOEFS;
  92              		.loc 1 50 5 is_stmt 1 view .LVU25
  93              	.LBB6:
  94              	.LBI6:
  90:fltk-1.3.4-1/jpeg/jdtrans.c **** 
  91:fltk-1.3.4-1/jpeg/jdtrans.c **** 
  92:fltk-1.3.4-1/jpeg/jdtrans.c **** /*
  93:fltk-1.3.4-1/jpeg/jdtrans.c ****  * Master selection of decompression modules for transcoding.
  94:fltk-1.3.4-1/jpeg/jdtrans.c ****  * This substitutes for jdmaster.c's initialization of the full decompressor.
  95:fltk-1.3.4-1/jpeg/jdtrans.c ****  */
  96:fltk-1.3.4-1/jpeg/jdtrans.c **** 
  97:fltk-1.3.4-1/jpeg/jdtrans.c **** LOCAL(void)
  98:fltk-1.3.4-1/jpeg/jdtrans.c **** transdecode_master_selection (j_decompress_ptr cinfo)
  95              		.loc 1 98 1 view .LVU26
  96              	.LBB7:
  99:fltk-1.3.4-1/jpeg/jdtrans.c **** {
 100:fltk-1.3.4-1/jpeg/jdtrans.c ****   /* This is effectively a buffered-image operation. */
 101:fltk-1.3.4-1/jpeg/jdtrans.c ****   cinfo->buffered_image = TRUE;
  97              		.loc 1 101 3 view .LVU27
  98              		.loc 1 101 25 is_stmt 0 view .LVU28
  99 0070 C7475801 		movl	$1, 88(%rdi)
  99      000000
 102:fltk-1.3.4-1/jpeg/jdtrans.c **** 
 103:fltk-1.3.4-1/jpeg/jdtrans.c ****   /* Compute output image dimensions and related values. */
 104:fltk-1.3.4-1/jpeg/jdtrans.c ****   jpeg_core_output_dimensions(cinfo);
 100              		.loc 1 104 3 is_stmt 1 view .LVU29
 101 0077 E8000000 		call	jpeg_core_output_dimensions@PLT
 101      00
 102              	.LVL8:
 105:fltk-1.3.4-1/jpeg/jdtrans.c **** 
 106:fltk-1.3.4-1/jpeg/jdtrans.c ****   /* Entropy decoding: either Huffman or arithmetic coding. */
 107:fltk-1.3.4-1/jpeg/jdtrans.c ****   if (cinfo->arith_code)
 103              		.loc 1 107 3 view .LVU30
 104              		.loc 1 107 6 is_stmt 0 view .LVU31
 105 007c 448B8540 		movl	320(%rbp), %r8d
 105      010000
 108:fltk-1.3.4-1/jpeg/jdtrans.c ****     jinit_arith_decoder(cinfo);
 106              		.loc 1 108 5 view .LVU32
 107 0083 4889EF   		movq	%rbp, %rdi
 107:fltk-1.3.4-1/jpeg/jdtrans.c ****     jinit_arith_decoder(cinfo);
 108              		.loc 1 107 6 view .LVU33
 109 0086 4585C0   		testl	%r8d, %r8d
 110 0089 0F85F100 		jne	.L38
 110      0000
 111              	.LVL9:
 109:fltk-1.3.4-1/jpeg/jdtrans.c ****   else {
 110:fltk-1.3.4-1/jpeg/jdtrans.c ****     jinit_huff_decoder(cinfo);
 112              		.loc 1 110 5 is_stmt 1 view .LVU34
 113 008f E8000000 		call	jinit_huff_decoder@PLT
 113      00
 114              	.LVL10:
 115              	.L4:
 111:fltk-1.3.4-1/jpeg/jdtrans.c ****   }
 112:fltk-1.3.4-1/jpeg/jdtrans.c **** 
 113:fltk-1.3.4-1/jpeg/jdtrans.c ****   /* Always get a full-image coefficient buffer. */
 114:fltk-1.3.4-1/jpeg/jdtrans.c ****   jinit_d_coef_controller(cinfo, TRUE);
 116              		.loc 1 114 3 view .LVU35
 117 0094 BE010000 		movl	$1, %esi
 117      00
 118 0099 4889EF   		movq	%rbp, %rdi
 119 009c E8000000 		call	jinit_d_coef_controller@PLT
 119      00
 120              	.LVL11:
 115:fltk-1.3.4-1/jpeg/jdtrans.c **** 
 116:fltk-1.3.4-1/jpeg/jdtrans.c ****   /* We can now tell the memory manager to allocate virtual arrays. */
 117:fltk-1.3.4-1/jpeg/jdtrans.c ****   (*cinfo->mem->realize_virt_arrays) ((j_common_ptr) cinfo);
 121              		.loc 1 117 3 view .LVU36
 122              		.loc 1 117 4 is_stmt 0 view .LVU37
 123 00a1 488B4508 		movq	8(%rbp), %rax
 124 00a5 4889EF   		movq	%rbp, %rdi
 125 00a8 FF5030   		call	*48(%rax)
 126              	.LVL12:
 118:fltk-1.3.4-1/jpeg/jdtrans.c **** 
 119:fltk-1.3.4-1/jpeg/jdtrans.c ****   /* Initialize input side of decompressor to consume first scan. */
 120:fltk-1.3.4-1/jpeg/jdtrans.c ****   (*cinfo->inputctl->start_input_pass) (cinfo);
 127              		.loc 1 120 3 is_stmt 1 view .LVU38
 128              		.loc 1 120 4 is_stmt 0 view .LVU39
 129 00ab 488B8560 		movq	608(%rbp), %rax
 129      020000
 130 00b2 4889EF   		movq	%rbp, %rdi
 131 00b5 FF5010   		call	*16(%rax)
 132              	.LVL13:
 121:fltk-1.3.4-1/jpeg/jdtrans.c **** 
 122:fltk-1.3.4-1/jpeg/jdtrans.c ****   /* Initialize progress monitoring. */
 123:fltk-1.3.4-1/jpeg/jdtrans.c ****   if (cinfo->progress != NULL) {
 133              		.loc 1 123 3 is_stmt 1 view .LVU40
 134              		.loc 1 123 12 is_stmt 0 view .LVU41
 135 00b8 488B5510 		movq	16(%rbp), %rdx
 136              		.loc 1 123 6 view .LVU42
 137 00bc 4885D2   		testq	%rdx, %rdx
 138 00bf 744C     		je	.L5
 139              	.LBB8:
 124:fltk-1.3.4-1/jpeg/jdtrans.c ****     int nscans;
 140              		.loc 1 124 5 is_stmt 1 view .LVU43
 125:fltk-1.3.4-1/jpeg/jdtrans.c ****     /* Estimate number of scans to set pass_limit. */
 126:fltk-1.3.4-1/jpeg/jdtrans.c ****     if (cinfo->progressive_mode) {
 141              		.loc 1 126 5 view .LVU44
 142              		.loc 1 126 8 is_stmt 0 view .LVU45
 143 00c1 8BBD3C01 		movl	316(%rbp), %edi
 143      0000
 144 00c7 85FF     		testl	%edi, %edi
 145 00c9 0F84D900 		je	.L6
 145      0000
 127:fltk-1.3.4-1/jpeg/jdtrans.c ****       /* Arbitrarily estimate 2 interleaved DC scans + 3 AC scans/component. */
 128:fltk-1.3.4-1/jpeg/jdtrans.c ****       nscans = 2 + 3 * cinfo->num_components;
 146              		.loc 1 128 7 is_stmt 1 view .LVU46
 147              	.LVL14:
 148              		.loc 1 128 22 is_stmt 0 view .LVU47
 149 00cf 8B4538   		movl	56(%rbp), %eax
 150              		.loc 1 128 14 view .LVU48
 151 00d2 8D444002 		leal	2(%rax,%rax,2), %eax
 152 00d6 4863C8   		movslq	%eax, %rcx
 153              	.LVL15:
 154              	.L7:
 129:fltk-1.3.4-1/jpeg/jdtrans.c ****     } else if (cinfo->inputctl->has_multiple_scans) {
 130:fltk-1.3.4-1/jpeg/jdtrans.c ****       /* For a nonprogressive multiscan file, estimate 1 scan per component. */
 131:fltk-1.3.4-1/jpeg/jdtrans.c ****       nscans = cinfo->num_components;
 132:fltk-1.3.4-1/jpeg/jdtrans.c ****     } else {
 133:fltk-1.3.4-1/jpeg/jdtrans.c ****       nscans = 1;
 134:fltk-1.3.4-1/jpeg/jdtrans.c ****     }
 135:fltk-1.3.4-1/jpeg/jdtrans.c ****     cinfo->progress->pass_counter = 0L;
 155              		.loc 1 135 5 is_stmt 1 view .LVU49
 156              		.loc 1 135 35 is_stmt 0 view .LVU50
 157 00d9 48C74208 		movq	$0, 8(%rdx)
 157      00000000 
 136:fltk-1.3.4-1/jpeg/jdtrans.c ****     cinfo->progress->pass_limit = (long) cinfo->total_iMCU_rows * nscans;
 158              		.loc 1 136 5 is_stmt 1 view .LVU51
 159              		.loc 1 136 35 is_stmt 0 view .LVU52
 160 00e1 8B85B001 		movl	432(%rbp), %eax
 160      0000
 161              		.loc 1 136 10 view .LVU53
 162 00e7 488B5510 		movq	16(%rbp), %rdx
 163              		.loc 1 136 65 view .LVU54
 164 00eb 480FAFC1 		imulq	%rcx, %rax
 165              		.loc 1 136 33 view .LVU55
 166 00ef 48894210 		movq	%rax, 16(%rdx)
 137:fltk-1.3.4-1/jpeg/jdtrans.c ****     cinfo->progress->completed_passes = 0;
 167              		.loc 1 137 5 is_stmt 1 view .LVU56
 168              		.loc 1 137 10 is_stmt 0 view .LVU57
 169 00f3 488B4510 		movq	16(%rbp), %rax
 170              		.loc 1 137 39 view .LVU58
 171 00f7 C7401800 		movl	$0, 24(%rax)
 171      000000
 138:fltk-1.3.4-1/jpeg/jdtrans.c ****     cinfo->progress->total_passes = 1;
 172              		.loc 1 138 5 is_stmt 1 view .LVU59
 173              		.loc 1 138 10 is_stmt 0 view .LVU60
 174 00fe 488B4510 		movq	16(%rbp), %rax
 175              		.loc 1 138 35 view .LVU61
 176 0102 C7401C01 		movl	$1, 28(%rax)
 176      000000
 177 0109 488B5510 		movq	16(%rbp), %rdx
 178              	.L5:
 179              	.LVL16:
 180              		.loc 1 138 35 view .LVU62
 181              	.LBE8:
 182              	.LBE7:
 183              	.LBE6:
  51:fltk-1.3.4-1/jpeg/jdtrans.c ****   }
 184              		.loc 1 51 5 is_stmt 1 view .LVU63
  51:fltk-1.3.4-1/jpeg/jdtrans.c ****   }
 185              		.loc 1 51 25 is_stmt 0 view .LVU64
 186 010d C74524D1 		movl	$209, 36(%rbp)
 186      000000
  53:fltk-1.3.4-1/jpeg/jdtrans.c ****     /* Absorb whole file into the coef buffer */
 187              		.loc 1 53 3 is_stmt 1 view .LVU65
 188              		.p2align 4,,10
 189 0114 0F1F4000 		.p2align 3
 190              	.L11:
  55:fltk-1.3.4-1/jpeg/jdtrans.c ****       int retcode;
 191              		.loc 1 55 5 view .LVU66
 192              	.LBB12:
  56:fltk-1.3.4-1/jpeg/jdtrans.c ****       /* Call progress monitor hook if present */
 193              		.loc 1 56 7 view .LVU67
  58:fltk-1.3.4-1/jpeg/jdtrans.c **** 	(*cinfo->progress->progress_monitor) ((j_common_ptr) cinfo);
 194              		.loc 1 58 7 view .LVU68
  58:fltk-1.3.4-1/jpeg/jdtrans.c **** 	(*cinfo->progress->progress_monitor) ((j_common_ptr) cinfo);
 195              		.loc 1 58 10 is_stmt 0 view .LVU69
 196 0118 4885D2   		testq	%rdx, %rdx
 197 011b 7405     		je	.L15
 198              	.L39:
  59:fltk-1.3.4-1/jpeg/jdtrans.c ****       /* Absorb some more input */
 199              		.loc 1 59 2 is_stmt 1 view .LVU70
  59:fltk-1.3.4-1/jpeg/jdtrans.c ****       /* Absorb some more input */
 200              		.loc 1 59 3 is_stmt 0 view .LVU71
 201 011d 4889EF   		movq	%rbp, %rdi
 202 0120 FF12     		call	*(%rdx)
 203              	.LVL17:
 204              	.L15:
  61:fltk-1.3.4-1/jpeg/jdtrans.c ****       if (retcode == JPEG_SUSPENDED)
 205              		.loc 1 61 7 is_stmt 1 view .LVU72
  61:fltk-1.3.4-1/jpeg/jdtrans.c ****       if (retcode == JPEG_SUSPENDED)
 206              		.loc 1 61 18 is_stmt 0 view .LVU73
 207 0122 488B8560 		movq	608(%rbp), %rax
 207      020000
 208 0129 4889EF   		movq	%rbp, %rdi
 209 012c FF10     		call	*(%rax)
 210              	.LVL18:
  62:fltk-1.3.4-1/jpeg/jdtrans.c **** 	return NULL;
 211              		.loc 1 62 7 is_stmt 1 view .LVU74
  62:fltk-1.3.4-1/jpeg/jdtrans.c **** 	return NULL;
 212              		.loc 1 62 10 is_stmt 0 view .LVU75
 213 012e 85C0     		testl	%eax, %eax
 214 0130 745E     		je	.L21
  64:fltk-1.3.4-1/jpeg/jdtrans.c **** 	break;
 215              		.loc 1 64 7 is_stmt 1 view .LVU76
  64:fltk-1.3.4-1/jpeg/jdtrans.c **** 	break;
 216              		.loc 1 64 10 is_stmt 0 view .LVU77
 217 0132 83F802   		cmpl	$2, %eax
 218 0135 0F8415FF 		je	.L14
 218      FFFF
  67:fltk-1.3.4-1/jpeg/jdtrans.c **** 	  (retcode == JPEG_ROW_COMPLETED || retcode == JPEG_REACHED_SOS)) {
 219              		.loc 1 67 7 is_stmt 1 view .LVU78
  67:fltk-1.3.4-1/jpeg/jdtrans.c **** 	  (retcode == JPEG_ROW_COMPLETED || retcode == JPEG_REACHED_SOS)) {
 220              		.loc 1 67 16 is_stmt 0 view .LVU79
 221 013b 488B5510 		movq	16(%rbp), %rdx
  67:fltk-1.3.4-1/jpeg/jdtrans.c **** 	  (retcode == JPEG_ROW_COMPLETED || retcode == JPEG_REACHED_SOS)) {
 222              		.loc 1 67 10 view .LVU80
 223 013f 4885D2   		testq	%rdx, %rdx
 224 0142 74DE     		je	.L15
  68:fltk-1.3.4-1/jpeg/jdtrans.c **** 	if (++cinfo->progress->pass_counter >= cinfo->progress->pass_limit) {
 225              		.loc 1 68 46 discriminator 1 view .LVU81
 226 0144 83E0FD   		andl	$-3, %eax
 227              	.LVL19:
  67:fltk-1.3.4-1/jpeg/jdtrans.c **** 	  (retcode == JPEG_ROW_COMPLETED || retcode == JPEG_REACHED_SOS)) {
 228              		.loc 1 67 35 discriminator 1 view .LVU82
 229 0147 83F801   		cmpl	$1, %eax
 230 014a 75CC     		jne	.L11
  69:fltk-1.3.4-1/jpeg/jdtrans.c **** 	  /* startup underestimated number of scans; ratchet up one scan */
 231              		.loc 1 69 2 is_stmt 1 view .LVU83
  69:fltk-1.3.4-1/jpeg/jdtrans.c **** 	  /* startup underestimated number of scans; ratchet up one scan */
 232              		.loc 1 69 6 is_stmt 0 view .LVU84
 233 014c 488B4208 		movq	8(%rdx), %rax
 234 0150 4883C001 		addq	$1, %rax
  69:fltk-1.3.4-1/jpeg/jdtrans.c **** 	  /* startup underestimated number of scans; ratchet up one scan */
 235              		.loc 1 69 5 view .LVU85
 236 0154 48894208 		movq	%rax, 8(%rdx)
  69:fltk-1.3.4-1/jpeg/jdtrans.c **** 	  /* startup underestimated number of scans; ratchet up one scan */
 237              		.loc 1 69 46 view .LVU86
 238 0158 488B5510 		movq	16(%rbp), %rdx
  69:fltk-1.3.4-1/jpeg/jdtrans.c **** 	  /* startup underestimated number of scans; ratchet up one scan */
 239              		.loc 1 69 56 view .LVU87
 240 015c 488B4A10 		movq	16(%rdx), %rcx
  69:fltk-1.3.4-1/jpeg/jdtrans.c **** 	  /* startup underestimated number of scans; ratchet up one scan */
 241              		.loc 1 69 5 view .LVU88
 242 0160 4839C8   		cmpq	%rcx, %rax
 243 0163 7CB3     		jl	.L11
  71:fltk-1.3.4-1/jpeg/jdtrans.c **** 	}
 244              		.loc 1 71 4 is_stmt 1 view .LVU89
  71:fltk-1.3.4-1/jpeg/jdtrans.c **** 	}
 245              		.loc 1 71 35 is_stmt 0 view .LVU90
 246 0165 8B85B001 		movl	432(%rbp), %eax
 246      0000
  71:fltk-1.3.4-1/jpeg/jdtrans.c **** 	}
 247              		.loc 1 71 32 view .LVU91
 248 016b 4801C1   		addq	%rax, %rcx
 249 016e 48894A10 		movq	%rcx, 16(%rdx)
 250 0172 488B5510 		movq	16(%rbp), %rdx
 251              	.LBE12:
  55:fltk-1.3.4-1/jpeg/jdtrans.c ****       int retcode;
 252              		.loc 1 55 5 is_stmt 1 view .LVU92
 253              	.LBB13:
  56:fltk-1.3.4-1/jpeg/jdtrans.c ****       /* Call progress monitor hook if present */
 254              		.loc 1 56 7 view .LVU93
  58:fltk-1.3.4-1/jpeg/jdtrans.c **** 	(*cinfo->progress->progress_monitor) ((j_common_ptr) cinfo);
 255              		.loc 1 58 7 view .LVU94
  58:fltk-1.3.4-1/jpeg/jdtrans.c **** 	(*cinfo->progress->progress_monitor) ((j_common_ptr) cinfo);
 256              		.loc 1 58 10 is_stmt 0 view .LVU95
 257 0176 4885D2   		testq	%rdx, %rdx
 258 0179 75A2     		jne	.L39
 259 017b EBA5     		jmp	.L15
 260              	.LVL20:
 261 017d 0F1F00   		.p2align 4,,10
 262              		.p2align 3
 263              	.L38:
  58:fltk-1.3.4-1/jpeg/jdtrans.c **** 	(*cinfo->progress->progress_monitor) ((j_common_ptr) cinfo);
 264              		.loc 1 58 10 view .LVU96
 265              	.LBE13:
 266              	.LBB14:
 267              	.LBB10:
 108:fltk-1.3.4-1/jpeg/jdtrans.c ****   else {
 268              		.loc 1 108 5 is_stmt 1 view .LVU97
 269 0180 E8000000 		call	jinit_arith_decoder@PLT
 269      00
 270              	.LVL21:
 108:fltk-1.3.4-1/jpeg/jdtrans.c ****   else {
 271              		.loc 1 108 5 is_stmt 0 view .LVU98
 272 0185 E90AFFFF 		jmp	.L4
 272      FF
 273              	.LVL22:
 274 018a 660F1F44 		.p2align 4,,10
 274      0000
 275              		.p2align 3
 276              	.L21:
 108:fltk-1.3.4-1/jpeg/jdtrans.c ****   else {
 277              		.loc 1 108 5 view .LVU99
 278              	.LBE10:
 279              	.LBE14:
 280              	.LBB15:
  63:fltk-1.3.4-1/jpeg/jdtrans.c ****       if (retcode == JPEG_REACHED_EOI)
 281              		.loc 1 63 9 view .LVU100
 282 0190 31C0     		xorl	%eax, %eax
 283              	.LVL23:
  63:fltk-1.3.4-1/jpeg/jdtrans.c ****       if (retcode == JPEG_REACHED_EOI)
 284              		.loc 1 63 9 view .LVU101
 285              	.LBE15:
  89:fltk-1.3.4-1/jpeg/jdtrans.c **** 
 286              		.loc 1 89 1 view .LVU102
 287 0192 5D       		popq	%rbp
 288              		.cfi_remember_state
 289              		.cfi_def_cfa_offset 8
 290              	.LVL24:
  89:fltk-1.3.4-1/jpeg/jdtrans.c **** 
 291              		.loc 1 89 1 view .LVU103
 292 0193 C3       		ret
 293              	.LVL25:
 294              		.p2align 4,,10
 295 0194 0F1F4000 		.p2align 3
 296              	.L37:
 297              		.cfi_restore_state
  89:fltk-1.3.4-1/jpeg/jdtrans.c **** 
 298              		.loc 1 89 1 view .LVU104
 299 0198 488B5710 		movq	16(%rdi), %rdx
 300 019c E977FFFF 		jmp	.L11
 300      FF
 301              	.LVL26:
 302              		.p2align 4,,10
 303 01a1 0F1F8000 		.p2align 3
 303      000000
 304              	.L6:
 305              	.LBB16:
 306              	.LBB11:
 307              	.LBB9:
 129:fltk-1.3.4-1/jpeg/jdtrans.c ****       /* For a nonprogressive multiscan file, estimate 1 scan per component. */
 308              		.loc 1 129 12 is_stmt 1 view .LVU105
 129:fltk-1.3.4-1/jpeg/jdtrans.c ****       /* For a nonprogressive multiscan file, estimate 1 scan per component. */
 309              		.loc 1 129 31 is_stmt 0 view .LVU106
 310 01a8 488B8560 		movq	608(%rbp), %rax
 310      020000
 311 01af B9010000 		movl	$1, %ecx
 311      00
 129:fltk-1.3.4-1/jpeg/jdtrans.c ****       /* For a nonprogressive multiscan file, estimate 1 scan per component. */
 312              		.loc 1 129 15 view .LVU107
 313 01b4 8B7020   		movl	32(%rax), %esi
 314 01b7 85F6     		testl	%esi, %esi
 315 01b9 0F841AFF 		je	.L7
 315      FFFF
 131:fltk-1.3.4-1/jpeg/jdtrans.c ****     } else {
 316              		.loc 1 131 7 is_stmt 1 view .LVU108
 317              	.LVL27:
 131:fltk-1.3.4-1/jpeg/jdtrans.c ****     } else {
 318              		.loc 1 131 7 is_stmt 0 view .LVU109
 319 01bf 48634D38 		movslq	56(%rbp), %rcx
 320 01c3 E911FFFF 		jmp	.L7
 320      FF
 321              	.LBE9:
 322              	.LBE11:
 323              	.LBE16:
 324              		.cfi_endproc
 325              	.LFE51:
 327              		.text
 328              	.Letext0:
 329              		.file 2 "/usr/lib/gcc/x86_64-linux-gnu/9/include/stddef.h"
 330              		.file 3 "/usr/include/x86_64-linux-gnu/bits/types.h"
 331              		.file 4 "/usr/include/x86_64-linux-gnu/bits/types/struct_FILE.h"
 332              		.file 5 "/usr/include/x86_64-linux-gnu/bits/types/FILE.h"
 333              		.file 6 "/usr/include/stdio.h"
 334              		.file 7 "/usr/include/x86_64-linux-gnu/bits/sys_errlist.h"
 335              		.file 8 "fltk-1.3.4-1/jpeg/jmorecfg.h"
 336              		.file 9 "fltk-1.3.4-1/jpeg/jpeglib.h"
 337              		.file 10 "fltk-1.3.4-1/jpeg/jpegint.h"
 338              		.file 11 "fltk-1.3.4-1/jpeg/jerror.h"
 11514              		.section	.note.gnu.property,"a"
 11515              		.align 8
 11516 0000 04000000 		.long	 1f - 0f
 11517 0004 10000000 		.long	 4f - 1f
 11518 0008 05000000 		.long	 5
 11519              	0:
 11520 000c 474E5500 		.string	 "GNU"
 11521              	1:
 11522              		.align 8
 11523 0010 020000C0 		.long	 0xc0000002
 11524 0014 04000000 		.long	 3f - 2f
 11525              	2:
 11526 0018 03000000 		.long	 0x3
 11527              	3:
 11528 001c 00000000 		.align 8
 11529              	4: