   1              		.file	"jfdctflt.c"
   2              		.text
   3              	.Ltext0:
   4              		.section	.text.jpeg_fdct_float,"ax",@progbits
   5              		.p2align 4
   6              		.globl	jpeg_fdct_float
   8              	jpeg_fdct_float:
   9              	.LVL0:
  10              	.LFB51:
  11              		.file 1 "fltk-1.3.4-1/jpeg/jfdctflt.c"
   1:fltk-1.3.4-1/jpeg/jfdctflt.c **** /*
   2:fltk-1.3.4-1/jpeg/jfdctflt.c ****  * jfdctflt.c
   3:fltk-1.3.4-1/jpeg/jfdctflt.c ****  *
   4:fltk-1.3.4-1/jpeg/jfdctflt.c ****  * Copyright (C) 1994-1996, Thomas G. Lane.
   5:fltk-1.3.4-1/jpeg/jfdctflt.c ****  * Modified 2003-2009 by Guido Vollbeding.
   6:fltk-1.3.4-1/jpeg/jfdctflt.c ****  * This file is part of the Independent JPEG Group's software.
   7:fltk-1.3.4-1/jpeg/jfdctflt.c ****  * For conditions of distribution and use, see the accompanying README file.
   8:fltk-1.3.4-1/jpeg/jfdctflt.c ****  *
   9:fltk-1.3.4-1/jpeg/jfdctflt.c ****  * This file contains a floating-point implementation of the
  10:fltk-1.3.4-1/jpeg/jfdctflt.c ****  * forward DCT (Discrete Cosine Transform).
  11:fltk-1.3.4-1/jpeg/jfdctflt.c ****  *
  12:fltk-1.3.4-1/jpeg/jfdctflt.c ****  * This implementation should be more accurate than either of the integer
  13:fltk-1.3.4-1/jpeg/jfdctflt.c ****  * DCT implementations.  However, it may not give the same results on all
  14:fltk-1.3.4-1/jpeg/jfdctflt.c ****  * machines because of differences in roundoff behavior.  Speed will depend
  15:fltk-1.3.4-1/jpeg/jfdctflt.c ****  * on the hardware's floating point capacity.
  16:fltk-1.3.4-1/jpeg/jfdctflt.c ****  *
  17:fltk-1.3.4-1/jpeg/jfdctflt.c ****  * A 2-D DCT can be done by 1-D DCT on each row followed by 1-D DCT
  18:fltk-1.3.4-1/jpeg/jfdctflt.c ****  * on each column.  Direct algorithms are also available, but they are
  19:fltk-1.3.4-1/jpeg/jfdctflt.c ****  * much more complex and seem not to be any faster when reduced to code.
  20:fltk-1.3.4-1/jpeg/jfdctflt.c ****  *
  21:fltk-1.3.4-1/jpeg/jfdctflt.c ****  * This implementation is based on Arai, Agui, and Nakajima's algorithm for
  22:fltk-1.3.4-1/jpeg/jfdctflt.c ****  * scaled DCT.  Their original paper (Trans. IEICE E-71(11):1095) is in
  23:fltk-1.3.4-1/jpeg/jfdctflt.c ****  * Japanese, but the algorithm is described in the Pennebaker & Mitchell
  24:fltk-1.3.4-1/jpeg/jfdctflt.c ****  * JPEG textbook (see REFERENCES section in file README).  The following code
  25:fltk-1.3.4-1/jpeg/jfdctflt.c ****  * is based directly on figure 4-8 in P&M.
  26:fltk-1.3.4-1/jpeg/jfdctflt.c ****  * While an 8-point DCT cannot be done in less than 11 multiplies, it is
  27:fltk-1.3.4-1/jpeg/jfdctflt.c ****  * possible to arrange the computation so that many of the multiplies are
  28:fltk-1.3.4-1/jpeg/jfdctflt.c ****  * simple scalings of the final outputs.  These multiplies can then be
  29:fltk-1.3.4-1/jpeg/jfdctflt.c ****  * folded into the multiplications or divisions by the JPEG quantization
  30:fltk-1.3.4-1/jpeg/jfdctflt.c ****  * table entries.  The AA&N method leaves only 5 multiplies and 29 adds
  31:fltk-1.3.4-1/jpeg/jfdctflt.c ****  * to be done in the DCT itself.
  32:fltk-1.3.4-1/jpeg/jfdctflt.c ****  * The primary disadvantage of this method is that with a fixed-point
  33:fltk-1.3.4-1/jpeg/jfdctflt.c ****  * implementation, accuracy is lost due to imprecise representation of the
  34:fltk-1.3.4-1/jpeg/jfdctflt.c ****  * scaled quantization values.  However, that problem does not arise if
  35:fltk-1.3.4-1/jpeg/jfdctflt.c ****  * we use floating point arithmetic.
  36:fltk-1.3.4-1/jpeg/jfdctflt.c ****  */
  37:fltk-1.3.4-1/jpeg/jfdctflt.c **** 
  38:fltk-1.3.4-1/jpeg/jfdctflt.c **** #define JPEG_INTERNALS
  39:fltk-1.3.4-1/jpeg/jfdctflt.c **** #include "jinclude.h"
  40:fltk-1.3.4-1/jpeg/jfdctflt.c **** #include "jpeglib.h"
  41:fltk-1.3.4-1/jpeg/jfdctflt.c **** #include "jdct.h"		/* Private declarations for DCT subsystem */
  42:fltk-1.3.4-1/jpeg/jfdctflt.c **** 
  43:fltk-1.3.4-1/jpeg/jfdctflt.c **** #ifdef DCT_FLOAT_SUPPORTED
  44:fltk-1.3.4-1/jpeg/jfdctflt.c **** 
  45:fltk-1.3.4-1/jpeg/jfdctflt.c **** 
  46:fltk-1.3.4-1/jpeg/jfdctflt.c **** /*
  47:fltk-1.3.4-1/jpeg/jfdctflt.c ****  * This module is specialized to the case DCTSIZE = 8.
  48:fltk-1.3.4-1/jpeg/jfdctflt.c ****  */
  49:fltk-1.3.4-1/jpeg/jfdctflt.c **** 
  50:fltk-1.3.4-1/jpeg/jfdctflt.c **** #if DCTSIZE != 8
  51:fltk-1.3.4-1/jpeg/jfdctflt.c ****   Sorry, this code only copes with 8x8 DCTs. /* deliberate syntax err */
  52:fltk-1.3.4-1/jpeg/jfdctflt.c **** #endif
  53:fltk-1.3.4-1/jpeg/jfdctflt.c **** 
  54:fltk-1.3.4-1/jpeg/jfdctflt.c **** 
  55:fltk-1.3.4-1/jpeg/jfdctflt.c **** /*
  56:fltk-1.3.4-1/jpeg/jfdctflt.c ****  * Perform the forward DCT on one block of samples.
  57:fltk-1.3.4-1/jpeg/jfdctflt.c ****  */
  58:fltk-1.3.4-1/jpeg/jfdctflt.c **** 
  59:fltk-1.3.4-1/jpeg/jfdctflt.c **** GLOBAL(void)
  60:fltk-1.3.4-1/jpeg/jfdctflt.c **** jpeg_fdct_float (FAST_FLOAT * data, JSAMPARRAY sample_data, JDIMENSION start_col)
  61:fltk-1.3.4-1/jpeg/jfdctflt.c **** {
  12              		.loc 1 61 1 view -0
  13              		.cfi_startproc
  14              		.loc 1 61 1 is_stmt 0 view .LVU1
  15 0000 F30F1EFA 		endbr64
  62:fltk-1.3.4-1/jpeg/jfdctflt.c ****   FAST_FLOAT tmp0, tmp1, tmp2, tmp3, tmp4, tmp5, tmp6, tmp7;
  16              		.loc 1 62 3 is_stmt 1 view .LVU2
  63:fltk-1.3.4-1/jpeg/jfdctflt.c ****   FAST_FLOAT tmp10, tmp11, tmp12, tmp13;
  17              		.loc 1 63 3 view .LVU3
  64:fltk-1.3.4-1/jpeg/jfdctflt.c ****   FAST_FLOAT z1, z2, z3, z4, z5, z11, z13;
  18              		.loc 1 64 3 view .LVU4
  65:fltk-1.3.4-1/jpeg/jfdctflt.c ****   FAST_FLOAT *dataptr;
  19              		.loc 1 65 3 view .LVU5
  66:fltk-1.3.4-1/jpeg/jfdctflt.c ****   JSAMPROW elemptr;
  20              		.loc 1 66 3 view .LVU6
  67:fltk-1.3.4-1/jpeg/jfdctflt.c ****   int ctr;
  21              		.loc 1 67 3 view .LVU7
  68:fltk-1.3.4-1/jpeg/jfdctflt.c **** 
  69:fltk-1.3.4-1/jpeg/jfdctflt.c ****   /* Pass 1: process rows. */
  70:fltk-1.3.4-1/jpeg/jfdctflt.c **** 
  71:fltk-1.3.4-1/jpeg/jfdctflt.c ****   dataptr = data;
  22              		.loc 1 71 3 view .LVU8
  23              	.LVL1:
  72:fltk-1.3.4-1/jpeg/jfdctflt.c ****   for (ctr = 0; ctr < DCTSIZE; ctr++) {
  24              		.loc 1 72 3 view .LVU9
  25              		.loc 1 72 17 view .LVU10
  26 0004 F3440F10 		movss	.LC0(%rip), %xmm8
  26      05000000 
  26      00
  27 000d F30F101D 		movss	.LC1(%rip), %xmm3
  27      00000000 
  28 0015 89D2     		movl	%edx, %edx
  29              		.loc 1 72 17 is_stmt 0 view .LVU11
  30 0017 4C8D9700 		leaq	256(%rdi), %r10
  30      010000
  31 001e F30F1025 		movss	.LC2(%rip), %xmm4
  31      00000000 
  32 0026 F30F102D 		movss	.LC3(%rip), %xmm5
  32      00000000 
  71:fltk-1.3.4-1/jpeg/jfdctflt.c ****   for (ctr = 0; ctr < DCTSIZE; ctr++) {
  33              		.loc 1 71 11 view .LVU12
  34 002e 4889F9   		movq	%rdi, %rcx
  35 0031 F30F1035 		movss	.LC4(%rip), %xmm6
  35      00000000 
  36              	.LVL2:
  37 0039 0F1F8000 		.p2align 4,,10
  37      000000
  38              		.p2align 3
  39              	.L2:
  73:fltk-1.3.4-1/jpeg/jfdctflt.c ****     elemptr = sample_data[ctr] + start_col;
  40              		.loc 1 73 5 is_stmt 1 discriminator 3 view .LVU13
  41              		.loc 1 73 13 is_stmt 0 discriminator 3 view .LVU14
  42 0040 4C8B06   		movq	(%rsi), %r8
  74:fltk-1.3.4-1/jpeg/jfdctflt.c **** 
  75:fltk-1.3.4-1/jpeg/jfdctflt.c ****     /* Load data into workspace */
  76:fltk-1.3.4-1/jpeg/jfdctflt.c ****     tmp0 = (FAST_FLOAT) (GETJSAMPLE(elemptr[0]) + GETJSAMPLE(elemptr[7]));
  43              		.loc 1 76 10 discriminator 3 view .LVU15
  44 0043 66450FEF 		pxor	%xmm9, %xmm9
  44      C9
  77:fltk-1.3.4-1/jpeg/jfdctflt.c ****     tmp7 = (FAST_FLOAT) (GETJSAMPLE(elemptr[0]) - GETJSAMPLE(elemptr[7]));
  45              		.loc 1 77 10 discriminator 3 view .LVU16
  46 0048 660FEFC9 		pxor	%xmm1, %xmm1
  78:fltk-1.3.4-1/jpeg/jfdctflt.c ****     tmp1 = (FAST_FLOAT) (GETJSAMPLE(elemptr[1]) + GETJSAMPLE(elemptr[6]));
  79:fltk-1.3.4-1/jpeg/jfdctflt.c ****     tmp6 = (FAST_FLOAT) (GETJSAMPLE(elemptr[1]) - GETJSAMPLE(elemptr[6]));
  47              		.loc 1 79 10 discriminator 3 view .LVU17
  48 004c 660FEFD2 		pxor	%xmm2, %xmm2
  78:fltk-1.3.4-1/jpeg/jfdctflt.c ****     tmp1 = (FAST_FLOAT) (GETJSAMPLE(elemptr[1]) + GETJSAMPLE(elemptr[6]));
  49              		.loc 1 78 10 discriminator 3 view .LVU18
  50 0050 660FEFC0 		pxor	%xmm0, %xmm0
  80:fltk-1.3.4-1/jpeg/jfdctflt.c ****     tmp2 = (FAST_FLOAT) (GETJSAMPLE(elemptr[2]) + GETJSAMPLE(elemptr[5]));
  81:fltk-1.3.4-1/jpeg/jfdctflt.c ****     tmp5 = (FAST_FLOAT) (GETJSAMPLE(elemptr[2]) - GETJSAMPLE(elemptr[5]));
  51              		.loc 1 81 10 discriminator 3 view .LVU19
  52 0054 660FEFFF 		pxor	%xmm7, %xmm7
  82:fltk-1.3.4-1/jpeg/jfdctflt.c ****     tmp3 = (FAST_FLOAT) (GETJSAMPLE(elemptr[3]) + GETJSAMPLE(elemptr[4]));
  83:fltk-1.3.4-1/jpeg/jfdctflt.c ****     tmp4 = (FAST_FLOAT) (GETJSAMPLE(elemptr[3]) - GETJSAMPLE(elemptr[4]));
  84:fltk-1.3.4-1/jpeg/jfdctflt.c **** 
  85:fltk-1.3.4-1/jpeg/jfdctflt.c ****     /* Even part */
  86:fltk-1.3.4-1/jpeg/jfdctflt.c **** 
  87:fltk-1.3.4-1/jpeg/jfdctflt.c ****     tmp10 = tmp0 + tmp3;	/* phase 2 */
  88:fltk-1.3.4-1/jpeg/jfdctflt.c ****     tmp13 = tmp0 - tmp3;
  89:fltk-1.3.4-1/jpeg/jfdctflt.c ****     tmp11 = tmp1 + tmp2;
  90:fltk-1.3.4-1/jpeg/jfdctflt.c ****     tmp12 = tmp1 - tmp2;
  91:fltk-1.3.4-1/jpeg/jfdctflt.c **** 
  92:fltk-1.3.4-1/jpeg/jfdctflt.c ****     /* Apply unsigned->signed conversion */
  93:fltk-1.3.4-1/jpeg/jfdctflt.c ****     dataptr[0] = tmp10 + tmp11 - 8 * CENTERJSAMPLE; /* phase 3 */
  94:fltk-1.3.4-1/jpeg/jfdctflt.c ****     dataptr[4] = tmp10 - tmp11;
  95:fltk-1.3.4-1/jpeg/jfdctflt.c **** 
  96:fltk-1.3.4-1/jpeg/jfdctflt.c ****     z1 = (tmp12 + tmp13) * ((FAST_FLOAT) 0.707106781); /* c4 */
  97:fltk-1.3.4-1/jpeg/jfdctflt.c ****     dataptr[2] = tmp13 + z1;	/* phase 5 */
  98:fltk-1.3.4-1/jpeg/jfdctflt.c ****     dataptr[6] = tmp13 - z1;
  99:fltk-1.3.4-1/jpeg/jfdctflt.c **** 
 100:fltk-1.3.4-1/jpeg/jfdctflt.c ****     /* Odd part */
 101:fltk-1.3.4-1/jpeg/jfdctflt.c **** 
 102:fltk-1.3.4-1/jpeg/jfdctflt.c ****     tmp10 = tmp4 + tmp5;	/* phase 2 */
 103:fltk-1.3.4-1/jpeg/jfdctflt.c ****     tmp11 = tmp5 + tmp6;
 104:fltk-1.3.4-1/jpeg/jfdctflt.c ****     tmp12 = tmp6 + tmp7;
 105:fltk-1.3.4-1/jpeg/jfdctflt.c **** 
 106:fltk-1.3.4-1/jpeg/jfdctflt.c ****     /* The rotator is modified from fig 4-8 to avoid extra negations. */
 107:fltk-1.3.4-1/jpeg/jfdctflt.c ****     z5 = (tmp10 - tmp12) * ((FAST_FLOAT) 0.382683433); /* c6 */
 108:fltk-1.3.4-1/jpeg/jfdctflt.c ****     z2 = ((FAST_FLOAT) 0.541196100) * tmp10 + z5; /* c2-c6 */
 109:fltk-1.3.4-1/jpeg/jfdctflt.c ****     z4 = ((FAST_FLOAT) 1.306562965) * tmp12 + z5; /* c2+c6 */
 110:fltk-1.3.4-1/jpeg/jfdctflt.c ****     z3 = tmp11 * ((FAST_FLOAT) 0.707106781); /* c4 */
 111:fltk-1.3.4-1/jpeg/jfdctflt.c **** 
 112:fltk-1.3.4-1/jpeg/jfdctflt.c ****     z11 = tmp7 + z3;		/* phase 5 */
 113:fltk-1.3.4-1/jpeg/jfdctflt.c ****     z13 = tmp7 - z3;
 114:fltk-1.3.4-1/jpeg/jfdctflt.c **** 
 115:fltk-1.3.4-1/jpeg/jfdctflt.c ****     dataptr[5] = z13 + z2;	/* phase 6 */
 116:fltk-1.3.4-1/jpeg/jfdctflt.c ****     dataptr[3] = z13 - z2;
 117:fltk-1.3.4-1/jpeg/jfdctflt.c ****     dataptr[1] = z11 + z4;
 118:fltk-1.3.4-1/jpeg/jfdctflt.c ****     dataptr[7] = z11 - z4;
 119:fltk-1.3.4-1/jpeg/jfdctflt.c **** 
 120:fltk-1.3.4-1/jpeg/jfdctflt.c ****     dataptr += DCTSIZE;		/* advance pointer to next row */
  53              		.loc 1 120 13 discriminator 3 view .LVU20
  54 0058 4883C120 		addq	$32, %rcx
  55              	.LVL3:
  56              		.loc 1 120 13 discriminator 3 view .LVU21
  57 005c 4883C608 		addq	$8, %rsi
  73:fltk-1.3.4-1/jpeg/jfdctflt.c **** 
  58              		.loc 1 73 13 discriminator 3 view .LVU22
  59 0060 4901D0   		addq	%rdx, %r8
  60              	.LVL4:
  76:fltk-1.3.4-1/jpeg/jfdctflt.c ****     tmp7 = (FAST_FLOAT) (GETJSAMPLE(elemptr[0]) - GETJSAMPLE(elemptr[7]));
  61              		.loc 1 76 5 is_stmt 1 discriminator 3 view .LVU23
  80:fltk-1.3.4-1/jpeg/jfdctflt.c ****     tmp5 = (FAST_FLOAT) (GETJSAMPLE(elemptr[2]) - GETJSAMPLE(elemptr[5]));
  62              		.loc 1 80 10 is_stmt 0 discriminator 3 view .LVU24
  63 0063 66450FEF 		pxor	%xmm10, %xmm10
  63      D2
  82:fltk-1.3.4-1/jpeg/jfdctflt.c ****     tmp4 = (FAST_FLOAT) (GETJSAMPLE(elemptr[3]) - GETJSAMPLE(elemptr[4]));
  64              		.loc 1 82 10 discriminator 3 view .LVU25
  65 0068 66450FEF 		pxor	%xmm12, %xmm12
  65      E4
  76:fltk-1.3.4-1/jpeg/jfdctflt.c ****     tmp7 = (FAST_FLOAT) (GETJSAMPLE(elemptr[0]) - GETJSAMPLE(elemptr[7]));
  66              		.loc 1 76 51 discriminator 3 view .LVU26
  67 006d 450FB658 		movzbl	7(%r8), %r11d
  67      07
  76:fltk-1.3.4-1/jpeg/jfdctflt.c ****     tmp7 = (FAST_FLOAT) (GETJSAMPLE(elemptr[0]) - GETJSAMPLE(elemptr[7]));
  68              		.loc 1 76 26 discriminator 3 view .LVU27
  69 0072 450FB608 		movzbl	(%r8), %r9d
  76:fltk-1.3.4-1/jpeg/jfdctflt.c ****     tmp7 = (FAST_FLOAT) (GETJSAMPLE(elemptr[0]) - GETJSAMPLE(elemptr[7]));
  70              		.loc 1 76 49 discriminator 3 view .LVU28
  71 0076 438D0419 		leal	(%r9,%r11), %eax
  77:fltk-1.3.4-1/jpeg/jfdctflt.c ****     tmp1 = (FAST_FLOAT) (GETJSAMPLE(elemptr[1]) + GETJSAMPLE(elemptr[6]));
  72              		.loc 1 77 49 discriminator 3 view .LVU29
  73 007a 4529D9   		subl	%r11d, %r9d
  77:fltk-1.3.4-1/jpeg/jfdctflt.c ****     tmp1 = (FAST_FLOAT) (GETJSAMPLE(elemptr[1]) + GETJSAMPLE(elemptr[6]));
  74              		.loc 1 77 10 discriminator 3 view .LVU30
  75 007d F3410F2A 		cvtsi2ssl	%r9d, %xmm1
  75      C9
  78:fltk-1.3.4-1/jpeg/jfdctflt.c ****     tmp6 = (FAST_FLOAT) (GETJSAMPLE(elemptr[1]) - GETJSAMPLE(elemptr[6]));
  76              		.loc 1 78 51 discriminator 3 view .LVU31
  77 0082 450FB648 		movzbl	6(%r8), %r9d
  77      06
  76:fltk-1.3.4-1/jpeg/jfdctflt.c ****     tmp7 = (FAST_FLOAT) (GETJSAMPLE(elemptr[0]) - GETJSAMPLE(elemptr[7]));
  78              		.loc 1 76 10 discriminator 3 view .LVU32
  79 0087 F3440F2A 		cvtsi2ssl	%eax, %xmm9
  79      C8
  80              	.LVL5:
  77:fltk-1.3.4-1/jpeg/jfdctflt.c ****     tmp1 = (FAST_FLOAT) (GETJSAMPLE(elemptr[1]) + GETJSAMPLE(elemptr[6]));
  81              		.loc 1 77 5 is_stmt 1 discriminator 3 view .LVU33
  78:fltk-1.3.4-1/jpeg/jfdctflt.c ****     tmp6 = (FAST_FLOAT) (GETJSAMPLE(elemptr[1]) - GETJSAMPLE(elemptr[6]));
  82              		.loc 1 78 5 discriminator 3 view .LVU34
  78:fltk-1.3.4-1/jpeg/jfdctflt.c ****     tmp6 = (FAST_FLOAT) (GETJSAMPLE(elemptr[1]) - GETJSAMPLE(elemptr[6]));
  83              		.loc 1 78 26 is_stmt 0 discriminator 3 view .LVU35
  84 008c 410FB640 		movzbl	1(%r8), %eax
  84      01
  78:fltk-1.3.4-1/jpeg/jfdctflt.c ****     tmp6 = (FAST_FLOAT) (GETJSAMPLE(elemptr[1]) - GETJSAMPLE(elemptr[6]));
  85              		.loc 1 78 49 discriminator 3 view .LVU36
  86 0091 468D1C08 		leal	(%rax,%r9), %r11d
  79:fltk-1.3.4-1/jpeg/jfdctflt.c ****     tmp2 = (FAST_FLOAT) (GETJSAMPLE(elemptr[2]) + GETJSAMPLE(elemptr[5]));
  87              		.loc 1 79 49 discriminator 3 view .LVU37
  88 0095 4429C8   		subl	%r9d, %eax
  80:fltk-1.3.4-1/jpeg/jfdctflt.c ****     tmp5 = (FAST_FLOAT) (GETJSAMPLE(elemptr[2]) - GETJSAMPLE(elemptr[5]));
  89              		.loc 1 80 51 discriminator 3 view .LVU38
  90 0098 450FB648 		movzbl	5(%r8), %r9d
  90      05
  79:fltk-1.3.4-1/jpeg/jfdctflt.c ****     tmp2 = (FAST_FLOAT) (GETJSAMPLE(elemptr[2]) + GETJSAMPLE(elemptr[5]));
  91              		.loc 1 79 10 discriminator 3 view .LVU39
  92 009d F30F2AD0 		cvtsi2ssl	%eax, %xmm2
  80:fltk-1.3.4-1/jpeg/jfdctflt.c ****     tmp5 = (FAST_FLOAT) (GETJSAMPLE(elemptr[2]) - GETJSAMPLE(elemptr[5]));
  93              		.loc 1 80 26 discriminator 3 view .LVU40
  94 00a1 410FB640 		movzbl	2(%r8), %eax
  94      02
  78:fltk-1.3.4-1/jpeg/jfdctflt.c ****     tmp6 = (FAST_FLOAT) (GETJSAMPLE(elemptr[1]) - GETJSAMPLE(elemptr[6]));
  95              		.loc 1 78 10 discriminator 3 view .LVU41
  96 00a6 F3410F2A 		cvtsi2ssl	%r11d, %xmm0
  96      C3
  97              	.LVL6:
  79:fltk-1.3.4-1/jpeg/jfdctflt.c ****     tmp2 = (FAST_FLOAT) (GETJSAMPLE(elemptr[2]) + GETJSAMPLE(elemptr[5]));
  98              		.loc 1 79 5 is_stmt 1 discriminator 3 view .LVU42
  80:fltk-1.3.4-1/jpeg/jfdctflt.c ****     tmp5 = (FAST_FLOAT) (GETJSAMPLE(elemptr[2]) - GETJSAMPLE(elemptr[5]));
  99              		.loc 1 80 5 discriminator 3 view .LVU43
  87:fltk-1.3.4-1/jpeg/jfdctflt.c ****     tmp13 = tmp0 - tmp3;
 100              		.loc 1 87 11 is_stmt 0 discriminator 3 view .LVU44
 101 00ab 450F28D9 		movaps	%xmm9, %xmm11
  80:fltk-1.3.4-1/jpeg/jfdctflt.c ****     tmp5 = (FAST_FLOAT) (GETJSAMPLE(elemptr[2]) - GETJSAMPLE(elemptr[5]));
 102              		.loc 1 80 49 discriminator 3 view .LVU45
 103 00af 468D1C08 		leal	(%rax,%r9), %r11d
  81:fltk-1.3.4-1/jpeg/jfdctflt.c ****     tmp3 = (FAST_FLOAT) (GETJSAMPLE(elemptr[3]) + GETJSAMPLE(elemptr[4]));
 104              		.loc 1 81 49 discriminator 3 view .LVU46
 105 00b3 4429C8   		subl	%r9d, %eax
  82:fltk-1.3.4-1/jpeg/jfdctflt.c ****     tmp4 = (FAST_FLOAT) (GETJSAMPLE(elemptr[3]) - GETJSAMPLE(elemptr[4]));
 106              		.loc 1 82 51 discriminator 3 view .LVU47
 107 00b6 450FB648 		movzbl	4(%r8), %r9d
 107      04
  81:fltk-1.3.4-1/jpeg/jfdctflt.c ****     tmp3 = (FAST_FLOAT) (GETJSAMPLE(elemptr[3]) + GETJSAMPLE(elemptr[4]));
 108              		.loc 1 81 10 discriminator 3 view .LVU48
 109 00bb F30F2AF8 		cvtsi2ssl	%eax, %xmm7
  82:fltk-1.3.4-1/jpeg/jfdctflt.c ****     tmp4 = (FAST_FLOAT) (GETJSAMPLE(elemptr[3]) - GETJSAMPLE(elemptr[4]));
 110              		.loc 1 82 26 discriminator 3 view .LVU49
 111 00bf 410FB640 		movzbl	3(%r8), %eax
 111      03
  80:fltk-1.3.4-1/jpeg/jfdctflt.c ****     tmp5 = (FAST_FLOAT) (GETJSAMPLE(elemptr[2]) - GETJSAMPLE(elemptr[5]));
 112              		.loc 1 80 10 discriminator 3 view .LVU50
 113 00c4 F3450F2A 		cvtsi2ssl	%r11d, %xmm10
 113      D3
 114              	.LVL7:
  81:fltk-1.3.4-1/jpeg/jfdctflt.c ****     tmp3 = (FAST_FLOAT) (GETJSAMPLE(elemptr[3]) + GETJSAMPLE(elemptr[4]));
 115              		.loc 1 81 5 is_stmt 1 discriminator 3 view .LVU51
  82:fltk-1.3.4-1/jpeg/jfdctflt.c ****     tmp4 = (FAST_FLOAT) (GETJSAMPLE(elemptr[3]) - GETJSAMPLE(elemptr[4]));
 116              		.loc 1 82 5 discriminator 3 view .LVU52
  82:fltk-1.3.4-1/jpeg/jfdctflt.c ****     tmp4 = (FAST_FLOAT) (GETJSAMPLE(elemptr[3]) - GETJSAMPLE(elemptr[4]));
 117              		.loc 1 82 49 is_stmt 0 discriminator 3 view .LVU53
 118 00c9 468D0408 		leal	(%rax,%r9), %r8d
 119              	.LVL8:
  89:fltk-1.3.4-1/jpeg/jfdctflt.c ****     tmp12 = tmp1 - tmp2;
 120              		.loc 1 89 11 discriminator 3 view .LVU54
 121 00cd 440F28E8 		movaps	%xmm0, %xmm13
  83:fltk-1.3.4-1/jpeg/jfdctflt.c **** 
 122              		.loc 1 83 49 discriminator 3 view .LVU55
 123 00d1 4429C8   		subl	%r9d, %eax
  82:fltk-1.3.4-1/jpeg/jfdctflt.c ****     tmp4 = (FAST_FLOAT) (GETJSAMPLE(elemptr[3]) - GETJSAMPLE(elemptr[4]));
 124              		.loc 1 82 10 discriminator 3 view .LVU56
 125 00d4 F3450F2A 		cvtsi2ssl	%r8d, %xmm12
 125      E0
 126              	.LVL9:
  83:fltk-1.3.4-1/jpeg/jfdctflt.c **** 
 127              		.loc 1 83 5 is_stmt 1 discriminator 3 view .LVU57
  87:fltk-1.3.4-1/jpeg/jfdctflt.c ****     tmp13 = tmp0 - tmp3;
 128              		.loc 1 87 5 discriminator 3 view .LVU58
  90:fltk-1.3.4-1/jpeg/jfdctflt.c **** 
 129              		.loc 1 90 11 is_stmt 0 discriminator 3 view .LVU59
 130 00d9 F3410F5C 		subss	%xmm10, %xmm0
 130      C2
 131              	.LVL10:
  89:fltk-1.3.4-1/jpeg/jfdctflt.c ****     tmp12 = tmp1 - tmp2;
 132              		.loc 1 89 11 discriminator 3 view .LVU60
 133 00de F3450F58 		addss	%xmm10, %xmm13
 133      EA
 134              	.LVL11:
  88:fltk-1.3.4-1/jpeg/jfdctflt.c ****     tmp11 = tmp1 + tmp2;
 135              		.loc 1 88 11 discriminator 3 view .LVU61
 136 00e3 F3450F5C 		subss	%xmm12, %xmm9
 136      CC
 137              	.LVL12:
  87:fltk-1.3.4-1/jpeg/jfdctflt.c ****     tmp13 = tmp0 - tmp3;
 138              		.loc 1 87 11 discriminator 3 view .LVU62
 139 00e8 F3450F58 		addss	%xmm12, %xmm11
 139      DC
 140              	.LVL13:
  88:fltk-1.3.4-1/jpeg/jfdctflt.c ****     tmp11 = tmp1 + tmp2;
 141              		.loc 1 88 5 is_stmt 1 discriminator 3 view .LVU63
  89:fltk-1.3.4-1/jpeg/jfdctflt.c ****     tmp12 = tmp1 - tmp2;
 142              		.loc 1 89 5 discriminator 3 view .LVU64
  90:fltk-1.3.4-1/jpeg/jfdctflt.c **** 
 143              		.loc 1 90 5 discriminator 3 view .LVU65
  93:fltk-1.3.4-1/jpeg/jfdctflt.c ****     dataptr[4] = tmp10 - tmp11;
 144              		.loc 1 93 5 discriminator 3 view .LVU66
  96:fltk-1.3.4-1/jpeg/jfdctflt.c ****     dataptr[2] = tmp13 + z1;	/* phase 5 */
 145              		.loc 1 96 17 is_stmt 0 discriminator 3 view .LVU67
 146 00ed F3410F58 		addss	%xmm9, %xmm0
 146      C1
  97:fltk-1.3.4-1/jpeg/jfdctflt.c ****     dataptr[6] = tmp13 - z1;
 147              		.loc 1 97 24 discriminator 3 view .LVU68
 148 00f2 450F28D1 		movaps	%xmm9, %xmm10
 149              	.LVL14:
  93:fltk-1.3.4-1/jpeg/jfdctflt.c ****     dataptr[4] = tmp10 - tmp11;
 150              		.loc 1 93 24 discriminator 3 view .LVU69
 151 00f6 450F28E3 		movaps	%xmm11, %xmm12
 152              	.LVL15:
  93:fltk-1.3.4-1/jpeg/jfdctflt.c ****     dataptr[4] = tmp10 - tmp11;
 153              		.loc 1 93 24 discriminator 3 view .LVU70
 154 00fa F3450F58 		addss	%xmm13, %xmm12
 154      E5
  94:fltk-1.3.4-1/jpeg/jfdctflt.c **** 
 155              		.loc 1 94 24 discriminator 3 view .LVU71
 156 00ff F3450F5C 		subss	%xmm13, %xmm11
 156      DD
 157              	.LVL16:
  96:fltk-1.3.4-1/jpeg/jfdctflt.c ****     dataptr[2] = tmp13 + z1;	/* phase 5 */
 158              		.loc 1 96 8 discriminator 3 view .LVU72
 159 0104 F30F59C3 		mulss	%xmm3, %xmm0
  93:fltk-1.3.4-1/jpeg/jfdctflt.c ****     dataptr[4] = tmp10 - tmp11;
 160              		.loc 1 93 32 discriminator 3 view .LVU73
 161 0108 F3450F5C 		subss	%xmm8, %xmm12
 161      E0
  94:fltk-1.3.4-1/jpeg/jfdctflt.c **** 
 162              		.loc 1 94 16 discriminator 3 view .LVU74
 163 010d F3440F11 		movss	%xmm11, -16(%rcx)
 163      59F0
 164              	.LVL17:
  93:fltk-1.3.4-1/jpeg/jfdctflt.c ****     dataptr[4] = tmp10 - tmp11;
 165              		.loc 1 93 16 discriminator 3 view .LVU75
 166 0113 F3440F11 		movss	%xmm12, -32(%rcx)
 166      61E0
  94:fltk-1.3.4-1/jpeg/jfdctflt.c **** 
 167              		.loc 1 94 5 is_stmt 1 discriminator 3 view .LVU76
  96:fltk-1.3.4-1/jpeg/jfdctflt.c ****     dataptr[2] = tmp13 + z1;	/* phase 5 */
 168              		.loc 1 96 5 discriminator 3 view .LVU77
 169              	.LVL18:
  97:fltk-1.3.4-1/jpeg/jfdctflt.c ****     dataptr[6] = tmp13 - z1;
 170              		.loc 1 97 5 discriminator 3 view .LVU78
  97:fltk-1.3.4-1/jpeg/jfdctflt.c ****     dataptr[6] = tmp13 - z1;
 171              		.loc 1 97 24 is_stmt 0 discriminator 3 view .LVU79
 172 0119 F3440F58 		addss	%xmm0, %xmm10
 172      D0
  98:fltk-1.3.4-1/jpeg/jfdctflt.c **** 
 173              		.loc 1 98 24 discriminator 3 view .LVU80
 174 011e F3440F5C 		subss	%xmm0, %xmm9
 174      C8
 175              	.LVL19:
  83:fltk-1.3.4-1/jpeg/jfdctflt.c **** 
 176              		.loc 1 83 10 discriminator 3 view .LVU81
 177 0123 660FEFC0 		pxor	%xmm0, %xmm0
 178              	.LVL20:
  83:fltk-1.3.4-1/jpeg/jfdctflt.c **** 
 179              		.loc 1 83 10 discriminator 3 view .LVU82
 180 0127 F30F2AC0 		cvtsi2ssl	%eax, %xmm0
  98:fltk-1.3.4-1/jpeg/jfdctflt.c **** 
 181              		.loc 1 98 16 discriminator 3 view .LVU83
 182 012b F3440F11 		movss	%xmm9, -8(%rcx)
 182      49F8
 104:fltk-1.3.4-1/jpeg/jfdctflt.c **** 
 183              		.loc 1 104 11 discriminator 3 view .LVU84
 184 0131 440F28C9 		movaps	%xmm1, %xmm9
 185 0135 F3440F58 		addss	%xmm2, %xmm9
 185      CA
  97:fltk-1.3.4-1/jpeg/jfdctflt.c ****     dataptr[6] = tmp13 - z1;
 186              		.loc 1 97 16 discriminator 3 view .LVU85
 187 013a F3440F11 		movss	%xmm10, -24(%rcx)
 187      51E8
  98:fltk-1.3.4-1/jpeg/jfdctflt.c **** 
 188              		.loc 1 98 5 is_stmt 1 discriminator 3 view .LVU86
 102:fltk-1.3.4-1/jpeg/jfdctflt.c ****     tmp11 = tmp5 + tmp6;
 189              		.loc 1 102 5 discriminator 3 view .LVU87
 103:fltk-1.3.4-1/jpeg/jfdctflt.c ****     tmp12 = tmp6 + tmp7;
 190              		.loc 1 103 11 is_stmt 0 discriminator 3 view .LVU88
 191 0140 F30F58D7 		addss	%xmm7, %xmm2
 192              	.LVL21:
 102:fltk-1.3.4-1/jpeg/jfdctflt.c ****     tmp11 = tmp5 + tmp6;
 193              		.loc 1 102 11 discriminator 3 view .LVU89
 194 0144 F30F58C7 		addss	%xmm7, %xmm0
 195              	.LVL22:
 103:fltk-1.3.4-1/jpeg/jfdctflt.c ****     tmp12 = tmp6 + tmp7;
 196              		.loc 1 103 5 is_stmt 1 discriminator 3 view .LVU90
 104:fltk-1.3.4-1/jpeg/jfdctflt.c **** 
 197              		.loc 1 104 5 discriminator 3 view .LVU91
 107:fltk-1.3.4-1/jpeg/jfdctflt.c ****     z2 = ((FAST_FLOAT) 0.541196100) * tmp10 + z5; /* c2-c6 */
 198              		.loc 1 107 5 discriminator 3 view .LVU92
 112:fltk-1.3.4-1/jpeg/jfdctflt.c ****     z13 = tmp7 - z3;
 199              		.loc 1 112 9 is_stmt 0 discriminator 3 view .LVU93
 200 0148 0F28F9   		movaps	%xmm1, %xmm7
 201              	.LVL23:
 110:fltk-1.3.4-1/jpeg/jfdctflt.c **** 
 202              		.loc 1 110 8 discriminator 3 view .LVU94
 203 014b F30F59D3 		mulss	%xmm3, %xmm2
 107:fltk-1.3.4-1/jpeg/jfdctflt.c ****     z2 = ((FAST_FLOAT) 0.541196100) * tmp10 + z5; /* c2-c6 */
 204              		.loc 1 107 17 discriminator 3 view .LVU95
 205 014f 440F28D0 		movaps	%xmm0, %xmm10
 206 0153 F3450F5C 		subss	%xmm9, %xmm10
 206      D1
 108:fltk-1.3.4-1/jpeg/jfdctflt.c ****     z4 = ((FAST_FLOAT) 1.306562965) * tmp12 + z5; /* c2+c6 */
 207              		.loc 1 108 37 discriminator 3 view .LVU96
 208 0158 F30F59C5 		mulss	%xmm5, %xmm0
 209              	.LVL24:
 109:fltk-1.3.4-1/jpeg/jfdctflt.c ****     z3 = tmp11 * ((FAST_FLOAT) 0.707106781); /* c4 */
 210              		.loc 1 109 37 discriminator 3 view .LVU97
 211 015c F3440F59 		mulss	%xmm6, %xmm9
 211      CE
 212              	.LVL25:
 107:fltk-1.3.4-1/jpeg/jfdctflt.c ****     z2 = ((FAST_FLOAT) 0.541196100) * tmp10 + z5; /* c2-c6 */
 213              		.loc 1 107 8 discriminator 3 view .LVU98
 214 0161 F3440F59 		mulss	%xmm4, %xmm10
 214      D4
 215              	.LVL26:
 108:fltk-1.3.4-1/jpeg/jfdctflt.c ****     z4 = ((FAST_FLOAT) 1.306562965) * tmp12 + z5; /* c2+c6 */
 216              		.loc 1 108 5 is_stmt 1 discriminator 3 view .LVU99
 113:fltk-1.3.4-1/jpeg/jfdctflt.c **** 
 217              		.loc 1 113 9 is_stmt 0 discriminator 3 view .LVU100
 218 0166 F30F5CCA 		subss	%xmm2, %xmm1
 219              	.LVL27:
 112:fltk-1.3.4-1/jpeg/jfdctflt.c ****     z13 = tmp7 - z3;
 220              		.loc 1 112 9 discriminator 3 view .LVU101
 221 016a F30F58FA 		addss	%xmm2, %xmm7
 222              	.LVL28:
 108:fltk-1.3.4-1/jpeg/jfdctflt.c ****     z4 = ((FAST_FLOAT) 1.306562965) * tmp12 + z5; /* c2+c6 */
 223              		.loc 1 108 8 discriminator 3 view .LVU102
 224 016e F3410F58 		addss	%xmm10, %xmm0
 224      C2
 225              	.LVL29:
 109:fltk-1.3.4-1/jpeg/jfdctflt.c ****     z3 = tmp11 * ((FAST_FLOAT) 0.707106781); /* c4 */
 226              		.loc 1 109 5 is_stmt 1 discriminator 3 view .LVU103
 109:fltk-1.3.4-1/jpeg/jfdctflt.c ****     z3 = tmp11 * ((FAST_FLOAT) 0.707106781); /* c4 */
 227              		.loc 1 109 8 is_stmt 0 discriminator 3 view .LVU104
 228 0173 F3450F58 		addss	%xmm10, %xmm9
 228      CA
 229              	.LVL30:
 110:fltk-1.3.4-1/jpeg/jfdctflt.c **** 
 230              		.loc 1 110 5 is_stmt 1 discriminator 3 view .LVU105
 112:fltk-1.3.4-1/jpeg/jfdctflt.c ****     z13 = tmp7 - z3;
 231              		.loc 1 112 5 discriminator 3 view .LVU106
 113:fltk-1.3.4-1/jpeg/jfdctflt.c **** 
 232              		.loc 1 113 5 discriminator 3 view .LVU107
 115:fltk-1.3.4-1/jpeg/jfdctflt.c ****     dataptr[3] = z13 - z2;
 233              		.loc 1 115 5 discriminator 3 view .LVU108
 115:fltk-1.3.4-1/jpeg/jfdctflt.c ****     dataptr[3] = z13 - z2;
 234              		.loc 1 115 22 is_stmt 0 discriminator 3 view .LVU109
 235 0178 0F28D0   		movaps	%xmm0, %xmm2
 236              	.LVL31:
 115:fltk-1.3.4-1/jpeg/jfdctflt.c ****     dataptr[3] = z13 - z2;
 237              		.loc 1 115 22 discriminator 3 view .LVU110
 238 017b F30F58D1 		addss	%xmm1, %xmm2
 116:fltk-1.3.4-1/jpeg/jfdctflt.c ****     dataptr[1] = z11 + z4;
 239              		.loc 1 116 22 discriminator 3 view .LVU111
 240 017f F30F5CC8 		subss	%xmm0, %xmm1
 241              	.LVL32:
 117:fltk-1.3.4-1/jpeg/jfdctflt.c ****     dataptr[7] = z11 - z4;
 242              		.loc 1 117 22 discriminator 3 view .LVU112
 243 0183 410F28C1 		movaps	%xmm9, %xmm0
 244              	.LVL33:
 117:fltk-1.3.4-1/jpeg/jfdctflt.c ****     dataptr[7] = z11 - z4;
 245              		.loc 1 117 22 discriminator 3 view .LVU113
 246 0187 F30F58C7 		addss	%xmm7, %xmm0
 118:fltk-1.3.4-1/jpeg/jfdctflt.c **** 
 247              		.loc 1 118 22 discriminator 3 view .LVU114
 248 018b F3410F5C 		subss	%xmm9, %xmm7
 248      F9
 249              	.LVL34:
 115:fltk-1.3.4-1/jpeg/jfdctflt.c ****     dataptr[3] = z13 - z2;
 250              		.loc 1 115 16 discriminator 3 view .LVU115
 251 0190 F30F1151 		movss	%xmm2, -12(%rcx)
 251      F4
 116:fltk-1.3.4-1/jpeg/jfdctflt.c ****     dataptr[1] = z11 + z4;
 252              		.loc 1 116 5 is_stmt 1 discriminator 3 view .LVU116
 116:fltk-1.3.4-1/jpeg/jfdctflt.c ****     dataptr[1] = z11 + z4;
 253              		.loc 1 116 16 is_stmt 0 discriminator 3 view .LVU117
 254 0195 F30F1149 		movss	%xmm1, -20(%rcx)
 254      EC
 117:fltk-1.3.4-1/jpeg/jfdctflt.c ****     dataptr[7] = z11 - z4;
 255              		.loc 1 117 5 is_stmt 1 discriminator 3 view .LVU118
 117:fltk-1.3.4-1/jpeg/jfdctflt.c ****     dataptr[7] = z11 - z4;
 256              		.loc 1 117 16 is_stmt 0 discriminator 3 view .LVU119
 257 019a F30F1141 		movss	%xmm0, -28(%rcx)
 257      E4
 118:fltk-1.3.4-1/jpeg/jfdctflt.c **** 
 258              		.loc 1 118 5 is_stmt 1 discriminator 3 view .LVU120
 118:fltk-1.3.4-1/jpeg/jfdctflt.c **** 
 259              		.loc 1 118 16 is_stmt 0 discriminator 3 view .LVU121
 260 019f F30F1179 		movss	%xmm7, -4(%rcx)
 260      FC
 261              		.loc 1 120 5 is_stmt 1 discriminator 3 view .LVU122
 262              	.LVL35:
  72:fltk-1.3.4-1/jpeg/jfdctflt.c ****     elemptr = sample_data[ctr] + start_col;
 263              		.loc 1 72 32 discriminator 3 view .LVU123
  72:fltk-1.3.4-1/jpeg/jfdctflt.c ****     elemptr = sample_data[ctr] + start_col;
 264              		.loc 1 72 17 discriminator 3 view .LVU124
  72:fltk-1.3.4-1/jpeg/jfdctflt.c ****     elemptr = sample_data[ctr] + start_col;
 265              		.loc 1 72 3 is_stmt 0 discriminator 3 view .LVU125
 266 01a4 4C39D1   		cmpq	%r10, %rcx
 267 01a7 0F8593FE 		jne	.L2
 267      FFFF
 268 01ad 488D4720 		leaq	32(%rdi), %rax
 269              	.LVL36:
 270              		.p2align 4,,10
 271 01b1 0F1F8000 		.p2align 3
 271      000000
 272              	.L3:
 121:fltk-1.3.4-1/jpeg/jfdctflt.c ****   }
 122:fltk-1.3.4-1/jpeg/jfdctflt.c **** 
 123:fltk-1.3.4-1/jpeg/jfdctflt.c ****   /* Pass 2: process columns. */
 124:fltk-1.3.4-1/jpeg/jfdctflt.c **** 
 125:fltk-1.3.4-1/jpeg/jfdctflt.c ****   dataptr = data;
 126:fltk-1.3.4-1/jpeg/jfdctflt.c ****   for (ctr = DCTSIZE-1; ctr >= 0; ctr--) {
 127:fltk-1.3.4-1/jpeg/jfdctflt.c ****     tmp0 = dataptr[DCTSIZE*0] + dataptr[DCTSIZE*7];
 273              		.loc 1 127 5 is_stmt 1 discriminator 3 view .LVU126
 274              		.loc 1 127 19 is_stmt 0 discriminator 3 view .LVU127
 275 01b8 F30F100F 		movss	(%rdi), %xmm1
 128:fltk-1.3.4-1/jpeg/jfdctflt.c ****     tmp7 = dataptr[DCTSIZE*0] - dataptr[DCTSIZE*7];
 129:fltk-1.3.4-1/jpeg/jfdctflt.c ****     tmp1 = dataptr[DCTSIZE*1] + dataptr[DCTSIZE*6];
 276              		.loc 1 129 19 discriminator 3 view .LVU128
 277 01bc F30F107F 		movss	32(%rdi), %xmm7
 277      20
 130:fltk-1.3.4-1/jpeg/jfdctflt.c ****     tmp6 = dataptr[DCTSIZE*1] - dataptr[DCTSIZE*6];
 131:fltk-1.3.4-1/jpeg/jfdctflt.c ****     tmp2 = dataptr[DCTSIZE*2] + dataptr[DCTSIZE*5];
 132:fltk-1.3.4-1/jpeg/jfdctflt.c ****     tmp5 = dataptr[DCTSIZE*2] - dataptr[DCTSIZE*5];
 133:fltk-1.3.4-1/jpeg/jfdctflt.c ****     tmp3 = dataptr[DCTSIZE*3] + dataptr[DCTSIZE*4];
 134:fltk-1.3.4-1/jpeg/jfdctflt.c ****     tmp4 = dataptr[DCTSIZE*3] - dataptr[DCTSIZE*4];
 135:fltk-1.3.4-1/jpeg/jfdctflt.c **** 
 136:fltk-1.3.4-1/jpeg/jfdctflt.c ****     /* Even part */
 137:fltk-1.3.4-1/jpeg/jfdctflt.c **** 
 138:fltk-1.3.4-1/jpeg/jfdctflt.c ****     tmp10 = tmp0 + tmp3;	/* phase 2 */
 139:fltk-1.3.4-1/jpeg/jfdctflt.c ****     tmp13 = tmp0 - tmp3;
 140:fltk-1.3.4-1/jpeg/jfdctflt.c ****     tmp11 = tmp1 + tmp2;
 141:fltk-1.3.4-1/jpeg/jfdctflt.c ****     tmp12 = tmp1 - tmp2;
 142:fltk-1.3.4-1/jpeg/jfdctflt.c **** 
 143:fltk-1.3.4-1/jpeg/jfdctflt.c ****     dataptr[DCTSIZE*0] = tmp10 + tmp11; /* phase 3 */
 144:fltk-1.3.4-1/jpeg/jfdctflt.c ****     dataptr[DCTSIZE*4] = tmp10 - tmp11;
 145:fltk-1.3.4-1/jpeg/jfdctflt.c **** 
 146:fltk-1.3.4-1/jpeg/jfdctflt.c ****     z1 = (tmp12 + tmp13) * ((FAST_FLOAT) 0.707106781); /* c4 */
 147:fltk-1.3.4-1/jpeg/jfdctflt.c ****     dataptr[DCTSIZE*2] = tmp13 + z1; /* phase 5 */
 148:fltk-1.3.4-1/jpeg/jfdctflt.c ****     dataptr[DCTSIZE*6] = tmp13 - z1;
 149:fltk-1.3.4-1/jpeg/jfdctflt.c **** 
 150:fltk-1.3.4-1/jpeg/jfdctflt.c ****     /* Odd part */
 151:fltk-1.3.4-1/jpeg/jfdctflt.c **** 
 152:fltk-1.3.4-1/jpeg/jfdctflt.c ****     tmp10 = tmp4 + tmp5;	/* phase 2 */
 153:fltk-1.3.4-1/jpeg/jfdctflt.c ****     tmp11 = tmp5 + tmp6;
 154:fltk-1.3.4-1/jpeg/jfdctflt.c ****     tmp12 = tmp6 + tmp7;
 155:fltk-1.3.4-1/jpeg/jfdctflt.c **** 
 156:fltk-1.3.4-1/jpeg/jfdctflt.c ****     /* The rotator is modified from fig 4-8 to avoid extra negations. */
 157:fltk-1.3.4-1/jpeg/jfdctflt.c ****     z5 = (tmp10 - tmp12) * ((FAST_FLOAT) 0.382683433); /* c6 */
 158:fltk-1.3.4-1/jpeg/jfdctflt.c ****     z2 = ((FAST_FLOAT) 0.541196100) * tmp10 + z5; /* c2-c6 */
 159:fltk-1.3.4-1/jpeg/jfdctflt.c ****     z4 = ((FAST_FLOAT) 1.306562965) * tmp12 + z5; /* c2+c6 */
 160:fltk-1.3.4-1/jpeg/jfdctflt.c ****     z3 = tmp11 * ((FAST_FLOAT) 0.707106781); /* c4 */
 161:fltk-1.3.4-1/jpeg/jfdctflt.c **** 
 162:fltk-1.3.4-1/jpeg/jfdctflt.c ****     z11 = tmp7 + z3;		/* phase 5 */
 163:fltk-1.3.4-1/jpeg/jfdctflt.c ****     z13 = tmp7 - z3;
 164:fltk-1.3.4-1/jpeg/jfdctflt.c **** 
 165:fltk-1.3.4-1/jpeg/jfdctflt.c ****     dataptr[DCTSIZE*5] = z13 + z2; /* phase 6 */
 166:fltk-1.3.4-1/jpeg/jfdctflt.c ****     dataptr[DCTSIZE*3] = z13 - z2;
 167:fltk-1.3.4-1/jpeg/jfdctflt.c ****     dataptr[DCTSIZE*1] = z11 + z4;
 168:fltk-1.3.4-1/jpeg/jfdctflt.c ****     dataptr[DCTSIZE*7] = z11 - z4;
 169:fltk-1.3.4-1/jpeg/jfdctflt.c **** 
 170:fltk-1.3.4-1/jpeg/jfdctflt.c ****     dataptr++;			/* advance pointer to next column */
 278              		.loc 1 170 12 discriminator 3 view .LVU129
 279 01c1 4883C704 		addq	$4, %rdi
 280              	.LVL37:
 127:fltk-1.3.4-1/jpeg/jfdctflt.c ****     tmp7 = dataptr[DCTSIZE*0] - dataptr[DCTSIZE*7];
 281              		.loc 1 127 40 discriminator 3 view .LVU130
 282 01c5 F30F1087 		movss	220(%rdi), %xmm0
 282      DC000000 
 131:fltk-1.3.4-1/jpeg/jfdctflt.c ****     tmp5 = dataptr[DCTSIZE*2] - dataptr[DCTSIZE*5];
 283              		.loc 1 131 19 discriminator 3 view .LVU131
 284 01cd F3440F10 		movss	60(%rdi), %xmm8
 284      473C
 127:fltk-1.3.4-1/jpeg/jfdctflt.c ****     tmp7 = dataptr[DCTSIZE*0] - dataptr[DCTSIZE*7];
 285              		.loc 1 127 10 discriminator 3 view .LVU132
 286 01d3 440F28C9 		movaps	%xmm1, %xmm9
 129:fltk-1.3.4-1/jpeg/jfdctflt.c ****     tmp6 = dataptr[DCTSIZE*1] - dataptr[DCTSIZE*6];
 287              		.loc 1 129 10 discriminator 3 view .LVU133
 288 01d7 0F28D7   		movaps	%xmm7, %xmm2
 133:fltk-1.3.4-1/jpeg/jfdctflt.c ****     tmp4 = dataptr[DCTSIZE*3] - dataptr[DCTSIZE*4];
 289              		.loc 1 133 40 discriminator 3 view .LVU134
 290 01da F3440F10 		movss	124(%rdi), %xmm11
 290      5F7C
 128:fltk-1.3.4-1/jpeg/jfdctflt.c ****     tmp1 = dataptr[DCTSIZE*1] + dataptr[DCTSIZE*6];
 291              		.loc 1 128 10 discriminator 3 view .LVU135
 292 01e0 F30F5CC8 		subss	%xmm0, %xmm1
 127:fltk-1.3.4-1/jpeg/jfdctflt.c ****     tmp7 = dataptr[DCTSIZE*0] - dataptr[DCTSIZE*7];
 293              		.loc 1 127 10 discriminator 3 view .LVU136
 294 01e4 F3440F58 		addss	%xmm0, %xmm9
 294      C8
 295              	.LVL38:
 128:fltk-1.3.4-1/jpeg/jfdctflt.c ****     tmp1 = dataptr[DCTSIZE*1] + dataptr[DCTSIZE*6];
 296              		.loc 1 128 5 is_stmt 1 discriminator 3 view .LVU137
 129:fltk-1.3.4-1/jpeg/jfdctflt.c ****     tmp6 = dataptr[DCTSIZE*1] - dataptr[DCTSIZE*6];
 297              		.loc 1 129 5 discriminator 3 view .LVU138
 131:fltk-1.3.4-1/jpeg/jfdctflt.c ****     tmp5 = dataptr[DCTSIZE*2] - dataptr[DCTSIZE*5];
 298              		.loc 1 131 10 is_stmt 0 discriminator 3 view .LVU139
 299 01e9 450F28E0 		movaps	%xmm8, %xmm12
 129:fltk-1.3.4-1/jpeg/jfdctflt.c ****     tmp6 = dataptr[DCTSIZE*1] - dataptr[DCTSIZE*6];
 300              		.loc 1 129 40 discriminator 3 view .LVU140
 301 01ed F30F1087 		movss	188(%rdi), %xmm0
 301      BC000000 
 129:fltk-1.3.4-1/jpeg/jfdctflt.c ****     tmp6 = dataptr[DCTSIZE*1] - dataptr[DCTSIZE*6];
 302              		.loc 1 129 10 discriminator 3 view .LVU141
 303 01f5 F30F58D0 		addss	%xmm0, %xmm2
 304              	.LVL39:
 130:fltk-1.3.4-1/jpeg/jfdctflt.c ****     tmp2 = dataptr[DCTSIZE*2] + dataptr[DCTSIZE*5];
 305              		.loc 1 130 5 is_stmt 1 discriminator 3 view .LVU142
 130:fltk-1.3.4-1/jpeg/jfdctflt.c ****     tmp2 = dataptr[DCTSIZE*2] + dataptr[DCTSIZE*5];
 306              		.loc 1 130 10 is_stmt 0 discriminator 3 view .LVU143
 307 01f9 F30F5CF8 		subss	%xmm0, %xmm7
 308              	.LVL40:
 131:fltk-1.3.4-1/jpeg/jfdctflt.c ****     tmp5 = dataptr[DCTSIZE*2] - dataptr[DCTSIZE*5];
 309              		.loc 1 131 5 is_stmt 1 discriminator 3 view .LVU144
 131:fltk-1.3.4-1/jpeg/jfdctflt.c ****     tmp5 = dataptr[DCTSIZE*2] - dataptr[DCTSIZE*5];
 310              		.loc 1 131 40 is_stmt 0 discriminator 3 view .LVU145
 311 01fd F30F1087 		movss	156(%rdi), %xmm0
 311      9C000000 
 138:fltk-1.3.4-1/jpeg/jfdctflt.c ****     tmp13 = tmp0 - tmp3;
 312              		.loc 1 138 11 discriminator 3 view .LVU146
 313 0205 450F28D1 		movaps	%xmm9, %xmm10
 132:fltk-1.3.4-1/jpeg/jfdctflt.c ****     tmp3 = dataptr[DCTSIZE*3] + dataptr[DCTSIZE*4];
 314              		.loc 1 132 10 discriminator 3 view .LVU147
 315 0209 F3440F5C 		subss	%xmm0, %xmm8
 315      C0
 131:fltk-1.3.4-1/jpeg/jfdctflt.c ****     tmp5 = dataptr[DCTSIZE*2] - dataptr[DCTSIZE*5];
 316              		.loc 1 131 10 discriminator 3 view .LVU148
 317 020e F3440F58 		addss	%xmm0, %xmm12
 317      E0
 318              	.LVL41:
 132:fltk-1.3.4-1/jpeg/jfdctflt.c ****     tmp3 = dataptr[DCTSIZE*3] + dataptr[DCTSIZE*4];
 319              		.loc 1 132 5 is_stmt 1 discriminator 3 view .LVU149
 133:fltk-1.3.4-1/jpeg/jfdctflt.c ****     tmp4 = dataptr[DCTSIZE*3] - dataptr[DCTSIZE*4];
 320              		.loc 1 133 5 discriminator 3 view .LVU150
 133:fltk-1.3.4-1/jpeg/jfdctflt.c ****     tmp4 = dataptr[DCTSIZE*3] - dataptr[DCTSIZE*4];
 321              		.loc 1 133 19 is_stmt 0 discriminator 3 view .LVU151
 322 0213 F30F1047 		movss	92(%rdi), %xmm0
 322      5C
 133:fltk-1.3.4-1/jpeg/jfdctflt.c ****     tmp4 = dataptr[DCTSIZE*3] - dataptr[DCTSIZE*4];
 323              		.loc 1 133 10 discriminator 3 view .LVU152
 324 0218 440F28E8 		movaps	%xmm0, %xmm13
 134:fltk-1.3.4-1/jpeg/jfdctflt.c **** 
 325              		.loc 1 134 10 discriminator 3 view .LVU153
 326 021c F3410F5C 		subss	%xmm11, %xmm0
 326      C3
 133:fltk-1.3.4-1/jpeg/jfdctflt.c ****     tmp4 = dataptr[DCTSIZE*3] - dataptr[DCTSIZE*4];
 327              		.loc 1 133 10 discriminator 3 view .LVU154
 328 0221 F3450F58 		addss	%xmm11, %xmm13
 328      EB
 329              	.LVL42:
 134:fltk-1.3.4-1/jpeg/jfdctflt.c **** 
 330              		.loc 1 134 5 is_stmt 1 discriminator 3 view .LVU155
 138:fltk-1.3.4-1/jpeg/jfdctflt.c ****     tmp13 = tmp0 - tmp3;
 331              		.loc 1 138 5 discriminator 3 view .LVU156
 152:fltk-1.3.4-1/jpeg/jfdctflt.c ****     tmp11 = tmp5 + tmp6;
 332              		.loc 1 152 11 is_stmt 0 discriminator 3 view .LVU157
 333 0226 F3410F58 		addss	%xmm8, %xmm0
 333      C0
 139:fltk-1.3.4-1/jpeg/jfdctflt.c ****     tmp11 = tmp1 + tmp2;
 334              		.loc 1 139 11 discriminator 3 view .LVU158
 335 022b F3450F5C 		subss	%xmm13, %xmm9
 335      CD
 336              	.LVL43:
 138:fltk-1.3.4-1/jpeg/jfdctflt.c ****     tmp13 = tmp0 - tmp3;
 337              		.loc 1 138 11 discriminator 3 view .LVU159
 338 0230 F3450F58 		addss	%xmm13, %xmm10
 338      D5
 339              	.LVL44:
 139:fltk-1.3.4-1/jpeg/jfdctflt.c ****     tmp11 = tmp1 + tmp2;
 340              		.loc 1 139 5 is_stmt 1 discriminator 3 view .LVU160
 140:fltk-1.3.4-1/jpeg/jfdctflt.c ****     tmp12 = tmp1 - tmp2;
 341              		.loc 1 140 5 discriminator 3 view .LVU161
 140:fltk-1.3.4-1/jpeg/jfdctflt.c ****     tmp12 = tmp1 - tmp2;
 342              		.loc 1 140 11 is_stmt 0 discriminator 3 view .LVU162
 343 0235 440F28EA 		movaps	%xmm2, %xmm13
 344              	.LVL45:
 141:fltk-1.3.4-1/jpeg/jfdctflt.c **** 
 345              		.loc 1 141 11 discriminator 3 view .LVU163
 346 0239 F3410F5C 		subss	%xmm12, %xmm2
 346      D4
 347              	.LVL46:
 140:fltk-1.3.4-1/jpeg/jfdctflt.c ****     tmp12 = tmp1 - tmp2;
 348              		.loc 1 140 11 discriminator 3 view .LVU164
 349 023e F3450F58 		addss	%xmm12, %xmm13
 349      EC
 350              	.LVL47:
 141:fltk-1.3.4-1/jpeg/jfdctflt.c **** 
 351              		.loc 1 141 5 is_stmt 1 discriminator 3 view .LVU165
 143:fltk-1.3.4-1/jpeg/jfdctflt.c ****     dataptr[DCTSIZE*4] = tmp10 - tmp11;
 352              		.loc 1 143 5 discriminator 3 view .LVU166
 143:fltk-1.3.4-1/jpeg/jfdctflt.c ****     dataptr[DCTSIZE*4] = tmp10 - tmp11;
 353              		.loc 1 143 32 is_stmt 0 discriminator 3 view .LVU167
 354 0243 450F28F2 		movaps	%xmm10, %xmm14
 146:fltk-1.3.4-1/jpeg/jfdctflt.c ****     dataptr[DCTSIZE*2] = tmp13 + z1; /* phase 5 */
 355              		.loc 1 146 17 discriminator 3 view .LVU168
 356 0247 F3410F58 		addss	%xmm9, %xmm2
 356      D1
 144:fltk-1.3.4-1/jpeg/jfdctflt.c **** 
 357              		.loc 1 144 32 discriminator 3 view .LVU169
 358 024c F3450F5C 		subss	%xmm13, %xmm10
 358      D5
 359              	.LVL48:
 143:fltk-1.3.4-1/jpeg/jfdctflt.c ****     dataptr[DCTSIZE*4] = tmp10 - tmp11;
 360              		.loc 1 143 32 discriminator 3 view .LVU170
 361 0251 F3450F58 		addss	%xmm13, %xmm14
 361      F5
 362              	.LVL49:
 146:fltk-1.3.4-1/jpeg/jfdctflt.c ****     dataptr[DCTSIZE*2] = tmp13 + z1; /* phase 5 */
 363              		.loc 1 146 8 discriminator 3 view .LVU171
 364 0256 F30F59D3 		mulss	%xmm3, %xmm2
 144:fltk-1.3.4-1/jpeg/jfdctflt.c **** 
 365              		.loc 1 144 24 discriminator 3 view .LVU172
 366 025a F3440F11 		movss	%xmm10, 124(%rdi)
 366      577C
 147:fltk-1.3.4-1/jpeg/jfdctflt.c ****     dataptr[DCTSIZE*6] = tmp13 - z1;
 367              		.loc 1 147 32 discriminator 3 view .LVU173
 368 0260 450F28D1 		movaps	%xmm9, %xmm10
 143:fltk-1.3.4-1/jpeg/jfdctflt.c ****     dataptr[DCTSIZE*4] = tmp10 - tmp11;
 369              		.loc 1 143 24 discriminator 3 view .LVU174
 370 0264 F3440F11 		movss	%xmm14, -4(%rdi)
 370      77FC
 371              	.LVL50:
 144:fltk-1.3.4-1/jpeg/jfdctflt.c **** 
 372              		.loc 1 144 5 is_stmt 1 discriminator 3 view .LVU175
 146:fltk-1.3.4-1/jpeg/jfdctflt.c ****     dataptr[DCTSIZE*2] = tmp13 + z1; /* phase 5 */
 373              		.loc 1 146 5 discriminator 3 view .LVU176
 147:fltk-1.3.4-1/jpeg/jfdctflt.c ****     dataptr[DCTSIZE*6] = tmp13 - z1;
 374              		.loc 1 147 5 discriminator 3 view .LVU177
 148:fltk-1.3.4-1/jpeg/jfdctflt.c **** 
 375              		.loc 1 148 32 is_stmt 0 discriminator 3 view .LVU178
 376 026a F3440F5C 		subss	%xmm2, %xmm9
 376      CA
 377              	.LVL51:
 147:fltk-1.3.4-1/jpeg/jfdctflt.c ****     dataptr[DCTSIZE*6] = tmp13 - z1;
 378              		.loc 1 147 32 discriminator 3 view .LVU179
 379 026f F3440F58 		addss	%xmm2, %xmm10
 379      D2
 380              	.LVL52:
 157:fltk-1.3.4-1/jpeg/jfdctflt.c ****     z2 = ((FAST_FLOAT) 0.541196100) * tmp10 + z5; /* c2-c6 */
 381              		.loc 1 157 17 discriminator 3 view .LVU180
 382 0274 0F28D0   		movaps	%xmm0, %xmm2
 383              	.LVL53:
 158:fltk-1.3.4-1/jpeg/jfdctflt.c ****     z4 = ((FAST_FLOAT) 1.306562965) * tmp12 + z5; /* c2+c6 */
 384              		.loc 1 158 37 discriminator 3 view .LVU181
 385 0277 F30F59C5 		mulss	%xmm5, %xmm0
 148:fltk-1.3.4-1/jpeg/jfdctflt.c **** 
 386              		.loc 1 148 24 discriminator 3 view .LVU182
 387 027b F3440F11 		movss	%xmm9, 188(%rdi)
 387      8FBC0000 
 387      00
 388              	.LVL54:
 154:fltk-1.3.4-1/jpeg/jfdctflt.c **** 
 389              		.loc 1 154 11 discriminator 3 view .LVU183
 390 0284 440F28C9 		movaps	%xmm1, %xmm9
 391 0288 F3440F58 		addss	%xmm7, %xmm9
 391      CF
 153:fltk-1.3.4-1/jpeg/jfdctflt.c ****     tmp12 = tmp6 + tmp7;
 392              		.loc 1 153 11 discriminator 3 view .LVU184
 393 028d F3410F58 		addss	%xmm8, %xmm7
 393      F8
 394              	.LVL55:
 162:fltk-1.3.4-1/jpeg/jfdctflt.c ****     z13 = tmp7 - z3;
 395              		.loc 1 162 9 discriminator 3 view .LVU185
 396 0292 440F28C1 		movaps	%xmm1, %xmm8
 397              	.LVL56:
 147:fltk-1.3.4-1/jpeg/jfdctflt.c ****     dataptr[DCTSIZE*6] = tmp13 - z1;
 398              		.loc 1 147 24 discriminator 3 view .LVU186
 399 0296 F3440F11 		movss	%xmm10, 60(%rdi)
 399      573C
 400              	.LVL57:
 148:fltk-1.3.4-1/jpeg/jfdctflt.c **** 
 401              		.loc 1 148 5 is_stmt 1 discriminator 3 view .LVU187
 152:fltk-1.3.4-1/jpeg/jfdctflt.c ****     tmp11 = tmp5 + tmp6;
 402              		.loc 1 152 5 discriminator 3 view .LVU188
 153:fltk-1.3.4-1/jpeg/jfdctflt.c ****     tmp12 = tmp6 + tmp7;
 403              		.loc 1 153 5 discriminator 3 view .LVU189
 154:fltk-1.3.4-1/jpeg/jfdctflt.c **** 
 404              		.loc 1 154 5 discriminator 3 view .LVU190
 157:fltk-1.3.4-1/jpeg/jfdctflt.c ****     z2 = ((FAST_FLOAT) 0.541196100) * tmp10 + z5; /* c2-c6 */
 405              		.loc 1 157 5 discriminator 3 view .LVU191
 157:fltk-1.3.4-1/jpeg/jfdctflt.c ****     z2 = ((FAST_FLOAT) 0.541196100) * tmp10 + z5; /* c2-c6 */
 406              		.loc 1 157 17 is_stmt 0 discriminator 3 view .LVU192
 407 029c F3410F5C 		subss	%xmm9, %xmm2
 407      D1
 160:fltk-1.3.4-1/jpeg/jfdctflt.c **** 
 408              		.loc 1 160 8 discriminator 3 view .LVU193
 409 02a1 F30F59FB 		mulss	%xmm3, %xmm7
 159:fltk-1.3.4-1/jpeg/jfdctflt.c ****     z3 = tmp11 * ((FAST_FLOAT) 0.707106781); /* c4 */
 410              		.loc 1 159 37 discriminator 3 view .LVU194
 411 02a5 F3440F59 		mulss	%xmm6, %xmm9
 411      CE
 412              	.LVL58:
 157:fltk-1.3.4-1/jpeg/jfdctflt.c ****     z2 = ((FAST_FLOAT) 0.541196100) * tmp10 + z5; /* c2-c6 */
 413              		.loc 1 157 8 discriminator 3 view .LVU195
 414 02aa F30F59D4 		mulss	%xmm4, %xmm2
 415              	.LVL59:
 158:fltk-1.3.4-1/jpeg/jfdctflt.c ****     z4 = ((FAST_FLOAT) 1.306562965) * tmp12 + z5; /* c2+c6 */
 416              		.loc 1 158 5 is_stmt 1 discriminator 3 view .LVU196
 163:fltk-1.3.4-1/jpeg/jfdctflt.c **** 
 417              		.loc 1 163 9 is_stmt 0 discriminator 3 view .LVU197
 418 02ae F30F5CCF 		subss	%xmm7, %xmm1
 419              	.LVL60:
 162:fltk-1.3.4-1/jpeg/jfdctflt.c ****     z13 = tmp7 - z3;
 420              		.loc 1 162 9 discriminator 3 view .LVU198
 421 02b2 F3440F58 		addss	%xmm7, %xmm8
 421      C7
 422              	.LVL61:
 158:fltk-1.3.4-1/jpeg/jfdctflt.c ****     z4 = ((FAST_FLOAT) 1.306562965) * tmp12 + z5; /* c2+c6 */
 423              		.loc 1 158 8 discriminator 3 view .LVU199
 424 02b7 F30F58C2 		addss	%xmm2, %xmm0
 425              	.LVL62:
 159:fltk-1.3.4-1/jpeg/jfdctflt.c ****     z3 = tmp11 * ((FAST_FLOAT) 0.707106781); /* c4 */
 426              		.loc 1 159 5 is_stmt 1 discriminator 3 view .LVU200
 159:fltk-1.3.4-1/jpeg/jfdctflt.c ****     z3 = tmp11 * ((FAST_FLOAT) 0.707106781); /* c4 */
 427              		.loc 1 159 8 is_stmt 0 discriminator 3 view .LVU201
 428 02bb F3410F58 		addss	%xmm9, %xmm2
 428      D1
 429              	.LVL63:
 160:fltk-1.3.4-1/jpeg/jfdctflt.c **** 
 430              		.loc 1 160 5 is_stmt 1 discriminator 3 view .LVU202
 162:fltk-1.3.4-1/jpeg/jfdctflt.c ****     z13 = tmp7 - z3;
 431              		.loc 1 162 5 discriminator 3 view .LVU203
 163:fltk-1.3.4-1/jpeg/jfdctflt.c **** 
 432              		.loc 1 163 5 discriminator 3 view .LVU204
 165:fltk-1.3.4-1/jpeg/jfdctflt.c ****     dataptr[DCTSIZE*3] = z13 - z2;
 433              		.loc 1 165 5 discriminator 3 view .LVU205
 165:fltk-1.3.4-1/jpeg/jfdctflt.c ****     dataptr[DCTSIZE*3] = z13 - z2;
 434              		.loc 1 165 30 is_stmt 0 discriminator 3 view .LVU206
 435 02c0 0F28F8   		movaps	%xmm0, %xmm7
 436              	.LVL64:
 165:fltk-1.3.4-1/jpeg/jfdctflt.c ****     dataptr[DCTSIZE*3] = z13 - z2;
 437              		.loc 1 165 30 discriminator 3 view .LVU207
 438 02c3 F30F58F9 		addss	%xmm1, %xmm7
 166:fltk-1.3.4-1/jpeg/jfdctflt.c ****     dataptr[DCTSIZE*1] = z11 + z4;
 439              		.loc 1 166 30 discriminator 3 view .LVU208
 440 02c7 F30F5CC8 		subss	%xmm0, %xmm1
 441              	.LVL65:
 167:fltk-1.3.4-1/jpeg/jfdctflt.c ****     dataptr[DCTSIZE*7] = z11 - z4;
 442              		.loc 1 167 30 discriminator 3 view .LVU209
 443 02cb 0F28C2   		movaps	%xmm2, %xmm0
 444              	.LVL66:
 167:fltk-1.3.4-1/jpeg/jfdctflt.c ****     dataptr[DCTSIZE*7] = z11 - z4;
 445              		.loc 1 167 30 discriminator 3 view .LVU210
 446 02ce F3410F58 		addss	%xmm8, %xmm0
 446      C0
 168:fltk-1.3.4-1/jpeg/jfdctflt.c **** 
 447              		.loc 1 168 30 discriminator 3 view .LVU211
 448 02d3 F3440F5C 		subss	%xmm2, %xmm8
 448      C2
 449              	.LVL67:
 165:fltk-1.3.4-1/jpeg/jfdctflt.c ****     dataptr[DCTSIZE*3] = z13 - z2;
 450              		.loc 1 165 24 discriminator 3 view .LVU212
 451 02d8 F30F11BF 		movss	%xmm7, 156(%rdi)
 451      9C000000 
 166:fltk-1.3.4-1/jpeg/jfdctflt.c ****     dataptr[DCTSIZE*1] = z11 + z4;
 452              		.loc 1 166 5 is_stmt 1 discriminator 3 view .LVU213
 166:fltk-1.3.4-1/jpeg/jfdctflt.c ****     dataptr[DCTSIZE*1] = z11 + z4;
 453              		.loc 1 166 24 is_stmt 0 discriminator 3 view .LVU214
 454 02e0 F30F114F 		movss	%xmm1, 92(%rdi)
 454      5C
 455              	.LVL68:
 167:fltk-1.3.4-1/jpeg/jfdctflt.c ****     dataptr[DCTSIZE*7] = z11 - z4;
 456              		.loc 1 167 5 is_stmt 1 discriminator 3 view .LVU215
 167:fltk-1.3.4-1/jpeg/jfdctflt.c ****     dataptr[DCTSIZE*7] = z11 - z4;
 457              		.loc 1 167 24 is_stmt 0 discriminator 3 view .LVU216
 458 02e5 F30F1147 		movss	%xmm0, 28(%rdi)
 458      1C
 168:fltk-1.3.4-1/jpeg/jfdctflt.c **** 
 459              		.loc 1 168 5 is_stmt 1 discriminator 3 view .LVU217
 168:fltk-1.3.4-1/jpeg/jfdctflt.c **** 
 460              		.loc 1 168 24 is_stmt 0 discriminator 3 view .LVU218
 461 02ea F3440F11 		movss	%xmm8, 220(%rdi)
 461      87DC0000 
 461      00
 462              		.loc 1 170 5 is_stmt 1 discriminator 3 view .LVU219
 463              	.LVL69:
 126:fltk-1.3.4-1/jpeg/jfdctflt.c ****     tmp0 = dataptr[DCTSIZE*0] + dataptr[DCTSIZE*7];
 464              		.loc 1 126 35 discriminator 3 view .LVU220
 126:fltk-1.3.4-1/jpeg/jfdctflt.c ****     tmp0 = dataptr[DCTSIZE*0] + dataptr[DCTSIZE*7];
 465              		.loc 1 126 25 discriminator 3 view .LVU221
 126:fltk-1.3.4-1/jpeg/jfdctflt.c ****     tmp0 = dataptr[DCTSIZE*0] + dataptr[DCTSIZE*7];
 466              		.loc 1 126 3 is_stmt 0 discriminator 3 view .LVU222
 467 02f3 4839C7   		cmpq	%rax, %rdi
 468 02f6 0F85BCFE 		jne	.L3
 468      FFFF
 171:fltk-1.3.4-1/jpeg/jfdctflt.c ****   }
 172:fltk-1.3.4-1/jpeg/jfdctflt.c **** }
 469              		.loc 1 172 1 view .LVU223
 470 02fc C3       		ret
 471              		.cfi_endproc
 472              	.LFE51:
 474              		.section	.rodata.cst4,"aM",@progbits,4
 475              		.align 4
 476              	.LC0:
 477 0000 00008044 		.long	1149239296
 478              		.align 4
 479              	.LC1:
 480 0004 F304353F 		.long	1060439283
 481              		.align 4
 482              	.LC2:
 483 0008 15EFC33E 		.long	1053028117
 484              		.align 4
 485              	.LC3:
 486 000c D48B0A3F 		.long	1057655764
 487              		.align 4
 488              	.LC4:
 489 0010 753DA73F 		.long	1067924853
 490              		.text
 491              	.Letext0:
 492              		.file 2 "/usr/lib/gcc/x86_64-linux-gnu/9/include/stddef.h"
 493              		.file 3 "/usr/include/x86_64-linux-gnu/bits/types.h"
 494              		.file 4 "/usr/include/x86_64-linux-gnu/bits/types/struct_FILE.h"
 495              		.file 5 "/usr/include/x86_64-linux-gnu/bits/types/FILE.h"
 496              		.file 6 "/usr/include/stdio.h"
 497              		.file 7 "/usr/include/x86_64-linux-gnu/bits/sys_errlist.h"
 498              		.file 8 "fltk-1.3.4-1/jpeg/jmorecfg.h"
 499              		.file 9 "fltk-1.3.4-1/jpeg/jpeglib.h"
 500              		.file 10 "fltk-1.3.4-1/jpeg/jpegint.h"
 8122              		.section	.note.gnu.property,"a"
 8123              		.align 8
 8124 0000 04000000 		.long	 1f - 0f
 8125 0004 10000000 		.long	 4f - 1f
 8126 0008 05000000 		.long	 5
 8127              	0:
 8128 000c 474E5500 		.string	 "GNU"
 8129              	1:
 8130              		.align 8
 8131 0010 020000C0 		.long	 0xc0000002
 8132 0014 04000000 		.long	 3f - 2f
 8133              	2:
 8134 0018 03000000 		.long	 0x3
 8135              	3:
 8136 001c 00000000 		.align 8
 8137              	4:
DEFINED SYMBOLS
                            *ABS*:0000000000000000 jfdctflt.c
     /tmp/ccp1TpBa.s:8      .text.jpeg_fdct_float:0000000000000000 jpeg_fdct_float
     /tmp/ccp1TpBa.s:476    .rodata.cst4:0000000000000000 .LC0
     /tmp/ccp1TpBa.s:479    .rodata.cst4:0000000000000004 .LC1
     /tmp/ccp1TpBa.s:482    .rodata.cst4:0000000000000008 .LC2
     /tmp/ccp1TpBa.s:485    .rodata.cst4:000000000000000c .LC3
     /tmp/ccp1TpBa.s:488    .rodata.cst4:0000000000000010 .LC4
                           .group:0000000000000000 wm4.0.a6b23a418548ac0bda5d8549c4a2ec91
                           .group:0000000000000000 wm4.stdcpredef.h.19.8dc41bed5d9037ff9622e015fb5f0ce3
                           .group:0000000000000000 wm4.jconfig.h.10.247fc3ff67998f3074970b1373c70333
                           .group:0000000000000000 wm4.features.h.19.5b5f5a19624a0527f479fdc52d54808f
                           .group:0000000000000000 wm4.cdefs.h.19.98d80eddbb3f64f4f30cd9aee9c5593c
                           .group:0000000000000000 wm4.wordsize.h.4.baf119258a1e53d8dba67ceac44ab6bc
                           .group:0000000000000000 wm4.cdefs.h.475.fb75d2e4416aa349344e6f45f683bf28
                           .group:0000000000000000 wm4.stubs64.h.10.6ce4c34010988db072c080326a6b6319
                           .group:0000000000000000 wm4.libcheaderstart.h.37.d9274df4cc0172452960ad9644fa5579
                           .group:0000000000000000 wm4.stdlib.h.28.2cffa49d94c5d85f4538f55f7b59771d
                           .group:0000000000000000 wm4.stddef.h.181.13772e73e5434e8cc4fafaaddad2b5da
                           .group:0000000000000000 wm4.waitflags.h.25.41934de4af99038521c2782f418699b1
                           .group:0000000000000000 wm4.waitstatus.h.28.93f167f49d64e2b9b99f98d1162a93bf
                           .group:0000000000000000 wm4.stdlib.h.43.9fa4f727a2f1cb8d2450a574c9195553
                           .group:0000000000000000 wm4.floatn.h.20.80c7cf8a8dfad237004b28d051d5afda
                           .group:0000000000000000 wm4.floatncommon.h.34.7e1840d7dfb19e9bdb51aeb077d76637
                           .group:0000000000000000 wm4.stdlib.h.71.2927e068ec678159b4f68ec2f089f7e6
                           .group:0000000000000000 wm4.types.h.109.56eb9ae966b255288cc544f18746a7ff
                           .group:0000000000000000 wm4.typesizes.h.24.2c64f817c0dc4b6fb2a2c619d717be26
                           .group:0000000000000000 wm4.time64.h.24.a8166ae916ec910dab0d8987098d42ee
                           .group:0000000000000000 wm4.types.h.40.18f72bab8242c2bb4c532a2aa95b5f00
                           .group:0000000000000000 wm4.stddef.h.231.0adce5c8c1fd8096aaff50981b3d1f0f
                           .group:0000000000000000 wm4.endian.h.20.efabd1018df5d7b4052c27dc6bdd5ce5
                           .group:0000000000000000 wm4.endianness.h.2.2c6a211f7909f3af5e9e9cfa3b6b63c8
                           .group:0000000000000000 wm4.endian.h.40.9e5d395adda2f4eb53ae69b69b664084
                           .group:0000000000000000 wm4.endian.h.27.4c4f94262c4eaee2982fe00ed1b4f173
                           .group:0000000000000000 wm4.byteswap.h.24.5363c019348146aada5aeadf51456576
                           .group:0000000000000000 wm4.endian.h.39.30a606dbd99b6c3df61c1f06dbdabd4e
                           .group:0000000000000000 wm4.select.h.28.eb2f3debdbcffd1442ebddaebc4fb6ff
                           .group:0000000000000000 wm4.__sigset_t.h.2.6b1ab6ff3d7b8fd9c0c42b0d80afbd80
                           .group:0000000000000000 wm4.select.h.44.887a4ff60aa97fcd9c1be017735e1675
                           .group:0000000000000000 wm4.select2.h.27.f95f2ab0ffee66dc1b6575014894b21a
                           .group:0000000000000000 wm4.types.h.186.489a4ed8f2d29cd358843490f54ddea5
                           .group:0000000000000000 wm4.pthreadtypesarch.h.25.6063cba99664c916e22d3a912bcc348a
                           .group:0000000000000000 wm4.struct_mutex.h.20.ed51f515172b9be99e450ba83eb5dd99
                           .group:0000000000000000 wm4.struct_rwlock.h.21.0254880f2904e3833fb8ae683e0f0330
                           .group:0000000000000000 wm4.alloca.h.19.edefa922a76c1cbaaf1e416903ba2d1c
                           .group:0000000000000000 wm4.alloca.h.29.156e12058824cc23d961c4d3b13031f6
                           .group:0000000000000000 wm4.stdio.h.24.5c1b97eef3c86b7a2549420f69f4f128
                           .group:0000000000000000 wm4.libcheaderstart.h.31.87b3c285aeba93fe355ad19123070832
                           .group:0000000000000000 wm4.stdio.h.31.e39a94e203ad4e1d978c0fc68ce016ee
                           .group:0000000000000000 wm4.stddef.h.231.8136eebbab3406dbf57a7ec475dd5d83
                           .group:0000000000000000 wm4.stdarg.h.34.3a23a216c0c293b3d2ea2e89281481e6
                           .group:0000000000000000 wm4.struct_FILE.h.19.0888ac70396abe1031c03d393554032f
                           .group:0000000000000000 wm4.stdio.h.53.139e45cf040c0964b2932c0c1bdaf6b2
                           .group:0000000000000000 wm4.stdio_lim.h.19.e4b00b560d878dcfbc6635b3406640c5
                           .group:0000000000000000 wm4.stdio.h.141.d7a290e19ca077c9e4aa7c43ede17a73
                           .group:0000000000000000 wm4.stdio.h.20.b0caa08e5723aa5941367be0e5d2ec59
                           .group:0000000000000000 wm4.stdio2.h.20.f45a0373b68e1296c4aa8cc09d66a9df
                           .group:0000000000000000 wm4.string.h.23.93403f89af7dba8212345449bb14b09d
                           .group:0000000000000000 wm4.string.h.31.e39a94e203ad4e1d978c0fc68ce016ee
                           .group:0000000000000000 wm4.strings.h.19.a259f126920b1bb5ef76bc62b3984a3c
                           .group:0000000000000000 wm4.jinclude.h.67.b19f941ec97c4845fa4609292c7e2db4
                           .group:0000000000000000 wm4.jmorecfg.h.33.3b4c5f9cc07b3737823b06caf24d5b05
                           .group:0000000000000000 wm4.jpeglib.h.40.4f111c27252a38df39328d65454e82f4
                           .group:0000000000000000 wm4.jpegint.h.26.5219ef5d4e4921371d38e77b6091fd20
                           .group:0000000000000000 wm4.jerror.h.25.1dbd8674e70ab5215bc0037320e5c2a2
                           .group:0000000000000000 wm4.jdct.h.68.77a1fce97df2af4ec80ad9c80171cb02

NO UNDEFINED SYMBOLS
