   1              		.file	"jidctint.c"
   2              		.text
   3              	.Ltext0:
   4              		.section	.text.unlikely.jpeg_idct_islow,"ax",@progbits
   5              	.LCOLDB0:
   6              		.section	.text.jpeg_idct_islow,"ax",@progbits
   7              	.LHOTB0:
   8              		.p2align 4,,15
   9              		.section	.text.unlikely.jpeg_idct_islow
  10              	.Ltext_cold0:
  11              		.section	.text.jpeg_idct_islow
  12              		.globl	jpeg_idct_islow
  14              	jpeg_idct_islow:
  15              	.LFB61:
  16              		.file 1 "fltk-1.3.4-1/jpeg/jidctint.c"
   1:fltk-1.3.4-1/jpeg/jidctint.c **** /*
   2:fltk-1.3.4-1/jpeg/jidctint.c ****  * jidctint.c
   3:fltk-1.3.4-1/jpeg/jidctint.c ****  *
   4:fltk-1.3.4-1/jpeg/jidctint.c ****  * Copyright (C) 1991-1998, Thomas G. Lane.
   5:fltk-1.3.4-1/jpeg/jidctint.c ****  * Modification developed 2002-2013 by Guido Vollbeding.
   6:fltk-1.3.4-1/jpeg/jidctint.c ****  * This file is part of the Independent JPEG Group's software.
   7:fltk-1.3.4-1/jpeg/jidctint.c ****  * For conditions of distribution and use, see the accompanying README file.
   8:fltk-1.3.4-1/jpeg/jidctint.c ****  *
   9:fltk-1.3.4-1/jpeg/jidctint.c ****  * This file contains a slow-but-accurate integer implementation of the
  10:fltk-1.3.4-1/jpeg/jidctint.c ****  * inverse DCT (Discrete Cosine Transform).  In the IJG code, this routine
  11:fltk-1.3.4-1/jpeg/jidctint.c ****  * must also perform dequantization of the input coefficients.
  12:fltk-1.3.4-1/jpeg/jidctint.c ****  *
  13:fltk-1.3.4-1/jpeg/jidctint.c ****  * A 2-D IDCT can be done by 1-D IDCT on each column followed by 1-D IDCT
  14:fltk-1.3.4-1/jpeg/jidctint.c ****  * on each row (or vice versa, but it's more convenient to emit a row at
  15:fltk-1.3.4-1/jpeg/jidctint.c ****  * a time).  Direct algorithms are also available, but they are much more
  16:fltk-1.3.4-1/jpeg/jidctint.c ****  * complex and seem not to be any faster when reduced to code.
  17:fltk-1.3.4-1/jpeg/jidctint.c ****  *
  18:fltk-1.3.4-1/jpeg/jidctint.c ****  * This implementation is based on an algorithm described in
  19:fltk-1.3.4-1/jpeg/jidctint.c ****  *   C. Loeffler, A. Ligtenberg and G. Moschytz, "Practical Fast 1-D DCT
  20:fltk-1.3.4-1/jpeg/jidctint.c ****  *   Algorithms with 11 Multiplications", Proc. Int'l. Conf. on Acoustics,
  21:fltk-1.3.4-1/jpeg/jidctint.c ****  *   Speech, and Signal Processing 1989 (ICASSP '89), pp. 988-991.
  22:fltk-1.3.4-1/jpeg/jidctint.c ****  * The primary algorithm described there uses 11 multiplies and 29 adds.
  23:fltk-1.3.4-1/jpeg/jidctint.c ****  * We use their alternate method with 12 multiplies and 32 adds.
  24:fltk-1.3.4-1/jpeg/jidctint.c ****  * The advantage of this method is that no data path contains more than one
  25:fltk-1.3.4-1/jpeg/jidctint.c ****  * multiplication; this allows a very simple and accurate implementation in
  26:fltk-1.3.4-1/jpeg/jidctint.c ****  * scaled fixed-point arithmetic, with a minimal number of shifts.
  27:fltk-1.3.4-1/jpeg/jidctint.c ****  *
  28:fltk-1.3.4-1/jpeg/jidctint.c ****  * We also provide IDCT routines with various output sample block sizes for
  29:fltk-1.3.4-1/jpeg/jidctint.c ****  * direct resolution reduction or enlargement and for direct resolving the
  30:fltk-1.3.4-1/jpeg/jidctint.c ****  * common 2x1 and 1x2 subsampling cases without additional resampling: NxN
  31:fltk-1.3.4-1/jpeg/jidctint.c ****  * (N=1...16), 2NxN, and Nx2N (N=1...8) pixels for one 8x8 input DCT block.
  32:fltk-1.3.4-1/jpeg/jidctint.c ****  *
  33:fltk-1.3.4-1/jpeg/jidctint.c ****  * For N<8 we simply take the corresponding low-frequency coefficients of
  34:fltk-1.3.4-1/jpeg/jidctint.c ****  * the 8x8 input DCT block and apply an NxN point IDCT on the sub-block
  35:fltk-1.3.4-1/jpeg/jidctint.c ****  * to yield the downscaled outputs.
  36:fltk-1.3.4-1/jpeg/jidctint.c ****  * This can be seen as direct low-pass downsampling from the DCT domain
  37:fltk-1.3.4-1/jpeg/jidctint.c ****  * point of view rather than the usual spatial domain point of view,
  38:fltk-1.3.4-1/jpeg/jidctint.c ****  * yielding significant computational savings and results at least
  39:fltk-1.3.4-1/jpeg/jidctint.c ****  * as good as common bilinear (averaging) spatial downsampling.
  40:fltk-1.3.4-1/jpeg/jidctint.c ****  *
  41:fltk-1.3.4-1/jpeg/jidctint.c ****  * For N>8 we apply a partial NxN IDCT on the 8 input coefficients as
  42:fltk-1.3.4-1/jpeg/jidctint.c ****  * lower frequencies and higher frequencies assumed to be zero.
  43:fltk-1.3.4-1/jpeg/jidctint.c ****  * It turns out that the computational effort is similar to the 8x8 IDCT
  44:fltk-1.3.4-1/jpeg/jidctint.c ****  * regarding the output size.
  45:fltk-1.3.4-1/jpeg/jidctint.c ****  * Furthermore, the scaling and descaling is the same for all IDCT sizes.
  46:fltk-1.3.4-1/jpeg/jidctint.c ****  *
  47:fltk-1.3.4-1/jpeg/jidctint.c ****  * CAUTION: We rely on the FIX() macro except for the N=1,2,4,8 cases
  48:fltk-1.3.4-1/jpeg/jidctint.c ****  * since there would be too many additional constants to pre-calculate.
  49:fltk-1.3.4-1/jpeg/jidctint.c ****  */
  50:fltk-1.3.4-1/jpeg/jidctint.c **** 
  51:fltk-1.3.4-1/jpeg/jidctint.c **** #define JPEG_INTERNALS
  52:fltk-1.3.4-1/jpeg/jidctint.c **** #include "jinclude.h"
  53:fltk-1.3.4-1/jpeg/jidctint.c **** #include "jpeglib.h"
  54:fltk-1.3.4-1/jpeg/jidctint.c **** #include "jdct.h"		/* Private declarations for DCT subsystem */
  55:fltk-1.3.4-1/jpeg/jidctint.c **** 
  56:fltk-1.3.4-1/jpeg/jidctint.c **** #ifdef DCT_ISLOW_SUPPORTED
  57:fltk-1.3.4-1/jpeg/jidctint.c **** 
  58:fltk-1.3.4-1/jpeg/jidctint.c **** 
  59:fltk-1.3.4-1/jpeg/jidctint.c **** /*
  60:fltk-1.3.4-1/jpeg/jidctint.c ****  * This module is specialized to the case DCTSIZE = 8.
  61:fltk-1.3.4-1/jpeg/jidctint.c ****  */
  62:fltk-1.3.4-1/jpeg/jidctint.c **** 
  63:fltk-1.3.4-1/jpeg/jidctint.c **** #if DCTSIZE != 8
  64:fltk-1.3.4-1/jpeg/jidctint.c ****   Sorry, this code only copes with 8x8 DCT blocks. /* deliberate syntax err */
  65:fltk-1.3.4-1/jpeg/jidctint.c **** #endif
  66:fltk-1.3.4-1/jpeg/jidctint.c **** 
  67:fltk-1.3.4-1/jpeg/jidctint.c **** 
  68:fltk-1.3.4-1/jpeg/jidctint.c **** /*
  69:fltk-1.3.4-1/jpeg/jidctint.c ****  * The poop on this scaling stuff is as follows:
  70:fltk-1.3.4-1/jpeg/jidctint.c ****  *
  71:fltk-1.3.4-1/jpeg/jidctint.c ****  * Each 1-D IDCT step produces outputs which are a factor of sqrt(N)
  72:fltk-1.3.4-1/jpeg/jidctint.c ****  * larger than the true IDCT outputs.  The final outputs are therefore
  73:fltk-1.3.4-1/jpeg/jidctint.c ****  * a factor of N larger than desired; since N=8 this can be cured by
  74:fltk-1.3.4-1/jpeg/jidctint.c ****  * a simple right shift at the end of the algorithm.  The advantage of
  75:fltk-1.3.4-1/jpeg/jidctint.c ****  * this arrangement is that we save two multiplications per 1-D IDCT,
  76:fltk-1.3.4-1/jpeg/jidctint.c ****  * because the y0 and y4 inputs need not be divided by sqrt(N).
  77:fltk-1.3.4-1/jpeg/jidctint.c ****  *
  78:fltk-1.3.4-1/jpeg/jidctint.c ****  * We have to do addition and subtraction of the integer inputs, which
  79:fltk-1.3.4-1/jpeg/jidctint.c ****  * is no problem, and multiplication by fractional constants, which is
  80:fltk-1.3.4-1/jpeg/jidctint.c ****  * a problem to do in integer arithmetic.  We multiply all the constants
  81:fltk-1.3.4-1/jpeg/jidctint.c ****  * by CONST_SCALE and convert them to integer constants (thus retaining
  82:fltk-1.3.4-1/jpeg/jidctint.c ****  * CONST_BITS bits of precision in the constants).  After doing a
  83:fltk-1.3.4-1/jpeg/jidctint.c ****  * multiplication we have to divide the product by CONST_SCALE, with proper
  84:fltk-1.3.4-1/jpeg/jidctint.c ****  * rounding, to produce the correct output.  This division can be done
  85:fltk-1.3.4-1/jpeg/jidctint.c ****  * cheaply as a right shift of CONST_BITS bits.  We postpone shifting
  86:fltk-1.3.4-1/jpeg/jidctint.c ****  * as long as possible so that partial sums can be added together with
  87:fltk-1.3.4-1/jpeg/jidctint.c ****  * full fractional precision.
  88:fltk-1.3.4-1/jpeg/jidctint.c ****  *
  89:fltk-1.3.4-1/jpeg/jidctint.c ****  * The outputs of the first pass are scaled up by PASS1_BITS bits so that
  90:fltk-1.3.4-1/jpeg/jidctint.c ****  * they are represented to better-than-integral precision.  These outputs
  91:fltk-1.3.4-1/jpeg/jidctint.c ****  * require BITS_IN_JSAMPLE + PASS1_BITS + 3 bits; this fits in a 16-bit word
  92:fltk-1.3.4-1/jpeg/jidctint.c ****  * with the recommended scaling.  (To scale up 12-bit sample data further, an
  93:fltk-1.3.4-1/jpeg/jidctint.c ****  * intermediate INT32 array would be needed.)
  94:fltk-1.3.4-1/jpeg/jidctint.c ****  *
  95:fltk-1.3.4-1/jpeg/jidctint.c ****  * To avoid overflow of the 32-bit intermediate results in pass 2, we must
  96:fltk-1.3.4-1/jpeg/jidctint.c ****  * have BITS_IN_JSAMPLE + CONST_BITS + PASS1_BITS <= 26.  Error analysis
  97:fltk-1.3.4-1/jpeg/jidctint.c ****  * shows that the values given below are the most effective.
  98:fltk-1.3.4-1/jpeg/jidctint.c ****  */
  99:fltk-1.3.4-1/jpeg/jidctint.c **** 
 100:fltk-1.3.4-1/jpeg/jidctint.c **** #if BITS_IN_JSAMPLE == 8
 101:fltk-1.3.4-1/jpeg/jidctint.c **** #define CONST_BITS  13
 102:fltk-1.3.4-1/jpeg/jidctint.c **** #define PASS1_BITS  2
 103:fltk-1.3.4-1/jpeg/jidctint.c **** #else
 104:fltk-1.3.4-1/jpeg/jidctint.c **** #define CONST_BITS  13
 105:fltk-1.3.4-1/jpeg/jidctint.c **** #define PASS1_BITS  1		/* lose a little precision to avoid overflow */
 106:fltk-1.3.4-1/jpeg/jidctint.c **** #endif
 107:fltk-1.3.4-1/jpeg/jidctint.c **** 
 108:fltk-1.3.4-1/jpeg/jidctint.c **** /* Some C compilers fail to reduce "FIX(constant)" at compile time, thus
 109:fltk-1.3.4-1/jpeg/jidctint.c ****  * causing a lot of useless floating-point operations at run time.
 110:fltk-1.3.4-1/jpeg/jidctint.c ****  * To get around this we use the following pre-calculated constants.
 111:fltk-1.3.4-1/jpeg/jidctint.c ****  * If you change CONST_BITS you may want to add appropriate values.
 112:fltk-1.3.4-1/jpeg/jidctint.c ****  * (With a reasonable C compiler, you can just rely on the FIX() macro...)
 113:fltk-1.3.4-1/jpeg/jidctint.c ****  */
 114:fltk-1.3.4-1/jpeg/jidctint.c **** 
 115:fltk-1.3.4-1/jpeg/jidctint.c **** #if CONST_BITS == 13
 116:fltk-1.3.4-1/jpeg/jidctint.c **** #define FIX_0_298631336  ((INT32)  2446)	/* FIX(0.298631336) */
 117:fltk-1.3.4-1/jpeg/jidctint.c **** #define FIX_0_390180644  ((INT32)  3196)	/* FIX(0.390180644) */
 118:fltk-1.3.4-1/jpeg/jidctint.c **** #define FIX_0_541196100  ((INT32)  4433)	/* FIX(0.541196100) */
 119:fltk-1.3.4-1/jpeg/jidctint.c **** #define FIX_0_765366865  ((INT32)  6270)	/* FIX(0.765366865) */
 120:fltk-1.3.4-1/jpeg/jidctint.c **** #define FIX_0_899976223  ((INT32)  7373)	/* FIX(0.899976223) */
 121:fltk-1.3.4-1/jpeg/jidctint.c **** #define FIX_1_175875602  ((INT32)  9633)	/* FIX(1.175875602) */
 122:fltk-1.3.4-1/jpeg/jidctint.c **** #define FIX_1_501321110  ((INT32)  12299)	/* FIX(1.501321110) */
 123:fltk-1.3.4-1/jpeg/jidctint.c **** #define FIX_1_847759065  ((INT32)  15137)	/* FIX(1.847759065) */
 124:fltk-1.3.4-1/jpeg/jidctint.c **** #define FIX_1_961570560  ((INT32)  16069)	/* FIX(1.961570560) */
 125:fltk-1.3.4-1/jpeg/jidctint.c **** #define FIX_2_053119869  ((INT32)  16819)	/* FIX(2.053119869) */
 126:fltk-1.3.4-1/jpeg/jidctint.c **** #define FIX_2_562915447  ((INT32)  20995)	/* FIX(2.562915447) */
 127:fltk-1.3.4-1/jpeg/jidctint.c **** #define FIX_3_072711026  ((INT32)  25172)	/* FIX(3.072711026) */
 128:fltk-1.3.4-1/jpeg/jidctint.c **** #else
 129:fltk-1.3.4-1/jpeg/jidctint.c **** #define FIX_0_298631336  FIX(0.298631336)
 130:fltk-1.3.4-1/jpeg/jidctint.c **** #define FIX_0_390180644  FIX(0.390180644)
 131:fltk-1.3.4-1/jpeg/jidctint.c **** #define FIX_0_541196100  FIX(0.541196100)
 132:fltk-1.3.4-1/jpeg/jidctint.c **** #define FIX_0_765366865  FIX(0.765366865)
 133:fltk-1.3.4-1/jpeg/jidctint.c **** #define FIX_0_899976223  FIX(0.899976223)
 134:fltk-1.3.4-1/jpeg/jidctint.c **** #define FIX_1_175875602  FIX(1.175875602)
 135:fltk-1.3.4-1/jpeg/jidctint.c **** #define FIX_1_501321110  FIX(1.501321110)
 136:fltk-1.3.4-1/jpeg/jidctint.c **** #define FIX_1_847759065  FIX(1.847759065)
 137:fltk-1.3.4-1/jpeg/jidctint.c **** #define FIX_1_961570560  FIX(1.961570560)
 138:fltk-1.3.4-1/jpeg/jidctint.c **** #define FIX_2_053119869  FIX(2.053119869)
 139:fltk-1.3.4-1/jpeg/jidctint.c **** #define FIX_2_562915447  FIX(2.562915447)
 140:fltk-1.3.4-1/jpeg/jidctint.c **** #define FIX_3_072711026  FIX(3.072711026)
 141:fltk-1.3.4-1/jpeg/jidctint.c **** #endif
 142:fltk-1.3.4-1/jpeg/jidctint.c **** 
 143:fltk-1.3.4-1/jpeg/jidctint.c **** 
 144:fltk-1.3.4-1/jpeg/jidctint.c **** /* Multiply an INT32 variable by an INT32 constant to yield an INT32 result.
 145:fltk-1.3.4-1/jpeg/jidctint.c ****  * For 8-bit samples with the recommended scaling, all the variable
 146:fltk-1.3.4-1/jpeg/jidctint.c ****  * and constant values involved are no more than 16 bits wide, so a
 147:fltk-1.3.4-1/jpeg/jidctint.c ****  * 16x16->32 bit multiply can be used instead of a full 32x32 multiply.
 148:fltk-1.3.4-1/jpeg/jidctint.c ****  * For 12-bit samples, a full 32-bit multiplication will be needed.
 149:fltk-1.3.4-1/jpeg/jidctint.c ****  */
 150:fltk-1.3.4-1/jpeg/jidctint.c **** 
 151:fltk-1.3.4-1/jpeg/jidctint.c **** #if BITS_IN_JSAMPLE == 8
 152:fltk-1.3.4-1/jpeg/jidctint.c **** #define MULTIPLY(var,const)  MULTIPLY16C16(var,const)
 153:fltk-1.3.4-1/jpeg/jidctint.c **** #else
 154:fltk-1.3.4-1/jpeg/jidctint.c **** #define MULTIPLY(var,const)  ((var) * (const))
 155:fltk-1.3.4-1/jpeg/jidctint.c **** #endif
 156:fltk-1.3.4-1/jpeg/jidctint.c **** 
 157:fltk-1.3.4-1/jpeg/jidctint.c **** 
 158:fltk-1.3.4-1/jpeg/jidctint.c **** /* Dequantize a coefficient by multiplying it by the multiplier-table
 159:fltk-1.3.4-1/jpeg/jidctint.c ****  * entry; produce an int result.  In this module, both inputs and result
 160:fltk-1.3.4-1/jpeg/jidctint.c ****  * are 16 bits or less, so either int or short multiply will work.
 161:fltk-1.3.4-1/jpeg/jidctint.c ****  */
 162:fltk-1.3.4-1/jpeg/jidctint.c **** 
 163:fltk-1.3.4-1/jpeg/jidctint.c **** #define DEQUANTIZE(coef,quantval)  (((ISLOW_MULT_TYPE) (coef)) * (quantval))
 164:fltk-1.3.4-1/jpeg/jidctint.c **** 
 165:fltk-1.3.4-1/jpeg/jidctint.c **** 
 166:fltk-1.3.4-1/jpeg/jidctint.c **** /*
 167:fltk-1.3.4-1/jpeg/jidctint.c ****  * Perform dequantization and inverse DCT on one block of coefficients.
 168:fltk-1.3.4-1/jpeg/jidctint.c ****  *
 169:fltk-1.3.4-1/jpeg/jidctint.c ****  * cK represents sqrt(2) * cos(K*pi/16).
 170:fltk-1.3.4-1/jpeg/jidctint.c ****  */
 171:fltk-1.3.4-1/jpeg/jidctint.c **** 
 172:fltk-1.3.4-1/jpeg/jidctint.c **** GLOBAL(void)
 173:fltk-1.3.4-1/jpeg/jidctint.c **** jpeg_idct_islow (j_decompress_ptr cinfo, jpeg_component_info * compptr,
 174:fltk-1.3.4-1/jpeg/jidctint.c **** 		 JCOEFPTR coef_block,
 175:fltk-1.3.4-1/jpeg/jidctint.c **** 		 JSAMPARRAY output_buf, JDIMENSION output_col)
 176:fltk-1.3.4-1/jpeg/jidctint.c **** {
  17              		.loc 1 176 0
  18              		.cfi_startproc
  19              	.LVL0:
  20 0000 4157     		pushq	%r15
  21              		.cfi_def_cfa_offset 16
  22              		.cfi_offset 15, -16
  23 0002 4156     		pushq	%r14
  24              		.cfi_def_cfa_offset 24
  25              		.cfi_offset 14, -24
  26 0004 4155     		pushq	%r13
  27              		.cfi_def_cfa_offset 32
  28              		.cfi_offset 13, -32
  29 0006 4154     		pushq	%r12
  30              		.cfi_def_cfa_offset 40
  31              		.cfi_offset 12, -40
  32 0008 55       		pushq	%rbp
  33              		.cfi_def_cfa_offset 48
  34              		.cfi_offset 6, -48
  35 0009 53       		pushq	%rbx
  36              		.cfi_def_cfa_offset 56
  37              		.cfi_offset 3, -56
  38 000a 4881EC38 		subq	$312, %rsp
  38      010000
  39              		.cfi_def_cfa_offset 368
  40 0011 4C8B6658 		movq	88(%rsi), %r12
  41              		.loc 1 176 0
  42 0015 64488B04 		movq	%fs:40, %rax
  42      25280000 
  42      00
  43 001e 48898424 		movq	%rax, 296(%rsp)
  43      28010000 
  44 0026 31C0     		xorl	%eax, %eax
 177:fltk-1.3.4-1/jpeg/jidctint.c ****   INT32 tmp0, tmp1, tmp2, tmp3;
 178:fltk-1.3.4-1/jpeg/jidctint.c ****   INT32 tmp10, tmp11, tmp12, tmp13;
 179:fltk-1.3.4-1/jpeg/jidctint.c ****   INT32 z1, z2, z3;
 180:fltk-1.3.4-1/jpeg/jidctint.c ****   JCOEFPTR inptr;
 181:fltk-1.3.4-1/jpeg/jidctint.c ****   ISLOW_MULT_TYPE * quantptr;
 182:fltk-1.3.4-1/jpeg/jidctint.c ****   int * wsptr;
 183:fltk-1.3.4-1/jpeg/jidctint.c ****   JSAMPROW outptr;
 184:fltk-1.3.4-1/jpeg/jidctint.c ****   JSAMPLE *range_limit = IDCT_range_limit(cinfo);
  45              		.loc 1 184 0
  46 0028 488B87B8 		movq	440(%rdi), %rax
  46      010000
 176:fltk-1.3.4-1/jpeg/jidctint.c ****   INT32 tmp0, tmp1, tmp2, tmp3;
  47              		.loc 1 176 0
  48 002f 48894C24 		movq	%rcx, 16(%rsp)
  48      10
  49 0034 488D6C24 		leaq	32(%rsp), %rbp
  49      20
  50 0039 44894424 		movl	%r8d, 8(%rsp)
  50      08
 185:fltk-1.3.4-1/jpeg/jidctint.c ****   int ctr;
 186:fltk-1.3.4-1/jpeg/jidctint.c ****   int workspace[DCTSIZE2];	/* buffers data between passes */
 187:fltk-1.3.4-1/jpeg/jidctint.c ****   SHIFT_TEMPS
 188:fltk-1.3.4-1/jpeg/jidctint.c **** 
 189:fltk-1.3.4-1/jpeg/jidctint.c ****   /* Pass 1: process columns from input, store into work array.
 190:fltk-1.3.4-1/jpeg/jidctint.c ****    * Note results are scaled up by sqrt(8) compared to a true IDCT;
 191:fltk-1.3.4-1/jpeg/jidctint.c ****    * furthermore, we scale the results by 2**PASS1_BITS.
 192:fltk-1.3.4-1/jpeg/jidctint.c ****    */
 193:fltk-1.3.4-1/jpeg/jidctint.c **** 
 194:fltk-1.3.4-1/jpeg/jidctint.c ****   inptr = coef_block;
 195:fltk-1.3.4-1/jpeg/jidctint.c ****   quantptr = (ISLOW_MULT_TYPE *) compptr->dct_table;
 196:fltk-1.3.4-1/jpeg/jidctint.c ****   wsptr = workspace;
 197:fltk-1.3.4-1/jpeg/jidctint.c ****   for (ctr = DCTSIZE; ctr > 0; ctr--) {
  51              		.loc 1 197 0
  52 003e C7042408 		movl	$8, (%rsp)
  52      000000
 184:fltk-1.3.4-1/jpeg/jidctint.c ****   int ctr;
  53              		.loc 1 184 0
  54 0045 4C8DB880 		leaq	128(%rax), %r15
  54      000000
  55              	.LVL1:
  56              		.loc 1 197 0
  57 004c 4C897C24 		movq	%r15, 24(%rsp)
  57      18
  58 0051 E9B80100 		jmp	.L10
  58      00
  59              	.LVL2:
  60 0056 662E0F1F 		.p2align 4,,10
  60      84000000 
  60      0000
  61              		.p2align 3
  62              	.L28:
 198:fltk-1.3.4-1/jpeg/jidctint.c ****     /* Due to quantization, we will usually find that many of the input
 199:fltk-1.3.4-1/jpeg/jidctint.c ****      * coefficients are zero, especially the AC terms.  We can exploit this
 200:fltk-1.3.4-1/jpeg/jidctint.c ****      * by short-circuiting the IDCT calculation for any column in which all
 201:fltk-1.3.4-1/jpeg/jidctint.c ****      * the AC terms are zero.  In that case each output is equal to the
 202:fltk-1.3.4-1/jpeg/jidctint.c ****      * DC coefficient (with scale factor as needed).
 203:fltk-1.3.4-1/jpeg/jidctint.c ****      * With typical images and quantization tables, half or more of the
 204:fltk-1.3.4-1/jpeg/jidctint.c ****      * column DCT calculations can be simplified this way.
 205:fltk-1.3.4-1/jpeg/jidctint.c ****      */
 206:fltk-1.3.4-1/jpeg/jidctint.c **** 
 207:fltk-1.3.4-1/jpeg/jidctint.c ****     if (inptr[DCTSIZE*1] == 0 && inptr[DCTSIZE*2] == 0 &&
  63              		.loc 1 207 0 discriminator 1
  64 0060 6685F6   		testw	%si, %si
  65 0063 0F85B601 		jne	.L2
  65      0000
 208:fltk-1.3.4-1/jpeg/jidctint.c **** 	inptr[DCTSIZE*3] == 0 && inptr[DCTSIZE*4] == 0 &&
  66              		.loc 1 208 0 discriminator 2
  67 0069 0FBF7A30 		movswl	48(%rdx), %edi
 207:fltk-1.3.4-1/jpeg/jidctint.c **** 	inptr[DCTSIZE*3] == 0 && inptr[DCTSIZE*4] == 0 &&
  68              		.loc 1 207 0 discriminator 2
  69 006d 6685FF   		testw	%di, %di
  70 0070 0F84D203 		je	.L5
  70      0000
  71 0076 0FBF4260 		movswl	96(%rdx), %eax
  72 007a 0FBF5A40 		movswl	64(%rdx), %ebx
  73 007e 440FBF4A 		movswl	112(%rdx), %r9d
  73      70
  74 0083 440FBF42 		movswl	80(%rdx), %r8d
  74      50
  75 0088 0F1F8400 		.p2align 4,,10
  75      00000000 
  76              		.p2align 3
  77              	.L4:
 209:fltk-1.3.4-1/jpeg/jidctint.c **** 	inptr[DCTSIZE*5] == 0 && inptr[DCTSIZE*6] == 0 &&
 210:fltk-1.3.4-1/jpeg/jidctint.c **** 	inptr[DCTSIZE*7] == 0) {
 211:fltk-1.3.4-1/jpeg/jidctint.c ****       /* AC terms all zero */
 212:fltk-1.3.4-1/jpeg/jidctint.c ****       int dcval = DEQUANTIZE(inptr[DCTSIZE*0], quantptr[DCTSIZE*0]) << PASS1_BITS;
 213:fltk-1.3.4-1/jpeg/jidctint.c **** 
 214:fltk-1.3.4-1/jpeg/jidctint.c ****       wsptr[DCTSIZE*0] = dcval;
 215:fltk-1.3.4-1/jpeg/jidctint.c ****       wsptr[DCTSIZE*1] = dcval;
 216:fltk-1.3.4-1/jpeg/jidctint.c ****       wsptr[DCTSIZE*2] = dcval;
 217:fltk-1.3.4-1/jpeg/jidctint.c ****       wsptr[DCTSIZE*3] = dcval;
 218:fltk-1.3.4-1/jpeg/jidctint.c ****       wsptr[DCTSIZE*4] = dcval;
 219:fltk-1.3.4-1/jpeg/jidctint.c ****       wsptr[DCTSIZE*5] = dcval;
 220:fltk-1.3.4-1/jpeg/jidctint.c ****       wsptr[DCTSIZE*6] = dcval;
 221:fltk-1.3.4-1/jpeg/jidctint.c ****       wsptr[DCTSIZE*7] = dcval;
 222:fltk-1.3.4-1/jpeg/jidctint.c **** 
 223:fltk-1.3.4-1/jpeg/jidctint.c ****       inptr++;			/* advance pointers to next column */
 224:fltk-1.3.4-1/jpeg/jidctint.c ****       quantptr++;
 225:fltk-1.3.4-1/jpeg/jidctint.c ****       wsptr++;
 226:fltk-1.3.4-1/jpeg/jidctint.c ****       continue;
 227:fltk-1.3.4-1/jpeg/jidctint.c ****     }
 228:fltk-1.3.4-1/jpeg/jidctint.c **** 
 229:fltk-1.3.4-1/jpeg/jidctint.c ****     /* Even part: reverse the even part of the forward DCT.
 230:fltk-1.3.4-1/jpeg/jidctint.c ****      * The rotator is c(-6).
 231:fltk-1.3.4-1/jpeg/jidctint.c ****      */
 232:fltk-1.3.4-1/jpeg/jidctint.c **** 
 233:fltk-1.3.4-1/jpeg/jidctint.c ****     z2 = DEQUANTIZE(inptr[DCTSIZE*2], quantptr[DCTSIZE*2]);
  78              		.loc 1 233 0
  79 0090 410FAF74 		imull	64(%r12), %esi
  79      2440
 234:fltk-1.3.4-1/jpeg/jidctint.c ****     z3 = DEQUANTIZE(inptr[DCTSIZE*6], quantptr[DCTSIZE*6]);
  80              		.loc 1 234 0
  81 0096 410FAF84 		imull	192(%r12), %eax
  81      24C00000 
  81      00
 235:fltk-1.3.4-1/jpeg/jidctint.c **** 
 236:fltk-1.3.4-1/jpeg/jidctint.c ****     z1 = MULTIPLY(z2 + z3, FIX_0_541196100);       /* c6 */
 237:fltk-1.3.4-1/jpeg/jidctint.c ****     tmp2 = z1 + MULTIPLY(z2, FIX_0_765366865);     /* c2-c6 */
 238:fltk-1.3.4-1/jpeg/jidctint.c ****     tmp3 = z1 - MULTIPLY(z3, FIX_1_847759065);     /* c2+c6 */
 239:fltk-1.3.4-1/jpeg/jidctint.c **** 
 240:fltk-1.3.4-1/jpeg/jidctint.c ****     z2 = DEQUANTIZE(inptr[DCTSIZE*0], quantptr[DCTSIZE*0]);
 241:fltk-1.3.4-1/jpeg/jidctint.c ****     z3 = DEQUANTIZE(inptr[DCTSIZE*4], quantptr[DCTSIZE*4]);
  82              		.loc 1 241 0
  83 009f 410FAF9C 		imull	128(%r12), %ebx
  83      24800000 
  83      00
 242:fltk-1.3.4-1/jpeg/jidctint.c ****     z2 <<= CONST_BITS;
 243:fltk-1.3.4-1/jpeg/jidctint.c ****     z3 <<= CONST_BITS;
 244:fltk-1.3.4-1/jpeg/jidctint.c ****     /* Add fudge factor here for final descale. */
 245:fltk-1.3.4-1/jpeg/jidctint.c ****     z2 += ONE << (CONST_BITS-PASS1_BITS-1);
 246:fltk-1.3.4-1/jpeg/jidctint.c **** 
 247:fltk-1.3.4-1/jpeg/jidctint.c ****     tmp0 = z2 + z3;
 248:fltk-1.3.4-1/jpeg/jidctint.c ****     tmp1 = z2 - z3;
 249:fltk-1.3.4-1/jpeg/jidctint.c **** 
 250:fltk-1.3.4-1/jpeg/jidctint.c ****     tmp10 = tmp0 + tmp2;
 251:fltk-1.3.4-1/jpeg/jidctint.c ****     tmp13 = tmp0 - tmp2;
 252:fltk-1.3.4-1/jpeg/jidctint.c ****     tmp11 = tmp1 + tmp3;
 253:fltk-1.3.4-1/jpeg/jidctint.c ****     tmp12 = tmp1 - tmp3;
 254:fltk-1.3.4-1/jpeg/jidctint.c **** 
 255:fltk-1.3.4-1/jpeg/jidctint.c ****     /* Odd part per figure 8; the matrix is unitary and hence its
 256:fltk-1.3.4-1/jpeg/jidctint.c ****      * transpose is its inverse.  i0..i3 are y7,y5,y3,y1 respectively.
 257:fltk-1.3.4-1/jpeg/jidctint.c ****      */
 258:fltk-1.3.4-1/jpeg/jidctint.c **** 
 259:fltk-1.3.4-1/jpeg/jidctint.c ****     tmp0 = DEQUANTIZE(inptr[DCTSIZE*7], quantptr[DCTSIZE*7]);
  84              		.loc 1 259 0
  85 00a8 450FAF8C 		imull	224(%r12), %r9d
  85      24E00000 
  85      00
 260:fltk-1.3.4-1/jpeg/jidctint.c ****     tmp1 = DEQUANTIZE(inptr[DCTSIZE*5], quantptr[DCTSIZE*5]);
  86              		.loc 1 260 0
  87 00b1 450FAF84 		imull	160(%r12), %r8d
  87      24A00000 
  87      00
 261:fltk-1.3.4-1/jpeg/jidctint.c ****     tmp2 = DEQUANTIZE(inptr[DCTSIZE*3], quantptr[DCTSIZE*3]);
  88              		.loc 1 261 0
  89 00ba 410FAF7C 		imull	96(%r12), %edi
  89      2460
 233:fltk-1.3.4-1/jpeg/jidctint.c ****     z3 = DEQUANTIZE(inptr[DCTSIZE*6], quantptr[DCTSIZE*6]);
  90              		.loc 1 233 0
  91 00c0 4863F6   		movslq	%esi, %rsi
  92              	.LVL3:
 234:fltk-1.3.4-1/jpeg/jidctint.c **** 
  93              		.loc 1 234 0
  94 00c3 4898     		cltq
  95              	.LVL4:
 236:fltk-1.3.4-1/jpeg/jidctint.c ****     tmp2 = z1 + MULTIPLY(z2, FIX_0_765366865);     /* c2-c6 */
  96              		.loc 1 236 0
  97 00c5 4C8D1C06 		leaq	(%rsi,%rax), %r11
 241:fltk-1.3.4-1/jpeg/jidctint.c ****     z2 <<= CONST_BITS;
  98              		.loc 1 241 0
  99 00c9 4863DB   		movslq	%ebx, %rbx
 238:fltk-1.3.4-1/jpeg/jidctint.c **** 
 100              		.loc 1 238 0
 101 00cc 4869C0DF 		imulq	$-15137, %rax, %rax
 101      C4FFFF
 102              	.LVL5:
 243:fltk-1.3.4-1/jpeg/jidctint.c ****     /* Add fudge factor here for final descale. */
 103              		.loc 1 243 0
 104 00d3 48C1E30D 		salq	$13, %rbx
 259:fltk-1.3.4-1/jpeg/jidctint.c ****     tmp1 = DEQUANTIZE(inptr[DCTSIZE*5], quantptr[DCTSIZE*5]);
 105              		.loc 1 259 0
 106 00d7 4D63C9   		movslq	%r9d, %r9
 236:fltk-1.3.4-1/jpeg/jidctint.c ****     tmp2 = z1 + MULTIPLY(z2, FIX_0_765366865);     /* c2-c6 */
 107              		.loc 1 236 0
 108 00da 4D69DB51 		imulq	$4433, %r11, %r11
 108      110000
 109              	.LVL6:
 260:fltk-1.3.4-1/jpeg/jidctint.c ****     tmp2 = DEQUANTIZE(inptr[DCTSIZE*3], quantptr[DCTSIZE*3]);
 110              		.loc 1 260 0
 111 00e1 4D63C0   		movslq	%r8d, %r8
 237:fltk-1.3.4-1/jpeg/jidctint.c ****     tmp3 = z1 - MULTIPLY(z3, FIX_1_847759065);     /* c2+c6 */
 112              		.loc 1 237 0
 113 00e4 4869F67E 		imulq	$6270, %rsi, %rsi
 113      180000
 114              	.LVL7:
 115              		.loc 1 261 0
 116 00eb 4863FF   		movslq	%edi, %rdi
 262:fltk-1.3.4-1/jpeg/jidctint.c ****     tmp3 = DEQUANTIZE(inptr[DCTSIZE*1], quantptr[DCTSIZE*1]);
 117              		.loc 1 262 0
 118 00ee 410FAF4C 		imull	32(%r12), %ecx
 118      2420
 237:fltk-1.3.4-1/jpeg/jidctint.c ****     tmp3 = z1 - MULTIPLY(z3, FIX_1_847759065);     /* c2+c6 */
 119              		.loc 1 237 0
 120 00f4 4C01DE   		addq	%r11, %rsi
 121              	.LVL8:
 238:fltk-1.3.4-1/jpeg/jidctint.c **** 
 122              		.loc 1 238 0
 123 00f7 4901C3   		addq	%rax, %r11
 124              	.LVL9:
 240:fltk-1.3.4-1/jpeg/jidctint.c ****     z3 = DEQUANTIZE(inptr[DCTSIZE*4], quantptr[DCTSIZE*4]);
 125              		.loc 1 240 0
 126 00fa 0FBF02   		movswl	(%rdx), %eax
 127 00fd 410FAF04 		imull	(%r12), %eax
 127      24
 128              		.loc 1 262 0
 129 0102 4863C9   		movslq	%ecx, %rcx
 240:fltk-1.3.4-1/jpeg/jidctint.c ****     z3 = DEQUANTIZE(inptr[DCTSIZE*4], quantptr[DCTSIZE*4]);
 130              		.loc 1 240 0
 131 0105 4898     		cltq
 132              	.LVL10:
 242:fltk-1.3.4-1/jpeg/jidctint.c ****     z3 <<= CONST_BITS;
 133              		.loc 1 242 0
 134 0107 48C1E00D 		salq	$13, %rax
 135              	.LVL11:
 245:fltk-1.3.4-1/jpeg/jidctint.c **** 
 136              		.loc 1 245 0
 137 010b 48050004 		addq	$1024, %rax
 137      0000
 138              	.LVL12:
 247:fltk-1.3.4-1/jpeg/jidctint.c ****     tmp1 = z2 - z3;
 139              		.loc 1 247 0
 140 0111 4C8D1403 		leaq	(%rbx,%rax), %r10
 141              	.LVL13:
 248:fltk-1.3.4-1/jpeg/jidctint.c **** 
 142              		.loc 1 248 0
 143 0115 4829D8   		subq	%rbx, %rax
 144              	.LVL14:
 263:fltk-1.3.4-1/jpeg/jidctint.c **** 
 264:fltk-1.3.4-1/jpeg/jidctint.c ****     z2 = tmp0 + tmp2;
 145              		.loc 1 264 0
 146 0118 498D1C39 		leaq	(%r9,%rdi), %rbx
 147              	.LVL15:
 252:fltk-1.3.4-1/jpeg/jidctint.c ****     tmp12 = tmp1 - tmp3;
 148              		.loc 1 252 0
 149 011c 4D8D2C03 		leaq	(%r11,%rax), %r13
 253:fltk-1.3.4-1/jpeg/jidctint.c **** 
 150              		.loc 1 253 0
 151 0120 4C29D8   		subq	%r11, %rax
 152              	.LVL16:
 250:fltk-1.3.4-1/jpeg/jidctint.c ****     tmp13 = tmp0 - tmp2;
 153              		.loc 1 250 0
 154 0123 4E8D3416 		leaq	(%rsi,%r10), %r14
 155              	.LVL17:
 251:fltk-1.3.4-1/jpeg/jidctint.c ****     tmp11 = tmp1 + tmp3;
 156              		.loc 1 251 0
 157 0127 4929F2   		subq	%rsi, %r10
 158              	.LVL18:
 265:fltk-1.3.4-1/jpeg/jidctint.c ****     z3 = tmp1 + tmp3;
 159              		.loc 1 265 0
 160 012a 498D3408 		leaq	(%r8,%rcx), %rsi
 161              	.LVL19:
 266:fltk-1.3.4-1/jpeg/jidctint.c **** 
 267:fltk-1.3.4-1/jpeg/jidctint.c ****     z1 = MULTIPLY(z2 + z3, FIX_1_175875602);       /*  c3 */
 162              		.loc 1 267 0
 163 012e 4C8D1C33 		leaq	(%rbx,%rsi), %r11
 268:fltk-1.3.4-1/jpeg/jidctint.c ****     z2 = MULTIPLY(z2, - FIX_1_961570560);          /* -c3-c5 */
 164              		.loc 1 268 0
 165 0132 4869DB3B 		imulq	$-16069, %rbx, %rbx
 165      C1FFFF
 166              	.LVL20:
 267:fltk-1.3.4-1/jpeg/jidctint.c ****     z2 = MULTIPLY(z2, - FIX_1_961570560);          /* -c3-c5 */
 167              		.loc 1 267 0
 168 0139 4D69DBA1 		imulq	$9633, %r11, %r11
 168      250000
 169              	.LVL21:
 269:fltk-1.3.4-1/jpeg/jidctint.c ****     z3 = MULTIPLY(z3, - FIX_0_390180644);          /* -c3+c5 */
 170              		.loc 1 269 0
 171 0140 4869F684 		imulq	$-3196, %rsi, %rsi
 171      F3FFFF
 172              	.LVL22:
 270:fltk-1.3.4-1/jpeg/jidctint.c ****     z2 += z1;
 173              		.loc 1 270 0
 174 0147 4C01DB   		addq	%r11, %rbx
 175              	.LVL23:
 271:fltk-1.3.4-1/jpeg/jidctint.c ****     z3 += z1;
 176              		.loc 1 271 0
 177 014a 4C01DE   		addq	%r11, %rsi
 178              	.LVL24:
 272:fltk-1.3.4-1/jpeg/jidctint.c **** 
 273:fltk-1.3.4-1/jpeg/jidctint.c ****     z1 = MULTIPLY(tmp0 + tmp3, - FIX_0_899976223); /* -c3+c7 */
 179              		.loc 1 273 0
 180 014d 4D8D1C09 		leaq	(%r9,%rcx), %r11
 181              	.LVL25:
 274:fltk-1.3.4-1/jpeg/jidctint.c ****     tmp0 = MULTIPLY(tmp0, FIX_0_298631336);        /* -c1+c3+c5-c7 */
 182              		.loc 1 274 0
 183 0151 4D69C98E 		imulq	$2446, %r9, %r9
 183      090000
 184              	.LVL26:
 273:fltk-1.3.4-1/jpeg/jidctint.c ****     tmp0 = MULTIPLY(tmp0, FIX_0_298631336);        /* -c1+c3+c5-c7 */
 185              		.loc 1 273 0
 186 0158 4D69DB33 		imulq	$-7373, %r11, %r11
 186      E3FFFF
 187              	.LVL27:
 275:fltk-1.3.4-1/jpeg/jidctint.c ****     tmp3 = MULTIPLY(tmp3, FIX_1_501321110);        /*  c1+c3-c5-c7 */
 188              		.loc 1 275 0
 189 015f 4869C90B 		imulq	$12299, %rcx, %rcx
 189      300000
 190              	.LVL28:
 276:fltk-1.3.4-1/jpeg/jidctint.c ****     tmp0 += z1 + z2;
 191              		.loc 1 276 0
 192 0166 4E8D3C1B 		leaq	(%rbx,%r11), %r15
 277:fltk-1.3.4-1/jpeg/jidctint.c ****     tmp3 += z1 + z3;
 193              		.loc 1 277 0
 194 016a 4901F3   		addq	%rsi, %r11
 195              	.LVL29:
 196 016d 4C01D9   		addq	%r11, %rcx
 197              	.LVL30:
 276:fltk-1.3.4-1/jpeg/jidctint.c ****     tmp0 += z1 + z2;
 198              		.loc 1 276 0
 199 0170 4D01F9   		addq	%r15, %r9
 200              	.LVL31:
 278:fltk-1.3.4-1/jpeg/jidctint.c **** 
 279:fltk-1.3.4-1/jpeg/jidctint.c ****     z1 = MULTIPLY(tmp1 + tmp2, - FIX_2_562915447); /* -c1-c3 */
 201              		.loc 1 279 0
 202 0173 4D8D3C38 		leaq	(%r8,%rdi), %r15
 280:fltk-1.3.4-1/jpeg/jidctint.c ****     tmp1 = MULTIPLY(tmp1, FIX_2_053119869);        /*  c1+c3-c5+c7 */
 203              		.loc 1 280 0
 204 0177 4D69C0B3 		imulq	$16819, %r8, %r8
 204      410000
 205              	.LVL32:
 279:fltk-1.3.4-1/jpeg/jidctint.c ****     tmp1 = MULTIPLY(tmp1, FIX_2_053119869);        /*  c1+c3-c5+c7 */
 206              		.loc 1 279 0
 207 017e 4D69FFFD 		imulq	$-20995, %r15, %r15
 207      ADFFFF
 208              	.LVL33:
 281:fltk-1.3.4-1/jpeg/jidctint.c ****     tmp2 = MULTIPLY(tmp2, FIX_3_072711026);        /*  c1+c3+c5-c7 */
 209              		.loc 1 281 0
 210 0185 4869FF54 		imulq	$25172, %rdi, %rdi
 210      620000
 211              	.LVL34:
 282:fltk-1.3.4-1/jpeg/jidctint.c ****     tmp1 += z1 + z3;
 283:fltk-1.3.4-1/jpeg/jidctint.c ****     tmp2 += z1 + z2;
 212              		.loc 1 283 0
 213 018c 4C01FB   		addq	%r15, %rbx
 214              	.LVL35:
 282:fltk-1.3.4-1/jpeg/jidctint.c ****     tmp1 += z1 + z3;
 215              		.loc 1 282 0
 216 018f 4C01FE   		addq	%r15, %rsi
 217              	.LVL36:
 218              		.loc 1 283 0
 219 0192 4801DF   		addq	%rbx, %rdi
 220              	.LVL37:
 282:fltk-1.3.4-1/jpeg/jidctint.c ****     tmp1 += z1 + z3;
 221              		.loc 1 282 0
 222 0195 4901F0   		addq	%rsi, %r8
 223              	.LVL38:
 284:fltk-1.3.4-1/jpeg/jidctint.c **** 
 285:fltk-1.3.4-1/jpeg/jidctint.c ****     /* Final output stage: inputs are tmp10..tmp13, tmp0..tmp3 */
 286:fltk-1.3.4-1/jpeg/jidctint.c **** 
 287:fltk-1.3.4-1/jpeg/jidctint.c ****     wsptr[DCTSIZE*0] = (int) RIGHT_SHIFT(tmp10 + tmp3, CONST_BITS-PASS1_BITS);
 224              		.loc 1 287 0
 225 0198 498D340E 		leaq	(%r14,%rcx), %rsi
 288:fltk-1.3.4-1/jpeg/jidctint.c ****     wsptr[DCTSIZE*7] = (int) RIGHT_SHIFT(tmp10 - tmp3, CONST_BITS-PASS1_BITS);
 226              		.loc 1 288 0
 227 019c 4929CE   		subq	%rcx, %r14
 228              	.LVL39:
 289:fltk-1.3.4-1/jpeg/jidctint.c ****     wsptr[DCTSIZE*1] = (int) RIGHT_SHIFT(tmp11 + tmp2, CONST_BITS-PASS1_BITS);
 229              		.loc 1 289 0
 230 019f 498D4C3D 		leaq	0(%r13,%rdi), %rcx
 230      00
 231              	.LVL40:
 290:fltk-1.3.4-1/jpeg/jidctint.c ****     wsptr[DCTSIZE*6] = (int) RIGHT_SHIFT(tmp11 - tmp2, CONST_BITS-PASS1_BITS);
 232              		.loc 1 290 0
 233 01a4 4929FD   		subq	%rdi, %r13
 234              	.LVL41:
 287:fltk-1.3.4-1/jpeg/jidctint.c ****     wsptr[DCTSIZE*7] = (int) RIGHT_SHIFT(tmp10 - tmp3, CONST_BITS-PASS1_BITS);
 235              		.loc 1 287 0
 236 01a7 48C1FE0B 		sarq	$11, %rsi
 288:fltk-1.3.4-1/jpeg/jidctint.c ****     wsptr[DCTSIZE*1] = (int) RIGHT_SHIFT(tmp11 + tmp2, CONST_BITS-PASS1_BITS);
 237              		.loc 1 288 0
 238 01ab 49C1FE0B 		sarq	$11, %r14
 239              		.loc 1 290 0
 240 01af 49C1FD0B 		sarq	$11, %r13
 289:fltk-1.3.4-1/jpeg/jidctint.c ****     wsptr[DCTSIZE*6] = (int) RIGHT_SHIFT(tmp11 - tmp2, CONST_BITS-PASS1_BITS);
 241              		.loc 1 289 0
 242 01b3 48C1F90B 		sarq	$11, %rcx
 287:fltk-1.3.4-1/jpeg/jidctint.c ****     wsptr[DCTSIZE*7] = (int) RIGHT_SHIFT(tmp10 - tmp3, CONST_BITS-PASS1_BITS);
 243              		.loc 1 287 0
 244 01b7 897500   		movl	%esi, 0(%rbp)
 288:fltk-1.3.4-1/jpeg/jidctint.c ****     wsptr[DCTSIZE*1] = (int) RIGHT_SHIFT(tmp11 + tmp2, CONST_BITS-PASS1_BITS);
 245              		.loc 1 288 0
 246 01ba 4489B5E0 		movl	%r14d, 224(%rbp)
 246      000000
 289:fltk-1.3.4-1/jpeg/jidctint.c ****     wsptr[DCTSIZE*6] = (int) RIGHT_SHIFT(tmp11 - tmp2, CONST_BITS-PASS1_BITS);
 247              		.loc 1 289 0
 248 01c1 894D20   		movl	%ecx, 32(%rbp)
 291:fltk-1.3.4-1/jpeg/jidctint.c ****     wsptr[DCTSIZE*2] = (int) RIGHT_SHIFT(tmp12 + tmp1, CONST_BITS-PASS1_BITS);
 249              		.loc 1 291 0
 250 01c4 4A8D0C00 		leaq	(%rax,%r8), %rcx
 292:fltk-1.3.4-1/jpeg/jidctint.c ****     wsptr[DCTSIZE*5] = (int) RIGHT_SHIFT(tmp12 - tmp1, CONST_BITS-PASS1_BITS);
 251              		.loc 1 292 0
 252 01c8 4C29C0   		subq	%r8, %rax
 253              	.LVL42:
 254 01cb 48C1F80B 		sarq	$11, %rax
 290:fltk-1.3.4-1/jpeg/jidctint.c ****     wsptr[DCTSIZE*2] = (int) RIGHT_SHIFT(tmp12 + tmp1, CONST_BITS-PASS1_BITS);
 255              		.loc 1 290 0
 256 01cf 4489ADC0 		movl	%r13d, 192(%rbp)
 256      000000
 257              		.loc 1 292 0
 258 01d6 8985A000 		movl	%eax, 160(%rbp)
 258      0000
 293:fltk-1.3.4-1/jpeg/jidctint.c ****     wsptr[DCTSIZE*3] = (int) RIGHT_SHIFT(tmp13 + tmp0, CONST_BITS-PASS1_BITS);
 259              		.loc 1 293 0
 260 01dc 4B8D040A 		leaq	(%r10,%r9), %rax
 294:fltk-1.3.4-1/jpeg/jidctint.c ****     wsptr[DCTSIZE*4] = (int) RIGHT_SHIFT(tmp13 - tmp0, CONST_BITS-PASS1_BITS);
 261              		.loc 1 294 0
 262 01e0 4D29CA   		subq	%r9, %r10
 263              	.LVL43:
 291:fltk-1.3.4-1/jpeg/jidctint.c ****     wsptr[DCTSIZE*5] = (int) RIGHT_SHIFT(tmp12 - tmp1, CONST_BITS-PASS1_BITS);
 264              		.loc 1 291 0
 265 01e3 48C1F90B 		sarq	$11, %rcx
 266              		.loc 1 294 0
 267 01e7 49C1FA0B 		sarq	$11, %r10
 293:fltk-1.3.4-1/jpeg/jidctint.c ****     wsptr[DCTSIZE*3] = (int) RIGHT_SHIFT(tmp13 + tmp0, CONST_BITS-PASS1_BITS);
 268              		.loc 1 293 0
 269 01eb 48C1F80B 		sarq	$11, %rax
 291:fltk-1.3.4-1/jpeg/jidctint.c ****     wsptr[DCTSIZE*5] = (int) RIGHT_SHIFT(tmp12 - tmp1, CONST_BITS-PASS1_BITS);
 270              		.loc 1 291 0
 271 01ef 894D40   		movl	%ecx, 64(%rbp)
 272              		.loc 1 294 0
 273 01f2 44899580 		movl	%r10d, 128(%rbp)
 273      000000
 274              	.LVL44:
 293:fltk-1.3.4-1/jpeg/jidctint.c ****     wsptr[DCTSIZE*3] = (int) RIGHT_SHIFT(tmp13 + tmp0, CONST_BITS-PASS1_BITS);
 275              		.loc 1 293 0
 276 01f9 894560   		movl	%eax, 96(%rbp)
 277              	.LVL45:
 278              	.L9:
 279 01fc 4883C202 		addq	$2, %rdx
 280 0200 4983C404 		addq	$4, %r12
 281 0204 4883C504 		addq	$4, %rbp
 197:fltk-1.3.4-1/jpeg/jidctint.c ****     /* Due to quantization, we will usually find that many of the input
 282              		.loc 1 197 0 discriminator 2
 283 0208 832C2401 		subl	$1, (%rsp)
 284              	.LVL46:
 285 020c 7432     		je	.L27
 286              	.LVL47:
 287              	.L10:
 207:fltk-1.3.4-1/jpeg/jidctint.c **** 	inptr[DCTSIZE*3] == 0 && inptr[DCTSIZE*4] == 0 &&
 288              		.loc 1 207 0
 289 020e 0FBF4A10 		movswl	16(%rdx), %ecx
 290 0212 0FBF7220 		movswl	32(%rdx), %esi
 291 0216 6685C9   		testw	%cx, %cx
 292 0219 0F8441FE 		je	.L28
 292      FFFF
 293              	.L2:
 294 021f 0FBF4260 		movswl	96(%rdx), %eax
 295 0223 0FBF5A40 		movswl	64(%rdx), %ebx
 296 0227 440FBF4A 		movswl	112(%rdx), %r9d
 296      70
 297 022c 440FBF42 		movswl	80(%rdx), %r8d
 297      50
 298 0231 0FBF7A30 		movswl	48(%rdx), %edi
 299 0235 E956FEFF 		jmp	.L4
 299      FF
 300              	.LVL48:
 301 023a 660F1F44 		.p2align 4,,10
 301      0000
 302              		.p2align 3
 303              	.L27:
 304 0240 8B442408 		movl	8(%rsp), %eax
 305 0244 4C8B7C24 		movq	24(%rsp), %r15
 305      18
 306 0249 488D6C24 		leaq	64(%rsp), %rbp
 306      40
 307 024e 48894424 		movq	%rax, 8(%rsp)
 307      08
 308              	.LVL49:
 309 0253 488B4424 		movq	16(%rsp), %rax
 309      10
 310 0258 48890424 		movq	%rax, (%rsp)
 311              	.LVL50:
 312 025c E9AB0100 		jmp	.L19
 312      00
 313              	.LVL51:
 314              		.p2align 4,,10
 315 0261 0F1F8000 		.p2align 3
 315      000000
 316              	.L30:
 295:fltk-1.3.4-1/jpeg/jidctint.c **** 
 296:fltk-1.3.4-1/jpeg/jidctint.c ****     inptr++;			/* advance pointers to next column */
 297:fltk-1.3.4-1/jpeg/jidctint.c ****     quantptr++;
 298:fltk-1.3.4-1/jpeg/jidctint.c ****     wsptr++;
 299:fltk-1.3.4-1/jpeg/jidctint.c ****   }
 300:fltk-1.3.4-1/jpeg/jidctint.c **** 
 301:fltk-1.3.4-1/jpeg/jidctint.c ****   /* Pass 2: process rows from work array, store into output array.
 302:fltk-1.3.4-1/jpeg/jidctint.c ****    * Note that we must descale the results by a factor of 8 == 2**3,
 303:fltk-1.3.4-1/jpeg/jidctint.c ****    * and also undo the PASS1_BITS scaling.
 304:fltk-1.3.4-1/jpeg/jidctint.c ****    */
 305:fltk-1.3.4-1/jpeg/jidctint.c **** 
 306:fltk-1.3.4-1/jpeg/jidctint.c ****   wsptr = workspace;
 307:fltk-1.3.4-1/jpeg/jidctint.c ****   for (ctr = 0; ctr < DCTSIZE; ctr++) {
 308:fltk-1.3.4-1/jpeg/jidctint.c ****     outptr = output_buf[ctr] + output_col;
 309:fltk-1.3.4-1/jpeg/jidctint.c ****     /* Rows of zeroes can be exploited in the same way as we did with columns.
 310:fltk-1.3.4-1/jpeg/jidctint.c ****      * However, the column calculation has created many nonzero AC terms, so
 311:fltk-1.3.4-1/jpeg/jidctint.c ****      * the simplification applies less often (typically 5% to 10% of the time).
 312:fltk-1.3.4-1/jpeg/jidctint.c ****      * On machines with very fast multiplication, it's possible that the
 313:fltk-1.3.4-1/jpeg/jidctint.c ****      * test takes more time than it's worth.  In that case this section
 314:fltk-1.3.4-1/jpeg/jidctint.c ****      * may be commented out.
 315:fltk-1.3.4-1/jpeg/jidctint.c ****      */
 316:fltk-1.3.4-1/jpeg/jidctint.c **** 
 317:fltk-1.3.4-1/jpeg/jidctint.c **** #ifndef NO_ZERO_ROW_TEST
 318:fltk-1.3.4-1/jpeg/jidctint.c ****     if (wsptr[1] == 0 && wsptr[2] == 0 && wsptr[3] == 0 && wsptr[4] == 0 &&
 317              		.loc 1 318 0 discriminator 1
 318 0268 4585C9   		testl	%r9d, %r9d
 319 026b 0F85B801 		jne	.L11
 319      0000
 320              		.loc 1 318 0 is_stmt 0 discriminator 2
 321 0271 4C635DEC 		movslq	-20(%rbp), %r11
 322 0275 4585DB   		testl	%r11d, %r11d
 323 0278 0F842202 		je	.L14
 323      0000
 324 027e 486345F8 		movslq	-8(%rbp), %rax
 325 0282 4C6365FC 		movslq	-4(%rbp), %r12
 326 0286 48635DF4 		movslq	-12(%rbp), %rbx
 327 028a 8B55F0   		movl	-16(%rbp), %edx
 328 028d 0F1F00   		.p2align 4,,10
 329              		.p2align 3
 330              	.L13:
 331              	.LVL52:
 319:fltk-1.3.4-1/jpeg/jidctint.c **** 	wsptr[5] == 0 && wsptr[6] == 0 && wsptr[7] == 0) {
 320:fltk-1.3.4-1/jpeg/jidctint.c ****       /* AC terms all zero */
 321:fltk-1.3.4-1/jpeg/jidctint.c ****       JSAMPLE dcval = range_limit[(int) DESCALE((INT32) wsptr[0], PASS1_BITS+3)
 322:fltk-1.3.4-1/jpeg/jidctint.c **** 				  & RANGE_MASK];
 323:fltk-1.3.4-1/jpeg/jidctint.c **** 
 324:fltk-1.3.4-1/jpeg/jidctint.c ****       outptr[0] = dcval;
 325:fltk-1.3.4-1/jpeg/jidctint.c ****       outptr[1] = dcval;
 326:fltk-1.3.4-1/jpeg/jidctint.c ****       outptr[2] = dcval;
 327:fltk-1.3.4-1/jpeg/jidctint.c ****       outptr[3] = dcval;
 328:fltk-1.3.4-1/jpeg/jidctint.c ****       outptr[4] = dcval;
 329:fltk-1.3.4-1/jpeg/jidctint.c ****       outptr[5] = dcval;
 330:fltk-1.3.4-1/jpeg/jidctint.c ****       outptr[6] = dcval;
 331:fltk-1.3.4-1/jpeg/jidctint.c ****       outptr[7] = dcval;
 332:fltk-1.3.4-1/jpeg/jidctint.c **** 
 333:fltk-1.3.4-1/jpeg/jidctint.c ****       wsptr += DCTSIZE;		/* advance pointer to next row */
 334:fltk-1.3.4-1/jpeg/jidctint.c ****       continue;
 335:fltk-1.3.4-1/jpeg/jidctint.c ****     }
 336:fltk-1.3.4-1/jpeg/jidctint.c **** #endif
 337:fltk-1.3.4-1/jpeg/jidctint.c **** 
 338:fltk-1.3.4-1/jpeg/jidctint.c ****     /* Even part: reverse the even part of the forward DCT.
 339:fltk-1.3.4-1/jpeg/jidctint.c ****      * The rotator is c(-6).
 340:fltk-1.3.4-1/jpeg/jidctint.c ****      */
 341:fltk-1.3.4-1/jpeg/jidctint.c **** 
 342:fltk-1.3.4-1/jpeg/jidctint.c ****     z2 = (INT32) wsptr[2];
 343:fltk-1.3.4-1/jpeg/jidctint.c ****     z3 = (INT32) wsptr[6];
 344:fltk-1.3.4-1/jpeg/jidctint.c **** 
 345:fltk-1.3.4-1/jpeg/jidctint.c ****     z1 = MULTIPLY(z2 + z3, FIX_0_541196100);       /* c6 */
 332              		.loc 1 345 0 is_stmt 1
 333 0290 498D0C01 		leaq	(%r9,%rax), %rcx
 346:fltk-1.3.4-1/jpeg/jidctint.c ****     tmp2 = z1 + MULTIPLY(z2, FIX_0_765366865);     /* c2-c6 */
 347:fltk-1.3.4-1/jpeg/jidctint.c ****     tmp3 = z1 - MULTIPLY(z3, FIX_1_847759065);     /* c2+c6 */
 348:fltk-1.3.4-1/jpeg/jidctint.c **** 
 349:fltk-1.3.4-1/jpeg/jidctint.c ****     /* Add fudge factor here for final descale. */
 350:fltk-1.3.4-1/jpeg/jidctint.c ****     z2 = (INT32) wsptr[0] + (ONE << (PASS1_BITS+2));
 351:fltk-1.3.4-1/jpeg/jidctint.c ****     z3 = (INT32) wsptr[4];
 352:fltk-1.3.4-1/jpeg/jidctint.c **** 
 353:fltk-1.3.4-1/jpeg/jidctint.c ****     tmp0 = (z2 + z3) << CONST_BITS;
 354:fltk-1.3.4-1/jpeg/jidctint.c ****     tmp1 = (z2 - z3) << CONST_BITS;
 355:fltk-1.3.4-1/jpeg/jidctint.c **** 
 356:fltk-1.3.4-1/jpeg/jidctint.c ****     tmp10 = tmp0 + tmp2;
 357:fltk-1.3.4-1/jpeg/jidctint.c ****     tmp13 = tmp0 - tmp2;
 358:fltk-1.3.4-1/jpeg/jidctint.c ****     tmp11 = tmp1 + tmp3;
 359:fltk-1.3.4-1/jpeg/jidctint.c ****     tmp12 = tmp1 - tmp3;
 360:fltk-1.3.4-1/jpeg/jidctint.c **** 
 361:fltk-1.3.4-1/jpeg/jidctint.c ****     /* Odd part per figure 8; the matrix is unitary and hence its
 362:fltk-1.3.4-1/jpeg/jidctint.c ****      * transpose is its inverse.  i0..i3 are y7,y5,y3,y1 respectively.
 363:fltk-1.3.4-1/jpeg/jidctint.c ****      */
 364:fltk-1.3.4-1/jpeg/jidctint.c **** 
 365:fltk-1.3.4-1/jpeg/jidctint.c ****     tmp0 = (INT32) wsptr[7];
 366:fltk-1.3.4-1/jpeg/jidctint.c ****     tmp1 = (INT32) wsptr[5];
 367:fltk-1.3.4-1/jpeg/jidctint.c ****     tmp2 = (INT32) wsptr[3];
 368:fltk-1.3.4-1/jpeg/jidctint.c ****     tmp3 = (INT32) wsptr[1];
 369:fltk-1.3.4-1/jpeg/jidctint.c **** 
 370:fltk-1.3.4-1/jpeg/jidctint.c ****     z2 = tmp0 + tmp2;
 334              		.loc 1 370 0
 335 0294 4F8D2C1C 		leaq	(%r12,%r11), %r13
 346:fltk-1.3.4-1/jpeg/jidctint.c ****     tmp2 = z1 + MULTIPLY(z2, FIX_0_765366865);     /* c2-c6 */
 336              		.loc 1 346 0
 337 0298 4D69C97E 		imulq	$6270, %r9, %r9
 337      180000
 338              	.LVL53:
 345:fltk-1.3.4-1/jpeg/jidctint.c ****     tmp2 = z1 + MULTIPLY(z2, FIX_0_765366865);     /* c2-c6 */
 339              		.loc 1 345 0
 340 029f 4869F151 		imulq	$4433, %rcx, %rsi
 340      110000
 341              	.LVL54:
 347:fltk-1.3.4-1/jpeg/jidctint.c **** 
 342              		.loc 1 347 0
 343 02a6 4869C8DF 		imulq	$-15137, %rax, %rcx
 343      C4FFFF
 350:fltk-1.3.4-1/jpeg/jidctint.c ****     z3 = (INT32) wsptr[4];
 344              		.loc 1 350 0
 345 02ad 486345E0 		movslq	-32(%rbp), %rax
 346              	.LVL55:
 346:fltk-1.3.4-1/jpeg/jidctint.c ****     tmp3 = z1 - MULTIPLY(z3, FIX_1_847759065);     /* c2+c6 */
 347              		.loc 1 346 0
 348 02b1 4901F1   		addq	%rsi, %r9
 349              	.LVL56:
 347:fltk-1.3.4-1/jpeg/jidctint.c **** 
 350              		.loc 1 347 0
 351 02b4 4801F1   		addq	%rsi, %rcx
 352              	.LVL57:
 350:fltk-1.3.4-1/jpeg/jidctint.c ****     z3 = (INT32) wsptr[4];
 353              		.loc 1 350 0
 354 02b7 4883C010 		addq	$16, %rax
 355              	.LVL58:
 351:fltk-1.3.4-1/jpeg/jidctint.c **** 
 356              		.loc 1 351 0
 357 02bb 4863F2   		movslq	%edx, %rsi
 358              	.LVL59:
 353:fltk-1.3.4-1/jpeg/jidctint.c ****     tmp1 = (z2 - z3) << CONST_BITS;
 359              		.loc 1 353 0
 360 02be 488D1430 		leaq	(%rax,%rsi), %rdx
 354:fltk-1.3.4-1/jpeg/jidctint.c **** 
 361              		.loc 1 354 0
 362 02c2 4829F0   		subq	%rsi, %rax
 363              	.LVL60:
 364 02c5 48C1E00D 		salq	$13, %rax
 353:fltk-1.3.4-1/jpeg/jidctint.c ****     tmp1 = (z2 - z3) << CONST_BITS;
 365              		.loc 1 353 0
 366 02c9 48C1E20D 		salq	$13, %rdx
 367              	.LVL61:
 356:fltk-1.3.4-1/jpeg/jidctint.c ****     tmp13 = tmp0 - tmp2;
 368              		.loc 1 356 0
 369 02cd 4D8D1411 		leaq	(%r9,%rdx), %r10
 370              	.LVL62:
 357:fltk-1.3.4-1/jpeg/jidctint.c ****     tmp11 = tmp1 + tmp3;
 371              		.loc 1 357 0
 372 02d1 4C29CA   		subq	%r9, %rdx
 373              	.LVL63:
 358:fltk-1.3.4-1/jpeg/jidctint.c ****     tmp12 = tmp1 - tmp3;
 374              		.loc 1 358 0
 375 02d4 4C8D0C01 		leaq	(%rcx,%rax), %r9
 376              	.LVL64:
 359:fltk-1.3.4-1/jpeg/jidctint.c **** 
 377              		.loc 1 359 0
 378 02d8 4829C8   		subq	%rcx, %rax
 379              	.LVL65:
 371:fltk-1.3.4-1/jpeg/jidctint.c ****     z3 = tmp1 + tmp3;
 380              		.loc 1 371 0
 381 02db 4A8D0C03 		leaq	(%rbx,%r8), %rcx
 382              	.LVL66:
 372:fltk-1.3.4-1/jpeg/jidctint.c **** 
 373:fltk-1.3.4-1/jpeg/jidctint.c ****     z1 = MULTIPLY(z2 + z3, FIX_1_175875602);       /*  c3 */
 383              		.loc 1 373 0
 384 02df 498D740D 		leaq	0(%r13,%rcx), %rsi
 384      00
 374:fltk-1.3.4-1/jpeg/jidctint.c ****     z2 = MULTIPLY(z2, - FIX_1_961570560);          /* -c3-c5 */
 385              		.loc 1 374 0
 386 02e4 4D69ED3B 		imulq	$-16069, %r13, %r13
 386      C1FFFF
 387              	.LVL67:
 373:fltk-1.3.4-1/jpeg/jidctint.c ****     z2 = MULTIPLY(z2, - FIX_1_961570560);          /* -c3-c5 */
 388              		.loc 1 373 0
 389 02eb 4869F6A1 		imulq	$9633, %rsi, %rsi
 389      250000
 390              	.LVL68:
 375:fltk-1.3.4-1/jpeg/jidctint.c ****     z3 = MULTIPLY(z3, - FIX_0_390180644);          /* -c3+c5 */
 391              		.loc 1 375 0
 392 02f2 4869C984 		imulq	$-3196, %rcx, %rcx
 392      F3FFFF
 393              	.LVL69:
 376:fltk-1.3.4-1/jpeg/jidctint.c ****     z2 += z1;
 394              		.loc 1 376 0
 395 02f9 4901F5   		addq	%rsi, %r13
 396              	.LVL70:
 377:fltk-1.3.4-1/jpeg/jidctint.c ****     z3 += z1;
 397              		.loc 1 377 0
 398 02fc 4801F1   		addq	%rsi, %rcx
 399              	.LVL71:
 378:fltk-1.3.4-1/jpeg/jidctint.c **** 
 379:fltk-1.3.4-1/jpeg/jidctint.c ****     z1 = MULTIPLY(tmp0 + tmp3, - FIX_0_899976223); /* -c3+c7 */
 400              		.loc 1 379 0
 401 02ff 4B8D3404 		leaq	(%r12,%r8), %rsi
 402              	.LVL72:
 380:fltk-1.3.4-1/jpeg/jidctint.c ****     tmp0 = MULTIPLY(tmp0, FIX_0_298631336);        /* -c1+c3+c5-c7 */
 403              		.loc 1 380 0
 404 0303 4D69E48E 		imulq	$2446, %r12, %r12
 404      090000
 405              	.LVL73:
 379:fltk-1.3.4-1/jpeg/jidctint.c ****     tmp0 = MULTIPLY(tmp0, FIX_0_298631336);        /* -c1+c3+c5-c7 */
 406              		.loc 1 379 0
 407 030a 4869F633 		imulq	$-7373, %rsi, %rsi
 407      E3FFFF
 408              	.LVL74:
 381:fltk-1.3.4-1/jpeg/jidctint.c ****     tmp3 = MULTIPLY(tmp3, FIX_1_501321110);        /*  c1+c3-c5-c7 */
 409              		.loc 1 381 0
 410 0311 4D69C00B 		imulq	$12299, %r8, %r8
 410      300000
 411              	.LVL75:
 382:fltk-1.3.4-1/jpeg/jidctint.c ****     tmp0 += z1 + z2;
 412              		.loc 1 382 0
 413 0318 4D8D7435 		leaq	0(%r13,%rsi), %r14
 413      00
 383:fltk-1.3.4-1/jpeg/jidctint.c ****     tmp3 += z1 + z3;
 414              		.loc 1 383 0
 415 031d 4801CE   		addq	%rcx, %rsi
 416              	.LVL76:
 417 0320 4901F0   		addq	%rsi, %r8
 418              	.LVL77:
 382:fltk-1.3.4-1/jpeg/jidctint.c ****     tmp0 += z1 + z2;
 419              		.loc 1 382 0
 420 0323 4D01F4   		addq	%r14, %r12
 421              	.LVL78:
 384:fltk-1.3.4-1/jpeg/jidctint.c **** 
 385:fltk-1.3.4-1/jpeg/jidctint.c ****     z1 = MULTIPLY(tmp1 + tmp2, - FIX_2_562915447); /* -c1-c3 */
 422              		.loc 1 385 0
 423 0326 4E8D341B 		leaq	(%rbx,%r11), %r14
 386:fltk-1.3.4-1/jpeg/jidctint.c ****     tmp1 = MULTIPLY(tmp1, FIX_2_053119869);        /*  c1+c3-c5+c7 */
 424              		.loc 1 386 0
 425 032a 4869DBB3 		imulq	$16819, %rbx, %rbx
 425      410000
 426              	.LVL79:
 385:fltk-1.3.4-1/jpeg/jidctint.c ****     tmp1 = MULTIPLY(tmp1, FIX_2_053119869);        /*  c1+c3-c5+c7 */
 427              		.loc 1 385 0
 428 0331 4D69F6FD 		imulq	$-20995, %r14, %r14
 428      ADFFFF
 429              	.LVL80:
 387:fltk-1.3.4-1/jpeg/jidctint.c ****     tmp2 = MULTIPLY(tmp2, FIX_3_072711026);        /*  c1+c3+c5-c7 */
 430              		.loc 1 387 0
 431 0338 4D69DB54 		imulq	$25172, %r11, %r11
 431      620000
 432              	.LVL81:
 388:fltk-1.3.4-1/jpeg/jidctint.c ****     tmp1 += z1 + z3;
 433              		.loc 1 388 0
 434 033f 4C01F1   		addq	%r14, %rcx
 435              	.LVL82:
 389:fltk-1.3.4-1/jpeg/jidctint.c ****     tmp2 += z1 + z2;
 436              		.loc 1 389 0
 437 0342 4D01F5   		addq	%r14, %r13
 438              	.LVL83:
 388:fltk-1.3.4-1/jpeg/jidctint.c ****     tmp1 += z1 + z3;
 439              		.loc 1 388 0
 440 0345 4801CB   		addq	%rcx, %rbx
 441              	.LVL84:
 390:fltk-1.3.4-1/jpeg/jidctint.c **** 
 391:fltk-1.3.4-1/jpeg/jidctint.c ****     /* Final output stage: inputs are tmp10..tmp13, tmp0..tmp3 */
 392:fltk-1.3.4-1/jpeg/jidctint.c **** 
 393:fltk-1.3.4-1/jpeg/jidctint.c ****     outptr[0] = range_limit[(int) RIGHT_SHIFT(tmp10 + tmp3,
 442              		.loc 1 393 0
 443 0348 4B8D0C02 		leaq	(%r10,%r8), %rcx
 394:fltk-1.3.4-1/jpeg/jidctint.c **** 					      CONST_BITS+PASS1_BITS+3)
 395:fltk-1.3.4-1/jpeg/jidctint.c **** 			    & RANGE_MASK];
 396:fltk-1.3.4-1/jpeg/jidctint.c ****     outptr[7] = range_limit[(int) RIGHT_SHIFT(tmp10 - tmp3,
 444              		.loc 1 396 0
 445 034c 4D29C2   		subq	%r8, %r10
 446              	.LVL85:
 389:fltk-1.3.4-1/jpeg/jidctint.c **** 
 447              		.loc 1 389 0
 448 034f 4D01EB   		addq	%r13, %r11
 449              	.LVL86:
 393:fltk-1.3.4-1/jpeg/jidctint.c **** 					      CONST_BITS+PASS1_BITS+3)
 450              		.loc 1 393 0
 451 0352 48C1F912 		sarq	$18, %rcx
 452 0356 81E1FF03 		andl	$1023, %ecx
 452      0000
 453              		.loc 1 396 0
 454 035c 49C1FA12 		sarq	$18, %r10
 393:fltk-1.3.4-1/jpeg/jidctint.c **** 					      CONST_BITS+PASS1_BITS+3)
 455              		.loc 1 393 0
 456 0360 410FB60C 		movzbl	(%r15,%rcx), %ecx
 456      0F
 457              		.loc 1 396 0
 458 0365 4181E2FF 		andl	$1023, %r10d
 458      030000
 393:fltk-1.3.4-1/jpeg/jidctint.c **** 					      CONST_BITS+PASS1_BITS+3)
 459              		.loc 1 393 0
 460 036c 880F     		movb	%cl, (%rdi)
 461              		.loc 1 396 0
 462 036e 430FB60C 		movzbl	(%r15,%r10), %ecx
 462      17
 463 0373 884F07   		movb	%cl, 7(%rdi)
 397:fltk-1.3.4-1/jpeg/jidctint.c **** 					      CONST_BITS+PASS1_BITS+3)
 398:fltk-1.3.4-1/jpeg/jidctint.c **** 			    & RANGE_MASK];
 399:fltk-1.3.4-1/jpeg/jidctint.c ****     outptr[1] = range_limit[(int) RIGHT_SHIFT(tmp11 + tmp2,
 464              		.loc 1 399 0
 465 0376 4B8D0C19 		leaq	(%r9,%r11), %rcx
 400:fltk-1.3.4-1/jpeg/jidctint.c **** 					      CONST_BITS+PASS1_BITS+3)
 401:fltk-1.3.4-1/jpeg/jidctint.c **** 			    & RANGE_MASK];
 402:fltk-1.3.4-1/jpeg/jidctint.c ****     outptr[6] = range_limit[(int) RIGHT_SHIFT(tmp11 - tmp2,
 466              		.loc 1 402 0
 467 037a 4D29D9   		subq	%r11, %r9
 468              	.LVL87:
 469 037d 49C1F912 		sarq	$18, %r9
 399:fltk-1.3.4-1/jpeg/jidctint.c **** 					      CONST_BITS+PASS1_BITS+3)
 470              		.loc 1 399 0
 471 0381 48C1F912 		sarq	$18, %rcx
 472              		.loc 1 402 0
 473 0385 4181E1FF 		andl	$1023, %r9d
 473      030000
 399:fltk-1.3.4-1/jpeg/jidctint.c **** 					      CONST_BITS+PASS1_BITS+3)
 474              		.loc 1 399 0
 475 038c 81E1FF03 		andl	$1023, %ecx
 475      0000
 476 0392 410FB60C 		movzbl	(%r15,%rcx), %ecx
 476      0F
 477 0397 884F01   		movb	%cl, 1(%rdi)
 478              		.loc 1 402 0
 479 039a 430FB60C 		movzbl	(%r15,%r9), %ecx
 479      0F
 480 039f 884F06   		movb	%cl, 6(%rdi)
 403:fltk-1.3.4-1/jpeg/jidctint.c **** 					      CONST_BITS+PASS1_BITS+3)
 404:fltk-1.3.4-1/jpeg/jidctint.c **** 			    & RANGE_MASK];
 405:fltk-1.3.4-1/jpeg/jidctint.c ****     outptr[2] = range_limit[(int) RIGHT_SHIFT(tmp12 + tmp1,
 481              		.loc 1 405 0
 482 03a2 488D0C18 		leaq	(%rax,%rbx), %rcx
 406:fltk-1.3.4-1/jpeg/jidctint.c **** 					      CONST_BITS+PASS1_BITS+3)
 407:fltk-1.3.4-1/jpeg/jidctint.c **** 			    & RANGE_MASK];
 408:fltk-1.3.4-1/jpeg/jidctint.c ****     outptr[5] = range_limit[(int) RIGHT_SHIFT(tmp12 - tmp1,
 483              		.loc 1 408 0
 484 03a6 4829D8   		subq	%rbx, %rax
 485              	.LVL88:
 486 03a9 48C1F812 		sarq	$18, %rax
 405:fltk-1.3.4-1/jpeg/jidctint.c **** 					      CONST_BITS+PASS1_BITS+3)
 487              		.loc 1 405 0
 488 03ad 48C1F912 		sarq	$18, %rcx
 489              		.loc 1 408 0
 490 03b1 25FF0300 		andl	$1023, %eax
 490      00
 405:fltk-1.3.4-1/jpeg/jidctint.c **** 					      CONST_BITS+PASS1_BITS+3)
 491              		.loc 1 405 0
 492 03b6 81E1FF03 		andl	$1023, %ecx
 492      0000
 493 03bc 410FB60C 		movzbl	(%r15,%rcx), %ecx
 493      0F
 494 03c1 884F02   		movb	%cl, 2(%rdi)
 495              		.loc 1 408 0
 496 03c4 410FB604 		movzbl	(%r15,%rax), %eax
 496      07
 497 03c9 884705   		movb	%al, 5(%rdi)
 409:fltk-1.3.4-1/jpeg/jidctint.c **** 					      CONST_BITS+PASS1_BITS+3)
 410:fltk-1.3.4-1/jpeg/jidctint.c **** 			    & RANGE_MASK];
 411:fltk-1.3.4-1/jpeg/jidctint.c ****     outptr[3] = range_limit[(int) RIGHT_SHIFT(tmp13 + tmp0,
 498              		.loc 1 411 0
 499 03cc 4A8D0422 		leaq	(%rdx,%r12), %rax
 412:fltk-1.3.4-1/jpeg/jidctint.c **** 					      CONST_BITS+PASS1_BITS+3)
 413:fltk-1.3.4-1/jpeg/jidctint.c **** 			    & RANGE_MASK];
 414:fltk-1.3.4-1/jpeg/jidctint.c ****     outptr[4] = range_limit[(int) RIGHT_SHIFT(tmp13 - tmp0,
 500              		.loc 1 414 0
 501 03d0 4C29E2   		subq	%r12, %rdx
 502              	.LVL89:
 503 03d3 48C1FA12 		sarq	$18, %rdx
 411:fltk-1.3.4-1/jpeg/jidctint.c **** 					      CONST_BITS+PASS1_BITS+3)
 504              		.loc 1 411 0
 505 03d7 48C1F812 		sarq	$18, %rax
 506              		.loc 1 414 0
 507 03db 81E2FF03 		andl	$1023, %edx
 507      0000
 411:fltk-1.3.4-1/jpeg/jidctint.c **** 					      CONST_BITS+PASS1_BITS+3)
 508              		.loc 1 411 0
 509 03e1 25FF0300 		andl	$1023, %eax
 509      00
 510 03e6 410FB604 		movzbl	(%r15,%rax), %eax
 510      07
 511 03eb 884703   		movb	%al, 3(%rdi)
 512              		.loc 1 414 0
 513 03ee 410FB604 		movzbl	(%r15,%rdx), %eax
 513      17
 514 03f3 884704   		movb	%al, 4(%rdi)
 515              	.LVL90:
 516              	.L18:
 307:fltk-1.3.4-1/jpeg/jidctint.c ****     outptr = output_buf[ctr] + output_col;
 517              		.loc 1 307 0 discriminator 2
 518 03f6 488D8424 		leaq	320(%rsp), %rax
 518      40010000 
 519 03fe 4883C520 		addq	$32, %rbp
 520              	.LVL91:
 521 0402 48830424 		addq	$8, (%rsp)
 521      08
 522 0407 4839E8   		cmpq	%rbp, %rax
 523 040a 7464     		je	.L29
 524              	.LVL92:
 525              	.L19:
 318:fltk-1.3.4-1/jpeg/jidctint.c **** 	wsptr[5] == 0 && wsptr[6] == 0 && wsptr[7] == 0) {
 526              		.loc 1 318 0
 527 040c 4C6345E4 		movslq	-28(%rbp), %r8
 308:fltk-1.3.4-1/jpeg/jidctint.c ****     /* Rows of zeroes can be exploited in the same way as we did with columns.
 528              		.loc 1 308 0
 529 0410 488B0424 		movq	(%rsp), %rax
 530 0414 488B7C24 		movq	8(%rsp), %rdi
 530      08
 318:fltk-1.3.4-1/jpeg/jidctint.c **** 	wsptr[5] == 0 && wsptr[6] == 0 && wsptr[7] == 0) {
 531              		.loc 1 318 0
 532 0419 4C634DE8 		movslq	-24(%rbp), %r9
 308:fltk-1.3.4-1/jpeg/jidctint.c ****     /* Rows of zeroes can be exploited in the same way as we did with columns.
 533              		.loc 1 308 0
 534 041d 480338   		addq	(%rax), %rdi
 535              	.LVL93:
 318:fltk-1.3.4-1/jpeg/jidctint.c **** 	wsptr[5] == 0 && wsptr[6] == 0 && wsptr[7] == 0) {
 536              		.loc 1 318 0
 537 0420 4585C0   		testl	%r8d, %r8d
 538 0423 0F843FFE 		je	.L30
 538      FFFF
 539              	.L11:
 540 0429 486345F8 		movslq	-8(%rbp), %rax
 541 042d 8B55F0   		movl	-16(%rbp), %edx
 542 0430 4C6365FC 		movslq	-4(%rbp), %r12
 543 0434 48635DF4 		movslq	-12(%rbp), %rbx
 544 0438 4C635DEC 		movslq	-20(%rbp), %r11
 545 043c E94FFEFF 		jmp	.L13
 545      FF
 546              	.LVL94:
 547              		.p2align 4,,10
 548 0441 0F1F8000 		.p2align 3
 548      000000
 549              	.L5:
 208:fltk-1.3.4-1/jpeg/jidctint.c **** 	inptr[DCTSIZE*5] == 0 && inptr[DCTSIZE*6] == 0 &&
 550              		.loc 1 208 0
 551 0448 0FBF5A40 		movswl	64(%rdx), %ebx
 552 044c 6685DB   		testw	%bx, %bx
 553 044f 746F     		je	.L6
 554 0451 0FBF4260 		movswl	96(%rdx), %eax
 555 0455 440FBF4A 		movswl	112(%rdx), %r9d
 555      70
 556 045a 0FBFF7   		movswl	%di, %esi
 557 045d 440FBF42 		movswl	80(%rdx), %r8d
 557      50
 558 0462 E929FCFF 		jmp	.L4
 558      FF
 559              	.LVL95:
 560 0467 660F1F84 		.p2align 4,,10
 560      00000000 
 560      00
 561              		.p2align 3
 562              	.L29:
 415:fltk-1.3.4-1/jpeg/jidctint.c **** 					      CONST_BITS+PASS1_BITS+3)
 416:fltk-1.3.4-1/jpeg/jidctint.c **** 			    & RANGE_MASK];
 417:fltk-1.3.4-1/jpeg/jidctint.c **** 
 418:fltk-1.3.4-1/jpeg/jidctint.c ****     wsptr += DCTSIZE;		/* advance pointer to next row */
 419:fltk-1.3.4-1/jpeg/jidctint.c ****   }
 420:fltk-1.3.4-1/jpeg/jidctint.c **** }
 563              		.loc 1 420 0
 564 0470 488B8424 		movq	296(%rsp), %rax
 564      28010000 
 565 0478 64483304 		xorq	%fs:40, %rax
 565      25280000 
 565      00
 566 0481 0F855001 		jne	.L31
 566      0000
 567 0487 4881C438 		addq	$312, %rsp
 567      010000
 568              		.cfi_remember_state
 569              		.cfi_def_cfa_offset 56
 570 048e 5B       		popq	%rbx
 571              		.cfi_def_cfa_offset 48
 572 048f 5D       		popq	%rbp
 573              		.cfi_def_cfa_offset 40
 574              	.LVL96:
 575 0490 415C     		popq	%r12
 576              		.cfi_def_cfa_offset 32
 577 0492 415D     		popq	%r13
 578              		.cfi_def_cfa_offset 24
 579 0494 415E     		popq	%r14
 580              		.cfi_def_cfa_offset 16
 581 0496 415F     		popq	%r15
 582              		.cfi_def_cfa_offset 8
 583 0498 C3       		ret
 584              	.LVL97:
 585 0499 0F1F8000 		.p2align 4,,10
 585      000000
 586              		.p2align 3
 587              	.L14:
 588              		.cfi_restore_state
 318:fltk-1.3.4-1/jpeg/jidctint.c **** 	wsptr[5] == 0 && wsptr[6] == 0 && wsptr[7] == 0) {
 589              		.loc 1 318 0 discriminator 3
 590 04a0 8B55F0   		movl	-16(%rbp), %edx
 591 04a3 85D2     		testl	%edx, %edx
 592 04a5 7479     		je	.L15
 593 04a7 486345F8 		movslq	-8(%rbp), %rax
 594 04ab 4C6365FC 		movslq	-4(%rbp), %r12
 318:fltk-1.3.4-1/jpeg/jidctint.c **** 	wsptr[5] == 0 && wsptr[6] == 0 && wsptr[7] == 0) {
 595              		.loc 1 318 0 is_stmt 0
 596 04af 4D63CB   		movslq	%r11d, %r9
 597 04b2 48635DF4 		movslq	-12(%rbp), %rbx
 598 04b6 E9D5FDFF 		jmp	.L13
 598      FF
 599              	.LVL98:
 600 04bb 0F1F4400 		.p2align 4,,10
 600      00
 601              		.p2align 3
 602              	.L6:
 209:fltk-1.3.4-1/jpeg/jidctint.c **** 	inptr[DCTSIZE*7] == 0) {
 603              		.loc 1 209 0 is_stmt 1 discriminator 1
 604 04c0 440FBF42 		movswl	80(%rdx), %r8d
 604      50
 605 04c5 0FBF4260 		movswl	96(%rdx), %eax
 210:fltk-1.3.4-1/jpeg/jidctint.c ****       /* AC terms all zero */
 606              		.loc 1 210 0 discriminator 1
 607 04c9 440FBF4A 		movswl	112(%rdx), %r9d
 607      70
 208:fltk-1.3.4-1/jpeg/jidctint.c **** 	inptr[DCTSIZE*5] == 0 && inptr[DCTSIZE*6] == 0 &&
 608              		.loc 1 208 0 discriminator 1
 609 04ce 664585C0 		testw	%r8w, %r8w
 610 04d2 0F85A800 		jne	.L32
 610      0000
 209:fltk-1.3.4-1/jpeg/jidctint.c **** 	inptr[DCTSIZE*7] == 0) {
 611              		.loc 1 209 0
 612 04d8 6685C0   		testw	%ax, %ax
 613 04db 0F85AF00 		jne	.L33
 613      0000
 209:fltk-1.3.4-1/jpeg/jidctint.c **** 	inptr[DCTSIZE*7] == 0) {
 614              		.loc 1 209 0 is_stmt 0 discriminator 1
 615 04e1 664585C9 		testw	%r9w, %r9w
 616 04e5 0F85CA00 		jne	.L21
 616      0000
 617              	.LBB2:
 212:fltk-1.3.4-1/jpeg/jidctint.c **** 
 618              		.loc 1 212 0 is_stmt 1
 619 04eb 0FBF02   		movswl	(%rdx), %eax
 620 04ee 410FAF04 		imull	(%r12), %eax
 620      24
 621 04f3 C1E002   		sall	$2, %eax
 622              	.LVL99:
 214:fltk-1.3.4-1/jpeg/jidctint.c ****       wsptr[DCTSIZE*1] = dcval;
 623              		.loc 1 214 0
 624 04f6 894500   		movl	%eax, 0(%rbp)
 215:fltk-1.3.4-1/jpeg/jidctint.c ****       wsptr[DCTSIZE*2] = dcval;
 625              		.loc 1 215 0
 626 04f9 894520   		movl	%eax, 32(%rbp)
 216:fltk-1.3.4-1/jpeg/jidctint.c ****       wsptr[DCTSIZE*3] = dcval;
 627              		.loc 1 216 0
 628 04fc 894540   		movl	%eax, 64(%rbp)
 217:fltk-1.3.4-1/jpeg/jidctint.c ****       wsptr[DCTSIZE*4] = dcval;
 629              		.loc 1 217 0
 630 04ff 894560   		movl	%eax, 96(%rbp)
 218:fltk-1.3.4-1/jpeg/jidctint.c ****       wsptr[DCTSIZE*5] = dcval;
 631              		.loc 1 218 0
 632 0502 89858000 		movl	%eax, 128(%rbp)
 632      0000
 219:fltk-1.3.4-1/jpeg/jidctint.c ****       wsptr[DCTSIZE*6] = dcval;
 633              		.loc 1 219 0
 634 0508 8985A000 		movl	%eax, 160(%rbp)
 634      0000
 220:fltk-1.3.4-1/jpeg/jidctint.c ****       wsptr[DCTSIZE*7] = dcval;
 635              		.loc 1 220 0
 636 050e 8985C000 		movl	%eax, 192(%rbp)
 636      0000
 221:fltk-1.3.4-1/jpeg/jidctint.c **** 
 637              		.loc 1 221 0
 638 0514 8985E000 		movl	%eax, 224(%rbp)
 638      0000
 639              	.LVL100:
 226:fltk-1.3.4-1/jpeg/jidctint.c ****     }
 640              		.loc 1 226 0
 641 051a E9DDFCFF 		jmp	.L9
 641      FF
 642              	.LVL101:
 643 051f 90       		.p2align 4,,10
 644              		.p2align 3
 645              	.L15:
 646              	.LBE2:
 319:fltk-1.3.4-1/jpeg/jidctint.c ****       /* AC terms all zero */
 647              		.loc 1 319 0 discriminator 4
 648 0520 48635DF4 		movslq	-12(%rbp), %rbx
 649 0524 486345F8 		movslq	-8(%rbp), %rax
 650 0528 4C6365FC 		movslq	-4(%rbp), %r12
 318:fltk-1.3.4-1/jpeg/jidctint.c **** 	wsptr[5] == 0 && wsptr[6] == 0 && wsptr[7] == 0) {
 651              		.loc 1 318 0 discriminator 4
 652 052c 85DB     		testl	%ebx, %ebx
 653 052e 7540     		jne	.L34
 319:fltk-1.3.4-1/jpeg/jidctint.c ****       /* AC terms all zero */
 654              		.loc 1 319 0
 655 0530 85C0     		testl	%eax, %eax
 656 0532 7574     		jne	.L35
 319:fltk-1.3.4-1/jpeg/jidctint.c ****       /* AC terms all zero */
 657              		.loc 1 319 0 is_stmt 0 discriminator 1
 658 0534 4585E4   		testl	%r12d, %r12d
 659 0537 0F858A00 		jne	.L22
 659      0000
 660              	.LBB3:
 321:fltk-1.3.4-1/jpeg/jidctint.c **** 				  & RANGE_MASK];
 661              		.loc 1 321 0 is_stmt 1
 662 053d 486345E0 		movslq	-32(%rbp), %rax
 663 0541 4883C010 		addq	$16, %rax
 664 0545 48C1F805 		sarq	$5, %rax
 665 0549 25FF0300 		andl	$1023, %eax
 665      00
 666 054e 410FB604 		movzbl	(%r15,%rax), %eax
 666      07
 667              	.LVL102:
 324:fltk-1.3.4-1/jpeg/jidctint.c ****       outptr[1] = dcval;
 668              		.loc 1 324 0
 669 0553 8807     		movb	%al, (%rdi)
 325:fltk-1.3.4-1/jpeg/jidctint.c ****       outptr[2] = dcval;
 670              		.loc 1 325 0
 671 0555 884701   		movb	%al, 1(%rdi)
 326:fltk-1.3.4-1/jpeg/jidctint.c ****       outptr[3] = dcval;
 672              		.loc 1 326 0
 673 0558 884702   		movb	%al, 2(%rdi)
 327:fltk-1.3.4-1/jpeg/jidctint.c ****       outptr[4] = dcval;
 674              		.loc 1 327 0
 675 055b 884703   		movb	%al, 3(%rdi)
 328:fltk-1.3.4-1/jpeg/jidctint.c ****       outptr[5] = dcval;
 676              		.loc 1 328 0
 677 055e 884704   		movb	%al, 4(%rdi)
 329:fltk-1.3.4-1/jpeg/jidctint.c ****       outptr[6] = dcval;
 678              		.loc 1 329 0
 679 0561 884705   		movb	%al, 5(%rdi)
 330:fltk-1.3.4-1/jpeg/jidctint.c ****       outptr[7] = dcval;
 680              		.loc 1 330 0
 681 0564 884706   		movb	%al, 6(%rdi)
 331:fltk-1.3.4-1/jpeg/jidctint.c **** 
 682              		.loc 1 331 0
 683 0567 884707   		movb	%al, 7(%rdi)
 684              	.LVL103:
 334:fltk-1.3.4-1/jpeg/jidctint.c ****     }
 685              		.loc 1 334 0
 686 056a E987FEFF 		jmp	.L18
 686      FF
 687              	.LVL104:
 688 056f 90       		.p2align 4,,10
 689              		.p2align 3
 690              	.L34:
 691              	.LBE3:
 318:fltk-1.3.4-1/jpeg/jidctint.c **** 	wsptr[5] == 0 && wsptr[6] == 0 && wsptr[7] == 0) {
 692              		.loc 1 318 0
 693 0570 4C63DA   		movslq	%edx, %r11
 694 0573 4C63CA   		movslq	%edx, %r9
 695 0576 E915FDFF 		jmp	.L13
 695      FF
 696              	.LVL105:
 697 057b 0F1F4400 		.p2align 4,,10
 697      00
 698              		.p2align 3
 699              	.L32:
 208:fltk-1.3.4-1/jpeg/jidctint.c **** 	inptr[DCTSIZE*5] == 0 && inptr[DCTSIZE*6] == 0 &&
 700              		.loc 1 208 0
 701 0580 0FBFFB   		movswl	%bx, %edi
 702 0583 0FBFF3   		movswl	%bx, %esi
 703 0586 E905FBFF 		jmp	.L4
 703      FF
 704 058b 0F1F4400 		.p2align 4,,10
 704      00
 705              		.p2align 3
 706              	.L33:
 209:fltk-1.3.4-1/jpeg/jidctint.c **** 	inptr[DCTSIZE*7] == 0) {
 707              		.loc 1 209 0
 708 0590 410FBFF8 		movswl	%r8w, %edi
 709 0594 410FBFD8 		movswl	%r8w, %ebx
 710 0598 410FBFF0 		movswl	%r8w, %esi
 711 059c E9EFFAFF 		jmp	.L4
 711      FF
 712              	.LVL106:
 713              		.p2align 4,,10
 714 05a1 0F1F8000 		.p2align 3
 714      000000
 715              	.L35:
 319:fltk-1.3.4-1/jpeg/jidctint.c ****       /* AC terms all zero */
 716              		.loc 1 319 0
 717 05a8 4C63DB   		movslq	%ebx, %r11
 718 05ab 89DA     		movl	%ebx, %edx
 719 05ad 4C63CB   		movslq	%ebx, %r9
 720 05b0 E9DBFCFF 		jmp	.L13
 720      FF
 721              	.LVL107:
 722              	.L21:
 723 05b5 0FBFF8   		movswl	%ax, %edi
 724 05b8 440FBFC0 		movswl	%ax, %r8d
 725 05bc 0FBFD8   		movswl	%ax, %ebx
 726 05bf 0FBFF0   		movswl	%ax, %esi
 727 05c2 E9C9FAFF 		jmp	.L4
 727      FF
 728              	.LVL108:
 729              	.L22:
 730 05c7 4C63D8   		movslq	%eax, %r11
 731 05ca 4863D8   		movslq	%eax, %rbx
 732 05cd 89C2     		movl	%eax, %edx
 733 05cf 4C63C8   		movslq	%eax, %r9
 734 05d2 E9B9FCFF 		jmp	.L13
 734      FF
 735              	.L31:
 736              		.loc 1 420 0
 737 05d7 E8000000 		call	__stack_chk_fail
 737      00
 738              	.LVL109:
 739              		.cfi_endproc
 740              	.LFE61:
 742              		.section	.text.unlikely.jpeg_idct_islow
 743              	.LCOLDE0:
 744              		.section	.text.jpeg_idct_islow
 745              	.LHOTE0:
 746              		.section	.text.unlikely.jpeg_idct_7x7,"ax",@progbits
 747              	.LCOLDB1:
 748              		.section	.text.jpeg_idct_7x7,"ax",@progbits
 749              	.LHOTB1:
 750              		.p2align 4,,15
 751              		.globl	jpeg_idct_7x7
 753              	jpeg_idct_7x7:
 754              	.LFB62:
 421:fltk-1.3.4-1/jpeg/jidctint.c **** 
 422:fltk-1.3.4-1/jpeg/jidctint.c **** #ifdef IDCT_SCALING_SUPPORTED
 423:fltk-1.3.4-1/jpeg/jidctint.c **** 
 424:fltk-1.3.4-1/jpeg/jidctint.c **** 
 425:fltk-1.3.4-1/jpeg/jidctint.c **** /*
 426:fltk-1.3.4-1/jpeg/jidctint.c ****  * Perform dequantization and inverse DCT on one block of coefficients,
 427:fltk-1.3.4-1/jpeg/jidctint.c ****  * producing a 7x7 output block.
 428:fltk-1.3.4-1/jpeg/jidctint.c ****  *
 429:fltk-1.3.4-1/jpeg/jidctint.c ****  * Optimized algorithm with 12 multiplications in the 1-D kernel.
 430:fltk-1.3.4-1/jpeg/jidctint.c ****  * cK represents sqrt(2) * cos(K*pi/14).
 431:fltk-1.3.4-1/jpeg/jidctint.c ****  */
 432:fltk-1.3.4-1/jpeg/jidctint.c **** 
 433:fltk-1.3.4-1/jpeg/jidctint.c **** GLOBAL(void)
 434:fltk-1.3.4-1/jpeg/jidctint.c **** jpeg_idct_7x7 (j_decompress_ptr cinfo, jpeg_component_info * compptr,
 435:fltk-1.3.4-1/jpeg/jidctint.c **** 	       JCOEFPTR coef_block,
 436:fltk-1.3.4-1/jpeg/jidctint.c **** 	       JSAMPARRAY output_buf, JDIMENSION output_col)
 437:fltk-1.3.4-1/jpeg/jidctint.c **** {
 755              		.loc 1 437 0
 756              		.cfi_startproc
 757              	.LVL110:
 758 0000 4157     		pushq	%r15
 759              		.cfi_def_cfa_offset 16
 760              		.cfi_offset 15, -16
 761 0002 4156     		pushq	%r14
 762              		.cfi_def_cfa_offset 24
 763              		.cfi_offset 14, -24
 764 0004 4155     		pushq	%r13
 765              		.cfi_def_cfa_offset 32
 766              		.cfi_offset 13, -32
 767 0006 4154     		pushq	%r12
 768              		.cfi_def_cfa_offset 40
 769              		.cfi_offset 12, -40
 770 0008 55       		pushq	%rbp
 771              		.cfi_def_cfa_offset 48
 772              		.cfi_offset 6, -48
 773 0009 53       		pushq	%rbx
 774              		.cfi_def_cfa_offset 56
 775              		.cfi_offset 3, -56
 776 000a 4881ECF8 		subq	$248, %rsp
 776      000000
 777              		.cfi_def_cfa_offset 304
 438:fltk-1.3.4-1/jpeg/jidctint.c ****   INT32 tmp0, tmp1, tmp2, tmp10, tmp11, tmp12, tmp13;
 439:fltk-1.3.4-1/jpeg/jidctint.c ****   INT32 z1, z2, z3;
 440:fltk-1.3.4-1/jpeg/jidctint.c ****   JCOEFPTR inptr;
 441:fltk-1.3.4-1/jpeg/jidctint.c ****   ISLOW_MULT_TYPE * quantptr;
 442:fltk-1.3.4-1/jpeg/jidctint.c ****   int * wsptr;
 443:fltk-1.3.4-1/jpeg/jidctint.c ****   JSAMPROW outptr;
 444:fltk-1.3.4-1/jpeg/jidctint.c ****   JSAMPLE *range_limit = IDCT_range_limit(cinfo);
 445:fltk-1.3.4-1/jpeg/jidctint.c ****   int ctr;
 446:fltk-1.3.4-1/jpeg/jidctint.c ****   int workspace[7*7];	/* buffers data between passes */
 447:fltk-1.3.4-1/jpeg/jidctint.c ****   SHIFT_TEMPS
 448:fltk-1.3.4-1/jpeg/jidctint.c **** 
 449:fltk-1.3.4-1/jpeg/jidctint.c ****   /* Pass 1: process columns from input, store into work array. */
 450:fltk-1.3.4-1/jpeg/jidctint.c **** 
 451:fltk-1.3.4-1/jpeg/jidctint.c ****   inptr = coef_block;
 452:fltk-1.3.4-1/jpeg/jidctint.c ****   quantptr = (ISLOW_MULT_TYPE *) compptr->dct_table;
 778              		.loc 1 452 0
 779 0011 4C8B6E58 		movq	88(%rsi), %r13
 437:fltk-1.3.4-1/jpeg/jidctint.c ****   INT32 tmp0, tmp1, tmp2, tmp10, tmp11, tmp12, tmp13;
 780              		.loc 1 437 0
 781 0015 64488B04 		movq	%fs:40, %rax
 781      25280000 
 781      00
 782 001e 48898424 		movq	%rax, 232(%rsp)
 782      E8000000 
 783 0026 31C0     		xorl	%eax, %eax
 444:fltk-1.3.4-1/jpeg/jidctint.c ****   int ctr;
 784              		.loc 1 444 0
 785 0028 488B87B8 		movq	440(%rdi), %rax
 785      010000
 453:fltk-1.3.4-1/jpeg/jidctint.c ****   wsptr = workspace;
 786              		.loc 1 453 0
 787 002f 4C8D6424 		leaq	32(%rsp), %r12
 787      20
 437:fltk-1.3.4-1/jpeg/jidctint.c ****   INT32 tmp0, tmp1, tmp2, tmp10, tmp11, tmp12, tmp13;
 788              		.loc 1 437 0
 789 0034 48894C24 		movq	%rcx, 16(%rsp)
 789      10
 790 0039 44894424 		movl	%r8d, 8(%rsp)
 790      08
 444:fltk-1.3.4-1/jpeg/jidctint.c ****   int ctr;
 791              		.loc 1 444 0
 792 003e 4C8DB880 		leaq	128(%rax), %r15
 792      000000
 793              	.LVL111:
 454:fltk-1.3.4-1/jpeg/jidctint.c ****   for (ctr = 0; ctr < 7; ctr++, inptr++, quantptr++, wsptr++) {
 794              		.loc 1 454 0
 795 0045 488D4424 		leaq	60(%rsp), %rax
 795      3C
 796 004a 4C897C24 		movq	%r15, 24(%rsp)
 796      18
 797 004f 48890424 		movq	%rax, (%rsp)
 798              	.LVL112:
 799              		.p2align 4,,10
 800 0053 0F1F4400 		.p2align 3
 800      00
 801              	.L37:
 455:fltk-1.3.4-1/jpeg/jidctint.c ****     /* Even part */
 456:fltk-1.3.4-1/jpeg/jidctint.c **** 
 457:fltk-1.3.4-1/jpeg/jidctint.c ****     tmp13 = DEQUANTIZE(inptr[DCTSIZE*0], quantptr[DCTSIZE*0]);
 458:fltk-1.3.4-1/jpeg/jidctint.c ****     tmp13 <<= CONST_BITS;
 459:fltk-1.3.4-1/jpeg/jidctint.c ****     /* Add fudge factor here for final descale. */
 460:fltk-1.3.4-1/jpeg/jidctint.c ****     tmp13 += ONE << (CONST_BITS-PASS1_BITS-1);
 461:fltk-1.3.4-1/jpeg/jidctint.c **** 
 462:fltk-1.3.4-1/jpeg/jidctint.c ****     z1 = DEQUANTIZE(inptr[DCTSIZE*2], quantptr[DCTSIZE*2]);
 802              		.loc 1 462 0 discriminator 3
 803 0058 0FBF7A20 		movswl	32(%rdx), %edi
 463:fltk-1.3.4-1/jpeg/jidctint.c ****     z2 = DEQUANTIZE(inptr[DCTSIZE*4], quantptr[DCTSIZE*4]);
 804              		.loc 1 463 0 discriminator 3
 805 005c 0FBF7240 		movswl	64(%rdx), %esi
 462:fltk-1.3.4-1/jpeg/jidctint.c ****     z2 = DEQUANTIZE(inptr[DCTSIZE*4], quantptr[DCTSIZE*4]);
 806              		.loc 1 462 0 discriminator 3
 807 0060 410FAF7D 		imull	64(%r13), %edi
 807      40
 808              		.loc 1 463 0 discriminator 3
 809 0065 410FAFB5 		imull	128(%r13), %esi
 809      80000000 
 464:fltk-1.3.4-1/jpeg/jidctint.c ****     z3 = DEQUANTIZE(inptr[DCTSIZE*6], quantptr[DCTSIZE*6]);
 810              		.loc 1 464 0 discriminator 3
 811 006d 0FBF4260 		movswl	96(%rdx), %eax
 457:fltk-1.3.4-1/jpeg/jidctint.c ****     tmp13 <<= CONST_BITS;
 812              		.loc 1 457 0 discriminator 3
 813 0071 0FBF0A   		movswl	(%rdx), %ecx
 814              		.loc 1 464 0 discriminator 3
 815 0074 410FAF85 		imull	192(%r13), %eax
 815      C0000000 
 457:fltk-1.3.4-1/jpeg/jidctint.c ****     tmp13 <<= CONST_BITS;
 816              		.loc 1 457 0 discriminator 3
 817 007c 410FAF4D 		imull	0(%r13), %ecx
 817      00
 462:fltk-1.3.4-1/jpeg/jidctint.c ****     z2 = DEQUANTIZE(inptr[DCTSIZE*4], quantptr[DCTSIZE*4]);
 818              		.loc 1 462 0 discriminator 3
 819 0081 4863FF   		movslq	%edi, %rdi
 463:fltk-1.3.4-1/jpeg/jidctint.c ****     z3 = DEQUANTIZE(inptr[DCTSIZE*6], quantptr[DCTSIZE*6]);
 820              		.loc 1 463 0 discriminator 3
 821 0084 4863F6   		movslq	%esi, %rsi
 465:fltk-1.3.4-1/jpeg/jidctint.c **** 
 466:fltk-1.3.4-1/jpeg/jidctint.c ****     tmp10 = MULTIPLY(z2 - z3, FIX(0.881747734));     /* c4 */
 467:fltk-1.3.4-1/jpeg/jidctint.c ****     tmp12 = MULTIPLY(z1 - z2, FIX(0.314692123));     /* c6 */
 822              		.loc 1 467 0 discriminator 3
 823 0087 4989F8   		movq	%rdi, %r8
 466:fltk-1.3.4-1/jpeg/jidctint.c ****     tmp12 = MULTIPLY(z1 - z2, FIX(0.314692123));     /* c6 */
 824              		.loc 1 466 0 discriminator 3
 825 008a 4989F1   		movq	%rsi, %r9
 826              		.loc 1 467 0 discriminator 3
 827 008d 4929F0   		subq	%rsi, %r8
 464:fltk-1.3.4-1/jpeg/jidctint.c **** 
 828              		.loc 1 464 0 discriminator 3
 829 0090 4898     		cltq
 466:fltk-1.3.4-1/jpeg/jidctint.c ****     tmp12 = MULTIPLY(z1 - z2, FIX(0.314692123));     /* c6 */
 830              		.loc 1 466 0 discriminator 3
 831 0092 4929C1   		subq	%rax, %r9
 468:fltk-1.3.4-1/jpeg/jidctint.c ****     tmp11 = tmp10 + tmp12 + tmp13 - MULTIPLY(z2, FIX(1.841218003)); /* c2+c4-c6 */
 469:fltk-1.3.4-1/jpeg/jidctint.c ****     tmp0 = z1 + z3;
 832              		.loc 1 469 0 discriminator 3
 833 0095 4C8D3C07 		leaq	(%rdi,%rax), %r15
 457:fltk-1.3.4-1/jpeg/jidctint.c ****     tmp13 <<= CONST_BITS;
 834              		.loc 1 457 0 discriminator 3
 835 0099 4863C9   		movslq	%ecx, %rcx
 836              	.LVL113:
 467:fltk-1.3.4-1/jpeg/jidctint.c ****     tmp11 = tmp10 + tmp12 + tmp13 - MULTIPLY(z2, FIX(1.841218003)); /* c2+c4-c6 */
 837              		.loc 1 467 0 discriminator 3
 838 009c 4D69D812 		imulq	$2578, %r8, %r11
 838      0A0000
 458:fltk-1.3.4-1/jpeg/jidctint.c ****     /* Add fudge factor here for final descale. */
 839              		.loc 1 458 0 discriminator 3
 840 00a3 48C1E10D 		salq	$13, %rcx
 841              	.LVL114:
 466:fltk-1.3.4-1/jpeg/jidctint.c ****     tmp12 = MULTIPLY(z1 - z2, FIX(0.314692123));     /* c6 */
 842              		.loc 1 466 0 discriminator 3
 843 00a7 4969E937 		imulq	$7223, %r9, %rbp
 843      1C0000
 460:fltk-1.3.4-1/jpeg/jidctint.c **** 
 844              		.loc 1 460 0 discriminator 3
 845 00ae 4881C100 		addq	$1024, %rcx
 845      040000
 846              	.LVL115:
 470:fltk-1.3.4-1/jpeg/jidctint.c ****     z2 -= tmp0;
 471:fltk-1.3.4-1/jpeg/jidctint.c ****     tmp0 = MULTIPLY(tmp0, FIX(1.274162392)) + tmp13; /* c2 */
 847              		.loc 1 471 0 discriminator 3
 848 00b5 4D69D7C6 		imulq	$10438, %r15, %r10
 848      280000
 468:fltk-1.3.4-1/jpeg/jidctint.c ****     tmp0 = z1 + z3;
 849              		.loc 1 468 0 discriminator 3
 850 00bc 4A8D5C1D 		leaq	0(%rbp,%r11), %rbx
 850      00
 472:fltk-1.3.4-1/jpeg/jidctint.c ****     tmp10 += tmp0 - MULTIPLY(z3, FIX(0.077722536));  /* c2-c4-c6 */
 851              		.loc 1 472 0 discriminator 3
 852 00c1 4869C083 		imulq	$-637, %rax, %rax
 852      FDFFFF
 853              	.LVL116:
 471:fltk-1.3.4-1/jpeg/jidctint.c ****     tmp10 += tmp0 - MULTIPLY(z3, FIX(0.077722536));  /* c2-c4-c6 */
 854              		.loc 1 471 0 discriminator 3
 855 00c8 4901CA   		addq	%rcx, %r10
 473:fltk-1.3.4-1/jpeg/jidctint.c ****     tmp12 += tmp0 - MULTIPLY(z1, FIX(2.470602249));  /* c2+c4+c6 */
 856              		.loc 1 473 0 discriminator 3
 857 00cb 4869FFF1 		imulq	$-20239, %rdi, %rdi
 857      B0FFFF
 858              	.LVL117:
 468:fltk-1.3.4-1/jpeg/jidctint.c ****     tmp0 = z1 + z3;
 859              		.loc 1 468 0 discriminator 3
 860 00d2 4C8D040B 		leaq	(%rbx,%rcx), %r8
 861 00d6 4869DE15 		imulq	$-15083, %rsi, %rbx
 861      C5FFFF
 472:fltk-1.3.4-1/jpeg/jidctint.c ****     tmp12 += tmp0 - MULTIPLY(z1, FIX(2.470602249));  /* c2+c4+c6 */
 862              		.loc 1 472 0 discriminator 3
 863 00dd 4C01D0   		addq	%r10, %rax
 864              		.loc 1 473 0 discriminator 3
 865 00e0 4C01D7   		addq	%r10, %rdi
 472:fltk-1.3.4-1/jpeg/jidctint.c ****     tmp12 += tmp0 - MULTIPLY(z1, FIX(2.470602249));  /* c2+c4+c6 */
 866              		.loc 1 472 0 discriminator 3
 867 00e3 4C8D0C28 		leaq	(%rax,%rbp), %r9
 474:fltk-1.3.4-1/jpeg/jidctint.c ****     tmp13 += MULTIPLY(z2, FIX(1.414213562));         /* c0 */
 475:fltk-1.3.4-1/jpeg/jidctint.c **** 
 476:fltk-1.3.4-1/jpeg/jidctint.c ****     /* Odd part */
 477:fltk-1.3.4-1/jpeg/jidctint.c **** 
 478:fltk-1.3.4-1/jpeg/jidctint.c ****     z1 = DEQUANTIZE(inptr[DCTSIZE*1], quantptr[DCTSIZE*1]);
 868              		.loc 1 478 0 discriminator 3
 869 00e7 0FBF4210 		movswl	16(%rdx), %eax
 468:fltk-1.3.4-1/jpeg/jidctint.c ****     tmp0 = z1 + z3;
 870              		.loc 1 468 0 discriminator 3
 871 00eb 4C01C3   		addq	%r8, %rbx
 872              	.LVL118:
 473:fltk-1.3.4-1/jpeg/jidctint.c ****     tmp13 += MULTIPLY(z2, FIX(1.414213562));         /* c0 */
 873              		.loc 1 473 0 discriminator 3
 874 00ee 4E8D041F 		leaq	(%rdi,%r11), %r8
 875              	.LVL119:
 479:fltk-1.3.4-1/jpeg/jidctint.c ****     z2 = DEQUANTIZE(inptr[DCTSIZE*3], quantptr[DCTSIZE*3]);
 876              		.loc 1 479 0 discriminator 3
 877 00f2 0FBF7A30 		movswl	48(%rdx), %edi
 478:fltk-1.3.4-1/jpeg/jidctint.c ****     z2 = DEQUANTIZE(inptr[DCTSIZE*3], quantptr[DCTSIZE*3]);
 878              		.loc 1 478 0 discriminator 3
 879 00f6 410FAF45 		imull	32(%r13), %eax
 879      20
 880              		.loc 1 479 0 discriminator 3
 881 00fb 410FAF7D 		imull	96(%r13), %edi
 881      60
 480:fltk-1.3.4-1/jpeg/jidctint.c ****     z3 = DEQUANTIZE(inptr[DCTSIZE*5], quantptr[DCTSIZE*5]);
 882              		.loc 1 480 0 discriminator 3
 883 0100 440FBF5A 		movswl	80(%rdx), %r11d
 883      50
 884 0105 450FAF9D 		imull	160(%r13), %r11d
 884      A0000000 
 478:fltk-1.3.4-1/jpeg/jidctint.c ****     z2 = DEQUANTIZE(inptr[DCTSIZE*3], quantptr[DCTSIZE*3]);
 885              		.loc 1 478 0 discriminator 3
 886 010d 4898     		cltq
 887              	.LVL120:
 479:fltk-1.3.4-1/jpeg/jidctint.c ****     z2 = DEQUANTIZE(inptr[DCTSIZE*3], quantptr[DCTSIZE*3]);
 888              		.loc 1 479 0 discriminator 3
 889 010f 4863FF   		movslq	%edi, %rdi
 890              	.LVL121:
 481:fltk-1.3.4-1/jpeg/jidctint.c **** 
 482:fltk-1.3.4-1/jpeg/jidctint.c ****     tmp1 = MULTIPLY(z1 + z2, FIX(0.935414347));      /* (c3+c1-c5)/2 */
 483:fltk-1.3.4-1/jpeg/jidctint.c ****     tmp2 = MULTIPLY(z1 - z2, FIX(0.170262339));      /* (c3+c5-c1)/2 */
 891              		.loc 1 483 0 discriminator 3
 892 0112 4989C2   		movq	%rax, %r10
 893              	.LVL122:
 482:fltk-1.3.4-1/jpeg/jidctint.c ****     tmp2 = MULTIPLY(z1 - z2, FIX(0.170262339));      /* (c3+c5-c1)/2 */
 894              		.loc 1 482 0 discriminator 3
 895 0115 4C8D3438 		leaq	(%rax,%rdi), %r14
 896              		.loc 1 483 0 discriminator 3
 897 0119 4929FA   		subq	%rdi, %r10
 480:fltk-1.3.4-1/jpeg/jidctint.c ****     z3 = DEQUANTIZE(inptr[DCTSIZE*5], quantptr[DCTSIZE*5]);
 898              		.loc 1 480 0 discriminator 3
 899 011c 4D63DB   		movslq	%r11d, %r11
 900              	.LVL123:
 482:fltk-1.3.4-1/jpeg/jidctint.c ****     tmp2 = MULTIPLY(z1 - z2, FIX(0.170262339));      /* (c3+c5-c1)/2 */
 901              		.loc 1 482 0 discriminator 3
 902 011f 4D69F6EF 		imulq	$7663, %r14, %r14
 902      1D0000
 903              	.LVL124:
 484:fltk-1.3.4-1/jpeg/jidctint.c ****     tmp0 = tmp1 - tmp2;
 485:fltk-1.3.4-1/jpeg/jidctint.c ****     tmp1 += tmp2;
 486:fltk-1.3.4-1/jpeg/jidctint.c ****     tmp2 = MULTIPLY(z2 + z3, - FIX(1.378756276));    /* -c1 */
 904              		.loc 1 486 0 discriminator 3
 905 0126 4C01DF   		addq	%r11, %rdi
 906              	.LVL125:
 487:fltk-1.3.4-1/jpeg/jidctint.c ****     tmp1 += tmp2;
 488:fltk-1.3.4-1/jpeg/jidctint.c ****     z2 = MULTIPLY(z1 + z3, FIX(0.613604268));        /* c5 */
 907              		.loc 1 488 0 discriminator 3
 908 0129 4C01D8   		addq	%r11, %rax
 909              	.LVL126:
 483:fltk-1.3.4-1/jpeg/jidctint.c ****     tmp0 = tmp1 - tmp2;
 910              		.loc 1 483 0 discriminator 3
 911 012c 4D69D273 		imulq	$1395, %r10, %r10
 911      050000
 912              	.LVL127:
 913              		.loc 1 488 0 discriminator 3
 914 0133 4869C0A3 		imulq	$5027, %rax, %rax
 914      130000
 484:fltk-1.3.4-1/jpeg/jidctint.c ****     tmp0 = tmp1 - tmp2;
 915              		.loc 1 484 0 discriminator 3
 916 013a 4C89F5   		movq	%r14, %rbp
 917 013d 4C29D5   		subq	%r10, %rbp
 918              	.LVL128:
 485:fltk-1.3.4-1/jpeg/jidctint.c ****     tmp2 = MULTIPLY(z2 + z3, - FIX(1.378756276));    /* -c1 */
 919              		.loc 1 485 0 discriminator 3
 920 0140 4D01F2   		addq	%r14, %r10
 921              	.LVL129:
 486:fltk-1.3.4-1/jpeg/jidctint.c ****     tmp1 += tmp2;
 922              		.loc 1 486 0 discriminator 3
 923 0143 4869FFE1 		imulq	$-11295, %rdi, %rdi
 923      D3FFFF
 924              	.LVL130:
 489:fltk-1.3.4-1/jpeg/jidctint.c ****     tmp0 += z2;
 925              		.loc 1 489 0 discriminator 3
 926 014a 4801C5   		addq	%rax, %rbp
 927              	.LVL131:
 487:fltk-1.3.4-1/jpeg/jidctint.c ****     z2 = MULTIPLY(z1 + z3, FIX(0.613604268));        /* c5 */
 928              		.loc 1 487 0 discriminator 3
 929 014d 4901FA   		addq	%rdi, %r10
 930              	.LVL132:
 490:fltk-1.3.4-1/jpeg/jidctint.c ****     tmp2 += z2 + MULTIPLY(z3, FIX(1.870828693));     /* c3+c1-c5 */
 931              		.loc 1 490 0 discriminator 3
 932 0150 4D69DBDE 		imulq	$15326, %r11, %r11
 932      3B0000
 933              	.LVL133:
 491:fltk-1.3.4-1/jpeg/jidctint.c **** 
 492:fltk-1.3.4-1/jpeg/jidctint.c ****     /* Final output stage */
 493:fltk-1.3.4-1/jpeg/jidctint.c **** 
 494:fltk-1.3.4-1/jpeg/jidctint.c ****     wsptr[7*0] = (int) RIGHT_SHIFT(tmp10 + tmp0, CONST_BITS-PASS1_BITS);
 495:fltk-1.3.4-1/jpeg/jidctint.c ****     wsptr[7*6] = (int) RIGHT_SHIFT(tmp10 - tmp0, CONST_BITS-PASS1_BITS);
 496:fltk-1.3.4-1/jpeg/jidctint.c ****     wsptr[7*1] = (int) RIGHT_SHIFT(tmp11 + tmp1, CONST_BITS-PASS1_BITS);
 497:fltk-1.3.4-1/jpeg/jidctint.c ****     wsptr[7*5] = (int) RIGHT_SHIFT(tmp11 - tmp1, CONST_BITS-PASS1_BITS);
 498:fltk-1.3.4-1/jpeg/jidctint.c ****     wsptr[7*2] = (int) RIGHT_SHIFT(tmp12 + tmp2, CONST_BITS-PASS1_BITS);
 499:fltk-1.3.4-1/jpeg/jidctint.c ****     wsptr[7*4] = (int) RIGHT_SHIFT(tmp12 - tmp2, CONST_BITS-PASS1_BITS);
 500:fltk-1.3.4-1/jpeg/jidctint.c ****     wsptr[7*3] = (int) RIGHT_SHIFT(tmp13, CONST_BITS-PASS1_BITS);
 934              		.loc 1 500 0 discriminator 3
 935 0157 4C29FE   		subq	%r15, %rsi
 936              	.LVL134:
 454:fltk-1.3.4-1/jpeg/jidctint.c ****     /* Even part */
 937              		.loc 1 454 0 discriminator 3
 938 015a 4883C202 		addq	$2, %rdx
 939              	.LVL135:
 940              		.loc 1 500 0 discriminator 3
 941 015e 4869F641 		imulq	$11585, %rsi, %rsi
 941      2D0000
 454:fltk-1.3.4-1/jpeg/jidctint.c ****     /* Even part */
 942              		.loc 1 454 0 discriminator 3
 943 0165 4983C504 		addq	$4, %r13
 944              	.LVL136:
 945 0169 4983C404 		addq	$4, %r12
 946              	.LVL137:
 490:fltk-1.3.4-1/jpeg/jidctint.c ****     tmp2 += z2 + MULTIPLY(z3, FIX(1.870828693));     /* c3+c1-c5 */
 947              		.loc 1 490 0 discriminator 3
 948 016d 4901C3   		addq	%rax, %r11
 494:fltk-1.3.4-1/jpeg/jidctint.c ****     wsptr[7*6] = (int) RIGHT_SHIFT(tmp10 - tmp0, CONST_BITS-PASS1_BITS);
 949              		.loc 1 494 0 discriminator 3
 950 0170 498D0429 		leaq	(%r9,%rbp), %rax
 951              	.LVL138:
 495:fltk-1.3.4-1/jpeg/jidctint.c ****     wsptr[7*1] = (int) RIGHT_SHIFT(tmp11 + tmp1, CONST_BITS-PASS1_BITS);
 952              		.loc 1 495 0 discriminator 3
 953 0174 4929E9   		subq	%rbp, %r9
 954              	.LVL139:
 490:fltk-1.3.4-1/jpeg/jidctint.c **** 
 955              		.loc 1 490 0 discriminator 3
 956 0177 4C01DF   		addq	%r11, %rdi
 957              	.LVL140:
 958              		.loc 1 500 0 discriminator 3
 959 017a 4801CE   		addq	%rcx, %rsi
 960              	.LVL141:
 495:fltk-1.3.4-1/jpeg/jidctint.c ****     wsptr[7*1] = (int) RIGHT_SHIFT(tmp11 + tmp1, CONST_BITS-PASS1_BITS);
 961              		.loc 1 495 0 discriminator 3
 962 017d 49C1F90B 		sarq	$11, %r9
 494:fltk-1.3.4-1/jpeg/jidctint.c ****     wsptr[7*6] = (int) RIGHT_SHIFT(tmp10 - tmp0, CONST_BITS-PASS1_BITS);
 963              		.loc 1 494 0 discriminator 3
 964 0181 48C1F80B 		sarq	$11, %rax
 965              		.loc 1 500 0 discriminator 3
 966 0185 48C1FE0B 		sarq	$11, %rsi
 967              	.LVL142:
 495:fltk-1.3.4-1/jpeg/jidctint.c ****     wsptr[7*1] = (int) RIGHT_SHIFT(tmp11 + tmp1, CONST_BITS-PASS1_BITS);
 968              		.loc 1 495 0 discriminator 3
 969 0189 45898C24 		movl	%r9d, 164(%r12)
 969      A4000000 
 494:fltk-1.3.4-1/jpeg/jidctint.c ****     wsptr[7*6] = (int) RIGHT_SHIFT(tmp10 - tmp0, CONST_BITS-PASS1_BITS);
 970              		.loc 1 494 0 discriminator 3
 971 0191 41894424 		movl	%eax, -4(%r12)
 971      FC
 496:fltk-1.3.4-1/jpeg/jidctint.c ****     wsptr[7*5] = (int) RIGHT_SHIFT(tmp11 - tmp1, CONST_BITS-PASS1_BITS);
 972              		.loc 1 496 0 discriminator 3
 973 0196 4A8D0413 		leaq	(%rbx,%r10), %rax
 497:fltk-1.3.4-1/jpeg/jidctint.c ****     wsptr[7*2] = (int) RIGHT_SHIFT(tmp12 + tmp2, CONST_BITS-PASS1_BITS);
 974              		.loc 1 497 0 discriminator 3
 975 019a 4C29D3   		subq	%r10, %rbx
 976              	.LVL143:
 977 019d 48C1FB0B 		sarq	$11, %rbx
 978              		.loc 1 500 0 discriminator 3
 979 01a1 41897424 		movl	%esi, 80(%r12)
 979      50
 980              	.LVL144:
 496:fltk-1.3.4-1/jpeg/jidctint.c ****     wsptr[7*5] = (int) RIGHT_SHIFT(tmp11 - tmp1, CONST_BITS-PASS1_BITS);
 981              		.loc 1 496 0 discriminator 3
 982 01a6 48C1F80B 		sarq	$11, %rax
 497:fltk-1.3.4-1/jpeg/jidctint.c ****     wsptr[7*2] = (int) RIGHT_SHIFT(tmp12 + tmp2, CONST_BITS-PASS1_BITS);
 983              		.loc 1 497 0 discriminator 3
 984 01aa 41899C24 		movl	%ebx, 136(%r12)
 984      88000000 
 496:fltk-1.3.4-1/jpeg/jidctint.c ****     wsptr[7*5] = (int) RIGHT_SHIFT(tmp11 - tmp1, CONST_BITS-PASS1_BITS);
 985              		.loc 1 496 0 discriminator 3
 986 01b2 41894424 		movl	%eax, 24(%r12)
 986      18
 498:fltk-1.3.4-1/jpeg/jidctint.c ****     wsptr[7*4] = (int) RIGHT_SHIFT(tmp12 - tmp2, CONST_BITS-PASS1_BITS);
 987              		.loc 1 498 0 discriminator 3
 988 01b7 498D0438 		leaq	(%r8,%rdi), %rax
 499:fltk-1.3.4-1/jpeg/jidctint.c ****     wsptr[7*3] = (int) RIGHT_SHIFT(tmp13, CONST_BITS-PASS1_BITS);
 989              		.loc 1 499 0 discriminator 3
 990 01bb 4929F8   		subq	%rdi, %r8
 991              	.LVL145:
 992 01be 49C1F80B 		sarq	$11, %r8
 498:fltk-1.3.4-1/jpeg/jidctint.c ****     wsptr[7*4] = (int) RIGHT_SHIFT(tmp12 - tmp2, CONST_BITS-PASS1_BITS);
 993              		.loc 1 498 0 discriminator 3
 994 01c2 48C1F80B 		sarq	$11, %rax
 499:fltk-1.3.4-1/jpeg/jidctint.c ****     wsptr[7*3] = (int) RIGHT_SHIFT(tmp13, CONST_BITS-PASS1_BITS);
 995              		.loc 1 499 0 discriminator 3
 996 01c6 45894424 		movl	%r8d, 108(%r12)
 996      6C
 498:fltk-1.3.4-1/jpeg/jidctint.c ****     wsptr[7*4] = (int) RIGHT_SHIFT(tmp12 - tmp2, CONST_BITS-PASS1_BITS);
 997              		.loc 1 498 0 discriminator 3
 998 01cb 41894424 		movl	%eax, 52(%r12)
 998      34
 999              	.LVL146:
 454:fltk-1.3.4-1/jpeg/jidctint.c ****     /* Even part */
 1000              		.loc 1 454 0 discriminator 3
 1001 01d0 4C3B2424 		cmpq	(%rsp), %r12
 1002 01d4 0F857EFE 		jne	.L37
 1002      FFFF
 1003 01da 8B442408 		movl	8(%rsp), %eax
 1004 01de 4C8B7C24 		movq	24(%rsp), %r15
 1004      18
 1005              	.LVL147:
 454:fltk-1.3.4-1/jpeg/jidctint.c ****     /* Even part */
 1006              		.loc 1 454 0 is_stmt 0
 1007 01e3 488D6C24 		leaq	32(%rsp), %rbp
 1007      20
 1008              	.LVL148:
 1009 01e8 48894424 		movq	%rax, 8(%rsp)
 1009      08
 1010              	.LVL149:
 1011 01ed 488B4424 		movq	16(%rsp), %rax
 1011      10
 1012 01f2 48890424 		movq	%rax, (%rsp)
 501:fltk-1.3.4-1/jpeg/jidctint.c ****   }
 502:fltk-1.3.4-1/jpeg/jidctint.c **** 
 503:fltk-1.3.4-1/jpeg/jidctint.c ****   /* Pass 2: process 7 rows from work array, store into output array. */
 504:fltk-1.3.4-1/jpeg/jidctint.c **** 
 505:fltk-1.3.4-1/jpeg/jidctint.c ****   wsptr = workspace;
 506:fltk-1.3.4-1/jpeg/jidctint.c ****   for (ctr = 0; ctr < 7; ctr++) {
 1013              		.loc 1 506 0 is_stmt 1
 1014 01f6 488D8424 		leaq	228(%rsp), %rax
 1014      E4000000 
 1015 01fe 48894424 		movq	%rax, 16(%rsp)
 1015      10
 1016              	.LVL150:
 1017              		.p2align 4,,10
 1018 0203 0F1F4400 		.p2align 3
 1018      00
 1019              	.L38:
 507:fltk-1.3.4-1/jpeg/jidctint.c ****     outptr = output_buf[ctr] + output_col;
 508:fltk-1.3.4-1/jpeg/jidctint.c **** 
 509:fltk-1.3.4-1/jpeg/jidctint.c ****     /* Even part */
 510:fltk-1.3.4-1/jpeg/jidctint.c **** 
 511:fltk-1.3.4-1/jpeg/jidctint.c ****     /* Add fudge factor here for final descale. */
 512:fltk-1.3.4-1/jpeg/jidctint.c ****     tmp13 = (INT32) wsptr[0] + (ONE << (PASS1_BITS+2));
 513:fltk-1.3.4-1/jpeg/jidctint.c ****     tmp13 <<= CONST_BITS;
 514:fltk-1.3.4-1/jpeg/jidctint.c **** 
 515:fltk-1.3.4-1/jpeg/jidctint.c ****     z1 = (INT32) wsptr[2];
 516:fltk-1.3.4-1/jpeg/jidctint.c ****     z2 = (INT32) wsptr[4];
 1020              		.loc 1 516 0 discriminator 3
 1021 0208 4C634D10 		movslq	16(%rbp), %r9
 515:fltk-1.3.4-1/jpeg/jidctint.c ****     z2 = (INT32) wsptr[4];
 1022              		.loc 1 515 0 discriminator 3
 1023 020c 4C635508 		movslq	8(%rbp), %r10
 517:fltk-1.3.4-1/jpeg/jidctint.c ****     z3 = (INT32) wsptr[6];
 1024              		.loc 1 517 0 discriminator 3
 1025 0210 48634D18 		movslq	24(%rbp), %rcx
 507:fltk-1.3.4-1/jpeg/jidctint.c ****     outptr = output_buf[ctr] + output_col;
 1026              		.loc 1 507 0 discriminator 3
 1027 0214 488B0424 		movq	(%rsp), %rax
 1028 0218 4C8B5C24 		movq	8(%rsp), %r11
 1028      08
 518:fltk-1.3.4-1/jpeg/jidctint.c **** 
 519:fltk-1.3.4-1/jpeg/jidctint.c ****     tmp10 = MULTIPLY(z2 - z3, FIX(0.881747734));     /* c4 */
 1029              		.loc 1 519 0 discriminator 3
 1030 021d 4C89CE   		movq	%r9, %rsi
 520:fltk-1.3.4-1/jpeg/jidctint.c ****     tmp12 = MULTIPLY(z1 - z2, FIX(0.314692123));     /* c6 */
 1031              		.loc 1 520 0 discriminator 3
 1032 0220 4C89D2   		movq	%r10, %rdx
 507:fltk-1.3.4-1/jpeg/jidctint.c **** 
 1033              		.loc 1 507 0 discriminator 3
 1034 0223 4C0318   		addq	(%rax), %r11
 1035              	.LVL151:
 519:fltk-1.3.4-1/jpeg/jidctint.c ****     tmp12 = MULTIPLY(z1 - z2, FIX(0.314692123));     /* c6 */
 1036              		.loc 1 519 0 discriminator 3
 1037 0226 4829CE   		subq	%rcx, %rsi
 1038              		.loc 1 520 0 discriminator 3
 1039 0229 4C29CA   		subq	%r9, %rdx
 512:fltk-1.3.4-1/jpeg/jidctint.c ****     tmp13 <<= CONST_BITS;
 1040              		.loc 1 512 0 discriminator 3
 1041 022c 48634500 		movslq	0(%rbp), %rax
 519:fltk-1.3.4-1/jpeg/jidctint.c ****     tmp12 = MULTIPLY(z1 - z2, FIX(0.314692123));     /* c6 */
 1042              		.loc 1 519 0 discriminator 3
 1043 0230 4C69E637 		imulq	$7223, %rsi, %r12
 1043      1C0000
 521:fltk-1.3.4-1/jpeg/jidctint.c ****     tmp11 = tmp10 + tmp12 + tmp13 - MULTIPLY(z2, FIX(1.841218003)); /* c2+c4-c6 */
 522:fltk-1.3.4-1/jpeg/jidctint.c ****     tmp0 = z1 + z3;
 1044              		.loc 1 522 0 discriminator 3
 1045 0237 4D8D340A 		leaq	(%r10,%rcx), %r14
 520:fltk-1.3.4-1/jpeg/jidctint.c ****     tmp11 = tmp10 + tmp12 + tmp13 - MULTIPLY(z2, FIX(1.841218003)); /* c2+c4-c6 */
 1046              		.loc 1 520 0 discriminator 3
 1047 023b 4869DA12 		imulq	$2578, %rdx, %rbx
 1047      0A0000
 523:fltk-1.3.4-1/jpeg/jidctint.c ****     z2 -= tmp0;
 524:fltk-1.3.4-1/jpeg/jidctint.c ****     tmp0 = MULTIPLY(tmp0, FIX(1.274162392)) + tmp13; /* c2 */
 1048              		.loc 1 524 0 discriminator 3
 1049 0242 4D69C6C6 		imulq	$10438, %r14, %r8
 1049      280000
 512:fltk-1.3.4-1/jpeg/jidctint.c ****     tmp13 <<= CONST_BITS;
 1050              		.loc 1 512 0 discriminator 3
 1051 0249 4883C010 		addq	$16, %rax
 1052              	.LVL152:
 513:fltk-1.3.4-1/jpeg/jidctint.c **** 
 1053              		.loc 1 513 0 discriminator 3
 1054 024d 48C1E00D 		salq	$13, %rax
 1055              	.LVL153:
 521:fltk-1.3.4-1/jpeg/jidctint.c ****     tmp0 = z1 + z3;
 1056              		.loc 1 521 0 discriminator 3
 1057 0251 498D3C1C 		leaq	(%r12,%rbx), %rdi
 525:fltk-1.3.4-1/jpeg/jidctint.c ****     tmp10 += tmp0 - MULTIPLY(z3, FIX(0.077722536));  /* c2-c4-c6 */
 526:fltk-1.3.4-1/jpeg/jidctint.c ****     tmp12 += tmp0 - MULTIPLY(z1, FIX(2.470602249));  /* c2+c4+c6 */
 1058              		.loc 1 526 0 discriminator 3
 1059 0255 4D69D2F1 		imulq	$-20239, %r10, %r10
 1059      B0FFFF
 1060              	.LVL154:
 524:fltk-1.3.4-1/jpeg/jidctint.c ****     tmp10 += tmp0 - MULTIPLY(z3, FIX(0.077722536));  /* c2-c4-c6 */
 1061              		.loc 1 524 0 discriminator 3
 1062 025c 4901C0   		addq	%rax, %r8
 521:fltk-1.3.4-1/jpeg/jidctint.c ****     tmp0 = z1 + z3;
 1063              		.loc 1 521 0 discriminator 3
 1064 025f 488D1407 		leaq	(%rdi,%rax), %rdx
 1065 0263 4969F915 		imulq	$-15083, %r9, %rdi
 1065      C5FFFF
 1066              		.loc 1 526 0 discriminator 3
 1067 026a 4D01C2   		addq	%r8, %r10
 521:fltk-1.3.4-1/jpeg/jidctint.c ****     tmp0 = z1 + z3;
 1068              		.loc 1 521 0 discriminator 3
 1069 026d 4801D7   		addq	%rdx, %rdi
 1070              	.LVL155:
 1071              		.loc 1 526 0 discriminator 3
 1072 0270 498D141A 		leaq	(%r10,%rbx), %rdx
 527:fltk-1.3.4-1/jpeg/jidctint.c ****     tmp13 += MULTIPLY(z2, FIX(1.414213562));         /* c0 */
 528:fltk-1.3.4-1/jpeg/jidctint.c **** 
 529:fltk-1.3.4-1/jpeg/jidctint.c ****     /* Odd part */
 530:fltk-1.3.4-1/jpeg/jidctint.c **** 
 531:fltk-1.3.4-1/jpeg/jidctint.c ****     z1 = (INT32) wsptr[1];
 532:fltk-1.3.4-1/jpeg/jidctint.c ****     z2 = (INT32) wsptr[3];
 1073              		.loc 1 532 0 discriminator 3
 1074 0274 4C63550C 		movslq	12(%rbp), %r10
 525:fltk-1.3.4-1/jpeg/jidctint.c ****     tmp12 += tmp0 - MULTIPLY(z1, FIX(2.470602249));  /* c2+c4+c6 */
 1075              		.loc 1 525 0 discriminator 3
 1076 0278 4869F183 		imulq	$-637, %rcx, %rsi
 1076      FDFFFF
 531:fltk-1.3.4-1/jpeg/jidctint.c ****     z2 = (INT32) wsptr[3];
 1077              		.loc 1 531 0 discriminator 3
 1078 027f 48634D04 		movslq	4(%rbp), %rcx
 1079              	.LVL156:
 533:fltk-1.3.4-1/jpeg/jidctint.c ****     z3 = (INT32) wsptr[5];
 1080              		.loc 1 533 0 discriminator 3
 1081 0283 48635D14 		movslq	20(%rbp), %rbx
 1082              	.LVL157:
 534:fltk-1.3.4-1/jpeg/jidctint.c **** 
 535:fltk-1.3.4-1/jpeg/jidctint.c ****     tmp1 = MULTIPLY(z1 + z2, FIX(0.935414347));      /* (c3+c1-c5)/2 */
 1083              		.loc 1 535 0 discriminator 3
 1084 0287 4E8D2C11 		leaq	(%rcx,%r10), %r13
 525:fltk-1.3.4-1/jpeg/jidctint.c ****     tmp12 += tmp0 - MULTIPLY(z1, FIX(2.470602249));  /* c2+c4+c6 */
 1085              		.loc 1 525 0 discriminator 3
 1086 028b 4C01C6   		addq	%r8, %rsi
 536:fltk-1.3.4-1/jpeg/jidctint.c ****     tmp2 = MULTIPLY(z1 - z2, FIX(0.170262339));      /* (c3+c5-c1)/2 */
 1087              		.loc 1 536 0 discriminator 3
 1088 028e 4989C8   		movq	%rcx, %r8
 1089              	.LVL158:
 1090 0291 4D29D0   		subq	%r10, %r8
 537:fltk-1.3.4-1/jpeg/jidctint.c ****     tmp0 = tmp1 - tmp2;
 538:fltk-1.3.4-1/jpeg/jidctint.c ****     tmp1 += tmp2;
 539:fltk-1.3.4-1/jpeg/jidctint.c ****     tmp2 = MULTIPLY(z2 + z3, - FIX(1.378756276));    /* -c1 */
 540:fltk-1.3.4-1/jpeg/jidctint.c ****     tmp1 += tmp2;
 541:fltk-1.3.4-1/jpeg/jidctint.c ****     z2 = MULTIPLY(z1 + z3, FIX(0.613604268));        /* c5 */
 1091              		.loc 1 541 0 discriminator 3
 1092 0294 4801D9   		addq	%rbx, %rcx
 539:fltk-1.3.4-1/jpeg/jidctint.c ****     tmp1 += tmp2;
 1093              		.loc 1 539 0 discriminator 3
 1094 0297 4901DA   		addq	%rbx, %r10
 535:fltk-1.3.4-1/jpeg/jidctint.c ****     tmp2 = MULTIPLY(z1 - z2, FIX(0.170262339));      /* (c3+c5-c1)/2 */
 1095              		.loc 1 535 0 discriminator 3
 1096 029a 4D69EDEF 		imulq	$7663, %r13, %r13
 1096      1D0000
 525:fltk-1.3.4-1/jpeg/jidctint.c ****     tmp12 += tmp0 - MULTIPLY(z1, FIX(2.470602249));  /* c2+c4+c6 */
 1097              		.loc 1 525 0 discriminator 3
 1098 02a1 4C01E6   		addq	%r12, %rsi
 1099              	.LVL159:
 536:fltk-1.3.4-1/jpeg/jidctint.c ****     tmp0 = tmp1 - tmp2;
 1100              		.loc 1 536 0 discriminator 3
 1101 02a4 4D69C073 		imulq	$1395, %r8, %r8
 1101      050000
 1102              	.LVL160:
 1103              		.loc 1 541 0 discriminator 3
 1104 02ab 4869C9A3 		imulq	$5027, %rcx, %rcx
 1104      130000
 537:fltk-1.3.4-1/jpeg/jidctint.c ****     tmp1 += tmp2;
 1105              		.loc 1 537 0 discriminator 3
 1106 02b2 4D89EC   		movq	%r13, %r12
 1107 02b5 4D29C4   		subq	%r8, %r12
 1108              	.LVL161:
 538:fltk-1.3.4-1/jpeg/jidctint.c ****     tmp2 = MULTIPLY(z2 + z3, - FIX(1.378756276));    /* -c1 */
 1109              		.loc 1 538 0 discriminator 3
 1110 02b8 4D01E8   		addq	%r13, %r8
 1111              	.LVL162:
 542:fltk-1.3.4-1/jpeg/jidctint.c ****     tmp0 += z2;
 543:fltk-1.3.4-1/jpeg/jidctint.c ****     tmp2 += z2 + MULTIPLY(z3, FIX(1.870828693));     /* c3+c1-c5 */
 1112              		.loc 1 543 0 discriminator 3
 1113 02bb 4869DBDE 		imulq	$15326, %rbx, %rbx
 1113      3B0000
 1114              	.LVL163:
 542:fltk-1.3.4-1/jpeg/jidctint.c ****     tmp0 += z2;
 1115              		.loc 1 542 0 discriminator 3
 1116 02c2 4901CC   		addq	%rcx, %r12
 1117              	.LVL164:
 539:fltk-1.3.4-1/jpeg/jidctint.c ****     tmp1 += tmp2;
 1118              		.loc 1 539 0 discriminator 3
 1119 02c5 4D69D2E1 		imulq	$-11295, %r10, %r10
 1119      D3FFFF
 1120              	.LVL165:
 1121              		.loc 1 543 0 discriminator 3
 1122 02cc 4801CB   		addq	%rcx, %rbx
 544:fltk-1.3.4-1/jpeg/jidctint.c **** 
 545:fltk-1.3.4-1/jpeg/jidctint.c ****     /* Final output stage */
 546:fltk-1.3.4-1/jpeg/jidctint.c **** 
 547:fltk-1.3.4-1/jpeg/jidctint.c ****     outptr[0] = range_limit[(int) RIGHT_SHIFT(tmp10 + tmp0,
 1123              		.loc 1 547 0 discriminator 3
 1124 02cf 4A8D0C26 		leaq	(%rsi,%r12), %rcx
 540:fltk-1.3.4-1/jpeg/jidctint.c ****     z2 = MULTIPLY(z1 + z3, FIX(0.613604268));        /* c5 */
 1125              		.loc 1 540 0 discriminator 3
 1126 02d3 4D01D0   		addq	%r10, %r8
 1127              	.LVL166:
 543:fltk-1.3.4-1/jpeg/jidctint.c **** 
 1128              		.loc 1 543 0 discriminator 3
 1129 02d6 4901DA   		addq	%rbx, %r10
 1130              	.LVL167:
 1131              		.loc 1 547 0 discriminator 3
 1132 02d9 48C1F912 		sarq	$18, %rcx
 1133 02dd 81E1FF03 		andl	$1023, %ecx
 1133      0000
 548:fltk-1.3.4-1/jpeg/jidctint.c **** 					      CONST_BITS+PASS1_BITS+3)
 549:fltk-1.3.4-1/jpeg/jidctint.c **** 			    & RANGE_MASK];
 550:fltk-1.3.4-1/jpeg/jidctint.c ****     outptr[6] = range_limit[(int) RIGHT_SHIFT(tmp10 - tmp0,
 1134              		.loc 1 550 0 discriminator 3
 1135 02e3 4C29E6   		subq	%r12, %rsi
 1136              	.LVL168:
 551:fltk-1.3.4-1/jpeg/jidctint.c **** 					      CONST_BITS+PASS1_BITS+3)
 552:fltk-1.3.4-1/jpeg/jidctint.c **** 			    & RANGE_MASK];
 553:fltk-1.3.4-1/jpeg/jidctint.c ****     outptr[1] = range_limit[(int) RIGHT_SHIFT(tmp11 + tmp1,
 554:fltk-1.3.4-1/jpeg/jidctint.c **** 					      CONST_BITS+PASS1_BITS+3)
 555:fltk-1.3.4-1/jpeg/jidctint.c **** 			    & RANGE_MASK];
 556:fltk-1.3.4-1/jpeg/jidctint.c ****     outptr[5] = range_limit[(int) RIGHT_SHIFT(tmp11 - tmp1,
 557:fltk-1.3.4-1/jpeg/jidctint.c **** 					      CONST_BITS+PASS1_BITS+3)
 558:fltk-1.3.4-1/jpeg/jidctint.c **** 			    & RANGE_MASK];
 559:fltk-1.3.4-1/jpeg/jidctint.c ****     outptr[2] = range_limit[(int) RIGHT_SHIFT(tmp12 + tmp2,
 560:fltk-1.3.4-1/jpeg/jidctint.c **** 					      CONST_BITS+PASS1_BITS+3)
 561:fltk-1.3.4-1/jpeg/jidctint.c **** 			    & RANGE_MASK];
 562:fltk-1.3.4-1/jpeg/jidctint.c ****     outptr[4] = range_limit[(int) RIGHT_SHIFT(tmp12 - tmp2,
 563:fltk-1.3.4-1/jpeg/jidctint.c **** 					      CONST_BITS+PASS1_BITS+3)
 564:fltk-1.3.4-1/jpeg/jidctint.c **** 			    & RANGE_MASK];
 565:fltk-1.3.4-1/jpeg/jidctint.c ****     outptr[3] = range_limit[(int) RIGHT_SHIFT(tmp13,
 1137              		.loc 1 565 0 discriminator 3
 1138 02e6 4D29F1   		subq	%r14, %r9
 1139              	.LVL169:
 547:fltk-1.3.4-1/jpeg/jidctint.c **** 					      CONST_BITS+PASS1_BITS+3)
 1140              		.loc 1 547 0 discriminator 3
 1141 02e9 410FB60C 		movzbl	(%r15,%rcx), %ecx
 1141      0F
 550:fltk-1.3.4-1/jpeg/jidctint.c **** 					      CONST_BITS+PASS1_BITS+3)
 1142              		.loc 1 550 0 discriminator 3
 1143 02ee 48C1FE12 		sarq	$18, %rsi
 566:fltk-1.3.4-1/jpeg/jidctint.c **** 					      CONST_BITS+PASS1_BITS+3)
 567:fltk-1.3.4-1/jpeg/jidctint.c **** 			    & RANGE_MASK];
 568:fltk-1.3.4-1/jpeg/jidctint.c **** 
 569:fltk-1.3.4-1/jpeg/jidctint.c ****     wsptr += 7;		/* advance pointer to next row */
 1144              		.loc 1 569 0 discriminator 3
 1145 02f2 4883C51C 		addq	$28, %rbp
 1146              	.LVL170:
 550:fltk-1.3.4-1/jpeg/jidctint.c **** 					      CONST_BITS+PASS1_BITS+3)
 1147              		.loc 1 550 0 discriminator 3
 1148 02f6 81E6FF03 		andl	$1023, %esi
 1148      0000
 1149 02fc 48830424 		addq	$8, (%rsp)
 1149      08
 565:fltk-1.3.4-1/jpeg/jidctint.c **** 					      CONST_BITS+PASS1_BITS+3)
 1150              		.loc 1 565 0 discriminator 3
 1151 0301 4D69C941 		imulq	$11585, %r9, %r9
 1151      2D0000
 547:fltk-1.3.4-1/jpeg/jidctint.c **** 					      CONST_BITS+PASS1_BITS+3)
 1152              		.loc 1 547 0 discriminator 3
 1153 0308 41880B   		movb	%cl, (%r11)
 550:fltk-1.3.4-1/jpeg/jidctint.c **** 					      CONST_BITS+PASS1_BITS+3)
 1154              		.loc 1 550 0 discriminator 3
 1155 030b 410FB60C 		movzbl	(%r15,%rsi), %ecx
 1155      37
 565:fltk-1.3.4-1/jpeg/jidctint.c **** 					      CONST_BITS+PASS1_BITS+3)
 1156              		.loc 1 565 0 discriminator 3
 1157 0310 4C01C8   		addq	%r9, %rax
 1158              	.LVL171:
 1159 0313 48C1F812 		sarq	$18, %rax
 1160              	.LVL172:
 1161 0317 25FF0300 		andl	$1023, %eax
 1161      00
 550:fltk-1.3.4-1/jpeg/jidctint.c **** 					      CONST_BITS+PASS1_BITS+3)
 1162              		.loc 1 550 0 discriminator 3
 1163 031c 41884B06 		movb	%cl, 6(%r11)
 553:fltk-1.3.4-1/jpeg/jidctint.c **** 					      CONST_BITS+PASS1_BITS+3)
 1164              		.loc 1 553 0 discriminator 3
 1165 0320 4A8D0C07 		leaq	(%rdi,%r8), %rcx
 556:fltk-1.3.4-1/jpeg/jidctint.c **** 					      CONST_BITS+PASS1_BITS+3)
 1166              		.loc 1 556 0 discriminator 3
 1167 0324 4C29C7   		subq	%r8, %rdi
 1168              	.LVL173:
 1169 0327 48C1FF12 		sarq	$18, %rdi
 553:fltk-1.3.4-1/jpeg/jidctint.c **** 					      CONST_BITS+PASS1_BITS+3)
 1170              		.loc 1 553 0 discriminator 3
 1171 032b 48C1F912 		sarq	$18, %rcx
 556:fltk-1.3.4-1/jpeg/jidctint.c **** 					      CONST_BITS+PASS1_BITS+3)
 1172              		.loc 1 556 0 discriminator 3
 1173 032f 81E7FF03 		andl	$1023, %edi
 1173      0000
 553:fltk-1.3.4-1/jpeg/jidctint.c **** 					      CONST_BITS+PASS1_BITS+3)
 1174              		.loc 1 553 0 discriminator 3
 1175 0335 81E1FF03 		andl	$1023, %ecx
 1175      0000
 1176 033b 410FB60C 		movzbl	(%r15,%rcx), %ecx
 1176      0F
 1177 0340 41884B01 		movb	%cl, 1(%r11)
 556:fltk-1.3.4-1/jpeg/jidctint.c **** 					      CONST_BITS+PASS1_BITS+3)
 1178              		.loc 1 556 0 discriminator 3
 1179 0344 410FB60C 		movzbl	(%r15,%rdi), %ecx
 1179      3F
 1180 0349 41884B05 		movb	%cl, 5(%r11)
 559:fltk-1.3.4-1/jpeg/jidctint.c **** 					      CONST_BITS+PASS1_BITS+3)
 1181              		.loc 1 559 0 discriminator 3
 1182 034d 4A8D0C12 		leaq	(%rdx,%r10), %rcx
 562:fltk-1.3.4-1/jpeg/jidctint.c **** 					      CONST_BITS+PASS1_BITS+3)
 1183              		.loc 1 562 0 discriminator 3
 1184 0351 4C29D2   		subq	%r10, %rdx
 1185              	.LVL174:
 1186 0354 48C1FA12 		sarq	$18, %rdx
 559:fltk-1.3.4-1/jpeg/jidctint.c **** 					      CONST_BITS+PASS1_BITS+3)
 1187              		.loc 1 559 0 discriminator 3
 1188 0358 48C1F912 		sarq	$18, %rcx
 562:fltk-1.3.4-1/jpeg/jidctint.c **** 					      CONST_BITS+PASS1_BITS+3)
 1189              		.loc 1 562 0 discriminator 3
 1190 035c 81E2FF03 		andl	$1023, %edx
 1190      0000
 559:fltk-1.3.4-1/jpeg/jidctint.c **** 					      CONST_BITS+PASS1_BITS+3)
 1191              		.loc 1 559 0 discriminator 3
 1192 0362 81E1FF03 		andl	$1023, %ecx
 1192      0000
 506:fltk-1.3.4-1/jpeg/jidctint.c ****     outptr = output_buf[ctr] + output_col;
 1193              		.loc 1 506 0 discriminator 3
 1194 0368 483B6C24 		cmpq	16(%rsp), %rbp
 1194      10
 559:fltk-1.3.4-1/jpeg/jidctint.c **** 					      CONST_BITS+PASS1_BITS+3)
 1195              		.loc 1 559 0 discriminator 3
 1196 036d 410FB60C 		movzbl	(%r15,%rcx), %ecx
 1196      0F
 1197 0372 41884B02 		movb	%cl, 2(%r11)
 562:fltk-1.3.4-1/jpeg/jidctint.c **** 					      CONST_BITS+PASS1_BITS+3)
 1198              		.loc 1 562 0 discriminator 3
 1199 0376 410FB614 		movzbl	(%r15,%rdx), %edx
 1199      17
 1200 037b 41885304 		movb	%dl, 4(%r11)
 565:fltk-1.3.4-1/jpeg/jidctint.c **** 					      CONST_BITS+PASS1_BITS+3)
 1201              		.loc 1 565 0 discriminator 3
 1202 037f 410FB604 		movzbl	(%r15,%rax), %eax
 1202      07
 1203 0384 41884303 		movb	%al, 3(%r11)
 506:fltk-1.3.4-1/jpeg/jidctint.c ****     outptr = output_buf[ctr] + output_col;
 1204              		.loc 1 506 0 discriminator 3
 1205 0388 0F857AFE 		jne	.L38
 1205      FFFF
 570:fltk-1.3.4-1/jpeg/jidctint.c ****   }
 571:fltk-1.3.4-1/jpeg/jidctint.c **** }
 1206              		.loc 1 571 0
 1207 038e 488B8424 		movq	232(%rsp), %rax
 1207      E8000000 
 1208 0396 64483304 		xorq	%fs:40, %rax
 1208      25280000 
 1208      00
 1209 039f 7512     		jne	.L43
 1210 03a1 4881C4F8 		addq	$248, %rsp
 1210      000000
 1211              		.cfi_remember_state
 1212              		.cfi_def_cfa_offset 56
 1213 03a8 5B       		popq	%rbx
 1214              		.cfi_def_cfa_offset 48
 1215 03a9 5D       		popq	%rbp
 1216              		.cfi_def_cfa_offset 40
 1217              	.LVL175:
 1218 03aa 415C     		popq	%r12
 1219              		.cfi_def_cfa_offset 32
 1220              	.LVL176:
 1221 03ac 415D     		popq	%r13
 1222              		.cfi_def_cfa_offset 24
 1223 03ae 415E     		popq	%r14
 1224              		.cfi_def_cfa_offset 16
 1225 03b0 415F     		popq	%r15
 1226              		.cfi_def_cfa_offset 8
 1227 03b2 C3       		ret
 1228              	.LVL177:
 1229              	.L43:
 1230              		.cfi_restore_state
 1231 03b3 E8000000 		call	__stack_chk_fail
 1231      00
 1232              	.LVL178:
 1233              		.cfi_endproc
 1234              	.LFE62:
 1236              		.section	.text.unlikely.jpeg_idct_7x7
 1237              	.LCOLDE1:
 1238              		.section	.text.jpeg_idct_7x7
 1239              	.LHOTE1:
 1240              		.section	.text.unlikely.jpeg_idct_6x6,"ax",@progbits
 1241              	.LCOLDB2:
 1242              		.section	.text.jpeg_idct_6x6,"ax",@progbits
 1243              	.LHOTB2:
 1244              		.p2align 4,,15
 1245              		.globl	jpeg_idct_6x6
 1247              	jpeg_idct_6x6:
 1248              	.LFB63:
 572:fltk-1.3.4-1/jpeg/jidctint.c **** 
 573:fltk-1.3.4-1/jpeg/jidctint.c **** 
 574:fltk-1.3.4-1/jpeg/jidctint.c **** /*
 575:fltk-1.3.4-1/jpeg/jidctint.c ****  * Perform dequantization and inverse DCT on one block of coefficients,
 576:fltk-1.3.4-1/jpeg/jidctint.c ****  * producing a reduced-size 6x6 output block.
 577:fltk-1.3.4-1/jpeg/jidctint.c ****  *
 578:fltk-1.3.4-1/jpeg/jidctint.c ****  * Optimized algorithm with 3 multiplications in the 1-D kernel.
 579:fltk-1.3.4-1/jpeg/jidctint.c ****  * cK represents sqrt(2) * cos(K*pi/12).
 580:fltk-1.3.4-1/jpeg/jidctint.c ****  */
 581:fltk-1.3.4-1/jpeg/jidctint.c **** 
 582:fltk-1.3.4-1/jpeg/jidctint.c **** GLOBAL(void)
 583:fltk-1.3.4-1/jpeg/jidctint.c **** jpeg_idct_6x6 (j_decompress_ptr cinfo, jpeg_component_info * compptr,
 584:fltk-1.3.4-1/jpeg/jidctint.c **** 	       JCOEFPTR coef_block,
 585:fltk-1.3.4-1/jpeg/jidctint.c **** 	       JSAMPARRAY output_buf, JDIMENSION output_col)
 586:fltk-1.3.4-1/jpeg/jidctint.c **** {
 1249              		.loc 1 586 0
 1250              		.cfi_startproc
 1251              	.LVL179:
 1252 0000 4157     		pushq	%r15
 1253              		.cfi_def_cfa_offset 16
 1254              		.cfi_offset 15, -16
 1255 0002 4156     		pushq	%r14
 1256              		.cfi_def_cfa_offset 24
 1257              		.cfi_offset 14, -24
 1258 0004 4155     		pushq	%r13
 1259              		.cfi_def_cfa_offset 32
 1260              		.cfi_offset 13, -32
 1261 0006 4154     		pushq	%r12
 1262              		.cfi_def_cfa_offset 40
 1263              		.cfi_offset 12, -40
 1264 0008 55       		pushq	%rbp
 1265              		.cfi_def_cfa_offset 48
 1266              		.cfi_offset 6, -48
 1267 0009 53       		pushq	%rbx
 1268              		.cfi_def_cfa_offset 56
 1269              		.cfi_offset 3, -56
 1270 000a 4881ECB8 		subq	$184, %rsp
 1270      000000
 1271              		.cfi_def_cfa_offset 240
 587:fltk-1.3.4-1/jpeg/jidctint.c ****   INT32 tmp0, tmp1, tmp2, tmp10, tmp11, tmp12;
 588:fltk-1.3.4-1/jpeg/jidctint.c ****   INT32 z1, z2, z3;
 589:fltk-1.3.4-1/jpeg/jidctint.c ****   JCOEFPTR inptr;
 590:fltk-1.3.4-1/jpeg/jidctint.c ****   ISLOW_MULT_TYPE * quantptr;
 591:fltk-1.3.4-1/jpeg/jidctint.c ****   int * wsptr;
 592:fltk-1.3.4-1/jpeg/jidctint.c ****   JSAMPROW outptr;
 593:fltk-1.3.4-1/jpeg/jidctint.c ****   JSAMPLE *range_limit = IDCT_range_limit(cinfo);
 1272              		.loc 1 593 0
 1273 0011 4C8BB7B8 		movq	440(%rdi), %r14
 1273      010000
 594:fltk-1.3.4-1/jpeg/jidctint.c ****   int ctr;
 595:fltk-1.3.4-1/jpeg/jidctint.c ****   int workspace[6*6];	/* buffers data between passes */
 596:fltk-1.3.4-1/jpeg/jidctint.c ****   SHIFT_TEMPS
 597:fltk-1.3.4-1/jpeg/jidctint.c **** 
 598:fltk-1.3.4-1/jpeg/jidctint.c ****   /* Pass 1: process columns from input, store into work array. */
 599:fltk-1.3.4-1/jpeg/jidctint.c **** 
 600:fltk-1.3.4-1/jpeg/jidctint.c ****   inptr = coef_block;
 601:fltk-1.3.4-1/jpeg/jidctint.c ****   quantptr = (ISLOW_MULT_TYPE *) compptr->dct_table;
 1274              		.loc 1 601 0
 1275 0018 4C8B5E58 		movq	88(%rsi), %r11
 586:fltk-1.3.4-1/jpeg/jidctint.c ****   INT32 tmp0, tmp1, tmp2, tmp10, tmp11, tmp12;
 1276              		.loc 1 586 0
 1277 001c 64488B04 		movq	%fs:40, %rax
 1277      25280000 
 1277      00
 1278 0025 48898424 		movq	%rax, 168(%rsp)
 1278      A8000000 
 1279 002d 31C0     		xorl	%eax, %eax
 602:fltk-1.3.4-1/jpeg/jidctint.c ****   wsptr = workspace;
 1280              		.loc 1 602 0
 1281 002f 4C8D5424 		leaq	16(%rsp), %r10
 1281      10
 603:fltk-1.3.4-1/jpeg/jidctint.c ****   for (ctr = 0; ctr < 6; ctr++, inptr++, quantptr++, wsptr++) {
 1282              		.loc 1 603 0
 1283 0034 4C8D7C24 		leaq	40(%rsp), %r15
 1283      28
 586:fltk-1.3.4-1/jpeg/jidctint.c ****   INT32 tmp0, tmp1, tmp2, tmp10, tmp11, tmp12;
 1284              		.loc 1 586 0
 1285 0039 48890C24 		movq	%rcx, (%rsp)
 1286 003d 44894424 		movl	%r8d, 12(%rsp)
 1286      0C
 593:fltk-1.3.4-1/jpeg/jidctint.c ****   int ctr;
 1287              		.loc 1 593 0
 1288 0042 4983EE80 		subq	$-128, %r14
 1289              	.LVL180:
 1290 0046 662E0F1F 		.p2align 4,,10
 1290      84000000 
 1290      0000
 1291              		.p2align 3
 1292              	.L45:
 604:fltk-1.3.4-1/jpeg/jidctint.c ****     /* Even part */
 605:fltk-1.3.4-1/jpeg/jidctint.c **** 
 606:fltk-1.3.4-1/jpeg/jidctint.c ****     tmp0 = DEQUANTIZE(inptr[DCTSIZE*0], quantptr[DCTSIZE*0]);
 607:fltk-1.3.4-1/jpeg/jidctint.c ****     tmp0 <<= CONST_BITS;
 608:fltk-1.3.4-1/jpeg/jidctint.c ****     /* Add fudge factor here for final descale. */
 609:fltk-1.3.4-1/jpeg/jidctint.c ****     tmp0 += ONE << (CONST_BITS-PASS1_BITS-1);
 610:fltk-1.3.4-1/jpeg/jidctint.c ****     tmp2 = DEQUANTIZE(inptr[DCTSIZE*4], quantptr[DCTSIZE*4]);
 611:fltk-1.3.4-1/jpeg/jidctint.c ****     tmp10 = MULTIPLY(tmp2, FIX(0.707106781));   /* c4 */
 1293              		.loc 1 611 0 discriminator 3
 1294 0050 440FBF42 		movswl	64(%rdx), %r8d
 1294      40
 606:fltk-1.3.4-1/jpeg/jidctint.c ****     tmp0 <<= CONST_BITS;
 1295              		.loc 1 606 0 discriminator 3
 1296 0055 0FBF0A   		movswl	(%rdx), %ecx
 603:fltk-1.3.4-1/jpeg/jidctint.c ****     /* Even part */
 1297              		.loc 1 603 0 discriminator 3
 1298 0058 4983C304 		addq	$4, %r11
 1299              	.LVL181:
 1300              		.loc 1 611 0 discriminator 3
 1301 005c 450FAF43 		imull	124(%r11), %r8d
 1301      7C
 612:fltk-1.3.4-1/jpeg/jidctint.c ****     tmp1 = tmp0 + tmp10;
 613:fltk-1.3.4-1/jpeg/jidctint.c ****     tmp11 = RIGHT_SHIFT(tmp0 - tmp10 - tmp10, CONST_BITS-PASS1_BITS);
 614:fltk-1.3.4-1/jpeg/jidctint.c ****     tmp10 = DEQUANTIZE(inptr[DCTSIZE*2], quantptr[DCTSIZE*2]);
 615:fltk-1.3.4-1/jpeg/jidctint.c ****     tmp0 = MULTIPLY(tmp10, FIX(1.224744871));   /* c2 */
 1302              		.loc 1 615 0 discriminator 3
 1303 0061 0FBF4220 		movswl	32(%rdx), %eax
 616:fltk-1.3.4-1/jpeg/jidctint.c ****     tmp10 = tmp1 + tmp0;
 617:fltk-1.3.4-1/jpeg/jidctint.c ****     tmp12 = tmp1 - tmp0;
 618:fltk-1.3.4-1/jpeg/jidctint.c **** 
 619:fltk-1.3.4-1/jpeg/jidctint.c ****     /* Odd part */
 620:fltk-1.3.4-1/jpeg/jidctint.c **** 
 621:fltk-1.3.4-1/jpeg/jidctint.c ****     z1 = DEQUANTIZE(inptr[DCTSIZE*1], quantptr[DCTSIZE*1]);
 622:fltk-1.3.4-1/jpeg/jidctint.c ****     z2 = DEQUANTIZE(inptr[DCTSIZE*3], quantptr[DCTSIZE*3]);
 623:fltk-1.3.4-1/jpeg/jidctint.c ****     z3 = DEQUANTIZE(inptr[DCTSIZE*5], quantptr[DCTSIZE*5]);
 1304              		.loc 1 623 0 discriminator 3
 1305 0065 440FBF4A 		movswl	80(%rdx), %r9d
 1305      50
 603:fltk-1.3.4-1/jpeg/jidctint.c ****     /* Even part */
 1306              		.loc 1 603 0 discriminator 3
 1307 006a 4883C202 		addq	$2, %rdx
 1308              	.LVL182:
 606:fltk-1.3.4-1/jpeg/jidctint.c ****     tmp0 <<= CONST_BITS;
 1309              		.loc 1 606 0 discriminator 3
 1310 006e 410FAF4B 		imull	-4(%r11), %ecx
 1310      FC
 615:fltk-1.3.4-1/jpeg/jidctint.c ****     tmp10 = tmp1 + tmp0;
 1311              		.loc 1 615 0 discriminator 3
 1312 0073 410FAF43 		imull	60(%r11), %eax
 1312      3C
 1313              		.loc 1 623 0 discriminator 3
 1314 0078 450FAF8B 		imull	156(%r11), %r9d
 1314      9C000000 
 622:fltk-1.3.4-1/jpeg/jidctint.c ****     z3 = DEQUANTIZE(inptr[DCTSIZE*5], quantptr[DCTSIZE*5]);
 1315              		.loc 1 622 0 discriminator 3
 1316 0080 0FBF5A2E 		movswl	46(%rdx), %ebx
 611:fltk-1.3.4-1/jpeg/jidctint.c ****     tmp1 = tmp0 + tmp10;
 1317              		.loc 1 611 0 discriminator 3
 1318 0084 4D63C0   		movslq	%r8d, %r8
 622:fltk-1.3.4-1/jpeg/jidctint.c ****     z3 = DEQUANTIZE(inptr[DCTSIZE*5], quantptr[DCTSIZE*5]);
 1319              		.loc 1 622 0 discriminator 3
 1320 0087 410FAF5B 		imull	92(%r11), %ebx
 1320      5C
 611:fltk-1.3.4-1/jpeg/jidctint.c ****     tmp1 = tmp0 + tmp10;
 1321              		.loc 1 611 0 discriminator 3
 1322 008c 4D69C0A1 		imulq	$5793, %r8, %r8
 1322      160000
 606:fltk-1.3.4-1/jpeg/jidctint.c ****     tmp0 <<= CONST_BITS;
 1323              		.loc 1 606 0 discriminator 3
 1324 0093 4863C9   		movslq	%ecx, %rcx
 1325              	.LVL183:
 615:fltk-1.3.4-1/jpeg/jidctint.c ****     tmp10 = tmp1 + tmp0;
 1326              		.loc 1 615 0 discriminator 3
 1327 0096 4898     		cltq
 607:fltk-1.3.4-1/jpeg/jidctint.c ****     /* Add fudge factor here for final descale. */
 1328              		.loc 1 607 0 discriminator 3
 1329 0098 48C1E10D 		salq	$13, %rcx
 1330              	.LVL184:
 609:fltk-1.3.4-1/jpeg/jidctint.c ****     tmp2 = DEQUANTIZE(inptr[DCTSIZE*4], quantptr[DCTSIZE*4]);
 1331              		.loc 1 609 0 discriminator 3
 1332 009c 4881C100 		addq	$1024, %rcx
 1332      040000
 1333              	.LVL185:
 1334              		.loc 1 623 0 discriminator 3
 1335 00a3 4D63C9   		movslq	%r9d, %r9
 615:fltk-1.3.4-1/jpeg/jidctint.c ****     tmp10 = tmp1 + tmp0;
 1336              		.loc 1 615 0 discriminator 3
 1337 00a6 4869C031 		imulq	$10033, %rax, %rax
 1337      270000
 612:fltk-1.3.4-1/jpeg/jidctint.c ****     tmp11 = RIGHT_SHIFT(tmp0 - tmp10 - tmp10, CONST_BITS-PASS1_BITS);
 1338              		.loc 1 612 0 discriminator 3
 1339 00ad 4A8D3401 		leaq	(%rcx,%r8), %rsi
 1340              	.LVL186:
 624:fltk-1.3.4-1/jpeg/jidctint.c ****     tmp1 = MULTIPLY(z1 + z3, FIX(0.366025404)); /* c5 */
 625:fltk-1.3.4-1/jpeg/jidctint.c ****     tmp0 = tmp1 + ((z1 + z2) << CONST_BITS);
 626:fltk-1.3.4-1/jpeg/jidctint.c ****     tmp2 = tmp1 + ((z3 - z2) << CONST_BITS);
 627:fltk-1.3.4-1/jpeg/jidctint.c ****     tmp1 = (z1 - z2 - z3) << PASS1_BITS;
 628:fltk-1.3.4-1/jpeg/jidctint.c **** 
 629:fltk-1.3.4-1/jpeg/jidctint.c ****     /* Final output stage */
 630:fltk-1.3.4-1/jpeg/jidctint.c **** 
 631:fltk-1.3.4-1/jpeg/jidctint.c ****     wsptr[6*0] = (int) RIGHT_SHIFT(tmp10 + tmp0, CONST_BITS-PASS1_BITS);
 632:fltk-1.3.4-1/jpeg/jidctint.c ****     wsptr[6*5] = (int) RIGHT_SHIFT(tmp10 - tmp0, CONST_BITS-PASS1_BITS);
 633:fltk-1.3.4-1/jpeg/jidctint.c ****     wsptr[6*1] = (int) (tmp11 + tmp1);
 1341              		.loc 1 633 0 discriminator 3
 1342 00b1 4C29C1   		subq	%r8, %rcx
 1343              	.LVL187:
 622:fltk-1.3.4-1/jpeg/jidctint.c ****     z3 = DEQUANTIZE(inptr[DCTSIZE*5], quantptr[DCTSIZE*5]);
 1344              		.loc 1 622 0 discriminator 3
 1345 00b4 4863DB   		movslq	%ebx, %rbx
 1346              		.loc 1 633 0 discriminator 3
 1347 00b7 4C29C1   		subq	%r8, %rcx
 1348 00ba 48C1F90B 		sarq	$11, %rcx
 616:fltk-1.3.4-1/jpeg/jidctint.c ****     tmp12 = tmp1 - tmp0;
 1349              		.loc 1 616 0 discriminator 3
 1350 00be 488D2C06 		leaq	(%rsi,%rax), %rbp
 1351              	.LVL188:
 617:fltk-1.3.4-1/jpeg/jidctint.c **** 
 1352              		.loc 1 617 0 discriminator 3
 1353 00c2 4829C6   		subq	%rax, %rsi
 1354              	.LVL189:
 621:fltk-1.3.4-1/jpeg/jidctint.c ****     z2 = DEQUANTIZE(inptr[DCTSIZE*3], quantptr[DCTSIZE*3]);
 1355              		.loc 1 621 0 discriminator 3
 1356 00c5 0FBF420E 		movswl	14(%rdx), %eax
 1357              	.LVL190:
 1358 00c9 410FAF43 		imull	28(%r11), %eax
 1358      1C
 1359 00ce 4898     		cltq
 1360              	.LVL191:
 624:fltk-1.3.4-1/jpeg/jidctint.c ****     tmp0 = tmp1 + ((z1 + z2) << CONST_BITS);
 1361              		.loc 1 624 0 discriminator 3
 1362 00d0 4A8D3C08 		leaq	(%rax,%r9), %rdi
 625:fltk-1.3.4-1/jpeg/jidctint.c ****     tmp2 = tmp1 + ((z3 - z2) << CONST_BITS);
 1363              		.loc 1 625 0 discriminator 3
 1364 00d4 4C8D2418 		leaq	(%rax,%rbx), %r12
 1365              		.loc 1 633 0 discriminator 3
 1366 00d8 4829D8   		subq	%rbx, %rax
 1367              	.LVL192:
 1368 00db 4C29C8   		subq	%r9, %rax
 624:fltk-1.3.4-1/jpeg/jidctint.c ****     tmp0 = tmp1 + ((z1 + z2) << CONST_BITS);
 1369              		.loc 1 624 0 discriminator 3
 1370 00de 4C69EFB6 		imulq	$2998, %rdi, %r13
 1370      0B0000
 1371              	.LVL193:
 626:fltk-1.3.4-1/jpeg/jidctint.c ****     tmp1 = (z1 - z2 - z3) << PASS1_BITS;
 1372              		.loc 1 626 0 discriminator 3
 1373 00e5 4C89CF   		movq	%r9, %rdi
 625:fltk-1.3.4-1/jpeg/jidctint.c ****     tmp2 = tmp1 + ((z3 - z2) << CONST_BITS);
 1374              		.loc 1 625 0 discriminator 3
 1375 00e8 49C1E40D 		salq	$13, %r12
 626:fltk-1.3.4-1/jpeg/jidctint.c ****     tmp1 = (z1 - z2 - z3) << PASS1_BITS;
 1376              		.loc 1 626 0 discriminator 3
 1377 00ec 4829DF   		subq	%rbx, %rdi
 1378              		.loc 1 633 0 discriminator 3
 1379 00ef 48C1E002 		salq	$2, %rax
 626:fltk-1.3.4-1/jpeg/jidctint.c ****     tmp1 = (z1 - z2 - z3) << PASS1_BITS;
 1380              		.loc 1 626 0 discriminator 3
 1381 00f3 48C1E70D 		salq	$13, %rdi
 1382              		.loc 1 633 0 discriminator 3
 1383 00f7 448D0408 		leal	(%rax,%rcx), %r8d
 1384              	.LVL194:
 634:fltk-1.3.4-1/jpeg/jidctint.c ****     wsptr[6*4] = (int) (tmp11 - tmp1);
 1385              		.loc 1 634 0 discriminator 3
 1386 00fb 29C1     		subl	%eax, %ecx
 1387 00fd 41894A60 		movl	%ecx, 96(%r10)
 626:fltk-1.3.4-1/jpeg/jidctint.c ****     tmp1 = (z1 - z2 - z3) << PASS1_BITS;
 1388              		.loc 1 626 0 discriminator 3
 1389 0101 4C01EF   		addq	%r13, %rdi
 625:fltk-1.3.4-1/jpeg/jidctint.c ****     tmp2 = tmp1 + ((z3 - z2) << CONST_BITS);
 1390              		.loc 1 625 0 discriminator 3
 1391 0104 4D01EC   		addq	%r13, %r12
 1392              	.LVL195:
 633:fltk-1.3.4-1/jpeg/jidctint.c ****     wsptr[6*4] = (int) (tmp11 - tmp1);
 1393              		.loc 1 633 0 discriminator 3
 1394 0107 45894218 		movl	%r8d, 24(%r10)
 631:fltk-1.3.4-1/jpeg/jidctint.c ****     wsptr[6*5] = (int) RIGHT_SHIFT(tmp10 - tmp0, CONST_BITS-PASS1_BITS);
 1395              		.loc 1 631 0 discriminator 3
 1396 010b 4E8D6C25 		leaq	0(%rbp,%r12), %r13
 1396      00
 635:fltk-1.3.4-1/jpeg/jidctint.c ****     wsptr[6*2] = (int) RIGHT_SHIFT(tmp12 + tmp2, CONST_BITS-PASS1_BITS);
 1397              		.loc 1 635 0 discriminator 3
 1398 0110 488D043E 		leaq	(%rsi,%rdi), %rax
 632:fltk-1.3.4-1/jpeg/jidctint.c ****     wsptr[6*1] = (int) (tmp11 + tmp1);
 1399              		.loc 1 632 0 discriminator 3
 1400 0114 4C29E5   		subq	%r12, %rbp
 1401              	.LVL196:
 636:fltk-1.3.4-1/jpeg/jidctint.c ****     wsptr[6*3] = (int) RIGHT_SHIFT(tmp12 - tmp2, CONST_BITS-PASS1_BITS);
 1402              		.loc 1 636 0 discriminator 3
 1403 0117 4829FE   		subq	%rdi, %rsi
 1404              	.LVL197:
 632:fltk-1.3.4-1/jpeg/jidctint.c ****     wsptr[6*1] = (int) (tmp11 + tmp1);
 1405              		.loc 1 632 0 discriminator 3
 1406 011a 48C1FD0B 		sarq	$11, %rbp
 631:fltk-1.3.4-1/jpeg/jidctint.c ****     wsptr[6*5] = (int) RIGHT_SHIFT(tmp10 - tmp0, CONST_BITS-PASS1_BITS);
 1407              		.loc 1 631 0 discriminator 3
 1408 011e 49C1FD0B 		sarq	$11, %r13
 635:fltk-1.3.4-1/jpeg/jidctint.c ****     wsptr[6*3] = (int) RIGHT_SHIFT(tmp12 - tmp2, CONST_BITS-PASS1_BITS);
 1409              		.loc 1 635 0 discriminator 3
 1410 0122 48C1F80B 		sarq	$11, %rax
 1411              		.loc 1 636 0 discriminator 3
 1412 0126 48C1FE0B 		sarq	$11, %rsi
 631:fltk-1.3.4-1/jpeg/jidctint.c ****     wsptr[6*5] = (int) RIGHT_SHIFT(tmp10 - tmp0, CONST_BITS-PASS1_BITS);
 1413              		.loc 1 631 0 discriminator 3
 1414 012a 45892A   		movl	%r13d, (%r10)
 632:fltk-1.3.4-1/jpeg/jidctint.c ****     wsptr[6*1] = (int) (tmp11 + tmp1);
 1415              		.loc 1 632 0 discriminator 3
 1416 012d 41896A78 		movl	%ebp, 120(%r10)
 603:fltk-1.3.4-1/jpeg/jidctint.c ****     /* Even part */
 1417              		.loc 1 603 0 discriminator 3
 1418 0131 4983C204 		addq	$4, %r10
 1419              	.LVL198:
 635:fltk-1.3.4-1/jpeg/jidctint.c ****     wsptr[6*3] = (int) RIGHT_SHIFT(tmp12 - tmp2, CONST_BITS-PASS1_BITS);
 1420              		.loc 1 635 0 discriminator 3
 1421 0135 4189422C 		movl	%eax, 44(%r10)
 1422              		.loc 1 636 0 discriminator 3
 1423 0139 41897244 		movl	%esi, 68(%r10)
 1424              	.LVL199:
 603:fltk-1.3.4-1/jpeg/jidctint.c ****     /* Even part */
 1425              		.loc 1 603 0 discriminator 3
 1426 013d 4D39FA   		cmpq	%r15, %r10
 1427 0140 0F850AFF 		jne	.L45
 1427      FFFF
 1428 0146 448B4424 		movl	12(%rsp), %r8d
 1428      0C
 1429 014b 488B0C24 		movq	(%rsp), %rcx
 603:fltk-1.3.4-1/jpeg/jidctint.c ****     /* Even part */
 1430              		.loc 1 603 0 is_stmt 0
 1431 014f 4C8D4C24 		leaq	16(%rsp), %r9
 1431      10
 1432              	.LVL200:
 637:fltk-1.3.4-1/jpeg/jidctint.c ****   }
 638:fltk-1.3.4-1/jpeg/jidctint.c **** 
 639:fltk-1.3.4-1/jpeg/jidctint.c ****   /* Pass 2: process 6 rows from work array, store into output array. */
 640:fltk-1.3.4-1/jpeg/jidctint.c **** 
 641:fltk-1.3.4-1/jpeg/jidctint.c ****   wsptr = workspace;
 642:fltk-1.3.4-1/jpeg/jidctint.c ****   for (ctr = 0; ctr < 6; ctr++) {
 1433              		.loc 1 642 0 is_stmt 1
 1434 0154 4C8D9C24 		leaq	160(%rsp), %r11
 1434      A0000000 
 1435              	.LVL201:
 1436 015c 0F1F4000 		.p2align 4,,10
 1437              		.p2align 3
 1438              	.L46:
 643:fltk-1.3.4-1/jpeg/jidctint.c ****     outptr = output_buf[ctr] + output_col;
 644:fltk-1.3.4-1/jpeg/jidctint.c **** 
 645:fltk-1.3.4-1/jpeg/jidctint.c ****     /* Even part */
 646:fltk-1.3.4-1/jpeg/jidctint.c **** 
 647:fltk-1.3.4-1/jpeg/jidctint.c ****     /* Add fudge factor here for final descale. */
 648:fltk-1.3.4-1/jpeg/jidctint.c ****     tmp0 = (INT32) wsptr[0] + (ONE << (PASS1_BITS+2));
 649:fltk-1.3.4-1/jpeg/jidctint.c ****     tmp0 <<= CONST_BITS;
 650:fltk-1.3.4-1/jpeg/jidctint.c ****     tmp2 = (INT32) wsptr[4];
 651:fltk-1.3.4-1/jpeg/jidctint.c ****     tmp10 = MULTIPLY(tmp2, FIX(0.707106781));   /* c4 */
 1439              		.loc 1 651 0 discriminator 3
 1440 0160 4D635110 		movslq	16(%r9), %r10
 648:fltk-1.3.4-1/jpeg/jidctint.c ****     tmp0 <<= CONST_BITS;
 1441              		.loc 1 648 0 discriminator 3
 1442 0164 496311   		movslq	(%r9), %rdx
 643:fltk-1.3.4-1/jpeg/jidctint.c ****     outptr = output_buf[ctr] + output_col;
 1443              		.loc 1 643 0 discriminator 3
 1444 0167 4C89C7   		movq	%r8, %rdi
 652:fltk-1.3.4-1/jpeg/jidctint.c ****     tmp1 = tmp0 + tmp10;
 653:fltk-1.3.4-1/jpeg/jidctint.c ****     tmp11 = tmp0 - tmp10 - tmp10;
 654:fltk-1.3.4-1/jpeg/jidctint.c ****     tmp10 = (INT32) wsptr[2];
 655:fltk-1.3.4-1/jpeg/jidctint.c ****     tmp0 = MULTIPLY(tmp10, FIX(1.224744871));   /* c2 */
 656:fltk-1.3.4-1/jpeg/jidctint.c ****     tmp10 = tmp1 + tmp0;
 657:fltk-1.3.4-1/jpeg/jidctint.c ****     tmp12 = tmp1 - tmp0;
 658:fltk-1.3.4-1/jpeg/jidctint.c **** 
 659:fltk-1.3.4-1/jpeg/jidctint.c ****     /* Odd part */
 660:fltk-1.3.4-1/jpeg/jidctint.c **** 
 661:fltk-1.3.4-1/jpeg/jidctint.c ****     z1 = (INT32) wsptr[1];
 1445              		.loc 1 661 0 discriminator 3
 1446 016a 49635904 		movslq	4(%r9), %rbx
 662:fltk-1.3.4-1/jpeg/jidctint.c ****     z2 = (INT32) wsptr[3];
 663:fltk-1.3.4-1/jpeg/jidctint.c ****     z3 = (INT32) wsptr[5];
 1447              		.loc 1 663 0 discriminator 3
 1448 016e 4D636914 		movslq	20(%r9), %r13
 662:fltk-1.3.4-1/jpeg/jidctint.c ****     z2 = (INT32) wsptr[3];
 1449              		.loc 1 662 0 discriminator 3
 1450 0172 4D63790C 		movslq	12(%r9), %r15
 643:fltk-1.3.4-1/jpeg/jidctint.c **** 
 1451              		.loc 1 643 0 discriminator 3
 1452 0176 480339   		addq	(%rcx), %rdi
 1453              	.LVL202:
 651:fltk-1.3.4-1/jpeg/jidctint.c ****     tmp1 = tmp0 + tmp10;
 1454              		.loc 1 651 0 discriminator 3
 1455 0179 4D69D2A1 		imulq	$5793, %r10, %r10
 1455      160000
 648:fltk-1.3.4-1/jpeg/jidctint.c ****     tmp0 <<= CONST_BITS;
 1456              		.loc 1 648 0 discriminator 3
 1457 0180 4883C210 		addq	$16, %rdx
 1458              	.LVL203:
 649:fltk-1.3.4-1/jpeg/jidctint.c ****     tmp2 = (INT32) wsptr[4];
 1459              		.loc 1 649 0 discriminator 3
 1460 0184 48C1E20D 		salq	$13, %rdx
 1461              	.LVL204:
 664:fltk-1.3.4-1/jpeg/jidctint.c ****     tmp1 = MULTIPLY(z1 + z3, FIX(0.366025404)); /* c5 */
 665:fltk-1.3.4-1/jpeg/jidctint.c ****     tmp0 = tmp1 + ((z1 + z2) << CONST_BITS);
 1462              		.loc 1 665 0 discriminator 3
 1463 0188 4A8D2C3B 		leaq	(%rbx,%r15), %rbp
 652:fltk-1.3.4-1/jpeg/jidctint.c ****     tmp11 = tmp0 - tmp10 - tmp10;
 1464              		.loc 1 652 0 discriminator 3
 1465 018c 4A8D3412 		leaq	(%rdx,%r10), %rsi
 1466              	.LVL205:
 653:fltk-1.3.4-1/jpeg/jidctint.c ****     tmp10 = (INT32) wsptr[2];
 1467              		.loc 1 653 0 discriminator 3
 1468 0190 4C29D2   		subq	%r10, %rdx
 1469              	.LVL206:
 1470              		.loc 1 665 0 discriminator 3
 1471 0193 48C1E50D 		salq	$13, %rbp
 653:fltk-1.3.4-1/jpeg/jidctint.c ****     tmp10 = (INT32) wsptr[2];
 1472              		.loc 1 653 0 discriminator 3
 1473 0197 4889D0   		movq	%rdx, %rax
 1474 019a 4C29D0   		subq	%r10, %rax
 1475              	.LVL207:
 655:fltk-1.3.4-1/jpeg/jidctint.c ****     tmp10 = tmp1 + tmp0;
 1476              		.loc 1 655 0 discriminator 3
 1477 019d 4D635108 		movslq	8(%r9), %r10
 1478              	.LVL208:
 1479 01a1 4D69D231 		imulq	$10033, %r10, %r10
 1479      270000
 1480              	.LVL209:
 656:fltk-1.3.4-1/jpeg/jidctint.c ****     tmp12 = tmp1 - tmp0;
 1481              		.loc 1 656 0 discriminator 3
 1482 01a8 4A8D1416 		leaq	(%rsi,%r10), %rdx
 1483              	.LVL210:
 657:fltk-1.3.4-1/jpeg/jidctint.c **** 
 1484              		.loc 1 657 0 discriminator 3
 1485 01ac 4C29D6   		subq	%r10, %rsi
 1486              	.LVL211:
 664:fltk-1.3.4-1/jpeg/jidctint.c ****     tmp0 = tmp1 + ((z1 + z2) << CONST_BITS);
 1487              		.loc 1 664 0 discriminator 3
 1488 01af 4E8D142B 		leaq	(%rbx,%r13), %r10
 1489              	.LVL212:
 666:fltk-1.3.4-1/jpeg/jidctint.c ****     tmp2 = tmp1 + ((z3 - z2) << CONST_BITS);
 667:fltk-1.3.4-1/jpeg/jidctint.c ****     tmp1 = (z1 - z2 - z3) << CONST_BITS;
 1490              		.loc 1 667 0 discriminator 3
 1491 01b3 4C29FB   		subq	%r15, %rbx
 1492              	.LVL213:
 664:fltk-1.3.4-1/jpeg/jidctint.c ****     tmp0 = tmp1 + ((z1 + z2) << CONST_BITS);
 1493              		.loc 1 664 0 discriminator 3
 1494 01b6 4D69E2B6 		imulq	$2998, %r10, %r12
 1494      0B0000
 1495              	.LVL214:
 666:fltk-1.3.4-1/jpeg/jidctint.c ****     tmp2 = tmp1 + ((z3 - z2) << CONST_BITS);
 1496              		.loc 1 666 0 discriminator 3
 1497 01bd 4D89EA   		movq	%r13, %r10
 1498              		.loc 1 667 0 discriminator 3
 1499 01c0 4C29EB   		subq	%r13, %rbx
 666:fltk-1.3.4-1/jpeg/jidctint.c ****     tmp2 = tmp1 + ((z3 - z2) << CONST_BITS);
 1500              		.loc 1 666 0 discriminator 3
 1501 01c3 4D29FA   		subq	%r15, %r10
 1502              		.loc 1 667 0 discriminator 3
 1503 01c6 48C1E30D 		salq	$13, %rbx
 666:fltk-1.3.4-1/jpeg/jidctint.c ****     tmp2 = tmp1 + ((z3 - z2) << CONST_BITS);
 1504              		.loc 1 666 0 discriminator 3
 1505 01ca 49C1E20D 		salq	$13, %r10
 665:fltk-1.3.4-1/jpeg/jidctint.c ****     tmp2 = tmp1 + ((z3 - z2) << CONST_BITS);
 1506              		.loc 1 665 0 discriminator 3
 1507 01ce 4C01E5   		addq	%r12, %rbp
 1508              	.LVL215:
 666:fltk-1.3.4-1/jpeg/jidctint.c ****     tmp2 = tmp1 + ((z3 - z2) << CONST_BITS);
 1509              		.loc 1 666 0 discriminator 3
 1510 01d1 4D01E2   		addq	%r12, %r10
 1511              	.LVL216:
 668:fltk-1.3.4-1/jpeg/jidctint.c **** 
 669:fltk-1.3.4-1/jpeg/jidctint.c ****     /* Final output stage */
 670:fltk-1.3.4-1/jpeg/jidctint.c **** 
 671:fltk-1.3.4-1/jpeg/jidctint.c ****     outptr[0] = range_limit[(int) RIGHT_SHIFT(tmp10 + tmp0,
 1512              		.loc 1 671 0 discriminator 3
 1513 01d4 4C8D242A 		leaq	(%rdx,%rbp), %r12
 672:fltk-1.3.4-1/jpeg/jidctint.c **** 					      CONST_BITS+PASS1_BITS+3)
 673:fltk-1.3.4-1/jpeg/jidctint.c **** 			    & RANGE_MASK];
 674:fltk-1.3.4-1/jpeg/jidctint.c ****     outptr[5] = range_limit[(int) RIGHT_SHIFT(tmp10 - tmp0,
 1514              		.loc 1 674 0 discriminator 3
 1515 01d8 4829EA   		subq	%rbp, %rdx
 1516              	.LVL217:
 1517 01db 48C1FA12 		sarq	$18, %rdx
 671:fltk-1.3.4-1/jpeg/jidctint.c **** 					      CONST_BITS+PASS1_BITS+3)
 1518              		.loc 1 671 0 discriminator 3
 1519 01df 49C1FC12 		sarq	$18, %r12
 1520              		.loc 1 674 0 discriminator 3
 1521 01e3 81E2FF03 		andl	$1023, %edx
 1521      0000
 671:fltk-1.3.4-1/jpeg/jidctint.c **** 					      CONST_BITS+PASS1_BITS+3)
 1522              		.loc 1 671 0 discriminator 3
 1523 01e9 4181E4FF 		andl	$1023, %r12d
 1523      030000
 1524 01f0 470FB624 		movzbl	(%r14,%r12), %r12d
 1524      26
 1525 01f5 448827   		movb	%r12b, (%rdi)
 1526              		.loc 1 674 0 discriminator 3
 1527 01f8 410FB614 		movzbl	(%r14,%rdx), %edx
 1527      16
 1528 01fd 885705   		movb	%dl, 5(%rdi)
 675:fltk-1.3.4-1/jpeg/jidctint.c **** 					      CONST_BITS+PASS1_BITS+3)
 676:fltk-1.3.4-1/jpeg/jidctint.c **** 			    & RANGE_MASK];
 677:fltk-1.3.4-1/jpeg/jidctint.c ****     outptr[1] = range_limit[(int) RIGHT_SHIFT(tmp11 + tmp1,
 1529              		.loc 1 677 0 discriminator 3
 1530 0200 488D1418 		leaq	(%rax,%rbx), %rdx
 678:fltk-1.3.4-1/jpeg/jidctint.c **** 					      CONST_BITS+PASS1_BITS+3)
 679:fltk-1.3.4-1/jpeg/jidctint.c **** 			    & RANGE_MASK];
 680:fltk-1.3.4-1/jpeg/jidctint.c ****     outptr[4] = range_limit[(int) RIGHT_SHIFT(tmp11 - tmp1,
 1531              		.loc 1 680 0 discriminator 3
 1532 0204 4829D8   		subq	%rbx, %rax
 1533              	.LVL218:
 677:fltk-1.3.4-1/jpeg/jidctint.c **** 					      CONST_BITS+PASS1_BITS+3)
 1534              		.loc 1 677 0 discriminator 3
 1535 0207 48C1FA12 		sarq	$18, %rdx
 1536 020b 81E2FF03 		andl	$1023, %edx
 1536      0000
 1537 0211 410FB614 		movzbl	(%r14,%rdx), %edx
 1537      16
 1538 0216 885701   		movb	%dl, 1(%rdi)
 1539              		.loc 1 680 0 discriminator 3
 1540 0219 4889C2   		movq	%rax, %rdx
 1541 021c 48C1FA12 		sarq	$18, %rdx
 1542 0220 81E2FF03 		andl	$1023, %edx
 1542      0000
 1543 0226 410FB604 		movzbl	(%r14,%rdx), %eax
 1543      16
 1544 022b 884704   		movb	%al, 4(%rdi)
 681:fltk-1.3.4-1/jpeg/jidctint.c **** 					      CONST_BITS+PASS1_BITS+3)
 682:fltk-1.3.4-1/jpeg/jidctint.c **** 			    & RANGE_MASK];
 683:fltk-1.3.4-1/jpeg/jidctint.c ****     outptr[2] = range_limit[(int) RIGHT_SHIFT(tmp12 + tmp2,
 1545              		.loc 1 683 0 discriminator 3
 1546 022e 4A8D0416 		leaq	(%rsi,%r10), %rax
 1547 0232 48C1F812 		sarq	$18, %rax
 1548 0236 25FF0300 		andl	$1023, %eax
 1548      00
 1549 023b 410FB604 		movzbl	(%r14,%rax), %eax
 1549      06
 1550 0240 884702   		movb	%al, 2(%rdi)
 684:fltk-1.3.4-1/jpeg/jidctint.c **** 					      CONST_BITS+PASS1_BITS+3)
 685:fltk-1.3.4-1/jpeg/jidctint.c **** 			    & RANGE_MASK];
 686:fltk-1.3.4-1/jpeg/jidctint.c ****     outptr[3] = range_limit[(int) RIGHT_SHIFT(tmp12 - tmp2,
 1551              		.loc 1 686 0 discriminator 3
 1552 0243 4889F0   		movq	%rsi, %rax
 1553 0246 4C29D0   		subq	%r10, %rax
 1554 0249 48C1F812 		sarq	$18, %rax
 1555 024d 25FF0300 		andl	$1023, %eax
 1555      00
 687:fltk-1.3.4-1/jpeg/jidctint.c **** 					      CONST_BITS+PASS1_BITS+3)
 688:fltk-1.3.4-1/jpeg/jidctint.c **** 			    & RANGE_MASK];
 689:fltk-1.3.4-1/jpeg/jidctint.c **** 
 690:fltk-1.3.4-1/jpeg/jidctint.c ****     wsptr += 6;		/* advance pointer to next row */
 1556              		.loc 1 690 0 discriminator 3
 1557 0252 4983C118 		addq	$24, %r9
 1558              	.LVL219:
 1559 0256 4883C108 		addq	$8, %rcx
 686:fltk-1.3.4-1/jpeg/jidctint.c **** 					      CONST_BITS+PASS1_BITS+3)
 1560              		.loc 1 686 0 discriminator 3
 1561 025a 410FB604 		movzbl	(%r14,%rax), %eax
 1561      06
 642:fltk-1.3.4-1/jpeg/jidctint.c ****     outptr = output_buf[ctr] + output_col;
 1562              		.loc 1 642 0 discriminator 3
 1563 025f 4D39D9   		cmpq	%r11, %r9
 686:fltk-1.3.4-1/jpeg/jidctint.c **** 					      CONST_BITS+PASS1_BITS+3)
 1564              		.loc 1 686 0 discriminator 3
 1565 0262 884703   		movb	%al, 3(%rdi)
 642:fltk-1.3.4-1/jpeg/jidctint.c ****     outptr = output_buf[ctr] + output_col;
 1566              		.loc 1 642 0 discriminator 3
 1567 0265 0F85F5FE 		jne	.L46
 1567      FFFF
 691:fltk-1.3.4-1/jpeg/jidctint.c ****   }
 692:fltk-1.3.4-1/jpeg/jidctint.c **** }
 1568              		.loc 1 692 0
 1569 026b 488B8424 		movq	168(%rsp), %rax
 1569      A8000000 
 1570 0273 64483304 		xorq	%fs:40, %rax
 1570      25280000 
 1570      00
 1571 027c 7512     		jne	.L51
 1572 027e 4881C4B8 		addq	$184, %rsp
 1572      000000
 1573              		.cfi_remember_state
 1574              		.cfi_def_cfa_offset 56
 1575              	.LVL220:
 1576 0285 5B       		popq	%rbx
 1577              		.cfi_def_cfa_offset 48
 1578              	.LVL221:
 1579 0286 5D       		popq	%rbp
 1580              		.cfi_def_cfa_offset 40
 1581              	.LVL222:
 1582 0287 415C     		popq	%r12
 1583              		.cfi_def_cfa_offset 32
 1584 0289 415D     		popq	%r13
 1585              		.cfi_def_cfa_offset 24
 1586              	.LVL223:
 1587 028b 415E     		popq	%r14
 1588              		.cfi_def_cfa_offset 16
 1589              	.LVL224:
 1590 028d 415F     		popq	%r15
 1591              		.cfi_def_cfa_offset 8
 1592              	.LVL225:
 1593 028f C3       		ret
 1594              	.LVL226:
 1595              	.L51:
 1596              		.cfi_restore_state
 1597 0290 E8000000 		call	__stack_chk_fail
 1597      00
 1598              	.LVL227:
 1599              		.cfi_endproc
 1600              	.LFE63:
 1602              		.section	.text.unlikely.jpeg_idct_6x6
 1603              	.LCOLDE2:
 1604              		.section	.text.jpeg_idct_6x6
 1605              	.LHOTE2:
 1606              		.section	.text.unlikely.jpeg_idct_5x5,"ax",@progbits
 1607              	.LCOLDB3:
 1608              		.section	.text.jpeg_idct_5x5,"ax",@progbits
 1609              	.LHOTB3:
 1610              		.p2align 4,,15
 1611              		.globl	jpeg_idct_5x5
 1613              	jpeg_idct_5x5:
 1614              	.LFB64:
 693:fltk-1.3.4-1/jpeg/jidctint.c **** 
 694:fltk-1.3.4-1/jpeg/jidctint.c **** 
 695:fltk-1.3.4-1/jpeg/jidctint.c **** /*
 696:fltk-1.3.4-1/jpeg/jidctint.c ****  * Perform dequantization and inverse DCT on one block of coefficients,
 697:fltk-1.3.4-1/jpeg/jidctint.c ****  * producing a reduced-size 5x5 output block.
 698:fltk-1.3.4-1/jpeg/jidctint.c ****  *
 699:fltk-1.3.4-1/jpeg/jidctint.c ****  * Optimized algorithm with 5 multiplications in the 1-D kernel.
 700:fltk-1.3.4-1/jpeg/jidctint.c ****  * cK represents sqrt(2) * cos(K*pi/10).
 701:fltk-1.3.4-1/jpeg/jidctint.c ****  */
 702:fltk-1.3.4-1/jpeg/jidctint.c **** 
 703:fltk-1.3.4-1/jpeg/jidctint.c **** GLOBAL(void)
 704:fltk-1.3.4-1/jpeg/jidctint.c **** jpeg_idct_5x5 (j_decompress_ptr cinfo, jpeg_component_info * compptr,
 705:fltk-1.3.4-1/jpeg/jidctint.c **** 	       JCOEFPTR coef_block,
 706:fltk-1.3.4-1/jpeg/jidctint.c **** 	       JSAMPARRAY output_buf, JDIMENSION output_col)
 707:fltk-1.3.4-1/jpeg/jidctint.c **** {
 1615              		.loc 1 707 0
 1616              		.cfi_startproc
 1617              	.LVL228:
 1618 0000 4156     		pushq	%r14
 1619              		.cfi_def_cfa_offset 16
 1620              		.cfi_offset 14, -16
 1621 0002 4155     		pushq	%r13
 1622              		.cfi_def_cfa_offset 24
 1623              		.cfi_offset 13, -24
 1624 0004 4154     		pushq	%r12
 1625              		.cfi_def_cfa_offset 32
 1626              		.cfi_offset 12, -32
 1627 0006 55       		pushq	%rbp
 1628              		.cfi_def_cfa_offset 40
 1629              		.cfi_offset 6, -40
 1630 0007 4C8D620A 		leaq	10(%rdx), %r12
 1631 000b 53       		pushq	%rbx
 1632              		.cfi_def_cfa_offset 48
 1633              		.cfi_offset 3, -48
 1634 000c 4883EC70 		subq	$112, %rsp
 1635              		.cfi_def_cfa_offset 160
 708:fltk-1.3.4-1/jpeg/jidctint.c ****   INT32 tmp0, tmp1, tmp10, tmp11, tmp12;
 709:fltk-1.3.4-1/jpeg/jidctint.c ****   INT32 z1, z2, z3;
 710:fltk-1.3.4-1/jpeg/jidctint.c ****   JCOEFPTR inptr;
 711:fltk-1.3.4-1/jpeg/jidctint.c ****   ISLOW_MULT_TYPE * quantptr;
 712:fltk-1.3.4-1/jpeg/jidctint.c ****   int * wsptr;
 713:fltk-1.3.4-1/jpeg/jidctint.c ****   JSAMPROW outptr;
 714:fltk-1.3.4-1/jpeg/jidctint.c ****   JSAMPLE *range_limit = IDCT_range_limit(cinfo);
 1636              		.loc 1 714 0
 1637 0010 4C8B97B8 		movq	440(%rdi), %r10
 1637      010000
 715:fltk-1.3.4-1/jpeg/jidctint.c ****   int ctr;
 716:fltk-1.3.4-1/jpeg/jidctint.c ****   int workspace[5*5];	/* buffers data between passes */
 717:fltk-1.3.4-1/jpeg/jidctint.c ****   SHIFT_TEMPS
 718:fltk-1.3.4-1/jpeg/jidctint.c **** 
 719:fltk-1.3.4-1/jpeg/jidctint.c ****   /* Pass 1: process columns from input, store into work array. */
 720:fltk-1.3.4-1/jpeg/jidctint.c **** 
 721:fltk-1.3.4-1/jpeg/jidctint.c ****   inptr = coef_block;
 722:fltk-1.3.4-1/jpeg/jidctint.c ****   quantptr = (ISLOW_MULT_TYPE *) compptr->dct_table;
 1638              		.loc 1 722 0
 1639 0017 488B6E58 		movq	88(%rsi), %rbp
 707:fltk-1.3.4-1/jpeg/jidctint.c ****   INT32 tmp0, tmp1, tmp10, tmp11, tmp12;
 1640              		.loc 1 707 0
 1641 001b 64488B04 		movq	%fs:40, %rax
 1641      25280000 
 1641      00
 1642 0024 48894424 		movq	%rax, 104(%rsp)
 1642      68
 1643 0029 31C0     		xorl	%eax, %eax
 723:fltk-1.3.4-1/jpeg/jidctint.c ****   wsptr = workspace;
 1644              		.loc 1 723 0
 1645 002b 4889E3   		movq	%rsp, %rbx
 714:fltk-1.3.4-1/jpeg/jidctint.c ****   int ctr;
 1646              		.loc 1 714 0
 1647 002e 4983EA80 		subq	$-128, %r10
 1648              	.LVL229:
 1649              	.L53:
 724:fltk-1.3.4-1/jpeg/jidctint.c ****   for (ctr = 0; ctr < 5; ctr++, inptr++, quantptr++, wsptr++) {
 725:fltk-1.3.4-1/jpeg/jidctint.c ****     /* Even part */
 726:fltk-1.3.4-1/jpeg/jidctint.c **** 
 727:fltk-1.3.4-1/jpeg/jidctint.c ****     tmp12 = DEQUANTIZE(inptr[DCTSIZE*0], quantptr[DCTSIZE*0]);
 728:fltk-1.3.4-1/jpeg/jidctint.c ****     tmp12 <<= CONST_BITS;
 729:fltk-1.3.4-1/jpeg/jidctint.c ****     /* Add fudge factor here for final descale. */
 730:fltk-1.3.4-1/jpeg/jidctint.c ****     tmp12 += ONE << (CONST_BITS-PASS1_BITS-1);
 731:fltk-1.3.4-1/jpeg/jidctint.c ****     tmp0 = DEQUANTIZE(inptr[DCTSIZE*2], quantptr[DCTSIZE*2]);
 1650              		.loc 1 731 0 discriminator 3
 1651 0032 0FBF7220 		movswl	32(%rdx), %esi
 732:fltk-1.3.4-1/jpeg/jidctint.c ****     tmp1 = DEQUANTIZE(inptr[DCTSIZE*4], quantptr[DCTSIZE*4]);
 1652              		.loc 1 732 0 discriminator 3
 1653 0036 0FBF7A40 		movswl	64(%rdx), %edi
 724:fltk-1.3.4-1/jpeg/jidctint.c ****   for (ctr = 0; ctr < 5; ctr++, inptr++, quantptr++, wsptr++) {
 1654              		.loc 1 724 0 discriminator 3
 1655 003a 4883C202 		addq	$2, %rdx
 1656              	.LVL230:
 731:fltk-1.3.4-1/jpeg/jidctint.c ****     tmp1 = DEQUANTIZE(inptr[DCTSIZE*4], quantptr[DCTSIZE*4]);
 1657              		.loc 1 731 0 discriminator 3
 1658 003e 0FAF7540 		imull	64(%rbp), %esi
 1659              		.loc 1 732 0 discriminator 3
 1660 0042 0FAFBD80 		imull	128(%rbp), %edi
 1660      000000
 727:fltk-1.3.4-1/jpeg/jidctint.c ****     tmp12 <<= CONST_BITS;
 1661              		.loc 1 727 0 discriminator 3
 1662 0049 0FBF42FE 		movswl	-2(%rdx), %eax
 724:fltk-1.3.4-1/jpeg/jidctint.c ****     /* Even part */
 1663              		.loc 1 724 0 discriminator 3
 1664 004d 4883C504 		addq	$4, %rbp
 1665              	.LVL231:
 1666 0051 4883C304 		addq	$4, %rbx
 1667              	.LVL232:
 727:fltk-1.3.4-1/jpeg/jidctint.c ****     tmp12 <<= CONST_BITS;
 1668              		.loc 1 727 0 discriminator 3
 1669 0055 0FAF45FC 		imull	-4(%rbp), %eax
 731:fltk-1.3.4-1/jpeg/jidctint.c ****     tmp1 = DEQUANTIZE(inptr[DCTSIZE*4], quantptr[DCTSIZE*4]);
 1670              		.loc 1 731 0 discriminator 3
 1671 0059 4863F6   		movslq	%esi, %rsi
 1672              		.loc 1 732 0 discriminator 3
 1673 005c 4863FF   		movslq	%edi, %rdi
 733:fltk-1.3.4-1/jpeg/jidctint.c ****     z1 = MULTIPLY(tmp0 + tmp1, FIX(0.790569415)); /* (c2+c4)/2 */
 1674              		.loc 1 733 0 discriminator 3
 1675 005f 4C8D0C3E 		leaq	(%rsi,%rdi), %r9
 734:fltk-1.3.4-1/jpeg/jidctint.c ****     z2 = MULTIPLY(tmp0 - tmp1, FIX(0.353553391)); /* (c2-c4)/2 */
 1676              		.loc 1 734 0 discriminator 3
 1677 0063 4829FE   		subq	%rdi, %rsi
 735:fltk-1.3.4-1/jpeg/jidctint.c ****     z3 = tmp12 + z2;
 736:fltk-1.3.4-1/jpeg/jidctint.c ****     tmp10 = z3 + z1;
 737:fltk-1.3.4-1/jpeg/jidctint.c ****     tmp11 = z3 - z1;
 738:fltk-1.3.4-1/jpeg/jidctint.c ****     tmp12 -= z2 << 2;
 739:fltk-1.3.4-1/jpeg/jidctint.c **** 
 740:fltk-1.3.4-1/jpeg/jidctint.c ****     /* Odd part */
 741:fltk-1.3.4-1/jpeg/jidctint.c **** 
 742:fltk-1.3.4-1/jpeg/jidctint.c ****     z2 = DEQUANTIZE(inptr[DCTSIZE*1], quantptr[DCTSIZE*1]);
 743:fltk-1.3.4-1/jpeg/jidctint.c ****     z3 = DEQUANTIZE(inptr[DCTSIZE*3], quantptr[DCTSIZE*3]);
 1678              		.loc 1 743 0 discriminator 3
 1679 0066 0FBF7A2E 		movswl	46(%rdx), %edi
 734:fltk-1.3.4-1/jpeg/jidctint.c ****     z2 = MULTIPLY(tmp0 - tmp1, FIX(0.353553391)); /* (c2-c4)/2 */
 1680              		.loc 1 734 0 discriminator 3
 1681 006a 4869F650 		imulq	$2896, %rsi, %rsi
 1681      0B0000
 727:fltk-1.3.4-1/jpeg/jidctint.c ****     tmp12 <<= CONST_BITS;
 1682              		.loc 1 727 0 discriminator 3
 1683 0071 4898     		cltq
 1684              	.LVL233:
 733:fltk-1.3.4-1/jpeg/jidctint.c ****     z2 = MULTIPLY(tmp0 - tmp1, FIX(0.353553391)); /* (c2-c4)/2 */
 1685              		.loc 1 733 0 discriminator 3
 1686 0073 4D69C94C 		imulq	$6476, %r9, %r9
 1686      190000
 728:fltk-1.3.4-1/jpeg/jidctint.c ****     /* Add fudge factor here for final descale. */
 1687              		.loc 1 728 0 discriminator 3
 1688 007a 48C1E00D 		salq	$13, %rax
 1689              	.LVL234:
 730:fltk-1.3.4-1/jpeg/jidctint.c ****     tmp0 = DEQUANTIZE(inptr[DCTSIZE*2], quantptr[DCTSIZE*2]);
 1690              		.loc 1 730 0 discriminator 3
 1691 007e 48050004 		addq	$1024, %rax
 1691      0000
 1692              	.LVL235:
 1693              		.loc 1 743 0 discriminator 3
 1694 0084 0FAF7D5C 		imull	92(%rbp), %edi
 735:fltk-1.3.4-1/jpeg/jidctint.c ****     tmp10 = z3 + z1;
 1695              		.loc 1 735 0 discriminator 3
 1696 0088 4C8D1C30 		leaq	(%rax,%rsi), %r11
 1697              	.LVL236:
 744:fltk-1.3.4-1/jpeg/jidctint.c **** 
 745:fltk-1.3.4-1/jpeg/jidctint.c ****     z1 = MULTIPLY(z2 + z3, FIX(0.831253876));     /* c3 */
 746:fltk-1.3.4-1/jpeg/jidctint.c ****     tmp0 = z1 + MULTIPLY(z2, FIX(0.513743148));   /* c1-c3 */
 747:fltk-1.3.4-1/jpeg/jidctint.c ****     tmp1 = z1 - MULTIPLY(z3, FIX(2.176250899));   /* c1+c3 */
 748:fltk-1.3.4-1/jpeg/jidctint.c **** 
 749:fltk-1.3.4-1/jpeg/jidctint.c ****     /* Final output stage */
 750:fltk-1.3.4-1/jpeg/jidctint.c **** 
 751:fltk-1.3.4-1/jpeg/jidctint.c ****     wsptr[5*0] = (int) RIGHT_SHIFT(tmp10 + tmp0, CONST_BITS-PASS1_BITS);
 752:fltk-1.3.4-1/jpeg/jidctint.c ****     wsptr[5*4] = (int) RIGHT_SHIFT(tmp10 - tmp0, CONST_BITS-PASS1_BITS);
 753:fltk-1.3.4-1/jpeg/jidctint.c ****     wsptr[5*1] = (int) RIGHT_SHIFT(tmp11 + tmp1, CONST_BITS-PASS1_BITS);
 754:fltk-1.3.4-1/jpeg/jidctint.c ****     wsptr[5*3] = (int) RIGHT_SHIFT(tmp11 - tmp1, CONST_BITS-PASS1_BITS);
 755:fltk-1.3.4-1/jpeg/jidctint.c ****     wsptr[5*2] = (int) RIGHT_SHIFT(tmp12, CONST_BITS-PASS1_BITS);
 1698              		.loc 1 755 0 discriminator 3
 1699 008c 48C1E602 		salq	$2, %rsi
 1700              	.LVL237:
 1701 0090 4829F0   		subq	%rsi, %rax
 1702              	.LVL238:
 736:fltk-1.3.4-1/jpeg/jidctint.c ****     tmp11 = z3 - z1;
 1703              		.loc 1 736 0 discriminator 3
 1704 0093 4F8D2C19 		leaq	(%r9,%r11), %r13
 1705              	.LVL239:
 737:fltk-1.3.4-1/jpeg/jidctint.c ****     tmp12 -= z2 << 2;
 1706              		.loc 1 737 0 discriminator 3
 1707 0097 4D29CB   		subq	%r9, %r11
 1708              	.LVL240:
 742:fltk-1.3.4-1/jpeg/jidctint.c ****     z3 = DEQUANTIZE(inptr[DCTSIZE*3], quantptr[DCTSIZE*3]);
 1709              		.loc 1 742 0 discriminator 3
 1710 009a 440FBF4A 		movswl	14(%rdx), %r9d
 1710      0E
 1711              	.LVL241:
 1712 009f 440FAF4D 		imull	28(%rbp), %r9d
 1712      1C
 1713              		.loc 1 755 0 discriminator 3
 1714 00a4 48C1F80B 		sarq	$11, %rax
 743:fltk-1.3.4-1/jpeg/jidctint.c **** 
 1715              		.loc 1 743 0 discriminator 3
 1716 00a8 4863FF   		movslq	%edi, %rdi
 1717              		.loc 1 755 0 discriminator 3
 1718 00ab 894324   		movl	%eax, 36(%rbx)
 742:fltk-1.3.4-1/jpeg/jidctint.c ****     z3 = DEQUANTIZE(inptr[DCTSIZE*3], quantptr[DCTSIZE*3]);
 1719              		.loc 1 742 0 discriminator 3
 1720 00ae 4D63C9   		movslq	%r9d, %r9
 1721              	.LVL242:
 745:fltk-1.3.4-1/jpeg/jidctint.c ****     tmp0 = z1 + MULTIPLY(z2, FIX(0.513743148));   /* c1-c3 */
 1722              		.loc 1 745 0 discriminator 3
 1723 00b1 4D8D3439 		leaq	(%r9,%rdi), %r14
 746:fltk-1.3.4-1/jpeg/jidctint.c ****     tmp1 = z1 - MULTIPLY(z3, FIX(2.176250899));   /* c1+c3 */
 1724              		.loc 1 746 0 discriminator 3
 1725 00b5 4D69C971 		imulq	$4209, %r9, %r9
 1725      100000
 1726              	.LVL243:
 745:fltk-1.3.4-1/jpeg/jidctint.c ****     tmp0 = z1 + MULTIPLY(z2, FIX(0.513743148));   /* c1-c3 */
 1727              		.loc 1 745 0 discriminator 3
 1728 00bc 4D69F69A 		imulq	$6810, %r14, %r14
 1728      1A0000
 1729              	.LVL244:
 747:fltk-1.3.4-1/jpeg/jidctint.c **** 
 1730              		.loc 1 747 0 discriminator 3
 1731 00c3 4869FF5C 		imulq	$-17828, %rdi, %rdi
 1731      BAFFFF
 1732              	.LVL245:
 746:fltk-1.3.4-1/jpeg/jidctint.c ****     tmp1 = z1 - MULTIPLY(z3, FIX(2.176250899));   /* c1+c3 */
 1733              		.loc 1 746 0 discriminator 3
 1734 00ca 4D01F1   		addq	%r14, %r9
 1735              	.LVL246:
 747:fltk-1.3.4-1/jpeg/jidctint.c **** 
 1736              		.loc 1 747 0 discriminator 3
 1737 00cd 4C01F7   		addq	%r14, %rdi
 1738              	.LVL247:
 751:fltk-1.3.4-1/jpeg/jidctint.c ****     wsptr[5*4] = (int) RIGHT_SHIFT(tmp10 - tmp0, CONST_BITS-PASS1_BITS);
 1739              		.loc 1 751 0 discriminator 3
 1740 00d0 4F8D740D 		leaq	0(%r13,%r9), %r14
 1740      00
 1741              	.LVL248:
 752:fltk-1.3.4-1/jpeg/jidctint.c ****     wsptr[5*1] = (int) RIGHT_SHIFT(tmp11 + tmp1, CONST_BITS-PASS1_BITS);
 1742              		.loc 1 752 0 discriminator 3
 1743 00d5 4D29CD   		subq	%r9, %r13
 1744              	.LVL249:
 753:fltk-1.3.4-1/jpeg/jidctint.c ****     wsptr[5*3] = (int) RIGHT_SHIFT(tmp11 - tmp1, CONST_BITS-PASS1_BITS);
 1745              		.loc 1 753 0 discriminator 3
 1746 00d8 4D8D0C3B 		leaq	(%r11,%rdi), %r9
 1747              	.LVL250:
 754:fltk-1.3.4-1/jpeg/jidctint.c ****     wsptr[5*2] = (int) RIGHT_SHIFT(tmp12, CONST_BITS-PASS1_BITS);
 1748              		.loc 1 754 0 discriminator 3
 1749 00dc 4929FB   		subq	%rdi, %r11
 1750              	.LVL251:
 752:fltk-1.3.4-1/jpeg/jidctint.c ****     wsptr[5*1] = (int) RIGHT_SHIFT(tmp11 + tmp1, CONST_BITS-PASS1_BITS);
 1751              		.loc 1 752 0 discriminator 3
 1752 00df 49C1FD0B 		sarq	$11, %r13
 751:fltk-1.3.4-1/jpeg/jidctint.c ****     wsptr[5*4] = (int) RIGHT_SHIFT(tmp10 - tmp0, CONST_BITS-PASS1_BITS);
 1753              		.loc 1 751 0 discriminator 3
 1754 00e3 49C1FE0B 		sarq	$11, %r14
 754:fltk-1.3.4-1/jpeg/jidctint.c ****     wsptr[5*2] = (int) RIGHT_SHIFT(tmp12, CONST_BITS-PASS1_BITS);
 1755              		.loc 1 754 0 discriminator 3
 1756 00e7 49C1FB0B 		sarq	$11, %r11
 752:fltk-1.3.4-1/jpeg/jidctint.c ****     wsptr[5*1] = (int) RIGHT_SHIFT(tmp11 + tmp1, CONST_BITS-PASS1_BITS);
 1757              		.loc 1 752 0 discriminator 3
 1758 00eb 44896B4C 		movl	%r13d, 76(%rbx)
 753:fltk-1.3.4-1/jpeg/jidctint.c ****     wsptr[5*3] = (int) RIGHT_SHIFT(tmp11 - tmp1, CONST_BITS-PASS1_BITS);
 1759              		.loc 1 753 0 discriminator 3
 1760 00ef 49C1F90B 		sarq	$11, %r9
 751:fltk-1.3.4-1/jpeg/jidctint.c ****     wsptr[5*4] = (int) RIGHT_SHIFT(tmp10 - tmp0, CONST_BITS-PASS1_BITS);
 1761              		.loc 1 751 0 discriminator 3
 1762 00f3 448973FC 		movl	%r14d, -4(%rbx)
 754:fltk-1.3.4-1/jpeg/jidctint.c ****     wsptr[5*2] = (int) RIGHT_SHIFT(tmp12, CONST_BITS-PASS1_BITS);
 1763              		.loc 1 754 0 discriminator 3
 1764 00f7 44895B38 		movl	%r11d, 56(%rbx)
 753:fltk-1.3.4-1/jpeg/jidctint.c ****     wsptr[5*3] = (int) RIGHT_SHIFT(tmp11 - tmp1, CONST_BITS-PASS1_BITS);
 1765              		.loc 1 753 0 discriminator 3
 1766 00fb 44894B10 		movl	%r9d, 16(%rbx)
 1767              	.LVL252:
 724:fltk-1.3.4-1/jpeg/jidctint.c ****     /* Even part */
 1768              		.loc 1 724 0 discriminator 3
 1769 00ff 4C39E2   		cmpq	%r12, %rdx
 1770 0102 0F852AFF 		jne	.L53
 1770      FFFF
 756:fltk-1.3.4-1/jpeg/jidctint.c ****   }
 757:fltk-1.3.4-1/jpeg/jidctint.c **** 
 758:fltk-1.3.4-1/jpeg/jidctint.c ****   /* Pass 2: process 5 rows from work array, store into output array. */
 759:fltk-1.3.4-1/jpeg/jidctint.c **** 
 760:fltk-1.3.4-1/jpeg/jidctint.c ****   wsptr = workspace;
 761:fltk-1.3.4-1/jpeg/jidctint.c ****   for (ctr = 0; ctr < 5; ctr++) {
 1771              		.loc 1 761 0
 1772 0108 4C8D5C24 		leaq	100(%rsp), %r11
 1772      64
 1773 010d 4589C0   		movl	%r8d, %r8d
 724:fltk-1.3.4-1/jpeg/jidctint.c ****     /* Even part */
 1774              		.loc 1 724 0
 1775 0110 4889E7   		movq	%rsp, %rdi
 1776              	.LVL253:
 1777              	.L54:
 762:fltk-1.3.4-1/jpeg/jidctint.c ****     outptr = output_buf[ctr] + output_col;
 763:fltk-1.3.4-1/jpeg/jidctint.c **** 
 764:fltk-1.3.4-1/jpeg/jidctint.c ****     /* Even part */
 765:fltk-1.3.4-1/jpeg/jidctint.c **** 
 766:fltk-1.3.4-1/jpeg/jidctint.c ****     /* Add fudge factor here for final descale. */
 767:fltk-1.3.4-1/jpeg/jidctint.c ****     tmp12 = (INT32) wsptr[0] + (ONE << (PASS1_BITS+2));
 768:fltk-1.3.4-1/jpeg/jidctint.c ****     tmp12 <<= CONST_BITS;
 769:fltk-1.3.4-1/jpeg/jidctint.c ****     tmp0 = (INT32) wsptr[2];
 770:fltk-1.3.4-1/jpeg/jidctint.c ****     tmp1 = (INT32) wsptr[4];
 1778              		.loc 1 770 0 discriminator 3
 1779 0113 48635710 		movslq	16(%rdi), %rdx
 769:fltk-1.3.4-1/jpeg/jidctint.c ****     tmp1 = (INT32) wsptr[4];
 1780              		.loc 1 769 0 discriminator 3
 1781 0117 48635F08 		movslq	8(%rdi), %rbx
 762:fltk-1.3.4-1/jpeg/jidctint.c ****     outptr = output_buf[ctr] + output_col;
 1782              		.loc 1 762 0 discriminator 3
 1783 011b 4D89C1   		movq	%r8, %r9
 767:fltk-1.3.4-1/jpeg/jidctint.c ****     tmp12 <<= CONST_BITS;
 1784              		.loc 1 767 0 discriminator 3
 1785 011e 486307   		movslq	(%rdi), %rax
 771:fltk-1.3.4-1/jpeg/jidctint.c ****     z1 = MULTIPLY(tmp0 + tmp1, FIX(0.790569415)); /* (c2+c4)/2 */
 772:fltk-1.3.4-1/jpeg/jidctint.c ****     z2 = MULTIPLY(tmp0 - tmp1, FIX(0.353553391)); /* (c2-c4)/2 */
 773:fltk-1.3.4-1/jpeg/jidctint.c ****     z3 = tmp12 + z2;
 774:fltk-1.3.4-1/jpeg/jidctint.c ****     tmp10 = z3 + z1;
 775:fltk-1.3.4-1/jpeg/jidctint.c ****     tmp11 = z3 - z1;
 776:fltk-1.3.4-1/jpeg/jidctint.c ****     tmp12 -= z2 << 2;
 777:fltk-1.3.4-1/jpeg/jidctint.c **** 
 778:fltk-1.3.4-1/jpeg/jidctint.c ****     /* Odd part */
 779:fltk-1.3.4-1/jpeg/jidctint.c **** 
 780:fltk-1.3.4-1/jpeg/jidctint.c ****     z2 = (INT32) wsptr[1];
 1786              		.loc 1 780 0 discriminator 3
 1787 0121 4C636704 		movslq	4(%rdi), %r12
 781:fltk-1.3.4-1/jpeg/jidctint.c ****     z3 = (INT32) wsptr[3];
 782:fltk-1.3.4-1/jpeg/jidctint.c **** 
 783:fltk-1.3.4-1/jpeg/jidctint.c ****     z1 = MULTIPLY(z2 + z3, FIX(0.831253876));     /* c3 */
 784:fltk-1.3.4-1/jpeg/jidctint.c ****     tmp0 = z1 + MULTIPLY(z2, FIX(0.513743148));   /* c1-c3 */
 785:fltk-1.3.4-1/jpeg/jidctint.c ****     tmp1 = z1 - MULTIPLY(z3, FIX(2.176250899));   /* c1+c3 */
 786:fltk-1.3.4-1/jpeg/jidctint.c **** 
 787:fltk-1.3.4-1/jpeg/jidctint.c ****     /* Final output stage */
 788:fltk-1.3.4-1/jpeg/jidctint.c **** 
 789:fltk-1.3.4-1/jpeg/jidctint.c ****     outptr[0] = range_limit[(int) RIGHT_SHIFT(tmp10 + tmp0,
 790:fltk-1.3.4-1/jpeg/jidctint.c **** 					      CONST_BITS+PASS1_BITS+3)
 791:fltk-1.3.4-1/jpeg/jidctint.c **** 			    & RANGE_MASK];
 792:fltk-1.3.4-1/jpeg/jidctint.c ****     outptr[4] = range_limit[(int) RIGHT_SHIFT(tmp10 - tmp0,
 793:fltk-1.3.4-1/jpeg/jidctint.c **** 					      CONST_BITS+PASS1_BITS+3)
 794:fltk-1.3.4-1/jpeg/jidctint.c **** 			    & RANGE_MASK];
 795:fltk-1.3.4-1/jpeg/jidctint.c ****     outptr[1] = range_limit[(int) RIGHT_SHIFT(tmp11 + tmp1,
 796:fltk-1.3.4-1/jpeg/jidctint.c **** 					      CONST_BITS+PASS1_BITS+3)
 797:fltk-1.3.4-1/jpeg/jidctint.c **** 			    & RANGE_MASK];
 798:fltk-1.3.4-1/jpeg/jidctint.c ****     outptr[3] = range_limit[(int) RIGHT_SHIFT(tmp11 - tmp1,
 799:fltk-1.3.4-1/jpeg/jidctint.c **** 					      CONST_BITS+PASS1_BITS+3)
 800:fltk-1.3.4-1/jpeg/jidctint.c **** 			    & RANGE_MASK];
 801:fltk-1.3.4-1/jpeg/jidctint.c ****     outptr[2] = range_limit[(int) RIGHT_SHIFT(tmp12,
 802:fltk-1.3.4-1/jpeg/jidctint.c **** 					      CONST_BITS+PASS1_BITS+3)
 803:fltk-1.3.4-1/jpeg/jidctint.c **** 			    & RANGE_MASK];
 804:fltk-1.3.4-1/jpeg/jidctint.c **** 
 805:fltk-1.3.4-1/jpeg/jidctint.c ****     wsptr += 5;		/* advance pointer to next row */
 1788              		.loc 1 805 0 discriminator 3
 1789 0125 4883C714 		addq	$20, %rdi
 1790              	.LVL254:
 781:fltk-1.3.4-1/jpeg/jidctint.c ****     z3 = (INT32) wsptr[3];
 1791              		.loc 1 781 0 discriminator 3
 1792 0129 4C6377F8 		movslq	-8(%rdi), %r14
 762:fltk-1.3.4-1/jpeg/jidctint.c **** 
 1793              		.loc 1 762 0 discriminator 3
 1794 012d 4C0309   		addq	(%rcx), %r9
 1795              	.LVL255:
 1796 0130 4883C108 		addq	$8, %rcx
 771:fltk-1.3.4-1/jpeg/jidctint.c ****     z1 = MULTIPLY(tmp0 + tmp1, FIX(0.790569415)); /* (c2+c4)/2 */
 1797              		.loc 1 771 0 discriminator 3
 1798 0134 488D2C13 		leaq	(%rbx,%rdx), %rbp
 772:fltk-1.3.4-1/jpeg/jidctint.c ****     z3 = tmp12 + z2;
 1799              		.loc 1 772 0 discriminator 3
 1800 0138 4829D3   		subq	%rdx, %rbx
 1801 013b 4869DB50 		imulq	$2896, %rbx, %rbx
 1801      0B0000
 767:fltk-1.3.4-1/jpeg/jidctint.c ****     tmp12 <<= CONST_BITS;
 1802              		.loc 1 767 0 discriminator 3
 1803 0142 4883C010 		addq	$16, %rax
 1804              	.LVL256:
 771:fltk-1.3.4-1/jpeg/jidctint.c ****     z2 = MULTIPLY(tmp0 - tmp1, FIX(0.353553391)); /* (c2-c4)/2 */
 1805              		.loc 1 771 0 discriminator 3
 1806 0146 4869ED4C 		imulq	$6476, %rbp, %rbp
 1806      190000
 768:fltk-1.3.4-1/jpeg/jidctint.c ****     tmp0 = (INT32) wsptr[2];
 1807              		.loc 1 768 0 discriminator 3
 1808 014d 48C1E00D 		salq	$13, %rax
 1809              	.LVL257:
 773:fltk-1.3.4-1/jpeg/jidctint.c ****     tmp10 = z3 + z1;
 1810              		.loc 1 773 0 discriminator 3
 1811 0151 488D1418 		leaq	(%rax,%rbx), %rdx
 1812              	.LVL258:
 801:fltk-1.3.4-1/jpeg/jidctint.c **** 					      CONST_BITS+PASS1_BITS+3)
 1813              		.loc 1 801 0 discriminator 3
 1814 0155 48C1E302 		salq	$2, %rbx
 1815              	.LVL259:
 1816 0159 4829D8   		subq	%rbx, %rax
 1817              	.LVL260:
 774:fltk-1.3.4-1/jpeg/jidctint.c ****     tmp11 = z3 - z1;
 1818              		.loc 1 774 0 discriminator 3
 1819 015c 488D7415 		leaq	0(%rbp,%rdx), %rsi
 1819      00
 1820              	.LVL261:
 775:fltk-1.3.4-1/jpeg/jidctint.c ****     tmp12 -= z2 << 2;
 1821              		.loc 1 775 0 discriminator 3
 1822 0161 4829EA   		subq	%rbp, %rdx
 1823              	.LVL262:
 783:fltk-1.3.4-1/jpeg/jidctint.c ****     tmp0 = z1 + MULTIPLY(z2, FIX(0.513743148));   /* c1-c3 */
 1824              		.loc 1 783 0 discriminator 3
 1825 0164 4B8D2C34 		leaq	(%r12,%r14), %rbp
 1826              	.LVL263:
 784:fltk-1.3.4-1/jpeg/jidctint.c ****     tmp1 = z1 - MULTIPLY(z3, FIX(2.176250899));   /* c1+c3 */
 1827              		.loc 1 784 0 discriminator 3
 1828 0168 4D69E471 		imulq	$4209, %r12, %r12
 1828      100000
 1829              	.LVL264:
 801:fltk-1.3.4-1/jpeg/jidctint.c **** 					      CONST_BITS+PASS1_BITS+3)
 1830              		.loc 1 801 0 discriminator 3
 1831 016f 48C1F812 		sarq	$18, %rax
 783:fltk-1.3.4-1/jpeg/jidctint.c ****     tmp0 = z1 + MULTIPLY(z2, FIX(0.513743148));   /* c1-c3 */
 1832              		.loc 1 783 0 discriminator 3
 1833 0173 4C69ED9A 		imulq	$6810, %rbp, %r13
 1833      1A0000
 1834              	.LVL265:
 801:fltk-1.3.4-1/jpeg/jidctint.c **** 					      CONST_BITS+PASS1_BITS+3)
 1835              		.loc 1 801 0 discriminator 3
 1836 017a 25FF0300 		andl	$1023, %eax
 1836      00
 785:fltk-1.3.4-1/jpeg/jidctint.c **** 
 1837              		.loc 1 785 0 discriminator 3
 1838 017f 4969EE5C 		imulq	$-17828, %r14, %rbp
 1838      BAFFFF
 784:fltk-1.3.4-1/jpeg/jidctint.c ****     tmp1 = z1 - MULTIPLY(z3, FIX(2.176250899));   /* c1+c3 */
 1839              		.loc 1 784 0 discriminator 3
 1840 0186 4D01EC   		addq	%r13, %r12
 1841              	.LVL266:
 785:fltk-1.3.4-1/jpeg/jidctint.c **** 
 1842              		.loc 1 785 0 discriminator 3
 1843 0189 4C01ED   		addq	%r13, %rbp
 1844              	.LVL267:
 789:fltk-1.3.4-1/jpeg/jidctint.c **** 					      CONST_BITS+PASS1_BITS+3)
 1845              		.loc 1 789 0 discriminator 3
 1846 018c 4E8D2C26 		leaq	(%rsi,%r12), %r13
 1847              	.LVL268:
 792:fltk-1.3.4-1/jpeg/jidctint.c **** 					      CONST_BITS+PASS1_BITS+3)
 1848              		.loc 1 792 0 discriminator 3
 1849 0190 4C29E6   		subq	%r12, %rsi
 1850              	.LVL269:
 1851 0193 48C1FE12 		sarq	$18, %rsi
 789:fltk-1.3.4-1/jpeg/jidctint.c **** 					      CONST_BITS+PASS1_BITS+3)
 1852              		.loc 1 789 0 discriminator 3
 1853 0197 49C1FD12 		sarq	$18, %r13
 792:fltk-1.3.4-1/jpeg/jidctint.c **** 					      CONST_BITS+PASS1_BITS+3)
 1854              		.loc 1 792 0 discriminator 3
 1855 019b 81E6FF03 		andl	$1023, %esi
 1855      0000
 789:fltk-1.3.4-1/jpeg/jidctint.c **** 					      CONST_BITS+PASS1_BITS+3)
 1856              		.loc 1 789 0 discriminator 3
 1857 01a1 4181E5FF 		andl	$1023, %r13d
 1857      030000
 1858 01a8 470FB62C 		movzbl	(%r10,%r13), %r13d
 1858      2A
 1859 01ad 458829   		movb	%r13b, (%r9)
 792:fltk-1.3.4-1/jpeg/jidctint.c **** 					      CONST_BITS+PASS1_BITS+3)
 1860              		.loc 1 792 0 discriminator 3
 1861 01b0 410FB634 		movzbl	(%r10,%rsi), %esi
 1861      32
 1862 01b5 41887104 		movb	%sil, 4(%r9)
 795:fltk-1.3.4-1/jpeg/jidctint.c **** 					      CONST_BITS+PASS1_BITS+3)
 1863              		.loc 1 795 0 discriminator 3
 1864 01b9 488D342A 		leaq	(%rdx,%rbp), %rsi
 798:fltk-1.3.4-1/jpeg/jidctint.c **** 					      CONST_BITS+PASS1_BITS+3)
 1865              		.loc 1 798 0 discriminator 3
 1866 01bd 4829EA   		subq	%rbp, %rdx
 1867              	.LVL270:
 1868 01c0 48C1FA12 		sarq	$18, %rdx
 795:fltk-1.3.4-1/jpeg/jidctint.c **** 					      CONST_BITS+PASS1_BITS+3)
 1869              		.loc 1 795 0 discriminator 3
 1870 01c4 48C1FE12 		sarq	$18, %rsi
 798:fltk-1.3.4-1/jpeg/jidctint.c **** 					      CONST_BITS+PASS1_BITS+3)
 1871              		.loc 1 798 0 discriminator 3
 1872 01c8 81E2FF03 		andl	$1023, %edx
 1872      0000
 795:fltk-1.3.4-1/jpeg/jidctint.c **** 					      CONST_BITS+PASS1_BITS+3)
 1873              		.loc 1 795 0 discriminator 3
 1874 01ce 81E6FF03 		andl	$1023, %esi
 1874      0000
 761:fltk-1.3.4-1/jpeg/jidctint.c ****     outptr = output_buf[ctr] + output_col;
 1875              		.loc 1 761 0 discriminator 3
 1876 01d4 4C39DF   		cmpq	%r11, %rdi
 795:fltk-1.3.4-1/jpeg/jidctint.c **** 					      CONST_BITS+PASS1_BITS+3)
 1877              		.loc 1 795 0 discriminator 3
 1878 01d7 410FB634 		movzbl	(%r10,%rsi), %esi
 1878      32
 1879 01dc 41887101 		movb	%sil, 1(%r9)
 798:fltk-1.3.4-1/jpeg/jidctint.c **** 					      CONST_BITS+PASS1_BITS+3)
 1880              		.loc 1 798 0 discriminator 3
 1881 01e0 410FB614 		movzbl	(%r10,%rdx), %edx
 1881      12
 1882 01e5 41885103 		movb	%dl, 3(%r9)
 801:fltk-1.3.4-1/jpeg/jidctint.c **** 					      CONST_BITS+PASS1_BITS+3)
 1883              		.loc 1 801 0 discriminator 3
 1884 01e9 410FB604 		movzbl	(%r10,%rax), %eax
 1884      02
 1885 01ee 41884102 		movb	%al, 2(%r9)
 761:fltk-1.3.4-1/jpeg/jidctint.c ****     outptr = output_buf[ctr] + output_col;
 1886              		.loc 1 761 0 discriminator 3
 1887 01f2 0F851BFF 		jne	.L54
 1887      FFFF
 806:fltk-1.3.4-1/jpeg/jidctint.c ****   }
 807:fltk-1.3.4-1/jpeg/jidctint.c **** }
 1888              		.loc 1 807 0
 1889 01f8 488B4424 		movq	104(%rsp), %rax
 1889      68
 1890 01fd 64483304 		xorq	%fs:40, %rax
 1890      25280000 
 1890      00
 1891 0206 750D     		jne	.L59
 1892 0208 4883C470 		addq	$112, %rsp
 1893              		.cfi_remember_state
 1894              		.cfi_def_cfa_offset 48
 1895 020c 5B       		popq	%rbx
 1896              		.cfi_def_cfa_offset 40
 1897 020d 5D       		popq	%rbp
 1898              		.cfi_def_cfa_offset 32
 1899              	.LVL271:
 1900 020e 415C     		popq	%r12
 1901              		.cfi_def_cfa_offset 24
 1902              	.LVL272:
 1903 0210 415D     		popq	%r13
 1904              		.cfi_def_cfa_offset 16
 1905 0212 415E     		popq	%r14
 1906              		.cfi_def_cfa_offset 8
 1907              	.LVL273:
 1908 0214 C3       		ret
 1909              	.LVL274:
 1910              	.L59:
 1911              		.cfi_restore_state
 1912 0215 E8000000 		call	__stack_chk_fail
 1912      00
 1913              	.LVL275:
 1914              		.cfi_endproc
 1915              	.LFE64:
 1917              		.section	.text.unlikely.jpeg_idct_5x5
 1918              	.LCOLDE3:
 1919              		.section	.text.jpeg_idct_5x5
 1920              	.LHOTE3:
 1921              		.section	.text.unlikely.jpeg_idct_4x4,"ax",@progbits
 1922              	.LCOLDB4:
 1923              		.section	.text.jpeg_idct_4x4,"ax",@progbits
 1924              	.LHOTB4:
 1925              		.p2align 4,,15
 1926              		.globl	jpeg_idct_4x4
 1928              	jpeg_idct_4x4:
 1929              	.LFB65:
 808:fltk-1.3.4-1/jpeg/jidctint.c **** 
 809:fltk-1.3.4-1/jpeg/jidctint.c **** 
 810:fltk-1.3.4-1/jpeg/jidctint.c **** /*
 811:fltk-1.3.4-1/jpeg/jidctint.c ****  * Perform dequantization and inverse DCT on one block of coefficients,
 812:fltk-1.3.4-1/jpeg/jidctint.c ****  * producing a reduced-size 4x4 output block.
 813:fltk-1.3.4-1/jpeg/jidctint.c ****  *
 814:fltk-1.3.4-1/jpeg/jidctint.c ****  * Optimized algorithm with 3 multiplications in the 1-D kernel.
 815:fltk-1.3.4-1/jpeg/jidctint.c ****  * cK represents sqrt(2) * cos(K*pi/16) [refers to 8-point IDCT].
 816:fltk-1.3.4-1/jpeg/jidctint.c ****  */
 817:fltk-1.3.4-1/jpeg/jidctint.c **** 
 818:fltk-1.3.4-1/jpeg/jidctint.c **** GLOBAL(void)
 819:fltk-1.3.4-1/jpeg/jidctint.c **** jpeg_idct_4x4 (j_decompress_ptr cinfo, jpeg_component_info * compptr,
 820:fltk-1.3.4-1/jpeg/jidctint.c **** 	       JCOEFPTR coef_block,
 821:fltk-1.3.4-1/jpeg/jidctint.c **** 	       JSAMPARRAY output_buf, JDIMENSION output_col)
 822:fltk-1.3.4-1/jpeg/jidctint.c **** {
 1930              		.loc 1 822 0
 1931              		.cfi_startproc
 1932              	.LVL276:
 1933 0000 4156     		pushq	%r14
 1934              		.cfi_def_cfa_offset 16
 1935              		.cfi_offset 14, -16
 1936 0002 4155     		pushq	%r13
 1937              		.cfi_def_cfa_offset 24
 1938              		.cfi_offset 13, -24
 1939 0004 4154     		pushq	%r12
 1940              		.cfi_def_cfa_offset 32
 1941              		.cfi_offset 12, -32
 1942 0006 55       		pushq	%rbp
 1943              		.cfi_def_cfa_offset 40
 1944              		.cfi_offset 6, -40
 1945 0007 53       		pushq	%rbx
 1946              		.cfi_def_cfa_offset 48
 1947              		.cfi_offset 3, -48
 1948 0008 4883EC50 		subq	$80, %rsp
 1949              		.cfi_def_cfa_offset 128
 823:fltk-1.3.4-1/jpeg/jidctint.c ****   INT32 tmp0, tmp2, tmp10, tmp12;
 824:fltk-1.3.4-1/jpeg/jidctint.c ****   INT32 z1, z2, z3;
 825:fltk-1.3.4-1/jpeg/jidctint.c ****   JCOEFPTR inptr;
 826:fltk-1.3.4-1/jpeg/jidctint.c ****   ISLOW_MULT_TYPE * quantptr;
 827:fltk-1.3.4-1/jpeg/jidctint.c ****   int * wsptr;
 828:fltk-1.3.4-1/jpeg/jidctint.c ****   JSAMPROW outptr;
 829:fltk-1.3.4-1/jpeg/jidctint.c ****   JSAMPLE *range_limit = IDCT_range_limit(cinfo);
 1950              		.loc 1 829 0
 1951 000c 4C8B9FB8 		movq	440(%rdi), %r11
 1951      010000
 830:fltk-1.3.4-1/jpeg/jidctint.c ****   int ctr;
 831:fltk-1.3.4-1/jpeg/jidctint.c ****   int workspace[4*4];	/* buffers data between passes */
 832:fltk-1.3.4-1/jpeg/jidctint.c ****   SHIFT_TEMPS
 833:fltk-1.3.4-1/jpeg/jidctint.c **** 
 834:fltk-1.3.4-1/jpeg/jidctint.c ****   /* Pass 1: process columns from input, store into work array. */
 835:fltk-1.3.4-1/jpeg/jidctint.c **** 
 836:fltk-1.3.4-1/jpeg/jidctint.c ****   inptr = coef_block;
 837:fltk-1.3.4-1/jpeg/jidctint.c ****   quantptr = (ISLOW_MULT_TYPE *) compptr->dct_table;
 1952              		.loc 1 837 0
 1953 0013 4C8B5658 		movq	88(%rsi), %r10
 822:fltk-1.3.4-1/jpeg/jidctint.c ****   INT32 tmp0, tmp2, tmp10, tmp12;
 1954              		.loc 1 822 0
 1955 0017 64488B04 		movq	%fs:40, %rax
 1955      25280000 
 1955      00
 1956 0020 48894424 		movq	%rax, 72(%rsp)
 1956      48
 1957 0025 31C0     		xorl	%eax, %eax
 838:fltk-1.3.4-1/jpeg/jidctint.c ****   wsptr = workspace;
 839:fltk-1.3.4-1/jpeg/jidctint.c ****   for (ctr = 0; ctr < 4; ctr++, inptr++, quantptr++, wsptr++) {
 1958              		.loc 1 839 0
 1959 0027 488D5C24 		leaq	16(%rsp), %rbx
 1959      10
 838:fltk-1.3.4-1/jpeg/jidctint.c ****   wsptr = workspace;
 1960              		.loc 1 838 0
 1961 002c 4989E1   		movq	%rsp, %r9
 829:fltk-1.3.4-1/jpeg/jidctint.c ****   int ctr;
 1962              		.loc 1 829 0
 1963 002f 4983EB80 		subq	$-128, %r11
 1964              	.LVL277:
 1965              	.L61:
 840:fltk-1.3.4-1/jpeg/jidctint.c ****     /* Even part */
 841:fltk-1.3.4-1/jpeg/jidctint.c **** 
 842:fltk-1.3.4-1/jpeg/jidctint.c ****     tmp0 = DEQUANTIZE(inptr[DCTSIZE*0], quantptr[DCTSIZE*0]);
 843:fltk-1.3.4-1/jpeg/jidctint.c ****     tmp2 = DEQUANTIZE(inptr[DCTSIZE*2], quantptr[DCTSIZE*2]);
 844:fltk-1.3.4-1/jpeg/jidctint.c ****     
 845:fltk-1.3.4-1/jpeg/jidctint.c ****     tmp10 = (tmp0 + tmp2) << PASS1_BITS;
 846:fltk-1.3.4-1/jpeg/jidctint.c ****     tmp12 = (tmp0 - tmp2) << PASS1_BITS;
 847:fltk-1.3.4-1/jpeg/jidctint.c **** 
 848:fltk-1.3.4-1/jpeg/jidctint.c ****     /* Odd part */
 849:fltk-1.3.4-1/jpeg/jidctint.c ****     /* Same rotation as in the even part of the 8x8 LL&M IDCT */
 850:fltk-1.3.4-1/jpeg/jidctint.c **** 
 851:fltk-1.3.4-1/jpeg/jidctint.c ****     z2 = DEQUANTIZE(inptr[DCTSIZE*1], quantptr[DCTSIZE*1]);
 1966              		.loc 1 851 0 discriminator 3
 1967 0033 0FBF7210 		movswl	16(%rdx), %esi
 852:fltk-1.3.4-1/jpeg/jidctint.c ****     z3 = DEQUANTIZE(inptr[DCTSIZE*3], quantptr[DCTSIZE*3]);
 1968              		.loc 1 852 0 discriminator 3
 1969 0037 0FBF6A30 		movswl	48(%rdx), %ebp
 839:fltk-1.3.4-1/jpeg/jidctint.c ****     /* Even part */
 1970              		.loc 1 839 0 discriminator 3
 1971 003b 4983C104 		addq	$4, %r9
 1972              	.LVL278:
 851:fltk-1.3.4-1/jpeg/jidctint.c ****     z3 = DEQUANTIZE(inptr[DCTSIZE*3], quantptr[DCTSIZE*3]);
 1973              		.loc 1 851 0 discriminator 3
 1974 003f 410FAF72 		imull	32(%r10), %esi
 1974      20
 1975              		.loc 1 852 0 discriminator 3
 1976 0044 410FAF6A 		imull	96(%r10), %ebp
 1976      60
 842:fltk-1.3.4-1/jpeg/jidctint.c ****     tmp2 = DEQUANTIZE(inptr[DCTSIZE*2], quantptr[DCTSIZE*2]);
 1977              		.loc 1 842 0 discriminator 3
 1978 0049 0FBF02   		movswl	(%rdx), %eax
 843:fltk-1.3.4-1/jpeg/jidctint.c ****     
 1979              		.loc 1 843 0 discriminator 3
 1980 004c 440FBF62 		movswl	32(%rdx), %r12d
 1980      20
 839:fltk-1.3.4-1/jpeg/jidctint.c ****     /* Even part */
 1981              		.loc 1 839 0 discriminator 3
 1982 0051 4983C204 		addq	$4, %r10
 1983              	.LVL279:
 842:fltk-1.3.4-1/jpeg/jidctint.c ****     tmp2 = DEQUANTIZE(inptr[DCTSIZE*2], quantptr[DCTSIZE*2]);
 1984              		.loc 1 842 0 discriminator 3
 1985 0055 410FAF42 		imull	-4(%r10), %eax
 1985      FC
 843:fltk-1.3.4-1/jpeg/jidctint.c ****     
 1986              		.loc 1 843 0 discriminator 3
 1987 005a 450FAF62 		imull	60(%r10), %r12d
 1987      3C
 839:fltk-1.3.4-1/jpeg/jidctint.c ****     /* Even part */
 1988              		.loc 1 839 0 discriminator 3
 1989 005f 4883C202 		addq	$2, %rdx
 1990              	.LVL280:
 851:fltk-1.3.4-1/jpeg/jidctint.c ****     z3 = DEQUANTIZE(inptr[DCTSIZE*3], quantptr[DCTSIZE*3]);
 1991              		.loc 1 851 0 discriminator 3
 1992 0063 4863F6   		movslq	%esi, %rsi
 1993              		.loc 1 852 0 discriminator 3
 1994 0066 4863ED   		movslq	%ebp, %rbp
 853:fltk-1.3.4-1/jpeg/jidctint.c **** 
 854:fltk-1.3.4-1/jpeg/jidctint.c ****     z1 = MULTIPLY(z2 + z3, FIX_0_541196100);               /* c6 */
 1995              		.loc 1 854 0 discriminator 3
 1996 0069 488D3C2E 		leaq	(%rsi,%rbp), %rdi
 855:fltk-1.3.4-1/jpeg/jidctint.c ****     /* Add fudge factor here for final descale. */
 856:fltk-1.3.4-1/jpeg/jidctint.c ****     z1 += ONE << (CONST_BITS-PASS1_BITS-1);
 857:fltk-1.3.4-1/jpeg/jidctint.c ****     tmp0 = RIGHT_SHIFT(z1 + MULTIPLY(z2, FIX_0_765366865), /* c2-c6 */
 858:fltk-1.3.4-1/jpeg/jidctint.c **** 		       CONST_BITS-PASS1_BITS);
 859:fltk-1.3.4-1/jpeg/jidctint.c ****     tmp2 = RIGHT_SHIFT(z1 - MULTIPLY(z3, FIX_1_847759065), /* c2+c6 */
 860:fltk-1.3.4-1/jpeg/jidctint.c **** 		       CONST_BITS-PASS1_BITS);
 861:fltk-1.3.4-1/jpeg/jidctint.c **** 
 862:fltk-1.3.4-1/jpeg/jidctint.c ****     /* Final output stage */
 863:fltk-1.3.4-1/jpeg/jidctint.c **** 
 864:fltk-1.3.4-1/jpeg/jidctint.c ****     wsptr[4*0] = (int) (tmp10 + tmp0);
 1997              		.loc 1 864 0 discriminator 3
 1998 006d 4869F67E 		imulq	$6270, %rsi, %rsi
 1998      180000
 842:fltk-1.3.4-1/jpeg/jidctint.c ****     tmp2 = DEQUANTIZE(inptr[DCTSIZE*2], quantptr[DCTSIZE*2]);
 1999              		.loc 1 842 0 discriminator 3
 2000 0074 4898     		cltq
 2001              	.LVL281:
 854:fltk-1.3.4-1/jpeg/jidctint.c ****     /* Add fudge factor here for final descale. */
 2002              		.loc 1 854 0 discriminator 3
 2003 0076 4869FF51 		imulq	$4433, %rdi, %rdi
 2003      110000
 843:fltk-1.3.4-1/jpeg/jidctint.c ****     
 2004              		.loc 1 843 0 discriminator 3
 2005 007d 4D63E4   		movslq	%r12d, %r12
 2006              	.LVL282:
 865:fltk-1.3.4-1/jpeg/jidctint.c ****     wsptr[4*3] = (int) (tmp10 - tmp0);
 866:fltk-1.3.4-1/jpeg/jidctint.c ****     wsptr[4*1] = (int) (tmp12 + tmp2);
 2007              		.loc 1 866 0 discriminator 3
 2008 0080 4869EDDF 		imulq	$-15137, %rbp, %rbp
 2008      C4FFFF
 2009              	.LVL283:
 864:fltk-1.3.4-1/jpeg/jidctint.c ****     wsptr[4*3] = (int) (tmp10 - tmp0);
 2010              		.loc 1 864 0 discriminator 3
 2011 0087 4E8D2C20 		leaq	(%rax,%r12), %r13
 2012              		.loc 1 866 0 discriminator 3
 2013 008b 4C29E0   		subq	%r12, %rax
 2014              	.LVL284:
 2015 008e 48C1E002 		salq	$2, %rax
 2016              	.LVL285:
 864:fltk-1.3.4-1/jpeg/jidctint.c ****     wsptr[4*3] = (int) (tmp10 - tmp0);
 2017              		.loc 1 864 0 discriminator 3
 2018 0092 49C1E502 		salq	$2, %r13
 2019              	.LVL286:
 856:fltk-1.3.4-1/jpeg/jidctint.c ****     tmp0 = RIGHT_SHIFT(z1 + MULTIPLY(z2, FIX_0_765366865), /* c2-c6 */
 2020              		.loc 1 856 0 discriminator 3
 2021 0096 4881C700 		addq	$1024, %rdi
 2021      040000
 2022              	.LVL287:
 864:fltk-1.3.4-1/jpeg/jidctint.c ****     wsptr[4*3] = (int) (tmp10 - tmp0);
 2023              		.loc 1 864 0 discriminator 3
 2024 009d 4801FE   		addq	%rdi, %rsi
 2025              		.loc 1 866 0 discriminator 3
 2026 00a0 4801EF   		addq	%rbp, %rdi
 2027              	.LVL288:
 864:fltk-1.3.4-1/jpeg/jidctint.c ****     wsptr[4*3] = (int) (tmp10 - tmp0);
 2028              		.loc 1 864 0 discriminator 3
 2029 00a3 48C1FE0B 		sarq	$11, %rsi
 2030              		.loc 1 866 0 discriminator 3
 2031 00a7 48C1FF0B 		sarq	$11, %rdi
 864:fltk-1.3.4-1/jpeg/jidctint.c ****     wsptr[4*3] = (int) (tmp10 - tmp0);
 2032              		.loc 1 864 0 discriminator 3
 2033 00ab 468D342E 		leal	(%rsi,%r13), %r14d
 865:fltk-1.3.4-1/jpeg/jidctint.c ****     wsptr[4*3] = (int) (tmp10 - tmp0);
 2034              		.loc 1 865 0 discriminator 3
 2035 00af 4129F5   		subl	%esi, %r13d
 2036              	.LVL289:
 2037              		.loc 1 866 0 discriminator 3
 2038 00b2 8D3407   		leal	(%rdi,%rax), %esi
 867:fltk-1.3.4-1/jpeg/jidctint.c ****     wsptr[4*2] = (int) (tmp12 - tmp2);
 2039              		.loc 1 867 0 discriminator 3
 2040 00b5 29F8     		subl	%edi, %eax
 2041              	.LVL290:
 865:fltk-1.3.4-1/jpeg/jidctint.c ****     wsptr[4*1] = (int) (tmp12 + tmp2);
 2042              		.loc 1 865 0 discriminator 3
 2043 00b7 4589692C 		movl	%r13d, 44(%r9)
 864:fltk-1.3.4-1/jpeg/jidctint.c ****     wsptr[4*3] = (int) (tmp10 - tmp0);
 2044              		.loc 1 864 0 discriminator 3
 2045 00bb 458971FC 		movl	%r14d, -4(%r9)
 866:fltk-1.3.4-1/jpeg/jidctint.c ****     wsptr[4*2] = (int) (tmp12 - tmp2);
 2046              		.loc 1 866 0 discriminator 3
 2047 00bf 4189710C 		movl	%esi, 12(%r9)
 2048              		.loc 1 867 0 discriminator 3
 2049 00c3 4189411C 		movl	%eax, 28(%r9)
 2050              	.LVL291:
 839:fltk-1.3.4-1/jpeg/jidctint.c ****     /* Even part */
 2051              		.loc 1 839 0 discriminator 3
 2052 00c7 4939D9   		cmpq	%rbx, %r9
 2053 00ca 0F8563FF 		jne	.L61
 2053      FFFF
 868:fltk-1.3.4-1/jpeg/jidctint.c ****   }
 869:fltk-1.3.4-1/jpeg/jidctint.c **** 
 870:fltk-1.3.4-1/jpeg/jidctint.c ****   /* Pass 2: process 4 rows from work array, store into output array. */
 871:fltk-1.3.4-1/jpeg/jidctint.c **** 
 872:fltk-1.3.4-1/jpeg/jidctint.c ****   wsptr = workspace;
 873:fltk-1.3.4-1/jpeg/jidctint.c ****   for (ctr = 0; ctr < 4; ctr++) {
 2054              		.loc 1 873 0
 2055 00d0 4C8D5424 		leaq	64(%rsp), %r10
 2055      40
 2056              	.LVL292:
 2057 00d5 4589C0   		movl	%r8d, %r8d
 839:fltk-1.3.4-1/jpeg/jidctint.c ****     /* Even part */
 2058              		.loc 1 839 0
 2059 00d8 4889E6   		movq	%rsp, %rsi
 2060              	.LVL293:
 2061              	.L62:
 874:fltk-1.3.4-1/jpeg/jidctint.c ****     outptr = output_buf[ctr] + output_col;
 875:fltk-1.3.4-1/jpeg/jidctint.c **** 
 876:fltk-1.3.4-1/jpeg/jidctint.c ****     /* Even part */
 877:fltk-1.3.4-1/jpeg/jidctint.c **** 
 878:fltk-1.3.4-1/jpeg/jidctint.c ****     /* Add fudge factor here for final descale. */
 879:fltk-1.3.4-1/jpeg/jidctint.c ****     tmp0 = (INT32) wsptr[0] + (ONE << (PASS1_BITS+2));
 2062              		.loc 1 879 0 discriminator 3
 2063 00db 486306   		movslq	(%rsi), %rax
 880:fltk-1.3.4-1/jpeg/jidctint.c ****     tmp2 = (INT32) wsptr[2];
 2064              		.loc 1 880 0 discriminator 3
 2065 00de 48637E08 		movslq	8(%rsi), %rdi
 874:fltk-1.3.4-1/jpeg/jidctint.c ****     outptr = output_buf[ctr] + output_col;
 2066              		.loc 1 874 0 discriminator 3
 2067 00e2 4D89C1   		movq	%r8, %r9
 881:fltk-1.3.4-1/jpeg/jidctint.c **** 
 882:fltk-1.3.4-1/jpeg/jidctint.c ****     tmp10 = (tmp0 + tmp2) << CONST_BITS;
 883:fltk-1.3.4-1/jpeg/jidctint.c ****     tmp12 = (tmp0 - tmp2) << CONST_BITS;
 884:fltk-1.3.4-1/jpeg/jidctint.c **** 
 885:fltk-1.3.4-1/jpeg/jidctint.c ****     /* Odd part */
 886:fltk-1.3.4-1/jpeg/jidctint.c ****     /* Same rotation as in the even part of the 8x8 LL&M IDCT */
 887:fltk-1.3.4-1/jpeg/jidctint.c **** 
 888:fltk-1.3.4-1/jpeg/jidctint.c ****     z2 = (INT32) wsptr[1];
 2068              		.loc 1 888 0 discriminator 3
 2069 00e5 48635E04 		movslq	4(%rsi), %rbx
 874:fltk-1.3.4-1/jpeg/jidctint.c **** 
 2070              		.loc 1 874 0 discriminator 3
 2071 00e9 4C0309   		addq	(%rcx), %r9
 2072              	.LVL294:
 889:fltk-1.3.4-1/jpeg/jidctint.c ****     z3 = (INT32) wsptr[3];
 890:fltk-1.3.4-1/jpeg/jidctint.c **** 
 891:fltk-1.3.4-1/jpeg/jidctint.c ****     z1 = MULTIPLY(z2 + z3, FIX_0_541196100);   /* c6 */
 892:fltk-1.3.4-1/jpeg/jidctint.c ****     tmp0 = z1 + MULTIPLY(z2, FIX_0_765366865); /* c2-c6 */
 893:fltk-1.3.4-1/jpeg/jidctint.c ****     tmp2 = z1 - MULTIPLY(z3, FIX_1_847759065); /* c2+c6 */
 894:fltk-1.3.4-1/jpeg/jidctint.c **** 
 895:fltk-1.3.4-1/jpeg/jidctint.c ****     /* Final output stage */
 896:fltk-1.3.4-1/jpeg/jidctint.c **** 
 897:fltk-1.3.4-1/jpeg/jidctint.c ****     outptr[0] = range_limit[(int) RIGHT_SHIFT(tmp10 + tmp0,
 898:fltk-1.3.4-1/jpeg/jidctint.c **** 					      CONST_BITS+PASS1_BITS+3)
 899:fltk-1.3.4-1/jpeg/jidctint.c **** 			    & RANGE_MASK];
 900:fltk-1.3.4-1/jpeg/jidctint.c ****     outptr[3] = range_limit[(int) RIGHT_SHIFT(tmp10 - tmp0,
 901:fltk-1.3.4-1/jpeg/jidctint.c **** 					      CONST_BITS+PASS1_BITS+3)
 902:fltk-1.3.4-1/jpeg/jidctint.c **** 			    & RANGE_MASK];
 903:fltk-1.3.4-1/jpeg/jidctint.c ****     outptr[1] = range_limit[(int) RIGHT_SHIFT(tmp12 + tmp2,
 904:fltk-1.3.4-1/jpeg/jidctint.c **** 					      CONST_BITS+PASS1_BITS+3)
 905:fltk-1.3.4-1/jpeg/jidctint.c **** 			    & RANGE_MASK];
 906:fltk-1.3.4-1/jpeg/jidctint.c ****     outptr[2] = range_limit[(int) RIGHT_SHIFT(tmp12 - tmp2,
 907:fltk-1.3.4-1/jpeg/jidctint.c **** 					      CONST_BITS+PASS1_BITS+3)
 908:fltk-1.3.4-1/jpeg/jidctint.c **** 			    & RANGE_MASK];
 909:fltk-1.3.4-1/jpeg/jidctint.c **** 
 910:fltk-1.3.4-1/jpeg/jidctint.c ****     wsptr += 4;		/* advance pointer to next row */
 2073              		.loc 1 910 0 discriminator 3
 2074 00ec 4883C610 		addq	$16, %rsi
 2075              	.LVL295:
 2076 00f0 4883C108 		addq	$8, %rcx
 879:fltk-1.3.4-1/jpeg/jidctint.c ****     tmp2 = (INT32) wsptr[2];
 2077              		.loc 1 879 0 discriminator 3
 2078 00f4 4883C010 		addq	$16, %rax
 2079              	.LVL296:
 882:fltk-1.3.4-1/jpeg/jidctint.c ****     tmp12 = (tmp0 - tmp2) << CONST_BITS;
 2080              		.loc 1 882 0 discriminator 3
 2081 00f8 488D1438 		leaq	(%rax,%rdi), %rdx
 883:fltk-1.3.4-1/jpeg/jidctint.c **** 
 2082              		.loc 1 883 0 discriminator 3
 2083 00fc 4829F8   		subq	%rdi, %rax
 2084              	.LVL297:
 889:fltk-1.3.4-1/jpeg/jidctint.c **** 
 2085              		.loc 1 889 0 discriminator 3
 2086 00ff 48637EFC 		movslq	-4(%rsi), %rdi
 2087              	.LVL298:
 883:fltk-1.3.4-1/jpeg/jidctint.c **** 
 2088              		.loc 1 883 0 discriminator 3
 2089 0103 48C1E00D 		salq	$13, %rax
 882:fltk-1.3.4-1/jpeg/jidctint.c ****     tmp12 = (tmp0 - tmp2) << CONST_BITS;
 2090              		.loc 1 882 0 discriminator 3
 2091 0107 48C1E20D 		salq	$13, %rdx
 2092              	.LVL299:
 891:fltk-1.3.4-1/jpeg/jidctint.c ****     tmp0 = z1 + MULTIPLY(z2, FIX_0_765366865); /* c2-c6 */
 2093              		.loc 1 891 0 discriminator 3
 2094 010b 488D2C3B 		leaq	(%rbx,%rdi), %rbp
 892:fltk-1.3.4-1/jpeg/jidctint.c ****     tmp2 = z1 - MULTIPLY(z3, FIX_1_847759065); /* c2+c6 */
 2095              		.loc 1 892 0 discriminator 3
 2096 010f 4869DB7E 		imulq	$6270, %rbx, %rbx
 2096      180000
 2097              	.LVL300:
 891:fltk-1.3.4-1/jpeg/jidctint.c ****     tmp0 = z1 + MULTIPLY(z2, FIX_0_765366865); /* c2-c6 */
 2098              		.loc 1 891 0 discriminator 3
 2099 0116 4869ED51 		imulq	$4433, %rbp, %rbp
 2099      110000
 2100              	.LVL301:
 893:fltk-1.3.4-1/jpeg/jidctint.c **** 
 2101              		.loc 1 893 0 discriminator 3
 2102 011d 4869FFDF 		imulq	$-15137, %rdi, %rdi
 2102      C4FFFF
 2103              	.LVL302:
 892:fltk-1.3.4-1/jpeg/jidctint.c ****     tmp2 = z1 - MULTIPLY(z3, FIX_1_847759065); /* c2+c6 */
 2104              		.loc 1 892 0 discriminator 3
 2105 0124 4801EB   		addq	%rbp, %rbx
 2106              	.LVL303:
 893:fltk-1.3.4-1/jpeg/jidctint.c **** 
 2107              		.loc 1 893 0 discriminator 3
 2108 0127 4801EF   		addq	%rbp, %rdi
 2109              	.LVL304:
 897:fltk-1.3.4-1/jpeg/jidctint.c **** 					      CONST_BITS+PASS1_BITS+3)
 2110              		.loc 1 897 0 discriminator 3
 2111 012a 488D2C1A 		leaq	(%rdx,%rbx), %rbp
 2112              	.LVL305:
 900:fltk-1.3.4-1/jpeg/jidctint.c **** 					      CONST_BITS+PASS1_BITS+3)
 2113              		.loc 1 900 0 discriminator 3
 2114 012e 4829DA   		subq	%rbx, %rdx
 2115              	.LVL306:
 2116 0131 48C1FA12 		sarq	$18, %rdx
 897:fltk-1.3.4-1/jpeg/jidctint.c **** 					      CONST_BITS+PASS1_BITS+3)
 2117              		.loc 1 897 0 discriminator 3
 2118 0135 48C1FD12 		sarq	$18, %rbp
 900:fltk-1.3.4-1/jpeg/jidctint.c **** 					      CONST_BITS+PASS1_BITS+3)
 2119              		.loc 1 900 0 discriminator 3
 2120 0139 81E2FF03 		andl	$1023, %edx
 2120      0000
 897:fltk-1.3.4-1/jpeg/jidctint.c **** 					      CONST_BITS+PASS1_BITS+3)
 2121              		.loc 1 897 0 discriminator 3
 2122 013f 81E5FF03 		andl	$1023, %ebp
 2122      0000
 2123 0145 410FB62C 		movzbl	(%r11,%rbp), %ebp
 2123      2B
 2124 014a 418829   		movb	%bpl, (%r9)
 900:fltk-1.3.4-1/jpeg/jidctint.c **** 					      CONST_BITS+PASS1_BITS+3)
 2125              		.loc 1 900 0 discriminator 3
 2126 014d 410FB614 		movzbl	(%r11,%rdx), %edx
 2126      13
 2127 0152 41885103 		movb	%dl, 3(%r9)
 903:fltk-1.3.4-1/jpeg/jidctint.c **** 					      CONST_BITS+PASS1_BITS+3)
 2128              		.loc 1 903 0 discriminator 3
 2129 0156 488D1438 		leaq	(%rax,%rdi), %rdx
 906:fltk-1.3.4-1/jpeg/jidctint.c **** 					      CONST_BITS+PASS1_BITS+3)
 2130              		.loc 1 906 0 discriminator 3
 2131 015a 4829F8   		subq	%rdi, %rax
 2132              	.LVL307:
 2133 015d 48C1F812 		sarq	$18, %rax
 903:fltk-1.3.4-1/jpeg/jidctint.c **** 					      CONST_BITS+PASS1_BITS+3)
 2134              		.loc 1 903 0 discriminator 3
 2135 0161 48C1FA12 		sarq	$18, %rdx
 906:fltk-1.3.4-1/jpeg/jidctint.c **** 					      CONST_BITS+PASS1_BITS+3)
 2136              		.loc 1 906 0 discriminator 3
 2137 0165 25FF0300 		andl	$1023, %eax
 2137      00
 903:fltk-1.3.4-1/jpeg/jidctint.c **** 					      CONST_BITS+PASS1_BITS+3)
 2138              		.loc 1 903 0 discriminator 3
 2139 016a 81E2FF03 		andl	$1023, %edx
 2139      0000
 873:fltk-1.3.4-1/jpeg/jidctint.c ****     outptr = output_buf[ctr] + output_col;
 2140              		.loc 1 873 0 discriminator 3
 2141 0170 4C39D6   		cmpq	%r10, %rsi
 903:fltk-1.3.4-1/jpeg/jidctint.c **** 					      CONST_BITS+PASS1_BITS+3)
 2142              		.loc 1 903 0 discriminator 3
 2143 0173 410FB614 		movzbl	(%r11,%rdx), %edx
 2143      13
 2144 0178 41885101 		movb	%dl, 1(%r9)
 906:fltk-1.3.4-1/jpeg/jidctint.c **** 					      CONST_BITS+PASS1_BITS+3)
 2145              		.loc 1 906 0 discriminator 3
 2146 017c 410FB604 		movzbl	(%r11,%rax), %eax
 2146      03
 2147 0181 41884102 		movb	%al, 2(%r9)
 873:fltk-1.3.4-1/jpeg/jidctint.c ****     outptr = output_buf[ctr] + output_col;
 2148              		.loc 1 873 0 discriminator 3
 2149 0185 0F8550FF 		jne	.L62
 2149      FFFF
 911:fltk-1.3.4-1/jpeg/jidctint.c ****   }
 912:fltk-1.3.4-1/jpeg/jidctint.c **** }
 2150              		.loc 1 912 0
 2151 018b 488B4424 		movq	72(%rsp), %rax
 2151      48
 2152 0190 64483304 		xorq	%fs:40, %rax
 2152      25280000 
 2152      00
 2153 0199 750D     		jne	.L67
 2154 019b 4883C450 		addq	$80, %rsp
 2155              		.cfi_remember_state
 2156              		.cfi_def_cfa_offset 48
 2157 019f 5B       		popq	%rbx
 2158              		.cfi_def_cfa_offset 40
 2159              	.LVL308:
 2160 01a0 5D       		popq	%rbp
 2161              		.cfi_def_cfa_offset 32
 2162 01a1 415C     		popq	%r12
 2163              		.cfi_def_cfa_offset 24
 2164 01a3 415D     		popq	%r13
 2165              		.cfi_def_cfa_offset 16
 2166 01a5 415E     		popq	%r14
 2167              		.cfi_def_cfa_offset 8
 2168 01a7 C3       		ret
 2169              	.LVL309:
 2170              	.L67:
 2171              		.cfi_restore_state
 2172 01a8 E8000000 		call	__stack_chk_fail
 2172      00
 2173              	.LVL310:
 2174              		.cfi_endproc
 2175              	.LFE65:
 2177              		.section	.text.unlikely.jpeg_idct_4x4
 2178              	.LCOLDE4:
 2179              		.section	.text.jpeg_idct_4x4
 2180              	.LHOTE4:
 2181              		.section	.text.unlikely.jpeg_idct_3x3,"ax",@progbits
 2182              	.LCOLDB5:
 2183              		.section	.text.jpeg_idct_3x3,"ax",@progbits
 2184              	.LHOTB5:
 2185              		.p2align 4,,15
 2186              		.globl	jpeg_idct_3x3
 2188              	jpeg_idct_3x3:
 2189              	.LFB66:
 913:fltk-1.3.4-1/jpeg/jidctint.c **** 
 914:fltk-1.3.4-1/jpeg/jidctint.c **** 
 915:fltk-1.3.4-1/jpeg/jidctint.c **** /*
 916:fltk-1.3.4-1/jpeg/jidctint.c ****  * Perform dequantization and inverse DCT on one block of coefficients,
 917:fltk-1.3.4-1/jpeg/jidctint.c ****  * producing a reduced-size 3x3 output block.
 918:fltk-1.3.4-1/jpeg/jidctint.c ****  *
 919:fltk-1.3.4-1/jpeg/jidctint.c ****  * Optimized algorithm with 2 multiplications in the 1-D kernel.
 920:fltk-1.3.4-1/jpeg/jidctint.c ****  * cK represents sqrt(2) * cos(K*pi/6).
 921:fltk-1.3.4-1/jpeg/jidctint.c ****  */
 922:fltk-1.3.4-1/jpeg/jidctint.c **** 
 923:fltk-1.3.4-1/jpeg/jidctint.c **** GLOBAL(void)
 924:fltk-1.3.4-1/jpeg/jidctint.c **** jpeg_idct_3x3 (j_decompress_ptr cinfo, jpeg_component_info * compptr,
 925:fltk-1.3.4-1/jpeg/jidctint.c **** 	       JCOEFPTR coef_block,
 926:fltk-1.3.4-1/jpeg/jidctint.c **** 	       JSAMPARRAY output_buf, JDIMENSION output_col)
 927:fltk-1.3.4-1/jpeg/jidctint.c **** {
 2190              		.loc 1 927 0
 2191              		.cfi_startproc
 2192              	.LVL311:
 2193 0000 4154     		pushq	%r12
 2194              		.cfi_def_cfa_offset 16
 2195              		.cfi_offset 12, -16
 2196 0002 55       		pushq	%rbp
 2197              		.cfi_def_cfa_offset 24
 2198              		.cfi_offset 6, -24
 2199 0003 53       		pushq	%rbx
 2200              		.cfi_def_cfa_offset 32
 2201              		.cfi_offset 3, -32
 2202 0004 4883EC30 		subq	$48, %rsp
 2203              		.cfi_def_cfa_offset 80
 928:fltk-1.3.4-1/jpeg/jidctint.c ****   INT32 tmp0, tmp2, tmp10, tmp12;
 929:fltk-1.3.4-1/jpeg/jidctint.c ****   JCOEFPTR inptr;
 930:fltk-1.3.4-1/jpeg/jidctint.c ****   ISLOW_MULT_TYPE * quantptr;
 931:fltk-1.3.4-1/jpeg/jidctint.c ****   int * wsptr;
 932:fltk-1.3.4-1/jpeg/jidctint.c ****   JSAMPROW outptr;
 933:fltk-1.3.4-1/jpeg/jidctint.c ****   JSAMPLE *range_limit = IDCT_range_limit(cinfo);
 2204              		.loc 1 933 0
 2205 0008 488BBFB8 		movq	440(%rdi), %rdi
 2205      010000
 2206              	.LVL312:
 934:fltk-1.3.4-1/jpeg/jidctint.c ****   int ctr;
 935:fltk-1.3.4-1/jpeg/jidctint.c ****   int workspace[3*3];	/* buffers data between passes */
 936:fltk-1.3.4-1/jpeg/jidctint.c ****   SHIFT_TEMPS
 937:fltk-1.3.4-1/jpeg/jidctint.c **** 
 938:fltk-1.3.4-1/jpeg/jidctint.c ****   /* Pass 1: process columns from input, store into work array. */
 939:fltk-1.3.4-1/jpeg/jidctint.c **** 
 940:fltk-1.3.4-1/jpeg/jidctint.c ****   inptr = coef_block;
 941:fltk-1.3.4-1/jpeg/jidctint.c ****   quantptr = (ISLOW_MULT_TYPE *) compptr->dct_table;
 2207              		.loc 1 941 0
 2208 000f 4C8B5658 		movq	88(%rsi), %r10
 927:fltk-1.3.4-1/jpeg/jidctint.c ****   INT32 tmp0, tmp2, tmp10, tmp12;
 2209              		.loc 1 927 0
 2210 0013 64488B04 		movq	%fs:40, %rax
 2210      25280000 
 2210      00
 2211 001c 48894424 		movq	%rax, 40(%rsp)
 2211      28
 2212 0021 31C0     		xorl	%eax, %eax
 942:fltk-1.3.4-1/jpeg/jidctint.c ****   wsptr = workspace;
 943:fltk-1.3.4-1/jpeg/jidctint.c ****   for (ctr = 0; ctr < 3; ctr++, inptr++, quantptr++, wsptr++) {
 2213              		.loc 1 943 0
 2214 0023 4C8D5C24 		leaq	12(%rsp), %r11
 2214      0C
 942:fltk-1.3.4-1/jpeg/jidctint.c ****   wsptr = workspace;
 2215              		.loc 1 942 0
 2216 0028 4989E1   		movq	%rsp, %r9
 933:fltk-1.3.4-1/jpeg/jidctint.c ****   int ctr;
 2217              		.loc 1 933 0
 2218 002b 4883EF80 		subq	$-128, %rdi
 2219              	.LVL313:
 2220              	.L69:
 944:fltk-1.3.4-1/jpeg/jidctint.c ****     /* Even part */
 945:fltk-1.3.4-1/jpeg/jidctint.c **** 
 946:fltk-1.3.4-1/jpeg/jidctint.c ****     tmp0 = DEQUANTIZE(inptr[DCTSIZE*0], quantptr[DCTSIZE*0]);
 947:fltk-1.3.4-1/jpeg/jidctint.c ****     tmp0 <<= CONST_BITS;
 948:fltk-1.3.4-1/jpeg/jidctint.c ****     /* Add fudge factor here for final descale. */
 949:fltk-1.3.4-1/jpeg/jidctint.c ****     tmp0 += ONE << (CONST_BITS-PASS1_BITS-1);
 950:fltk-1.3.4-1/jpeg/jidctint.c ****     tmp2 = DEQUANTIZE(inptr[DCTSIZE*2], quantptr[DCTSIZE*2]);
 951:fltk-1.3.4-1/jpeg/jidctint.c ****     tmp12 = MULTIPLY(tmp2, FIX(0.707106781)); /* c2 */
 2221              		.loc 1 951 0 discriminator 3
 2222 002f 0FBF5A20 		movswl	32(%rdx), %ebx
 946:fltk-1.3.4-1/jpeg/jidctint.c ****     tmp0 <<= CONST_BITS;
 2223              		.loc 1 946 0 discriminator 3
 2224 0033 0FBF02   		movswl	(%rdx), %eax
 943:fltk-1.3.4-1/jpeg/jidctint.c ****     /* Even part */
 2225              		.loc 1 943 0 discriminator 3
 2226 0036 4983C104 		addq	$4, %r9
 2227              	.LVL314:
 2228              		.loc 1 951 0 discriminator 3
 2229 003a 410FAF5A 		imull	64(%r10), %ebx
 2229      40
 952:fltk-1.3.4-1/jpeg/jidctint.c ****     tmp10 = tmp0 + tmp12;
 953:fltk-1.3.4-1/jpeg/jidctint.c ****     tmp2 = tmp0 - tmp12 - tmp12;
 954:fltk-1.3.4-1/jpeg/jidctint.c **** 
 955:fltk-1.3.4-1/jpeg/jidctint.c ****     /* Odd part */
 956:fltk-1.3.4-1/jpeg/jidctint.c **** 
 957:fltk-1.3.4-1/jpeg/jidctint.c ****     tmp12 = DEQUANTIZE(inptr[DCTSIZE*1], quantptr[DCTSIZE*1]);
 958:fltk-1.3.4-1/jpeg/jidctint.c ****     tmp0 = MULTIPLY(tmp12, FIX(1.224744871)); /* c1 */
 2230              		.loc 1 958 0 discriminator 3
 2231 003f 0FBF7210 		movswl	16(%rdx), %esi
 943:fltk-1.3.4-1/jpeg/jidctint.c ****     /* Even part */
 2232              		.loc 1 943 0 discriminator 3
 2233 0043 4983C204 		addq	$4, %r10
 2234              	.LVL315:
 2235 0047 4883C202 		addq	$2, %rdx
 2236              	.LVL316:
 946:fltk-1.3.4-1/jpeg/jidctint.c ****     tmp0 <<= CONST_BITS;
 2237              		.loc 1 946 0 discriminator 3
 2238 004b 410FAF42 		imull	-4(%r10), %eax
 2238      FC
 2239              		.loc 1 958 0 discriminator 3
 2240 0050 410FAF72 		imull	28(%r10), %esi
 2240      1C
 951:fltk-1.3.4-1/jpeg/jidctint.c ****     tmp10 = tmp0 + tmp12;
 2241              		.loc 1 951 0 discriminator 3
 2242 0055 4863DB   		movslq	%ebx, %rbx
 2243 0058 4869DBA1 		imulq	$5793, %rbx, %rbx
 2243      160000
 946:fltk-1.3.4-1/jpeg/jidctint.c ****     tmp0 <<= CONST_BITS;
 2244              		.loc 1 946 0 discriminator 3
 2245 005f 4898     		cltq
 2246              	.LVL317:
 2247              		.loc 1 958 0 discriminator 3
 2248 0061 4863F6   		movslq	%esi, %rsi
 947:fltk-1.3.4-1/jpeg/jidctint.c ****     /* Add fudge factor here for final descale. */
 2249              		.loc 1 947 0 discriminator 3
 2250 0064 48C1E00D 		salq	$13, %rax
 2251              	.LVL318:
 949:fltk-1.3.4-1/jpeg/jidctint.c ****     tmp2 = DEQUANTIZE(inptr[DCTSIZE*2], quantptr[DCTSIZE*2]);
 2252              		.loc 1 949 0 discriminator 3
 2253 0068 48050004 		addq	$1024, %rax
 2253      0000
 2254              	.LVL319:
 2255              		.loc 1 958 0 discriminator 3
 2256 006e 4869F631 		imulq	$10033, %rsi, %rsi
 2256      270000
 952:fltk-1.3.4-1/jpeg/jidctint.c ****     tmp2 = tmp0 - tmp12 - tmp12;
 2257              		.loc 1 952 0 discriminator 3
 2258 0075 488D2C18 		leaq	(%rax,%rbx), %rbp
 2259              	.LVL320:
 959:fltk-1.3.4-1/jpeg/jidctint.c **** 
 960:fltk-1.3.4-1/jpeg/jidctint.c ****     /* Final output stage */
 961:fltk-1.3.4-1/jpeg/jidctint.c **** 
 962:fltk-1.3.4-1/jpeg/jidctint.c ****     wsptr[3*0] = (int) RIGHT_SHIFT(tmp10 + tmp0, CONST_BITS-PASS1_BITS);
 963:fltk-1.3.4-1/jpeg/jidctint.c ****     wsptr[3*2] = (int) RIGHT_SHIFT(tmp10 - tmp0, CONST_BITS-PASS1_BITS);
 964:fltk-1.3.4-1/jpeg/jidctint.c ****     wsptr[3*1] = (int) RIGHT_SHIFT(tmp2, CONST_BITS-PASS1_BITS);
 2260              		.loc 1 964 0 discriminator 3
 2261 0079 4829D8   		subq	%rbx, %rax
 2262              	.LVL321:
 2263 007c 4829D8   		subq	%rbx, %rax
 2264 007f 48C1F80B 		sarq	$11, %rax
 2265 0083 41894108 		movl	%eax, 8(%r9)
 2266              	.LVL322:
 962:fltk-1.3.4-1/jpeg/jidctint.c ****     wsptr[3*2] = (int) RIGHT_SHIFT(tmp10 - tmp0, CONST_BITS-PASS1_BITS);
 2267              		.loc 1 962 0 discriminator 3
 2268 0087 4C8D6435 		leaq	0(%rbp,%rsi), %r12
 2268      00
 963:fltk-1.3.4-1/jpeg/jidctint.c ****     wsptr[3*1] = (int) RIGHT_SHIFT(tmp2, CONST_BITS-PASS1_BITS);
 2269              		.loc 1 963 0 discriminator 3
 2270 008c 4829F5   		subq	%rsi, %rbp
 2271              	.LVL323:
 2272 008f 48C1FD0B 		sarq	$11, %rbp
 962:fltk-1.3.4-1/jpeg/jidctint.c ****     wsptr[3*2] = (int) RIGHT_SHIFT(tmp10 - tmp0, CONST_BITS-PASS1_BITS);
 2273              		.loc 1 962 0 discriminator 3
 2274 0093 49C1FC0B 		sarq	$11, %r12
 963:fltk-1.3.4-1/jpeg/jidctint.c ****     wsptr[3*1] = (int) RIGHT_SHIFT(tmp2, CONST_BITS-PASS1_BITS);
 2275              		.loc 1 963 0 discriminator 3
 2276 0097 41896914 		movl	%ebp, 20(%r9)
 962:fltk-1.3.4-1/jpeg/jidctint.c ****     wsptr[3*2] = (int) RIGHT_SHIFT(tmp10 - tmp0, CONST_BITS-PASS1_BITS);
 2277              		.loc 1 962 0 discriminator 3
 2278 009b 458961FC 		movl	%r12d, -4(%r9)
 2279              	.LVL324:
 943:fltk-1.3.4-1/jpeg/jidctint.c ****     /* Even part */
 2280              		.loc 1 943 0 discriminator 3
 2281 009f 4D39D9   		cmpq	%r11, %r9
 2282 00a2 758B     		jne	.L69
 965:fltk-1.3.4-1/jpeg/jidctint.c ****   }
 966:fltk-1.3.4-1/jpeg/jidctint.c **** 
 967:fltk-1.3.4-1/jpeg/jidctint.c ****   /* Pass 2: process 3 rows from work array, store into output array. */
 968:fltk-1.3.4-1/jpeg/jidctint.c **** 
 969:fltk-1.3.4-1/jpeg/jidctint.c ****   wsptr = workspace;
 970:fltk-1.3.4-1/jpeg/jidctint.c ****   for (ctr = 0; ctr < 3; ctr++) {
 2283              		.loc 1 970 0
 2284 00a4 4C8D5424 		leaq	36(%rsp), %r10
 2284      24
 2285              	.LVL325:
 2286 00a9 4589C0   		movl	%r8d, %r8d
 943:fltk-1.3.4-1/jpeg/jidctint.c ****     /* Even part */
 2287              		.loc 1 943 0
 2288 00ac 4889E6   		movq	%rsp, %rsi
 2289              	.LVL326:
 2290              	.L70:
 971:fltk-1.3.4-1/jpeg/jidctint.c ****     outptr = output_buf[ctr] + output_col;
 972:fltk-1.3.4-1/jpeg/jidctint.c **** 
 973:fltk-1.3.4-1/jpeg/jidctint.c ****     /* Even part */
 974:fltk-1.3.4-1/jpeg/jidctint.c **** 
 975:fltk-1.3.4-1/jpeg/jidctint.c ****     /* Add fudge factor here for final descale. */
 976:fltk-1.3.4-1/jpeg/jidctint.c ****     tmp0 = (INT32) wsptr[0] + (ONE << (PASS1_BITS+2));
 977:fltk-1.3.4-1/jpeg/jidctint.c ****     tmp0 <<= CONST_BITS;
 978:fltk-1.3.4-1/jpeg/jidctint.c ****     tmp2 = (INT32) wsptr[2];
 979:fltk-1.3.4-1/jpeg/jidctint.c ****     tmp12 = MULTIPLY(tmp2, FIX(0.707106781)); /* c2 */
 2291              		.loc 1 979 0 discriminator 3
 2292 00af 4C635E08 		movslq	8(%rsi), %r11
 976:fltk-1.3.4-1/jpeg/jidctint.c ****     tmp0 <<= CONST_BITS;
 2293              		.loc 1 976 0 discriminator 3
 2294 00b3 486306   		movslq	(%rsi), %rax
 971:fltk-1.3.4-1/jpeg/jidctint.c ****     outptr = output_buf[ctr] + output_col;
 2295              		.loc 1 971 0 discriminator 3
 2296 00b6 4D89C1   		movq	%r8, %r9
 980:fltk-1.3.4-1/jpeg/jidctint.c ****     tmp10 = tmp0 + tmp12;
 981:fltk-1.3.4-1/jpeg/jidctint.c ****     tmp2 = tmp0 - tmp12 - tmp12;
 982:fltk-1.3.4-1/jpeg/jidctint.c **** 
 983:fltk-1.3.4-1/jpeg/jidctint.c ****     /* Odd part */
 984:fltk-1.3.4-1/jpeg/jidctint.c **** 
 985:fltk-1.3.4-1/jpeg/jidctint.c ****     tmp12 = (INT32) wsptr[1];
 986:fltk-1.3.4-1/jpeg/jidctint.c ****     tmp0 = MULTIPLY(tmp12, FIX(1.224744871)); /* c1 */
 2297              		.loc 1 986 0 discriminator 3
 2298 00b9 48636E04 		movslq	4(%rsi), %rbp
 971:fltk-1.3.4-1/jpeg/jidctint.c **** 
 2299              		.loc 1 971 0 discriminator 3
 2300 00bd 4C0309   		addq	(%rcx), %r9
 2301              	.LVL327:
 987:fltk-1.3.4-1/jpeg/jidctint.c **** 
 988:fltk-1.3.4-1/jpeg/jidctint.c ****     /* Final output stage */
 989:fltk-1.3.4-1/jpeg/jidctint.c **** 
 990:fltk-1.3.4-1/jpeg/jidctint.c ****     outptr[0] = range_limit[(int) RIGHT_SHIFT(tmp10 + tmp0,
 991:fltk-1.3.4-1/jpeg/jidctint.c **** 					      CONST_BITS+PASS1_BITS+3)
 992:fltk-1.3.4-1/jpeg/jidctint.c **** 			    & RANGE_MASK];
 993:fltk-1.3.4-1/jpeg/jidctint.c ****     outptr[2] = range_limit[(int) RIGHT_SHIFT(tmp10 - tmp0,
 994:fltk-1.3.4-1/jpeg/jidctint.c **** 					      CONST_BITS+PASS1_BITS+3)
 995:fltk-1.3.4-1/jpeg/jidctint.c **** 			    & RANGE_MASK];
 996:fltk-1.3.4-1/jpeg/jidctint.c ****     outptr[1] = range_limit[(int) RIGHT_SHIFT(tmp2,
 997:fltk-1.3.4-1/jpeg/jidctint.c **** 					      CONST_BITS+PASS1_BITS+3)
 998:fltk-1.3.4-1/jpeg/jidctint.c **** 			    & RANGE_MASK];
 999:fltk-1.3.4-1/jpeg/jidctint.c **** 
1000:fltk-1.3.4-1/jpeg/jidctint.c ****     wsptr += 3;		/* advance pointer to next row */
 2302              		.loc 1 1000 0 discriminator 3
 2303 00c0 4883C60C 		addq	$12, %rsi
 2304              	.LVL328:
 2305 00c4 4883C108 		addq	$8, %rcx
 979:fltk-1.3.4-1/jpeg/jidctint.c ****     tmp10 = tmp0 + tmp12;
 2306              		.loc 1 979 0 discriminator 3
 2307 00c8 4D69DBA1 		imulq	$5793, %r11, %r11
 2307      160000
 976:fltk-1.3.4-1/jpeg/jidctint.c ****     tmp0 <<= CONST_BITS;
 2308              		.loc 1 976 0 discriminator 3
 2309 00cf 4883C010 		addq	$16, %rax
 2310              	.LVL329:
 986:fltk-1.3.4-1/jpeg/jidctint.c **** 
 2311              		.loc 1 986 0 discriminator 3
 2312 00d3 4869ED31 		imulq	$10033, %rbp, %rbp
 2312      270000
 977:fltk-1.3.4-1/jpeg/jidctint.c ****     tmp2 = (INT32) wsptr[2];
 2313              		.loc 1 977 0 discriminator 3
 2314 00da 48C1E00D 		salq	$13, %rax
 2315              	.LVL330:
 980:fltk-1.3.4-1/jpeg/jidctint.c ****     tmp2 = tmp0 - tmp12 - tmp12;
 2316              		.loc 1 980 0 discriminator 3
 2317 00de 4A8D1418 		leaq	(%rax,%r11), %rdx
 2318              	.LVL331:
 996:fltk-1.3.4-1/jpeg/jidctint.c **** 					      CONST_BITS+PASS1_BITS+3)
 2319              		.loc 1 996 0 discriminator 3
 2320 00e2 4C29D8   		subq	%r11, %rax
 2321              	.LVL332:
 2322 00e5 4C29D8   		subq	%r11, %rax
 990:fltk-1.3.4-1/jpeg/jidctint.c **** 					      CONST_BITS+PASS1_BITS+3)
 2323              		.loc 1 990 0 discriminator 3
 2324 00e8 488D1C2A 		leaq	(%rdx,%rbp), %rbx
 993:fltk-1.3.4-1/jpeg/jidctint.c **** 					      CONST_BITS+PASS1_BITS+3)
 2325              		.loc 1 993 0 discriminator 3
 2326 00ec 4829EA   		subq	%rbp, %rdx
 2327              	.LVL333:
 996:fltk-1.3.4-1/jpeg/jidctint.c **** 					      CONST_BITS+PASS1_BITS+3)
 2328              		.loc 1 996 0 discriminator 3
 2329 00ef 48C1F812 		sarq	$18, %rax
 993:fltk-1.3.4-1/jpeg/jidctint.c **** 					      CONST_BITS+PASS1_BITS+3)
 2330              		.loc 1 993 0 discriminator 3
 2331 00f3 48C1FA12 		sarq	$18, %rdx
 996:fltk-1.3.4-1/jpeg/jidctint.c **** 					      CONST_BITS+PASS1_BITS+3)
 2332              		.loc 1 996 0 discriminator 3
 2333 00f7 25FF0300 		andl	$1023, %eax
 2333      00
 990:fltk-1.3.4-1/jpeg/jidctint.c **** 					      CONST_BITS+PASS1_BITS+3)
 2334              		.loc 1 990 0 discriminator 3
 2335 00fc 48C1FB12 		sarq	$18, %rbx
 993:fltk-1.3.4-1/jpeg/jidctint.c **** 					      CONST_BITS+PASS1_BITS+3)
 2336              		.loc 1 993 0 discriminator 3
 2337 0100 81E2FF03 		andl	$1023, %edx
 2337      0000
 990:fltk-1.3.4-1/jpeg/jidctint.c **** 					      CONST_BITS+PASS1_BITS+3)
 2338              		.loc 1 990 0 discriminator 3
 2339 0106 81E3FF03 		andl	$1023, %ebx
 2339      0000
 970:fltk-1.3.4-1/jpeg/jidctint.c ****     outptr = output_buf[ctr] + output_col;
 2340              		.loc 1 970 0 discriminator 3
 2341 010c 4C39D6   		cmpq	%r10, %rsi
 990:fltk-1.3.4-1/jpeg/jidctint.c **** 					      CONST_BITS+PASS1_BITS+3)
 2342              		.loc 1 990 0 discriminator 3
 2343 010f 0FB61C1F 		movzbl	(%rdi,%rbx), %ebx
 2344 0113 418819   		movb	%bl, (%r9)
 993:fltk-1.3.4-1/jpeg/jidctint.c **** 					      CONST_BITS+PASS1_BITS+3)
 2345              		.loc 1 993 0 discriminator 3
 2346 0116 0FB61417 		movzbl	(%rdi,%rdx), %edx
 2347 011a 41885102 		movb	%dl, 2(%r9)
 996:fltk-1.3.4-1/jpeg/jidctint.c **** 					      CONST_BITS+PASS1_BITS+3)
 2348              		.loc 1 996 0 discriminator 3
 2349 011e 0FB60407 		movzbl	(%rdi,%rax), %eax
 2350 0122 41884101 		movb	%al, 1(%r9)
 970:fltk-1.3.4-1/jpeg/jidctint.c ****     outptr = output_buf[ctr] + output_col;
 2351              		.loc 1 970 0 discriminator 3
 2352 0126 7587     		jne	.L70
1001:fltk-1.3.4-1/jpeg/jidctint.c ****   }
1002:fltk-1.3.4-1/jpeg/jidctint.c **** }
 2353              		.loc 1 1002 0
 2354 0128 488B4424 		movq	40(%rsp), %rax
 2354      28
 2355 012d 64483304 		xorq	%fs:40, %rax
 2355      25280000 
 2355      00
 2356 0136 7509     		jne	.L75
 2357 0138 4883C430 		addq	$48, %rsp
 2358              		.cfi_remember_state
 2359              		.cfi_def_cfa_offset 32
 2360 013c 5B       		popq	%rbx
 2361              		.cfi_def_cfa_offset 24
 2362 013d 5D       		popq	%rbp
 2363              		.cfi_def_cfa_offset 16
 2364              	.LVL334:
 2365 013e 415C     		popq	%r12
 2366              		.cfi_def_cfa_offset 8
 2367 0140 C3       		ret
 2368              	.LVL335:
 2369              	.L75:
 2370              		.cfi_restore_state
 2371 0141 E8000000 		call	__stack_chk_fail
 2371      00
 2372              	.LVL336:
 2373              		.cfi_endproc
 2374              	.LFE66:
 2376              		.section	.text.unlikely.jpeg_idct_3x3
 2377              	.LCOLDE5:
 2378              		.section	.text.jpeg_idct_3x3
 2379              	.LHOTE5:
 2380              		.section	.text.unlikely.jpeg_idct_2x2,"ax",@progbits
 2381              	.LCOLDB6:
 2382              		.section	.text.jpeg_idct_2x2,"ax",@progbits
 2383              	.LHOTB6:
 2384              		.p2align 4,,15
 2385              		.globl	jpeg_idct_2x2
 2387              	jpeg_idct_2x2:
 2388              	.LFB67:
1003:fltk-1.3.4-1/jpeg/jidctint.c **** 
1004:fltk-1.3.4-1/jpeg/jidctint.c **** 
1005:fltk-1.3.4-1/jpeg/jidctint.c **** /*
1006:fltk-1.3.4-1/jpeg/jidctint.c ****  * Perform dequantization and inverse DCT on one block of coefficients,
1007:fltk-1.3.4-1/jpeg/jidctint.c ****  * producing a reduced-size 2x2 output block.
1008:fltk-1.3.4-1/jpeg/jidctint.c ****  *
1009:fltk-1.3.4-1/jpeg/jidctint.c ****  * Multiplication-less algorithm.
1010:fltk-1.3.4-1/jpeg/jidctint.c ****  */
1011:fltk-1.3.4-1/jpeg/jidctint.c **** 
1012:fltk-1.3.4-1/jpeg/jidctint.c **** GLOBAL(void)
1013:fltk-1.3.4-1/jpeg/jidctint.c **** jpeg_idct_2x2 (j_decompress_ptr cinfo, jpeg_component_info * compptr,
1014:fltk-1.3.4-1/jpeg/jidctint.c **** 	       JCOEFPTR coef_block,
1015:fltk-1.3.4-1/jpeg/jidctint.c **** 	       JSAMPARRAY output_buf, JDIMENSION output_col)
1016:fltk-1.3.4-1/jpeg/jidctint.c **** {
 2389              		.loc 1 1016 0
 2390              		.cfi_startproc
 2391              	.LVL337:
1017:fltk-1.3.4-1/jpeg/jidctint.c ****   INT32 tmp0, tmp1, tmp2, tmp3, tmp4, tmp5;
1018:fltk-1.3.4-1/jpeg/jidctint.c ****   ISLOW_MULT_TYPE * quantptr;
1019:fltk-1.3.4-1/jpeg/jidctint.c ****   JSAMPROW outptr;
1020:fltk-1.3.4-1/jpeg/jidctint.c ****   JSAMPLE *range_limit = IDCT_range_limit(cinfo);
1021:fltk-1.3.4-1/jpeg/jidctint.c ****   SHIFT_TEMPS
1022:fltk-1.3.4-1/jpeg/jidctint.c **** 
1023:fltk-1.3.4-1/jpeg/jidctint.c ****   /* Pass 1: process columns from input. */
1024:fltk-1.3.4-1/jpeg/jidctint.c **** 
1025:fltk-1.3.4-1/jpeg/jidctint.c ****   quantptr = (ISLOW_MULT_TYPE *) compptr->dct_table;
 2392              		.loc 1 1025 0
 2393 0000 4C8B5E58 		movq	88(%rsi), %r11
1026:fltk-1.3.4-1/jpeg/jidctint.c **** 
1027:fltk-1.3.4-1/jpeg/jidctint.c ****   /* Column 0 */
1028:fltk-1.3.4-1/jpeg/jidctint.c ****   tmp4 = DEQUANTIZE(coef_block[DCTSIZE*0], quantptr[DCTSIZE*0]);
 2394              		.loc 1 1028 0
 2395 0004 0FBF02   		movswl	(%rdx), %eax
1029:fltk-1.3.4-1/jpeg/jidctint.c ****   tmp5 = DEQUANTIZE(coef_block[DCTSIZE*1], quantptr[DCTSIZE*1]);
1030:fltk-1.3.4-1/jpeg/jidctint.c ****   /* Add fudge factor here for final descale. */
1031:fltk-1.3.4-1/jpeg/jidctint.c ****   tmp4 += ONE << 2;
1032:fltk-1.3.4-1/jpeg/jidctint.c **** 
1033:fltk-1.3.4-1/jpeg/jidctint.c ****   tmp0 = tmp4 + tmp5;
1034:fltk-1.3.4-1/jpeg/jidctint.c ****   tmp2 = tmp4 - tmp5;
1035:fltk-1.3.4-1/jpeg/jidctint.c **** 
1036:fltk-1.3.4-1/jpeg/jidctint.c ****   /* Column 1 */
1037:fltk-1.3.4-1/jpeg/jidctint.c ****   tmp4 = DEQUANTIZE(coef_block[DCTSIZE*0+1], quantptr[DCTSIZE*0+1]);
1038:fltk-1.3.4-1/jpeg/jidctint.c ****   tmp5 = DEQUANTIZE(coef_block[DCTSIZE*1+1], quantptr[DCTSIZE*1+1]);
1039:fltk-1.3.4-1/jpeg/jidctint.c **** 
1040:fltk-1.3.4-1/jpeg/jidctint.c ****   tmp1 = tmp4 + tmp5;
1041:fltk-1.3.4-1/jpeg/jidctint.c ****   tmp3 = tmp4 - tmp5;
1042:fltk-1.3.4-1/jpeg/jidctint.c **** 
1043:fltk-1.3.4-1/jpeg/jidctint.c ****   /* Pass 2: process 2 rows, store into output array. */
1044:fltk-1.3.4-1/jpeg/jidctint.c **** 
1045:fltk-1.3.4-1/jpeg/jidctint.c ****   /* Row 0 */
1046:fltk-1.3.4-1/jpeg/jidctint.c ****   outptr = output_buf[0] + output_col;
 2396              		.loc 1 1046 0
 2397 0007 4589C0   		movl	%r8d, %r8d
1020:fltk-1.3.4-1/jpeg/jidctint.c ****   SHIFT_TEMPS
 2398              		.loc 1 1020 0
 2399 000a 4C8B8FB8 		movq	440(%rdi), %r9
 2399      010000
 2400              	.LVL338:
1029:fltk-1.3.4-1/jpeg/jidctint.c ****   tmp5 = DEQUANTIZE(coef_block[DCTSIZE*1], quantptr[DCTSIZE*1]);
 2401              		.loc 1 1029 0
 2402 0011 0FBF7A10 		movswl	16(%rdx), %edi
 2403              	.LVL339:
1037:fltk-1.3.4-1/jpeg/jidctint.c ****   tmp5 = DEQUANTIZE(coef_block[DCTSIZE*1+1], quantptr[DCTSIZE*1+1]);
 2404              		.loc 1 1037 0
 2405 0015 440FBF52 		movswl	2(%rdx), %r10d
 2405      02
1028:fltk-1.3.4-1/jpeg/jidctint.c ****   tmp5 = DEQUANTIZE(coef_block[DCTSIZE*1], quantptr[DCTSIZE*1]);
 2406              		.loc 1 1028 0
 2407 001a 410FAF03 		imull	(%r11), %eax
1029:fltk-1.3.4-1/jpeg/jidctint.c ****   /* Add fudge factor here for final descale. */
 2408              		.loc 1 1029 0
 2409 001e 410FAF7B 		imull	32(%r11), %edi
 2409      20
1037:fltk-1.3.4-1/jpeg/jidctint.c ****   tmp5 = DEQUANTIZE(coef_block[DCTSIZE*1+1], quantptr[DCTSIZE*1+1]);
 2410              		.loc 1 1037 0
 2411 0023 450FAF53 		imull	4(%r11), %r10d
 2411      04
1028:fltk-1.3.4-1/jpeg/jidctint.c ****   tmp5 = DEQUANTIZE(coef_block[DCTSIZE*1], quantptr[DCTSIZE*1]);
 2412              		.loc 1 1028 0
 2413 0028 4898     		cltq
 2414              	.LVL340:
1029:fltk-1.3.4-1/jpeg/jidctint.c ****   /* Add fudge factor here for final descale. */
 2415              		.loc 1 1029 0
 2416 002a 4863FF   		movslq	%edi, %rdi
 2417              	.LVL341:
1031:fltk-1.3.4-1/jpeg/jidctint.c **** 
 2418              		.loc 1 1031 0
 2419 002d 4883C004 		addq	$4, %rax
 2420              	.LVL342:
1033:fltk-1.3.4-1/jpeg/jidctint.c ****   tmp2 = tmp4 - tmp5;
 2421              		.loc 1 1033 0
 2422 0031 488D3407 		leaq	(%rdi,%rax), %rsi
 2423              	.LVL343:
1034:fltk-1.3.4-1/jpeg/jidctint.c **** 
 2424              		.loc 1 1034 0
 2425 0035 4829F8   		subq	%rdi, %rax
 2426              	.LVL344:
1038:fltk-1.3.4-1/jpeg/jidctint.c **** 
 2427              		.loc 1 1038 0
 2428 0038 0FBF7A12 		movswl	18(%rdx), %edi
 2429              	.LVL345:
 2430 003c 410FAF7B 		imull	36(%r11), %edi
 2430      24
1037:fltk-1.3.4-1/jpeg/jidctint.c ****   tmp5 = DEQUANTIZE(coef_block[DCTSIZE*1+1], quantptr[DCTSIZE*1+1]);
 2431              		.loc 1 1037 0
 2432 0041 4D63D2   		movslq	%r10d, %r10
 2433              	.LVL346:
1041:fltk-1.3.4-1/jpeg/jidctint.c **** 
 2434              		.loc 1 1041 0
 2435 0044 4C89D2   		movq	%r10, %rdx
 2436              	.LVL347:
1038:fltk-1.3.4-1/jpeg/jidctint.c **** 
 2437              		.loc 1 1038 0
 2438 0047 4863FF   		movslq	%edi, %rdi
 2439              	.LVL348:
1040:fltk-1.3.4-1/jpeg/jidctint.c ****   tmp3 = tmp4 - tmp5;
 2440              		.loc 1 1040 0
 2441 004a 4D8D1C3A 		leaq	(%r10,%rdi), %r11
 2442              	.LVL349:
1041:fltk-1.3.4-1/jpeg/jidctint.c **** 
 2443              		.loc 1 1041 0
 2444 004e 4829FA   		subq	%rdi, %rdx
 2445              	.LVL350:
 2446              		.loc 1 1046 0
 2447 0051 4D89C2   		movq	%r8, %r10
 2448              	.LVL351:
 2449 0054 4C0311   		addq	(%rcx), %r10
 2450              	.LVL352:
1047:fltk-1.3.4-1/jpeg/jidctint.c **** 
1048:fltk-1.3.4-1/jpeg/jidctint.c ****   outptr[0] = range_limit[(int) RIGHT_SHIFT(tmp0 + tmp1, 3) & RANGE_MASK];
 2451              		.loc 1 1048 0
 2452 0057 4A8D3C1E 		leaq	(%rsi,%r11), %rdi
 2453              	.LVL353:
1049:fltk-1.3.4-1/jpeg/jidctint.c ****   outptr[1] = range_limit[(int) RIGHT_SHIFT(tmp0 - tmp1, 3) & RANGE_MASK];
 2454              		.loc 1 1049 0
 2455 005b 4C29DE   		subq	%r11, %rsi
 2456              	.LVL354:
 2457 005e 48C1FE03 		sarq	$3, %rsi
1048:fltk-1.3.4-1/jpeg/jidctint.c ****   outptr[1] = range_limit[(int) RIGHT_SHIFT(tmp0 - tmp1, 3) & RANGE_MASK];
 2458              		.loc 1 1048 0
 2459 0062 48C1FF03 		sarq	$3, %rdi
 2460              		.loc 1 1049 0
 2461 0066 81E6FF03 		andl	$1023, %esi
 2461      0000
1048:fltk-1.3.4-1/jpeg/jidctint.c ****   outptr[1] = range_limit[(int) RIGHT_SHIFT(tmp0 - tmp1, 3) & RANGE_MASK];
 2462              		.loc 1 1048 0
 2463 006c 81E7FF03 		andl	$1023, %edi
 2463      0000
 2464 0072 410FB6BC 		movzbl	128(%r9,%rdi), %edi
 2464      39800000 
 2464      00
 2465 007b 41883A   		movb	%dil, (%r10)
 2466              	.LVL355:
 2467              		.loc 1 1049 0
 2468 007e 410FB6B4 		movzbl	128(%r9,%rsi), %esi
 2468      31800000 
 2468      00
 2469 0087 41887201 		movb	%sil, 1(%r10)
1050:fltk-1.3.4-1/jpeg/jidctint.c **** 
1051:fltk-1.3.4-1/jpeg/jidctint.c ****   /* Row 1 */
1052:fltk-1.3.4-1/jpeg/jidctint.c ****   outptr = output_buf[1] + output_col;
 2470              		.loc 1 1052 0
 2471 008b 4C034108 		addq	8(%rcx), %r8
 2472              	.LVL356:
1053:fltk-1.3.4-1/jpeg/jidctint.c **** 
1054:fltk-1.3.4-1/jpeg/jidctint.c ****   outptr[0] = range_limit[(int) RIGHT_SHIFT(tmp2 + tmp3, 3) & RANGE_MASK];
 2473              		.loc 1 1054 0
 2474 008f 488D0C10 		leaq	(%rax,%rdx), %rcx
 2475              	.LVL357:
1055:fltk-1.3.4-1/jpeg/jidctint.c ****   outptr[1] = range_limit[(int) RIGHT_SHIFT(tmp2 - tmp3, 3) & RANGE_MASK];
 2476              		.loc 1 1055 0
 2477 0093 4829D0   		subq	%rdx, %rax
 2478              	.LVL358:
1054:fltk-1.3.4-1/jpeg/jidctint.c ****   outptr[1] = range_limit[(int) RIGHT_SHIFT(tmp2 - tmp3, 3) & RANGE_MASK];
 2479              		.loc 1 1054 0
 2480 0096 48C1F903 		sarq	$3, %rcx
 2481              		.loc 1 1055 0
 2482 009a 48C1F803 		sarq	$3, %rax
1054:fltk-1.3.4-1/jpeg/jidctint.c ****   outptr[1] = range_limit[(int) RIGHT_SHIFT(tmp2 - tmp3, 3) & RANGE_MASK];
 2483              		.loc 1 1054 0
 2484 009e 81E1FF03 		andl	$1023, %ecx
 2484      0000
 2485              		.loc 1 1055 0
 2486 00a4 25FF0300 		andl	$1023, %eax
 2486      00
1054:fltk-1.3.4-1/jpeg/jidctint.c ****   outptr[1] = range_limit[(int) RIGHT_SHIFT(tmp2 - tmp3, 3) & RANGE_MASK];
 2487              		.loc 1 1054 0
 2488 00a9 410FB68C 		movzbl	128(%r9,%rcx), %ecx
 2488      09800000 
 2488      00
 2489 00b2 418808   		movb	%cl, (%r8)
 2490              		.loc 1 1055 0
 2491 00b5 410FB684 		movzbl	128(%r9,%rax), %eax
 2491      01800000 
 2491      00
 2492 00be 41884001 		movb	%al, 1(%r8)
 2493 00c2 C3       		ret
 2494              		.cfi_endproc
 2495              	.LFE67:
 2497              		.section	.text.unlikely.jpeg_idct_2x2
 2498              	.LCOLDE6:
 2499              		.section	.text.jpeg_idct_2x2
 2500              	.LHOTE6:
 2501              		.section	.text.unlikely.jpeg_idct_1x1,"ax",@progbits
 2502              	.LCOLDB7:
 2503              		.section	.text.jpeg_idct_1x1,"ax",@progbits
 2504              	.LHOTB7:
 2505              		.p2align 4,,15
 2506              		.globl	jpeg_idct_1x1
 2508              	jpeg_idct_1x1:
 2509              	.LFB68:
1056:fltk-1.3.4-1/jpeg/jidctint.c **** }
1057:fltk-1.3.4-1/jpeg/jidctint.c **** 
1058:fltk-1.3.4-1/jpeg/jidctint.c **** 
1059:fltk-1.3.4-1/jpeg/jidctint.c **** /*
1060:fltk-1.3.4-1/jpeg/jidctint.c ****  * Perform dequantization and inverse DCT on one block of coefficients,
1061:fltk-1.3.4-1/jpeg/jidctint.c ****  * producing a reduced-size 1x1 output block.
1062:fltk-1.3.4-1/jpeg/jidctint.c ****  *
1063:fltk-1.3.4-1/jpeg/jidctint.c ****  * We hardly need an inverse DCT routine for this: just take the
1064:fltk-1.3.4-1/jpeg/jidctint.c ****  * average pixel value, which is one-eighth of the DC coefficient.
1065:fltk-1.3.4-1/jpeg/jidctint.c ****  */
1066:fltk-1.3.4-1/jpeg/jidctint.c **** 
1067:fltk-1.3.4-1/jpeg/jidctint.c **** GLOBAL(void)
1068:fltk-1.3.4-1/jpeg/jidctint.c **** jpeg_idct_1x1 (j_decompress_ptr cinfo, jpeg_component_info * compptr,
1069:fltk-1.3.4-1/jpeg/jidctint.c **** 	       JCOEFPTR coef_block,
1070:fltk-1.3.4-1/jpeg/jidctint.c **** 	       JSAMPARRAY output_buf, JDIMENSION output_col)
1071:fltk-1.3.4-1/jpeg/jidctint.c **** {
 2510              		.loc 1 1071 0
 2511              		.cfi_startproc
 2512              	.LVL359:
1072:fltk-1.3.4-1/jpeg/jidctint.c ****   int dcval;
1073:fltk-1.3.4-1/jpeg/jidctint.c ****   ISLOW_MULT_TYPE * quantptr;
1074:fltk-1.3.4-1/jpeg/jidctint.c ****   JSAMPLE *range_limit = IDCT_range_limit(cinfo);
1075:fltk-1.3.4-1/jpeg/jidctint.c ****   SHIFT_TEMPS
1076:fltk-1.3.4-1/jpeg/jidctint.c **** 
1077:fltk-1.3.4-1/jpeg/jidctint.c ****   /* 1x1 is trivial: just take the DC coefficient divided by 8. */
1078:fltk-1.3.4-1/jpeg/jidctint.c ****   quantptr = (ISLOW_MULT_TYPE *) compptr->dct_table;
1079:fltk-1.3.4-1/jpeg/jidctint.c ****   dcval = DEQUANTIZE(coef_block[0], quantptr[0]);
 2513              		.loc 1 1079 0
 2514 0000 488B7658 		movq	88(%rsi), %rsi
 2515              	.LVL360:
1080:fltk-1.3.4-1/jpeg/jidctint.c ****   dcval = (int) DESCALE((INT32) dcval, 3);
 2516              		.loc 1 1080 0
 2517 0004 0FBF02   		movswl	(%rdx), %eax
1081:fltk-1.3.4-1/jpeg/jidctint.c **** 
1082:fltk-1.3.4-1/jpeg/jidctint.c ****   output_buf[0][output_col] = range_limit[dcval & RANGE_MASK];
 2518              		.loc 1 1082 0
 2519 0007 4589C0   		movl	%r8d, %r8d
 2520 000a 488B97B8 		movq	440(%rdi), %rdx
 2520      010000
 2521              	.LVL361:
1080:fltk-1.3.4-1/jpeg/jidctint.c ****   dcval = (int) DESCALE((INT32) dcval, 3);
 2522              		.loc 1 1080 0
 2523 0011 0FAF06   		imull	(%rsi), %eax
 2524              	.LVL362:
 2525 0014 4898     		cltq
 2526 0016 4883C004 		addq	$4, %rax
 2527              	.LVL363:
 2528 001a 48C1F803 		sarq	$3, %rax
 2529              	.LVL364:
 2530              		.loc 1 1082 0
 2531 001e 25FF0300 		andl	$1023, %eax
 2531      00
 2532              	.LVL365:
 2533 0023 0FB69402 		movzbl	128(%rdx,%rax), %edx
 2533      80000000 
 2534 002b 488B01   		movq	(%rcx), %rax
 2535 002e 42881400 		movb	%dl, (%rax,%r8)
 2536              	.LVL366:
 2537 0032 C3       		ret
 2538              		.cfi_endproc
 2539              	.LFE68:
 2541              		.section	.text.unlikely.jpeg_idct_1x1
 2542              	.LCOLDE7:
 2543              		.section	.text.jpeg_idct_1x1
 2544              	.LHOTE7:
 2545              		.section	.text.unlikely.jpeg_idct_9x9,"ax",@progbits
 2546              	.LCOLDB8:
 2547              		.section	.text.jpeg_idct_9x9,"ax",@progbits
 2548              	.LHOTB8:
 2549              		.p2align 4,,15
 2550              		.globl	jpeg_idct_9x9
 2552              	jpeg_idct_9x9:
 2553              	.LFB69:
1083:fltk-1.3.4-1/jpeg/jidctint.c **** }
1084:fltk-1.3.4-1/jpeg/jidctint.c **** 
1085:fltk-1.3.4-1/jpeg/jidctint.c **** 
1086:fltk-1.3.4-1/jpeg/jidctint.c **** /*
1087:fltk-1.3.4-1/jpeg/jidctint.c ****  * Perform dequantization and inverse DCT on one block of coefficients,
1088:fltk-1.3.4-1/jpeg/jidctint.c ****  * producing a 9x9 output block.
1089:fltk-1.3.4-1/jpeg/jidctint.c ****  *
1090:fltk-1.3.4-1/jpeg/jidctint.c ****  * Optimized algorithm with 10 multiplications in the 1-D kernel.
1091:fltk-1.3.4-1/jpeg/jidctint.c ****  * cK represents sqrt(2) * cos(K*pi/18).
1092:fltk-1.3.4-1/jpeg/jidctint.c ****  */
1093:fltk-1.3.4-1/jpeg/jidctint.c **** 
1094:fltk-1.3.4-1/jpeg/jidctint.c **** GLOBAL(void)
1095:fltk-1.3.4-1/jpeg/jidctint.c **** jpeg_idct_9x9 (j_decompress_ptr cinfo, jpeg_component_info * compptr,
1096:fltk-1.3.4-1/jpeg/jidctint.c **** 	       JCOEFPTR coef_block,
1097:fltk-1.3.4-1/jpeg/jidctint.c **** 	       JSAMPARRAY output_buf, JDIMENSION output_col)
1098:fltk-1.3.4-1/jpeg/jidctint.c **** {
 2554              		.loc 1 1098 0
 2555              		.cfi_startproc
 2556              	.LVL367:
 2557 0000 4157     		pushq	%r15
 2558              		.cfi_def_cfa_offset 16
 2559              		.cfi_offset 15, -16
 2560 0002 4156     		pushq	%r14
 2561              		.cfi_def_cfa_offset 24
 2562              		.cfi_offset 14, -24
 2563 0004 4155     		pushq	%r13
 2564              		.cfi_def_cfa_offset 32
 2565              		.cfi_offset 13, -32
 2566 0006 4154     		pushq	%r12
 2567              		.cfi_def_cfa_offset 40
 2568              		.cfi_offset 12, -40
 2569 0008 4989D5   		movq	%rdx, %r13
 2570 000b 55       		pushq	%rbp
 2571              		.cfi_def_cfa_offset 48
 2572              		.cfi_offset 6, -48
 2573 000c 53       		pushq	%rbx
 2574              		.cfi_def_cfa_offset 56
 2575              		.cfi_offset 3, -56
 2576 000d 4881EC78 		subq	$376, %rsp
 2576      010000
 2577              		.cfi_def_cfa_offset 432
1099:fltk-1.3.4-1/jpeg/jidctint.c ****   INT32 tmp0, tmp1, tmp2, tmp3, tmp10, tmp11, tmp12, tmp13, tmp14;
1100:fltk-1.3.4-1/jpeg/jidctint.c ****   INT32 z1, z2, z3, z4;
1101:fltk-1.3.4-1/jpeg/jidctint.c ****   JCOEFPTR inptr;
1102:fltk-1.3.4-1/jpeg/jidctint.c ****   ISLOW_MULT_TYPE * quantptr;
1103:fltk-1.3.4-1/jpeg/jidctint.c ****   int * wsptr;
1104:fltk-1.3.4-1/jpeg/jidctint.c ****   JSAMPROW outptr;
1105:fltk-1.3.4-1/jpeg/jidctint.c ****   JSAMPLE *range_limit = IDCT_range_limit(cinfo);
1106:fltk-1.3.4-1/jpeg/jidctint.c ****   int ctr;
1107:fltk-1.3.4-1/jpeg/jidctint.c ****   int workspace[8*9];	/* buffers data between passes */
1108:fltk-1.3.4-1/jpeg/jidctint.c ****   SHIFT_TEMPS
1109:fltk-1.3.4-1/jpeg/jidctint.c **** 
1110:fltk-1.3.4-1/jpeg/jidctint.c ****   /* Pass 1: process columns from input, store into work array. */
1111:fltk-1.3.4-1/jpeg/jidctint.c **** 
1112:fltk-1.3.4-1/jpeg/jidctint.c ****   inptr = coef_block;
1113:fltk-1.3.4-1/jpeg/jidctint.c ****   quantptr = (ISLOW_MULT_TYPE *) compptr->dct_table;
 2578              		.loc 1 1113 0
 2579 0014 4C8B7658 		movq	88(%rsi), %r14
1098:fltk-1.3.4-1/jpeg/jidctint.c ****   INT32 tmp0, tmp1, tmp2, tmp3, tmp10, tmp11, tmp12, tmp13, tmp14;
 2580              		.loc 1 1098 0
 2581 0018 64488B04 		movq	%fs:40, %rax
 2581      25280000 
 2581      00
 2582 0021 48898424 		movq	%rax, 360(%rsp)
 2582      68010000 
 2583 0029 31C0     		xorl	%eax, %eax
1105:fltk-1.3.4-1/jpeg/jidctint.c ****   int ctr;
 2584              		.loc 1 1105 0
 2585 002b 488B87B8 		movq	440(%rdi), %rax
 2585      010000
1114:fltk-1.3.4-1/jpeg/jidctint.c ****   wsptr = workspace;
 2586              		.loc 1 1114 0
 2587 0032 4C8D5424 		leaq	64(%rsp), %r10
 2587      40
1098:fltk-1.3.4-1/jpeg/jidctint.c ****   INT32 tmp0, tmp1, tmp2, tmp3, tmp10, tmp11, tmp12, tmp13, tmp14;
 2588              		.loc 1 1098 0
 2589 0037 48894C24 		movq	%rcx, 48(%rsp)
 2589      30
 2590 003c 44894424 		movl	%r8d, 40(%rsp)
 2590      28
1105:fltk-1.3.4-1/jpeg/jidctint.c ****   int ctr;
 2591              		.loc 1 1105 0
 2592 0041 4C8DB880 		leaq	128(%rax), %r15
 2592      000000
 2593              	.LVL368:
1115:fltk-1.3.4-1/jpeg/jidctint.c ****   for (ctr = 0; ctr < 8; ctr++, inptr++, quantptr++, wsptr++) {
 2594              		.loc 1 1115 0
 2595 0048 488D4424 		leaq	96(%rsp), %rax
 2595      60
 2596 004d 4C897C24 		movq	%r15, 56(%rsp)
 2596      38
 2597 0052 48894424 		movq	%rax, 32(%rsp)
 2597      20
 2598              	.LVL369:
 2599 0057 660F1F84 		.p2align 4,,10
 2599      00000000 
 2599      00
 2600              		.p2align 3
 2601              	.L79:
1116:fltk-1.3.4-1/jpeg/jidctint.c ****     /* Even part */
1117:fltk-1.3.4-1/jpeg/jidctint.c **** 
1118:fltk-1.3.4-1/jpeg/jidctint.c ****     tmp0 = DEQUANTIZE(inptr[DCTSIZE*0], quantptr[DCTSIZE*0]);
1119:fltk-1.3.4-1/jpeg/jidctint.c ****     tmp0 <<= CONST_BITS;
1120:fltk-1.3.4-1/jpeg/jidctint.c ****     /* Add fudge factor here for final descale. */
1121:fltk-1.3.4-1/jpeg/jidctint.c ****     tmp0 += ONE << (CONST_BITS-PASS1_BITS-1);
1122:fltk-1.3.4-1/jpeg/jidctint.c **** 
1123:fltk-1.3.4-1/jpeg/jidctint.c ****     z1 = DEQUANTIZE(inptr[DCTSIZE*2], quantptr[DCTSIZE*2]);
 2602              		.loc 1 1123 0 discriminator 3
 2603 0060 410FBF75 		movswl	32(%r13), %esi
 2603      20
1124:fltk-1.3.4-1/jpeg/jidctint.c ****     z2 = DEQUANTIZE(inptr[DCTSIZE*4], quantptr[DCTSIZE*4]);
1125:fltk-1.3.4-1/jpeg/jidctint.c ****     z3 = DEQUANTIZE(inptr[DCTSIZE*6], quantptr[DCTSIZE*6]);
1126:fltk-1.3.4-1/jpeg/jidctint.c **** 
1127:fltk-1.3.4-1/jpeg/jidctint.c ****     tmp3 = MULTIPLY(z3, FIX(0.707106781));      /* c6 */
 2604              		.loc 1 1127 0 discriminator 3
 2605 0065 410FBF55 		movswl	96(%r13), %edx
 2605      60
1123:fltk-1.3.4-1/jpeg/jidctint.c ****     z2 = DEQUANTIZE(inptr[DCTSIZE*4], quantptr[DCTSIZE*4]);
 2606              		.loc 1 1123 0 discriminator 3
 2607 006a 410FAF76 		imull	64(%r14), %esi
 2607      40
 2608              		.loc 1 1127 0 discriminator 3
 2609 006f 410FAF96 		imull	192(%r14), %edx
 2609      C0000000 
1124:fltk-1.3.4-1/jpeg/jidctint.c ****     z2 = DEQUANTIZE(inptr[DCTSIZE*4], quantptr[DCTSIZE*4]);
 2610              		.loc 1 1124 0 discriminator 3
 2611 0077 410FBF4D 		movswl	64(%r13), %ecx
 2611      40
1118:fltk-1.3.4-1/jpeg/jidctint.c ****     tmp0 <<= CONST_BITS;
 2612              		.loc 1 1118 0 discriminator 3
 2613 007c 410FBF45 		movswl	0(%r13), %eax
 2613      00
1124:fltk-1.3.4-1/jpeg/jidctint.c ****     z2 = DEQUANTIZE(inptr[DCTSIZE*4], quantptr[DCTSIZE*4]);
 2614              		.loc 1 1124 0 discriminator 3
 2615 0081 410FAF8E 		imull	128(%r14), %ecx
 2615      80000000 
1118:fltk-1.3.4-1/jpeg/jidctint.c ****     tmp0 <<= CONST_BITS;
 2616              		.loc 1 1118 0 discriminator 3
 2617 0089 410FAF06 		imull	(%r14), %eax
1128:fltk-1.3.4-1/jpeg/jidctint.c ****     tmp1 = tmp0 + tmp3;
1129:fltk-1.3.4-1/jpeg/jidctint.c ****     tmp2 = tmp0 - tmp3 - tmp3;
1130:fltk-1.3.4-1/jpeg/jidctint.c **** 
1131:fltk-1.3.4-1/jpeg/jidctint.c ****     tmp0 = MULTIPLY(z1 - z2, FIX(0.707106781)); /* c6 */
1132:fltk-1.3.4-1/jpeg/jidctint.c ****     tmp11 = tmp2 + tmp0;
1133:fltk-1.3.4-1/jpeg/jidctint.c ****     tmp14 = tmp2 - tmp0 - tmp0;
1134:fltk-1.3.4-1/jpeg/jidctint.c **** 
1135:fltk-1.3.4-1/jpeg/jidctint.c ****     tmp0 = MULTIPLY(z1 + z2, FIX(1.328926049)); /* c2 */
1136:fltk-1.3.4-1/jpeg/jidctint.c ****     tmp2 = MULTIPLY(z1, FIX(1.083350441));      /* c4 */
1137:fltk-1.3.4-1/jpeg/jidctint.c ****     tmp3 = MULTIPLY(z2, FIX(0.245575608));      /* c8 */
1138:fltk-1.3.4-1/jpeg/jidctint.c **** 
1139:fltk-1.3.4-1/jpeg/jidctint.c ****     tmp10 = tmp1 + tmp0 - tmp3;
1140:fltk-1.3.4-1/jpeg/jidctint.c ****     tmp12 = tmp1 - tmp0 + tmp2;
1141:fltk-1.3.4-1/jpeg/jidctint.c ****     tmp13 = tmp1 - tmp2 + tmp3;
1142:fltk-1.3.4-1/jpeg/jidctint.c **** 
1143:fltk-1.3.4-1/jpeg/jidctint.c ****     /* Odd part */
1144:fltk-1.3.4-1/jpeg/jidctint.c **** 
1145:fltk-1.3.4-1/jpeg/jidctint.c ****     z1 = DEQUANTIZE(inptr[DCTSIZE*1], quantptr[DCTSIZE*1]);
1146:fltk-1.3.4-1/jpeg/jidctint.c ****     z2 = DEQUANTIZE(inptr[DCTSIZE*3], quantptr[DCTSIZE*3]);
1147:fltk-1.3.4-1/jpeg/jidctint.c ****     z3 = DEQUANTIZE(inptr[DCTSIZE*5], quantptr[DCTSIZE*5]);
 2618              		.loc 1 1147 0 discriminator 3
 2619 008d 450FBF4D 		movswl	80(%r13), %r9d
 2619      50
1148:fltk-1.3.4-1/jpeg/jidctint.c ****     z4 = DEQUANTIZE(inptr[DCTSIZE*7], quantptr[DCTSIZE*7]);
 2620              		.loc 1 1148 0 discriminator 3
 2621 0092 450FBF45 		movswl	112(%r13), %r8d
 2621      70
1123:fltk-1.3.4-1/jpeg/jidctint.c ****     z2 = DEQUANTIZE(inptr[DCTSIZE*4], quantptr[DCTSIZE*4]);
 2622              		.loc 1 1123 0 discriminator 3
 2623 0097 4863F6   		movslq	%esi, %rsi
1127:fltk-1.3.4-1/jpeg/jidctint.c ****     tmp1 = tmp0 + tmp3;
 2624              		.loc 1 1127 0 discriminator 3
 2625 009a 4863D2   		movslq	%edx, %rdx
1131:fltk-1.3.4-1/jpeg/jidctint.c ****     tmp11 = tmp2 + tmp0;
 2626              		.loc 1 1131 0 discriminator 3
 2627 009d 4889F5   		movq	%rsi, %rbp
1127:fltk-1.3.4-1/jpeg/jidctint.c ****     tmp1 = tmp0 + tmp3;
 2628              		.loc 1 1127 0 discriminator 3
 2629 00a0 4869D2A1 		imulq	$5793, %rdx, %rdx
 2629      160000
1124:fltk-1.3.4-1/jpeg/jidctint.c ****     z3 = DEQUANTIZE(inptr[DCTSIZE*6], quantptr[DCTSIZE*6]);
 2630              		.loc 1 1124 0 discriminator 3
 2631 00a7 4863C9   		movslq	%ecx, %rcx
1131:fltk-1.3.4-1/jpeg/jidctint.c ****     tmp11 = tmp2 + tmp0;
 2632              		.loc 1 1131 0 discriminator 3
 2633 00aa 4829CD   		subq	%rcx, %rbp
1118:fltk-1.3.4-1/jpeg/jidctint.c ****     tmp0 <<= CONST_BITS;
 2634              		.loc 1 1118 0 discriminator 3
 2635 00ad 4898     		cltq
 2636              	.LVL370:
1119:fltk-1.3.4-1/jpeg/jidctint.c ****     /* Add fudge factor here for final descale. */
 2637              		.loc 1 1119 0 discriminator 3
 2638 00af 48C1E00D 		salq	$13, %rax
 2639              	.LVL371:
1131:fltk-1.3.4-1/jpeg/jidctint.c ****     tmp11 = tmp2 + tmp0;
 2640              		.loc 1 1131 0 discriminator 3
 2641 00b3 4869EDA1 		imulq	$5793, %rbp, %rbp
 2641      160000
1121:fltk-1.3.4-1/jpeg/jidctint.c **** 
 2642              		.loc 1 1121 0 discriminator 3
 2643 00ba 48050004 		addq	$1024, %rax
 2643      0000
 2644              	.LVL372:
1128:fltk-1.3.4-1/jpeg/jidctint.c ****     tmp2 = tmp0 - tmp3 - tmp3;
 2645              		.loc 1 1128 0 discriminator 3
 2646 00c0 488D3C10 		leaq	(%rax,%rdx), %rdi
 2647              	.LVL373:
1129:fltk-1.3.4-1/jpeg/jidctint.c **** 
 2648              		.loc 1 1129 0 discriminator 3
 2649 00c4 4829D0   		subq	%rdx, %rax
 2650              	.LVL374:
 2651 00c7 4829D0   		subq	%rdx, %rax
 2652 00ca 4989C7   		movq	%rax, %r15
 2653              	.LVL375:
1140:fltk-1.3.4-1/jpeg/jidctint.c ****     tmp13 = tmp1 - tmp2 + tmp3;
 2654              		.loc 1 1140 0 discriminator 3
 2655 00cd 4889FB   		movq	%rdi, %rbx
1132:fltk-1.3.4-1/jpeg/jidctint.c ****     tmp14 = tmp2 - tmp0 - tmp0;
 2656              		.loc 1 1132 0 discriminator 3
 2657 00d0 4C8D1C28 		leaq	(%rax,%rbp), %r11
 2658              	.LVL376:
1135:fltk-1.3.4-1/jpeg/jidctint.c ****     tmp2 = MULTIPLY(z1, FIX(1.083350441));      /* c4 */
 2659              		.loc 1 1135 0 discriminator 3
 2660 00d4 488D040E 		leaq	(%rsi,%rcx), %rax
 2661              	.LVL377:
1136:fltk-1.3.4-1/jpeg/jidctint.c ****     tmp3 = MULTIPLY(z2, FIX(0.245575608));      /* c8 */
 2662              		.loc 1 1136 0 discriminator 3
 2663 00d8 4869F6AB 		imulq	$8875, %rsi, %rsi
 2663      220000
 2664              	.LVL378:
1135:fltk-1.3.4-1/jpeg/jidctint.c ****     tmp2 = MULTIPLY(z1, FIX(1.083350441));      /* c4 */
 2665              		.loc 1 1135 0 discriminator 3
 2666 00df 4869C087 		imulq	$10887, %rax, %rax
 2666      2A0000
 2667              	.LVL379:
1137:fltk-1.3.4-1/jpeg/jidctint.c **** 
 2668              		.loc 1 1137 0 discriminator 3
 2669 00e6 4869D1DC 		imulq	$2012, %rcx, %rdx
 2669      070000
 2670              	.LVL380:
1147:fltk-1.3.4-1/jpeg/jidctint.c ****     z4 = DEQUANTIZE(inptr[DCTSIZE*7], quantptr[DCTSIZE*7]);
 2671              		.loc 1 1147 0 discriminator 3
 2672 00ed 450FAF8E 		imull	160(%r14), %r9d
 2672      A0000000 
 2673              		.loc 1 1148 0 discriminator 3
 2674 00f5 450FAF86 		imull	224(%r14), %r8d
 2674      E0000000 
1140:fltk-1.3.4-1/jpeg/jidctint.c ****     tmp13 = tmp1 - tmp2 + tmp3;
 2675              		.loc 1 1140 0 discriminator 3
 2676 00fd 4829C3   		subq	%rax, %rbx
1139:fltk-1.3.4-1/jpeg/jidctint.c ****     tmp12 = tmp1 - tmp0 + tmp2;
 2677              		.loc 1 1139 0 discriminator 3
 2678 0100 488D0C07 		leaq	(%rdi,%rax), %rcx
 2679              	.LVL381:
1141:fltk-1.3.4-1/jpeg/jidctint.c **** 
 2680              		.loc 1 1141 0 discriminator 3
 2681 0104 4829F7   		subq	%rsi, %rdi
 2682              	.LVL382:
1140:fltk-1.3.4-1/jpeg/jidctint.c ****     tmp13 = tmp1 - tmp2 + tmp3;
 2683              		.loc 1 1140 0 discriminator 3
 2684 0107 4889D8   		movq	%rbx, %rax
 2685              	.LVL383:
 2686 010a 4801F0   		addq	%rsi, %rax
1139:fltk-1.3.4-1/jpeg/jidctint.c ****     tmp12 = tmp1 - tmp0 + tmp2;
 2687              		.loc 1 1139 0 discriminator 3
 2688 010d 4829D1   		subq	%rdx, %rcx
1141:fltk-1.3.4-1/jpeg/jidctint.c **** 
 2689              		.loc 1 1141 0 discriminator 3
 2690 0110 488D3417 		leaq	(%rdi,%rdx), %rsi
 2691              	.LVL384:
1140:fltk-1.3.4-1/jpeg/jidctint.c ****     tmp13 = tmp1 - tmp2 + tmp3;
 2692              		.loc 1 1140 0 discriminator 3
 2693 0114 48894424 		movq	%rax, 16(%rsp)
 2693      10
 2694              	.LVL385:
1145:fltk-1.3.4-1/jpeg/jidctint.c ****     z2 = DEQUANTIZE(inptr[DCTSIZE*3], quantptr[DCTSIZE*3]);
 2695              		.loc 1 1145 0 discriminator 3
 2696 0119 410FBF45 		movswl	16(%r13), %eax
 2696      10
 2697 011e 410FAF46 		imull	32(%r14), %eax
 2697      20
1146:fltk-1.3.4-1/jpeg/jidctint.c ****     z3 = DEQUANTIZE(inptr[DCTSIZE*5], quantptr[DCTSIZE*5]);
 2698              		.loc 1 1146 0 discriminator 3
 2699 0123 410FBF55 		movswl	48(%r13), %edx
 2699      30
 2700              	.LVL386:
1147:fltk-1.3.4-1/jpeg/jidctint.c ****     z4 = DEQUANTIZE(inptr[DCTSIZE*7], quantptr[DCTSIZE*7]);
 2701              		.loc 1 1147 0 discriminator 3
 2702 0128 4D63C9   		movslq	%r9d, %r9
 2703              		.loc 1 1148 0 discriminator 3
 2704 012b 4D63C0   		movslq	%r8d, %r8
1146:fltk-1.3.4-1/jpeg/jidctint.c ****     z3 = DEQUANTIZE(inptr[DCTSIZE*5], quantptr[DCTSIZE*5]);
 2705              		.loc 1 1146 0 discriminator 3
 2706 012e 410FAF56 		imull	96(%r14), %edx
 2706      60
1141:fltk-1.3.4-1/jpeg/jidctint.c **** 
 2707              		.loc 1 1141 0 discriminator 3
 2708 0133 48897424 		movq	%rsi, 24(%rsp)
 2708      18
 2709              	.LVL387:
1149:fltk-1.3.4-1/jpeg/jidctint.c **** 
1150:fltk-1.3.4-1/jpeg/jidctint.c ****     z2 = MULTIPLY(z2, - FIX(1.224744871));           /* -c3 */
1151:fltk-1.3.4-1/jpeg/jidctint.c **** 
1152:fltk-1.3.4-1/jpeg/jidctint.c ****     tmp2 = MULTIPLY(z1 + z3, FIX(0.909038955));      /* c5 */
1153:fltk-1.3.4-1/jpeg/jidctint.c ****     tmp3 = MULTIPLY(z1 + z4, FIX(0.483689525));      /* c7 */
1154:fltk-1.3.4-1/jpeg/jidctint.c ****     tmp0 = tmp2 + tmp3 - z2;
1155:fltk-1.3.4-1/jpeg/jidctint.c ****     tmp1 = MULTIPLY(z3 - z4, FIX(1.392728481));      /* c1 */
 2710              		.loc 1 1155 0 discriminator 3
 2711 0138 4C89CB   		movq	%r9, %rbx
1139:fltk-1.3.4-1/jpeg/jidctint.c ****     tmp12 = tmp1 - tmp0 + tmp2;
 2712              		.loc 1 1139 0 discriminator 3
 2713 013b 48894C24 		movq	%rcx, 8(%rsp)
 2713      08
 2714              	.LVL388:
 2715              		.loc 1 1155 0 discriminator 3
 2716 0140 4C29C3   		subq	%r8, %rbx
1145:fltk-1.3.4-1/jpeg/jidctint.c ****     z2 = DEQUANTIZE(inptr[DCTSIZE*3], quantptr[DCTSIZE*3]);
 2717              		.loc 1 1145 0 discriminator 3
 2718 0143 4898     		cltq
 2719              	.LVL389:
1152:fltk-1.3.4-1/jpeg/jidctint.c ****     tmp3 = MULTIPLY(z1 + z4, FIX(0.483689525));      /* c7 */
 2720              		.loc 1 1152 0 discriminator 3
 2721 0145 4A8D3C08 		leaq	(%rax,%r9), %rdi
1153:fltk-1.3.4-1/jpeg/jidctint.c ****     tmp0 = tmp2 + tmp3 - z2;
 2722              		.loc 1 1153 0 discriminator 3
 2723 0149 4A8D3400 		leaq	(%rax,%r8), %rsi
1146:fltk-1.3.4-1/jpeg/jidctint.c ****     z3 = DEQUANTIZE(inptr[DCTSIZE*5], quantptr[DCTSIZE*5]);
 2724              		.loc 1 1146 0 discriminator 3
 2725 014d 4863D2   		movslq	%edx, %rdx
 2726              	.LVL390:
1153:fltk-1.3.4-1/jpeg/jidctint.c ****     tmp0 = tmp2 + tmp3 - z2;
 2727              		.loc 1 1153 0 discriminator 3
 2728 0150 4869F67A 		imulq	$3962, %rsi, %rsi
 2728      0F0000
1152:fltk-1.3.4-1/jpeg/jidctint.c ****     tmp3 = MULTIPLY(z1 + z4, FIX(0.483689525));      /* c7 */
 2729              		.loc 1 1152 0 discriminator 3
 2730 0157 4869FF17 		imulq	$7447, %rdi, %rdi
 2730      1D0000
1150:fltk-1.3.4-1/jpeg/jidctint.c **** 
 2731              		.loc 1 1150 0 discriminator 3
 2732 015e 4869D2CF 		imulq	$-10033, %rdx, %rdx
 2732      D8FFFF
 2733              	.LVL391:
1154:fltk-1.3.4-1/jpeg/jidctint.c ****     tmp1 = MULTIPLY(z3 - z4, FIX(1.392728481));      /* c1 */
 2734              		.loc 1 1154 0 discriminator 3
 2735 0165 4C8D2437 		leaq	(%rdi,%rsi), %r12
 2736              		.loc 1 1155 0 discriminator 3
 2737 0169 4869DB91 		imulq	$11409, %rbx, %rbx
 2737      2C0000
1156:fltk-1.3.4-1/jpeg/jidctint.c ****     tmp2 += z2 - tmp1;
 2738              		.loc 1 1156 0 discriminator 3
 2739 0170 4889D1   		movq	%rdx, %rcx
1154:fltk-1.3.4-1/jpeg/jidctint.c ****     tmp1 = MULTIPLY(z3 - z4, FIX(1.392728481));      /* c1 */
 2740              		.loc 1 1154 0 discriminator 3
 2741 0173 4929D4   		subq	%rdx, %r12
 2742              	.LVL392:
 2743              		.loc 1 1156 0 discriminator 3
 2744 0176 4829D9   		subq	%rbx, %rcx
1157:fltk-1.3.4-1/jpeg/jidctint.c ****     tmp3 += z2 + tmp1;
 2745              		.loc 1 1157 0 discriminator 3
 2746 0179 4801DA   		addq	%rbx, %rdx
 2747              	.LVL393:
1158:fltk-1.3.4-1/jpeg/jidctint.c ****     tmp1 = MULTIPLY(z1 - z3 - z4, FIX(1.224744871)); /* c3 */
1159:fltk-1.3.4-1/jpeg/jidctint.c **** 
1160:fltk-1.3.4-1/jpeg/jidctint.c ****     /* Final output stage */
1161:fltk-1.3.4-1/jpeg/jidctint.c **** 
1162:fltk-1.3.4-1/jpeg/jidctint.c ****     wsptr[8*0] = (int) RIGHT_SHIFT(tmp10 + tmp0, CONST_BITS-PASS1_BITS);
1163:fltk-1.3.4-1/jpeg/jidctint.c ****     wsptr[8*8] = (int) RIGHT_SHIFT(tmp10 - tmp0, CONST_BITS-PASS1_BITS);
1164:fltk-1.3.4-1/jpeg/jidctint.c ****     wsptr[8*1] = (int) RIGHT_SHIFT(tmp11 + tmp1, CONST_BITS-PASS1_BITS);
1165:fltk-1.3.4-1/jpeg/jidctint.c ****     wsptr[8*7] = (int) RIGHT_SHIFT(tmp11 - tmp1, CONST_BITS-PASS1_BITS);
1166:fltk-1.3.4-1/jpeg/jidctint.c ****     wsptr[8*2] = (int) RIGHT_SHIFT(tmp12 + tmp2, CONST_BITS-PASS1_BITS);
 2748              		.loc 1 1166 0 discriminator 3
 2749 017c 488B5C24 		movq	16(%rsp), %rbx
 2749      10
 2750              	.LVL394:
1156:fltk-1.3.4-1/jpeg/jidctint.c ****     tmp3 += z2 + tmp1;
 2751              		.loc 1 1156 0 discriminator 3
 2752 0181 4801CF   		addq	%rcx, %rdi
 2753              	.LVL395:
1157:fltk-1.3.4-1/jpeg/jidctint.c ****     tmp3 += z2 + tmp1;
 2754              		.loc 1 1157 0 discriminator 3
 2755 0184 4801F2   		addq	%rsi, %rdx
 2756              	.LVL396:
1158:fltk-1.3.4-1/jpeg/jidctint.c ****     tmp1 = MULTIPLY(z1 - z3 - z4, FIX(1.224744871)); /* c3 */
 2757              		.loc 1 1158 0 discriminator 3
 2758 0187 4C29C8   		subq	%r9, %rax
 2759              	.LVL397:
 2760 018a 4C29C0   		subq	%r8, %rax
1162:fltk-1.3.4-1/jpeg/jidctint.c ****     wsptr[8*8] = (int) RIGHT_SHIFT(tmp10 - tmp0, CONST_BITS-PASS1_BITS);
 2761              		.loc 1 1162 0 discriminator 3
 2762 018d 488B4C24 		movq	8(%rsp), %rcx
 2762      08
1115:fltk-1.3.4-1/jpeg/jidctint.c ****     /* Even part */
 2763              		.loc 1 1115 0 discriminator 3
 2764 0192 4983C502 		addq	$2, %r13
 2765              	.LVL398:
1158:fltk-1.3.4-1/jpeg/jidctint.c **** 
 2766              		.loc 1 1158 0 discriminator 3
 2767 0196 4869C031 		imulq	$10033, %rax, %rax
 2767      270000
 2768              	.LVL399:
1115:fltk-1.3.4-1/jpeg/jidctint.c ****     /* Even part */
 2769              		.loc 1 1115 0 discriminator 3
 2770 019d 4983C604 		addq	$4, %r14
 2771              	.LVL400:
 2772 01a1 4983C204 		addq	$4, %r10
 2773              	.LVL401:
1162:fltk-1.3.4-1/jpeg/jidctint.c ****     wsptr[8*8] = (int) RIGHT_SHIFT(tmp10 - tmp0, CONST_BITS-PASS1_BITS);
 2774              		.loc 1 1162 0 discriminator 3
 2775 01a5 4A8D3421 		leaq	(%rcx,%r12), %rsi
1163:fltk-1.3.4-1/jpeg/jidctint.c ****     wsptr[8*1] = (int) RIGHT_SHIFT(tmp11 + tmp1, CONST_BITS-PASS1_BITS);
 2776              		.loc 1 1163 0 discriminator 3
 2777 01a9 4C29E1   		subq	%r12, %rcx
 2778 01ac 48C1F90B 		sarq	$11, %rcx
 2779 01b0 41898AFC 		movl	%ecx, 252(%r10)
 2779      000000
1164:fltk-1.3.4-1/jpeg/jidctint.c ****     wsptr[8*7] = (int) RIGHT_SHIFT(tmp11 - tmp1, CONST_BITS-PASS1_BITS);
 2780              		.loc 1 1164 0 discriminator 3
 2781 01b7 498D0C03 		leaq	(%r11,%rax), %rcx
1165:fltk-1.3.4-1/jpeg/jidctint.c ****     wsptr[8*2] = (int) RIGHT_SHIFT(tmp12 + tmp2, CONST_BITS-PASS1_BITS);
 2782              		.loc 1 1165 0 discriminator 3
 2783 01bb 4929C3   		subq	%rax, %r11
 2784              	.LVL402:
 2785              		.loc 1 1166 0 discriminator 3
 2786 01be 4889D8   		movq	%rbx, %rax
 2787              	.LVL403:
1162:fltk-1.3.4-1/jpeg/jidctint.c ****     wsptr[8*8] = (int) RIGHT_SHIFT(tmp10 - tmp0, CONST_BITS-PASS1_BITS);
 2788              		.loc 1 1162 0 discriminator 3
 2789 01c1 48C1FE0B 		sarq	$11, %rsi
1165:fltk-1.3.4-1/jpeg/jidctint.c ****     wsptr[8*2] = (int) RIGHT_SHIFT(tmp12 + tmp2, CONST_BITS-PASS1_BITS);
 2790              		.loc 1 1165 0 discriminator 3
 2791 01c5 49C1FB0B 		sarq	$11, %r11
 2792              		.loc 1 1166 0 discriminator 3
 2793 01c9 4801F8   		addq	%rdi, %rax
1162:fltk-1.3.4-1/jpeg/jidctint.c ****     wsptr[8*8] = (int) RIGHT_SHIFT(tmp10 - tmp0, CONST_BITS-PASS1_BITS);
 2794              		.loc 1 1162 0 discriminator 3
 2795 01cc 418972FC 		movl	%esi, -4(%r10)
1167:fltk-1.3.4-1/jpeg/jidctint.c ****     wsptr[8*6] = (int) RIGHT_SHIFT(tmp12 - tmp2, CONST_BITS-PASS1_BITS);
1168:fltk-1.3.4-1/jpeg/jidctint.c ****     wsptr[8*3] = (int) RIGHT_SHIFT(tmp13 + tmp3, CONST_BITS-PASS1_BITS);
 2796              		.loc 1 1168 0 discriminator 3
 2797 01d0 488B7424 		movq	24(%rsp), %rsi
 2797      18
1166:fltk-1.3.4-1/jpeg/jidctint.c ****     wsptr[8*6] = (int) RIGHT_SHIFT(tmp12 - tmp2, CONST_BITS-PASS1_BITS);
 2798              		.loc 1 1166 0 discriminator 3
 2799 01d5 48C1F80B 		sarq	$11, %rax
1164:fltk-1.3.4-1/jpeg/jidctint.c ****     wsptr[8*7] = (int) RIGHT_SHIFT(tmp11 - tmp1, CONST_BITS-PASS1_BITS);
 2800              		.loc 1 1164 0 discriminator 3
 2801 01d9 48C1F90B 		sarq	$11, %rcx
1165:fltk-1.3.4-1/jpeg/jidctint.c ****     wsptr[8*2] = (int) RIGHT_SHIFT(tmp12 + tmp2, CONST_BITS-PASS1_BITS);
 2802              		.loc 1 1165 0 discriminator 3
 2803 01dd 45899ADC 		movl	%r11d, 220(%r10)
 2803      000000
1166:fltk-1.3.4-1/jpeg/jidctint.c ****     wsptr[8*6] = (int) RIGHT_SHIFT(tmp12 - tmp2, CONST_BITS-PASS1_BITS);
 2804              		.loc 1 1166 0 discriminator 3
 2805 01e4 4189423C 		movl	%eax, 60(%r10)
1167:fltk-1.3.4-1/jpeg/jidctint.c ****     wsptr[8*3] = (int) RIGHT_SHIFT(tmp13 + tmp3, CONST_BITS-PASS1_BITS);
 2806              		.loc 1 1167 0 discriminator 3
 2807 01e8 4889D8   		movq	%rbx, %rax
1164:fltk-1.3.4-1/jpeg/jidctint.c ****     wsptr[8*7] = (int) RIGHT_SHIFT(tmp11 - tmp1, CONST_BITS-PASS1_BITS);
 2808              		.loc 1 1164 0 discriminator 3
 2809 01eb 41894A1C 		movl	%ecx, 28(%r10)
1167:fltk-1.3.4-1/jpeg/jidctint.c ****     wsptr[8*3] = (int) RIGHT_SHIFT(tmp13 + tmp3, CONST_BITS-PASS1_BITS);
 2810              		.loc 1 1167 0 discriminator 3
 2811 01ef 4829F8   		subq	%rdi, %rax
 2812 01f2 48C1F80B 		sarq	$11, %rax
 2813 01f6 418982BC 		movl	%eax, 188(%r10)
 2813      000000
 2814              		.loc 1 1168 0 discriminator 3
 2815 01fd 488D0416 		leaq	(%rsi,%rdx), %rax
 2816 0201 48C1F80B 		sarq	$11, %rax
 2817 0205 4189425C 		movl	%eax, 92(%r10)
1169:fltk-1.3.4-1/jpeg/jidctint.c ****     wsptr[8*5] = (int) RIGHT_SHIFT(tmp13 - tmp3, CONST_BITS-PASS1_BITS);
 2818              		.loc 1 1169 0 discriminator 3
 2819 0209 4889F0   		movq	%rsi, %rax
 2820 020c 4829D0   		subq	%rdx, %rax
 2821 020f 48C1F80B 		sarq	$11, %rax
 2822 0213 4189829C 		movl	%eax, 156(%r10)
 2822      000000
1170:fltk-1.3.4-1/jpeg/jidctint.c ****     wsptr[8*4] = (int) RIGHT_SHIFT(tmp14, CONST_BITS-PASS1_BITS);
 2823              		.loc 1 1170 0 discriminator 3
 2824 021a 4C89F8   		movq	%r15, %rax
 2825 021d 4829E8   		subq	%rbp, %rax
 2826 0220 4829E8   		subq	%rbp, %rax
 2827 0223 48C1F80B 		sarq	$11, %rax
 2828 0227 4189427C 		movl	%eax, 124(%r10)
 2829              	.LVL404:
1115:fltk-1.3.4-1/jpeg/jidctint.c ****     /* Even part */
 2830              		.loc 1 1115 0 discriminator 3
 2831 022b 4C3B5424 		cmpq	32(%rsp), %r10
 2831      20
 2832 0230 0F852AFE 		jne	.L79
 2832      FFFF
 2833 0236 8B442428 		movl	40(%rsp), %eax
 2834 023a 4C8B7C24 		movq	56(%rsp), %r15
 2834      38
 2835              	.LVL405:
1115:fltk-1.3.4-1/jpeg/jidctint.c ****     /* Even part */
 2836              		.loc 1 1115 0 is_stmt 0
 2837 023f 4C8D7424 		leaq	64(%rsp), %r14
 2837      40
 2838              	.LVL406:
 2839 0244 48894424 		movq	%rax, 40(%rsp)
 2839      28
 2840              	.LVL407:
 2841 0249 488B4424 		movq	48(%rsp), %rax
 2841      30
 2842 024e 48894424 		movq	%rax, 8(%rsp)
 2842      08
1171:fltk-1.3.4-1/jpeg/jidctint.c ****   }
1172:fltk-1.3.4-1/jpeg/jidctint.c **** 
1173:fltk-1.3.4-1/jpeg/jidctint.c ****   /* Pass 2: process 9 rows from work array, store into output array. */
1174:fltk-1.3.4-1/jpeg/jidctint.c **** 
1175:fltk-1.3.4-1/jpeg/jidctint.c ****   wsptr = workspace;
1176:fltk-1.3.4-1/jpeg/jidctint.c ****   for (ctr = 0; ctr < 9; ctr++) {
 2843              		.loc 1 1176 0 is_stmt 1
 2844 0253 488D8424 		leaq	352(%rsp), %rax
 2844      60010000 
 2845 025b 48894424 		movq	%rax, 48(%rsp)
 2845      30
 2846              	.LVL408:
 2847              		.p2align 4,,10
 2848              		.p2align 3
 2849              	.L80:
1177:fltk-1.3.4-1/jpeg/jidctint.c ****     outptr = output_buf[ctr] + output_col;
 2850              		.loc 1 1177 0 discriminator 3
 2851 0260 488B4424 		movq	8(%rsp), %rax
 2851      08
1178:fltk-1.3.4-1/jpeg/jidctint.c **** 
1179:fltk-1.3.4-1/jpeg/jidctint.c ****     /* Even part */
1180:fltk-1.3.4-1/jpeg/jidctint.c **** 
1181:fltk-1.3.4-1/jpeg/jidctint.c ****     /* Add fudge factor here for final descale. */
1182:fltk-1.3.4-1/jpeg/jidctint.c ****     tmp0 = (INT32) wsptr[0] + (ONE << (PASS1_BITS+2));
1183:fltk-1.3.4-1/jpeg/jidctint.c ****     tmp0 <<= CONST_BITS;
1184:fltk-1.3.4-1/jpeg/jidctint.c **** 
