   1              		.file	"jutils.c"
   2              		.text
   3              	.Ltext0:
   4              		.section	.text.jdiv_round_up,"ax",@progbits
   5              		.p2align 4
   6              		.globl	jdiv_round_up
   8              	jdiv_round_up:
   9              	.LVL0:
  10              	.LFB51:
  11              		.file 1 "fltk-1.3.4-1/jpeg/jutils.c"
   1:fltk-1.3.4-1/jpeg/jutils.c **** /*
   2:fltk-1.3.4-1/jpeg/jutils.c ****  * jutils.c
   3:fltk-1.3.4-1/jpeg/jutils.c ****  *
   4:fltk-1.3.4-1/jpeg/jutils.c ****  * Copyright (C) 1991-1996, Thomas G. Lane.
   5:fltk-1.3.4-1/jpeg/jutils.c ****  * Modified 2009-2011 by Guido Vollbeding.
   6:fltk-1.3.4-1/jpeg/jutils.c ****  * This file is part of the Independent JPEG Group's software.
   7:fltk-1.3.4-1/jpeg/jutils.c ****  * For conditions of distribution and use, see the accompanying README file.
   8:fltk-1.3.4-1/jpeg/jutils.c ****  *
   9:fltk-1.3.4-1/jpeg/jutils.c ****  * This file contains tables and miscellaneous utility routines needed
  10:fltk-1.3.4-1/jpeg/jutils.c ****  * for both compression and decompression.
  11:fltk-1.3.4-1/jpeg/jutils.c ****  * Note we prefix all global names with "j" to minimize conflicts with
  12:fltk-1.3.4-1/jpeg/jutils.c ****  * a surrounding application.
  13:fltk-1.3.4-1/jpeg/jutils.c ****  */
  14:fltk-1.3.4-1/jpeg/jutils.c **** 
  15:fltk-1.3.4-1/jpeg/jutils.c **** #define JPEG_INTERNALS
  16:fltk-1.3.4-1/jpeg/jutils.c **** #include "jinclude.h"
  17:fltk-1.3.4-1/jpeg/jutils.c **** #include "jpeglib.h"
  18:fltk-1.3.4-1/jpeg/jutils.c **** 
  19:fltk-1.3.4-1/jpeg/jutils.c **** 
  20:fltk-1.3.4-1/jpeg/jutils.c **** /*
  21:fltk-1.3.4-1/jpeg/jutils.c ****  * jpeg_zigzag_order[i] is the zigzag-order position of the i'th element
  22:fltk-1.3.4-1/jpeg/jutils.c ****  * of a DCT block read in natural order (left to right, top to bottom).
  23:fltk-1.3.4-1/jpeg/jutils.c ****  */
  24:fltk-1.3.4-1/jpeg/jutils.c **** 
  25:fltk-1.3.4-1/jpeg/jutils.c **** #if 0				/* This table is not actually needed in v6a */
  26:fltk-1.3.4-1/jpeg/jutils.c **** 
  27:fltk-1.3.4-1/jpeg/jutils.c **** const int jpeg_zigzag_order[DCTSIZE2] = {
  28:fltk-1.3.4-1/jpeg/jutils.c ****    0,  1,  5,  6, 14, 15, 27, 28,
  29:fltk-1.3.4-1/jpeg/jutils.c ****    2,  4,  7, 13, 16, 26, 29, 42,
  30:fltk-1.3.4-1/jpeg/jutils.c ****    3,  8, 12, 17, 25, 30, 41, 43,
  31:fltk-1.3.4-1/jpeg/jutils.c ****    9, 11, 18, 24, 31, 40, 44, 53,
  32:fltk-1.3.4-1/jpeg/jutils.c ****   10, 19, 23, 32, 39, 45, 52, 54,
  33:fltk-1.3.4-1/jpeg/jutils.c ****   20, 22, 33, 38, 46, 51, 55, 60,
  34:fltk-1.3.4-1/jpeg/jutils.c ****   21, 34, 37, 47, 50, 56, 59, 61,
  35:fltk-1.3.4-1/jpeg/jutils.c ****   35, 36, 48, 49, 57, 58, 62, 63
  36:fltk-1.3.4-1/jpeg/jutils.c **** };
  37:fltk-1.3.4-1/jpeg/jutils.c **** 
  38:fltk-1.3.4-1/jpeg/jutils.c **** #endif
  39:fltk-1.3.4-1/jpeg/jutils.c **** 
  40:fltk-1.3.4-1/jpeg/jutils.c **** /*
  41:fltk-1.3.4-1/jpeg/jutils.c ****  * jpeg_natural_order[i] is the natural-order position of the i'th element
  42:fltk-1.3.4-1/jpeg/jutils.c ****  * of zigzag order.
  43:fltk-1.3.4-1/jpeg/jutils.c ****  *
  44:fltk-1.3.4-1/jpeg/jutils.c ****  * When reading corrupted data, the Huffman decoders could attempt
  45:fltk-1.3.4-1/jpeg/jutils.c ****  * to reference an entry beyond the end of this array (if the decoded
  46:fltk-1.3.4-1/jpeg/jutils.c ****  * zero run length reaches past the end of the block).  To prevent
  47:fltk-1.3.4-1/jpeg/jutils.c ****  * wild stores without adding an inner-loop test, we put some extra
  48:fltk-1.3.4-1/jpeg/jutils.c ****  * "63"s after the real entries.  This will cause the extra coefficient
  49:fltk-1.3.4-1/jpeg/jutils.c ****  * to be stored in location 63 of the block, not somewhere random.
  50:fltk-1.3.4-1/jpeg/jutils.c ****  * The worst case would be a run-length of 15, which means we need 16
  51:fltk-1.3.4-1/jpeg/jutils.c ****  * fake entries.
  52:fltk-1.3.4-1/jpeg/jutils.c ****  */
  53:fltk-1.3.4-1/jpeg/jutils.c **** 
  54:fltk-1.3.4-1/jpeg/jutils.c **** const int jpeg_natural_order[DCTSIZE2+16] = {
  55:fltk-1.3.4-1/jpeg/jutils.c ****   0,  1,  8, 16,  9,  2,  3, 10,
  56:fltk-1.3.4-1/jpeg/jutils.c ****  17, 24, 32, 25, 18, 11,  4,  5,
  57:fltk-1.3.4-1/jpeg/jutils.c ****  12, 19, 26, 33, 40, 48, 41, 34,
  58:fltk-1.3.4-1/jpeg/jutils.c ****  27, 20, 13,  6,  7, 14, 21, 28,
  59:fltk-1.3.4-1/jpeg/jutils.c ****  35, 42, 49, 56, 57, 50, 43, 36,
  60:fltk-1.3.4-1/jpeg/jutils.c ****  29, 22, 15, 23, 30, 37, 44, 51,
  61:fltk-1.3.4-1/jpeg/jutils.c ****  58, 59, 52, 45, 38, 31, 39, 46,
  62:fltk-1.3.4-1/jpeg/jutils.c ****  53, 60, 61, 54, 47, 55, 62, 63,
  63:fltk-1.3.4-1/jpeg/jutils.c ****  63, 63, 63, 63, 63, 63, 63, 63, /* extra entries for safety in decoder */
  64:fltk-1.3.4-1/jpeg/jutils.c ****  63, 63, 63, 63, 63, 63, 63, 63
  65:fltk-1.3.4-1/jpeg/jutils.c **** };
  66:fltk-1.3.4-1/jpeg/jutils.c **** 
  67:fltk-1.3.4-1/jpeg/jutils.c **** const int jpeg_natural_order7[7*7+16] = {
  68:fltk-1.3.4-1/jpeg/jutils.c ****   0,  1,  8, 16,  9,  2,  3, 10,
  69:fltk-1.3.4-1/jpeg/jutils.c ****  17, 24, 32, 25, 18, 11,  4,  5,
  70:fltk-1.3.4-1/jpeg/jutils.c ****  12, 19, 26, 33, 40, 48, 41, 34,
  71:fltk-1.3.4-1/jpeg/jutils.c ****  27, 20, 13,  6, 14, 21, 28, 35,
  72:fltk-1.3.4-1/jpeg/jutils.c ****  42, 49, 50, 43, 36, 29, 22, 30,
  73:fltk-1.3.4-1/jpeg/jutils.c ****  37, 44, 51, 52, 45, 38, 46, 53,
  74:fltk-1.3.4-1/jpeg/jutils.c ****  54,
  75:fltk-1.3.4-1/jpeg/jutils.c ****  63, 63, 63, 63, 63, 63, 63, 63, /* extra entries for safety in decoder */
  76:fltk-1.3.4-1/jpeg/jutils.c ****  63, 63, 63, 63, 63, 63, 63, 63
  77:fltk-1.3.4-1/jpeg/jutils.c **** };
  78:fltk-1.3.4-1/jpeg/jutils.c **** 
  79:fltk-1.3.4-1/jpeg/jutils.c **** const int jpeg_natural_order6[6*6+16] = {
  80:fltk-1.3.4-1/jpeg/jutils.c ****   0,  1,  8, 16,  9,  2,  3, 10,
  81:fltk-1.3.4-1/jpeg/jutils.c ****  17, 24, 32, 25, 18, 11,  4,  5,
  82:fltk-1.3.4-1/jpeg/jutils.c ****  12, 19, 26, 33, 40, 41, 34, 27,
  83:fltk-1.3.4-1/jpeg/jutils.c ****  20, 13, 21, 28, 35, 42, 43, 36,
  84:fltk-1.3.4-1/jpeg/jutils.c ****  29, 37, 44, 45,
  85:fltk-1.3.4-1/jpeg/jutils.c ****  63, 63, 63, 63, 63, 63, 63, 63, /* extra entries for safety in decoder */
  86:fltk-1.3.4-1/jpeg/jutils.c ****  63, 63, 63, 63, 63, 63, 63, 63
  87:fltk-1.3.4-1/jpeg/jutils.c **** };
  88:fltk-1.3.4-1/jpeg/jutils.c **** 
  89:fltk-1.3.4-1/jpeg/jutils.c **** const int jpeg_natural_order5[5*5+16] = {
  90:fltk-1.3.4-1/jpeg/jutils.c ****   0,  1,  8, 16,  9,  2,  3, 10,
  91:fltk-1.3.4-1/jpeg/jutils.c ****  17, 24, 32, 25, 18, 11,  4, 12,
  92:fltk-1.3.4-1/jpeg/jutils.c ****  19, 26, 33, 34, 27, 20, 28, 35,
  93:fltk-1.3.4-1/jpeg/jutils.c ****  36,
  94:fltk-1.3.4-1/jpeg/jutils.c ****  63, 63, 63, 63, 63, 63, 63, 63, /* extra entries for safety in decoder */
  95:fltk-1.3.4-1/jpeg/jutils.c ****  63, 63, 63, 63, 63, 63, 63, 63
  96:fltk-1.3.4-1/jpeg/jutils.c **** };
  97:fltk-1.3.4-1/jpeg/jutils.c **** 
  98:fltk-1.3.4-1/jpeg/jutils.c **** const int jpeg_natural_order4[4*4+16] = {
  99:fltk-1.3.4-1/jpeg/jutils.c ****   0,  1,  8, 16,  9,  2,  3, 10,
 100:fltk-1.3.4-1/jpeg/jutils.c ****  17, 24, 25, 18, 11, 19, 26, 27,
 101:fltk-1.3.4-1/jpeg/jutils.c ****  63, 63, 63, 63, 63, 63, 63, 63, /* extra entries for safety in decoder */
 102:fltk-1.3.4-1/jpeg/jutils.c ****  63, 63, 63, 63, 63, 63, 63, 63
 103:fltk-1.3.4-1/jpeg/jutils.c **** };
 104:fltk-1.3.4-1/jpeg/jutils.c **** 
 105:fltk-1.3.4-1/jpeg/jutils.c **** const int jpeg_natural_order3[3*3+16] = {
 106:fltk-1.3.4-1/jpeg/jutils.c ****   0,  1,  8, 16,  9,  2, 10, 17,
 107:fltk-1.3.4-1/jpeg/jutils.c ****  18,
 108:fltk-1.3.4-1/jpeg/jutils.c ****  63, 63, 63, 63, 63, 63, 63, 63, /* extra entries for safety in decoder */
 109:fltk-1.3.4-1/jpeg/jutils.c ****  63, 63, 63, 63, 63, 63, 63, 63
 110:fltk-1.3.4-1/jpeg/jutils.c **** };
 111:fltk-1.3.4-1/jpeg/jutils.c **** 
 112:fltk-1.3.4-1/jpeg/jutils.c **** const int jpeg_natural_order2[2*2+16] = {
 113:fltk-1.3.4-1/jpeg/jutils.c ****   0,  1,  8,  9,
 114:fltk-1.3.4-1/jpeg/jutils.c ****  63, 63, 63, 63, 63, 63, 63, 63, /* extra entries for safety in decoder */
 115:fltk-1.3.4-1/jpeg/jutils.c ****  63, 63, 63, 63, 63, 63, 63, 63
 116:fltk-1.3.4-1/jpeg/jutils.c **** };
 117:fltk-1.3.4-1/jpeg/jutils.c **** 
 118:fltk-1.3.4-1/jpeg/jutils.c **** 
 119:fltk-1.3.4-1/jpeg/jutils.c **** /*
 120:fltk-1.3.4-1/jpeg/jutils.c ****  * Arithmetic utilities
 121:fltk-1.3.4-1/jpeg/jutils.c ****  */
 122:fltk-1.3.4-1/jpeg/jutils.c **** 
 123:fltk-1.3.4-1/jpeg/jutils.c **** GLOBAL(long)
 124:fltk-1.3.4-1/jpeg/jutils.c **** jdiv_round_up (long a, long b)
 125:fltk-1.3.4-1/jpeg/jutils.c **** /* Compute a/b rounded up to next integer, ie, ceil(a/b) */
 126:fltk-1.3.4-1/jpeg/jutils.c **** /* Assumes a >= 0, b > 0 */
 127:fltk-1.3.4-1/jpeg/jutils.c **** {
  12              		.loc 1 127 1 view -0
  13              		.cfi_startproc
  14              		.loc 1 127 1 is_stmt 0 view .LVU1
  15 0000 F30F1EFA 		endbr64
 128:fltk-1.3.4-1/jpeg/jutils.c ****   return (a + b - 1L) / b;
  16              		.loc 1 128 3 is_stmt 1 view .LVU2
  17              		.loc 1 128 17 is_stmt 0 view .LVU3
  18 0004 488D443E 		leaq	-1(%rsi,%rdi), %rax
  18      FF
  19              		.loc 1 128 23 view .LVU4
  20 0009 4899     		cqto
  21 000b 48F7FE   		idivq	%rsi
 129:fltk-1.3.4-1/jpeg/jutils.c **** }
  22              		.loc 1 129 1 view .LVU5
  23 000e C3       		ret
  24              		.cfi_endproc
  25              	.LFE51:
  27              		.section	.text.jround_up,"ax",@progbits
  28              		.p2align 4
  29              		.globl	jround_up
  31              	jround_up:
  32              	.LVL1:
  33              	.LFB52:
 130:fltk-1.3.4-1/jpeg/jutils.c **** 
 131:fltk-1.3.4-1/jpeg/jutils.c **** 
 132:fltk-1.3.4-1/jpeg/jutils.c **** GLOBAL(long)
 133:fltk-1.3.4-1/jpeg/jutils.c **** jround_up (long a, long b)
 134:fltk-1.3.4-1/jpeg/jutils.c **** /* Compute a rounded up to next multiple of b, ie, ceil(a/b)*b */
 135:fltk-1.3.4-1/jpeg/jutils.c **** /* Assumes a >= 0, b > 0 */
 136:fltk-1.3.4-1/jpeg/jutils.c **** {
  34              		.loc 1 136 1 is_stmt 1 view -0
  35              		.cfi_startproc
  36              		.loc 1 136 1 is_stmt 0 view .LVU7
  37 0000 F30F1EFA 		endbr64
 137:fltk-1.3.4-1/jpeg/jutils.c ****   a += b - 1L;
  38              		.loc 1 137 3 is_stmt 1 view .LVU8
  39              		.loc 1 137 5 is_stmt 0 view .LVU9
  40 0004 488D4C3E 		leaq	-1(%rsi,%rdi), %rcx
  40      FF
  41              	.LVL2:
 138:fltk-1.3.4-1/jpeg/jutils.c ****   return a - (a % b);
  42              		.loc 1 138 3 is_stmt 1 view .LVU10
  43              		.loc 1 138 17 is_stmt 0 view .LVU11
  44 0009 4889C8   		movq	%rcx, %rax
  45 000c 4899     		cqto
  46 000e 48F7FE   		idivq	%rsi
  47              		.loc 1 138 12 view .LVU12
  48 0011 4889C8   		movq	%rcx, %rax
  49 0014 4829D0   		subq	%rdx, %rax
 139:fltk-1.3.4-1/jpeg/jutils.c **** }
  50              		.loc 1 139 1 view .LVU13
  51 0017 C3       		ret
  52              		.cfi_endproc
  53              	.LFE52:
  55              		.section	.text.jcopy_sample_rows,"ax",@progbits
  56              		.p2align 4
  57              		.globl	jcopy_sample_rows
  59              	jcopy_sample_rows:
  60              	.LVL3:
  61              	.LFB53:
 140:fltk-1.3.4-1/jpeg/jutils.c **** 
 141:fltk-1.3.4-1/jpeg/jutils.c **** 
 142:fltk-1.3.4-1/jpeg/jutils.c **** /* On normal machines we can apply MEMCOPY() and MEMZERO() to sample arrays
 143:fltk-1.3.4-1/jpeg/jutils.c ****  * and coefficient-block arrays.  This won't work on 80x86 because the arrays
 144:fltk-1.3.4-1/jpeg/jutils.c ****  * are FAR and we're assuming a small-pointer memory model.  However, some
 145:fltk-1.3.4-1/jpeg/jutils.c ****  * DOS compilers provide far-pointer versions of memcpy() and memset() even
 146:fltk-1.3.4-1/jpeg/jutils.c ****  * in the small-model libraries.  These will be used if USE_FMEM is defined.
 147:fltk-1.3.4-1/jpeg/jutils.c ****  * Otherwise, the routines below do it the hard way.  (The performance cost
 148:fltk-1.3.4-1/jpeg/jutils.c ****  * is not all that great, because these routines aren't very heavily used.)
 149:fltk-1.3.4-1/jpeg/jutils.c ****  */
 150:fltk-1.3.4-1/jpeg/jutils.c **** 
 151:fltk-1.3.4-1/jpeg/jutils.c **** #ifndef NEED_FAR_POINTERS	/* normal case, same as regular macro */
 152:fltk-1.3.4-1/jpeg/jutils.c **** #define FMEMCOPY(dest,src,size)	MEMCOPY(dest,src,size)
 153:fltk-1.3.4-1/jpeg/jutils.c **** #else				/* 80x86 case, define if we can */
 154:fltk-1.3.4-1/jpeg/jutils.c **** #ifdef USE_FMEM
 155:fltk-1.3.4-1/jpeg/jutils.c **** #define FMEMCOPY(dest,src,size)	_fmemcpy((void FAR *)(dest), (const void FAR *)(src), (size_t)(size
 156:fltk-1.3.4-1/jpeg/jutils.c **** #else
 157:fltk-1.3.4-1/jpeg/jutils.c **** /* This function is for use by the FMEMZERO macro defined in jpegint.h.
 158:fltk-1.3.4-1/jpeg/jutils.c ****  * Do not call this function directly, use the FMEMZERO macro instead.
 159:fltk-1.3.4-1/jpeg/jutils.c ****  */
 160:fltk-1.3.4-1/jpeg/jutils.c **** GLOBAL(void)
 161:fltk-1.3.4-1/jpeg/jutils.c **** jzero_far (void FAR * target, size_t bytestozero)
 162:fltk-1.3.4-1/jpeg/jutils.c **** /* Zero out a chunk of FAR memory. */
 163:fltk-1.3.4-1/jpeg/jutils.c **** /* This might be sample-array data, block-array data, or alloc_large data. */
 164:fltk-1.3.4-1/jpeg/jutils.c **** {
 165:fltk-1.3.4-1/jpeg/jutils.c ****   register char FAR * ptr = (char FAR *) target;
 166:fltk-1.3.4-1/jpeg/jutils.c ****   register size_t count;
 167:fltk-1.3.4-1/jpeg/jutils.c **** 
 168:fltk-1.3.4-1/jpeg/jutils.c ****   for (count = bytestozero; count > 0; count--) {
 169:fltk-1.3.4-1/jpeg/jutils.c ****     *ptr++ = 0;
 170:fltk-1.3.4-1/jpeg/jutils.c ****   }
 171:fltk-1.3.4-1/jpeg/jutils.c **** }
 172:fltk-1.3.4-1/jpeg/jutils.c **** #endif
 173:fltk-1.3.4-1/jpeg/jutils.c **** #endif
 174:fltk-1.3.4-1/jpeg/jutils.c **** 
 175:fltk-1.3.4-1/jpeg/jutils.c **** 
 176:fltk-1.3.4-1/jpeg/jutils.c **** GLOBAL(void)
 177:fltk-1.3.4-1/jpeg/jutils.c **** jcopy_sample_rows (JSAMPARRAY input_array, int source_row,
 178:fltk-1.3.4-1/jpeg/jutils.c **** 		   JSAMPARRAY output_array, int dest_row,
 179:fltk-1.3.4-1/jpeg/jutils.c **** 		   int num_rows, JDIMENSION num_cols)
 180:fltk-1.3.4-1/jpeg/jutils.c **** /* Copy some rows of samples from one place to another.
 181:fltk-1.3.4-1/jpeg/jutils.c ****  * num_rows rows are copied from input_array[source_row++]
 182:fltk-1.3.4-1/jpeg/jutils.c ****  * to output_array[dest_row++]; these areas may overlap for duplication.
 183:fltk-1.3.4-1/jpeg/jutils.c ****  * The source and destination arrays must be at least as wide as num_cols.
 184:fltk-1.3.4-1/jpeg/jutils.c ****  */
 185:fltk-1.3.4-1/jpeg/jutils.c **** {
  62              		.loc 1 185 1 is_stmt 1 view -0
  63              		.cfi_startproc
  64              		.loc 1 185 1 is_stmt 0 view .LVU15
  65 0000 F30F1EFA 		endbr64
 186:fltk-1.3.4-1/jpeg/jutils.c ****   register JSAMPROW inptr, outptr;
  66              		.loc 1 186 3 is_stmt 1 view .LVU16
 187:fltk-1.3.4-1/jpeg/jutils.c **** #ifdef FMEMCOPY
 188:fltk-1.3.4-1/jpeg/jutils.c ****   register size_t count = (size_t) (num_cols * SIZEOF(JSAMPLE));
  67              		.loc 1 188 3 view .LVU17
  68              	.LVL4:
 189:fltk-1.3.4-1/jpeg/jutils.c **** #else
 190:fltk-1.3.4-1/jpeg/jutils.c ****   register JDIMENSION count;
 191:fltk-1.3.4-1/jpeg/jutils.c **** #endif
 192:fltk-1.3.4-1/jpeg/jutils.c ****   register int row;
  69              		.loc 1 192 3 view .LVU18
 193:fltk-1.3.4-1/jpeg/jutils.c **** 
 194:fltk-1.3.4-1/jpeg/jutils.c ****   input_array += source_row;
  70              		.loc 1 194 3 view .LVU19
 185:fltk-1.3.4-1/jpeg/jutils.c ****   register JSAMPROW inptr, outptr;
  71              		.loc 1 185 1 is_stmt 0 view .LVU20
  72 0004 4155     		pushq	%r13
  73              		.cfi_def_cfa_offset 16
  74              		.cfi_offset 13, -16
  75              		.loc 1 194 15 view .LVU21
  76 0006 4863F6   		movslq	%esi, %rsi
 195:fltk-1.3.4-1/jpeg/jutils.c ****   output_array += dest_row;
  77              		.loc 1 195 16 view .LVU22
  78 0009 4863C9   		movslq	%ecx, %rcx
 185:fltk-1.3.4-1/jpeg/jutils.c ****   register JSAMPROW inptr, outptr;
  79              		.loc 1 185 1 view .LVU23
  80 000c 4154     		pushq	%r12
  81              		.cfi_def_cfa_offset 24
  82              		.cfi_offset 12, -24
  83 000e 55       		pushq	%rbp
  84              		.cfi_def_cfa_offset 32
  85              		.cfi_offset 6, -32
  86              		.loc 1 195 16 view .LVU24
  87 000f 488D2CCA 		leaq	(%rdx,%rcx,8), %rbp
 185:fltk-1.3.4-1/jpeg/jutils.c ****   register JSAMPROW inptr, outptr;
  88              		.loc 1 185 1 view .LVU25
  89 0013 53       		pushq	%rbx
  90              		.cfi_def_cfa_offset 40
  91              		.cfi_offset 3, -40
 194:fltk-1.3.4-1/jpeg/jutils.c ****   output_array += dest_row;
  92              		.loc 1 194 15 view .LVU26
  93 0014 488D1CF7 		leaq	(%rdi,%rsi,8), %rbx
  94              	.LVL5:
  95              		.loc 1 195 3 is_stmt 1 view .LVU27
 196:fltk-1.3.4-1/jpeg/jutils.c **** 
 197:fltk-1.3.4-1/jpeg/jutils.c ****   for (row = num_rows; row > 0; row--) {
  96              		.loc 1 197 3 view .LVU28
  97              		.loc 1 197 24 view .LVU29
 185:fltk-1.3.4-1/jpeg/jutils.c ****   register JSAMPROW inptr, outptr;
  98              		.loc 1 185 1 is_stmt 0 view .LVU30
  99 0018 4883EC08 		subq	$8, %rsp
 100              		.cfi_def_cfa_offset 48
 101              		.loc 1 197 3 view .LVU31
 102 001c 4585C0   		testl	%r8d, %r8d
 103 001f 7E2B     		jle	.L4
 104 0021 418D40FF 		leal	-1(%r8), %eax
 105 0025 4589CC   		movl	%r9d, %r12d
 106              	.LVL6:
 107              		.loc 1 197 3 view .LVU32
 108 0028 4C8D6CC3 		leaq	8(%rbx,%rax,8), %r13
 108      08
 109              	.LVL7:
 110 002d 0F1F00   		.p2align 4,,10
 111              		.p2align 3
 112              	.L6:
 198:fltk-1.3.4-1/jpeg/jutils.c ****     inptr = *input_array++;
 113              		.loc 1 198 5 is_stmt 1 discriminator 3 view .LVU33
 114              	.LBB6:
 115              	.LBB7:
 116              		.file 2 "/usr/include/x86_64-linux-gnu/bits/string_fortified.h"
   1:/usr/include/x86_64-linux-gnu/bits/string_fortified.h **** /* Copyright (C) 2004-2020 Free Software Foundation, Inc.
   2:/usr/include/x86_64-linux-gnu/bits/string_fortified.h ****    This file is part of the GNU C Library.
   3:/usr/include/x86_64-linux-gnu/bits/string_fortified.h **** 
   4:/usr/include/x86_64-linux-gnu/bits/string_fortified.h ****    The GNU C Library is free software; you can redistribute it and/or
   5:/usr/include/x86_64-linux-gnu/bits/string_fortified.h ****    modify it under the terms of the GNU Lesser General Public
   6:/usr/include/x86_64-linux-gnu/bits/string_fortified.h ****    License as published by the Free Software Foundation; either
   7:/usr/include/x86_64-linux-gnu/bits/string_fortified.h ****    version 2.1 of the License, or (at your option) any later version.
   8:/usr/include/x86_64-linux-gnu/bits/string_fortified.h **** 
   9:/usr/include/x86_64-linux-gnu/bits/string_fortified.h ****    The GNU C Library is distributed in the hope that it will be useful,
  10:/usr/include/x86_64-linux-gnu/bits/string_fortified.h ****    but WITHOUT ANY WARRANTY; without even the implied warranty of
  11:/usr/include/x86_64-linux-gnu/bits/string_fortified.h ****    MERCHANTABILITY or FITNESS FOR A PARTICULAR PURPOSE.  See the GNU
  12:/usr/include/x86_64-linux-gnu/bits/string_fortified.h ****    Lesser General Public License for more details.
  13:/usr/include/x86_64-linux-gnu/bits/string_fortified.h **** 
  14:/usr/include/x86_64-linux-gnu/bits/string_fortified.h ****    You should have received a copy of the GNU Lesser General Public
  15:/usr/include/x86_64-linux-gnu/bits/string_fortified.h ****    License along with the GNU C Library; if not, see
  16:/usr/include/x86_64-linux-gnu/bits/string_fortified.h ****    <https://www.gnu.org/licenses/>.  */
  17:/usr/include/x86_64-linux-gnu/bits/string_fortified.h **** 
  18:/usr/include/x86_64-linux-gnu/bits/string_fortified.h **** #ifndef _BITS_STRING_FORTIFIED_H
  19:/usr/include/x86_64-linux-gnu/bits/string_fortified.h **** #define _BITS_STRING_FORTIFIED_H 1
  20:/usr/include/x86_64-linux-gnu/bits/string_fortified.h **** 
  21:/usr/include/x86_64-linux-gnu/bits/string_fortified.h **** #ifndef _STRING_H
  22:/usr/include/x86_64-linux-gnu/bits/string_fortified.h **** # error "Never use <bits/string_fortified.h> directly; include <string.h> instead."
  23:/usr/include/x86_64-linux-gnu/bits/string_fortified.h **** #endif
  24:/usr/include/x86_64-linux-gnu/bits/string_fortified.h **** 
  25:/usr/include/x86_64-linux-gnu/bits/string_fortified.h **** #if !__GNUC_PREREQ (5,0)
  26:/usr/include/x86_64-linux-gnu/bits/string_fortified.h **** __warndecl (__warn_memset_zero_len,
  27:/usr/include/x86_64-linux-gnu/bits/string_fortified.h **** 	    "memset used with constant zero length parameter; this could be due to transposed parameters")
  28:/usr/include/x86_64-linux-gnu/bits/string_fortified.h **** #endif
  29:/usr/include/x86_64-linux-gnu/bits/string_fortified.h **** 
  30:/usr/include/x86_64-linux-gnu/bits/string_fortified.h **** __fortify_function void *
  31:/usr/include/x86_64-linux-gnu/bits/string_fortified.h **** __NTH (memcpy (void *__restrict __dest, const void *__restrict __src,
  32:/usr/include/x86_64-linux-gnu/bits/string_fortified.h **** 	       size_t __len))
  33:/usr/include/x86_64-linux-gnu/bits/string_fortified.h **** {
  34:/usr/include/x86_64-linux-gnu/bits/string_fortified.h ****   return __builtin___memcpy_chk (__dest, __src, __len, __bos0 (__dest));
 117              		.loc 2 34 10 is_stmt 0 discriminator 3 view .LVU34
 118 0030 488B7D00 		movq	0(%rbp), %rdi
 119 0034 488B33   		movq	(%rbx), %rsi
 120              	.LBE7:
 121              	.LBE6:
 122              		.loc 1 198 25 discriminator 3 view .LVU35
 123 0037 4883C308 		addq	$8, %rbx
 124              	.LVL8:
 199:fltk-1.3.4-1/jpeg/jutils.c ****     outptr = *output_array++;
 125              		.loc 1 199 5 is_stmt 1 discriminator 3 view .LVU36
 126              	.LBB10:
 127              	.LBB8:
 128              		.loc 2 34 10 is_stmt 0 discriminator 3 view .LVU37
 129 003b 4C89E2   		movq	%r12, %rdx
 130              	.LBE8:
 131              	.LBE10:
 132              		.loc 1 199 27 discriminator 3 view .LVU38
 133 003e 4883C508 		addq	$8, %rbp
 134              	.LVL9:
 200:fltk-1.3.4-1/jpeg/jutils.c **** #ifdef FMEMCOPY
 201:fltk-1.3.4-1/jpeg/jutils.c ****     FMEMCOPY(outptr, inptr, count);
 135              		.loc 1 201 5 is_stmt 1 discriminator 3 view .LVU39
 136              	.LBB11:
 137              	.LBI6:
  31:/usr/include/x86_64-linux-gnu/bits/string_fortified.h **** 	       size_t __len))
 138              		.loc 2 31 1 discriminator 3 view .LVU40
 139              	.LBB9:
 140              		.loc 2 34 3 discriminator 3 view .LVU41
 141              		.loc 2 34 10 is_stmt 0 discriminator 3 view .LVU42
 142 0042 E8000000 		call	memcpy@PLT
 142      00
 143              	.LVL10:
 144              		.loc 2 34 10 discriminator 3 view .LVU43
 145              	.LBE9:
 146              	.LBE11:
 197:fltk-1.3.4-1/jpeg/jutils.c ****     inptr = *input_array++;
 147              		.loc 1 197 33 is_stmt 1 discriminator 3 view .LVU44
 197:fltk-1.3.4-1/jpeg/jutils.c ****     inptr = *input_array++;
 148              		.loc 1 197 24 discriminator 3 view .LVU45
 197:fltk-1.3.4-1/jpeg/jutils.c ****     inptr = *input_array++;
 149              		.loc 1 197 3 is_stmt 0 discriminator 3 view .LVU46
 150 0047 4C39EB   		cmpq	%r13, %rbx
 151 004a 75E4     		jne	.L6
 152              	.LVL11:
 153              	.L4:
 202:fltk-1.3.4-1/jpeg/jutils.c **** #else
 203:fltk-1.3.4-1/jpeg/jutils.c ****     for (count = num_cols; count > 0; count--)
 204:fltk-1.3.4-1/jpeg/jutils.c ****       *outptr++ = *inptr++;	/* needn't bother with GETJSAMPLE() here */
 205:fltk-1.3.4-1/jpeg/jutils.c **** #endif
 206:fltk-1.3.4-1/jpeg/jutils.c ****   }
 207:fltk-1.3.4-1/jpeg/jutils.c **** }
 154              		.loc 1 207 1 view .LVU47
 155 004c 4883C408 		addq	$8, %rsp
 156              		.cfi_def_cfa_offset 40
 157 0050 5B       		popq	%rbx
 158              		.cfi_def_cfa_offset 32
 159              	.LVL12:
 160              		.loc 1 207 1 view .LVU48
 161 0051 5D       		popq	%rbp
 162              		.cfi_def_cfa_offset 24
 163              	.LVL13:
 164              		.loc 1 207 1 view .LVU49
 165 0052 415C     		popq	%r12
 166              		.cfi_def_cfa_offset 16
 167 0054 415D     		popq	%r13
 168              		.cfi_def_cfa_offset 8
 169 0056 C3       		ret
 170              		.cfi_endproc
 171              	.LFE53:
 173              		.section	.text.jcopy_block_row,"ax",@progbits
 174              		.p2align 4
 175              		.globl	jcopy_block_row
 177              	jcopy_block_row:
 178              	.LVL14:
 179              	.LFB54:
 208:fltk-1.3.4-1/jpeg/jutils.c **** 
 209:fltk-1.3.4-1/jpeg/jutils.c **** 
 210:fltk-1.3.4-1/jpeg/jutils.c **** GLOBAL(void)
 211:fltk-1.3.4-1/jpeg/jutils.c **** jcopy_block_row (JBLOCKROW input_row, JBLOCKROW output_row,
 212:fltk-1.3.4-1/jpeg/jutils.c **** 		 JDIMENSION num_blocks)
 213:fltk-1.3.4-1/jpeg/jutils.c **** /* Copy a row of coefficient blocks from one place to another. */
 214:fltk-1.3.4-1/jpeg/jutils.c **** {
 180              		.loc 1 214 1 is_stmt 1 view -0
 181              		.cfi_startproc
 182              		.loc 1 214 1 is_stmt 0 view .LVU51
 183 0000 F30F1EFA 		endbr64
 215:fltk-1.3.4-1/jpeg/jutils.c **** #ifdef FMEMCOPY
 216:fltk-1.3.4-1/jpeg/jutils.c ****   FMEMCOPY(output_row, input_row, num_blocks * (DCTSIZE2 * SIZEOF(JCOEF)));
 184              		.loc 1 216 3 is_stmt 1 view .LVU52
 214:fltk-1.3.4-1/jpeg/jutils.c **** #ifdef FMEMCOPY
 185              		.loc 1 214 1 is_stmt 0 view .LVU53
 186 0004 4989F8   		movq	%rdi, %r8
 187              		.loc 1 216 3 view .LVU54
 188 0007 89D2     		movl	%edx, %edx
 214:fltk-1.3.4-1/jpeg/jutils.c **** #ifdef FMEMCOPY
 189              		.loc 1 214 1 view .LVU55
 190 0009 4889F7   		movq	%rsi, %rdi
 191              	.LVL15:
 192              	.LBB12:
 193              	.LBI12:
  31:/usr/include/x86_64-linux-gnu/bits/string_fortified.h **** 	       size_t __len))
 194              		.loc 2 31 1 is_stmt 1 view .LVU56
 195              	.LBB13:
 196              		.loc 2 34 3 view .LVU57
 197              	.LBE13:
 198              	.LBE12:
 199              		.loc 1 216 3 is_stmt 0 view .LVU58
 200 000c 48C1E207 		salq	$7, %rdx
 201              	.LVL16:
 202              	.LBB15:
 203              	.LBB14:
 204              		.loc 2 34 10 view .LVU59
 205 0010 4C89C6   		movq	%r8, %rsi
 206              	.LVL17:
 207              		.loc 2 34 10 view .LVU60
 208 0013 E9000000 		jmp	memcpy@PLT
 208      00
 209              	.LVL18:
 210              		.loc 2 34 10 view .LVU61
 211              	.LBE14:
 212              	.LBE15:
 213              		.cfi_endproc
 214              	.LFE54:
 216              		.globl	jpeg_natural_order2
 217              		.section	.rodata.jpeg_natural_order2,"a"
 218              		.align 32
 221              	jpeg_natural_order2:
 222 0000 00000000 		.long	0
 223 0004 01000000 		.long	1
 224 0008 08000000 		.long	8
 225 000c 09000000 		.long	9
 226 0010 3F000000 		.long	63
 227 0014 3F000000 		.long	63
 228 0018 3F000000 		.long	63
 229 001c 3F000000 		.long	63
 230 0020 3F000000 		.long	63
 231 0024 3F000000 		.long	63
 232 0028 3F000000 		.long	63
 233 002c 3F000000 		.long	63
 234 0030 3F000000 		.long	63
 235 0034 3F000000 		.long	63
 236 0038 3F000000 		.long	63
 237 003c 3F000000 		.long	63
 238 0040 3F000000 		.long	63
 239 0044 3F000000 		.long	63
 240 0048 3F000000 		.long	63
 241 004c 3F000000 		.long	63
 242              		.globl	jpeg_natural_order3
 243              		.section	.rodata.jpeg_natural_order3,"a"
 244              		.align 32
 247              	jpeg_natural_order3:
 248 0000 00000000 		.long	0
 249 0004 01000000 		.long	1
 250 0008 08000000 		.long	8
 251 000c 10000000 		.long	16
 252 0010 09000000 		.long	9
 253 0014 02000000 		.long	2
 254 0018 0A000000 		.long	10
 255 001c 11000000 		.long	17
 256 0020 12000000 		.long	18
 257 0024 3F000000 		.long	63
 258 0028 3F000000 		.long	63
 259 002c 3F000000 		.long	63
 260 0030 3F000000 		.long	63
 261 0034 3F000000 		.long	63
 262 0038 3F000000 		.long	63
 263 003c 3F000000 		.long	63
 264 0040 3F000000 		.long	63
 265 0044 3F000000 		.long	63
 266 0048 3F000000 		.long	63
 267 004c 3F000000 		.long	63
 268 0050 3F000000 		.long	63
 269 0054 3F000000 		.long	63
 270 0058 3F000000 		.long	63
 271 005c 3F000000 		.long	63
 272 0060 3F000000 		.long	63
 273              		.globl	jpeg_natural_order4
 274              		.section	.rodata.jpeg_natural_order4,"a"
 275              		.align 32
 278              	jpeg_natural_order4:
 279 0000 00000000 		.long	0
 280 0004 01000000 		.long	1
 281 0008 08000000 		.long	8
 282 000c 10000000 		.long	16
 283 0010 09000000 		.long	9
 284 0014 02000000 		.long	2
 285 0018 03000000 		.long	3
 286 001c 0A000000 		.long	10
 287 0020 11000000 		.long	17
 288 0024 18000000 		.long	24
 289 0028 19000000 		.long	25
 290 002c 12000000 		.long	18
 291 0030 0B000000 		.long	11
 292 0034 13000000 		.long	19
 293 0038 1A000000 		.long	26
 294 003c 1B000000 		.long	27
 295 0040 3F000000 		.long	63
 296 0044 3F000000 		.long	63
 297 0048 3F000000 		.long	63
 298 004c 3F000000 		.long	63
 299 0050 3F000000 		.long	63
 300 0054 3F000000 		.long	63
 301 0058 3F000000 		.long	63
 302 005c 3F000000 		.long	63
 303 0060 3F000000 		.long	63
 304 0064 3F000000 		.long	63
 305 0068 3F000000 		.long	63
 306 006c 3F000000 		.long	63
 307 0070 3F000000 		.long	63
 308 0074 3F000000 		.long	63
 309 0078 3F000000 		.long	63
 310 007c 3F000000 		.long	63
 311              		.globl	jpeg_natural_order5
 312              		.section	.rodata.jpeg_natural_order5,"a"
 313              		.align 32
 316              	jpeg_natural_order5:
 317 0000 00000000 		.long	0
 318 0004 01000000 		.long	1
 319 0008 08000000 		.long	8
 320 000c 10000000 		.long	16
 321 0010 09000000 		.long	9
 322 0014 02000000 		.long	2
 323 0018 03000000 		.long	3
 324 001c 0A000000 		.long	10
 325 0020 11000000 		.long	17
 326 0024 18000000 		.long	24
 327 0028 20000000 		.long	32
 328 002c 19000000 		.long	25
 329 0030 12000000 		.long	18
 330 0034 0B000000 		.long	11
 331 0038 04000000 		.long	4
 332 003c 0C000000 		.long	12
 333 0040 13000000 		.long	19
 334 0044 1A000000 		.long	26
 335 0048 21000000 		.long	33
 336 004c 22000000 		.long	34
 337 0050 1B000000 		.long	27
 338 0054 14000000 		.long	20
 339 0058 1C000000 		.long	28
 340 005c 23000000 		.long	35
 341 0060 24000000 		.long	36
 342 0064 3F000000 		.long	63
 343 0068 3F000000 		.long	63
 344 006c 3F000000 		.long	63
 345 0070 3F000000 		.long	63
 346 0074 3F000000 		.long	63
 347 0078 3F000000 		.long	63
 348 007c 3F000000 		.long	63
 349 0080 3F000000 		.long	63
 350 0084 3F000000 		.long	63
 351 0088 3F000000 		.long	63
 352 008c 3F000000 		.long	63
 353 0090 3F000000 		.long	63
 354 0094 3F000000 		.long	63
 355 0098 3F000000 		.long	63
 356 009c 3F000000 		.long	63
 357 00a0 3F000000 		.long	63
 358              		.globl	jpeg_natural_order6
 359              		.section	.rodata.jpeg_natural_order6,"a"
 360              		.align 32
 363              	jpeg_natural_order6:
 364 0000 00000000 		.long	0
 365 0004 01000000 		.long	1
 366 0008 08000000 		.long	8
 367 000c 10000000 		.long	16
 368 0010 09000000 		.long	9
 369 0014 02000000 		.long	2
 370 0018 03000000 		.long	3
 371 001c 0A000000 		.long	10
 372 0020 11000000 		.long	17
 373 0024 18000000 		.long	24
 374 0028 20000000 		.long	32
 375 002c 19000000 		.long	25
 376 0030 12000000 		.long	18
 377 0034 0B000000 		.long	11
 378 0038 04000000 		.long	4
 379 003c 05000000 		.long	5
 380 0040 0C000000 		.long	12
 381 0044 13000000 		.long	19
 382 0048 1A000000 		.long	26
 383 004c 21000000 		.long	33
 384 0050 28000000 		.long	40
 385 0054 29000000 		.long	41
 386 0058 22000000 		.long	34
 387 005c 1B000000 		.long	27
 388 0060 14000000 		.long	20
 389 0064 0D000000 		.long	13
 390 0068 15000000 		.long	21
 391 006c 1C000000 		.long	28
 392 0070 23000000 		.long	35
 393 0074 2A000000 		.long	42
 394 0078 2B000000 		.long	43
 395 007c 24000000 		.long	36
 396 0080 1D000000 		.long	29
 397 0084 25000000 		.long	37
 398 0088 2C000000 		.long	44
 399 008c 2D000000 		.long	45
 400 0090 3F000000 		.long	63
 401 0094 3F000000 		.long	63
 402 0098 3F000000 		.long	63
 403 009c 3F000000 		.long	63
 404 00a0 3F000000 		.long	63
 405 00a4 3F000000 		.long	63
 406 00a8 3F000000 		.long	63
 407 00ac 3F000000 		.long	63
 408 00b0 3F000000 		.long	63
 409 00b4 3F000000 		.long	63
 410 00b8 3F000000 		.long	63
 411 00bc 3F000000 		.long	63
 412 00c0 3F000000 		.long	63
 413 00c4 3F000000 		.long	63
 414 00c8 3F000000 		.long	63
 415 00cc 3F000000 		.long	63
 416              		.globl	jpeg_natural_order7
 417              		.section	.rodata.jpeg_natural_order7,"a"
 418              		.align 32
 421              	jpeg_natural_order7:
 422 0000 00000000 		.long	0
 423 0004 01000000 		.long	1
 424 0008 08000000 		.long	8
 425 000c 10000000 		.long	16
 426 0010 09000000 		.long	9
 427 0014 02000000 		.long	2
 428 0018 03000000 		.long	3
 429 001c 0A000000 		.long	10
 430 0020 11000000 		.long	17
 431 0024 18000000 		.long	24
 432 0028 20000000 		.long	32
 433 002c 19000000 		.long	25
 434 0030 12000000 		.long	18
 435 0034 0B000000 		.long	11
 436 0038 04000000 		.long	4
 437 003c 05000000 		.long	5
 438 0040 0C000000 		.long	12
 439 0044 13000000 		.long	19
 440 0048 1A000000 		.long	26
 441 004c 21000000 		.long	33
 442 0050 28000000 		.long	40
 443 0054 30000000 		.long	48
 444 0058 29000000 		.long	41
 445 005c 22000000 		.long	34
 446 0060 1B000000 		.long	27
 447 0064 14000000 		.long	20
 448 0068 0D000000 		.long	13
 449 006c 06000000 		.long	6
 450 0070 0E000000 		.long	14
 451 0074 15000000 		.long	21
 452 0078 1C000000 		.long	28
 453 007c 23000000 		.long	35
 454 0080 2A000000 		.long	42
 455 0084 31000000 		.long	49
 456 0088 32000000 		.long	50
 457 008c 2B000000 		.long	43
 458 0090 24000000 		.long	36
 459 0094 1D000000 		.long	29
 460 0098 16000000 		.long	22
 461 009c 1E000000 		.long	30
 462 00a0 25000000 		.long	37
 463 00a4 2C000000 		.long	44
 464 00a8 33000000 		.long	51
 465 00ac 34000000 		.long	52
 466 00b0 2D000000 		.long	45
 467 00b4 26000000 		.long	38
 468 00b8 2E000000 		.long	46
 469 00bc 35000000 		.long	53
 470 00c0 36000000 		.long	54
 471 00c4 3F000000 		.long	63
 472 00c8 3F000000 		.long	63
 473 00cc 3F000000 		.long	63
 474 00d0 3F000000 		.long	63
 475 00d4 3F000000 		.long	63
 476 00d8 3F000000 		.long	63
 477 00dc 3F000000 		.long	63
 478 00e0 3F000000 		.long	63
 479 00e4 3F000000 		.long	63
 480 00e8 3F000000 		.long	63
 481 00ec 3F000000 		.long	63
 482 00f0 3F000000 		.long	63
 483 00f4 3F000000 		.long	63
 484 00f8 3F000000 		.long	63
 485 00fc 3F000000 		.long	63
 486 0100 3F000000 		.long	63
 487              		.globl	jpeg_natural_order
 488              		.section	.rodata.jpeg_natural_order,"a"
 489              		.align 32
 492              	jpeg_natural_order:
 493 0000 00000000 		.long	0
 494 0004 01000000 		.long	1
 495 0008 08000000 		.long	8
 496 000c 10000000 		.long	16
 497 0010 09000000 		.long	9
 498 0014 02000000 		.long	2
 499 0018 03000000 		.long	3
 500 001c 0A000000 		.long	10
 501 0020 11000000 		.long	17
 502 0024 18000000 		.long	24
 503 0028 20000000 		.long	32
 504 002c 19000000 		.long	25
 505 0030 12000000 		.long	18
 506 0034 0B000000 		.long	11
 507 0038 04000000 		.long	4
 508 003c 05000000 		.long	5
 509 0040 0C000000 		.long	12
 510 0044 13000000 		.long	19
 511 0048 1A000000 		.long	26
 512 004c 21000000 		.long	33
 513 0050 28000000 		.long	40
 514 0054 30000000 		.long	48
 515 0058 29000000 		.long	41
 516 005c 22000000 		.long	34
 517 0060 1B000000 		.long	27
 518 0064 14000000 		.long	20
 519 0068 0D000000 		.long	13
 520 006c 06000000 		.long	6
 521 0070 07000000 		.long	7
 522 0074 0E000000 		.long	14
 523 0078 15000000 		.long	21
 524 007c 1C000000 		.long	28
 525 0080 23000000 		.long	35
 526 0084 2A000000 		.long	42
 527 0088 31000000 		.long	49
 528 008c 38000000 		.long	56
 529 0090 39000000 		.long	57
 530 0094 32000000 		.long	50
 531 0098 2B000000 		.long	43
 532 009c 24000000 		.long	36
 533 00a0 1D000000 		.long	29
 534 00a4 16000000 		.long	22
 535 00a8 0F000000 		.long	15
 536 00ac 17000000 		.long	23
 537 00b0 1E000000 		.long	30
 538 00b4 25000000 		.long	37
 539 00b8 2C000000 		.long	44
 540 00bc 33000000 		.long	51
 541 00c0 3A000000 		.long	58
 542 00c4 3B000000 		.long	59
 543 00c8 34000000 		.long	52
 544 00cc 2D000000 		.long	45
 545 00d0 26000000 		.long	38
 546 00d4 1F000000 		.long	31
 547 00d8 27000000 		.long	39
 548 00dc 2E000000 		.long	46
 549 00e0 35000000 		.long	53
 550 00e4 3C000000 		.long	60
 551 00e8 3D000000 		.long	61
 552 00ec 36000000 		.long	54
 553 00f0 2F000000 		.long	47
 554 00f4 37000000 		.long	55
 555 00f8 3E000000 		.long	62
 556 00fc 3F000000 		.long	63
 557 0100 3F000000 		.long	63
 558 0104 3F000000 		.long	63
 559 0108 3F000000 		.long	63
 560 010c 3F000000 		.long	63
 561 0110 3F000000 		.long	63
 562 0114 3F000000 		.long	63
 563 0118 3F000000 		.long	63
 564 011c 3F000000 		.long	63
 565 0120 3F000000 		.long	63
 566 0124 3F000000 		.long	63
 567 0128 3F000000 		.long	63
 568 012c 3F000000 		.long	63
 569 0130 3F000000 		.long	63
 570 0134 3F000000 		.long	63
 571 0138 3F000000 		.long	63
 572 013c 3F000000 		.long	63
 573              		.text
 574              	.Letext0:
 575              		.file 3 "/usr/lib/gcc/x86_64-linux-gnu/9/include/stddef.h"
 576              		.file 4 "/usr/include/x86_64-linux-gnu/bits/types.h"
 577              		.file 5 "/usr/include/x86_64-linux-gnu/bits/types/struct_FILE.h"
 578              		.file 6 "/usr/include/x86_64-linux-gnu/bits/types/FILE.h"
 579              		.file 7 "/usr/include/stdio.h"
 580              		.file 8 "/usr/include/x86_64-linux-gnu/bits/sys_errlist.h"
 581              		.file 9 "fltk-1.3.4-1/jpeg/jmorecfg.h"
 582              		.file 10 "fltk-1.3.4-1/jpeg/jpeglib.h"
 583              		.file 11 "fltk-1.3.4-1/jpeg/jpegint.h"
 584              		.file 12 "<built-in>"
 8332              		.section	.note.gnu.property,"a"
 8333              		.align 8
 8334 0000 04000000 		.long	 1f - 0f
 8335 0004 10000000 		.long	 4f - 1f
 8336 0008 05000000 		.long	 5
 8337              	0:
 8338 000c 474E5500 		.string	 "GNU"
 8339              	1:
 8340              		.align 8
 8341 0010 020000C0 		.long	 0xc0000002
 8342 0014 04000000 		.long	 3f - 2f
 8343              	2:
 8344 0018 03000000 		.long	 0x3
 8345              	3:
 8346 001c 00000000 		.align 8
 8347              	4: